
CLI_StarterCode.elf:     file format elf32-littlearm

Sections:
Idx Name          Size      VMA       LMA       File off  Algn
  0 .text         000067bc  00000000  00000000  00010000  2**4
                  CONTENTS, ALLOC, LOAD, READONLY, CODE
  1 .relocate     000001e4  20000000  000067bc  00020000  2**2
                  CONTENTS, ALLOC, LOAD, DATA
  2 .bss          000036f4  200001e4  000069a0  000201e4  2**2
                  ALLOC
  3 .stack        00002000  200038d8  0000a094  000201e4  2**0
                  ALLOC
  4 .ARM.attributes 00000028  00000000  00000000  000201e4  2**0
                  CONTENTS, READONLY
  5 .comment      00000059  00000000  00000000  0002020c  2**0
                  CONTENTS, READONLY
  6 .debug_info   0002b721  00000000  00000000  00020265  2**0
                  CONTENTS, READONLY, DEBUGGING
  7 .debug_abbrev 000041d0  00000000  00000000  0004b986  2**0
                  CONTENTS, READONLY, DEBUGGING
  8 .debug_loc    00003f78  00000000  00000000  0004fb56  2**0
                  CONTENTS, READONLY, DEBUGGING
  9 .debug_aranges 00000bc0  00000000  00000000  00053ace  2**0
                  CONTENTS, READONLY, DEBUGGING
 10 .debug_ranges 00000a40  00000000  00000000  0005468e  2**0
                  CONTENTS, READONLY, DEBUGGING
 11 .debug_macro  0001d04f  00000000  00000000  000550ce  2**0
                  CONTENTS, READONLY, DEBUGGING
 12 .debug_line   00011072  00000000  00000000  0007211d  2**0
                  CONTENTS, READONLY, DEBUGGING
 13 .debug_str    0009355b  00000000  00000000  0008318f  2**0
                  CONTENTS, READONLY, DEBUGGING
 14 .debug_frame  00002c58  00000000  00000000  001166ec  2**2
                  CONTENTS, READONLY, DEBUGGING

Disassembly of section .text:

00000000 <exception_table>:
       0:	d8 58 00 20 01 0b 00 00 f9 0b 00 00 f9 0b 00 00     .X. ............
	...
      2c:	81 10 00 00 00 00 00 00 00 00 00 00 b1 11 00 00     ................
      3c:	f9 11 00 00 f9 0b 00 00 f9 0b 00 00 f9 0b 00 00     ................
      4c:	f9 0b 00 00 f9 0b 00 00 f9 0b 00 00 f9 0b 00 00     ................
      5c:	f9 0b 00 00 f9 0b 00 00 11 4b 00 00 29 4b 00 00     .........K..)K..
      6c:	41 4b 00 00 59 4b 00 00 71 4b 00 00 89 4b 00 00     AK..YK..qK...K..
      7c:	f9 0b 00 00 f9 0b 00 00 f9 0b 00 00 f9 0b 00 00     ................
      8c:	f9 0b 00 00 f9 0b 00 00 00 00 00 00 00 00 00 00     ................
      9c:	f9 0b 00 00 f9 0b 00 00 f9 0b 00 00 f9 0b 00 00     ................
      ac:	f9 0b 00 00 00 00 00 00                             ........

000000b4 <__do_global_dtors_aux>:
      b4:	b510      	push	{r4, lr}
      b6:	4c06      	ldr	r4, [pc, #24]	; (d0 <__do_global_dtors_aux+0x1c>)
      b8:	7823      	ldrb	r3, [r4, #0]
      ba:	2b00      	cmp	r3, #0
      bc:	d107      	bne.n	ce <__do_global_dtors_aux+0x1a>
      be:	4b05      	ldr	r3, [pc, #20]	; (d4 <__do_global_dtors_aux+0x20>)
      c0:	2b00      	cmp	r3, #0
      c2:	d002      	beq.n	ca <__do_global_dtors_aux+0x16>
      c4:	4804      	ldr	r0, [pc, #16]	; (d8 <__do_global_dtors_aux+0x24>)
      c6:	e000      	b.n	ca <__do_global_dtors_aux+0x16>
      c8:	bf00      	nop
      ca:	2301      	movs	r3, #1
      cc:	7023      	strb	r3, [r4, #0]
      ce:	bd10      	pop	{r4, pc}
      d0:	200001e4 	.word	0x200001e4
      d4:	00000000 	.word	0x00000000
      d8:	000067bc 	.word	0x000067bc

000000dc <frame_dummy>:
      dc:	4b08      	ldr	r3, [pc, #32]	; (100 <frame_dummy+0x24>)
      de:	b510      	push	{r4, lr}
      e0:	2b00      	cmp	r3, #0
      e2:	d003      	beq.n	ec <frame_dummy+0x10>
      e4:	4907      	ldr	r1, [pc, #28]	; (104 <frame_dummy+0x28>)
      e6:	4808      	ldr	r0, [pc, #32]	; (108 <frame_dummy+0x2c>)
      e8:	e000      	b.n	ec <frame_dummy+0x10>
      ea:	bf00      	nop
      ec:	4807      	ldr	r0, [pc, #28]	; (10c <frame_dummy+0x30>)
      ee:	6803      	ldr	r3, [r0, #0]
      f0:	2b00      	cmp	r3, #0
      f2:	d100      	bne.n	f6 <frame_dummy+0x1a>
      f4:	bd10      	pop	{r4, pc}
      f6:	4b06      	ldr	r3, [pc, #24]	; (110 <frame_dummy+0x34>)
      f8:	2b00      	cmp	r3, #0
      fa:	d0fb      	beq.n	f4 <frame_dummy+0x18>
      fc:	4798      	blx	r3
      fe:	e7f9      	b.n	f4 <frame_dummy+0x18>
     100:	00000000 	.word	0x00000000
     104:	200001e8 	.word	0x200001e8
     108:	000067bc 	.word	0x000067bc
     10c:	000067bc 	.word	0x000067bc
     110:	00000000 	.word	0x00000000

00000114 <cpu_irq_enter_critical>:
 */
volatile bool g_interrupt_enabled = true;
#endif

void cpu_irq_enter_critical(void)
{
     114:	b580      	push	{r7, lr}
     116:	b082      	sub	sp, #8
     118:	af00      	add	r7, sp, #0
	if (cpu_irq_critical_section_counter == 0) {
     11a:	4b10      	ldr	r3, [pc, #64]	; (15c <cpu_irq_enter_critical+0x48>)
     11c:	681b      	ldr	r3, [r3, #0]
     11e:	2b00      	cmp	r3, #0
     120:	d112      	bne.n	148 <cpu_irq_enter_critical+0x34>
 */
__STATIC_FORCEINLINE uint32_t __get_PRIMASK(void)
{
  uint32_t result;

  __ASM volatile ("MRS %0, primask" : "=r" (result) :: "memory");
     122:	f3ef 8310 	mrs	r3, PRIMASK
     126:	607b      	str	r3, [r7, #4]
  return(result);
     128:	687b      	ldr	r3, [r7, #4]
		if (cpu_irq_is_enabled()) {
     12a:	2b00      	cmp	r3, #0
     12c:	d109      	bne.n	142 <cpu_irq_enter_critical+0x2e>
  __ASM volatile ("cpsid i" : : : "memory");
     12e:	b672      	cpsid	i
  \details Ensures the apparent order of the explicit memory operations before
           and after the instruction, without ensuring their completion.
 */
__STATIC_FORCEINLINE void __DMB(void)
{
  __ASM volatile ("dmb 0xF":::"memory");
     130:	f3bf 8f5f 	dmb	sy
			cpu_irq_disable();
     134:	4b0a      	ldr	r3, [pc, #40]	; (160 <cpu_irq_enter_critical+0x4c>)
     136:	2200      	movs	r2, #0
     138:	701a      	strb	r2, [r3, #0]
			cpu_irq_prev_interrupt_state = true;
     13a:	4b0a      	ldr	r3, [pc, #40]	; (164 <cpu_irq_enter_critical+0x50>)
     13c:	2201      	movs	r2, #1
     13e:	701a      	strb	r2, [r3, #0]
     140:	e002      	b.n	148 <cpu_irq_enter_critical+0x34>
		} else {
			/* Make sure the to save the prev state as false */
			cpu_irq_prev_interrupt_state = false;
     142:	4b08      	ldr	r3, [pc, #32]	; (164 <cpu_irq_enter_critical+0x50>)
     144:	2200      	movs	r2, #0
     146:	701a      	strb	r2, [r3, #0]
		}

	}

	cpu_irq_critical_section_counter++;
     148:	4b04      	ldr	r3, [pc, #16]	; (15c <cpu_irq_enter_critical+0x48>)
     14a:	681b      	ldr	r3, [r3, #0]
     14c:	1c5a      	adds	r2, r3, #1
     14e:	4b03      	ldr	r3, [pc, #12]	; (15c <cpu_irq_enter_critical+0x48>)
     150:	601a      	str	r2, [r3, #0]
}
     152:	46c0      	nop			; (mov r8, r8)
     154:	46bd      	mov	sp, r7
     156:	b002      	add	sp, #8
     158:	bd80      	pop	{r7, pc}
     15a:	46c0      	nop			; (mov r8, r8)
     15c:	20000200 	.word	0x20000200
     160:	20000000 	.word	0x20000000
     164:	20000204 	.word	0x20000204

00000168 <cpu_irq_leave_critical>:

void cpu_irq_leave_critical(void)
{
     168:	b580      	push	{r7, lr}
     16a:	af00      	add	r7, sp, #0
	/* Check if the user is trying to leave a critical section when not in a critical section */
	Assert(cpu_irq_critical_section_counter > 0);

	cpu_irq_critical_section_counter--;
     16c:	4b0b      	ldr	r3, [pc, #44]	; (19c <cpu_irq_leave_critical+0x34>)
     16e:	681b      	ldr	r3, [r3, #0]
     170:	1e5a      	subs	r2, r3, #1
     172:	4b0a      	ldr	r3, [pc, #40]	; (19c <cpu_irq_leave_critical+0x34>)
     174:	601a      	str	r2, [r3, #0]

	/* Only enable global interrupts when the counter reaches 0 and the state of the global interrupt flag
	   was enabled when entering critical state */
	if ((cpu_irq_critical_section_counter == 0) && (cpu_irq_prev_interrupt_state)) {
     176:	4b09      	ldr	r3, [pc, #36]	; (19c <cpu_irq_leave_critical+0x34>)
     178:	681b      	ldr	r3, [r3, #0]
     17a:	2b00      	cmp	r3, #0
     17c:	d10a      	bne.n	194 <cpu_irq_leave_critical+0x2c>
     17e:	4b08      	ldr	r3, [pc, #32]	; (1a0 <cpu_irq_leave_critical+0x38>)
     180:	781b      	ldrb	r3, [r3, #0]
     182:	b2db      	uxtb	r3, r3
     184:	2b00      	cmp	r3, #0
     186:	d005      	beq.n	194 <cpu_irq_leave_critical+0x2c>
		cpu_irq_enable();
     188:	4b06      	ldr	r3, [pc, #24]	; (1a4 <cpu_irq_leave_critical+0x3c>)
     18a:	2201      	movs	r2, #1
     18c:	701a      	strb	r2, [r3, #0]
     18e:	f3bf 8f5f 	dmb	sy
  __ASM volatile ("cpsie i" : : : "memory");
     192:	b662      	cpsie	i
	}
}
     194:	46c0      	nop			; (mov r8, r8)
     196:	46bd      	mov	sp, r7
     198:	bd80      	pop	{r7, pc}
     19a:	46c0      	nop			; (mov r8, r8)
     19c:	20000200 	.word	0x20000200
     1a0:	20000204 	.word	0x20000204
     1a4:	20000000 	.word	0x20000000

000001a8 <system_pinmux_get_group_from_gpio_pin>:
 *
 * \return Base address of the associated PORT module.
 */
static inline PortGroup* system_pinmux_get_group_from_gpio_pin(
		const uint8_t gpio_pin)
{
     1a8:	b580      	push	{r7, lr}
     1aa:	b084      	sub	sp, #16
     1ac:	af00      	add	r7, sp, #0
     1ae:	0002      	movs	r2, r0
     1b0:	1dfb      	adds	r3, r7, #7
     1b2:	701a      	strb	r2, [r3, #0]
	uint8_t port_index  = (gpio_pin / 128);
     1b4:	230f      	movs	r3, #15
     1b6:	18fb      	adds	r3, r7, r3
     1b8:	1dfa      	adds	r2, r7, #7
     1ba:	7812      	ldrb	r2, [r2, #0]
     1bc:	09d2      	lsrs	r2, r2, #7
     1be:	701a      	strb	r2, [r3, #0]
	uint8_t group_index = (gpio_pin / 32);
     1c0:	230e      	movs	r3, #14
     1c2:	18fb      	adds	r3, r7, r3
     1c4:	1dfa      	adds	r2, r7, #7
     1c6:	7812      	ldrb	r2, [r2, #0]
     1c8:	0952      	lsrs	r2, r2, #5
     1ca:	701a      	strb	r2, [r3, #0]

	/* Array of available ports */
	Port *const ports[PORT_INST_NUM] = PORT_INSTS;
     1cc:	4b0d      	ldr	r3, [pc, #52]	; (204 <system_pinmux_get_group_from_gpio_pin+0x5c>)
     1ce:	60bb      	str	r3, [r7, #8]

	if (port_index < PORT_INST_NUM) {
     1d0:	230f      	movs	r3, #15
     1d2:	18fb      	adds	r3, r7, r3
     1d4:	781b      	ldrb	r3, [r3, #0]
     1d6:	2b00      	cmp	r3, #0
     1d8:	d10f      	bne.n	1fa <system_pinmux_get_group_from_gpio_pin+0x52>
		return &(ports[port_index]->Group[group_index]);
     1da:	230f      	movs	r3, #15
     1dc:	18fb      	adds	r3, r7, r3
     1de:	781b      	ldrb	r3, [r3, #0]
     1e0:	009b      	lsls	r3, r3, #2
     1e2:	2210      	movs	r2, #16
     1e4:	4694      	mov	ip, r2
     1e6:	44bc      	add	ip, r7
     1e8:	4463      	add	r3, ip
     1ea:	3b08      	subs	r3, #8
     1ec:	681a      	ldr	r2, [r3, #0]
     1ee:	230e      	movs	r3, #14
     1f0:	18fb      	adds	r3, r7, r3
     1f2:	781b      	ldrb	r3, [r3, #0]
     1f4:	01db      	lsls	r3, r3, #7
     1f6:	18d3      	adds	r3, r2, r3
     1f8:	e000      	b.n	1fc <system_pinmux_get_group_from_gpio_pin+0x54>
	} else {
		Assert(false);
		return NULL;
     1fa:	2300      	movs	r3, #0
	}
}
     1fc:	0018      	movs	r0, r3
     1fe:	46bd      	mov	sp, r7
     200:	b004      	add	sp, #16
     202:	bd80      	pop	{r7, pc}
     204:	41004400 	.word	0x41004400

00000208 <port_get_group_from_gpio_pin>:
 *
 *  \return Base address of the associated PORT module.
 */
static inline PortGroup* port_get_group_from_gpio_pin(
		const uint8_t gpio_pin)
{
     208:	b580      	push	{r7, lr}
     20a:	b082      	sub	sp, #8
     20c:	af00      	add	r7, sp, #0
     20e:	0002      	movs	r2, r0
     210:	1dfb      	adds	r3, r7, #7
     212:	701a      	strb	r2, [r3, #0]
	return system_pinmux_get_group_from_gpio_pin(gpio_pin);
     214:	1dfb      	adds	r3, r7, #7
     216:	781b      	ldrb	r3, [r3, #0]
     218:	0018      	movs	r0, r3
     21a:	4b03      	ldr	r3, [pc, #12]	; (228 <port_get_group_from_gpio_pin+0x20>)
     21c:	4798      	blx	r3
     21e:	0003      	movs	r3, r0
}
     220:	0018      	movs	r0, r3
     222:	46bd      	mov	sp, r7
     224:	b002      	add	sp, #8
     226:	bd80      	pop	{r7, pc}
     228:	000001a9 	.word	0x000001a9

0000022c <port_get_config_defaults>:
 *
 *  \param[out] config  Configuration structure to initialize to default values
 */
static inline void port_get_config_defaults(
		struct port_config *const config)
{
     22c:	b580      	push	{r7, lr}
     22e:	b082      	sub	sp, #8
     230:	af00      	add	r7, sp, #0
     232:	6078      	str	r0, [r7, #4]
	/* Sanity check arguments */
	Assert(config);

	/* Default configuration values */
	config->direction  = PORT_PIN_DIR_INPUT;
     234:	687b      	ldr	r3, [r7, #4]
     236:	2200      	movs	r2, #0
     238:	701a      	strb	r2, [r3, #0]
	config->input_pull = PORT_PIN_PULL_UP;
     23a:	687b      	ldr	r3, [r7, #4]
     23c:	2201      	movs	r2, #1
     23e:	705a      	strb	r2, [r3, #1]
	config->powersave  = false;
     240:	687b      	ldr	r3, [r7, #4]
     242:	2200      	movs	r2, #0
     244:	709a      	strb	r2, [r3, #2]
}
     246:	46c0      	nop			; (mov r8, r8)
     248:	46bd      	mov	sp, r7
     24a:	b002      	add	sp, #8
     24c:	bd80      	pop	{r7, pc}
	...

00000250 <port_pin_set_output_level>:
 *  \param[in] level     Logical level to set the given pin to
 */
static inline void port_pin_set_output_level(
		const uint8_t gpio_pin,
		const bool level)
{
     250:	b580      	push	{r7, lr}
     252:	b084      	sub	sp, #16
     254:	af00      	add	r7, sp, #0
     256:	0002      	movs	r2, r0
     258:	1dfb      	adds	r3, r7, #7
     25a:	701a      	strb	r2, [r3, #0]
     25c:	1dbb      	adds	r3, r7, #6
     25e:	1c0a      	adds	r2, r1, #0
     260:	701a      	strb	r2, [r3, #0]
	PortGroup *const port_base = port_get_group_from_gpio_pin(gpio_pin);
     262:	1dfb      	adds	r3, r7, #7
     264:	781b      	ldrb	r3, [r3, #0]
     266:	0018      	movs	r0, r3
     268:	4b0d      	ldr	r3, [pc, #52]	; (2a0 <port_pin_set_output_level+0x50>)
     26a:	4798      	blx	r3
     26c:	0003      	movs	r3, r0
     26e:	60fb      	str	r3, [r7, #12]
	uint32_t pin_mask  = (1UL << (gpio_pin % 32));
     270:	1dfb      	adds	r3, r7, #7
     272:	781b      	ldrb	r3, [r3, #0]
     274:	221f      	movs	r2, #31
     276:	4013      	ands	r3, r2
     278:	2201      	movs	r2, #1
     27a:	409a      	lsls	r2, r3
     27c:	0013      	movs	r3, r2
     27e:	60bb      	str	r3, [r7, #8]

	/* Set the pin to high or low atomically based on the requested level */
	if (level) {
     280:	1dbb      	adds	r3, r7, #6
     282:	781b      	ldrb	r3, [r3, #0]
     284:	2b00      	cmp	r3, #0
     286:	d003      	beq.n	290 <port_pin_set_output_level+0x40>
		port_base->OUTSET.reg = pin_mask;
     288:	68fb      	ldr	r3, [r7, #12]
     28a:	68ba      	ldr	r2, [r7, #8]
     28c:	619a      	str	r2, [r3, #24]
	} else {
		port_base->OUTCLR.reg = pin_mask;
	}
}
     28e:	e002      	b.n	296 <port_pin_set_output_level+0x46>
		port_base->OUTCLR.reg = pin_mask;
     290:	68fb      	ldr	r3, [r7, #12]
     292:	68ba      	ldr	r2, [r7, #8]
     294:	615a      	str	r2, [r3, #20]
}
     296:	46c0      	nop			; (mov r8, r8)
     298:	46bd      	mov	sp, r7
     29a:	b004      	add	sp, #16
     29c:	bd80      	pop	{r7, pc}
     29e:	46c0      	nop			; (mov r8, r8)
     2a0:	00000209 	.word	0x00000209

000002a4 <system_board_init>:
void board_init(void);
#  pragma weak board_init=system_board_init
#endif

void system_board_init(void)
{
     2a4:	b580      	push	{r7, lr}
     2a6:	b082      	sub	sp, #8
     2a8:	af00      	add	r7, sp, #0
	struct port_config pin_conf;
	port_get_config_defaults(&pin_conf);
     2aa:	1d3b      	adds	r3, r7, #4
     2ac:	0018      	movs	r0, r3
     2ae:	4b0e      	ldr	r3, [pc, #56]	; (2e8 <system_board_init+0x44>)
     2b0:	4798      	blx	r3

	/* Configure LEDs as outputs, turn them off */
	pin_conf.direction  = PORT_PIN_DIR_OUTPUT;
     2b2:	1d3b      	adds	r3, r7, #4
     2b4:	2201      	movs	r2, #1
     2b6:	701a      	strb	r2, [r3, #0]
	port_pin_set_config(LED_0_PIN, &pin_conf);
     2b8:	1d3b      	adds	r3, r7, #4
     2ba:	0019      	movs	r1, r3
     2bc:	2017      	movs	r0, #23
     2be:	4b0b      	ldr	r3, [pc, #44]	; (2ec <system_board_init+0x48>)
     2c0:	4798      	blx	r3
	port_pin_set_output_level(LED_0_PIN, LED_0_INACTIVE);
     2c2:	2101      	movs	r1, #1
     2c4:	2017      	movs	r0, #23
     2c6:	4b0a      	ldr	r3, [pc, #40]	; (2f0 <system_board_init+0x4c>)
     2c8:	4798      	blx	r3

	/* Set buttons as inputs */
	pin_conf.direction  = PORT_PIN_DIR_INPUT;
     2ca:	1d3b      	adds	r3, r7, #4
     2cc:	2200      	movs	r2, #0
     2ce:	701a      	strb	r2, [r3, #0]
	pin_conf.input_pull = PORT_PIN_PULL_UP;
     2d0:	1d3b      	adds	r3, r7, #4
     2d2:	2201      	movs	r2, #1
     2d4:	705a      	strb	r2, [r3, #1]
	port_pin_set_config(BUTTON_0_PIN, &pin_conf);
     2d6:	1d3b      	adds	r3, r7, #4
     2d8:	0019      	movs	r1, r3
     2da:	2037      	movs	r0, #55	; 0x37
     2dc:	4b03      	ldr	r3, [pc, #12]	; (2ec <system_board_init+0x48>)
     2de:	4798      	blx	r3
}
     2e0:	46c0      	nop			; (mov r8, r8)
     2e2:	46bd      	mov	sp, r7
     2e4:	b002      	add	sp, #8
     2e6:	bd80      	pop	{r7, pc}
     2e8:	0000022d 	.word	0x0000022d
     2ec:	0000031d 	.word	0x0000031d
     2f0:	00000251 	.word	0x00000251

000002f4 <system_pinmux_get_config_defaults>:
{
     2f4:	b580      	push	{r7, lr}
     2f6:	b082      	sub	sp, #8
     2f8:	af00      	add	r7, sp, #0
     2fa:	6078      	str	r0, [r7, #4]
	config->mux_position = SYSTEM_PINMUX_GPIO;
     2fc:	687b      	ldr	r3, [r7, #4]
     2fe:	2280      	movs	r2, #128	; 0x80
     300:	701a      	strb	r2, [r3, #0]
	config->direction    = SYSTEM_PINMUX_PIN_DIR_INPUT;
     302:	687b      	ldr	r3, [r7, #4]
     304:	2200      	movs	r2, #0
     306:	705a      	strb	r2, [r3, #1]
	config->input_pull   = SYSTEM_PINMUX_PIN_PULL_UP;
     308:	687b      	ldr	r3, [r7, #4]
     30a:	2201      	movs	r2, #1
     30c:	709a      	strb	r2, [r3, #2]
	config->powersave    = false;
     30e:	687b      	ldr	r3, [r7, #4]
     310:	2200      	movs	r2, #0
     312:	70da      	strb	r2, [r3, #3]
}
     314:	46c0      	nop			; (mov r8, r8)
     316:	46bd      	mov	sp, r7
     318:	b002      	add	sp, #8
     31a:	bd80      	pop	{r7, pc}

0000031c <port_pin_set_config>:
 *  \param[in] config    Configuration settings for the pin
 */
void port_pin_set_config(
		const uint8_t gpio_pin,
		const struct port_config *const config)
{
     31c:	b580      	push	{r7, lr}
     31e:	b084      	sub	sp, #16
     320:	af00      	add	r7, sp, #0
     322:	0002      	movs	r2, r0
     324:	6039      	str	r1, [r7, #0]
     326:	1dfb      	adds	r3, r7, #7
     328:	701a      	strb	r2, [r3, #0]
	/* Sanity check arguments */
	Assert(config);

	struct system_pinmux_config pinmux_config;
	system_pinmux_get_config_defaults(&pinmux_config);
     32a:	230c      	movs	r3, #12
     32c:	18fb      	adds	r3, r7, r3
     32e:	0018      	movs	r0, r3
     330:	4b10      	ldr	r3, [pc, #64]	; (374 <port_pin_set_config+0x58>)
     332:	4798      	blx	r3

	pinmux_config.mux_position = SYSTEM_PINMUX_GPIO;
     334:	230c      	movs	r3, #12
     336:	18fb      	adds	r3, r7, r3
     338:	2280      	movs	r2, #128	; 0x80
     33a:	701a      	strb	r2, [r3, #0]
	pinmux_config.direction    = (enum system_pinmux_pin_dir)config->direction;
     33c:	683b      	ldr	r3, [r7, #0]
     33e:	781a      	ldrb	r2, [r3, #0]
     340:	230c      	movs	r3, #12
     342:	18fb      	adds	r3, r7, r3
     344:	705a      	strb	r2, [r3, #1]
	pinmux_config.input_pull   = (enum system_pinmux_pin_pull)config->input_pull;
     346:	683b      	ldr	r3, [r7, #0]
     348:	785a      	ldrb	r2, [r3, #1]
     34a:	230c      	movs	r3, #12
     34c:	18fb      	adds	r3, r7, r3
     34e:	709a      	strb	r2, [r3, #2]
	pinmux_config.powersave    = config->powersave;
     350:	683b      	ldr	r3, [r7, #0]
     352:	789a      	ldrb	r2, [r3, #2]
     354:	230c      	movs	r3, #12
     356:	18fb      	adds	r3, r7, r3
     358:	70da      	strb	r2, [r3, #3]

	system_pinmux_pin_set_config(gpio_pin, &pinmux_config);
     35a:	230c      	movs	r3, #12
     35c:	18fa      	adds	r2, r7, r3
     35e:	1dfb      	adds	r3, r7, #7
     360:	781b      	ldrb	r3, [r3, #0]
     362:	0011      	movs	r1, r2
     364:	0018      	movs	r0, r3
     366:	4b04      	ldr	r3, [pc, #16]	; (378 <port_pin_set_config+0x5c>)
     368:	4798      	blx	r3
}
     36a:	46c0      	nop			; (mov r8, r8)
     36c:	46bd      	mov	sp, r7
     36e:	b004      	add	sp, #16
     370:	bd80      	pop	{r7, pc}
     372:	46c0      	nop			; (mov r8, r8)
     374:	000002f5 	.word	0x000002f5
     378:	00000ab9 	.word	0x00000ab9

0000037c <system_gclk_chan_get_config_defaults>:
 *
 * \param[out] config  Configuration structure to initialize to default values
 */
static inline void system_gclk_chan_get_config_defaults(
		struct system_gclk_chan_config *const config)
{
     37c:	b580      	push	{r7, lr}
     37e:	b082      	sub	sp, #8
     380:	af00      	add	r7, sp, #0
     382:	6078      	str	r0, [r7, #4]
	/* Sanity check arguments */
	Assert(config);

	/* Default configuration values */
	config->source_generator = GCLK_GENERATOR_0;
     384:	687b      	ldr	r3, [r7, #4]
     386:	2200      	movs	r2, #0
     388:	701a      	strb	r2, [r3, #0]
}
     38a:	46c0      	nop			; (mov r8, r8)
     38c:	46bd      	mov	sp, r7
     38e:	b002      	add	sp, #8
     390:	bd80      	pop	{r7, pc}

00000392 <long_division>:
/**
 * \internal Calculate 64 bit division, ref can be found in
 * http://en.wikipedia.org/wiki/Division_algorithm#Long_division
 */
static uint64_t long_division(uint64_t n, uint64_t d)
{
     392:	b5f0      	push	{r4, r5, r6, r7, lr}
     394:	b08d      	sub	sp, #52	; 0x34
     396:	af00      	add	r7, sp, #0
     398:	60b8      	str	r0, [r7, #8]
     39a:	60f9      	str	r1, [r7, #12]
     39c:	603a      	str	r2, [r7, #0]
     39e:	607b      	str	r3, [r7, #4]
	int32_t i;
	uint64_t q = 0, r = 0, bit_shift;
     3a0:	2300      	movs	r3, #0
     3a2:	2400      	movs	r4, #0
     3a4:	623b      	str	r3, [r7, #32]
     3a6:	627c      	str	r4, [r7, #36]	; 0x24
     3a8:	2300      	movs	r3, #0
     3aa:	2400      	movs	r4, #0
     3ac:	61bb      	str	r3, [r7, #24]
     3ae:	61fc      	str	r4, [r7, #28]
	for (i = 63; i >= 0; i--) {
     3b0:	233f      	movs	r3, #63	; 0x3f
     3b2:	62fb      	str	r3, [r7, #44]	; 0x2c
     3b4:	e053      	b.n	45e <long_division+0xcc>
		bit_shift = (uint64_t)1 << i;
     3b6:	6afb      	ldr	r3, [r7, #44]	; 0x2c
     3b8:	3b20      	subs	r3, #32
     3ba:	2b00      	cmp	r3, #0
     3bc:	db04      	blt.n	3c8 <long_division+0x36>
     3be:	2201      	movs	r2, #1
     3c0:	409a      	lsls	r2, r3
     3c2:	0013      	movs	r3, r2
     3c4:	617b      	str	r3, [r7, #20]
     3c6:	e00b      	b.n	3e0 <long_division+0x4e>
     3c8:	6afb      	ldr	r3, [r7, #44]	; 0x2c
     3ca:	2220      	movs	r2, #32
     3cc:	1ad3      	subs	r3, r2, r3
     3ce:	2201      	movs	r2, #1
     3d0:	40da      	lsrs	r2, r3
     3d2:	0013      	movs	r3, r2
     3d4:	2100      	movs	r1, #0
     3d6:	6afa      	ldr	r2, [r7, #44]	; 0x2c
     3d8:	4091      	lsls	r1, r2
     3da:	000a      	movs	r2, r1
     3dc:	4313      	orrs	r3, r2
     3de:	617b      	str	r3, [r7, #20]
     3e0:	2201      	movs	r2, #1
     3e2:	6afb      	ldr	r3, [r7, #44]	; 0x2c
     3e4:	409a      	lsls	r2, r3
     3e6:	0013      	movs	r3, r2
     3e8:	613b      	str	r3, [r7, #16]

		r = r << 1;
     3ea:	69bb      	ldr	r3, [r7, #24]
     3ec:	69fc      	ldr	r4, [r7, #28]
     3ee:	18db      	adds	r3, r3, r3
     3f0:	4164      	adcs	r4, r4
     3f2:	61bb      	str	r3, [r7, #24]
     3f4:	61fc      	str	r4, [r7, #28]

		if (n & bit_shift) {
     3f6:	68bb      	ldr	r3, [r7, #8]
     3f8:	693a      	ldr	r2, [r7, #16]
     3fa:	401a      	ands	r2, r3
     3fc:	0015      	movs	r5, r2
     3fe:	68fb      	ldr	r3, [r7, #12]
     400:	697a      	ldr	r2, [r7, #20]
     402:	401a      	ands	r2, r3
     404:	0016      	movs	r6, r2
     406:	002b      	movs	r3, r5
     408:	4333      	orrs	r3, r6
     40a:	d007      	beq.n	41c <long_division+0x8a>
			r |= 0x01;
     40c:	69bb      	ldr	r3, [r7, #24]
     40e:	2201      	movs	r2, #1
     410:	4313      	orrs	r3, r2
     412:	61bb      	str	r3, [r7, #24]
     414:	69fb      	ldr	r3, [r7, #28]
     416:	2200      	movs	r2, #0
     418:	4313      	orrs	r3, r2
     41a:	61fb      	str	r3, [r7, #28]
		}

		if (r >= d) {
     41c:	687a      	ldr	r2, [r7, #4]
     41e:	69fb      	ldr	r3, [r7, #28]
     420:	429a      	cmp	r2, r3
     422:	d819      	bhi.n	458 <long_division+0xc6>
     424:	687a      	ldr	r2, [r7, #4]
     426:	69fb      	ldr	r3, [r7, #28]
     428:	429a      	cmp	r2, r3
     42a:	d103      	bne.n	434 <long_division+0xa2>
     42c:	683a      	ldr	r2, [r7, #0]
     42e:	69bb      	ldr	r3, [r7, #24]
     430:	429a      	cmp	r2, r3
     432:	d811      	bhi.n	458 <long_division+0xc6>
			r = r - d;
     434:	69b9      	ldr	r1, [r7, #24]
     436:	69fa      	ldr	r2, [r7, #28]
     438:	683b      	ldr	r3, [r7, #0]
     43a:	687c      	ldr	r4, [r7, #4]
     43c:	1ac9      	subs	r1, r1, r3
     43e:	41a2      	sbcs	r2, r4
     440:	000b      	movs	r3, r1
     442:	0014      	movs	r4, r2
     444:	61bb      	str	r3, [r7, #24]
     446:	61fc      	str	r4, [r7, #28]
			q |= bit_shift;
     448:	6a3a      	ldr	r2, [r7, #32]
     44a:	693b      	ldr	r3, [r7, #16]
     44c:	4313      	orrs	r3, r2
     44e:	623b      	str	r3, [r7, #32]
     450:	6a7a      	ldr	r2, [r7, #36]	; 0x24
     452:	697b      	ldr	r3, [r7, #20]
     454:	4313      	orrs	r3, r2
     456:	627b      	str	r3, [r7, #36]	; 0x24
	for (i = 63; i >= 0; i--) {
     458:	6afb      	ldr	r3, [r7, #44]	; 0x2c
     45a:	3b01      	subs	r3, #1
     45c:	62fb      	str	r3, [r7, #44]	; 0x2c
     45e:	6afb      	ldr	r3, [r7, #44]	; 0x2c
     460:	2b00      	cmp	r3, #0
     462:	daa8      	bge.n	3b6 <long_division+0x24>
		}
	}

	return q;
     464:	6a3b      	ldr	r3, [r7, #32]
     466:	6a7c      	ldr	r4, [r7, #36]	; 0x24
}
     468:	0018      	movs	r0, r3
     46a:	0021      	movs	r1, r4
     46c:	46bd      	mov	sp, r7
     46e:	b00d      	add	sp, #52	; 0x34
     470:	bdf0      	pop	{r4, r5, r6, r7, pc}

00000472 <_sercom_get_sync_baud_val>:
 */
enum status_code _sercom_get_sync_baud_val(
		const uint32_t baudrate,
		const uint32_t external_clock,
		uint16_t *const baudvalue)
{
     472:	b580      	push	{r7, lr}
     474:	b086      	sub	sp, #24
     476:	af00      	add	r7, sp, #0
     478:	60f8      	str	r0, [r7, #12]
     47a:	60b9      	str	r1, [r7, #8]
     47c:	607a      	str	r2, [r7, #4]
	/* Baud value variable */
	uint16_t baud_calculated = 0;
     47e:	2316      	movs	r3, #22
     480:	18fb      	adds	r3, r7, r3
     482:	2200      	movs	r2, #0
     484:	801a      	strh	r2, [r3, #0]
	uint32_t clock_value = external_clock;
     486:	68bb      	ldr	r3, [r7, #8]
     488:	613b      	str	r3, [r7, #16]


	/* Check if baudrate is outside of valid range */
	if (baudrate > (external_clock / 2)) {
     48a:	68bb      	ldr	r3, [r7, #8]
     48c:	085a      	lsrs	r2, r3, #1
     48e:	68fb      	ldr	r3, [r7, #12]
     490:	429a      	cmp	r2, r3
     492:	d201      	bcs.n	498 <_sercom_get_sync_baud_val+0x26>
		/* Return with error code */
		return STATUS_ERR_BAUDRATE_UNAVAILABLE;
     494:	2340      	movs	r3, #64	; 0x40
     496:	e026      	b.n	4e6 <_sercom_get_sync_baud_val+0x74>
	}

	/* Calculate BAUD value from clock frequency and baudrate */
	clock_value = external_clock / 2;
     498:	68bb      	ldr	r3, [r7, #8]
     49a:	085b      	lsrs	r3, r3, #1
     49c:	613b      	str	r3, [r7, #16]
	while (clock_value >= baudrate) {
     49e:	e00a      	b.n	4b6 <_sercom_get_sync_baud_val+0x44>
		clock_value = clock_value - baudrate;
     4a0:	693a      	ldr	r2, [r7, #16]
     4a2:	68fb      	ldr	r3, [r7, #12]
     4a4:	1ad3      	subs	r3, r2, r3
     4a6:	613b      	str	r3, [r7, #16]
		baud_calculated++;
     4a8:	2316      	movs	r3, #22
     4aa:	18fb      	adds	r3, r7, r3
     4ac:	881a      	ldrh	r2, [r3, #0]
     4ae:	2316      	movs	r3, #22
     4b0:	18fb      	adds	r3, r7, r3
     4b2:	3201      	adds	r2, #1
     4b4:	801a      	strh	r2, [r3, #0]
	while (clock_value >= baudrate) {
     4b6:	693a      	ldr	r2, [r7, #16]
     4b8:	68fb      	ldr	r3, [r7, #12]
     4ba:	429a      	cmp	r2, r3
     4bc:	d2f0      	bcs.n	4a0 <_sercom_get_sync_baud_val+0x2e>
	}
	baud_calculated = baud_calculated - 1;
     4be:	2316      	movs	r3, #22
     4c0:	18fb      	adds	r3, r7, r3
     4c2:	2216      	movs	r2, #22
     4c4:	18ba      	adds	r2, r7, r2
     4c6:	8812      	ldrh	r2, [r2, #0]
     4c8:	3a01      	subs	r2, #1
     4ca:	801a      	strh	r2, [r3, #0]

	/* Check if BAUD value is more than 255, which is maximum
	 * for synchronous mode */
	if (baud_calculated > 0xFF) {
     4cc:	2316      	movs	r3, #22
     4ce:	18fb      	adds	r3, r7, r3
     4d0:	881b      	ldrh	r3, [r3, #0]
     4d2:	2bff      	cmp	r3, #255	; 0xff
     4d4:	d901      	bls.n	4da <_sercom_get_sync_baud_val+0x68>
		/* Return with an error code */
		return STATUS_ERR_BAUDRATE_UNAVAILABLE;
     4d6:	2340      	movs	r3, #64	; 0x40
     4d8:	e005      	b.n	4e6 <_sercom_get_sync_baud_val+0x74>
	} else {
		*baudvalue = baud_calculated;
     4da:	687b      	ldr	r3, [r7, #4]
     4dc:	2216      	movs	r2, #22
     4de:	18ba      	adds	r2, r7, r2
     4e0:	8812      	ldrh	r2, [r2, #0]
     4e2:	801a      	strh	r2, [r3, #0]
		return STATUS_OK;
     4e4:	2300      	movs	r3, #0
	}
}
     4e6:	0018      	movs	r0, r3
     4e8:	46bd      	mov	sp, r7
     4ea:	b006      	add	sp, #24
     4ec:	bd80      	pop	{r7, pc}
	...

000004f0 <_sercom_get_async_baud_val>:
		const uint32_t baudrate,
		const uint32_t peripheral_clock,
		uint16_t *const baudval,
		enum sercom_asynchronous_operation_mode mode,
		enum sercom_asynchronous_sample_num sample_num)
{
     4f0:	b5f0      	push	{r4, r5, r6, r7, lr}
     4f2:	b0a1      	sub	sp, #132	; 0x84
     4f4:	af00      	add	r7, sp, #0
     4f6:	64f8      	str	r0, [r7, #76]	; 0x4c
     4f8:	64b9      	str	r1, [r7, #72]	; 0x48
     4fa:	647a      	str	r2, [r7, #68]	; 0x44
     4fc:	2243      	movs	r2, #67	; 0x43
     4fe:	18ba      	adds	r2, r7, r2
     500:	7013      	strb	r3, [r2, #0]
	/* Temporary variables  */
	uint64_t ratio = 0;
     502:	2300      	movs	r3, #0
     504:	2400      	movs	r4, #0
     506:	673b      	str	r3, [r7, #112]	; 0x70
     508:	677c      	str	r4, [r7, #116]	; 0x74
	uint64_t scale = 0;
     50a:	2300      	movs	r3, #0
     50c:	2400      	movs	r4, #0
     50e:	66bb      	str	r3, [r7, #104]	; 0x68
     510:	66fc      	str	r4, [r7, #108]	; 0x6c
	uint64_t baud_calculated = 0;
     512:	2300      	movs	r3, #0
     514:	2400      	movs	r4, #0
     516:	67bb      	str	r3, [r7, #120]	; 0x78
     518:	67fc      	str	r4, [r7, #124]	; 0x7c
	uint8_t baud_fp;
	uint32_t baud_int = 0;
     51a:	2300      	movs	r3, #0
     51c:	667b      	str	r3, [r7, #100]	; 0x64
	uint64_t temp1;

	/* Check if the baudrate is outside of valid range */
	if ((baudrate * sample_num) > peripheral_clock) {
     51e:	2358      	movs	r3, #88	; 0x58
     520:	2240      	movs	r2, #64	; 0x40
     522:	4694      	mov	ip, r2
     524:	44bc      	add	ip, r7
     526:	4463      	add	r3, ip
     528:	781a      	ldrb	r2, [r3, #0]
     52a:	6cfb      	ldr	r3, [r7, #76]	; 0x4c
     52c:	435a      	muls	r2, r3
     52e:	6cbb      	ldr	r3, [r7, #72]	; 0x48
     530:	429a      	cmp	r2, r3
     532:	d901      	bls.n	538 <_sercom_get_async_baud_val+0x48>
		/* Return with error code */
		return STATUS_ERR_BAUDRATE_UNAVAILABLE;
     534:	2340      	movs	r3, #64	; 0x40
     536:	e0b3      	b.n	6a0 <_sercom_get_async_baud_val+0x1b0>
	}

	if(mode == SERCOM_ASYNC_OPERATION_MODE_ARITHMETIC) {
     538:	2343      	movs	r3, #67	; 0x43
     53a:	18fb      	adds	r3, r7, r3
     53c:	781b      	ldrb	r3, [r3, #0]
     53e:	2b00      	cmp	r3, #0
     540:	d13d      	bne.n	5be <_sercom_get_async_baud_val+0xce>
		/* Calculate the BAUD value */
		temp1 = ((sample_num * (uint64_t)baudrate) << SHIFT);
     542:	2358      	movs	r3, #88	; 0x58
     544:	2240      	movs	r2, #64	; 0x40
     546:	4694      	mov	ip, r2
     548:	44bc      	add	ip, r7
     54a:	4463      	add	r3, ip
     54c:	781b      	ldrb	r3, [r3, #0]
     54e:	b2db      	uxtb	r3, r3
     550:	613b      	str	r3, [r7, #16]
     552:	2300      	movs	r3, #0
     554:	617b      	str	r3, [r7, #20]
     556:	6cfb      	ldr	r3, [r7, #76]	; 0x4c
     558:	60bb      	str	r3, [r7, #8]
     55a:	2300      	movs	r3, #0
     55c:	60fb      	str	r3, [r7, #12]
     55e:	4c52      	ldr	r4, [pc, #328]	; (6a8 <_sercom_get_async_baud_val+0x1b8>)
     560:	68ba      	ldr	r2, [r7, #8]
     562:	68fb      	ldr	r3, [r7, #12]
     564:	6938      	ldr	r0, [r7, #16]
     566:	6979      	ldr	r1, [r7, #20]
     568:	47a0      	blx	r4
     56a:	0003      	movs	r3, r0
     56c:	000c      	movs	r4, r1
     56e:	001b      	movs	r3, r3
     570:	65fb      	str	r3, [r7, #92]	; 0x5c
     572:	2300      	movs	r3, #0
     574:	65bb      	str	r3, [r7, #88]	; 0x58
		ratio = long_division(temp1, peripheral_clock);
     576:	6cbb      	ldr	r3, [r7, #72]	; 0x48
     578:	603b      	str	r3, [r7, #0]
     57a:	2300      	movs	r3, #0
     57c:	607b      	str	r3, [r7, #4]
     57e:	6db8      	ldr	r0, [r7, #88]	; 0x58
     580:	6df9      	ldr	r1, [r7, #92]	; 0x5c
     582:	683a      	ldr	r2, [r7, #0]
     584:	687b      	ldr	r3, [r7, #4]
     586:	4c49      	ldr	r4, [pc, #292]	; (6ac <_sercom_get_async_baud_val+0x1bc>)
     588:	47a0      	blx	r4
     58a:	0003      	movs	r3, r0
     58c:	000c      	movs	r4, r1
     58e:	673b      	str	r3, [r7, #112]	; 0x70
     590:	677c      	str	r4, [r7, #116]	; 0x74
		scale = ((uint64_t)1 << SHIFT) - ratio;
     592:	2100      	movs	r1, #0
     594:	2201      	movs	r2, #1
     596:	6f3b      	ldr	r3, [r7, #112]	; 0x70
     598:	6f7c      	ldr	r4, [r7, #116]	; 0x74
     59a:	1ac9      	subs	r1, r1, r3
     59c:	41a2      	sbcs	r2, r4
     59e:	000b      	movs	r3, r1
     5a0:	0014      	movs	r4, r2
     5a2:	66bb      	str	r3, [r7, #104]	; 0x68
     5a4:	66fc      	str	r4, [r7, #108]	; 0x6c
		baud_calculated = (65536 * scale) >> SHIFT;
     5a6:	6ebb      	ldr	r3, [r7, #104]	; 0x68
     5a8:	0c1b      	lsrs	r3, r3, #16
     5aa:	6efa      	ldr	r2, [r7, #108]	; 0x6c
     5ac:	0416      	lsls	r6, r2, #16
     5ae:	431e      	orrs	r6, r3
     5b0:	6ebb      	ldr	r3, [r7, #104]	; 0x68
     5b2:	041d      	lsls	r5, r3, #16
     5b4:	0033      	movs	r3, r6
     5b6:	67bb      	str	r3, [r7, #120]	; 0x78
     5b8:	2300      	movs	r3, #0
     5ba:	67fb      	str	r3, [r7, #124]	; 0x7c
     5bc:	e06a      	b.n	694 <_sercom_get_async_baud_val+0x1a4>
	} else if(mode == SERCOM_ASYNC_OPERATION_MODE_FRACTIONAL) {
     5be:	2343      	movs	r3, #67	; 0x43
     5c0:	18fb      	adds	r3, r7, r3
     5c2:	781b      	ldrb	r3, [r3, #0]
     5c4:	2b01      	cmp	r3, #1
     5c6:	d165      	bne.n	694 <_sercom_get_async_baud_val+0x1a4>
		temp1 = ((uint64_t)baudrate * sample_num);
     5c8:	6cfb      	ldr	r3, [r7, #76]	; 0x4c
     5ca:	633b      	str	r3, [r7, #48]	; 0x30
     5cc:	2300      	movs	r3, #0
     5ce:	637b      	str	r3, [r7, #52]	; 0x34
     5d0:	2358      	movs	r3, #88	; 0x58
     5d2:	2240      	movs	r2, #64	; 0x40
     5d4:	4694      	mov	ip, r2
     5d6:	44bc      	add	ip, r7
     5d8:	4463      	add	r3, ip
     5da:	781b      	ldrb	r3, [r3, #0]
     5dc:	b2db      	uxtb	r3, r3
     5de:	62bb      	str	r3, [r7, #40]	; 0x28
     5e0:	2300      	movs	r3, #0
     5e2:	62fb      	str	r3, [r7, #44]	; 0x2c
     5e4:	4c30      	ldr	r4, [pc, #192]	; (6a8 <_sercom_get_async_baud_val+0x1b8>)
     5e6:	6aba      	ldr	r2, [r7, #40]	; 0x28
     5e8:	6afb      	ldr	r3, [r7, #44]	; 0x2c
     5ea:	6b38      	ldr	r0, [r7, #48]	; 0x30
     5ec:	6b79      	ldr	r1, [r7, #52]	; 0x34
     5ee:	47a0      	blx	r4
     5f0:	0003      	movs	r3, r0
     5f2:	000c      	movs	r4, r1
     5f4:	65bb      	str	r3, [r7, #88]	; 0x58
     5f6:	65fc      	str	r4, [r7, #92]	; 0x5c
		baud_int = long_division( peripheral_clock, temp1);
     5f8:	6cbb      	ldr	r3, [r7, #72]	; 0x48
     5fa:	623b      	str	r3, [r7, #32]
     5fc:	2300      	movs	r3, #0
     5fe:	627b      	str	r3, [r7, #36]	; 0x24
     600:	6dbb      	ldr	r3, [r7, #88]	; 0x58
     602:	6dfc      	ldr	r4, [r7, #92]	; 0x5c
     604:	001a      	movs	r2, r3
     606:	0023      	movs	r3, r4
     608:	6a38      	ldr	r0, [r7, #32]
     60a:	6a79      	ldr	r1, [r7, #36]	; 0x24
     60c:	4c27      	ldr	r4, [pc, #156]	; (6ac <_sercom_get_async_baud_val+0x1bc>)
     60e:	47a0      	blx	r4
     610:	0003      	movs	r3, r0
     612:	000c      	movs	r4, r1
     614:	667b      	str	r3, [r7, #100]	; 0x64
		if(baud_int > BAUD_INT_MAX) {
     616:	6e7a      	ldr	r2, [r7, #100]	; 0x64
     618:	2380      	movs	r3, #128	; 0x80
     61a:	019b      	lsls	r3, r3, #6
     61c:	429a      	cmp	r2, r3
     61e:	d901      	bls.n	624 <_sercom_get_async_baud_val+0x134>
				return STATUS_ERR_BAUDRATE_UNAVAILABLE;
     620:	2340      	movs	r3, #64	; 0x40
     622:	e03d      	b.n	6a0 <_sercom_get_async_baud_val+0x1b0>
		}
		temp1 = long_division( 8 * (uint64_t)peripheral_clock, temp1);
     624:	6cbb      	ldr	r3, [r7, #72]	; 0x48
     626:	61bb      	str	r3, [r7, #24]
     628:	2300      	movs	r3, #0
     62a:	61fb      	str	r3, [r7, #28]
     62c:	69b9      	ldr	r1, [r7, #24]
     62e:	69fa      	ldr	r2, [r7, #28]
     630:	000b      	movs	r3, r1
     632:	0f5b      	lsrs	r3, r3, #29
     634:	0010      	movs	r0, r2
     636:	00c0      	lsls	r0, r0, #3
     638:	63f8      	str	r0, [r7, #60]	; 0x3c
     63a:	6bf8      	ldr	r0, [r7, #60]	; 0x3c
     63c:	4318      	orrs	r0, r3
     63e:	63f8      	str	r0, [r7, #60]	; 0x3c
     640:	000b      	movs	r3, r1
     642:	00db      	lsls	r3, r3, #3
     644:	63bb      	str	r3, [r7, #56]	; 0x38
     646:	6dbb      	ldr	r3, [r7, #88]	; 0x58
     648:	6dfc      	ldr	r4, [r7, #92]	; 0x5c
     64a:	001a      	movs	r2, r3
     64c:	0023      	movs	r3, r4
     64e:	6bb8      	ldr	r0, [r7, #56]	; 0x38
     650:	6bf9      	ldr	r1, [r7, #60]	; 0x3c
     652:	4c16      	ldr	r4, [pc, #88]	; (6ac <_sercom_get_async_baud_val+0x1bc>)
     654:	47a0      	blx	r4
     656:	0003      	movs	r3, r0
     658:	000c      	movs	r4, r1
     65a:	65bb      	str	r3, [r7, #88]	; 0x58
     65c:	65fc      	str	r4, [r7, #92]	; 0x5c
		baud_fp = temp1 - 8 * baud_int;
     65e:	6dbb      	ldr	r3, [r7, #88]	; 0x58
     660:	6dfc      	ldr	r4, [r7, #92]	; 0x5c
     662:	b2d9      	uxtb	r1, r3
     664:	6e7b      	ldr	r3, [r7, #100]	; 0x64
     666:	b2db      	uxtb	r3, r3
     668:	00db      	lsls	r3, r3, #3
     66a:	b2da      	uxtb	r2, r3
     66c:	2317      	movs	r3, #23
     66e:	2040      	movs	r0, #64	; 0x40
     670:	4684      	mov	ip, r0
     672:	44bc      	add	ip, r7
     674:	4463      	add	r3, ip
     676:	1a8a      	subs	r2, r1, r2
     678:	701a      	strb	r2, [r3, #0]
		baud_calculated = baud_int | (baud_fp << 13);
     67a:	2317      	movs	r3, #23
     67c:	2240      	movs	r2, #64	; 0x40
     67e:	4694      	mov	ip, r2
     680:	44bc      	add	ip, r7
     682:	4463      	add	r3, ip
     684:	781b      	ldrb	r3, [r3, #0]
     686:	035b      	lsls	r3, r3, #13
     688:	001a      	movs	r2, r3
     68a:	6e7b      	ldr	r3, [r7, #100]	; 0x64
     68c:	4313      	orrs	r3, r2
     68e:	67bb      	str	r3, [r7, #120]	; 0x78
     690:	2300      	movs	r3, #0
     692:	67fb      	str	r3, [r7, #124]	; 0x7c
	}

	*baudval = baud_calculated;
     694:	6fbb      	ldr	r3, [r7, #120]	; 0x78
     696:	6ffc      	ldr	r4, [r7, #124]	; 0x7c
     698:	b29a      	uxth	r2, r3
     69a:	6c7b      	ldr	r3, [r7, #68]	; 0x44
     69c:	801a      	strh	r2, [r3, #0]
	return STATUS_OK;
     69e:	2300      	movs	r3, #0
}
     6a0:	0018      	movs	r0, r3
     6a2:	46bd      	mov	sp, r7
     6a4:	b021      	add	sp, #132	; 0x84
     6a6:	bdf0      	pop	{r4, r5, r6, r7, pc}
     6a8:	00005789 	.word	0x00005789
     6ac:	00000393 	.word	0x00000393

000006b0 <sercom_set_gclk_generator>:
 *                                         forced.
 */
enum status_code sercom_set_gclk_generator(
		const enum gclk_generator generator_source,
		const bool force_change)
{
     6b0:	b580      	push	{r7, lr}
     6b2:	b084      	sub	sp, #16
     6b4:	af00      	add	r7, sp, #0
     6b6:	0002      	movs	r2, r0
     6b8:	1dfb      	adds	r3, r7, #7
     6ba:	701a      	strb	r2, [r3, #0]
     6bc:	1dbb      	adds	r3, r7, #6
     6be:	1c0a      	adds	r2, r1, #0
     6c0:	701a      	strb	r2, [r3, #0]
	/* Check if valid option */
	if (!_sercom_config.generator_is_set || force_change) {
     6c2:	4b1a      	ldr	r3, [pc, #104]	; (72c <sercom_set_gclk_generator+0x7c>)
     6c4:	781b      	ldrb	r3, [r3, #0]
     6c6:	2201      	movs	r2, #1
     6c8:	4053      	eors	r3, r2
     6ca:	b2db      	uxtb	r3, r3
     6cc:	2b00      	cmp	r3, #0
     6ce:	d103      	bne.n	6d8 <sercom_set_gclk_generator+0x28>
     6d0:	1dbb      	adds	r3, r7, #6
     6d2:	781b      	ldrb	r3, [r3, #0]
     6d4:	2b00      	cmp	r3, #0
     6d6:	d01b      	beq.n	710 <sercom_set_gclk_generator+0x60>
		/* Create and fill a GCLK configuration structure for the new config */
		struct system_gclk_chan_config gclk_chan_conf;
		system_gclk_chan_get_config_defaults(&gclk_chan_conf);
     6d8:	230c      	movs	r3, #12
     6da:	18fb      	adds	r3, r7, r3
     6dc:	0018      	movs	r0, r3
     6de:	4b14      	ldr	r3, [pc, #80]	; (730 <sercom_set_gclk_generator+0x80>)
     6e0:	4798      	blx	r3
		gclk_chan_conf.source_generator = generator_source;
     6e2:	230c      	movs	r3, #12
     6e4:	18fb      	adds	r3, r7, r3
     6e6:	1dfa      	adds	r2, r7, #7
     6e8:	7812      	ldrb	r2, [r2, #0]
     6ea:	701a      	strb	r2, [r3, #0]
		system_gclk_chan_set_config(SERCOM_GCLK_ID, &gclk_chan_conf);
     6ec:	230c      	movs	r3, #12
     6ee:	18fb      	adds	r3, r7, r3
     6f0:	0019      	movs	r1, r3
     6f2:	2013      	movs	r0, #19
     6f4:	4b0f      	ldr	r3, [pc, #60]	; (734 <sercom_set_gclk_generator+0x84>)
     6f6:	4798      	blx	r3
		system_gclk_chan_enable(SERCOM_GCLK_ID);
     6f8:	2013      	movs	r0, #19
     6fa:	4b0f      	ldr	r3, [pc, #60]	; (738 <sercom_set_gclk_generator+0x88>)
     6fc:	4798      	blx	r3

		/* Save config */
		_sercom_config.generator_source = generator_source;
     6fe:	4b0b      	ldr	r3, [pc, #44]	; (72c <sercom_set_gclk_generator+0x7c>)
     700:	1dfa      	adds	r2, r7, #7
     702:	7812      	ldrb	r2, [r2, #0]
     704:	705a      	strb	r2, [r3, #1]
		_sercom_config.generator_is_set = true;
     706:	4b09      	ldr	r3, [pc, #36]	; (72c <sercom_set_gclk_generator+0x7c>)
     708:	2201      	movs	r2, #1
     70a:	701a      	strb	r2, [r3, #0]

		return STATUS_OK;
     70c:	2300      	movs	r3, #0
     70e:	e008      	b.n	722 <sercom_set_gclk_generator+0x72>
	} else if (generator_source == _sercom_config.generator_source) {
     710:	4b06      	ldr	r3, [pc, #24]	; (72c <sercom_set_gclk_generator+0x7c>)
     712:	785b      	ldrb	r3, [r3, #1]
     714:	1dfa      	adds	r2, r7, #7
     716:	7812      	ldrb	r2, [r2, #0]
     718:	429a      	cmp	r2, r3
     71a:	d101      	bne.n	720 <sercom_set_gclk_generator+0x70>
		/* Return status OK if same config */
		return STATUS_OK;
     71c:	2300      	movs	r3, #0
     71e:	e000      	b.n	722 <sercom_set_gclk_generator+0x72>
	}

	/* Return invalid config to already initialized GCLK */
	return STATUS_ERR_ALREADY_INITIALIZED;
     720:	231d      	movs	r3, #29
}
     722:	0018      	movs	r0, r3
     724:	46bd      	mov	sp, r7
     726:	b004      	add	sp, #16
     728:	bd80      	pop	{r7, pc}
     72a:	46c0      	nop			; (mov r8, r8)
     72c:	20000208 	.word	0x20000208
     730:	0000037d 	.word	0x0000037d
     734:	00005315 	.word	0x00005315
     738:	00005359 	.word	0x00005359

0000073c <_sercom_get_default_pad>:
 *
 */
uint32_t _sercom_get_default_pad(
		Sercom *const sercom_module,
		const uint8_t pad)
{
     73c:	b580      	push	{r7, lr}
     73e:	b082      	sub	sp, #8
     740:	af00      	add	r7, sp, #0
     742:	6078      	str	r0, [r7, #4]
     744:	000a      	movs	r2, r1
     746:	1cfb      	adds	r3, r7, #3
     748:	701a      	strb	r2, [r3, #0]
	switch ((uintptr_t)sercom_module) {
     74a:	687b      	ldr	r3, [r7, #4]
     74c:	4a4d      	ldr	r2, [pc, #308]	; (884 <_sercom_get_default_pad+0x148>)
     74e:	4293      	cmp	r3, r2
     750:	d03f      	beq.n	7d2 <_sercom_get_default_pad+0x96>
     752:	4a4c      	ldr	r2, [pc, #304]	; (884 <_sercom_get_default_pad+0x148>)
     754:	4293      	cmp	r3, r2
     756:	d806      	bhi.n	766 <_sercom_get_default_pad+0x2a>
     758:	4a4b      	ldr	r2, [pc, #300]	; (888 <_sercom_get_default_pad+0x14c>)
     75a:	4293      	cmp	r3, r2
     75c:	d00f      	beq.n	77e <_sercom_get_default_pad+0x42>
     75e:	4a4b      	ldr	r2, [pc, #300]	; (88c <_sercom_get_default_pad+0x150>)
     760:	4293      	cmp	r3, r2
     762:	d021      	beq.n	7a8 <_sercom_get_default_pad+0x6c>
     764:	e089      	b.n	87a <_sercom_get_default_pad+0x13e>
     766:	4a4a      	ldr	r2, [pc, #296]	; (890 <_sercom_get_default_pad+0x154>)
     768:	4293      	cmp	r3, r2
     76a:	d100      	bne.n	76e <_sercom_get_default_pad+0x32>
     76c:	e05b      	b.n	826 <_sercom_get_default_pad+0xea>
     76e:	4a49      	ldr	r2, [pc, #292]	; (894 <_sercom_get_default_pad+0x158>)
     770:	4293      	cmp	r3, r2
     772:	d100      	bne.n	776 <_sercom_get_default_pad+0x3a>
     774:	e06c      	b.n	850 <_sercom_get_default_pad+0x114>
     776:	4a48      	ldr	r2, [pc, #288]	; (898 <_sercom_get_default_pad+0x15c>)
     778:	4293      	cmp	r3, r2
     77a:	d03f      	beq.n	7fc <_sercom_get_default_pad+0xc0>
     77c:	e07d      	b.n	87a <_sercom_get_default_pad+0x13e>
		/* Auto-generate a lookup table for the default SERCOM pad defaults */
		MREPEAT(SERCOM_INST_NUM, _SERCOM_PAD_DEFAULTS_CASE, pad)
     77e:	1cfb      	adds	r3, r7, #3
     780:	781b      	ldrb	r3, [r3, #0]
     782:	2b01      	cmp	r3, #1
     784:	d00a      	beq.n	79c <_sercom_get_default_pad+0x60>
     786:	dc02      	bgt.n	78e <_sercom_get_default_pad+0x52>
     788:	2b00      	cmp	r3, #0
     78a:	d005      	beq.n	798 <_sercom_get_default_pad+0x5c>
     78c:	e075      	b.n	87a <_sercom_get_default_pad+0x13e>
     78e:	2b02      	cmp	r3, #2
     790:	d006      	beq.n	7a0 <_sercom_get_default_pad+0x64>
     792:	2b03      	cmp	r3, #3
     794:	d006      	beq.n	7a4 <_sercom_get_default_pad+0x68>
     796:	e070      	b.n	87a <_sercom_get_default_pad+0x13e>
     798:	4b40      	ldr	r3, [pc, #256]	; (89c <_sercom_get_default_pad+0x160>)
     79a:	e06f      	b.n	87c <_sercom_get_default_pad+0x140>
     79c:	4b40      	ldr	r3, [pc, #256]	; (8a0 <_sercom_get_default_pad+0x164>)
     79e:	e06d      	b.n	87c <_sercom_get_default_pad+0x140>
     7a0:	4b40      	ldr	r3, [pc, #256]	; (8a4 <_sercom_get_default_pad+0x168>)
     7a2:	e06b      	b.n	87c <_sercom_get_default_pad+0x140>
     7a4:	4b40      	ldr	r3, [pc, #256]	; (8a8 <_sercom_get_default_pad+0x16c>)
     7a6:	e069      	b.n	87c <_sercom_get_default_pad+0x140>
     7a8:	1cfb      	adds	r3, r7, #3
     7aa:	781b      	ldrb	r3, [r3, #0]
     7ac:	2b01      	cmp	r3, #1
     7ae:	d00a      	beq.n	7c6 <_sercom_get_default_pad+0x8a>
     7b0:	dc02      	bgt.n	7b8 <_sercom_get_default_pad+0x7c>
     7b2:	2b00      	cmp	r3, #0
     7b4:	d005      	beq.n	7c2 <_sercom_get_default_pad+0x86>
     7b6:	e060      	b.n	87a <_sercom_get_default_pad+0x13e>
     7b8:	2b02      	cmp	r3, #2
     7ba:	d006      	beq.n	7ca <_sercom_get_default_pad+0x8e>
     7bc:	2b03      	cmp	r3, #3
     7be:	d006      	beq.n	7ce <_sercom_get_default_pad+0x92>
     7c0:	e05b      	b.n	87a <_sercom_get_default_pad+0x13e>
     7c2:	2303      	movs	r3, #3
     7c4:	e05a      	b.n	87c <_sercom_get_default_pad+0x140>
     7c6:	4b39      	ldr	r3, [pc, #228]	; (8ac <_sercom_get_default_pad+0x170>)
     7c8:	e058      	b.n	87c <_sercom_get_default_pad+0x140>
     7ca:	4b39      	ldr	r3, [pc, #228]	; (8b0 <_sercom_get_default_pad+0x174>)
     7cc:	e056      	b.n	87c <_sercom_get_default_pad+0x140>
     7ce:	4b39      	ldr	r3, [pc, #228]	; (8b4 <_sercom_get_default_pad+0x178>)
     7d0:	e054      	b.n	87c <_sercom_get_default_pad+0x140>
     7d2:	1cfb      	adds	r3, r7, #3
     7d4:	781b      	ldrb	r3, [r3, #0]
     7d6:	2b01      	cmp	r3, #1
     7d8:	d00a      	beq.n	7f0 <_sercom_get_default_pad+0xb4>
     7da:	dc02      	bgt.n	7e2 <_sercom_get_default_pad+0xa6>
     7dc:	2b00      	cmp	r3, #0
     7de:	d005      	beq.n	7ec <_sercom_get_default_pad+0xb0>
     7e0:	e04b      	b.n	87a <_sercom_get_default_pad+0x13e>
     7e2:	2b02      	cmp	r3, #2
     7e4:	d006      	beq.n	7f4 <_sercom_get_default_pad+0xb8>
     7e6:	2b03      	cmp	r3, #3
     7e8:	d006      	beq.n	7f8 <_sercom_get_default_pad+0xbc>
     7ea:	e046      	b.n	87a <_sercom_get_default_pad+0x13e>
     7ec:	4b32      	ldr	r3, [pc, #200]	; (8b8 <_sercom_get_default_pad+0x17c>)
     7ee:	e045      	b.n	87c <_sercom_get_default_pad+0x140>
     7f0:	4b32      	ldr	r3, [pc, #200]	; (8bc <_sercom_get_default_pad+0x180>)
     7f2:	e043      	b.n	87c <_sercom_get_default_pad+0x140>
     7f4:	4b32      	ldr	r3, [pc, #200]	; (8c0 <_sercom_get_default_pad+0x184>)
     7f6:	e041      	b.n	87c <_sercom_get_default_pad+0x140>
     7f8:	4b32      	ldr	r3, [pc, #200]	; (8c4 <_sercom_get_default_pad+0x188>)
     7fa:	e03f      	b.n	87c <_sercom_get_default_pad+0x140>
     7fc:	1cfb      	adds	r3, r7, #3
     7fe:	781b      	ldrb	r3, [r3, #0]
     800:	2b01      	cmp	r3, #1
     802:	d00a      	beq.n	81a <_sercom_get_default_pad+0xde>
     804:	dc02      	bgt.n	80c <_sercom_get_default_pad+0xd0>
     806:	2b00      	cmp	r3, #0
     808:	d005      	beq.n	816 <_sercom_get_default_pad+0xda>
     80a:	e036      	b.n	87a <_sercom_get_default_pad+0x13e>
     80c:	2b02      	cmp	r3, #2
     80e:	d006      	beq.n	81e <_sercom_get_default_pad+0xe2>
     810:	2b03      	cmp	r3, #3
     812:	d006      	beq.n	822 <_sercom_get_default_pad+0xe6>
     814:	e031      	b.n	87a <_sercom_get_default_pad+0x13e>
     816:	4b2c      	ldr	r3, [pc, #176]	; (8c8 <_sercom_get_default_pad+0x18c>)
     818:	e030      	b.n	87c <_sercom_get_default_pad+0x140>
     81a:	4b2c      	ldr	r3, [pc, #176]	; (8cc <_sercom_get_default_pad+0x190>)
     81c:	e02e      	b.n	87c <_sercom_get_default_pad+0x140>
     81e:	4b2c      	ldr	r3, [pc, #176]	; (8d0 <_sercom_get_default_pad+0x194>)
     820:	e02c      	b.n	87c <_sercom_get_default_pad+0x140>
     822:	4b2c      	ldr	r3, [pc, #176]	; (8d4 <_sercom_get_default_pad+0x198>)
     824:	e02a      	b.n	87c <_sercom_get_default_pad+0x140>
     826:	1cfb      	adds	r3, r7, #3
     828:	781b      	ldrb	r3, [r3, #0]
     82a:	2b01      	cmp	r3, #1
     82c:	d00a      	beq.n	844 <_sercom_get_default_pad+0x108>
     82e:	dc02      	bgt.n	836 <_sercom_get_default_pad+0xfa>
     830:	2b00      	cmp	r3, #0
     832:	d005      	beq.n	840 <_sercom_get_default_pad+0x104>
     834:	e021      	b.n	87a <_sercom_get_default_pad+0x13e>
     836:	2b02      	cmp	r3, #2
     838:	d006      	beq.n	848 <_sercom_get_default_pad+0x10c>
     83a:	2b03      	cmp	r3, #3
     83c:	d006      	beq.n	84c <_sercom_get_default_pad+0x110>
     83e:	e01c      	b.n	87a <_sercom_get_default_pad+0x13e>
     840:	4b25      	ldr	r3, [pc, #148]	; (8d8 <_sercom_get_default_pad+0x19c>)
     842:	e01b      	b.n	87c <_sercom_get_default_pad+0x140>
     844:	4b25      	ldr	r3, [pc, #148]	; (8dc <_sercom_get_default_pad+0x1a0>)
     846:	e019      	b.n	87c <_sercom_get_default_pad+0x140>
     848:	4b25      	ldr	r3, [pc, #148]	; (8e0 <_sercom_get_default_pad+0x1a4>)
     84a:	e017      	b.n	87c <_sercom_get_default_pad+0x140>
     84c:	4b25      	ldr	r3, [pc, #148]	; (8e4 <_sercom_get_default_pad+0x1a8>)
     84e:	e015      	b.n	87c <_sercom_get_default_pad+0x140>
     850:	1cfb      	adds	r3, r7, #3
     852:	781b      	ldrb	r3, [r3, #0]
     854:	2b01      	cmp	r3, #1
     856:	d00a      	beq.n	86e <_sercom_get_default_pad+0x132>
     858:	dc02      	bgt.n	860 <_sercom_get_default_pad+0x124>
     85a:	2b00      	cmp	r3, #0
     85c:	d005      	beq.n	86a <_sercom_get_default_pad+0x12e>
     85e:	e00c      	b.n	87a <_sercom_get_default_pad+0x13e>
     860:	2b02      	cmp	r3, #2
     862:	d006      	beq.n	872 <_sercom_get_default_pad+0x136>
     864:	2b03      	cmp	r3, #3
     866:	d006      	beq.n	876 <_sercom_get_default_pad+0x13a>
     868:	e007      	b.n	87a <_sercom_get_default_pad+0x13e>
     86a:	4b1f      	ldr	r3, [pc, #124]	; (8e8 <_sercom_get_default_pad+0x1ac>)
     86c:	e006      	b.n	87c <_sercom_get_default_pad+0x140>
     86e:	4b1f      	ldr	r3, [pc, #124]	; (8ec <_sercom_get_default_pad+0x1b0>)
     870:	e004      	b.n	87c <_sercom_get_default_pad+0x140>
     872:	4b1f      	ldr	r3, [pc, #124]	; (8f0 <_sercom_get_default_pad+0x1b4>)
     874:	e002      	b.n	87c <_sercom_get_default_pad+0x140>
     876:	4b1f      	ldr	r3, [pc, #124]	; (8f4 <_sercom_get_default_pad+0x1b8>)
     878:	e000      	b.n	87c <_sercom_get_default_pad+0x140>
	}

	Assert(false);
	return 0;
     87a:	2300      	movs	r3, #0
}
     87c:	0018      	movs	r0, r3
     87e:	46bd      	mov	sp, r7
     880:	b002      	add	sp, #8
     882:	bd80      	pop	{r7, pc}
     884:	42001000 	.word	0x42001000
     888:	42000800 	.word	0x42000800
     88c:	42000c00 	.word	0x42000c00
     890:	42001800 	.word	0x42001800
     894:	42001c00 	.word	0x42001c00
     898:	42001400 	.word	0x42001400
     89c:	00040003 	.word	0x00040003
     8a0:	00050003 	.word	0x00050003
     8a4:	00060003 	.word	0x00060003
     8a8:	00070003 	.word	0x00070003
     8ac:	00010003 	.word	0x00010003
     8b0:	001e0003 	.word	0x001e0003
     8b4:	001f0003 	.word	0x001f0003
     8b8:	00080003 	.word	0x00080003
     8bc:	00090003 	.word	0x00090003
     8c0:	000a0003 	.word	0x000a0003
     8c4:	000b0003 	.word	0x000b0003
     8c8:	00100003 	.word	0x00100003
     8cc:	00110003 	.word	0x00110003
     8d0:	00120003 	.word	0x00120003
     8d4:	00130003 	.word	0x00130003
     8d8:	000c0003 	.word	0x000c0003
     8dc:	000d0003 	.word	0x000d0003
     8e0:	000e0003 	.word	0x000e0003
     8e4:	000f0003 	.word	0x000f0003
     8e8:	00160003 	.word	0x00160003
     8ec:	00170003 	.word	0x00170003
     8f0:	00180003 	.word	0x00180003
     8f4:	00190003 	.word	0x00190003

000008f8 <_sercom_get_sercom_inst_index>:
 *
 * \return Index of given instance.
 */
uint8_t _sercom_get_sercom_inst_index(
		Sercom *const sercom_instance)
{
     8f8:	b590      	push	{r4, r7, lr}
     8fa:	b08b      	sub	sp, #44	; 0x2c
     8fc:	af00      	add	r7, sp, #0
     8fe:	6078      	str	r0, [r7, #4]
	/* Save all available SERCOM instances for compare */
	Sercom *sercom_instances[SERCOM_INST_NUM] = SERCOM_INSTS;
     900:	230c      	movs	r3, #12
     902:	18fb      	adds	r3, r7, r3
     904:	4a0f      	ldr	r2, [pc, #60]	; (944 <_sercom_get_sercom_inst_index+0x4c>)
     906:	ca13      	ldmia	r2!, {r0, r1, r4}
     908:	c313      	stmia	r3!, {r0, r1, r4}
     90a:	ca13      	ldmia	r2!, {r0, r1, r4}
     90c:	c313      	stmia	r3!, {r0, r1, r4}

	/* Find index for sercom instance */
	for (uint32_t i = 0; i < SERCOM_INST_NUM; i++) {
     90e:	2300      	movs	r3, #0
     910:	627b      	str	r3, [r7, #36]	; 0x24
     912:	e00e      	b.n	932 <_sercom_get_sercom_inst_index+0x3a>
		if ((uintptr_t)sercom_instance == (uintptr_t)sercom_instances[i]) {
     914:	230c      	movs	r3, #12
     916:	18fb      	adds	r3, r7, r3
     918:	6a7a      	ldr	r2, [r7, #36]	; 0x24
     91a:	0092      	lsls	r2, r2, #2
     91c:	58d3      	ldr	r3, [r2, r3]
     91e:	001a      	movs	r2, r3
     920:	687b      	ldr	r3, [r7, #4]
     922:	429a      	cmp	r2, r3
     924:	d102      	bne.n	92c <_sercom_get_sercom_inst_index+0x34>
			return i;
     926:	6a7b      	ldr	r3, [r7, #36]	; 0x24
     928:	b2db      	uxtb	r3, r3
     92a:	e006      	b.n	93a <_sercom_get_sercom_inst_index+0x42>
	for (uint32_t i = 0; i < SERCOM_INST_NUM; i++) {
     92c:	6a7b      	ldr	r3, [r7, #36]	; 0x24
     92e:	3301      	adds	r3, #1
     930:	627b      	str	r3, [r7, #36]	; 0x24
     932:	6a7b      	ldr	r3, [r7, #36]	; 0x24
     934:	2b05      	cmp	r3, #5
     936:	d9ed      	bls.n	914 <_sercom_get_sercom_inst_index+0x1c>
		}
	}

	/* Invalid data given */
	Assert(false);
	return 0;
     938:	2300      	movs	r3, #0
}
     93a:	0018      	movs	r0, r3
     93c:	46bd      	mov	sp, r7
     93e:	b00b      	add	sp, #44	; 0x2c
     940:	bd90      	pop	{r4, r7, pc}
     942:	46c0      	nop			; (mov r8, r8)
     944:	00006228 	.word	0x00006228

00000948 <system_pinmux_get_group_from_gpio_pin>:
{
     948:	b580      	push	{r7, lr}
     94a:	b084      	sub	sp, #16
     94c:	af00      	add	r7, sp, #0
     94e:	0002      	movs	r2, r0
     950:	1dfb      	adds	r3, r7, #7
     952:	701a      	strb	r2, [r3, #0]
	uint8_t port_index  = (gpio_pin / 128);
     954:	230f      	movs	r3, #15
     956:	18fb      	adds	r3, r7, r3
     958:	1dfa      	adds	r2, r7, #7
     95a:	7812      	ldrb	r2, [r2, #0]
     95c:	09d2      	lsrs	r2, r2, #7
     95e:	701a      	strb	r2, [r3, #0]
	uint8_t group_index = (gpio_pin / 32);
     960:	230e      	movs	r3, #14
     962:	18fb      	adds	r3, r7, r3
     964:	1dfa      	adds	r2, r7, #7
     966:	7812      	ldrb	r2, [r2, #0]
     968:	0952      	lsrs	r2, r2, #5
     96a:	701a      	strb	r2, [r3, #0]
	Port *const ports[PORT_INST_NUM] = PORT_INSTS;
     96c:	4b0d      	ldr	r3, [pc, #52]	; (9a4 <system_pinmux_get_group_from_gpio_pin+0x5c>)
     96e:	60bb      	str	r3, [r7, #8]
	if (port_index < PORT_INST_NUM) {
     970:	230f      	movs	r3, #15
     972:	18fb      	adds	r3, r7, r3
     974:	781b      	ldrb	r3, [r3, #0]
     976:	2b00      	cmp	r3, #0
     978:	d10f      	bne.n	99a <system_pinmux_get_group_from_gpio_pin+0x52>
		return &(ports[port_index]->Group[group_index]);
     97a:	230f      	movs	r3, #15
     97c:	18fb      	adds	r3, r7, r3
     97e:	781b      	ldrb	r3, [r3, #0]
     980:	009b      	lsls	r3, r3, #2
     982:	2210      	movs	r2, #16
     984:	4694      	mov	ip, r2
     986:	44bc      	add	ip, r7
     988:	4463      	add	r3, ip
     98a:	3b08      	subs	r3, #8
     98c:	681a      	ldr	r2, [r3, #0]
     98e:	230e      	movs	r3, #14
     990:	18fb      	adds	r3, r7, r3
     992:	781b      	ldrb	r3, [r3, #0]
     994:	01db      	lsls	r3, r3, #7
     996:	18d3      	adds	r3, r2, r3
     998:	e000      	b.n	99c <system_pinmux_get_group_from_gpio_pin+0x54>
		return NULL;
     99a:	2300      	movs	r3, #0
}
     99c:	0018      	movs	r0, r3
     99e:	46bd      	mov	sp, r7
     9a0:	b004      	add	sp, #16
     9a2:	bd80      	pop	{r7, pc}
     9a4:	41004400 	.word	0x41004400

000009a8 <_system_pinmux_config>:
 */
static void _system_pinmux_config(
		PortGroup *const port,
		const uint32_t pin_mask,
		const struct system_pinmux_config *const config)
{
     9a8:	b580      	push	{r7, lr}
     9aa:	b088      	sub	sp, #32
     9ac:	af00      	add	r7, sp, #0
     9ae:	60f8      	str	r0, [r7, #12]
     9b0:	60b9      	str	r1, [r7, #8]
     9b2:	607a      	str	r2, [r7, #4]
	Assert(port);
	Assert(config);

	/* Track the configuration bits into a temporary variable before writing */
	uint32_t pin_cfg = 0;
     9b4:	2300      	movs	r3, #0
     9b6:	61fb      	str	r3, [r7, #28]

	/* Enabled powersave mode, don't create configuration */
	if (!config->powersave) {
     9b8:	687b      	ldr	r3, [r7, #4]
     9ba:	78db      	ldrb	r3, [r3, #3]
     9bc:	2201      	movs	r2, #1
     9be:	4053      	eors	r3, r2
     9c0:	b2db      	uxtb	r3, r3
     9c2:	2b00      	cmp	r3, #0
     9c4:	d035      	beq.n	a32 <_system_pinmux_config+0x8a>
		/* Enable the pin peripheral MUX flag if non-GPIO selected (pinmux will
		 * be written later) and store the new MUX mask */
		if (config->mux_position != SYSTEM_PINMUX_GPIO) {
     9c6:	687b      	ldr	r3, [r7, #4]
     9c8:	781b      	ldrb	r3, [r3, #0]
     9ca:	2b80      	cmp	r3, #128	; 0x80
     9cc:	d00b      	beq.n	9e6 <_system_pinmux_config+0x3e>
			pin_cfg |= PORT_WRCONFIG_PMUXEN;
     9ce:	69fb      	ldr	r3, [r7, #28]
     9d0:	2280      	movs	r2, #128	; 0x80
     9d2:	0252      	lsls	r2, r2, #9
     9d4:	4313      	orrs	r3, r2
     9d6:	61fb      	str	r3, [r7, #28]
			pin_cfg |= (config->mux_position << PORT_WRCONFIG_PMUX_Pos);
     9d8:	687b      	ldr	r3, [r7, #4]
     9da:	781b      	ldrb	r3, [r3, #0]
     9dc:	061b      	lsls	r3, r3, #24
     9de:	001a      	movs	r2, r3
     9e0:	69fb      	ldr	r3, [r7, #28]
     9e2:	4313      	orrs	r3, r2
     9e4:	61fb      	str	r3, [r7, #28]
		}

		/* Check if the user has requested that the input buffer be enabled */
		if ((config->direction == SYSTEM_PINMUX_PIN_DIR_INPUT) ||
     9e6:	687b      	ldr	r3, [r7, #4]
     9e8:	785b      	ldrb	r3, [r3, #1]
     9ea:	2b00      	cmp	r3, #0
     9ec:	d003      	beq.n	9f6 <_system_pinmux_config+0x4e>
				(config->direction == SYSTEM_PINMUX_PIN_DIR_OUTPUT_WITH_READBACK)) {
     9ee:	687b      	ldr	r3, [r7, #4]
     9f0:	785b      	ldrb	r3, [r3, #1]
		if ((config->direction == SYSTEM_PINMUX_PIN_DIR_INPUT) ||
     9f2:	2b02      	cmp	r3, #2
     9f4:	d110      	bne.n	a18 <_system_pinmux_config+0x70>
			/* Enable input buffer flag */
			pin_cfg |= PORT_WRCONFIG_INEN;
     9f6:	69fb      	ldr	r3, [r7, #28]
     9f8:	2280      	movs	r2, #128	; 0x80
     9fa:	0292      	lsls	r2, r2, #10
     9fc:	4313      	orrs	r3, r2
     9fe:	61fb      	str	r3, [r7, #28]

			/* Enable pull-up/pull-down control flag if requested */
			if (config->input_pull != SYSTEM_PINMUX_PIN_PULL_NONE) {
     a00:	687b      	ldr	r3, [r7, #4]
     a02:	789b      	ldrb	r3, [r3, #2]
     a04:	2b00      	cmp	r3, #0
     a06:	d004      	beq.n	a12 <_system_pinmux_config+0x6a>
				pin_cfg |= PORT_WRCONFIG_PULLEN;
     a08:	69fb      	ldr	r3, [r7, #28]
     a0a:	2280      	movs	r2, #128	; 0x80
     a0c:	02d2      	lsls	r2, r2, #11
     a0e:	4313      	orrs	r3, r2
     a10:	61fb      	str	r3, [r7, #28]
			}

			/* Clear the port DIR bits to disable the output buffer */
			port->DIRCLR.reg = pin_mask;
     a12:	68fb      	ldr	r3, [r7, #12]
     a14:	68ba      	ldr	r2, [r7, #8]
     a16:	605a      	str	r2, [r3, #4]
		}

		/* Check if the user has requested that the output buffer be enabled */
		if ((config->direction == SYSTEM_PINMUX_PIN_DIR_OUTPUT) ||
     a18:	687b      	ldr	r3, [r7, #4]
     a1a:	785b      	ldrb	r3, [r3, #1]
     a1c:	2b01      	cmp	r3, #1
     a1e:	d003      	beq.n	a28 <_system_pinmux_config+0x80>
				(config->direction == SYSTEM_PINMUX_PIN_DIR_OUTPUT_WITH_READBACK)) {
     a20:	687b      	ldr	r3, [r7, #4]
     a22:	785b      	ldrb	r3, [r3, #1]
		if ((config->direction == SYSTEM_PINMUX_PIN_DIR_OUTPUT) ||
     a24:	2b02      	cmp	r3, #2
     a26:	d107      	bne.n	a38 <_system_pinmux_config+0x90>
			/* Cannot use a pull-up if the output driver is enabled,
			 * if requested the input buffer can only sample the current
			 * output state */
			pin_cfg &= ~PORT_WRCONFIG_PULLEN;
     a28:	69fb      	ldr	r3, [r7, #28]
     a2a:	4a22      	ldr	r2, [pc, #136]	; (ab4 <_system_pinmux_config+0x10c>)
     a2c:	4013      	ands	r3, r2
     a2e:	61fb      	str	r3, [r7, #28]
     a30:	e002      	b.n	a38 <_system_pinmux_config+0x90>
		}
	} else {
		port->DIRCLR.reg = pin_mask;
     a32:	68fb      	ldr	r3, [r7, #12]
     a34:	68ba      	ldr	r2, [r7, #8]
     a36:	605a      	str	r2, [r3, #4]
	}

	/* The Write Configuration register (WRCONFIG) requires the
	 * pins to to grouped into two 16-bit half-words - split them out here */
	uint32_t lower_pin_mask = (pin_mask & 0xFFFF);
     a38:	68bb      	ldr	r3, [r7, #8]
     a3a:	041b      	lsls	r3, r3, #16
     a3c:	0c1b      	lsrs	r3, r3, #16
     a3e:	61bb      	str	r3, [r7, #24]
	uint32_t upper_pin_mask = (pin_mask >> 16);
     a40:	68bb      	ldr	r3, [r7, #8]
     a42:	0c1b      	lsrs	r3, r3, #16
     a44:	617b      	str	r3, [r7, #20]

	/* Configure the lower 16-bits of the port to the desired configuration,
	 * including the pin peripheral multiplexer just in case it is enabled */
	port->WRCONFIG.reg
		= (lower_pin_mask << PORT_WRCONFIG_PINMASK_Pos) |
     a46:	69ba      	ldr	r2, [r7, #24]
     a48:	69fb      	ldr	r3, [r7, #28]
     a4a:	4313      	orrs	r3, r2
			pin_cfg | PORT_WRCONFIG_WRPMUX | PORT_WRCONFIG_WRPINCFG;
     a4c:	22a0      	movs	r2, #160	; 0xa0
     a4e:	05d2      	lsls	r2, r2, #23
     a50:	431a      	orrs	r2, r3
		= (lower_pin_mask << PORT_WRCONFIG_PINMASK_Pos) |
     a52:	68fb      	ldr	r3, [r7, #12]
     a54:	629a      	str	r2, [r3, #40]	; 0x28

	/* Configure the upper 16-bits of the port to the desired configuration,
	 * including the pin peripheral multiplexer just in case it is enabled */
	port->WRCONFIG.reg
		= (upper_pin_mask << PORT_WRCONFIG_PINMASK_Pos) |
     a56:	697a      	ldr	r2, [r7, #20]
     a58:	69fb      	ldr	r3, [r7, #28]
     a5a:	4313      	orrs	r3, r2
			pin_cfg | PORT_WRCONFIG_WRPMUX | PORT_WRCONFIG_WRPINCFG |
     a5c:	22d0      	movs	r2, #208	; 0xd0
     a5e:	0612      	lsls	r2, r2, #24
     a60:	431a      	orrs	r2, r3
		= (upper_pin_mask << PORT_WRCONFIG_PINMASK_Pos) |
     a62:	68fb      	ldr	r3, [r7, #12]
     a64:	629a      	str	r2, [r3, #40]	; 0x28
			PORT_WRCONFIG_HWSEL;

	if(!config->powersave) {
     a66:	687b      	ldr	r3, [r7, #4]
     a68:	78db      	ldrb	r3, [r3, #3]
     a6a:	2201      	movs	r2, #1
     a6c:	4053      	eors	r3, r2
     a6e:	b2db      	uxtb	r3, r3
     a70:	2b00      	cmp	r3, #0
     a72:	d01a      	beq.n	aaa <_system_pinmux_config+0x102>
		/* Set the pull-up state once the port pins are configured if one was
		 * requested and it does not violate the valid set of port
		 * configurations */
		if (pin_cfg & PORT_WRCONFIG_PULLEN) {
     a74:	69fa      	ldr	r2, [r7, #28]
     a76:	2380      	movs	r3, #128	; 0x80
     a78:	02db      	lsls	r3, r3, #11
     a7a:	4013      	ands	r3, r2
     a7c:	d00a      	beq.n	a94 <_system_pinmux_config+0xec>
			/* Set the OUT register bits to enable the pull-up if requested,
			 * clear to enable pull-down */
			if (config->input_pull == SYSTEM_PINMUX_PIN_PULL_UP) {
     a7e:	687b      	ldr	r3, [r7, #4]
     a80:	789b      	ldrb	r3, [r3, #2]
     a82:	2b01      	cmp	r3, #1
     a84:	d103      	bne.n	a8e <_system_pinmux_config+0xe6>
				port->OUTSET.reg = pin_mask;
     a86:	68fb      	ldr	r3, [r7, #12]
     a88:	68ba      	ldr	r2, [r7, #8]
     a8a:	619a      	str	r2, [r3, #24]
     a8c:	e002      	b.n	a94 <_system_pinmux_config+0xec>
			} else {
				port->OUTCLR.reg = pin_mask;
     a8e:	68fb      	ldr	r3, [r7, #12]
     a90:	68ba      	ldr	r2, [r7, #8]
     a92:	615a      	str	r2, [r3, #20]
			}
		}

		/* Check if the user has requested that the output buffer be enabled */
		if ((config->direction == SYSTEM_PINMUX_PIN_DIR_OUTPUT) ||
     a94:	687b      	ldr	r3, [r7, #4]
     a96:	785b      	ldrb	r3, [r3, #1]
     a98:	2b01      	cmp	r3, #1
     a9a:	d003      	beq.n	aa4 <_system_pinmux_config+0xfc>
				(config->direction == SYSTEM_PINMUX_PIN_DIR_OUTPUT_WITH_READBACK)) {
     a9c:	687b      	ldr	r3, [r7, #4]
     a9e:	785b      	ldrb	r3, [r3, #1]
		if ((config->direction == SYSTEM_PINMUX_PIN_DIR_OUTPUT) ||
     aa0:	2b02      	cmp	r3, #2
     aa2:	d102      	bne.n	aaa <_system_pinmux_config+0x102>
			/* Set the port DIR bits to enable the output buffer */
			port->DIRSET.reg = pin_mask;
     aa4:	68fb      	ldr	r3, [r7, #12]
     aa6:	68ba      	ldr	r2, [r7, #8]
     aa8:	609a      	str	r2, [r3, #8]
		}
	}
}
     aaa:	46c0      	nop			; (mov r8, r8)
     aac:	46bd      	mov	sp, r7
     aae:	b008      	add	sp, #32
     ab0:	bd80      	pop	{r7, pc}
     ab2:	46c0      	nop			; (mov r8, r8)
     ab4:	fffbffff 	.word	0xfffbffff

00000ab8 <system_pinmux_pin_set_config>:
 * \param[in] config    Configuration settings for the pin
 */
void system_pinmux_pin_set_config(
		const uint8_t gpio_pin,
		const struct system_pinmux_config *const config)
{
     ab8:	b580      	push	{r7, lr}
     aba:	b084      	sub	sp, #16
     abc:	af00      	add	r7, sp, #0
     abe:	0002      	movs	r2, r0
     ac0:	6039      	str	r1, [r7, #0]
     ac2:	1dfb      	adds	r3, r7, #7
     ac4:	701a      	strb	r2, [r3, #0]
	PortGroup *const port = system_pinmux_get_group_from_gpio_pin(gpio_pin);
     ac6:	1dfb      	adds	r3, r7, #7
     ac8:	781b      	ldrb	r3, [r3, #0]
     aca:	0018      	movs	r0, r3
     acc:	4b0a      	ldr	r3, [pc, #40]	; (af8 <system_pinmux_pin_set_config+0x40>)
     ace:	4798      	blx	r3
     ad0:	0003      	movs	r3, r0
     ad2:	60fb      	str	r3, [r7, #12]
	uint32_t pin_mask = (1UL << (gpio_pin % 32));
     ad4:	1dfb      	adds	r3, r7, #7
     ad6:	781b      	ldrb	r3, [r3, #0]
     ad8:	221f      	movs	r2, #31
     ada:	4013      	ands	r3, r2
     adc:	2201      	movs	r2, #1
     ade:	409a      	lsls	r2, r3
     ae0:	0013      	movs	r3, r2
     ae2:	60bb      	str	r3, [r7, #8]

	_system_pinmux_config(port, pin_mask, config);
     ae4:	683a      	ldr	r2, [r7, #0]
     ae6:	68b9      	ldr	r1, [r7, #8]
     ae8:	68fb      	ldr	r3, [r7, #12]
     aea:	0018      	movs	r0, r3
     aec:	4b03      	ldr	r3, [pc, #12]	; (afc <system_pinmux_pin_set_config+0x44>)
     aee:	4798      	blx	r3
}
     af0:	46c0      	nop			; (mov r8, r8)
     af2:	46bd      	mov	sp, r7
     af4:	b004      	add	sp, #16
     af6:	bd80      	pop	{r7, pc}
     af8:	00000949 	.word	0x00000949
     afc:	000009a9 	.word	0x000009a9

00000b00 <Reset_Handler>:
/**
 * \brief This is the code that gets called on processor reset.
 * To initialize the device, and call the main() routine.
 */
void Reset_Handler(void)
{
     b00:	b580      	push	{r7, lr}
     b02:	b082      	sub	sp, #8
     b04:	af00      	add	r7, sp, #0
        uint32_t *pSrc, *pDest;

        /* Initialize the relocate segment */
        pSrc = &_etext;
     b06:	4b2f      	ldr	r3, [pc, #188]	; (bc4 <Reset_Handler+0xc4>)
     b08:	607b      	str	r3, [r7, #4]
        pDest = &_srelocate;
     b0a:	4b2f      	ldr	r3, [pc, #188]	; (bc8 <Reset_Handler+0xc8>)
     b0c:	603b      	str	r3, [r7, #0]

        if (pSrc != pDest) {
     b0e:	687a      	ldr	r2, [r7, #4]
     b10:	683b      	ldr	r3, [r7, #0]
     b12:	429a      	cmp	r2, r3
     b14:	d00c      	beq.n	b30 <Reset_Handler+0x30>
                for (; pDest < &_erelocate;) {
     b16:	e007      	b.n	b28 <Reset_Handler+0x28>
                        *pDest++ = *pSrc++;
     b18:	683b      	ldr	r3, [r7, #0]
     b1a:	1d1a      	adds	r2, r3, #4
     b1c:	603a      	str	r2, [r7, #0]
     b1e:	687a      	ldr	r2, [r7, #4]
     b20:	1d11      	adds	r1, r2, #4
     b22:	6079      	str	r1, [r7, #4]
     b24:	6812      	ldr	r2, [r2, #0]
     b26:	601a      	str	r2, [r3, #0]
                for (; pDest < &_erelocate;) {
     b28:	683a      	ldr	r2, [r7, #0]
     b2a:	4b28      	ldr	r3, [pc, #160]	; (bcc <Reset_Handler+0xcc>)
     b2c:	429a      	cmp	r2, r3
     b2e:	d3f3      	bcc.n	b18 <Reset_Handler+0x18>
                }
        }

        /* Clear the zero segment */
        for (pDest = &_szero; pDest < &_ezero;) {
     b30:	4b27      	ldr	r3, [pc, #156]	; (bd0 <Reset_Handler+0xd0>)
     b32:	603b      	str	r3, [r7, #0]
     b34:	e004      	b.n	b40 <Reset_Handler+0x40>
                *pDest++ = 0;
     b36:	683b      	ldr	r3, [r7, #0]
     b38:	1d1a      	adds	r2, r3, #4
     b3a:	603a      	str	r2, [r7, #0]
     b3c:	2200      	movs	r2, #0
     b3e:	601a      	str	r2, [r3, #0]
        for (pDest = &_szero; pDest < &_ezero;) {
     b40:	683a      	ldr	r2, [r7, #0]
     b42:	4b24      	ldr	r3, [pc, #144]	; (bd4 <Reset_Handler+0xd4>)
     b44:	429a      	cmp	r2, r3
     b46:	d3f6      	bcc.n	b36 <Reset_Handler+0x36>
        }

        /* Set the vector table base address */
        pSrc = (uint32_t *) & _sfixed;
     b48:	4b23      	ldr	r3, [pc, #140]	; (bd8 <Reset_Handler+0xd8>)
     b4a:	607b      	str	r3, [r7, #4]
        SCB->VTOR = ((uint32_t) pSrc & SCB_VTOR_TBLOFF_Msk);
     b4c:	4b23      	ldr	r3, [pc, #140]	; (bdc <Reset_Handler+0xdc>)
     b4e:	687a      	ldr	r2, [r7, #4]
     b50:	21ff      	movs	r1, #255	; 0xff
     b52:	438a      	bics	r2, r1
     b54:	609a      	str	r2, [r3, #8]

        /* Change default QOS values to have the best performance and correct USB behaviour */
        SBMATRIX->SFR[SBMATRIX_SLAVE_HMCRAMC0].reg = 2;
     b56:	4a22      	ldr	r2, [pc, #136]	; (be0 <Reset_Handler+0xe0>)
     b58:	2390      	movs	r3, #144	; 0x90
     b5a:	005b      	lsls	r3, r3, #1
     b5c:	2102      	movs	r1, #2
     b5e:	50d1      	str	r1, [r2, r3]
#if defined(ID_USB)
        USB->DEVICE.QOSCTRL.bit.CQOS = 2;
     b60:	4a20      	ldr	r2, [pc, #128]	; (be4 <Reset_Handler+0xe4>)
     b62:	78d3      	ldrb	r3, [r2, #3]
     b64:	2103      	movs	r1, #3
     b66:	438b      	bics	r3, r1
     b68:	1c19      	adds	r1, r3, #0
     b6a:	2302      	movs	r3, #2
     b6c:	430b      	orrs	r3, r1
     b6e:	70d3      	strb	r3, [r2, #3]
        USB->DEVICE.QOSCTRL.bit.DQOS = 2;
     b70:	4a1c      	ldr	r2, [pc, #112]	; (be4 <Reset_Handler+0xe4>)
     b72:	78d3      	ldrb	r3, [r2, #3]
     b74:	210c      	movs	r1, #12
     b76:	438b      	bics	r3, r1
     b78:	1c19      	adds	r1, r3, #0
     b7a:	2308      	movs	r3, #8
     b7c:	430b      	orrs	r3, r1
     b7e:	70d3      	strb	r3, [r2, #3]
#endif
        DMAC->QOSCTRL.bit.DQOS = 2;
     b80:	4a19      	ldr	r2, [pc, #100]	; (be8 <Reset_Handler+0xe8>)
     b82:	7b93      	ldrb	r3, [r2, #14]
     b84:	2130      	movs	r1, #48	; 0x30
     b86:	438b      	bics	r3, r1
     b88:	1c19      	adds	r1, r3, #0
     b8a:	2320      	movs	r3, #32
     b8c:	430b      	orrs	r3, r1
     b8e:	7393      	strb	r3, [r2, #14]
        DMAC->QOSCTRL.bit.FQOS = 2;
     b90:	4a15      	ldr	r2, [pc, #84]	; (be8 <Reset_Handler+0xe8>)
     b92:	7b93      	ldrb	r3, [r2, #14]
     b94:	210c      	movs	r1, #12
     b96:	438b      	bics	r3, r1
     b98:	1c19      	adds	r1, r3, #0
     b9a:	2308      	movs	r3, #8
     b9c:	430b      	orrs	r3, r1
     b9e:	7393      	strb	r3, [r2, #14]
        DMAC->QOSCTRL.bit.WRBQOS = 2;
     ba0:	4a11      	ldr	r2, [pc, #68]	; (be8 <Reset_Handler+0xe8>)
     ba2:	7b93      	ldrb	r3, [r2, #14]
     ba4:	2103      	movs	r1, #3
     ba6:	438b      	bics	r3, r1
     ba8:	1c19      	adds	r1, r3, #0
     baa:	2302      	movs	r3, #2
     bac:	430b      	orrs	r3, r1
     bae:	7393      	strb	r3, [r2, #14]

        /* Overwriting the default value of the NVMCTRL.CTRLB.MANW bit (errata reference 13134) */
        NVMCTRL->CTRLB.bit.MANW = 1;
     bb0:	4a0e      	ldr	r2, [pc, #56]	; (bec <Reset_Handler+0xec>)
     bb2:	6853      	ldr	r3, [r2, #4]
     bb4:	2180      	movs	r1, #128	; 0x80
     bb6:	430b      	orrs	r3, r1
     bb8:	6053      	str	r3, [r2, #4]

        /* Initialize the C library */
        __libc_init_array();
     bba:	4b0d      	ldr	r3, [pc, #52]	; (bf0 <Reset_Handler+0xf0>)
     bbc:	4798      	blx	r3

        /* Branch to main function */
        main();
     bbe:	4b0d      	ldr	r3, [pc, #52]	; (bf4 <Reset_Handler+0xf4>)
     bc0:	4798      	blx	r3

        /* Infinite loop */
        while (1);
     bc2:	e7fe      	b.n	bc2 <Reset_Handler+0xc2>
     bc4:	000067bc 	.word	0x000067bc
     bc8:	20000000 	.word	0x20000000
     bcc:	200001e4 	.word	0x200001e4
     bd0:	200001e4 	.word	0x200001e4
     bd4:	200038d8 	.word	0x200038d8
     bd8:	00000000 	.word	0x00000000
     bdc:	e000ed00 	.word	0xe000ed00
     be0:	41007000 	.word	0x41007000
     be4:	41005000 	.word	0x41005000
     be8:	41004800 	.word	0x41004800
     bec:	41004000 	.word	0x41004000
     bf0:	000057dd 	.word	0x000057dd
     bf4:	000054ed 	.word	0x000054ed

00000bf8 <Dummy_Handler>:

/**
 * \brief Default interrupt handler for unused IRQs.
 */
void Dummy_Handler(void)
{
     bf8:	b580      	push	{r7, lr}
     bfa:	af00      	add	r7, sp, #0
        while (1) {
     bfc:	e7fe      	b.n	bfc <Dummy_Handler+0x4>
	...

00000c00 <_sbrk>:
extern void _exit(int status);
extern void _kill(int pid, int sig);
extern int _getpid(void);

extern caddr_t _sbrk(int incr)
{
     c00:	b580      	push	{r7, lr}
     c02:	b084      	sub	sp, #16
     c04:	af00      	add	r7, sp, #0
     c06:	6078      	str	r0, [r7, #4]
	static unsigned char *heap = NULL;
	unsigned char *prev_heap;

	if (heap == NULL) {
     c08:	4b0a      	ldr	r3, [pc, #40]	; (c34 <_sbrk+0x34>)
     c0a:	681b      	ldr	r3, [r3, #0]
     c0c:	2b00      	cmp	r3, #0
     c0e:	d102      	bne.n	c16 <_sbrk+0x16>
		heap = (unsigned char *)&_end;
     c10:	4b08      	ldr	r3, [pc, #32]	; (c34 <_sbrk+0x34>)
     c12:	4a09      	ldr	r2, [pc, #36]	; (c38 <_sbrk+0x38>)
     c14:	601a      	str	r2, [r3, #0]
	}
	prev_heap = heap;
     c16:	4b07      	ldr	r3, [pc, #28]	; (c34 <_sbrk+0x34>)
     c18:	681b      	ldr	r3, [r3, #0]
     c1a:	60fb      	str	r3, [r7, #12]

	heap += incr;
     c1c:	4b05      	ldr	r3, [pc, #20]	; (c34 <_sbrk+0x34>)
     c1e:	681a      	ldr	r2, [r3, #0]
     c20:	687b      	ldr	r3, [r7, #4]
     c22:	18d2      	adds	r2, r2, r3
     c24:	4b03      	ldr	r3, [pc, #12]	; (c34 <_sbrk+0x34>)
     c26:	601a      	str	r2, [r3, #0]

	return (caddr_t) prev_heap;
     c28:	68fb      	ldr	r3, [r7, #12]
}
     c2a:	0018      	movs	r0, r3
     c2c:	46bd      	mov	sp, r7
     c2e:	b004      	add	sp, #16
     c30:	bd80      	pop	{r7, pc}
     c32:	46c0      	nop			; (mov r8, r8)
     c34:	2000020c 	.word	0x2000020c
     c38:	200058d8 	.word	0x200058d8

00000c3c <FreeRTOS_CLIRegisterCommand>:


/*-----------------------------------------------------------*/

BaseType_t FreeRTOS_CLIRegisterCommand( const CLI_Command_Definition_t * const pxCommandToRegister )
{
     c3c:	b580      	push	{r7, lr}
     c3e:	b084      	sub	sp, #16
     c40:	af00      	add	r7, sp, #0
     c42:	6078      	str	r0, [r7, #4]
static CLI_Definition_List_Item_t *pxLastCommandInList = &xRegisteredCommands;
CLI_Definition_List_Item_t *pxNewListItem;
BaseType_t xReturn = pdFAIL;
     c44:	2300      	movs	r3, #0
     c46:	60fb      	str	r3, [r7, #12]

	/* Check the parameter is not NULL. */
	configASSERT( pxCommandToRegister );
     c48:	687b      	ldr	r3, [r7, #4]
     c4a:	2b00      	cmp	r3, #0
     c4c:	d101      	bne.n	c52 <FreeRTOS_CLIRegisterCommand+0x16>
     c4e:	b672      	cpsid	i
     c50:	e7fe      	b.n	c50 <FreeRTOS_CLIRegisterCommand+0x14>

	/* Create a new list item that will reference the command being registered. */
	pxNewListItem = ( CLI_Definition_List_Item_t * ) pvPortMalloc( sizeof( CLI_Definition_List_Item_t ) );
     c52:	2008      	movs	r0, #8
     c54:	4b11      	ldr	r3, [pc, #68]	; (c9c <FreeRTOS_CLIRegisterCommand+0x60>)
     c56:	4798      	blx	r3
     c58:	0003      	movs	r3, r0
     c5a:	60bb      	str	r3, [r7, #8]
	configASSERT( pxNewListItem );
     c5c:	68bb      	ldr	r3, [r7, #8]
     c5e:	2b00      	cmp	r3, #0
     c60:	d101      	bne.n	c66 <FreeRTOS_CLIRegisterCommand+0x2a>
     c62:	b672      	cpsid	i
     c64:	e7fe      	b.n	c64 <FreeRTOS_CLIRegisterCommand+0x28>

	if( pxNewListItem != NULL )
     c66:	68bb      	ldr	r3, [r7, #8]
     c68:	2b00      	cmp	r3, #0
     c6a:	d012      	beq.n	c92 <FreeRTOS_CLIRegisterCommand+0x56>
	{
		taskENTER_CRITICAL();
     c6c:	4b0c      	ldr	r3, [pc, #48]	; (ca0 <FreeRTOS_CLIRegisterCommand+0x64>)
     c6e:	4798      	blx	r3
		{
			/* Reference the command being registered from the newly created
			list item. */
			pxNewListItem->pxCommandLineDefinition = pxCommandToRegister;
     c70:	68bb      	ldr	r3, [r7, #8]
     c72:	687a      	ldr	r2, [r7, #4]
     c74:	601a      	str	r2, [r3, #0]

			/* The new list item will get added to the end of the list, so
			pxNext has nowhere to point. */
			pxNewListItem->pxNext = NULL;
     c76:	68bb      	ldr	r3, [r7, #8]
     c78:	2200      	movs	r2, #0
     c7a:	605a      	str	r2, [r3, #4]

			/* Add the newly created list item to the end of the already existing
			list. */
			pxLastCommandInList->pxNext = pxNewListItem;
     c7c:	4b09      	ldr	r3, [pc, #36]	; (ca4 <FreeRTOS_CLIRegisterCommand+0x68>)
     c7e:	681b      	ldr	r3, [r3, #0]
     c80:	68ba      	ldr	r2, [r7, #8]
     c82:	605a      	str	r2, [r3, #4]

			/* Set the end of list marker to the new list item. */
			pxLastCommandInList = pxNewListItem;
     c84:	4b07      	ldr	r3, [pc, #28]	; (ca4 <FreeRTOS_CLIRegisterCommand+0x68>)
     c86:	68ba      	ldr	r2, [r7, #8]
     c88:	601a      	str	r2, [r3, #0]
		}
		taskEXIT_CRITICAL();
     c8a:	4b07      	ldr	r3, [pc, #28]	; (ca8 <FreeRTOS_CLIRegisterCommand+0x6c>)
     c8c:	4798      	blx	r3

		xReturn = pdPASS;
     c8e:	2301      	movs	r3, #1
     c90:	60fb      	str	r3, [r7, #12]
	}

	return xReturn;
     c92:	68fb      	ldr	r3, [r7, #12]
}
     c94:	0018      	movs	r0, r3
     c96:	46bd      	mov	sp, r7
     c98:	b004      	add	sp, #16
     c9a:	bd80      	pop	{r7, pc}
     c9c:	00001281 	.word	0x00001281
     ca0:	00001141 	.word	0x00001141
     ca4:	2000000c 	.word	0x2000000c
     ca8:	00001165 	.word	0x00001165

00000cac <FreeRTOS_CLIProcessCommand>:
/*-----------------------------------------------------------*/

BaseType_t FreeRTOS_CLIProcessCommand( const char * const pcCommandInput, char * pcWriteBuffer, size_t xWriteBufferLen  )
{
     cac:	b580      	push	{r7, lr}
     cae:	b088      	sub	sp, #32
     cb0:	af00      	add	r7, sp, #0
     cb2:	60f8      	str	r0, [r7, #12]
     cb4:	60b9      	str	r1, [r7, #8]
     cb6:	607a      	str	r2, [r7, #4]
static const CLI_Definition_List_Item_t *pxCommand = NULL;
BaseType_t xReturn = pdTRUE;
     cb8:	2301      	movs	r3, #1
     cba:	61fb      	str	r3, [r7, #28]
size_t xCommandStringLength;

	/* Note:  This function is not re-entrant.  It must not be called from more
	thank one task. */

	if( pxCommand == NULL )
     cbc:	4b3d      	ldr	r3, [pc, #244]	; (db4 <FreeRTOS_CLIProcessCommand+0x108>)
     cbe:	681b      	ldr	r3, [r3, #0]
     cc0:	2b00      	cmp	r3, #0
     cc2:	d144      	bne.n	d4e <FreeRTOS_CLIProcessCommand+0xa2>
	{
		/* Search for the command string in the list of registered commands. */
		for( pxCommand = &xRegisteredCommands; pxCommand != NULL; pxCommand = pxCommand->pxNext )
     cc4:	4b3b      	ldr	r3, [pc, #236]	; (db4 <FreeRTOS_CLIProcessCommand+0x108>)
     cc6:	4a3c      	ldr	r2, [pc, #240]	; (db8 <FreeRTOS_CLIProcessCommand+0x10c>)
     cc8:	601a      	str	r2, [r3, #0]
     cca:	e03a      	b.n	d42 <FreeRTOS_CLIProcessCommand+0x96>
		{
			pcRegisteredCommandString = pxCommand->pxCommandLineDefinition->pcCommand;
     ccc:	4b39      	ldr	r3, [pc, #228]	; (db4 <FreeRTOS_CLIProcessCommand+0x108>)
     cce:	681b      	ldr	r3, [r3, #0]
     cd0:	681b      	ldr	r3, [r3, #0]
     cd2:	681b      	ldr	r3, [r3, #0]
     cd4:	61bb      	str	r3, [r7, #24]
			xCommandStringLength = strlen( pcRegisteredCommandString );
     cd6:	69bb      	ldr	r3, [r7, #24]
     cd8:	0018      	movs	r0, r3
     cda:	4b38      	ldr	r3, [pc, #224]	; (dbc <FreeRTOS_CLIProcessCommand+0x110>)
     cdc:	4798      	blx	r3
     cde:	0003      	movs	r3, r0
     ce0:	617b      	str	r3, [r7, #20]

			/* To ensure the string lengths match exactly, so as not to pick up
			a sub-string of a longer command, check the byte after the expected
			end of the string is either the end of the string or a space before
			a parameter. */
			if( ( pcCommandInput[ xCommandStringLength ] == ' ' ) || ( pcCommandInput[ xCommandStringLength ] == 0x00 ) )
     ce2:	68fa      	ldr	r2, [r7, #12]
     ce4:	697b      	ldr	r3, [r7, #20]
     ce6:	18d3      	adds	r3, r2, r3
     ce8:	781b      	ldrb	r3, [r3, #0]
     cea:	2b20      	cmp	r3, #32
     cec:	d005      	beq.n	cfa <FreeRTOS_CLIProcessCommand+0x4e>
     cee:	68fa      	ldr	r2, [r7, #12]
     cf0:	697b      	ldr	r3, [r7, #20]
     cf2:	18d3      	adds	r3, r2, r3
     cf4:	781b      	ldrb	r3, [r3, #0]
     cf6:	2b00      	cmp	r3, #0
     cf8:	d11e      	bne.n	d38 <FreeRTOS_CLIProcessCommand+0x8c>
			{
				if( strncmp( pcCommandInput, pcRegisteredCommandString, xCommandStringLength ) == 0 )
     cfa:	697a      	ldr	r2, [r7, #20]
     cfc:	69b9      	ldr	r1, [r7, #24]
     cfe:	68fb      	ldr	r3, [r7, #12]
     d00:	0018      	movs	r0, r3
     d02:	4b2f      	ldr	r3, [pc, #188]	; (dc0 <FreeRTOS_CLIProcessCommand+0x114>)
     d04:	4798      	blx	r3
     d06:	1e03      	subs	r3, r0, #0
     d08:	d116      	bne.n	d38 <FreeRTOS_CLIProcessCommand+0x8c>
				{
					/* The command has been found.  Check it has the expected
					number of parameters.  If cExpectedNumberOfParameters is -1,
					then there could be a variable number of parameters and no
					check is made. */
					if( pxCommand->pxCommandLineDefinition->cExpectedNumberOfParameters >= 0 )
     d0a:	4b2a      	ldr	r3, [pc, #168]	; (db4 <FreeRTOS_CLIProcessCommand+0x108>)
     d0c:	681b      	ldr	r3, [r3, #0]
     d0e:	681b      	ldr	r3, [r3, #0]
     d10:	7b1b      	ldrb	r3, [r3, #12]
     d12:	b25b      	sxtb	r3, r3
     d14:	2b00      	cmp	r3, #0
     d16:	db19      	blt.n	d4c <FreeRTOS_CLIProcessCommand+0xa0>
					{
						if( prvGetNumberOfParameters( pcCommandInput ) != pxCommand->pxCommandLineDefinition->cExpectedNumberOfParameters )
     d18:	68fb      	ldr	r3, [r7, #12]
     d1a:	0018      	movs	r0, r3
     d1c:	4b29      	ldr	r3, [pc, #164]	; (dc4 <FreeRTOS_CLIProcessCommand+0x118>)
     d1e:	4798      	blx	r3
     d20:	0003      	movs	r3, r0
     d22:	001a      	movs	r2, r3
     d24:	4b23      	ldr	r3, [pc, #140]	; (db4 <FreeRTOS_CLIProcessCommand+0x108>)
     d26:	681b      	ldr	r3, [r3, #0]
     d28:	681b      	ldr	r3, [r3, #0]
     d2a:	7b1b      	ldrb	r3, [r3, #12]
     d2c:	b25b      	sxtb	r3, r3
     d2e:	429a      	cmp	r2, r3
     d30:	d00c      	beq.n	d4c <FreeRTOS_CLIProcessCommand+0xa0>
						{
							xReturn = pdFALSE;
     d32:	2300      	movs	r3, #0
     d34:	61fb      	str	r3, [r7, #28]
						}
					}

					break;
     d36:	e009      	b.n	d4c <FreeRTOS_CLIProcessCommand+0xa0>
		for( pxCommand = &xRegisteredCommands; pxCommand != NULL; pxCommand = pxCommand->pxNext )
     d38:	4b1e      	ldr	r3, [pc, #120]	; (db4 <FreeRTOS_CLIProcessCommand+0x108>)
     d3a:	681b      	ldr	r3, [r3, #0]
     d3c:	685a      	ldr	r2, [r3, #4]
     d3e:	4b1d      	ldr	r3, [pc, #116]	; (db4 <FreeRTOS_CLIProcessCommand+0x108>)
     d40:	601a      	str	r2, [r3, #0]
     d42:	4b1c      	ldr	r3, [pc, #112]	; (db4 <FreeRTOS_CLIProcessCommand+0x108>)
     d44:	681b      	ldr	r3, [r3, #0]
     d46:	2b00      	cmp	r3, #0
     d48:	d1c0      	bne.n	ccc <FreeRTOS_CLIProcessCommand+0x20>
     d4a:	e000      	b.n	d4e <FreeRTOS_CLIProcessCommand+0xa2>
					break;
     d4c:	46c0      	nop			; (mov r8, r8)
				}
			}
		}
	}

	if( ( pxCommand != NULL ) && ( xReturn == pdFALSE ) )
     d4e:	4b19      	ldr	r3, [pc, #100]	; (db4 <FreeRTOS_CLIProcessCommand+0x108>)
     d50:	681b      	ldr	r3, [r3, #0]
     d52:	2b00      	cmp	r3, #0
     d54:	d00c      	beq.n	d70 <FreeRTOS_CLIProcessCommand+0xc4>
     d56:	69fb      	ldr	r3, [r7, #28]
     d58:	2b00      	cmp	r3, #0
     d5a:	d109      	bne.n	d70 <FreeRTOS_CLIProcessCommand+0xc4>
	{
		/* The command was found, but the number of parameters with the command
		was incorrect. */
		strncpy( pcWriteBuffer, "Incorrect command parameter(s).  Enter \"help\" to view a list of available commands.\r\n\r\n", xWriteBufferLen );
     d5c:	687a      	ldr	r2, [r7, #4]
     d5e:	491a      	ldr	r1, [pc, #104]	; (dc8 <FreeRTOS_CLIProcessCommand+0x11c>)
     d60:	68bb      	ldr	r3, [r7, #8]
     d62:	0018      	movs	r0, r3
     d64:	4b19      	ldr	r3, [pc, #100]	; (dcc <FreeRTOS_CLIProcessCommand+0x120>)
     d66:	4798      	blx	r3
		pxCommand = NULL;
     d68:	4b12      	ldr	r3, [pc, #72]	; (db4 <FreeRTOS_CLIProcessCommand+0x108>)
     d6a:	2200      	movs	r2, #0
     d6c:	601a      	str	r2, [r3, #0]
     d6e:	e01c      	b.n	daa <FreeRTOS_CLIProcessCommand+0xfe>
	}
	else if( pxCommand != NULL )
     d70:	4b10      	ldr	r3, [pc, #64]	; (db4 <FreeRTOS_CLIProcessCommand+0x108>)
     d72:	681b      	ldr	r3, [r3, #0]
     d74:	2b00      	cmp	r3, #0
     d76:	d010      	beq.n	d9a <FreeRTOS_CLIProcessCommand+0xee>
	{
		/* Call the callback function that is registered to this command. */
		xReturn = pxCommand->pxCommandLineDefinition->pxCommandInterpreter( pcWriteBuffer, xWriteBufferLen, pcCommandInput );
     d78:	4b0e      	ldr	r3, [pc, #56]	; (db4 <FreeRTOS_CLIProcessCommand+0x108>)
     d7a:	681b      	ldr	r3, [r3, #0]
     d7c:	681b      	ldr	r3, [r3, #0]
     d7e:	689b      	ldr	r3, [r3, #8]
     d80:	68fa      	ldr	r2, [r7, #12]
     d82:	6879      	ldr	r1, [r7, #4]
     d84:	68b8      	ldr	r0, [r7, #8]
     d86:	4798      	blx	r3
     d88:	0003      	movs	r3, r0
     d8a:	61fb      	str	r3, [r7, #28]

		/* If xReturn is pdFALSE, then no further strings will be returned
		after this one, and	pxCommand can be reset to NULL ready to search
		for the next entered command. */
		if( xReturn == pdFALSE )
     d8c:	69fb      	ldr	r3, [r7, #28]
     d8e:	2b00      	cmp	r3, #0
     d90:	d10b      	bne.n	daa <FreeRTOS_CLIProcessCommand+0xfe>
		{
			pxCommand = NULL;
     d92:	4b08      	ldr	r3, [pc, #32]	; (db4 <FreeRTOS_CLIProcessCommand+0x108>)
     d94:	2200      	movs	r2, #0
     d96:	601a      	str	r2, [r3, #0]
     d98:	e007      	b.n	daa <FreeRTOS_CLIProcessCommand+0xfe>
		}
	}
	else
	{
		/* pxCommand was NULL, the command was not found. */
		strncpy( pcWriteBuffer, "Command not recognised.  Enter 'help' to view a list of available commands.\r\n\r\n", xWriteBufferLen );
     d9a:	687a      	ldr	r2, [r7, #4]
     d9c:	490c      	ldr	r1, [pc, #48]	; (dd0 <FreeRTOS_CLIProcessCommand+0x124>)
     d9e:	68bb      	ldr	r3, [r7, #8]
     da0:	0018      	movs	r0, r3
     da2:	4b0a      	ldr	r3, [pc, #40]	; (dcc <FreeRTOS_CLIProcessCommand+0x120>)
     da4:	4798      	blx	r3
		xReturn = pdFALSE;
     da6:	2300      	movs	r3, #0
     da8:	61fb      	str	r3, [r7, #28]
	}

	return xReturn;
     daa:	69fb      	ldr	r3, [r7, #28]
}
     dac:	0018      	movs	r0, r3
     dae:	46bd      	mov	sp, r7
     db0:	b008      	add	sp, #32
     db2:	bd80      	pop	{r7, pc}
     db4:	20000210 	.word	0x20000210
     db8:	20000004 	.word	0x20000004
     dbc:	00005ab5 	.word	0x00005ab5
     dc0:	00005ac3 	.word	0x00005ac3
     dc4:	00000e35 	.word	0x00000e35
     dc8:	00006278 	.word	0x00006278
     dcc:	00005ae5 	.word	0x00005ae5
     dd0:	000062d0 	.word	0x000062d0

00000dd4 <prvHelpCommand>:
	return pcReturn;
}
/*-----------------------------------------------------------*/

static BaseType_t prvHelpCommand( char *pcWriteBuffer, size_t xWriteBufferLen, const char *pcCommandString )
{
     dd4:	b580      	push	{r7, lr}
     dd6:	b086      	sub	sp, #24
     dd8:	af00      	add	r7, sp, #0
     dda:	60f8      	str	r0, [r7, #12]
     ddc:	60b9      	str	r1, [r7, #8]
     dde:	607a      	str	r2, [r7, #4]
static const CLI_Definition_List_Item_t * pxCommand = NULL;
BaseType_t xReturn;

	( void ) pcCommandString;

	if( pxCommand == NULL )
     de0:	4b11      	ldr	r3, [pc, #68]	; (e28 <prvHelpCommand+0x54>)
     de2:	681b      	ldr	r3, [r3, #0]
     de4:	2b00      	cmp	r3, #0
     de6:	d102      	bne.n	dee <prvHelpCommand+0x1a>
	{
		/* Reset the pxCommand pointer back to the start of the list. */
		pxCommand = &xRegisteredCommands;
     de8:	4b0f      	ldr	r3, [pc, #60]	; (e28 <prvHelpCommand+0x54>)
     dea:	4a10      	ldr	r2, [pc, #64]	; (e2c <prvHelpCommand+0x58>)
     dec:	601a      	str	r2, [r3, #0]
	}

	/* Return the next command help string, before moving the pointer on to
	the next command in the list. */
	strncpy( pcWriteBuffer, pxCommand->pxCommandLineDefinition->pcHelpString, xWriteBufferLen );
     dee:	4b0e      	ldr	r3, [pc, #56]	; (e28 <prvHelpCommand+0x54>)
     df0:	681b      	ldr	r3, [r3, #0]
     df2:	681b      	ldr	r3, [r3, #0]
     df4:	6859      	ldr	r1, [r3, #4]
     df6:	68ba      	ldr	r2, [r7, #8]
     df8:	68fb      	ldr	r3, [r7, #12]
     dfa:	0018      	movs	r0, r3
     dfc:	4b0c      	ldr	r3, [pc, #48]	; (e30 <prvHelpCommand+0x5c>)
     dfe:	4798      	blx	r3
	pxCommand = pxCommand->pxNext;
     e00:	4b09      	ldr	r3, [pc, #36]	; (e28 <prvHelpCommand+0x54>)
     e02:	681b      	ldr	r3, [r3, #0]
     e04:	685a      	ldr	r2, [r3, #4]
     e06:	4b08      	ldr	r3, [pc, #32]	; (e28 <prvHelpCommand+0x54>)
     e08:	601a      	str	r2, [r3, #0]

	if( pxCommand == NULL )
     e0a:	4b07      	ldr	r3, [pc, #28]	; (e28 <prvHelpCommand+0x54>)
     e0c:	681b      	ldr	r3, [r3, #0]
     e0e:	2b00      	cmp	r3, #0
     e10:	d102      	bne.n	e18 <prvHelpCommand+0x44>
	{
		/* There are no more commands in the list, so there will be no more
		strings to return after this one and pdFALSE should be returned. */
		xReturn = pdFALSE;
     e12:	2300      	movs	r3, #0
     e14:	617b      	str	r3, [r7, #20]
     e16:	e001      	b.n	e1c <prvHelpCommand+0x48>
	}
	else
	{
		xReturn = pdTRUE;
     e18:	2301      	movs	r3, #1
     e1a:	617b      	str	r3, [r7, #20]
	}

	return xReturn;
     e1c:	697b      	ldr	r3, [r7, #20]
}
     e1e:	0018      	movs	r0, r3
     e20:	46bd      	mov	sp, r7
     e22:	b006      	add	sp, #24
     e24:	bd80      	pop	{r7, pc}
     e26:	46c0      	nop			; (mov r8, r8)
     e28:	20000214 	.word	0x20000214
     e2c:	20000004 	.word	0x20000004
     e30:	00005ae5 	.word	0x00005ae5

00000e34 <prvGetNumberOfParameters>:
/*-----------------------------------------------------------*/

static int8_t prvGetNumberOfParameters( const char *pcCommandString )
{
     e34:	b580      	push	{r7, lr}
     e36:	b084      	sub	sp, #16
     e38:	af00      	add	r7, sp, #0
     e3a:	6078      	str	r0, [r7, #4]
int8_t cParameters = 0;
     e3c:	230f      	movs	r3, #15
     e3e:	18fb      	adds	r3, r7, r3
     e40:	2200      	movs	r2, #0
     e42:	701a      	strb	r2, [r3, #0]
BaseType_t xLastCharacterWasSpace = pdFALSE;
     e44:	2300      	movs	r3, #0
     e46:	60bb      	str	r3, [r7, #8]

	/* Count the number of space delimited words in pcCommandString. */
	while( *pcCommandString != 0x00 )
     e48:	e018      	b.n	e7c <prvGetNumberOfParameters+0x48>
	{
		if( ( *pcCommandString ) == ' ' )
     e4a:	687b      	ldr	r3, [r7, #4]
     e4c:	781b      	ldrb	r3, [r3, #0]
     e4e:	2b20      	cmp	r3, #32
     e50:	d10f      	bne.n	e72 <prvGetNumberOfParameters+0x3e>
		{
			if( xLastCharacterWasSpace != pdTRUE )
     e52:	68bb      	ldr	r3, [r7, #8]
     e54:	2b01      	cmp	r3, #1
     e56:	d00e      	beq.n	e76 <prvGetNumberOfParameters+0x42>
			{
				cParameters++;
     e58:	230f      	movs	r3, #15
     e5a:	18fb      	adds	r3, r7, r3
     e5c:	781b      	ldrb	r3, [r3, #0]
     e5e:	b25b      	sxtb	r3, r3
     e60:	b2db      	uxtb	r3, r3
     e62:	3301      	adds	r3, #1
     e64:	b2da      	uxtb	r2, r3
     e66:	230f      	movs	r3, #15
     e68:	18fb      	adds	r3, r7, r3
     e6a:	701a      	strb	r2, [r3, #0]
				xLastCharacterWasSpace = pdTRUE;
     e6c:	2301      	movs	r3, #1
     e6e:	60bb      	str	r3, [r7, #8]
     e70:	e001      	b.n	e76 <prvGetNumberOfParameters+0x42>
			}
		}
		else
		{
			xLastCharacterWasSpace = pdFALSE;
     e72:	2300      	movs	r3, #0
     e74:	60bb      	str	r3, [r7, #8]
		}

		pcCommandString++;
     e76:	687b      	ldr	r3, [r7, #4]
     e78:	3301      	adds	r3, #1
     e7a:	607b      	str	r3, [r7, #4]
	while( *pcCommandString != 0x00 )
     e7c:	687b      	ldr	r3, [r7, #4]
     e7e:	781b      	ldrb	r3, [r3, #0]
     e80:	2b00      	cmp	r3, #0
     e82:	d1e2      	bne.n	e4a <prvGetNumberOfParameters+0x16>
	}

	/* If the command string ended with spaces, then there will have been too
	many parameters counted. */
	if( xLastCharacterWasSpace == pdTRUE )
     e84:	68bb      	ldr	r3, [r7, #8]
     e86:	2b01      	cmp	r3, #1
     e88:	d109      	bne.n	e9e <prvGetNumberOfParameters+0x6a>
	{
		cParameters--;
     e8a:	230f      	movs	r3, #15
     e8c:	18fb      	adds	r3, r7, r3
     e8e:	781b      	ldrb	r3, [r3, #0]
     e90:	b25b      	sxtb	r3, r3
     e92:	b2db      	uxtb	r3, r3
     e94:	3b01      	subs	r3, #1
     e96:	b2da      	uxtb	r2, r3
     e98:	230f      	movs	r3, #15
     e9a:	18fb      	adds	r3, r7, r3
     e9c:	701a      	strb	r2, [r3, #0]
	}

	/* The value returned is one less than the number of space delimited words,
	as the first word should be the command itself. */
	return cParameters;
     e9e:	230f      	movs	r3, #15
     ea0:	18fb      	adds	r3, r7, r3
     ea2:	781b      	ldrb	r3, [r3, #0]
     ea4:	b25b      	sxtb	r3, r3
}
     ea6:	0018      	movs	r0, r3
     ea8:	46bd      	mov	sp, r7
     eaa:	b004      	add	sp, #16
     eac:	bd80      	pop	{r7, pc}

00000eae <vListInitialise>:
/*-----------------------------------------------------------
 * PUBLIC LIST API documented in list.h
 *----------------------------------------------------------*/

void vListInitialise( List_t * const pxList )
{
     eae:	b580      	push	{r7, lr}
     eb0:	b082      	sub	sp, #8
     eb2:	af00      	add	r7, sp, #0
     eb4:	6078      	str	r0, [r7, #4]
	/* The list structure contains a list item which is used to mark the
	end of the list.  To initialise the list the list end is inserted
	as the only list entry. */
	pxList->pxIndex = ( ListItem_t * ) &( pxList->xListEnd );			/*lint !e826 !e740 The mini list structure is used as the list end to save RAM.  This is checked and valid. */
     eb6:	687b      	ldr	r3, [r7, #4]
     eb8:	3308      	adds	r3, #8
     eba:	001a      	movs	r2, r3
     ebc:	687b      	ldr	r3, [r7, #4]
     ebe:	605a      	str	r2, [r3, #4]

	/* The list end value is the highest possible value in the list to
	ensure it remains at the end of the list. */
	pxList->xListEnd.xItemValue = portMAX_DELAY;
     ec0:	687b      	ldr	r3, [r7, #4]
     ec2:	2201      	movs	r2, #1
     ec4:	4252      	negs	r2, r2
     ec6:	609a      	str	r2, [r3, #8]

	/* The list end next and previous pointers point to itself so we know
	when the list is empty. */
	pxList->xListEnd.pxNext = ( ListItem_t * ) &( pxList->xListEnd );	/*lint !e826 !e740 The mini list structure is used as the list end to save RAM.  This is checked and valid. */
     ec8:	687b      	ldr	r3, [r7, #4]
     eca:	3308      	adds	r3, #8
     ecc:	001a      	movs	r2, r3
     ece:	687b      	ldr	r3, [r7, #4]
     ed0:	60da      	str	r2, [r3, #12]
	pxList->xListEnd.pxPrevious = ( ListItem_t * ) &( pxList->xListEnd );/*lint !e826 !e740 The mini list structure is used as the list end to save RAM.  This is checked and valid. */
     ed2:	687b      	ldr	r3, [r7, #4]
     ed4:	3308      	adds	r3, #8
     ed6:	001a      	movs	r2, r3
     ed8:	687b      	ldr	r3, [r7, #4]
     eda:	611a      	str	r2, [r3, #16]

	pxList->uxNumberOfItems = ( UBaseType_t ) 0U;
     edc:	687b      	ldr	r3, [r7, #4]
     ede:	2200      	movs	r2, #0
     ee0:	601a      	str	r2, [r3, #0]

	/* Write known values into the list if
	configUSE_LIST_DATA_INTEGRITY_CHECK_BYTES is set to 1. */
	listSET_LIST_INTEGRITY_CHECK_1_VALUE( pxList );
	listSET_LIST_INTEGRITY_CHECK_2_VALUE( pxList );
}
     ee2:	46c0      	nop			; (mov r8, r8)
     ee4:	46bd      	mov	sp, r7
     ee6:	b002      	add	sp, #8
     ee8:	bd80      	pop	{r7, pc}

00000eea <vListInitialiseItem>:
/*-----------------------------------------------------------*/

void vListInitialiseItem( ListItem_t * const pxItem )
{
     eea:	b580      	push	{r7, lr}
     eec:	b082      	sub	sp, #8
     eee:	af00      	add	r7, sp, #0
     ef0:	6078      	str	r0, [r7, #4]
	/* Make sure the list item is not recorded as being on a list. */
	pxItem->pvContainer = NULL;
     ef2:	687b      	ldr	r3, [r7, #4]
     ef4:	2200      	movs	r2, #0
     ef6:	611a      	str	r2, [r3, #16]

	/* Write known values into the list item if
	configUSE_LIST_DATA_INTEGRITY_CHECK_BYTES is set to 1. */
	listSET_FIRST_LIST_ITEM_INTEGRITY_CHECK_VALUE( pxItem );
	listSET_SECOND_LIST_ITEM_INTEGRITY_CHECK_VALUE( pxItem );
}
     ef8:	46c0      	nop			; (mov r8, r8)
     efa:	46bd      	mov	sp, r7
     efc:	b002      	add	sp, #8
     efe:	bd80      	pop	{r7, pc}

00000f00 <vListInsertEnd>:
/*-----------------------------------------------------------*/

void vListInsertEnd( List_t * const pxList, ListItem_t * const pxNewListItem )
{
     f00:	b580      	push	{r7, lr}
     f02:	b084      	sub	sp, #16
     f04:	af00      	add	r7, sp, #0
     f06:	6078      	str	r0, [r7, #4]
     f08:	6039      	str	r1, [r7, #0]
ListItem_t * const pxIndex = pxList->pxIndex;
     f0a:	687b      	ldr	r3, [r7, #4]
     f0c:	685b      	ldr	r3, [r3, #4]
     f0e:	60fb      	str	r3, [r7, #12]
	listTEST_LIST_ITEM_INTEGRITY( pxNewListItem );

	/* Insert a new list item into pxList, but rather than sort the list,
	makes the new list item the last item to be removed by a call to
	listGET_OWNER_OF_NEXT_ENTRY(). */
	pxNewListItem->pxNext = pxIndex;
     f10:	683b      	ldr	r3, [r7, #0]
     f12:	68fa      	ldr	r2, [r7, #12]
     f14:	605a      	str	r2, [r3, #4]
	pxNewListItem->pxPrevious = pxIndex->pxPrevious;
     f16:	68fb      	ldr	r3, [r7, #12]
     f18:	689a      	ldr	r2, [r3, #8]
     f1a:	683b      	ldr	r3, [r7, #0]
     f1c:	609a      	str	r2, [r3, #8]

	/* Only used during decision coverage testing. */
	mtCOVERAGE_TEST_DELAY();

	pxIndex->pxPrevious->pxNext = pxNewListItem;
     f1e:	68fb      	ldr	r3, [r7, #12]
     f20:	689b      	ldr	r3, [r3, #8]
     f22:	683a      	ldr	r2, [r7, #0]
     f24:	605a      	str	r2, [r3, #4]
	pxIndex->pxPrevious = pxNewListItem;
     f26:	68fb      	ldr	r3, [r7, #12]
     f28:	683a      	ldr	r2, [r7, #0]
     f2a:	609a      	str	r2, [r3, #8]

	/* Remember which list the item is in. */
	pxNewListItem->pvContainer = ( void * ) pxList;
     f2c:	683b      	ldr	r3, [r7, #0]
     f2e:	687a      	ldr	r2, [r7, #4]
     f30:	611a      	str	r2, [r3, #16]

	( pxList->uxNumberOfItems )++;
     f32:	687b      	ldr	r3, [r7, #4]
     f34:	681b      	ldr	r3, [r3, #0]
     f36:	1c5a      	adds	r2, r3, #1
     f38:	687b      	ldr	r3, [r7, #4]
     f3a:	601a      	str	r2, [r3, #0]
}
     f3c:	46c0      	nop			; (mov r8, r8)
     f3e:	46bd      	mov	sp, r7
     f40:	b004      	add	sp, #16
     f42:	bd80      	pop	{r7, pc}

00000f44 <vListInsert>:
/*-----------------------------------------------------------*/

void vListInsert( List_t * const pxList, ListItem_t * const pxNewListItem )
{
     f44:	b580      	push	{r7, lr}
     f46:	b084      	sub	sp, #16
     f48:	af00      	add	r7, sp, #0
     f4a:	6078      	str	r0, [r7, #4]
     f4c:	6039      	str	r1, [r7, #0]
ListItem_t *pxIterator;
const TickType_t xValueOfInsertion = pxNewListItem->xItemValue;
     f4e:	683b      	ldr	r3, [r7, #0]
     f50:	681b      	ldr	r3, [r3, #0]
     f52:	60bb      	str	r3, [r7, #8]
	new list item should be placed after it.  This ensures that TCB's which are
	stored in ready lists (all of which have the same xItemValue value) get a
	share of the CPU.  However, if the xItemValue is the same as the back marker
	the iteration loop below will not end.  Therefore the value is checked
	first, and the algorithm slightly modified if necessary. */
	if( xValueOfInsertion == portMAX_DELAY )
     f54:	68bb      	ldr	r3, [r7, #8]
     f56:	3301      	adds	r3, #1
     f58:	d103      	bne.n	f62 <vListInsert+0x1e>
	{
		pxIterator = pxList->xListEnd.pxPrevious;
     f5a:	687b      	ldr	r3, [r7, #4]
     f5c:	691b      	ldr	r3, [r3, #16]
     f5e:	60fb      	str	r3, [r7, #12]
     f60:	e00c      	b.n	f7c <vListInsert+0x38>
			4) Using a queue or semaphore before it has been initialised or
			   before the scheduler has been started (are interrupts firing
			   before vTaskStartScheduler() has been called?).
		**********************************************************************/

		for( pxIterator = ( ListItem_t * ) &( pxList->xListEnd ); pxIterator->pxNext->xItemValue <= xValueOfInsertion; pxIterator = pxIterator->pxNext ) /*lint !e826 !e740 The mini list structure is used as the list end to save RAM.  This is checked and valid. */
     f62:	687b      	ldr	r3, [r7, #4]
     f64:	3308      	adds	r3, #8
     f66:	60fb      	str	r3, [r7, #12]
     f68:	e002      	b.n	f70 <vListInsert+0x2c>
     f6a:	68fb      	ldr	r3, [r7, #12]
     f6c:	685b      	ldr	r3, [r3, #4]
     f6e:	60fb      	str	r3, [r7, #12]
     f70:	68fb      	ldr	r3, [r7, #12]
     f72:	685b      	ldr	r3, [r3, #4]
     f74:	681a      	ldr	r2, [r3, #0]
     f76:	68bb      	ldr	r3, [r7, #8]
     f78:	429a      	cmp	r2, r3
     f7a:	d9f6      	bls.n	f6a <vListInsert+0x26>
			/* There is nothing to do here, just iterating to the wanted
			insertion position. */
		}
	}

	pxNewListItem->pxNext = pxIterator->pxNext;
     f7c:	68fb      	ldr	r3, [r7, #12]
     f7e:	685a      	ldr	r2, [r3, #4]
     f80:	683b      	ldr	r3, [r7, #0]
     f82:	605a      	str	r2, [r3, #4]
	pxNewListItem->pxNext->pxPrevious = pxNewListItem;
     f84:	683b      	ldr	r3, [r7, #0]
     f86:	685b      	ldr	r3, [r3, #4]
     f88:	683a      	ldr	r2, [r7, #0]
     f8a:	609a      	str	r2, [r3, #8]
	pxNewListItem->pxPrevious = pxIterator;
     f8c:	683b      	ldr	r3, [r7, #0]
     f8e:	68fa      	ldr	r2, [r7, #12]
     f90:	609a      	str	r2, [r3, #8]
	pxIterator->pxNext = pxNewListItem;
     f92:	68fb      	ldr	r3, [r7, #12]
     f94:	683a      	ldr	r2, [r7, #0]
     f96:	605a      	str	r2, [r3, #4]

	/* Remember which list the item is in.  This allows fast removal of the
	item later. */
	pxNewListItem->pvContainer = ( void * ) pxList;
     f98:	683b      	ldr	r3, [r7, #0]
     f9a:	687a      	ldr	r2, [r7, #4]
     f9c:	611a      	str	r2, [r3, #16]

	( pxList->uxNumberOfItems )++;
     f9e:	687b      	ldr	r3, [r7, #4]
     fa0:	681b      	ldr	r3, [r3, #0]
     fa2:	1c5a      	adds	r2, r3, #1
     fa4:	687b      	ldr	r3, [r7, #4]
     fa6:	601a      	str	r2, [r3, #0]
}
     fa8:	46c0      	nop			; (mov r8, r8)
     faa:	46bd      	mov	sp, r7
     fac:	b004      	add	sp, #16
     fae:	bd80      	pop	{r7, pc}

00000fb0 <uxListRemove>:
/*-----------------------------------------------------------*/

UBaseType_t uxListRemove( ListItem_t * const pxItemToRemove )
{
     fb0:	b580      	push	{r7, lr}
     fb2:	b084      	sub	sp, #16
     fb4:	af00      	add	r7, sp, #0
     fb6:	6078      	str	r0, [r7, #4]
/* The list item knows which list it is in.  Obtain the list from the list
item. */
List_t * const pxList = ( List_t * ) pxItemToRemove->pvContainer;
     fb8:	687b      	ldr	r3, [r7, #4]
     fba:	691b      	ldr	r3, [r3, #16]
     fbc:	60fb      	str	r3, [r7, #12]

	pxItemToRemove->pxNext->pxPrevious = pxItemToRemove->pxPrevious;
     fbe:	687b      	ldr	r3, [r7, #4]
     fc0:	685b      	ldr	r3, [r3, #4]
     fc2:	687a      	ldr	r2, [r7, #4]
     fc4:	6892      	ldr	r2, [r2, #8]
     fc6:	609a      	str	r2, [r3, #8]
	pxItemToRemove->pxPrevious->pxNext = pxItemToRemove->pxNext;
     fc8:	687b      	ldr	r3, [r7, #4]
     fca:	689b      	ldr	r3, [r3, #8]
     fcc:	687a      	ldr	r2, [r7, #4]
     fce:	6852      	ldr	r2, [r2, #4]
     fd0:	605a      	str	r2, [r3, #4]

	/* Only used during decision coverage testing. */
	mtCOVERAGE_TEST_DELAY();

	/* Make sure the index is left pointing to a valid item. */
	if( pxList->pxIndex == pxItemToRemove )
     fd2:	68fb      	ldr	r3, [r7, #12]
     fd4:	685a      	ldr	r2, [r3, #4]
     fd6:	687b      	ldr	r3, [r7, #4]
     fd8:	429a      	cmp	r2, r3
     fda:	d103      	bne.n	fe4 <uxListRemove+0x34>
	{
		pxList->pxIndex = pxItemToRemove->pxPrevious;
     fdc:	687b      	ldr	r3, [r7, #4]
     fde:	689a      	ldr	r2, [r3, #8]
     fe0:	68fb      	ldr	r3, [r7, #12]
     fe2:	605a      	str	r2, [r3, #4]
	else
	{
		mtCOVERAGE_TEST_MARKER();
	}

	pxItemToRemove->pvContainer = NULL;
     fe4:	687b      	ldr	r3, [r7, #4]
     fe6:	2200      	movs	r2, #0
     fe8:	611a      	str	r2, [r3, #16]
	( pxList->uxNumberOfItems )--;
     fea:	68fb      	ldr	r3, [r7, #12]
     fec:	681b      	ldr	r3, [r3, #0]
     fee:	1e5a      	subs	r2, r3, #1
     ff0:	68fb      	ldr	r3, [r7, #12]
     ff2:	601a      	str	r2, [r3, #0]

	return pxList->uxNumberOfItems;
     ff4:	68fb      	ldr	r3, [r7, #12]
     ff6:	681b      	ldr	r3, [r3, #0]
}
     ff8:	0018      	movs	r0, r3
     ffa:	46bd      	mov	sp, r7
     ffc:	b004      	add	sp, #16
     ffe:	bd80      	pop	{r7, pc}

00001000 <pxPortInitialiseStack>:

/*
 * See header file for description.
 */
StackType_t *pxPortInitialiseStack( StackType_t *pxTopOfStack, TaskFunction_t pxCode, void *pvParameters )
{
    1000:	b580      	push	{r7, lr}
    1002:	b084      	sub	sp, #16
    1004:	af00      	add	r7, sp, #0
    1006:	60f8      	str	r0, [r7, #12]
    1008:	60b9      	str	r1, [r7, #8]
    100a:	607a      	str	r2, [r7, #4]
	/* Simulate the stack frame as it would be created by a context switch
	interrupt. */
	pxTopOfStack--; /* Offset added to account for the way the MCU uses the stack on entry/exit of interrupts. */
    100c:	68fb      	ldr	r3, [r7, #12]
    100e:	3b04      	subs	r3, #4
    1010:	60fb      	str	r3, [r7, #12]
	*pxTopOfStack = portINITIAL_XPSR;	/* xPSR */
    1012:	68fb      	ldr	r3, [r7, #12]
    1014:	2280      	movs	r2, #128	; 0x80
    1016:	0452      	lsls	r2, r2, #17
    1018:	601a      	str	r2, [r3, #0]
	pxTopOfStack--;
    101a:	68fb      	ldr	r3, [r7, #12]
    101c:	3b04      	subs	r3, #4
    101e:	60fb      	str	r3, [r7, #12]
	*pxTopOfStack = ( StackType_t ) pxCode;	/* PC */
    1020:	68ba      	ldr	r2, [r7, #8]
    1022:	68fb      	ldr	r3, [r7, #12]
    1024:	601a      	str	r2, [r3, #0]
	pxTopOfStack--;
    1026:	68fb      	ldr	r3, [r7, #12]
    1028:	3b04      	subs	r3, #4
    102a:	60fb      	str	r3, [r7, #12]
	*pxTopOfStack = ( StackType_t ) portTASK_RETURN_ADDRESS;	/* LR */
    102c:	4a08      	ldr	r2, [pc, #32]	; (1050 <pxPortInitialiseStack+0x50>)
    102e:	68fb      	ldr	r3, [r7, #12]
    1030:	601a      	str	r2, [r3, #0]
	pxTopOfStack -= 5;	/* R12, R3, R2 and R1. */
    1032:	68fb      	ldr	r3, [r7, #12]
    1034:	3b14      	subs	r3, #20
    1036:	60fb      	str	r3, [r7, #12]
	*pxTopOfStack = ( StackType_t ) pvParameters;	/* R0 */
    1038:	687a      	ldr	r2, [r7, #4]
    103a:	68fb      	ldr	r3, [r7, #12]
    103c:	601a      	str	r2, [r3, #0]
	pxTopOfStack -= 8; /* R11..R4. */
    103e:	68fb      	ldr	r3, [r7, #12]
    1040:	3b20      	subs	r3, #32
    1042:	60fb      	str	r3, [r7, #12]

	return pxTopOfStack;
    1044:	68fb      	ldr	r3, [r7, #12]
}
    1046:	0018      	movs	r0, r3
    1048:	46bd      	mov	sp, r7
    104a:	b004      	add	sp, #16
    104c:	bd80      	pop	{r7, pc}
    104e:	46c0      	nop			; (mov r8, r8)
    1050:	00001055 	.word	0x00001055

00001054 <prvTaskExitError>:
/*-----------------------------------------------------------*/

static void prvTaskExitError( void )
{
    1054:	b580      	push	{r7, lr}
    1056:	b082      	sub	sp, #8
    1058:	af00      	add	r7, sp, #0
volatile uint32_t ulDummy = 0UL;
    105a:	2300      	movs	r3, #0
    105c:	607b      	str	r3, [r7, #4]
	its caller as there is nothing to return to.  If a task wants to exit it
	should instead call vTaskDelete( NULL ).

	Artificially force an assert() to be triggered if configASSERT() is
	defined, then stop here so application writers can catch the error. */
	configASSERT( uxCriticalNesting == ~0UL );
    105e:	4b07      	ldr	r3, [pc, #28]	; (107c <prvTaskExitError+0x28>)
    1060:	681b      	ldr	r3, [r3, #0]
    1062:	3301      	adds	r3, #1
    1064:	d001      	beq.n	106a <prvTaskExitError+0x16>
    1066:	b672      	cpsid	i
    1068:	e7fe      	b.n	1068 <prvTaskExitError+0x14>
	portDISABLE_INTERRUPTS();
    106a:	b672      	cpsid	i
	while( ulDummy == 0 )
    106c:	46c0      	nop			; (mov r8, r8)
    106e:	687b      	ldr	r3, [r7, #4]
    1070:	2b00      	cmp	r3, #0
    1072:	d0fc      	beq.n	106e <prvTaskExitError+0x1a>
		about code appearing after this function is called - making ulDummy
		volatile makes the compiler think the function could return and
		therefore not output an 'unreachable code' warning for code that appears
		after it. */
	}
}
    1074:	46c0      	nop			; (mov r8, r8)
    1076:	46bd      	mov	sp, r7
    1078:	b002      	add	sp, #8
    107a:	bd80      	pop	{r7, pc}
    107c:	20000010 	.word	0x20000010

00001080 <SVC_Handler>:
/*-----------------------------------------------------------*/

void vPortSVCHandler( void )
{
    1080:	b580      	push	{r7, lr}
    1082:	af00      	add	r7, sp, #0
	/* This function is no longer used, but retained for backward
	compatibility. */
}
    1084:	46c0      	nop			; (mov r8, r8)
    1086:	46bd      	mov	sp, r7
    1088:	bd80      	pop	{r7, pc}
    108a:	0000      	movs	r0, r0
    108c:	0000      	movs	r0, r0
	...

00001090 <vPortStartFirstTask>:
void vPortStartFirstTask( void )
{
	/* The MSP stack is not reset as, unlike on M3/4 parts, there is no vector
	table offset register that can be used to locate the initial stack value.
	Not all M0 parts have the application vector table at address 0. */
	__asm volatile(
    1090:	4a0b      	ldr	r2, [pc, #44]	; (10c0 <pxCurrentTCBConst2>)
    1092:	6813      	ldr	r3, [r2, #0]
    1094:	6818      	ldr	r0, [r3, #0]
    1096:	3020      	adds	r0, #32
    1098:	f380 8809 	msr	PSP, r0
    109c:	2002      	movs	r0, #2
    109e:	f380 8814 	msr	CONTROL, r0
    10a2:	f3bf 8f6f 	isb	sy
    10a6:	bc3f      	pop	{r0, r1, r2, r3, r4, r5}
    10a8:	46ae      	mov	lr, r5
    10aa:	bc08      	pop	{r3}
    10ac:	bc04      	pop	{r2}
    10ae:	b662      	cpsie	i
    10b0:	4718      	bx	r3
    10b2:	46c0      	nop			; (mov r8, r8)
    10b4:	46c0      	nop			; (mov r8, r8)
    10b6:	46c0      	nop			; (mov r8, r8)
    10b8:	46c0      	nop			; (mov r8, r8)
    10ba:	46c0      	nop			; (mov r8, r8)
    10bc:	46c0      	nop			; (mov r8, r8)
    10be:	46c0      	nop			; (mov r8, r8)

000010c0 <pxCurrentTCBConst2>:
    10c0:	20003100 	.word	0x20003100
	"	bx   r3						\n" /* Finally, jump to the user defined task code. */
	"								\n"
	"	.align 4					\n"
	"pxCurrentTCBConst2: .word pxCurrentTCB	  "
				  );
}
    10c4:	46c0      	nop			; (mov r8, r8)
    10c6:	46c0      	nop			; (mov r8, r8)

000010c8 <xPortStartScheduler>:

/*
 * See header file for description.
 */
BaseType_t xPortStartScheduler( void )
{
    10c8:	b580      	push	{r7, lr}
    10ca:	af00      	add	r7, sp, #0
	/* Make PendSV, CallSV and SysTick the same priroity as the kernel. */
	*(portNVIC_SYSPRI2) |= portNVIC_PENDSV_PRI;
    10cc:	4b0e      	ldr	r3, [pc, #56]	; (1108 <xPortStartScheduler+0x40>)
    10ce:	4a0e      	ldr	r2, [pc, #56]	; (1108 <xPortStartScheduler+0x40>)
    10d0:	6812      	ldr	r2, [r2, #0]
    10d2:	21ff      	movs	r1, #255	; 0xff
    10d4:	0409      	lsls	r1, r1, #16
    10d6:	430a      	orrs	r2, r1
    10d8:	601a      	str	r2, [r3, #0]
	*(portNVIC_SYSPRI2) |= portNVIC_SYSTICK_PRI;
    10da:	4b0b      	ldr	r3, [pc, #44]	; (1108 <xPortStartScheduler+0x40>)
    10dc:	4a0a      	ldr	r2, [pc, #40]	; (1108 <xPortStartScheduler+0x40>)
    10de:	6812      	ldr	r2, [r2, #0]
    10e0:	21ff      	movs	r1, #255	; 0xff
    10e2:	0609      	lsls	r1, r1, #24
    10e4:	430a      	orrs	r2, r1
    10e6:	601a      	str	r2, [r3, #0]

	/* Start the timer that generates the tick ISR.  Interrupts are disabled
	here already. */
	prvSetupTimerInterrupt();
    10e8:	4b08      	ldr	r3, [pc, #32]	; (110c <xPortStartScheduler+0x44>)
    10ea:	4798      	blx	r3

	/* Initialise the critical nesting count ready for the first task. */
	uxCriticalNesting = 0;
    10ec:	4b08      	ldr	r3, [pc, #32]	; (1110 <xPortStartScheduler+0x48>)
    10ee:	2200      	movs	r2, #0
    10f0:	601a      	str	r2, [r3, #0]

	/* Start the first task. */
	vPortStartFirstTask();
    10f2:	4b08      	ldr	r3, [pc, #32]	; (1114 <xPortStartScheduler+0x4c>)
    10f4:	4798      	blx	r3
	exit error function to prevent compiler warnings about a static function
	not being called in the case that the application writer overrides this
	functionality by defining configTASK_RETURN_ADDRESS.  Call
	vTaskSwitchContext() so link time optimisation does not remove the
	symbol. */
	vTaskSwitchContext();
    10f6:	4b08      	ldr	r3, [pc, #32]	; (1118 <xPortStartScheduler+0x50>)
    10f8:	4798      	blx	r3
	prvTaskExitError();
    10fa:	4b08      	ldr	r3, [pc, #32]	; (111c <xPortStartScheduler+0x54>)
    10fc:	4798      	blx	r3

	/* Should not get here! */
	return 0;
    10fe:	2300      	movs	r3, #0
}
    1100:	0018      	movs	r0, r3
    1102:	46bd      	mov	sp, r7
    1104:	bd80      	pop	{r7, pc}
    1106:	46c0      	nop			; (mov r8, r8)
    1108:	e000ed20 	.word	0xe000ed20
    110c:	00001239 	.word	0x00001239
    1110:	20000010 	.word	0x20000010
    1114:	00001091 	.word	0x00001091
    1118:	00002535 	.word	0x00002535
    111c:	00001055 	.word	0x00001055

00001120 <vPortYield>:
	configASSERT( uxCriticalNesting == 1000UL );
}
/*-----------------------------------------------------------*/

void vPortYield( void )
{
    1120:	b580      	push	{r7, lr}
    1122:	af00      	add	r7, sp, #0
	/* Set a PendSV to request a context switch. */
	*( portNVIC_INT_CTRL ) = portNVIC_PENDSVSET;
    1124:	4b05      	ldr	r3, [pc, #20]	; (113c <vPortYield+0x1c>)
    1126:	2280      	movs	r2, #128	; 0x80
    1128:	0552      	lsls	r2, r2, #21
    112a:	601a      	str	r2, [r3, #0]

	/* Barriers are normally not required but do ensure the code is completely
	within the specified behaviour for the architecture. */
	__asm volatile( "dsb" ::: "memory" );
    112c:	f3bf 8f4f 	dsb	sy
	__asm volatile( "isb" );
    1130:	f3bf 8f6f 	isb	sy
}
    1134:	46c0      	nop			; (mov r8, r8)
    1136:	46bd      	mov	sp, r7
    1138:	bd80      	pop	{r7, pc}
    113a:	46c0      	nop			; (mov r8, r8)
    113c:	e000ed04 	.word	0xe000ed04

00001140 <vPortEnterCritical>:
/*-----------------------------------------------------------*/

void vPortEnterCritical( void )
{
    1140:	b580      	push	{r7, lr}
    1142:	af00      	add	r7, sp, #0
    portDISABLE_INTERRUPTS();
    1144:	b672      	cpsid	i
    uxCriticalNesting++;
    1146:	4b06      	ldr	r3, [pc, #24]	; (1160 <vPortEnterCritical+0x20>)
    1148:	681b      	ldr	r3, [r3, #0]
    114a:	1c5a      	adds	r2, r3, #1
    114c:	4b04      	ldr	r3, [pc, #16]	; (1160 <vPortEnterCritical+0x20>)
    114e:	601a      	str	r2, [r3, #0]
	__asm volatile( "dsb" ::: "memory" );
    1150:	f3bf 8f4f 	dsb	sy
	__asm volatile( "isb" );
    1154:	f3bf 8f6f 	isb	sy
}
    1158:	46c0      	nop			; (mov r8, r8)
    115a:	46bd      	mov	sp, r7
    115c:	bd80      	pop	{r7, pc}
    115e:	46c0      	nop			; (mov r8, r8)
    1160:	20000010 	.word	0x20000010

00001164 <vPortExitCritical>:
/*-----------------------------------------------------------*/

void vPortExitCritical( void )
{
    1164:	b580      	push	{r7, lr}
    1166:	af00      	add	r7, sp, #0
	configASSERT( uxCriticalNesting );
    1168:	4b09      	ldr	r3, [pc, #36]	; (1190 <vPortExitCritical+0x2c>)
    116a:	681b      	ldr	r3, [r3, #0]
    116c:	2b00      	cmp	r3, #0
    116e:	d101      	bne.n	1174 <vPortExitCritical+0x10>
    1170:	b672      	cpsid	i
    1172:	e7fe      	b.n	1172 <vPortExitCritical+0xe>
    uxCriticalNesting--;
    1174:	4b06      	ldr	r3, [pc, #24]	; (1190 <vPortExitCritical+0x2c>)
    1176:	681b      	ldr	r3, [r3, #0]
    1178:	1e5a      	subs	r2, r3, #1
    117a:	4b05      	ldr	r3, [pc, #20]	; (1190 <vPortExitCritical+0x2c>)
    117c:	601a      	str	r2, [r3, #0]
    if( uxCriticalNesting == 0 )
    117e:	4b04      	ldr	r3, [pc, #16]	; (1190 <vPortExitCritical+0x2c>)
    1180:	681b      	ldr	r3, [r3, #0]
    1182:	2b00      	cmp	r3, #0
    1184:	d100      	bne.n	1188 <vPortExitCritical+0x24>
    {
        portENABLE_INTERRUPTS();
    1186:	b662      	cpsie	i
    }
}
    1188:	46c0      	nop			; (mov r8, r8)
    118a:	46bd      	mov	sp, r7
    118c:	bd80      	pop	{r7, pc}
    118e:	46c0      	nop			; (mov r8, r8)
    1190:	20000010 	.word	0x20000010

00001194 <ulSetInterruptMaskFromISR>:
/*-----------------------------------------------------------*/

uint32_t ulSetInterruptMaskFromISR( void )
{
	__asm volatile(
    1194:	f3ef 8010 	mrs	r0, PRIMASK
    1198:	b672      	cpsid	i
    119a:	4770      	bx	lr
	/* To avoid compiler warnings.  The return statement will nevere be reached,
	but some compilers warn if it is not included, while others won't compile if
	it is. */
	return 0;
#endif
}
    119c:	46c0      	nop			; (mov r8, r8)
    119e:	0018      	movs	r0, r3

000011a0 <vClearInterruptMaskFromISR>:
/*-----------------------------------------------------------*/

void vClearInterruptMaskFromISR( __attribute__( ( unused ) ) uint32_t ulMask )
{
	__asm volatile(
    11a0:	f380 8810 	msr	PRIMASK, r0
    11a4:	4770      	bx	lr
	/* Just to avoid compiler warning.  ulMask is used from the asm code but
	the compiler can't see that.  Some compilers generate warnings without the
	following line, while others generate warnings if the line is included. */
	( void ) ulMask;
#endif
}
    11a6:	46c0      	nop			; (mov r8, r8)
	...

000011b0 <PendSV_Handler>:

void xPortPendSVHandler( void )
{
	/* This is a naked function. */

	__asm volatile
    11b0:	f3ef 8009 	mrs	r0, PSP
    11b4:	4b0e      	ldr	r3, [pc, #56]	; (11f0 <pxCurrentTCBConst>)
    11b6:	681a      	ldr	r2, [r3, #0]
    11b8:	3820      	subs	r0, #32
    11ba:	6010      	str	r0, [r2, #0]
    11bc:	c0f0      	stmia	r0!, {r4, r5, r6, r7}
    11be:	4644      	mov	r4, r8
    11c0:	464d      	mov	r5, r9
    11c2:	4656      	mov	r6, sl
    11c4:	465f      	mov	r7, fp
    11c6:	c0f0      	stmia	r0!, {r4, r5, r6, r7}
    11c8:	b508      	push	{r3, lr}
    11ca:	b672      	cpsid	i
    11cc:	f001 f9b2 	bl	2534 <vTaskSwitchContext>
    11d0:	b662      	cpsie	i
    11d2:	bc0c      	pop	{r2, r3}
    11d4:	6811      	ldr	r1, [r2, #0]
    11d6:	6808      	ldr	r0, [r1, #0]
    11d8:	3010      	adds	r0, #16
    11da:	c8f0      	ldmia	r0!, {r4, r5, r6, r7}
    11dc:	46a0      	mov	r8, r4
    11de:	46a9      	mov	r9, r5
    11e0:	46b2      	mov	sl, r6
    11e2:	46bb      	mov	fp, r7
    11e4:	f380 8809 	msr	PSP, r0
    11e8:	3820      	subs	r0, #32
    11ea:	c8f0      	ldmia	r0!, {r4, r5, r6, r7}
    11ec:	4718      	bx	r3
    11ee:	46c0      	nop			; (mov r8, r8)

000011f0 <pxCurrentTCBConst>:
    11f0:	20003100 	.word	0x20003100
	"	bx r3								\n"
	"										\n"
	"	.align 4							\n"
	"pxCurrentTCBConst: .word pxCurrentTCB	  "
	);
}
    11f4:	46c0      	nop			; (mov r8, r8)
    11f6:	46c0      	nop			; (mov r8, r8)

000011f8 <SysTick_Handler>:
/*-----------------------------------------------------------*/

void xPortSysTickHandler( void )
{
    11f8:	b580      	push	{r7, lr}
    11fa:	b082      	sub	sp, #8
    11fc:	af00      	add	r7, sp, #0
uint32_t ulPreviousMask;

	ulPreviousMask = portSET_INTERRUPT_MASK_FROM_ISR();
    11fe:	4b0a      	ldr	r3, [pc, #40]	; (1228 <SysTick_Handler+0x30>)
    1200:	4798      	blx	r3
    1202:	0003      	movs	r3, r0
    1204:	607b      	str	r3, [r7, #4]
	{
		/* Increment the RTOS tick. */
		if( xTaskIncrementTick() != pdFALSE )
    1206:	4b09      	ldr	r3, [pc, #36]	; (122c <SysTick_Handler+0x34>)
    1208:	4798      	blx	r3
    120a:	1e03      	subs	r3, r0, #0
    120c:	d003      	beq.n	1216 <SysTick_Handler+0x1e>
		{
			/* Pend a context switch. */
			*(portNVIC_INT_CTRL) = portNVIC_PENDSVSET;
    120e:	4b08      	ldr	r3, [pc, #32]	; (1230 <SysTick_Handler+0x38>)
    1210:	2280      	movs	r2, #128	; 0x80
    1212:	0552      	lsls	r2, r2, #21
    1214:	601a      	str	r2, [r3, #0]
		}
	}
	portCLEAR_INTERRUPT_MASK_FROM_ISR( ulPreviousMask );
    1216:	687b      	ldr	r3, [r7, #4]
    1218:	0018      	movs	r0, r3
    121a:	4b06      	ldr	r3, [pc, #24]	; (1234 <SysTick_Handler+0x3c>)
    121c:	4798      	blx	r3
}
    121e:	46c0      	nop			; (mov r8, r8)
    1220:	46bd      	mov	sp, r7
    1222:	b002      	add	sp, #8
    1224:	bd80      	pop	{r7, pc}
    1226:	46c0      	nop			; (mov r8, r8)
    1228:	00001195 	.word	0x00001195
    122c:	000023c1 	.word	0x000023c1
    1230:	e000ed04 	.word	0xe000ed04
    1234:	000011a1 	.word	0x000011a1

00001238 <prvSetupTimerInterrupt>:
/*
 * Setup the systick timer to generate the tick interrupts at the required
 * frequency.
 */
void prvSetupTimerInterrupt( void )
{
    1238:	b5b0      	push	{r4, r5, r7, lr}
    123a:	af00      	add	r7, sp, #0
	/* Stop and reset the SysTick. */
	*(portNVIC_SYSTICK_CTRL) = 0UL;
    123c:	4b0b      	ldr	r3, [pc, #44]	; (126c <prvSetupTimerInterrupt+0x34>)
    123e:	2200      	movs	r2, #0
    1240:	601a      	str	r2, [r3, #0]
	*(portNVIC_SYSTICK_CURRENT_VALUE) = 0UL;
    1242:	4b0b      	ldr	r3, [pc, #44]	; (1270 <prvSetupTimerInterrupt+0x38>)
    1244:	2200      	movs	r2, #0
    1246:	601a      	str	r2, [r3, #0]

	/* Configure SysTick to interrupt at the requested rate. */
	*(portNVIC_SYSTICK_LOAD) = ( configCPU_CLOCK_HZ / configTICK_RATE_HZ ) - 1UL;
    1248:	4c0a      	ldr	r4, [pc, #40]	; (1274 <prvSetupTimerInterrupt+0x3c>)
    124a:	2000      	movs	r0, #0
    124c:	4b0a      	ldr	r3, [pc, #40]	; (1278 <prvSetupTimerInterrupt+0x40>)
    124e:	4798      	blx	r3
    1250:	4b0a      	ldr	r3, [pc, #40]	; (127c <prvSetupTimerInterrupt+0x44>)
    1252:	22fa      	movs	r2, #250	; 0xfa
    1254:	0091      	lsls	r1, r2, #2
    1256:	4798      	blx	r3
    1258:	0003      	movs	r3, r0
    125a:	3b01      	subs	r3, #1
    125c:	6023      	str	r3, [r4, #0]
	*(portNVIC_SYSTICK_CTRL) = portNVIC_SYSTICK_CLK | portNVIC_SYSTICK_INT | portNVIC_SYSTICK_ENABLE;
    125e:	4b03      	ldr	r3, [pc, #12]	; (126c <prvSetupTimerInterrupt+0x34>)
    1260:	2207      	movs	r2, #7
    1262:	601a      	str	r2, [r3, #0]
}
    1264:	46c0      	nop			; (mov r8, r8)
    1266:	46bd      	mov	sp, r7
    1268:	bdb0      	pop	{r4, r5, r7, pc}
    126a:	46c0      	nop			; (mov r8, r8)
    126c:	e000e010 	.word	0xe000e010
    1270:	e000e018 	.word	0xe000e018
    1274:	e000e014 	.word	0xe000e014
    1278:	0000523d 	.word	0x0000523d
    127c:	00005671 	.word	0x00005671

00001280 <pvPortMalloc>:
static size_t xNextFreeByte = ( size_t ) 0;

/*-----------------------------------------------------------*/

void *pvPortMalloc( size_t xWantedSize )
{
    1280:	b580      	push	{r7, lr}
    1282:	b084      	sub	sp, #16
    1284:	af00      	add	r7, sp, #0
    1286:	6078      	str	r0, [r7, #4]
void *pvReturn = NULL;
    1288:	2300      	movs	r3, #0
    128a:	60fb      	str	r3, [r7, #12]
static uint8_t *pucAlignedHeap = NULL;

	/* Ensure that blocks are always aligned to the required number of bytes. */
	#if( portBYTE_ALIGNMENT != 1 )
	{
		if( xWantedSize & portBYTE_ALIGNMENT_MASK )
    128c:	687b      	ldr	r3, [r7, #4]
    128e:	2207      	movs	r2, #7
    1290:	4013      	ands	r3, r2
    1292:	d004      	beq.n	129e <pvPortMalloc+0x1e>
		{
			/* Byte alignment required. */
			xWantedSize += ( portBYTE_ALIGNMENT - ( xWantedSize & portBYTE_ALIGNMENT_MASK ) );
    1294:	687b      	ldr	r3, [r7, #4]
    1296:	2207      	movs	r2, #7
    1298:	4393      	bics	r3, r2
    129a:	3308      	adds	r3, #8
    129c:	607b      	str	r3, [r7, #4]
		}
	}
	#endif

	vTaskSuspendAll();
    129e:	4b19      	ldr	r3, [pc, #100]	; (1304 <pvPortMalloc+0x84>)
    12a0:	4798      	blx	r3
	{
		if( pucAlignedHeap == NULL )
    12a2:	4b19      	ldr	r3, [pc, #100]	; (1308 <pvPortMalloc+0x88>)
    12a4:	681b      	ldr	r3, [r3, #0]
    12a6:	2b00      	cmp	r3, #0
    12a8:	d105      	bne.n	12b6 <pvPortMalloc+0x36>
		{
			/* Ensure the heap starts on a correctly aligned boundary. */
			pucAlignedHeap = ( uint8_t * ) ( ( ( portPOINTER_SIZE_TYPE ) &ucHeap[ portBYTE_ALIGNMENT ] ) & ( ~( ( portPOINTER_SIZE_TYPE ) portBYTE_ALIGNMENT_MASK ) ) );
    12aa:	4b18      	ldr	r3, [pc, #96]	; (130c <pvPortMalloc+0x8c>)
    12ac:	2207      	movs	r2, #7
    12ae:	4393      	bics	r3, r2
    12b0:	001a      	movs	r2, r3
    12b2:	4b15      	ldr	r3, [pc, #84]	; (1308 <pvPortMalloc+0x88>)
    12b4:	601a      	str	r2, [r3, #0]
		}

		/* Check there is enough room left for the allocation. */
		if( ( ( xNextFreeByte + xWantedSize ) < configADJUSTED_HEAP_SIZE ) &&
    12b6:	4b16      	ldr	r3, [pc, #88]	; (1310 <pvPortMalloc+0x90>)
    12b8:	681a      	ldr	r2, [r3, #0]
    12ba:	687b      	ldr	r3, [r7, #4]
    12bc:	18d3      	adds	r3, r2, r3
    12be:	4a15      	ldr	r2, [pc, #84]	; (1314 <pvPortMalloc+0x94>)
    12c0:	4293      	cmp	r3, r2
    12c2:	d813      	bhi.n	12ec <pvPortMalloc+0x6c>
			( ( xNextFreeByte + xWantedSize ) > xNextFreeByte )	)/* Check for overflow. */
    12c4:	4b12      	ldr	r3, [pc, #72]	; (1310 <pvPortMalloc+0x90>)
    12c6:	681a      	ldr	r2, [r3, #0]
    12c8:	687b      	ldr	r3, [r7, #4]
    12ca:	18d2      	adds	r2, r2, r3
    12cc:	4b10      	ldr	r3, [pc, #64]	; (1310 <pvPortMalloc+0x90>)
    12ce:	681b      	ldr	r3, [r3, #0]
		if( ( ( xNextFreeByte + xWantedSize ) < configADJUSTED_HEAP_SIZE ) &&
    12d0:	429a      	cmp	r2, r3
    12d2:	d90b      	bls.n	12ec <pvPortMalloc+0x6c>
		{
			/* Return the next free byte then increment the index past this
			block. */
			pvReturn = pucAlignedHeap + xNextFreeByte;
    12d4:	4b0c      	ldr	r3, [pc, #48]	; (1308 <pvPortMalloc+0x88>)
    12d6:	681a      	ldr	r2, [r3, #0]
    12d8:	4b0d      	ldr	r3, [pc, #52]	; (1310 <pvPortMalloc+0x90>)
    12da:	681b      	ldr	r3, [r3, #0]
    12dc:	18d3      	adds	r3, r2, r3
    12de:	60fb      	str	r3, [r7, #12]
			xNextFreeByte += xWantedSize;
    12e0:	4b0b      	ldr	r3, [pc, #44]	; (1310 <pvPortMalloc+0x90>)
    12e2:	681a      	ldr	r2, [r3, #0]
    12e4:	687b      	ldr	r3, [r7, #4]
    12e6:	18d2      	adds	r2, r2, r3
    12e8:	4b09      	ldr	r3, [pc, #36]	; (1310 <pvPortMalloc+0x90>)
    12ea:	601a      	str	r2, [r3, #0]
		}

		traceMALLOC( pvReturn, xWantedSize );
	}
	( void ) xTaskResumeAll();
    12ec:	4b0a      	ldr	r3, [pc, #40]	; (1318 <pvPortMalloc+0x98>)
    12ee:	4798      	blx	r3

	#if( configUSE_MALLOC_FAILED_HOOK == 1 )
	{
		if( pvReturn == NULL )
    12f0:	68fb      	ldr	r3, [r7, #12]
    12f2:	2b00      	cmp	r3, #0
    12f4:	d101      	bne.n	12fa <pvPortMalloc+0x7a>
		{
			extern void vApplicationMallocFailedHook( void );
			vApplicationMallocFailedHook();
    12f6:	4b09      	ldr	r3, [pc, #36]	; (131c <pvPortMalloc+0x9c>)
    12f8:	4798      	blx	r3
		}
	}
	#endif

	return pvReturn;
    12fa:	68fb      	ldr	r3, [r7, #12]
}
    12fc:	0018      	movs	r0, r3
    12fe:	46bd      	mov	sp, r7
    1300:	b004      	add	sp, #16
    1302:	bd80      	pop	{r7, pc}
    1304:	00002259 	.word	0x00002259
    1308:	200030fc 	.word	0x200030fc
    130c:	20000220 	.word	0x20000220
    1310:	200030f8 	.word	0x200030f8
    1314:	00002ed7 	.word	0x00002ed7
    1318:	00002271 	.word	0x00002271
    131c:	00005641 	.word	0x00005641

00001320 <vPortFree>:
/*-----------------------------------------------------------*/

void vPortFree( void *pv )
{
    1320:	b580      	push	{r7, lr}
    1322:	b082      	sub	sp, #8
    1324:	af00      	add	r7, sp, #0
    1326:	6078      	str	r0, [r7, #4]
	heap_4.c for alternative implementations, and the memory management pages of
	http://www.FreeRTOS.org for more information. */
	( void ) pv;

	/* Force an assert as it is invalid to call this function. */
	configASSERT( pv == NULL );
    1328:	687b      	ldr	r3, [r7, #4]
    132a:	2b00      	cmp	r3, #0
    132c:	d001      	beq.n	1332 <vPortFree+0x12>
    132e:	b672      	cpsid	i
    1330:	e7fe      	b.n	1330 <vPortFree+0x10>
}
    1332:	46c0      	nop			; (mov r8, r8)
    1334:	46bd      	mov	sp, r7
    1336:	b002      	add	sp, #8
    1338:	bd80      	pop	{r7, pc}
	...

0000133c <xPortGetFreeHeapSize>:
	xNextFreeByte = ( size_t ) 0;
}
/*-----------------------------------------------------------*/

size_t xPortGetFreeHeapSize( void )
{
    133c:	b580      	push	{r7, lr}
    133e:	af00      	add	r7, sp, #0
	return ( configADJUSTED_HEAP_SIZE - xNextFreeByte );
    1340:	4b03      	ldr	r3, [pc, #12]	; (1350 <xPortGetFreeHeapSize+0x14>)
    1342:	681b      	ldr	r3, [r3, #0]
    1344:	4a03      	ldr	r2, [pc, #12]	; (1354 <xPortGetFreeHeapSize+0x18>)
    1346:	1ad3      	subs	r3, r2, r3
}
    1348:	0018      	movs	r0, r3
    134a:	46bd      	mov	sp, r7
    134c:	bd80      	pop	{r7, pc}
    134e:	46c0      	nop			; (mov r8, r8)
    1350:	200030f8 	.word	0x200030f8
    1354:	00002ed8 	.word	0x00002ed8

00001358 <xQueueGenericReset>:
	}														\
	taskEXIT_CRITICAL()
/*-----------------------------------------------------------*/

BaseType_t xQueueGenericReset( QueueHandle_t xQueue, BaseType_t xNewQueue )
{
    1358:	b580      	push	{r7, lr}
    135a:	b084      	sub	sp, #16
    135c:	af00      	add	r7, sp, #0
    135e:	6078      	str	r0, [r7, #4]
    1360:	6039      	str	r1, [r7, #0]
Queue_t * const pxQueue = ( Queue_t * ) xQueue;
    1362:	687b      	ldr	r3, [r7, #4]
    1364:	60fb      	str	r3, [r7, #12]

	configASSERT( pxQueue );
    1366:	68fb      	ldr	r3, [r7, #12]
    1368:	2b00      	cmp	r3, #0
    136a:	d101      	bne.n	1370 <xQueueGenericReset+0x18>
    136c:	b672      	cpsid	i
    136e:	e7fe      	b.n	136e <xQueueGenericReset+0x16>

	taskENTER_CRITICAL();
    1370:	4b23      	ldr	r3, [pc, #140]	; (1400 <xQueueGenericReset+0xa8>)
    1372:	4798      	blx	r3
	{
		pxQueue->pcTail = pxQueue->pcHead + ( pxQueue->uxLength * pxQueue->uxItemSize );
    1374:	68fb      	ldr	r3, [r7, #12]
    1376:	681a      	ldr	r2, [r3, #0]
    1378:	68fb      	ldr	r3, [r7, #12]
    137a:	6bd9      	ldr	r1, [r3, #60]	; 0x3c
    137c:	68fb      	ldr	r3, [r7, #12]
    137e:	6c1b      	ldr	r3, [r3, #64]	; 0x40
    1380:	434b      	muls	r3, r1
    1382:	18d2      	adds	r2, r2, r3
    1384:	68fb      	ldr	r3, [r7, #12]
    1386:	605a      	str	r2, [r3, #4]
		pxQueue->uxMessagesWaiting = ( UBaseType_t ) 0U;
    1388:	68fb      	ldr	r3, [r7, #12]
    138a:	2200      	movs	r2, #0
    138c:	639a      	str	r2, [r3, #56]	; 0x38
		pxQueue->pcWriteTo = pxQueue->pcHead;
    138e:	68fb      	ldr	r3, [r7, #12]
    1390:	681a      	ldr	r2, [r3, #0]
    1392:	68fb      	ldr	r3, [r7, #12]
    1394:	609a      	str	r2, [r3, #8]
		pxQueue->u.pcReadFrom = pxQueue->pcHead + ( ( pxQueue->uxLength - ( UBaseType_t ) 1U ) * pxQueue->uxItemSize );
    1396:	68fb      	ldr	r3, [r7, #12]
    1398:	681a      	ldr	r2, [r3, #0]
    139a:	68fb      	ldr	r3, [r7, #12]
    139c:	6bdb      	ldr	r3, [r3, #60]	; 0x3c
    139e:	1e59      	subs	r1, r3, #1
    13a0:	68fb      	ldr	r3, [r7, #12]
    13a2:	6c1b      	ldr	r3, [r3, #64]	; 0x40
    13a4:	434b      	muls	r3, r1
    13a6:	18d2      	adds	r2, r2, r3
    13a8:	68fb      	ldr	r3, [r7, #12]
    13aa:	60da      	str	r2, [r3, #12]
		pxQueue->cRxLock = queueUNLOCKED;
    13ac:	68fb      	ldr	r3, [r7, #12]
    13ae:	2244      	movs	r2, #68	; 0x44
    13b0:	21ff      	movs	r1, #255	; 0xff
    13b2:	5499      	strb	r1, [r3, r2]
		pxQueue->cTxLock = queueUNLOCKED;
    13b4:	68fb      	ldr	r3, [r7, #12]
    13b6:	2245      	movs	r2, #69	; 0x45
    13b8:	21ff      	movs	r1, #255	; 0xff
    13ba:	5499      	strb	r1, [r3, r2]

		if( xNewQueue == pdFALSE )
    13bc:	683b      	ldr	r3, [r7, #0]
    13be:	2b00      	cmp	r3, #0
    13c0:	d10d      	bne.n	13de <xQueueGenericReset+0x86>
			/* If there are tasks blocked waiting to read from the queue, then
			the tasks will remain blocked as after this function exits the queue
			will still be empty.  If there are tasks blocked waiting to write to
			the queue, then one should be unblocked as after this function exits
			it will be possible to write to it. */
			if( listLIST_IS_EMPTY( &( pxQueue->xTasksWaitingToSend ) ) == pdFALSE )
    13c2:	68fb      	ldr	r3, [r7, #12]
    13c4:	691b      	ldr	r3, [r3, #16]
    13c6:	2b00      	cmp	r3, #0
    13c8:	d013      	beq.n	13f2 <xQueueGenericReset+0x9a>
			{
				if( xTaskRemoveFromEventList( &( pxQueue->xTasksWaitingToSend ) ) != pdFALSE )
    13ca:	68fb      	ldr	r3, [r7, #12]
    13cc:	3310      	adds	r3, #16
    13ce:	0018      	movs	r0, r3
    13d0:	4b0c      	ldr	r3, [pc, #48]	; (1404 <xQueueGenericReset+0xac>)
    13d2:	4798      	blx	r3
    13d4:	1e03      	subs	r3, r0, #0
    13d6:	d00c      	beq.n	13f2 <xQueueGenericReset+0x9a>
				{
					queueYIELD_IF_USING_PREEMPTION();
    13d8:	4b0b      	ldr	r3, [pc, #44]	; (1408 <xQueueGenericReset+0xb0>)
    13da:	4798      	blx	r3
    13dc:	e009      	b.n	13f2 <xQueueGenericReset+0x9a>
			}
		}
		else
		{
			/* Ensure the event queues start in the correct state. */
			vListInitialise( &( pxQueue->xTasksWaitingToSend ) );
    13de:	68fb      	ldr	r3, [r7, #12]
    13e0:	3310      	adds	r3, #16
    13e2:	0018      	movs	r0, r3
    13e4:	4b09      	ldr	r3, [pc, #36]	; (140c <xQueueGenericReset+0xb4>)
    13e6:	4798      	blx	r3
			vListInitialise( &( pxQueue->xTasksWaitingToReceive ) );
    13e8:	68fb      	ldr	r3, [r7, #12]
    13ea:	3324      	adds	r3, #36	; 0x24
    13ec:	0018      	movs	r0, r3
    13ee:	4b07      	ldr	r3, [pc, #28]	; (140c <xQueueGenericReset+0xb4>)
    13f0:	4798      	blx	r3
		}
	}
	taskEXIT_CRITICAL();
    13f2:	4b07      	ldr	r3, [pc, #28]	; (1410 <xQueueGenericReset+0xb8>)
    13f4:	4798      	blx	r3

	/* A value is returned for calling semantic consistency with previous
	versions. */
	return pdPASS;
    13f6:	2301      	movs	r3, #1
}
    13f8:	0018      	movs	r0, r3
    13fa:	46bd      	mov	sp, r7
    13fc:	b004      	add	sp, #16
    13fe:	bd80      	pop	{r7, pc}
    1400:	00001141 	.word	0x00001141
    1404:	00002695 	.word	0x00002695
    1408:	00001121 	.word	0x00001121
    140c:	00000eaf 	.word	0x00000eaf
    1410:	00001165 	.word	0x00001165

00001414 <xQueueGenericCreate>:
/*-----------------------------------------------------------*/

#if( configSUPPORT_DYNAMIC_ALLOCATION == 1 )

	QueueHandle_t xQueueGenericCreate( const UBaseType_t uxQueueLength, const UBaseType_t uxItemSize, const uint8_t ucQueueType )
	{
    1414:	b590      	push	{r4, r7, lr}
    1416:	b08b      	sub	sp, #44	; 0x2c
    1418:	af02      	add	r7, sp, #8
    141a:	60f8      	str	r0, [r7, #12]
    141c:	60b9      	str	r1, [r7, #8]
    141e:	1dfb      	adds	r3, r7, #7
    1420:	701a      	strb	r2, [r3, #0]
	Queue_t *pxNewQueue;
	size_t xQueueSizeInBytes;
	uint8_t *pucQueueStorage;

		configASSERT( uxQueueLength > ( UBaseType_t ) 0 );
    1422:	68fb      	ldr	r3, [r7, #12]
    1424:	2b00      	cmp	r3, #0
    1426:	d101      	bne.n	142c <xQueueGenericCreate+0x18>
    1428:	b672      	cpsid	i
    142a:	e7fe      	b.n	142a <xQueueGenericCreate+0x16>

		if( uxItemSize == ( UBaseType_t ) 0 )
    142c:	68bb      	ldr	r3, [r7, #8]
    142e:	2b00      	cmp	r3, #0
    1430:	d102      	bne.n	1438 <xQueueGenericCreate+0x24>
		{
			/* There is not going to be a queue storage area. */
			xQueueSizeInBytes = ( size_t ) 0;
    1432:	2300      	movs	r3, #0
    1434:	61fb      	str	r3, [r7, #28]
    1436:	e003      	b.n	1440 <xQueueGenericCreate+0x2c>
		}
		else
		{
			/* Allocate enough space to hold the maximum number of items that
			can be in the queue at any time. */
			xQueueSizeInBytes = ( size_t ) ( uxQueueLength * uxItemSize ); /*lint !e961 MISRA exception as the casts are only redundant for some ports. */
    1438:	68fb      	ldr	r3, [r7, #12]
    143a:	68ba      	ldr	r2, [r7, #8]
    143c:	4353      	muls	r3, r2
    143e:	61fb      	str	r3, [r7, #28]
		}

		pxNewQueue = ( Queue_t * ) pvPortMalloc( sizeof( Queue_t ) + xQueueSizeInBytes );
    1440:	69fb      	ldr	r3, [r7, #28]
    1442:	3354      	adds	r3, #84	; 0x54
    1444:	0018      	movs	r0, r3
    1446:	4b0c      	ldr	r3, [pc, #48]	; (1478 <xQueueGenericCreate+0x64>)
    1448:	4798      	blx	r3
    144a:	0003      	movs	r3, r0
    144c:	61bb      	str	r3, [r7, #24]

		if( pxNewQueue != NULL )
    144e:	69bb      	ldr	r3, [r7, #24]
    1450:	2b00      	cmp	r3, #0
    1452:	d00c      	beq.n	146e <xQueueGenericCreate+0x5a>
		{
			/* Jump past the queue structure to find the location of the queue
			storage area. */
			pucQueueStorage = ( ( uint8_t * ) pxNewQueue ) + sizeof( Queue_t );
    1454:	69bb      	ldr	r3, [r7, #24]
    1456:	3354      	adds	r3, #84	; 0x54
    1458:	617b      	str	r3, [r7, #20]
				deleted. */
				pxNewQueue->ucStaticallyAllocated = pdFALSE;
			}
			#endif /* configSUPPORT_STATIC_ALLOCATION */

			prvInitialiseNewQueue( uxQueueLength, uxItemSize, pucQueueStorage, ucQueueType, pxNewQueue );
    145a:	1dfb      	adds	r3, r7, #7
    145c:	781c      	ldrb	r4, [r3, #0]
    145e:	697a      	ldr	r2, [r7, #20]
    1460:	68b9      	ldr	r1, [r7, #8]
    1462:	68f8      	ldr	r0, [r7, #12]
    1464:	69bb      	ldr	r3, [r7, #24]
    1466:	9300      	str	r3, [sp, #0]
    1468:	0023      	movs	r3, r4
    146a:	4c04      	ldr	r4, [pc, #16]	; (147c <xQueueGenericCreate+0x68>)
    146c:	47a0      	blx	r4
		else
		{
			traceQUEUE_CREATE_FAILED( ucQueueType );
		}

		return pxNewQueue;
    146e:	69bb      	ldr	r3, [r7, #24]
	}
    1470:	0018      	movs	r0, r3
    1472:	46bd      	mov	sp, r7
    1474:	b009      	add	sp, #36	; 0x24
    1476:	bd90      	pop	{r4, r7, pc}
    1478:	00001281 	.word	0x00001281
    147c:	00001481 	.word	0x00001481

00001480 <prvInitialiseNewQueue>:

#endif /* configSUPPORT_STATIC_ALLOCATION */
/*-----------------------------------------------------------*/

static void prvInitialiseNewQueue( const UBaseType_t uxQueueLength, const UBaseType_t uxItemSize, uint8_t *pucQueueStorage, const uint8_t ucQueueType, Queue_t *pxNewQueue )
{
    1480:	b580      	push	{r7, lr}
    1482:	b084      	sub	sp, #16
    1484:	af00      	add	r7, sp, #0
    1486:	60f8      	str	r0, [r7, #12]
    1488:	60b9      	str	r1, [r7, #8]
    148a:	607a      	str	r2, [r7, #4]
    148c:	001a      	movs	r2, r3
    148e:	1cfb      	adds	r3, r7, #3
    1490:	701a      	strb	r2, [r3, #0]
	/* Remove compiler warnings about unused parameters should
	configUSE_TRACE_FACILITY not be set to 1. */
	( void ) ucQueueType;

	if( uxItemSize == ( UBaseType_t ) 0 )
    1492:	68bb      	ldr	r3, [r7, #8]
    1494:	2b00      	cmp	r3, #0
    1496:	d103      	bne.n	14a0 <prvInitialiseNewQueue+0x20>
	{
		/* No RAM was allocated for the queue storage area, but PC head cannot
		be set to NULL because NULL is used as a key to say the queue is used as
		a mutex.  Therefore just set pcHead to point to the queue as a benign
		value that is known to be within the memory map. */
		pxNewQueue->pcHead = ( int8_t * ) pxNewQueue;
    1498:	69bb      	ldr	r3, [r7, #24]
    149a:	69ba      	ldr	r2, [r7, #24]
    149c:	601a      	str	r2, [r3, #0]
    149e:	e002      	b.n	14a6 <prvInitialiseNewQueue+0x26>
	}
	else
	{
		/* Set the head to the start of the queue storage area. */
		pxNewQueue->pcHead = ( int8_t * ) pucQueueStorage;
    14a0:	69bb      	ldr	r3, [r7, #24]
    14a2:	687a      	ldr	r2, [r7, #4]
    14a4:	601a      	str	r2, [r3, #0]
	}

	/* Initialise the queue members as described where the queue type is
	defined. */
	pxNewQueue->uxLength = uxQueueLength;
    14a6:	69bb      	ldr	r3, [r7, #24]
    14a8:	68fa      	ldr	r2, [r7, #12]
    14aa:	63da      	str	r2, [r3, #60]	; 0x3c
	pxNewQueue->uxItemSize = uxItemSize;
    14ac:	69bb      	ldr	r3, [r7, #24]
    14ae:	68ba      	ldr	r2, [r7, #8]
    14b0:	641a      	str	r2, [r3, #64]	; 0x40
	( void ) xQueueGenericReset( pxNewQueue, pdTRUE );
    14b2:	69bb      	ldr	r3, [r7, #24]
    14b4:	2101      	movs	r1, #1
    14b6:	0018      	movs	r0, r3
    14b8:	4b06      	ldr	r3, [pc, #24]	; (14d4 <prvInitialiseNewQueue+0x54>)
    14ba:	4798      	blx	r3

	#if ( configUSE_TRACE_FACILITY == 1 )
	{
		pxNewQueue->ucQueueType = ucQueueType;
    14bc:	69bb      	ldr	r3, [r7, #24]
    14be:	1cfa      	adds	r2, r7, #3
    14c0:	2150      	movs	r1, #80	; 0x50
    14c2:	7812      	ldrb	r2, [r2, #0]
    14c4:	545a      	strb	r2, [r3, r1]
	}
	#endif /* configUSE_TRACE_FACILITY */

	#if( configUSE_QUEUE_SETS == 1 )
	{
		pxNewQueue->pxQueueSetContainer = NULL;
    14c6:	69bb      	ldr	r3, [r7, #24]
    14c8:	2200      	movs	r2, #0
    14ca:	649a      	str	r2, [r3, #72]	; 0x48
	}
	#endif /* configUSE_QUEUE_SETS */

	traceQUEUE_CREATE( pxNewQueue );
}
    14cc:	46c0      	nop			; (mov r8, r8)
    14ce:	46bd      	mov	sp, r7
    14d0:	b004      	add	sp, #16
    14d2:	bd80      	pop	{r7, pc}
    14d4:	00001359 	.word	0x00001359

000014d8 <xQueueGenericSend>:

#endif /* ( ( configUSE_COUNTING_SEMAPHORES == 1 ) && ( configSUPPORT_DYNAMIC_ALLOCATION == 1 ) ) */
/*-----------------------------------------------------------*/

BaseType_t xQueueGenericSend( QueueHandle_t xQueue, const void * const pvItemToQueue, TickType_t xTicksToWait, const BaseType_t xCopyPosition )
{
    14d8:	b580      	push	{r7, lr}
    14da:	b08a      	sub	sp, #40	; 0x28
    14dc:	af00      	add	r7, sp, #0
    14de:	60f8      	str	r0, [r7, #12]
    14e0:	60b9      	str	r1, [r7, #8]
    14e2:	607a      	str	r2, [r7, #4]
    14e4:	603b      	str	r3, [r7, #0]
BaseType_t xEntryTimeSet = pdFALSE, xYieldRequired;
    14e6:	2300      	movs	r3, #0
    14e8:	627b      	str	r3, [r7, #36]	; 0x24
TimeOut_t xTimeOut;
Queue_t * const pxQueue = ( Queue_t * ) xQueue;
    14ea:	68fb      	ldr	r3, [r7, #12]
    14ec:	623b      	str	r3, [r7, #32]

	configASSERT( pxQueue );
    14ee:	6a3b      	ldr	r3, [r7, #32]
    14f0:	2b00      	cmp	r3, #0
    14f2:	d101      	bne.n	14f8 <xQueueGenericSend+0x20>
    14f4:	b672      	cpsid	i
    14f6:	e7fe      	b.n	14f6 <xQueueGenericSend+0x1e>
	configASSERT( !( ( pvItemToQueue == NULL ) && ( pxQueue->uxItemSize != ( UBaseType_t ) 0U ) ) );
    14f8:	68bb      	ldr	r3, [r7, #8]
    14fa:	2b00      	cmp	r3, #0
    14fc:	d103      	bne.n	1506 <xQueueGenericSend+0x2e>
    14fe:	6a3b      	ldr	r3, [r7, #32]
    1500:	6c1b      	ldr	r3, [r3, #64]	; 0x40
    1502:	2b00      	cmp	r3, #0
    1504:	d101      	bne.n	150a <xQueueGenericSend+0x32>
    1506:	2301      	movs	r3, #1
    1508:	e000      	b.n	150c <xQueueGenericSend+0x34>
    150a:	2300      	movs	r3, #0
    150c:	2b00      	cmp	r3, #0
    150e:	d101      	bne.n	1514 <xQueueGenericSend+0x3c>
    1510:	b672      	cpsid	i
    1512:	e7fe      	b.n	1512 <xQueueGenericSend+0x3a>
	configASSERT( !( ( xCopyPosition == queueOVERWRITE ) && ( pxQueue->uxLength != 1 ) ) );
    1514:	683b      	ldr	r3, [r7, #0]
    1516:	2b02      	cmp	r3, #2
    1518:	d103      	bne.n	1522 <xQueueGenericSend+0x4a>
    151a:	6a3b      	ldr	r3, [r7, #32]
    151c:	6bdb      	ldr	r3, [r3, #60]	; 0x3c
    151e:	2b01      	cmp	r3, #1
    1520:	d101      	bne.n	1526 <xQueueGenericSend+0x4e>
    1522:	2301      	movs	r3, #1
    1524:	e000      	b.n	1528 <xQueueGenericSend+0x50>
    1526:	2300      	movs	r3, #0
    1528:	2b00      	cmp	r3, #0
    152a:	d101      	bne.n	1530 <xQueueGenericSend+0x58>
    152c:	b672      	cpsid	i
    152e:	e7fe      	b.n	152e <xQueueGenericSend+0x56>
	#if ( ( INCLUDE_xTaskGetSchedulerState == 1 ) || ( configUSE_TIMERS == 1 ) )
	{
		configASSERT( !( ( xTaskGetSchedulerState() == taskSCHEDULER_SUSPENDED ) && ( xTicksToWait != 0 ) ) );
    1530:	4b53      	ldr	r3, [pc, #332]	; (1680 <xQueueGenericSend+0x1a8>)
    1532:	4798      	blx	r3
    1534:	1e03      	subs	r3, r0, #0
    1536:	d102      	bne.n	153e <xQueueGenericSend+0x66>
    1538:	687b      	ldr	r3, [r7, #4]
    153a:	2b00      	cmp	r3, #0
    153c:	d101      	bne.n	1542 <xQueueGenericSend+0x6a>
    153e:	2301      	movs	r3, #1
    1540:	e000      	b.n	1544 <xQueueGenericSend+0x6c>
    1542:	2300      	movs	r3, #0
    1544:	2b00      	cmp	r3, #0
    1546:	d101      	bne.n	154c <xQueueGenericSend+0x74>
    1548:	b672      	cpsid	i
    154a:	e7fe      	b.n	154a <xQueueGenericSend+0x72>
	/* This function relaxes the coding standard somewhat to allow return
	statements within the function itself.  This is done in the interest
	of execution time efficiency. */
	for( ;; )
	{
		taskENTER_CRITICAL();
    154c:	4b4d      	ldr	r3, [pc, #308]	; (1684 <xQueueGenericSend+0x1ac>)
    154e:	4798      	blx	r3
		{
			/* Is there room on the queue now?  The running task must be the
			highest priority task wanting to access the queue.  If the head item
			in the queue is to be overwritten then it does not matter if the
			queue is full. */
			if( ( pxQueue->uxMessagesWaiting < pxQueue->uxLength ) || ( xCopyPosition == queueOVERWRITE ) )
    1550:	6a3b      	ldr	r3, [r7, #32]
    1552:	6b9a      	ldr	r2, [r3, #56]	; 0x38
    1554:	6a3b      	ldr	r3, [r7, #32]
    1556:	6bdb      	ldr	r3, [r3, #60]	; 0x3c
    1558:	429a      	cmp	r2, r3
    155a:	d302      	bcc.n	1562 <xQueueGenericSend+0x8a>
    155c:	683b      	ldr	r3, [r7, #0]
    155e:	2b02      	cmp	r3, #2
    1560:	d12d      	bne.n	15be <xQueueGenericSend+0xe6>
			{
				traceQUEUE_SEND( pxQueue );
				xYieldRequired = prvCopyDataToQueue( pxQueue, pvItemToQueue, xCopyPosition );
    1562:	683a      	ldr	r2, [r7, #0]
    1564:	68b9      	ldr	r1, [r7, #8]
    1566:	6a3b      	ldr	r3, [r7, #32]
    1568:	0018      	movs	r0, r3
    156a:	4b47      	ldr	r3, [pc, #284]	; (1688 <xQueueGenericSend+0x1b0>)
    156c:	4798      	blx	r3
    156e:	0003      	movs	r3, r0
    1570:	61fb      	str	r3, [r7, #28]

				#if ( configUSE_QUEUE_SETS == 1 )
				{
					if( pxQueue->pxQueueSetContainer != NULL )
    1572:	6a3b      	ldr	r3, [r7, #32]
    1574:	6c9b      	ldr	r3, [r3, #72]	; 0x48
    1576:	2b00      	cmp	r3, #0
    1578:	d00a      	beq.n	1590 <xQueueGenericSend+0xb8>
					{
						if( prvNotifyQueueSetContainer( pxQueue, xCopyPosition ) != pdFALSE )
    157a:	683a      	ldr	r2, [r7, #0]
    157c:	6a3b      	ldr	r3, [r7, #32]
    157e:	0011      	movs	r1, r2
    1580:	0018      	movs	r0, r3
    1582:	4b42      	ldr	r3, [pc, #264]	; (168c <xQueueGenericSend+0x1b4>)
    1584:	4798      	blx	r3
    1586:	1e03      	subs	r3, r0, #0
    1588:	d015      	beq.n	15b6 <xQueueGenericSend+0xde>
						{
							/* The queue is a member of a queue set, and posting
							to the queue set caused a higher priority task to
							unblock. A context switch is required. */
							queueYIELD_IF_USING_PREEMPTION();
    158a:	4b41      	ldr	r3, [pc, #260]	; (1690 <xQueueGenericSend+0x1b8>)
    158c:	4798      	blx	r3
    158e:	e012      	b.n	15b6 <xQueueGenericSend+0xde>
					}
					else
					{
						/* If there was a task waiting for data to arrive on the
						queue then unblock it now. */
						if( listLIST_IS_EMPTY( &( pxQueue->xTasksWaitingToReceive ) ) == pdFALSE )
    1590:	6a3b      	ldr	r3, [r7, #32]
    1592:	6a5b      	ldr	r3, [r3, #36]	; 0x24
    1594:	2b00      	cmp	r3, #0
    1596:	d009      	beq.n	15ac <xQueueGenericSend+0xd4>
						{
							if( xTaskRemoveFromEventList( &( pxQueue->xTasksWaitingToReceive ) ) != pdFALSE )
    1598:	6a3b      	ldr	r3, [r7, #32]
    159a:	3324      	adds	r3, #36	; 0x24
    159c:	0018      	movs	r0, r3
    159e:	4b3d      	ldr	r3, [pc, #244]	; (1694 <xQueueGenericSend+0x1bc>)
    15a0:	4798      	blx	r3
    15a2:	1e03      	subs	r3, r0, #0
    15a4:	d007      	beq.n	15b6 <xQueueGenericSend+0xde>
							{
								/* The unblocked task has a priority higher than
								our own so yield immediately.  Yes it is ok to
								do this from within the critical section - the
								kernel takes care of that. */
								queueYIELD_IF_USING_PREEMPTION();
    15a6:	4b3a      	ldr	r3, [pc, #232]	; (1690 <xQueueGenericSend+0x1b8>)
    15a8:	4798      	blx	r3
    15aa:	e004      	b.n	15b6 <xQueueGenericSend+0xde>
							else
							{
								mtCOVERAGE_TEST_MARKER();
							}
						}
						else if( xYieldRequired != pdFALSE )
    15ac:	69fb      	ldr	r3, [r7, #28]
    15ae:	2b00      	cmp	r3, #0
    15b0:	d001      	beq.n	15b6 <xQueueGenericSend+0xde>
						{
							/* This path is a special case that will only get
							executed if the task was holding multiple mutexes
							and the mutexes were given back in an order that is
							different to that in which they were taken. */
							queueYIELD_IF_USING_PREEMPTION();
    15b2:	4b37      	ldr	r3, [pc, #220]	; (1690 <xQueueGenericSend+0x1b8>)
    15b4:	4798      	blx	r3
						mtCOVERAGE_TEST_MARKER();
					}
				}
				#endif /* configUSE_QUEUE_SETS */

				taskEXIT_CRITICAL();
    15b6:	4b38      	ldr	r3, [pc, #224]	; (1698 <xQueueGenericSend+0x1c0>)
    15b8:	4798      	blx	r3
				return pdPASS;
    15ba:	2301      	movs	r3, #1
    15bc:	e05c      	b.n	1678 <xQueueGenericSend+0x1a0>
			}
			else
			{
				if( xTicksToWait == ( TickType_t ) 0 )
    15be:	687b      	ldr	r3, [r7, #4]
    15c0:	2b00      	cmp	r3, #0
    15c2:	d103      	bne.n	15cc <xQueueGenericSend+0xf4>
				{
					/* The queue was full and no block time is specified (or
					the block time has expired) so leave now. */
					taskEXIT_CRITICAL();
    15c4:	4b34      	ldr	r3, [pc, #208]	; (1698 <xQueueGenericSend+0x1c0>)
    15c6:	4798      	blx	r3

					/* Return to the original privilege level before exiting
					the function. */
					traceQUEUE_SEND_FAILED( pxQueue );
					return errQUEUE_FULL;
    15c8:	2300      	movs	r3, #0
    15ca:	e055      	b.n	1678 <xQueueGenericSend+0x1a0>
				}
				else if( xEntryTimeSet == pdFALSE )
    15cc:	6a7b      	ldr	r3, [r7, #36]	; 0x24
    15ce:	2b00      	cmp	r3, #0
    15d0:	d106      	bne.n	15e0 <xQueueGenericSend+0x108>
				{
					/* The queue was full and a block time was specified so
					configure the timeout structure. */
					vTaskInternalSetTimeOutState( &xTimeOut );
    15d2:	2314      	movs	r3, #20
    15d4:	18fb      	adds	r3, r7, r3
    15d6:	0018      	movs	r0, r3
    15d8:	4b30      	ldr	r3, [pc, #192]	; (169c <xQueueGenericSend+0x1c4>)
    15da:	4798      	blx	r3
					xEntryTimeSet = pdTRUE;
    15dc:	2301      	movs	r3, #1
    15de:	627b      	str	r3, [r7, #36]	; 0x24
					/* Entry time was already set. */
					mtCOVERAGE_TEST_MARKER();
				}
			}
		}
		taskEXIT_CRITICAL();
    15e0:	4b2d      	ldr	r3, [pc, #180]	; (1698 <xQueueGenericSend+0x1c0>)
    15e2:	4798      	blx	r3

		/* Interrupts and other tasks can send to and receive from the queue
		now the critical section has been exited. */

		vTaskSuspendAll();
    15e4:	4b2e      	ldr	r3, [pc, #184]	; (16a0 <xQueueGenericSend+0x1c8>)
    15e6:	4798      	blx	r3
		prvLockQueue( pxQueue );
    15e8:	4b26      	ldr	r3, [pc, #152]	; (1684 <xQueueGenericSend+0x1ac>)
    15ea:	4798      	blx	r3
    15ec:	6a3b      	ldr	r3, [r7, #32]
    15ee:	2244      	movs	r2, #68	; 0x44
    15f0:	5c9b      	ldrb	r3, [r3, r2]
    15f2:	b25b      	sxtb	r3, r3
    15f4:	3301      	adds	r3, #1
    15f6:	d103      	bne.n	1600 <xQueueGenericSend+0x128>
    15f8:	6a3b      	ldr	r3, [r7, #32]
    15fa:	2244      	movs	r2, #68	; 0x44
    15fc:	2100      	movs	r1, #0
    15fe:	5499      	strb	r1, [r3, r2]
    1600:	6a3b      	ldr	r3, [r7, #32]
    1602:	2245      	movs	r2, #69	; 0x45
    1604:	5c9b      	ldrb	r3, [r3, r2]
    1606:	b25b      	sxtb	r3, r3
    1608:	3301      	adds	r3, #1
    160a:	d103      	bne.n	1614 <xQueueGenericSend+0x13c>
    160c:	6a3b      	ldr	r3, [r7, #32]
    160e:	2245      	movs	r2, #69	; 0x45
    1610:	2100      	movs	r1, #0
    1612:	5499      	strb	r1, [r3, r2]
    1614:	4b20      	ldr	r3, [pc, #128]	; (1698 <xQueueGenericSend+0x1c0>)
    1616:	4798      	blx	r3

		/* Update the timeout state to see if it has expired yet. */
		if( xTaskCheckForTimeOut( &xTimeOut, &xTicksToWait ) == pdFALSE )
    1618:	1d3a      	adds	r2, r7, #4
    161a:	2314      	movs	r3, #20
    161c:	18fb      	adds	r3, r7, r3
    161e:	0011      	movs	r1, r2
    1620:	0018      	movs	r0, r3
    1622:	4b20      	ldr	r3, [pc, #128]	; (16a4 <xQueueGenericSend+0x1cc>)
    1624:	4798      	blx	r3
    1626:	1e03      	subs	r3, r0, #0
    1628:	d11f      	bne.n	166a <xQueueGenericSend+0x192>
		{
			if( prvIsQueueFull( pxQueue ) != pdFALSE )
    162a:	6a3b      	ldr	r3, [r7, #32]
    162c:	0018      	movs	r0, r3
    162e:	4b1e      	ldr	r3, [pc, #120]	; (16a8 <xQueueGenericSend+0x1d0>)
    1630:	4798      	blx	r3
    1632:	1e03      	subs	r3, r0, #0
    1634:	d012      	beq.n	165c <xQueueGenericSend+0x184>
			{
				traceBLOCKING_ON_QUEUE_SEND( pxQueue );
				vTaskPlaceOnEventList( &( pxQueue->xTasksWaitingToSend ), xTicksToWait );
    1636:	6a3b      	ldr	r3, [r7, #32]
    1638:	3310      	adds	r3, #16
    163a:	687a      	ldr	r2, [r7, #4]
    163c:	0011      	movs	r1, r2
    163e:	0018      	movs	r0, r3
    1640:	4b1a      	ldr	r3, [pc, #104]	; (16ac <xQueueGenericSend+0x1d4>)
    1642:	4798      	blx	r3
				/* Unlocking the queue means queue events can effect the
				event list.  It is possible that interrupts occurring now
				remove this task from the event list again - but as the
				scheduler is suspended the task will go onto the pending
				ready last instead of the actual ready list. */
				prvUnlockQueue( pxQueue );
    1644:	6a3b      	ldr	r3, [r7, #32]
    1646:	0018      	movs	r0, r3
    1648:	4b19      	ldr	r3, [pc, #100]	; (16b0 <xQueueGenericSend+0x1d8>)
    164a:	4798      	blx	r3
				/* Resuming the scheduler will move tasks from the pending
				ready list into the ready list - so it is feasible that this
				task is already in a ready list before it yields - in which
				case the yield will not cause a context switch unless there
				is also a higher priority task in the pending ready list. */
				if( xTaskResumeAll() == pdFALSE )
    164c:	4b19      	ldr	r3, [pc, #100]	; (16b4 <xQueueGenericSend+0x1dc>)
    164e:	4798      	blx	r3
    1650:	1e03      	subs	r3, r0, #0
    1652:	d000      	beq.n	1656 <xQueueGenericSend+0x17e>
    1654:	e77a      	b.n	154c <xQueueGenericSend+0x74>
				{
					portYIELD_WITHIN_API();
    1656:	4b0e      	ldr	r3, [pc, #56]	; (1690 <xQueueGenericSend+0x1b8>)
    1658:	4798      	blx	r3
    165a:	e777      	b.n	154c <xQueueGenericSend+0x74>
				}
			}
			else
			{
				/* Try again. */
				prvUnlockQueue( pxQueue );
    165c:	6a3b      	ldr	r3, [r7, #32]
    165e:	0018      	movs	r0, r3
    1660:	4b13      	ldr	r3, [pc, #76]	; (16b0 <xQueueGenericSend+0x1d8>)
    1662:	4798      	blx	r3
				( void ) xTaskResumeAll();
    1664:	4b13      	ldr	r3, [pc, #76]	; (16b4 <xQueueGenericSend+0x1dc>)
    1666:	4798      	blx	r3
    1668:	e770      	b.n	154c <xQueueGenericSend+0x74>
			}
		}
		else
		{
			/* The timeout has expired. */
			prvUnlockQueue( pxQueue );
    166a:	6a3b      	ldr	r3, [r7, #32]
    166c:	0018      	movs	r0, r3
    166e:	4b10      	ldr	r3, [pc, #64]	; (16b0 <xQueueGenericSend+0x1d8>)
    1670:	4798      	blx	r3
			( void ) xTaskResumeAll();
    1672:	4b10      	ldr	r3, [pc, #64]	; (16b4 <xQueueGenericSend+0x1dc>)
    1674:	4798      	blx	r3

			traceQUEUE_SEND_FAILED( pxQueue );
			return errQUEUE_FULL;
    1676:	2300      	movs	r3, #0
		}
	}
}
    1678:	0018      	movs	r0, r3
    167a:	46bd      	mov	sp, r7
    167c:	b00a      	add	sp, #40	; 0x28
    167e:	bd80      	pop	{r7, pc}
    1680:	000029cd 	.word	0x000029cd
    1684:	00001141 	.word	0x00001141
    1688:	00001b99 	.word	0x00001b99
    168c:	00001e9d 	.word	0x00001e9d
    1690:	00001121 	.word	0x00001121
    1694:	00002695 	.word	0x00002695
    1698:	00001165 	.word	0x00001165
    169c:	00002755 	.word	0x00002755
    16a0:	00002259 	.word	0x00002259
    16a4:	0000277d 	.word	0x0000277d
    16a8:	00001ded 	.word	0x00001ded
    16ac:	000025fd 	.word	0x000025fd
    16b0:	00001cc9 	.word	0x00001cc9
    16b4:	00002271 	.word	0x00002271

000016b8 <xQueueGenericSendFromISR>:
/*-----------------------------------------------------------*/

BaseType_t xQueueGenericSendFromISR( QueueHandle_t xQueue, const void * const pvItemToQueue, BaseType_t * const pxHigherPriorityTaskWoken, const BaseType_t xCopyPosition )
{
    16b8:	b580      	push	{r7, lr}
    16ba:	b088      	sub	sp, #32
    16bc:	af00      	add	r7, sp, #0
    16be:	60f8      	str	r0, [r7, #12]
    16c0:	60b9      	str	r1, [r7, #8]
    16c2:	607a      	str	r2, [r7, #4]
    16c4:	603b      	str	r3, [r7, #0]
BaseType_t xReturn;
UBaseType_t uxSavedInterruptStatus;
Queue_t * const pxQueue = ( Queue_t * ) xQueue;
    16c6:	68fb      	ldr	r3, [r7, #12]
    16c8:	61bb      	str	r3, [r7, #24]

	configASSERT( pxQueue );
    16ca:	69bb      	ldr	r3, [r7, #24]
    16cc:	2b00      	cmp	r3, #0
    16ce:	d101      	bne.n	16d4 <xQueueGenericSendFromISR+0x1c>
    16d0:	b672      	cpsid	i
    16d2:	e7fe      	b.n	16d2 <xQueueGenericSendFromISR+0x1a>
	configASSERT( !( ( pvItemToQueue == NULL ) && ( pxQueue->uxItemSize != ( UBaseType_t ) 0U ) ) );
    16d4:	68bb      	ldr	r3, [r7, #8]
    16d6:	2b00      	cmp	r3, #0
    16d8:	d103      	bne.n	16e2 <xQueueGenericSendFromISR+0x2a>
    16da:	69bb      	ldr	r3, [r7, #24]
    16dc:	6c1b      	ldr	r3, [r3, #64]	; 0x40
    16de:	2b00      	cmp	r3, #0
    16e0:	d101      	bne.n	16e6 <xQueueGenericSendFromISR+0x2e>
    16e2:	2301      	movs	r3, #1
    16e4:	e000      	b.n	16e8 <xQueueGenericSendFromISR+0x30>
    16e6:	2300      	movs	r3, #0
    16e8:	2b00      	cmp	r3, #0
    16ea:	d101      	bne.n	16f0 <xQueueGenericSendFromISR+0x38>
    16ec:	b672      	cpsid	i
    16ee:	e7fe      	b.n	16ee <xQueueGenericSendFromISR+0x36>
	configASSERT( !( ( xCopyPosition == queueOVERWRITE ) && ( pxQueue->uxLength != 1 ) ) );
    16f0:	683b      	ldr	r3, [r7, #0]
    16f2:	2b02      	cmp	r3, #2
    16f4:	d103      	bne.n	16fe <xQueueGenericSendFromISR+0x46>
    16f6:	69bb      	ldr	r3, [r7, #24]
    16f8:	6bdb      	ldr	r3, [r3, #60]	; 0x3c
    16fa:	2b01      	cmp	r3, #1
    16fc:	d101      	bne.n	1702 <xQueueGenericSendFromISR+0x4a>
    16fe:	2301      	movs	r3, #1
    1700:	e000      	b.n	1704 <xQueueGenericSendFromISR+0x4c>
    1702:	2300      	movs	r3, #0
    1704:	2b00      	cmp	r3, #0
    1706:	d101      	bne.n	170c <xQueueGenericSendFromISR+0x54>
    1708:	b672      	cpsid	i
    170a:	e7fe      	b.n	170a <xQueueGenericSendFromISR+0x52>
	/* Similar to xQueueGenericSend, except without blocking if there is no room
	in the queue.  Also don't directly wake a task that was blocked on a queue
	read, instead return a flag to say whether a context switch is required or
	not (i.e. has a task with a higher priority than us been woken by this
	post). */
	uxSavedInterruptStatus = portSET_INTERRUPT_MASK_FROM_ISR();
    170c:	4b2d      	ldr	r3, [pc, #180]	; (17c4 <xQueueGenericSendFromISR+0x10c>)
    170e:	4798      	blx	r3
    1710:	0003      	movs	r3, r0
    1712:	617b      	str	r3, [r7, #20]
	{
		if( ( pxQueue->uxMessagesWaiting < pxQueue->uxLength ) || ( xCopyPosition == queueOVERWRITE ) )
    1714:	69bb      	ldr	r3, [r7, #24]
    1716:	6b9a      	ldr	r2, [r3, #56]	; 0x38
    1718:	69bb      	ldr	r3, [r7, #24]
    171a:	6bdb      	ldr	r3, [r3, #60]	; 0x3c
    171c:	429a      	cmp	r2, r3
    171e:	d302      	bcc.n	1726 <xQueueGenericSendFromISR+0x6e>
    1720:	683b      	ldr	r3, [r7, #0]
    1722:	2b02      	cmp	r3, #2
    1724:	d142      	bne.n	17ac <xQueueGenericSendFromISR+0xf4>
		{
			const int8_t cTxLock = pxQueue->cTxLock;
    1726:	2313      	movs	r3, #19
    1728:	18fb      	adds	r3, r7, r3
    172a:	69ba      	ldr	r2, [r7, #24]
    172c:	2145      	movs	r1, #69	; 0x45
    172e:	5c52      	ldrb	r2, [r2, r1]
    1730:	701a      	strb	r2, [r3, #0]
			/* Semaphores use xQueueGiveFromISR(), so pxQueue will not be a
			semaphore or mutex.  That means prvCopyDataToQueue() cannot result
			in a task disinheriting a priority and prvCopyDataToQueue() can be
			called here even though the disinherit function does not check if
			the scheduler is suspended before accessing the ready lists. */
			( void ) prvCopyDataToQueue( pxQueue, pvItemToQueue, xCopyPosition );
    1732:	683a      	ldr	r2, [r7, #0]
    1734:	68b9      	ldr	r1, [r7, #8]
    1736:	69bb      	ldr	r3, [r7, #24]
    1738:	0018      	movs	r0, r3
    173a:	4b23      	ldr	r3, [pc, #140]	; (17c8 <xQueueGenericSendFromISR+0x110>)
    173c:	4798      	blx	r3

			/* The event list is not altered if the queue is locked.  This will
			be done when the queue is unlocked later. */
			if( cTxLock == queueUNLOCKED )
    173e:	2313      	movs	r3, #19
    1740:	18fb      	adds	r3, r7, r3
    1742:	781b      	ldrb	r3, [r3, #0]
    1744:	b25b      	sxtb	r3, r3
    1746:	3301      	adds	r3, #1
    1748:	d124      	bne.n	1794 <xQueueGenericSendFromISR+0xdc>
			{
				#if ( configUSE_QUEUE_SETS == 1 )
				{
					if( pxQueue->pxQueueSetContainer != NULL )
    174a:	69bb      	ldr	r3, [r7, #24]
    174c:	6c9b      	ldr	r3, [r3, #72]	; 0x48
    174e:	2b00      	cmp	r3, #0
    1750:	d00e      	beq.n	1770 <xQueueGenericSendFromISR+0xb8>
					{
						if( prvNotifyQueueSetContainer( pxQueue, xCopyPosition ) != pdFALSE )
    1752:	683a      	ldr	r2, [r7, #0]
    1754:	69bb      	ldr	r3, [r7, #24]
    1756:	0011      	movs	r1, r2
    1758:	0018      	movs	r0, r3
    175a:	4b1c      	ldr	r3, [pc, #112]	; (17cc <xQueueGenericSendFromISR+0x114>)
    175c:	4798      	blx	r3
    175e:	1e03      	subs	r3, r0, #0
    1760:	d021      	beq.n	17a6 <xQueueGenericSendFromISR+0xee>
						{
							/* The queue is a member of a queue set, and posting
							to the queue set caused a higher priority task to
							unblock.  A context switch is required. */
							if( pxHigherPriorityTaskWoken != NULL )
    1762:	687b      	ldr	r3, [r7, #4]
    1764:	2b00      	cmp	r3, #0
    1766:	d01e      	beq.n	17a6 <xQueueGenericSendFromISR+0xee>
							{
								*pxHigherPriorityTaskWoken = pdTRUE;
    1768:	687b      	ldr	r3, [r7, #4]
    176a:	2201      	movs	r2, #1
    176c:	601a      	str	r2, [r3, #0]
    176e:	e01a      	b.n	17a6 <xQueueGenericSendFromISR+0xee>
							mtCOVERAGE_TEST_MARKER();
						}
					}
					else
					{
						if( listLIST_IS_EMPTY( &( pxQueue->xTasksWaitingToReceive ) ) == pdFALSE )
    1770:	69bb      	ldr	r3, [r7, #24]
    1772:	6a5b      	ldr	r3, [r3, #36]	; 0x24
    1774:	2b00      	cmp	r3, #0
    1776:	d016      	beq.n	17a6 <xQueueGenericSendFromISR+0xee>
						{
							if( xTaskRemoveFromEventList( &( pxQueue->xTasksWaitingToReceive ) ) != pdFALSE )
    1778:	69bb      	ldr	r3, [r7, #24]
    177a:	3324      	adds	r3, #36	; 0x24
    177c:	0018      	movs	r0, r3
    177e:	4b14      	ldr	r3, [pc, #80]	; (17d0 <xQueueGenericSendFromISR+0x118>)
    1780:	4798      	blx	r3
    1782:	1e03      	subs	r3, r0, #0
    1784:	d00f      	beq.n	17a6 <xQueueGenericSendFromISR+0xee>
							{
								/* The task waiting has a higher priority so
								record that a context switch is required. */
								if( pxHigherPriorityTaskWoken != NULL )
    1786:	687b      	ldr	r3, [r7, #4]
    1788:	2b00      	cmp	r3, #0
    178a:	d00c      	beq.n	17a6 <xQueueGenericSendFromISR+0xee>
								{
									*pxHigherPriorityTaskWoken = pdTRUE;
    178c:	687b      	ldr	r3, [r7, #4]
    178e:	2201      	movs	r2, #1
    1790:	601a      	str	r2, [r3, #0]
    1792:	e008      	b.n	17a6 <xQueueGenericSendFromISR+0xee>
			}
			else
			{
				/* Increment the lock count so the task that unlocks the queue
				knows that data was posted while it was locked. */
				pxQueue->cTxLock = ( int8_t ) ( cTxLock + 1 );
    1794:	2313      	movs	r3, #19
    1796:	18fb      	adds	r3, r7, r3
    1798:	781b      	ldrb	r3, [r3, #0]
    179a:	3301      	adds	r3, #1
    179c:	b2db      	uxtb	r3, r3
    179e:	b259      	sxtb	r1, r3
    17a0:	69bb      	ldr	r3, [r7, #24]
    17a2:	2245      	movs	r2, #69	; 0x45
    17a4:	5499      	strb	r1, [r3, r2]
			}

			xReturn = pdPASS;
    17a6:	2301      	movs	r3, #1
    17a8:	61fb      	str	r3, [r7, #28]
		{
    17aa:	e001      	b.n	17b0 <xQueueGenericSendFromISR+0xf8>
		}
		else
		{
			traceQUEUE_SEND_FROM_ISR_FAILED( pxQueue );
			xReturn = errQUEUE_FULL;
    17ac:	2300      	movs	r3, #0
    17ae:	61fb      	str	r3, [r7, #28]
		}
	}
	portCLEAR_INTERRUPT_MASK_FROM_ISR( uxSavedInterruptStatus );
    17b0:	697b      	ldr	r3, [r7, #20]
    17b2:	0018      	movs	r0, r3
    17b4:	4b07      	ldr	r3, [pc, #28]	; (17d4 <xQueueGenericSendFromISR+0x11c>)
    17b6:	4798      	blx	r3

	return xReturn;
    17b8:	69fb      	ldr	r3, [r7, #28]
}
    17ba:	0018      	movs	r0, r3
    17bc:	46bd      	mov	sp, r7
    17be:	b008      	add	sp, #32
    17c0:	bd80      	pop	{r7, pc}
    17c2:	46c0      	nop			; (mov r8, r8)
    17c4:	00001195 	.word	0x00001195
    17c8:	00001b99 	.word	0x00001b99
    17cc:	00001e9d 	.word	0x00001e9d
    17d0:	00002695 	.word	0x00002695
    17d4:	000011a1 	.word	0x000011a1

000017d8 <xQueueReceive>:
	return xReturn;
}
/*-----------------------------------------------------------*/

BaseType_t xQueueReceive( QueueHandle_t xQueue, void * const pvBuffer, TickType_t xTicksToWait )
{
    17d8:	b580      	push	{r7, lr}
    17da:	b08a      	sub	sp, #40	; 0x28
    17dc:	af00      	add	r7, sp, #0
    17de:	60f8      	str	r0, [r7, #12]
    17e0:	60b9      	str	r1, [r7, #8]
    17e2:	607a      	str	r2, [r7, #4]
BaseType_t xEntryTimeSet = pdFALSE;
    17e4:	2300      	movs	r3, #0
    17e6:	627b      	str	r3, [r7, #36]	; 0x24
TimeOut_t xTimeOut;
Queue_t * const pxQueue = ( Queue_t * ) xQueue;
    17e8:	68fb      	ldr	r3, [r7, #12]
    17ea:	623b      	str	r3, [r7, #32]

	/* Check the pointer is not NULL. */
	configASSERT( ( pxQueue ) );
    17ec:	6a3b      	ldr	r3, [r7, #32]
    17ee:	2b00      	cmp	r3, #0
    17f0:	d101      	bne.n	17f6 <xQueueReceive+0x1e>
    17f2:	b672      	cpsid	i
    17f4:	e7fe      	b.n	17f4 <xQueueReceive+0x1c>

	/* The buffer into which data is received can only be NULL if the data size
	is zero (so no data is copied into the buffer. */
	configASSERT( !( ( ( pvBuffer ) == NULL ) && ( ( pxQueue )->uxItemSize != ( UBaseType_t ) 0U ) ) );
    17f6:	68bb      	ldr	r3, [r7, #8]
    17f8:	2b00      	cmp	r3, #0
    17fa:	d103      	bne.n	1804 <xQueueReceive+0x2c>
    17fc:	6a3b      	ldr	r3, [r7, #32]
    17fe:	6c1b      	ldr	r3, [r3, #64]	; 0x40
    1800:	2b00      	cmp	r3, #0
    1802:	d101      	bne.n	1808 <xQueueReceive+0x30>
    1804:	2301      	movs	r3, #1
    1806:	e000      	b.n	180a <xQueueReceive+0x32>
    1808:	2300      	movs	r3, #0
    180a:	2b00      	cmp	r3, #0
    180c:	d101      	bne.n	1812 <xQueueReceive+0x3a>
    180e:	b672      	cpsid	i
    1810:	e7fe      	b.n	1810 <xQueueReceive+0x38>

	/* Cannot block if the scheduler is suspended. */
	#if ( ( INCLUDE_xTaskGetSchedulerState == 1 ) || ( configUSE_TIMERS == 1 ) )
	{
		configASSERT( !( ( xTaskGetSchedulerState() == taskSCHEDULER_SUSPENDED ) && ( xTicksToWait != 0 ) ) );
    1812:	4b4c      	ldr	r3, [pc, #304]	; (1944 <xQueueReceive+0x16c>)
    1814:	4798      	blx	r3
    1816:	1e03      	subs	r3, r0, #0
    1818:	d102      	bne.n	1820 <xQueueReceive+0x48>
    181a:	687b      	ldr	r3, [r7, #4]
    181c:	2b00      	cmp	r3, #0
    181e:	d101      	bne.n	1824 <xQueueReceive+0x4c>
    1820:	2301      	movs	r3, #1
    1822:	e000      	b.n	1826 <xQueueReceive+0x4e>
    1824:	2300      	movs	r3, #0
    1826:	2b00      	cmp	r3, #0
    1828:	d101      	bne.n	182e <xQueueReceive+0x56>
    182a:	b672      	cpsid	i
    182c:	e7fe      	b.n	182c <xQueueReceive+0x54>
	statements within the function itself.  This is done in the interest
	of execution time efficiency. */

	for( ;; )
	{
		taskENTER_CRITICAL();
    182e:	4b46      	ldr	r3, [pc, #280]	; (1948 <xQueueReceive+0x170>)
    1830:	4798      	blx	r3
		{
			const UBaseType_t uxMessagesWaiting = pxQueue->uxMessagesWaiting;
    1832:	6a3b      	ldr	r3, [r7, #32]
    1834:	6b9b      	ldr	r3, [r3, #56]	; 0x38
    1836:	61fb      	str	r3, [r7, #28]

			/* Is there data in the queue now?  To be running the calling task
			must be the highest priority task wanting to access the queue. */
			if( uxMessagesWaiting > ( UBaseType_t ) 0 )
    1838:	69fb      	ldr	r3, [r7, #28]
    183a:	2b00      	cmp	r3, #0
    183c:	d01a      	beq.n	1874 <xQueueReceive+0x9c>
			{
				/* Data available, remove one item. */
				prvCopyDataFromQueue( pxQueue, pvBuffer );
    183e:	68ba      	ldr	r2, [r7, #8]
    1840:	6a3b      	ldr	r3, [r7, #32]
    1842:	0011      	movs	r1, r2
    1844:	0018      	movs	r0, r3
    1846:	4b41      	ldr	r3, [pc, #260]	; (194c <xQueueReceive+0x174>)
    1848:	4798      	blx	r3
				traceQUEUE_RECEIVE( pxQueue );
				pxQueue->uxMessagesWaiting = uxMessagesWaiting - ( UBaseType_t ) 1;
    184a:	69fb      	ldr	r3, [r7, #28]
    184c:	1e5a      	subs	r2, r3, #1
    184e:	6a3b      	ldr	r3, [r7, #32]
    1850:	639a      	str	r2, [r3, #56]	; 0x38

				/* There is now space in the queue, were any tasks waiting to
				post to the queue?  If so, unblock the highest priority waiting
				task. */
				if( listLIST_IS_EMPTY( &( pxQueue->xTasksWaitingToSend ) ) == pdFALSE )
    1852:	6a3b      	ldr	r3, [r7, #32]
    1854:	691b      	ldr	r3, [r3, #16]
    1856:	2b00      	cmp	r3, #0
    1858:	d008      	beq.n	186c <xQueueReceive+0x94>
				{
					if( xTaskRemoveFromEventList( &( pxQueue->xTasksWaitingToSend ) ) != pdFALSE )
    185a:	6a3b      	ldr	r3, [r7, #32]
    185c:	3310      	adds	r3, #16
    185e:	0018      	movs	r0, r3
    1860:	4b3b      	ldr	r3, [pc, #236]	; (1950 <xQueueReceive+0x178>)
    1862:	4798      	blx	r3
    1864:	1e03      	subs	r3, r0, #0
    1866:	d001      	beq.n	186c <xQueueReceive+0x94>
					{
						queueYIELD_IF_USING_PREEMPTION();
    1868:	4b3a      	ldr	r3, [pc, #232]	; (1954 <xQueueReceive+0x17c>)
    186a:	4798      	blx	r3
				else
				{
					mtCOVERAGE_TEST_MARKER();
				}

				taskEXIT_CRITICAL();
    186c:	4b3a      	ldr	r3, [pc, #232]	; (1958 <xQueueReceive+0x180>)
    186e:	4798      	blx	r3
				return pdPASS;
    1870:	2301      	movs	r3, #1
    1872:	e062      	b.n	193a <xQueueReceive+0x162>
			}
			else
			{
				if( xTicksToWait == ( TickType_t ) 0 )
    1874:	687b      	ldr	r3, [r7, #4]
    1876:	2b00      	cmp	r3, #0
    1878:	d103      	bne.n	1882 <xQueueReceive+0xaa>
				{
					/* The queue was empty and no block time is specified (or
					the block time has expired) so leave now. */
					taskEXIT_CRITICAL();
    187a:	4b37      	ldr	r3, [pc, #220]	; (1958 <xQueueReceive+0x180>)
    187c:	4798      	blx	r3
					traceQUEUE_RECEIVE_FAILED( pxQueue );
					return errQUEUE_EMPTY;
    187e:	2300      	movs	r3, #0
    1880:	e05b      	b.n	193a <xQueueReceive+0x162>
				}
				else if( xEntryTimeSet == pdFALSE )
    1882:	6a7b      	ldr	r3, [r7, #36]	; 0x24
    1884:	2b00      	cmp	r3, #0
    1886:	d106      	bne.n	1896 <xQueueReceive+0xbe>
				{
					/* The queue was empty and a block time was specified so
					configure the timeout structure. */
					vTaskInternalSetTimeOutState( &xTimeOut );
    1888:	2314      	movs	r3, #20
    188a:	18fb      	adds	r3, r7, r3
    188c:	0018      	movs	r0, r3
    188e:	4b33      	ldr	r3, [pc, #204]	; (195c <xQueueReceive+0x184>)
    1890:	4798      	blx	r3
					xEntryTimeSet = pdTRUE;
    1892:	2301      	movs	r3, #1
    1894:	627b      	str	r3, [r7, #36]	; 0x24
					/* Entry time was already set. */
					mtCOVERAGE_TEST_MARKER();
				}
			}
		}
		taskEXIT_CRITICAL();
    1896:	4b30      	ldr	r3, [pc, #192]	; (1958 <xQueueReceive+0x180>)
    1898:	4798      	blx	r3

		/* Interrupts and other tasks can send to and receive from the queue
		now the critical section has been exited. */

		vTaskSuspendAll();
    189a:	4b31      	ldr	r3, [pc, #196]	; (1960 <xQueueReceive+0x188>)
    189c:	4798      	blx	r3
		prvLockQueue( pxQueue );
    189e:	4b2a      	ldr	r3, [pc, #168]	; (1948 <xQueueReceive+0x170>)
    18a0:	4798      	blx	r3
    18a2:	6a3b      	ldr	r3, [r7, #32]
    18a4:	2244      	movs	r2, #68	; 0x44
    18a6:	5c9b      	ldrb	r3, [r3, r2]
    18a8:	b25b      	sxtb	r3, r3
    18aa:	3301      	adds	r3, #1
    18ac:	d103      	bne.n	18b6 <xQueueReceive+0xde>
    18ae:	6a3b      	ldr	r3, [r7, #32]
    18b0:	2244      	movs	r2, #68	; 0x44
    18b2:	2100      	movs	r1, #0
    18b4:	5499      	strb	r1, [r3, r2]
    18b6:	6a3b      	ldr	r3, [r7, #32]
    18b8:	2245      	movs	r2, #69	; 0x45
    18ba:	5c9b      	ldrb	r3, [r3, r2]
    18bc:	b25b      	sxtb	r3, r3
    18be:	3301      	adds	r3, #1
    18c0:	d103      	bne.n	18ca <xQueueReceive+0xf2>
    18c2:	6a3b      	ldr	r3, [r7, #32]
    18c4:	2245      	movs	r2, #69	; 0x45
    18c6:	2100      	movs	r1, #0
    18c8:	5499      	strb	r1, [r3, r2]
    18ca:	4b23      	ldr	r3, [pc, #140]	; (1958 <xQueueReceive+0x180>)
    18cc:	4798      	blx	r3

		/* Update the timeout state to see if it has expired yet. */
		if( xTaskCheckForTimeOut( &xTimeOut, &xTicksToWait ) == pdFALSE )
    18ce:	1d3a      	adds	r2, r7, #4
    18d0:	2314      	movs	r3, #20
    18d2:	18fb      	adds	r3, r7, r3
    18d4:	0011      	movs	r1, r2
    18d6:	0018      	movs	r0, r3
    18d8:	4b22      	ldr	r3, [pc, #136]	; (1964 <xQueueReceive+0x18c>)
    18da:	4798      	blx	r3
    18dc:	1e03      	subs	r3, r0, #0
    18de:	d11e      	bne.n	191e <xQueueReceive+0x146>
		{
			/* The timeout has not expired.  If the queue is still empty place
			the task on the list of tasks waiting to receive from the queue. */
			if( prvIsQueueEmpty( pxQueue ) != pdFALSE )
    18e0:	6a3b      	ldr	r3, [r7, #32]
    18e2:	0018      	movs	r0, r3
    18e4:	4b20      	ldr	r3, [pc, #128]	; (1968 <xQueueReceive+0x190>)
    18e6:	4798      	blx	r3
    18e8:	1e03      	subs	r3, r0, #0
    18ea:	d011      	beq.n	1910 <xQueueReceive+0x138>
			{
				traceBLOCKING_ON_QUEUE_RECEIVE( pxQueue );
				vTaskPlaceOnEventList( &( pxQueue->xTasksWaitingToReceive ), xTicksToWait );
    18ec:	6a3b      	ldr	r3, [r7, #32]
    18ee:	3324      	adds	r3, #36	; 0x24
    18f0:	687a      	ldr	r2, [r7, #4]
    18f2:	0011      	movs	r1, r2
    18f4:	0018      	movs	r0, r3
    18f6:	4b1d      	ldr	r3, [pc, #116]	; (196c <xQueueReceive+0x194>)
    18f8:	4798      	blx	r3
				prvUnlockQueue( pxQueue );
    18fa:	6a3b      	ldr	r3, [r7, #32]
    18fc:	0018      	movs	r0, r3
    18fe:	4b1c      	ldr	r3, [pc, #112]	; (1970 <xQueueReceive+0x198>)
    1900:	4798      	blx	r3
				if( xTaskResumeAll() == pdFALSE )
    1902:	4b1c      	ldr	r3, [pc, #112]	; (1974 <xQueueReceive+0x19c>)
    1904:	4798      	blx	r3
    1906:	1e03      	subs	r3, r0, #0
    1908:	d191      	bne.n	182e <xQueueReceive+0x56>
				{
					portYIELD_WITHIN_API();
    190a:	4b12      	ldr	r3, [pc, #72]	; (1954 <xQueueReceive+0x17c>)
    190c:	4798      	blx	r3
    190e:	e78e      	b.n	182e <xQueueReceive+0x56>
			}
			else
			{
				/* The queue contains data again.  Loop back to try and read the
				data. */
				prvUnlockQueue( pxQueue );
    1910:	6a3b      	ldr	r3, [r7, #32]
    1912:	0018      	movs	r0, r3
    1914:	4b16      	ldr	r3, [pc, #88]	; (1970 <xQueueReceive+0x198>)
    1916:	4798      	blx	r3
				( void ) xTaskResumeAll();
    1918:	4b16      	ldr	r3, [pc, #88]	; (1974 <xQueueReceive+0x19c>)
    191a:	4798      	blx	r3
    191c:	e787      	b.n	182e <xQueueReceive+0x56>
		}
		else
		{
			/* Timed out.  If there is no data in the queue exit, otherwise loop
			back and attempt to read the data. */
			prvUnlockQueue( pxQueue );
    191e:	6a3b      	ldr	r3, [r7, #32]
    1920:	0018      	movs	r0, r3
    1922:	4b13      	ldr	r3, [pc, #76]	; (1970 <xQueueReceive+0x198>)
    1924:	4798      	blx	r3
			( void ) xTaskResumeAll();
    1926:	4b13      	ldr	r3, [pc, #76]	; (1974 <xQueueReceive+0x19c>)
    1928:	4798      	blx	r3

			if( prvIsQueueEmpty( pxQueue ) != pdFALSE )
    192a:	6a3b      	ldr	r3, [r7, #32]
    192c:	0018      	movs	r0, r3
    192e:	4b0e      	ldr	r3, [pc, #56]	; (1968 <xQueueReceive+0x190>)
    1930:	4798      	blx	r3
    1932:	1e03      	subs	r3, r0, #0
    1934:	d100      	bne.n	1938 <xQueueReceive+0x160>
    1936:	e77a      	b.n	182e <xQueueReceive+0x56>
			{
				traceQUEUE_RECEIVE_FAILED( pxQueue );
				return errQUEUE_EMPTY;
    1938:	2300      	movs	r3, #0
			{
				mtCOVERAGE_TEST_MARKER();
			}
		}
	}
}
    193a:	0018      	movs	r0, r3
    193c:	46bd      	mov	sp, r7
    193e:	b00a      	add	sp, #40	; 0x28
    1940:	bd80      	pop	{r7, pc}
    1942:	46c0      	nop			; (mov r8, r8)
    1944:	000029cd 	.word	0x000029cd
    1948:	00001141 	.word	0x00001141
    194c:	00001c79 	.word	0x00001c79
    1950:	00002695 	.word	0x00002695
    1954:	00001121 	.word	0x00001121
    1958:	00001165 	.word	0x00001165
    195c:	00002755 	.word	0x00002755
    1960:	00002259 	.word	0x00002259
    1964:	0000277d 	.word	0x0000277d
    1968:	00001db9 	.word	0x00001db9
    196c:	000025fd 	.word	0x000025fd
    1970:	00001cc9 	.word	0x00001cc9
    1974:	00002271 	.word	0x00002271

00001978 <xQueueSemaphoreTake>:
/*-----------------------------------------------------------*/

BaseType_t xQueueSemaphoreTake( QueueHandle_t xQueue, TickType_t xTicksToWait )
{
    1978:	b580      	push	{r7, lr}
    197a:	b08a      	sub	sp, #40	; 0x28
    197c:	af00      	add	r7, sp, #0
    197e:	6078      	str	r0, [r7, #4]
    1980:	6039      	str	r1, [r7, #0]
BaseType_t xEntryTimeSet = pdFALSE;
    1982:	2300      	movs	r3, #0
    1984:	627b      	str	r3, [r7, #36]	; 0x24
TimeOut_t xTimeOut;
Queue_t * const pxQueue = ( Queue_t * ) xQueue;
    1986:	687b      	ldr	r3, [r7, #4]
    1988:	61fb      	str	r3, [r7, #28]

#if( configUSE_MUTEXES == 1 )
	BaseType_t xInheritanceOccurred = pdFALSE;
    198a:	2300      	movs	r3, #0
    198c:	623b      	str	r3, [r7, #32]
#endif

	/* Check the queue pointer is not NULL. */
	configASSERT( ( pxQueue ) );
    198e:	69fb      	ldr	r3, [r7, #28]
    1990:	2b00      	cmp	r3, #0
    1992:	d101      	bne.n	1998 <xQueueSemaphoreTake+0x20>
    1994:	b672      	cpsid	i
    1996:	e7fe      	b.n	1996 <xQueueSemaphoreTake+0x1e>

	/* Check this really is a semaphore, in which case the item size will be
	0. */
	configASSERT( pxQueue->uxItemSize == 0 );
    1998:	69fb      	ldr	r3, [r7, #28]
    199a:	6c1b      	ldr	r3, [r3, #64]	; 0x40
    199c:	2b00      	cmp	r3, #0
    199e:	d001      	beq.n	19a4 <xQueueSemaphoreTake+0x2c>
    19a0:	b672      	cpsid	i
    19a2:	e7fe      	b.n	19a2 <xQueueSemaphoreTake+0x2a>

	/* Cannot block if the scheduler is suspended. */
	#if ( ( INCLUDE_xTaskGetSchedulerState == 1 ) || ( configUSE_TIMERS == 1 ) )
	{
		configASSERT( !( ( xTaskGetSchedulerState() == taskSCHEDULER_SUSPENDED ) && ( xTicksToWait != 0 ) ) );
    19a4:	4b61      	ldr	r3, [pc, #388]	; (1b2c <xQueueSemaphoreTake+0x1b4>)
    19a6:	4798      	blx	r3
    19a8:	1e03      	subs	r3, r0, #0
    19aa:	d102      	bne.n	19b2 <xQueueSemaphoreTake+0x3a>
    19ac:	683b      	ldr	r3, [r7, #0]
    19ae:	2b00      	cmp	r3, #0
    19b0:	d101      	bne.n	19b6 <xQueueSemaphoreTake+0x3e>
    19b2:	2301      	movs	r3, #1
    19b4:	e000      	b.n	19b8 <xQueueSemaphoreTake+0x40>
    19b6:	2300      	movs	r3, #0
    19b8:	2b00      	cmp	r3, #0
    19ba:	d101      	bne.n	19c0 <xQueueSemaphoreTake+0x48>
    19bc:	b672      	cpsid	i
    19be:	e7fe      	b.n	19be <xQueueSemaphoreTake+0x46>
	statements within the function itself.  This is done in the interest
	of execution time efficiency. */

	for( ;; )
	{
		taskENTER_CRITICAL();
    19c0:	4b5b      	ldr	r3, [pc, #364]	; (1b30 <xQueueSemaphoreTake+0x1b8>)
    19c2:	4798      	blx	r3
		{
			/* Semaphores are queues with an item size of 0, and where the
			number of messages in the queue is the semaphore's count value. */
			const UBaseType_t uxSemaphoreCount = pxQueue->uxMessagesWaiting;
    19c4:	69fb      	ldr	r3, [r7, #28]
    19c6:	6b9b      	ldr	r3, [r3, #56]	; 0x38
    19c8:	61bb      	str	r3, [r7, #24]

			/* Is there data in the queue now?  To be running the calling task
			must be the highest priority task wanting to access the queue. */
			if( uxSemaphoreCount > ( UBaseType_t ) 0 )
    19ca:	69bb      	ldr	r3, [r7, #24]
    19cc:	2b00      	cmp	r3, #0
    19ce:	d01d      	beq.n	1a0c <xQueueSemaphoreTake+0x94>
			{
				traceQUEUE_RECEIVE( pxQueue );

				/* Semaphores are queues with a data size of zero and where the
				messages waiting is the semaphore's count.  Reduce the count. */
				pxQueue->uxMessagesWaiting = uxSemaphoreCount - ( UBaseType_t ) 1;
    19d0:	69bb      	ldr	r3, [r7, #24]
    19d2:	1e5a      	subs	r2, r3, #1
    19d4:	69fb      	ldr	r3, [r7, #28]
    19d6:	639a      	str	r2, [r3, #56]	; 0x38

				#if ( configUSE_MUTEXES == 1 )
				{
					if( pxQueue->uxQueueType == queueQUEUE_IS_MUTEX )
    19d8:	69fb      	ldr	r3, [r7, #28]
    19da:	681b      	ldr	r3, [r3, #0]
    19dc:	2b00      	cmp	r3, #0
    19de:	d104      	bne.n	19ea <xQueueSemaphoreTake+0x72>
					{
						/* Record the information required to implement
						priority inheritance should it become necessary. */
						pxQueue->pxMutexHolder = ( int8_t * ) pvTaskIncrementMutexHeldCount(); /*lint !e961 Cast is not redundant as TaskHandle_t is a typedef. */
    19e0:	4b54      	ldr	r3, [pc, #336]	; (1b34 <xQueueSemaphoreTake+0x1bc>)
    19e2:	4798      	blx	r3
    19e4:	0002      	movs	r2, r0
    19e6:	69fb      	ldr	r3, [r7, #28]
    19e8:	605a      	str	r2, [r3, #4]
				}
				#endif /* configUSE_MUTEXES */

				/* Check to see if other tasks are blocked waiting to give the
				semaphore, and if so, unblock the highest priority such task. */
				if( listLIST_IS_EMPTY( &( pxQueue->xTasksWaitingToSend ) ) == pdFALSE )
    19ea:	69fb      	ldr	r3, [r7, #28]
    19ec:	691b      	ldr	r3, [r3, #16]
    19ee:	2b00      	cmp	r3, #0
    19f0:	d008      	beq.n	1a04 <xQueueSemaphoreTake+0x8c>
				{
					if( xTaskRemoveFromEventList( &( pxQueue->xTasksWaitingToSend ) ) != pdFALSE )
    19f2:	69fb      	ldr	r3, [r7, #28]
    19f4:	3310      	adds	r3, #16
    19f6:	0018      	movs	r0, r3
    19f8:	4b4f      	ldr	r3, [pc, #316]	; (1b38 <xQueueSemaphoreTake+0x1c0>)
    19fa:	4798      	blx	r3
    19fc:	1e03      	subs	r3, r0, #0
    19fe:	d001      	beq.n	1a04 <xQueueSemaphoreTake+0x8c>
					{
						queueYIELD_IF_USING_PREEMPTION();
    1a00:	4b4e      	ldr	r3, [pc, #312]	; (1b3c <xQueueSemaphoreTake+0x1c4>)
    1a02:	4798      	blx	r3
				else
				{
					mtCOVERAGE_TEST_MARKER();
				}

				taskEXIT_CRITICAL();
    1a04:	4b4e      	ldr	r3, [pc, #312]	; (1b40 <xQueueSemaphoreTake+0x1c8>)
    1a06:	4798      	blx	r3
				return pdPASS;
    1a08:	2301      	movs	r3, #1
    1a0a:	e08b      	b.n	1b24 <xQueueSemaphoreTake+0x1ac>
			}
			else
			{
				if( xTicksToWait == ( TickType_t ) 0 )
    1a0c:	683b      	ldr	r3, [r7, #0]
    1a0e:	2b00      	cmp	r3, #0
    1a10:	d108      	bne.n	1a24 <xQueueSemaphoreTake+0xac>
					/* For inheritance to have occurred there must have been an
					initial timeout, and an adjusted timeout cannot become 0, as
					if it were 0 the function would have exited. */
					#if( configUSE_MUTEXES == 1 )
					{
						configASSERT( xInheritanceOccurred == pdFALSE );
    1a12:	6a3b      	ldr	r3, [r7, #32]
    1a14:	2b00      	cmp	r3, #0
    1a16:	d001      	beq.n	1a1c <xQueueSemaphoreTake+0xa4>
    1a18:	b672      	cpsid	i
    1a1a:	e7fe      	b.n	1a1a <xQueueSemaphoreTake+0xa2>
					}
					#endif /* configUSE_MUTEXES */

					/* The semaphore count was 0 and no block time is specified
					(or the block time has expired) so exit now. */
					taskEXIT_CRITICAL();
    1a1c:	4b48      	ldr	r3, [pc, #288]	; (1b40 <xQueueSemaphoreTake+0x1c8>)
    1a1e:	4798      	blx	r3
					traceQUEUE_RECEIVE_FAILED( pxQueue );
					return errQUEUE_EMPTY;
    1a20:	2300      	movs	r3, #0
    1a22:	e07f      	b.n	1b24 <xQueueSemaphoreTake+0x1ac>
				}
				else if( xEntryTimeSet == pdFALSE )
    1a24:	6a7b      	ldr	r3, [r7, #36]	; 0x24
    1a26:	2b00      	cmp	r3, #0
    1a28:	d106      	bne.n	1a38 <xQueueSemaphoreTake+0xc0>
				{
					/* The semaphore count was 0 and a block time was specified
					so configure the timeout structure ready to block. */
					vTaskInternalSetTimeOutState( &xTimeOut );
    1a2a:	230c      	movs	r3, #12
    1a2c:	18fb      	adds	r3, r7, r3
    1a2e:	0018      	movs	r0, r3
    1a30:	4b44      	ldr	r3, [pc, #272]	; (1b44 <xQueueSemaphoreTake+0x1cc>)
    1a32:	4798      	blx	r3
					xEntryTimeSet = pdTRUE;
    1a34:	2301      	movs	r3, #1
    1a36:	627b      	str	r3, [r7, #36]	; 0x24
					/* Entry time was already set. */
					mtCOVERAGE_TEST_MARKER();
				}
			}
		}
		taskEXIT_CRITICAL();
    1a38:	4b41      	ldr	r3, [pc, #260]	; (1b40 <xQueueSemaphoreTake+0x1c8>)
    1a3a:	4798      	blx	r3

		/* Interrupts and other tasks can give to and take from the semaphore
		now the critical section has been exited. */

		vTaskSuspendAll();
    1a3c:	4b42      	ldr	r3, [pc, #264]	; (1b48 <xQueueSemaphoreTake+0x1d0>)
    1a3e:	4798      	blx	r3
		prvLockQueue( pxQueue );
    1a40:	4b3b      	ldr	r3, [pc, #236]	; (1b30 <xQueueSemaphoreTake+0x1b8>)
    1a42:	4798      	blx	r3
    1a44:	69fb      	ldr	r3, [r7, #28]
    1a46:	2244      	movs	r2, #68	; 0x44
    1a48:	5c9b      	ldrb	r3, [r3, r2]
    1a4a:	b25b      	sxtb	r3, r3
    1a4c:	3301      	adds	r3, #1
    1a4e:	d103      	bne.n	1a58 <xQueueSemaphoreTake+0xe0>
    1a50:	69fb      	ldr	r3, [r7, #28]
    1a52:	2244      	movs	r2, #68	; 0x44
    1a54:	2100      	movs	r1, #0
    1a56:	5499      	strb	r1, [r3, r2]
    1a58:	69fb      	ldr	r3, [r7, #28]
    1a5a:	2245      	movs	r2, #69	; 0x45
    1a5c:	5c9b      	ldrb	r3, [r3, r2]
    1a5e:	b25b      	sxtb	r3, r3
    1a60:	3301      	adds	r3, #1
    1a62:	d103      	bne.n	1a6c <xQueueSemaphoreTake+0xf4>
    1a64:	69fb      	ldr	r3, [r7, #28]
    1a66:	2245      	movs	r2, #69	; 0x45
    1a68:	2100      	movs	r1, #0
    1a6a:	5499      	strb	r1, [r3, r2]
    1a6c:	4b34      	ldr	r3, [pc, #208]	; (1b40 <xQueueSemaphoreTake+0x1c8>)
    1a6e:	4798      	blx	r3

		/* Update the timeout state to see if it has expired yet. */
		if( xTaskCheckForTimeOut( &xTimeOut, &xTicksToWait ) == pdFALSE )
    1a70:	003a      	movs	r2, r7
    1a72:	230c      	movs	r3, #12
    1a74:	18fb      	adds	r3, r7, r3
    1a76:	0011      	movs	r1, r2
    1a78:	0018      	movs	r0, r3
    1a7a:	4b34      	ldr	r3, [pc, #208]	; (1b4c <xQueueSemaphoreTake+0x1d4>)
    1a7c:	4798      	blx	r3
    1a7e:	1e03      	subs	r3, r0, #0
    1a80:	d12e      	bne.n	1ae0 <xQueueSemaphoreTake+0x168>
		{
			/* A block time is specified and not expired.  If the semaphore
			count is 0 then enter the Blocked state to wait for a semaphore to
			become available.  As semaphores are implemented with queues the
			queue being empty is equivalent to the semaphore count being 0. */
			if( prvIsQueueEmpty( pxQueue ) != pdFALSE )
    1a82:	69fb      	ldr	r3, [r7, #28]
    1a84:	0018      	movs	r0, r3
    1a86:	4b32      	ldr	r3, [pc, #200]	; (1b50 <xQueueSemaphoreTake+0x1d8>)
    1a88:	4798      	blx	r3
    1a8a:	1e03      	subs	r3, r0, #0
    1a8c:	d021      	beq.n	1ad2 <xQueueSemaphoreTake+0x15a>
			{
				traceBLOCKING_ON_QUEUE_RECEIVE( pxQueue );

				#if ( configUSE_MUTEXES == 1 )
				{
					if( pxQueue->uxQueueType == queueQUEUE_IS_MUTEX )
    1a8e:	69fb      	ldr	r3, [r7, #28]
    1a90:	681b      	ldr	r3, [r3, #0]
    1a92:	2b00      	cmp	r3, #0
    1a94:	d10a      	bne.n	1aac <xQueueSemaphoreTake+0x134>
					{
						taskENTER_CRITICAL();
    1a96:	4b26      	ldr	r3, [pc, #152]	; (1b30 <xQueueSemaphoreTake+0x1b8>)
    1a98:	4798      	blx	r3
						{
							xInheritanceOccurred = xTaskPriorityInherit( ( void * ) pxQueue->pxMutexHolder );
    1a9a:	69fb      	ldr	r3, [r7, #28]
    1a9c:	685b      	ldr	r3, [r3, #4]
    1a9e:	0018      	movs	r0, r3
    1aa0:	4b2c      	ldr	r3, [pc, #176]	; (1b54 <xQueueSemaphoreTake+0x1dc>)
    1aa2:	4798      	blx	r3
    1aa4:	0003      	movs	r3, r0
    1aa6:	623b      	str	r3, [r7, #32]
						}
						taskEXIT_CRITICAL();
    1aa8:	4b25      	ldr	r3, [pc, #148]	; (1b40 <xQueueSemaphoreTake+0x1c8>)
    1aaa:	4798      	blx	r3
						mtCOVERAGE_TEST_MARKER();
					}
				}
				#endif

				vTaskPlaceOnEventList( &( pxQueue->xTasksWaitingToReceive ), xTicksToWait );
    1aac:	69fb      	ldr	r3, [r7, #28]
    1aae:	3324      	adds	r3, #36	; 0x24
    1ab0:	683a      	ldr	r2, [r7, #0]
    1ab2:	0011      	movs	r1, r2
    1ab4:	0018      	movs	r0, r3
    1ab6:	4b28      	ldr	r3, [pc, #160]	; (1b58 <xQueueSemaphoreTake+0x1e0>)
    1ab8:	4798      	blx	r3
				prvUnlockQueue( pxQueue );
    1aba:	69fb      	ldr	r3, [r7, #28]
    1abc:	0018      	movs	r0, r3
    1abe:	4b27      	ldr	r3, [pc, #156]	; (1b5c <xQueueSemaphoreTake+0x1e4>)
    1ac0:	4798      	blx	r3
				if( xTaskResumeAll() == pdFALSE )
    1ac2:	4b27      	ldr	r3, [pc, #156]	; (1b60 <xQueueSemaphoreTake+0x1e8>)
    1ac4:	4798      	blx	r3
    1ac6:	1e03      	subs	r3, r0, #0
    1ac8:	d000      	beq.n	1acc <xQueueSemaphoreTake+0x154>
    1aca:	e779      	b.n	19c0 <xQueueSemaphoreTake+0x48>
				{
					portYIELD_WITHIN_API();
    1acc:	4b1b      	ldr	r3, [pc, #108]	; (1b3c <xQueueSemaphoreTake+0x1c4>)
    1ace:	4798      	blx	r3
    1ad0:	e776      	b.n	19c0 <xQueueSemaphoreTake+0x48>
			}
			else
			{
				/* There was no timeout and the semaphore count was not 0, so
				attempt to take the semaphore again. */
				prvUnlockQueue( pxQueue );
    1ad2:	69fb      	ldr	r3, [r7, #28]
    1ad4:	0018      	movs	r0, r3
    1ad6:	4b21      	ldr	r3, [pc, #132]	; (1b5c <xQueueSemaphoreTake+0x1e4>)
    1ad8:	4798      	blx	r3
				( void ) xTaskResumeAll();
    1ada:	4b21      	ldr	r3, [pc, #132]	; (1b60 <xQueueSemaphoreTake+0x1e8>)
    1adc:	4798      	blx	r3
    1ade:	e76f      	b.n	19c0 <xQueueSemaphoreTake+0x48>
			}
		}
		else
		{
			/* Timed out. */
			prvUnlockQueue( pxQueue );
    1ae0:	69fb      	ldr	r3, [r7, #28]
    1ae2:	0018      	movs	r0, r3
    1ae4:	4b1d      	ldr	r3, [pc, #116]	; (1b5c <xQueueSemaphoreTake+0x1e4>)
    1ae6:	4798      	blx	r3
			( void ) xTaskResumeAll();
    1ae8:	4b1d      	ldr	r3, [pc, #116]	; (1b60 <xQueueSemaphoreTake+0x1e8>)
    1aea:	4798      	blx	r3

			/* If the semaphore count is 0 exit now as the timeout has
			expired.  Otherwise return to attempt to take the semaphore that is
			known to be available.  As semaphores are implemented by queues the
			queue being empty is equivalent to the semaphore count being 0. */
			if( prvIsQueueEmpty( pxQueue ) != pdFALSE )
    1aec:	69fb      	ldr	r3, [r7, #28]
    1aee:	0018      	movs	r0, r3
    1af0:	4b17      	ldr	r3, [pc, #92]	; (1b50 <xQueueSemaphoreTake+0x1d8>)
    1af2:	4798      	blx	r3
    1af4:	1e03      	subs	r3, r0, #0
    1af6:	d100      	bne.n	1afa <xQueueSemaphoreTake+0x182>
    1af8:	e762      	b.n	19c0 <xQueueSemaphoreTake+0x48>
				#if ( configUSE_MUTEXES == 1 )
				{
					/* xInheritanceOccurred could only have be set if
					pxQueue->uxQueueType == queueQUEUE_IS_MUTEX so no need to
					test the mutex type again to check it is actually a mutex. */
					if( xInheritanceOccurred != pdFALSE )
    1afa:	6a3b      	ldr	r3, [r7, #32]
    1afc:	2b00      	cmp	r3, #0
    1afe:	d010      	beq.n	1b22 <xQueueSemaphoreTake+0x1aa>
					{
						taskENTER_CRITICAL();
    1b00:	4b0b      	ldr	r3, [pc, #44]	; (1b30 <xQueueSemaphoreTake+0x1b8>)
    1b02:	4798      	blx	r3
							/* This task blocking on the mutex caused another
							task to inherit this task's priority.  Now this task
							has timed out the priority should be disinherited
							again, but only as low as the next highest priority
							task that is waiting for the same mutex. */
							uxHighestWaitingPriority = prvGetDisinheritPriorityAfterTimeout( pxQueue );
    1b04:	69fb      	ldr	r3, [r7, #28]
    1b06:	0018      	movs	r0, r3
    1b08:	4b16      	ldr	r3, [pc, #88]	; (1b64 <xQueueSemaphoreTake+0x1ec>)
    1b0a:	4798      	blx	r3
    1b0c:	0003      	movs	r3, r0
    1b0e:	617b      	str	r3, [r7, #20]
							vTaskPriorityDisinheritAfterTimeout( ( void * ) pxQueue->pxMutexHolder, uxHighestWaitingPriority );
    1b10:	69fb      	ldr	r3, [r7, #28]
    1b12:	685b      	ldr	r3, [r3, #4]
    1b14:	697a      	ldr	r2, [r7, #20]
    1b16:	0011      	movs	r1, r2
    1b18:	0018      	movs	r0, r3
    1b1a:	4b13      	ldr	r3, [pc, #76]	; (1b68 <xQueueSemaphoreTake+0x1f0>)
    1b1c:	4798      	blx	r3
						}
						taskEXIT_CRITICAL();
    1b1e:	4b08      	ldr	r3, [pc, #32]	; (1b40 <xQueueSemaphoreTake+0x1c8>)
    1b20:	4798      	blx	r3
					}
				}
				#endif /* configUSE_MUTEXES */

				traceQUEUE_RECEIVE_FAILED( pxQueue );
				return errQUEUE_EMPTY;
    1b22:	2300      	movs	r3, #0
			{
				mtCOVERAGE_TEST_MARKER();
			}
		}
	}
}
    1b24:	0018      	movs	r0, r3
    1b26:	46bd      	mov	sp, r7
    1b28:	b00a      	add	sp, #40	; 0x28
    1b2a:	bd80      	pop	{r7, pc}
    1b2c:	000029cd 	.word	0x000029cd
    1b30:	00001141 	.word	0x00001141
    1b34:	00002c99 	.word	0x00002c99
    1b38:	00002695 	.word	0x00002695
    1b3c:	00001121 	.word	0x00001121
    1b40:	00001165 	.word	0x00001165
    1b44:	00002755 	.word	0x00002755
    1b48:	00002259 	.word	0x00002259
    1b4c:	0000277d 	.word	0x0000277d
    1b50:	00001db9 	.word	0x00001db9
    1b54:	00002a05 	.word	0x00002a05
    1b58:	000025fd 	.word	0x000025fd
    1b5c:	00001cc9 	.word	0x00001cc9
    1b60:	00002271 	.word	0x00002271
    1b64:	00001b6d 	.word	0x00001b6d
    1b68:	00002ba9 	.word	0x00002ba9

00001b6c <prvGetDisinheritPriorityAfterTimeout>:
/*-----------------------------------------------------------*/

#if( configUSE_MUTEXES == 1 )

	static UBaseType_t prvGetDisinheritPriorityAfterTimeout( const Queue_t * const pxQueue )
	{
    1b6c:	b580      	push	{r7, lr}
    1b6e:	b084      	sub	sp, #16
    1b70:	af00      	add	r7, sp, #0
    1b72:	6078      	str	r0, [r7, #4]
		priority, but the waiting task times out, then the holder should
		disinherit the priority - but only down to the highest priority of any
		other tasks that are waiting for the same mutex.  For this purpose,
		return the priority of the highest priority task that is waiting for the
		mutex. */
		if( listCURRENT_LIST_LENGTH( &( pxQueue->xTasksWaitingToReceive ) ) > 0 )
    1b74:	687b      	ldr	r3, [r7, #4]
    1b76:	6a5b      	ldr	r3, [r3, #36]	; 0x24
    1b78:	2b00      	cmp	r3, #0
    1b7a:	d006      	beq.n	1b8a <prvGetDisinheritPriorityAfterTimeout+0x1e>
		{
			uxHighestPriorityOfWaitingTasks = configMAX_PRIORITIES - listGET_ITEM_VALUE_OF_HEAD_ENTRY( &( pxQueue->xTasksWaitingToReceive ) );
    1b7c:	687b      	ldr	r3, [r7, #4]
    1b7e:	6b1b      	ldr	r3, [r3, #48]	; 0x30
    1b80:	681b      	ldr	r3, [r3, #0]
    1b82:	2205      	movs	r2, #5
    1b84:	1ad3      	subs	r3, r2, r3
    1b86:	60fb      	str	r3, [r7, #12]
    1b88:	e001      	b.n	1b8e <prvGetDisinheritPriorityAfterTimeout+0x22>
		}
		else
		{
			uxHighestPriorityOfWaitingTasks = tskIDLE_PRIORITY;
    1b8a:	2300      	movs	r3, #0
    1b8c:	60fb      	str	r3, [r7, #12]
		}

		return uxHighestPriorityOfWaitingTasks;
    1b8e:	68fb      	ldr	r3, [r7, #12]
	}
    1b90:	0018      	movs	r0, r3
    1b92:	46bd      	mov	sp, r7
    1b94:	b004      	add	sp, #16
    1b96:	bd80      	pop	{r7, pc}

00001b98 <prvCopyDataToQueue>:

#endif /* configUSE_MUTEXES */
/*-----------------------------------------------------------*/

static BaseType_t prvCopyDataToQueue( Queue_t * const pxQueue, const void *pvItemToQueue, const BaseType_t xPosition )
{
    1b98:	b580      	push	{r7, lr}
    1b9a:	b086      	sub	sp, #24
    1b9c:	af00      	add	r7, sp, #0
    1b9e:	60f8      	str	r0, [r7, #12]
    1ba0:	60b9      	str	r1, [r7, #8]
    1ba2:	607a      	str	r2, [r7, #4]
BaseType_t xReturn = pdFALSE;
    1ba4:	2300      	movs	r3, #0
    1ba6:	617b      	str	r3, [r7, #20]
UBaseType_t uxMessagesWaiting;

	/* This function is called from a critical section. */

	uxMessagesWaiting = pxQueue->uxMessagesWaiting;
    1ba8:	68fb      	ldr	r3, [r7, #12]
    1baa:	6b9b      	ldr	r3, [r3, #56]	; 0x38
    1bac:	613b      	str	r3, [r7, #16]

	if( pxQueue->uxItemSize == ( UBaseType_t ) 0 )
    1bae:	68fb      	ldr	r3, [r7, #12]
    1bb0:	6c1b      	ldr	r3, [r3, #64]	; 0x40
    1bb2:	2b00      	cmp	r3, #0
    1bb4:	d10e      	bne.n	1bd4 <prvCopyDataToQueue+0x3c>
	{
		#if ( configUSE_MUTEXES == 1 )
		{
			if( pxQueue->uxQueueType == queueQUEUE_IS_MUTEX )
    1bb6:	68fb      	ldr	r3, [r7, #12]
    1bb8:	681b      	ldr	r3, [r3, #0]
    1bba:	2b00      	cmp	r3, #0
    1bbc:	d14e      	bne.n	1c5c <prvCopyDataToQueue+0xc4>
			{
				/* The mutex is no longer being held. */
				xReturn = xTaskPriorityDisinherit( ( void * ) pxQueue->pxMutexHolder );
    1bbe:	68fb      	ldr	r3, [r7, #12]
    1bc0:	685b      	ldr	r3, [r3, #4]
    1bc2:	0018      	movs	r0, r3
    1bc4:	4b2a      	ldr	r3, [pc, #168]	; (1c70 <prvCopyDataToQueue+0xd8>)
    1bc6:	4798      	blx	r3
    1bc8:	0003      	movs	r3, r0
    1bca:	617b      	str	r3, [r7, #20]
				pxQueue->pxMutexHolder = NULL;
    1bcc:	68fb      	ldr	r3, [r7, #12]
    1bce:	2200      	movs	r2, #0
    1bd0:	605a      	str	r2, [r3, #4]
    1bd2:	e043      	b.n	1c5c <prvCopyDataToQueue+0xc4>
				mtCOVERAGE_TEST_MARKER();
			}
		}
		#endif /* configUSE_MUTEXES */
	}
	else if( xPosition == queueSEND_TO_BACK )
    1bd4:	687b      	ldr	r3, [r7, #4]
    1bd6:	2b00      	cmp	r3, #0
    1bd8:	d119      	bne.n	1c0e <prvCopyDataToQueue+0x76>
	{
		( void ) memcpy( ( void * ) pxQueue->pcWriteTo, pvItemToQueue, ( size_t ) pxQueue->uxItemSize ); /*lint !e961 !e418 MISRA exception as the casts are only redundant for some ports, plus previous logic ensures a null pointer can only be passed to memcpy() if the copy size is 0. */
    1bda:	68fb      	ldr	r3, [r7, #12]
    1bdc:	6898      	ldr	r0, [r3, #8]
    1bde:	68fb      	ldr	r3, [r7, #12]
    1be0:	6c1a      	ldr	r2, [r3, #64]	; 0x40
    1be2:	68bb      	ldr	r3, [r7, #8]
    1be4:	0019      	movs	r1, r3
    1be6:	4b23      	ldr	r3, [pc, #140]	; (1c74 <prvCopyDataToQueue+0xdc>)
    1be8:	4798      	blx	r3
		pxQueue->pcWriteTo += pxQueue->uxItemSize;
    1bea:	68fb      	ldr	r3, [r7, #12]
    1bec:	689a      	ldr	r2, [r3, #8]
    1bee:	68fb      	ldr	r3, [r7, #12]
    1bf0:	6c1b      	ldr	r3, [r3, #64]	; 0x40
    1bf2:	18d2      	adds	r2, r2, r3
    1bf4:	68fb      	ldr	r3, [r7, #12]
    1bf6:	609a      	str	r2, [r3, #8]
		if( pxQueue->pcWriteTo >= pxQueue->pcTail ) /*lint !e946 MISRA exception justified as comparison of pointers is the cleanest solution. */
    1bf8:	68fb      	ldr	r3, [r7, #12]
    1bfa:	689a      	ldr	r2, [r3, #8]
    1bfc:	68fb      	ldr	r3, [r7, #12]
    1bfe:	685b      	ldr	r3, [r3, #4]
    1c00:	429a      	cmp	r2, r3
    1c02:	d32b      	bcc.n	1c5c <prvCopyDataToQueue+0xc4>
		{
			pxQueue->pcWriteTo = pxQueue->pcHead;
    1c04:	68fb      	ldr	r3, [r7, #12]
    1c06:	681a      	ldr	r2, [r3, #0]
    1c08:	68fb      	ldr	r3, [r7, #12]
    1c0a:	609a      	str	r2, [r3, #8]
    1c0c:	e026      	b.n	1c5c <prvCopyDataToQueue+0xc4>
			mtCOVERAGE_TEST_MARKER();
		}
	}
	else
	{
		( void ) memcpy( ( void * ) pxQueue->u.pcReadFrom, pvItemToQueue, ( size_t ) pxQueue->uxItemSize ); /*lint !e961 MISRA exception as the casts are only redundant for some ports. */
    1c0e:	68fb      	ldr	r3, [r7, #12]
    1c10:	68d8      	ldr	r0, [r3, #12]
    1c12:	68fb      	ldr	r3, [r7, #12]
    1c14:	6c1a      	ldr	r2, [r3, #64]	; 0x40
    1c16:	68bb      	ldr	r3, [r7, #8]
    1c18:	0019      	movs	r1, r3
    1c1a:	4b16      	ldr	r3, [pc, #88]	; (1c74 <prvCopyDataToQueue+0xdc>)
    1c1c:	4798      	blx	r3
		pxQueue->u.pcReadFrom -= pxQueue->uxItemSize;
    1c1e:	68fb      	ldr	r3, [r7, #12]
    1c20:	68da      	ldr	r2, [r3, #12]
    1c22:	68fb      	ldr	r3, [r7, #12]
    1c24:	6c1b      	ldr	r3, [r3, #64]	; 0x40
    1c26:	425b      	negs	r3, r3
    1c28:	18d2      	adds	r2, r2, r3
    1c2a:	68fb      	ldr	r3, [r7, #12]
    1c2c:	60da      	str	r2, [r3, #12]
		if( pxQueue->u.pcReadFrom < pxQueue->pcHead ) /*lint !e946 MISRA exception justified as comparison of pointers is the cleanest solution. */
    1c2e:	68fb      	ldr	r3, [r7, #12]
    1c30:	68da      	ldr	r2, [r3, #12]
    1c32:	68fb      	ldr	r3, [r7, #12]
    1c34:	681b      	ldr	r3, [r3, #0]
    1c36:	429a      	cmp	r2, r3
    1c38:	d207      	bcs.n	1c4a <prvCopyDataToQueue+0xb2>
		{
			pxQueue->u.pcReadFrom = ( pxQueue->pcTail - pxQueue->uxItemSize );
    1c3a:	68fb      	ldr	r3, [r7, #12]
    1c3c:	685a      	ldr	r2, [r3, #4]
    1c3e:	68fb      	ldr	r3, [r7, #12]
    1c40:	6c1b      	ldr	r3, [r3, #64]	; 0x40
    1c42:	425b      	negs	r3, r3
    1c44:	18d2      	adds	r2, r2, r3
    1c46:	68fb      	ldr	r3, [r7, #12]
    1c48:	60da      	str	r2, [r3, #12]
		else
		{
			mtCOVERAGE_TEST_MARKER();
		}

		if( xPosition == queueOVERWRITE )
    1c4a:	687b      	ldr	r3, [r7, #4]
    1c4c:	2b02      	cmp	r3, #2
    1c4e:	d105      	bne.n	1c5c <prvCopyDataToQueue+0xc4>
		{
			if( uxMessagesWaiting > ( UBaseType_t ) 0 )
    1c50:	693b      	ldr	r3, [r7, #16]
    1c52:	2b00      	cmp	r3, #0
    1c54:	d002      	beq.n	1c5c <prvCopyDataToQueue+0xc4>
			{
				/* An item is not being added but overwritten, so subtract
				one from the recorded number of items in the queue so when
				one is added again below the number of recorded items remains
				correct. */
				--uxMessagesWaiting;
    1c56:	693b      	ldr	r3, [r7, #16]
    1c58:	3b01      	subs	r3, #1
    1c5a:	613b      	str	r3, [r7, #16]
		{
			mtCOVERAGE_TEST_MARKER();
		}
	}

	pxQueue->uxMessagesWaiting = uxMessagesWaiting + ( UBaseType_t ) 1;
    1c5c:	693b      	ldr	r3, [r7, #16]
    1c5e:	1c5a      	adds	r2, r3, #1
    1c60:	68fb      	ldr	r3, [r7, #12]
    1c62:	639a      	str	r2, [r3, #56]	; 0x38

	return xReturn;
    1c64:	697b      	ldr	r3, [r7, #20]
}
    1c66:	0018      	movs	r0, r3
    1c68:	46bd      	mov	sp, r7
    1c6a:	b006      	add	sp, #24
    1c6c:	bd80      	pop	{r7, pc}
    1c6e:	46c0      	nop			; (mov r8, r8)
    1c70:	00002ae9 	.word	0x00002ae9
    1c74:	00005839 	.word	0x00005839

00001c78 <prvCopyDataFromQueue>:
/*-----------------------------------------------------------*/

static void prvCopyDataFromQueue( Queue_t * const pxQueue, void * const pvBuffer )
{
    1c78:	b580      	push	{r7, lr}
    1c7a:	b082      	sub	sp, #8
    1c7c:	af00      	add	r7, sp, #0
    1c7e:	6078      	str	r0, [r7, #4]
    1c80:	6039      	str	r1, [r7, #0]
	if( pxQueue->uxItemSize != ( UBaseType_t ) 0 )
    1c82:	687b      	ldr	r3, [r7, #4]
    1c84:	6c1b      	ldr	r3, [r3, #64]	; 0x40
    1c86:	2b00      	cmp	r3, #0
    1c88:	d018      	beq.n	1cbc <prvCopyDataFromQueue+0x44>
	{
		pxQueue->u.pcReadFrom += pxQueue->uxItemSize;
    1c8a:	687b      	ldr	r3, [r7, #4]
    1c8c:	68da      	ldr	r2, [r3, #12]
    1c8e:	687b      	ldr	r3, [r7, #4]
    1c90:	6c1b      	ldr	r3, [r3, #64]	; 0x40
    1c92:	18d2      	adds	r2, r2, r3
    1c94:	687b      	ldr	r3, [r7, #4]
    1c96:	60da      	str	r2, [r3, #12]
		if( pxQueue->u.pcReadFrom >= pxQueue->pcTail ) /*lint !e946 MISRA exception justified as use of the relational operator is the cleanest solutions. */
    1c98:	687b      	ldr	r3, [r7, #4]
    1c9a:	68da      	ldr	r2, [r3, #12]
    1c9c:	687b      	ldr	r3, [r7, #4]
    1c9e:	685b      	ldr	r3, [r3, #4]
    1ca0:	429a      	cmp	r2, r3
    1ca2:	d303      	bcc.n	1cac <prvCopyDataFromQueue+0x34>
		{
			pxQueue->u.pcReadFrom = pxQueue->pcHead;
    1ca4:	687b      	ldr	r3, [r7, #4]
    1ca6:	681a      	ldr	r2, [r3, #0]
    1ca8:	687b      	ldr	r3, [r7, #4]
    1caa:	60da      	str	r2, [r3, #12]
		}
		else
		{
			mtCOVERAGE_TEST_MARKER();
		}
		( void ) memcpy( ( void * ) pvBuffer, ( void * ) pxQueue->u.pcReadFrom, ( size_t ) pxQueue->uxItemSize ); /*lint !e961 !e418 MISRA exception as the casts are only redundant for some ports.  Also previous logic ensures a null pointer can only be passed to memcpy() when the count is 0. */
    1cac:	687b      	ldr	r3, [r7, #4]
    1cae:	68d9      	ldr	r1, [r3, #12]
    1cb0:	687b      	ldr	r3, [r7, #4]
    1cb2:	6c1a      	ldr	r2, [r3, #64]	; 0x40
    1cb4:	683b      	ldr	r3, [r7, #0]
    1cb6:	0018      	movs	r0, r3
    1cb8:	4b02      	ldr	r3, [pc, #8]	; (1cc4 <prvCopyDataFromQueue+0x4c>)
    1cba:	4798      	blx	r3
	}
}
    1cbc:	46c0      	nop			; (mov r8, r8)
    1cbe:	46bd      	mov	sp, r7
    1cc0:	b002      	add	sp, #8
    1cc2:	bd80      	pop	{r7, pc}
    1cc4:	00005839 	.word	0x00005839

00001cc8 <prvUnlockQueue>:
/*-----------------------------------------------------------*/

static void prvUnlockQueue( Queue_t * const pxQueue )
{
    1cc8:	b580      	push	{r7, lr}
    1cca:	b084      	sub	sp, #16
    1ccc:	af00      	add	r7, sp, #0
    1cce:	6078      	str	r0, [r7, #4]

	/* The lock counts contains the number of extra data items placed or
	removed from the queue while the queue was locked.  When a queue is
	locked items can be added or removed, but the event lists cannot be
	updated. */
	taskENTER_CRITICAL();
    1cd0:	4b34      	ldr	r3, [pc, #208]	; (1da4 <prvUnlockQueue+0xdc>)
    1cd2:	4798      	blx	r3
	{
		int8_t cTxLock = pxQueue->cTxLock;
    1cd4:	230f      	movs	r3, #15
    1cd6:	18fb      	adds	r3, r7, r3
    1cd8:	687a      	ldr	r2, [r7, #4]
    1cda:	2145      	movs	r1, #69	; 0x45
    1cdc:	5c52      	ldrb	r2, [r2, r1]
    1cde:	701a      	strb	r2, [r3, #0]

		/* See if data was added to the queue while it was locked. */
		while( cTxLock > queueLOCKED_UNMODIFIED )
    1ce0:	e022      	b.n	1d28 <prvUnlockQueue+0x60>
		{
			/* Data was posted while the queue was locked.  Are any tasks
			blocked waiting for data to become available? */
			#if ( configUSE_QUEUE_SETS == 1 )
			{
				if( pxQueue->pxQueueSetContainer != NULL )
    1ce2:	687b      	ldr	r3, [r7, #4]
    1ce4:	6c9b      	ldr	r3, [r3, #72]	; 0x48
    1ce6:	2b00      	cmp	r3, #0
    1ce8:	d009      	beq.n	1cfe <prvUnlockQueue+0x36>
				{
					if( prvNotifyQueueSetContainer( pxQueue, queueSEND_TO_BACK ) != pdFALSE )
    1cea:	687b      	ldr	r3, [r7, #4]
    1cec:	2100      	movs	r1, #0
    1cee:	0018      	movs	r0, r3
    1cf0:	4b2d      	ldr	r3, [pc, #180]	; (1da8 <prvUnlockQueue+0xe0>)
    1cf2:	4798      	blx	r3
    1cf4:	1e03      	subs	r3, r0, #0
    1cf6:	d00f      	beq.n	1d18 <prvUnlockQueue+0x50>
					{
						/* The queue is a member of a queue set, and posting to
						the queue set caused a higher priority task to unblock.
						A context switch is required. */
						vTaskMissedYield();
    1cf8:	4b2c      	ldr	r3, [pc, #176]	; (1dac <prvUnlockQueue+0xe4>)
    1cfa:	4798      	blx	r3
    1cfc:	e00c      	b.n	1d18 <prvUnlockQueue+0x50>
				else
				{
					/* Tasks that are removed from the event list will get
					added to the pending ready list as the scheduler is still
					suspended. */
					if( listLIST_IS_EMPTY( &( pxQueue->xTasksWaitingToReceive ) ) == pdFALSE )
    1cfe:	687b      	ldr	r3, [r7, #4]
    1d00:	6a5b      	ldr	r3, [r3, #36]	; 0x24
    1d02:	2b00      	cmp	r3, #0
    1d04:	d017      	beq.n	1d36 <prvUnlockQueue+0x6e>
					{
						if( xTaskRemoveFromEventList( &( pxQueue->xTasksWaitingToReceive ) ) != pdFALSE )
    1d06:	687b      	ldr	r3, [r7, #4]
    1d08:	3324      	adds	r3, #36	; 0x24
    1d0a:	0018      	movs	r0, r3
    1d0c:	4b28      	ldr	r3, [pc, #160]	; (1db0 <prvUnlockQueue+0xe8>)
    1d0e:	4798      	blx	r3
    1d10:	1e03      	subs	r3, r0, #0
    1d12:	d001      	beq.n	1d18 <prvUnlockQueue+0x50>
						{
							/* The task waiting has a higher priority so record that a
							context	switch is required. */
							vTaskMissedYield();
    1d14:	4b25      	ldr	r3, [pc, #148]	; (1dac <prvUnlockQueue+0xe4>)
    1d16:	4798      	blx	r3
					break;
				}
			}
			#endif /* configUSE_QUEUE_SETS */

			--cTxLock;
    1d18:	230f      	movs	r3, #15
    1d1a:	18fb      	adds	r3, r7, r3
    1d1c:	781b      	ldrb	r3, [r3, #0]
    1d1e:	3b01      	subs	r3, #1
    1d20:	b2da      	uxtb	r2, r3
    1d22:	230f      	movs	r3, #15
    1d24:	18fb      	adds	r3, r7, r3
    1d26:	701a      	strb	r2, [r3, #0]
		while( cTxLock > queueLOCKED_UNMODIFIED )
    1d28:	230f      	movs	r3, #15
    1d2a:	18fb      	adds	r3, r7, r3
    1d2c:	781b      	ldrb	r3, [r3, #0]
    1d2e:	b25b      	sxtb	r3, r3
    1d30:	2b00      	cmp	r3, #0
    1d32:	dcd6      	bgt.n	1ce2 <prvUnlockQueue+0x1a>
    1d34:	e000      	b.n	1d38 <prvUnlockQueue+0x70>
						break;
    1d36:	46c0      	nop			; (mov r8, r8)
		}

		pxQueue->cTxLock = queueUNLOCKED;
    1d38:	687b      	ldr	r3, [r7, #4]
    1d3a:	2245      	movs	r2, #69	; 0x45
    1d3c:	21ff      	movs	r1, #255	; 0xff
    1d3e:	5499      	strb	r1, [r3, r2]
	}
	taskEXIT_CRITICAL();
    1d40:	4b1c      	ldr	r3, [pc, #112]	; (1db4 <prvUnlockQueue+0xec>)
    1d42:	4798      	blx	r3

	/* Do the same for the Rx lock. */
	taskENTER_CRITICAL();
    1d44:	4b17      	ldr	r3, [pc, #92]	; (1da4 <prvUnlockQueue+0xdc>)
    1d46:	4798      	blx	r3
	{
		int8_t cRxLock = pxQueue->cRxLock;
    1d48:	230e      	movs	r3, #14
    1d4a:	18fb      	adds	r3, r7, r3
    1d4c:	687a      	ldr	r2, [r7, #4]
    1d4e:	2144      	movs	r1, #68	; 0x44
    1d50:	5c52      	ldrb	r2, [r2, r1]
    1d52:	701a      	strb	r2, [r3, #0]

		while( cRxLock > queueLOCKED_UNMODIFIED )
    1d54:	e014      	b.n	1d80 <prvUnlockQueue+0xb8>
		{
			if( listLIST_IS_EMPTY( &( pxQueue->xTasksWaitingToSend ) ) == pdFALSE )
    1d56:	687b      	ldr	r3, [r7, #4]
    1d58:	691b      	ldr	r3, [r3, #16]
    1d5a:	2b00      	cmp	r3, #0
    1d5c:	d017      	beq.n	1d8e <prvUnlockQueue+0xc6>
			{
				if( xTaskRemoveFromEventList( &( pxQueue->xTasksWaitingToSend ) ) != pdFALSE )
    1d5e:	687b      	ldr	r3, [r7, #4]
    1d60:	3310      	adds	r3, #16
    1d62:	0018      	movs	r0, r3
    1d64:	4b12      	ldr	r3, [pc, #72]	; (1db0 <prvUnlockQueue+0xe8>)
    1d66:	4798      	blx	r3
    1d68:	1e03      	subs	r3, r0, #0
    1d6a:	d001      	beq.n	1d70 <prvUnlockQueue+0xa8>
				{
					vTaskMissedYield();
    1d6c:	4b0f      	ldr	r3, [pc, #60]	; (1dac <prvUnlockQueue+0xe4>)
    1d6e:	4798      	blx	r3
				else
				{
					mtCOVERAGE_TEST_MARKER();
				}

				--cRxLock;
    1d70:	230e      	movs	r3, #14
    1d72:	18fb      	adds	r3, r7, r3
    1d74:	781b      	ldrb	r3, [r3, #0]
    1d76:	3b01      	subs	r3, #1
    1d78:	b2da      	uxtb	r2, r3
    1d7a:	230e      	movs	r3, #14
    1d7c:	18fb      	adds	r3, r7, r3
    1d7e:	701a      	strb	r2, [r3, #0]
		while( cRxLock > queueLOCKED_UNMODIFIED )
    1d80:	230e      	movs	r3, #14
    1d82:	18fb      	adds	r3, r7, r3
    1d84:	781b      	ldrb	r3, [r3, #0]
    1d86:	b25b      	sxtb	r3, r3
    1d88:	2b00      	cmp	r3, #0
    1d8a:	dce4      	bgt.n	1d56 <prvUnlockQueue+0x8e>
    1d8c:	e000      	b.n	1d90 <prvUnlockQueue+0xc8>
			}
			else
			{
				break;
    1d8e:	46c0      	nop			; (mov r8, r8)
			}
		}

		pxQueue->cRxLock = queueUNLOCKED;
    1d90:	687b      	ldr	r3, [r7, #4]
    1d92:	2244      	movs	r2, #68	; 0x44
    1d94:	21ff      	movs	r1, #255	; 0xff
    1d96:	5499      	strb	r1, [r3, r2]
	}
	taskEXIT_CRITICAL();
    1d98:	4b06      	ldr	r3, [pc, #24]	; (1db4 <prvUnlockQueue+0xec>)
    1d9a:	4798      	blx	r3
}
    1d9c:	46c0      	nop			; (mov r8, r8)
    1d9e:	46bd      	mov	sp, r7
    1da0:	b004      	add	sp, #16
    1da2:	bd80      	pop	{r7, pc}
    1da4:	00001141 	.word	0x00001141
    1da8:	00001e9d 	.word	0x00001e9d
    1dac:	00002829 	.word	0x00002829
    1db0:	00002695 	.word	0x00002695
    1db4:	00001165 	.word	0x00001165

00001db8 <prvIsQueueEmpty>:
/*-----------------------------------------------------------*/

static BaseType_t prvIsQueueEmpty( const Queue_t *pxQueue )
{
    1db8:	b580      	push	{r7, lr}
    1dba:	b084      	sub	sp, #16
    1dbc:	af00      	add	r7, sp, #0
    1dbe:	6078      	str	r0, [r7, #4]
BaseType_t xReturn;

	taskENTER_CRITICAL();
    1dc0:	4b08      	ldr	r3, [pc, #32]	; (1de4 <prvIsQueueEmpty+0x2c>)
    1dc2:	4798      	blx	r3
	{
		if( pxQueue->uxMessagesWaiting == ( UBaseType_t )  0 )
    1dc4:	687b      	ldr	r3, [r7, #4]
    1dc6:	6b9b      	ldr	r3, [r3, #56]	; 0x38
    1dc8:	2b00      	cmp	r3, #0
    1dca:	d102      	bne.n	1dd2 <prvIsQueueEmpty+0x1a>
		{
			xReturn = pdTRUE;
    1dcc:	2301      	movs	r3, #1
    1dce:	60fb      	str	r3, [r7, #12]
    1dd0:	e001      	b.n	1dd6 <prvIsQueueEmpty+0x1e>
		}
		else
		{
			xReturn = pdFALSE;
    1dd2:	2300      	movs	r3, #0
    1dd4:	60fb      	str	r3, [r7, #12]
		}
	}
	taskEXIT_CRITICAL();
    1dd6:	4b04      	ldr	r3, [pc, #16]	; (1de8 <prvIsQueueEmpty+0x30>)
    1dd8:	4798      	blx	r3

	return xReturn;
    1dda:	68fb      	ldr	r3, [r7, #12]
}
    1ddc:	0018      	movs	r0, r3
    1dde:	46bd      	mov	sp, r7
    1de0:	b004      	add	sp, #16
    1de2:	bd80      	pop	{r7, pc}
    1de4:	00001141 	.word	0x00001141
    1de8:	00001165 	.word	0x00001165

00001dec <prvIsQueueFull>:
	return xReturn;
} /*lint !e818 xQueue could not be pointer to const because it is a typedef. */
/*-----------------------------------------------------------*/

static BaseType_t prvIsQueueFull( const Queue_t *pxQueue )
{
    1dec:	b580      	push	{r7, lr}
    1dee:	b084      	sub	sp, #16
    1df0:	af00      	add	r7, sp, #0
    1df2:	6078      	str	r0, [r7, #4]
BaseType_t xReturn;

	taskENTER_CRITICAL();
    1df4:	4b09      	ldr	r3, [pc, #36]	; (1e1c <prvIsQueueFull+0x30>)
    1df6:	4798      	blx	r3
	{
		if( pxQueue->uxMessagesWaiting == pxQueue->uxLength )
    1df8:	687b      	ldr	r3, [r7, #4]
    1dfa:	6b9a      	ldr	r2, [r3, #56]	; 0x38
    1dfc:	687b      	ldr	r3, [r7, #4]
    1dfe:	6bdb      	ldr	r3, [r3, #60]	; 0x3c
    1e00:	429a      	cmp	r2, r3
    1e02:	d102      	bne.n	1e0a <prvIsQueueFull+0x1e>
		{
			xReturn = pdTRUE;
    1e04:	2301      	movs	r3, #1
    1e06:	60fb      	str	r3, [r7, #12]
    1e08:	e001      	b.n	1e0e <prvIsQueueFull+0x22>
		}
		else
		{
			xReturn = pdFALSE;
    1e0a:	2300      	movs	r3, #0
    1e0c:	60fb      	str	r3, [r7, #12]
		}
	}
	taskEXIT_CRITICAL();
    1e0e:	4b04      	ldr	r3, [pc, #16]	; (1e20 <prvIsQueueFull+0x34>)
    1e10:	4798      	blx	r3

	return xReturn;
    1e12:	68fb      	ldr	r3, [r7, #12]
}
    1e14:	0018      	movs	r0, r3
    1e16:	46bd      	mov	sp, r7
    1e18:	b004      	add	sp, #16
    1e1a:	bd80      	pop	{r7, pc}
    1e1c:	00001141 	.word	0x00001141
    1e20:	00001165 	.word	0x00001165

00001e24 <vQueueWaitForMessageRestricted>:
/*-----------------------------------------------------------*/

#if ( configUSE_TIMERS == 1 )

	void vQueueWaitForMessageRestricted( QueueHandle_t xQueue, TickType_t xTicksToWait, const BaseType_t xWaitIndefinitely )
	{
    1e24:	b580      	push	{r7, lr}
    1e26:	b086      	sub	sp, #24
    1e28:	af00      	add	r7, sp, #0
    1e2a:	60f8      	str	r0, [r7, #12]
    1e2c:	60b9      	str	r1, [r7, #8]
    1e2e:	607a      	str	r2, [r7, #4]
	Queue_t * const pxQueue = ( Queue_t * ) xQueue;
    1e30:	68fb      	ldr	r3, [r7, #12]
    1e32:	617b      	str	r3, [r7, #20]
		will not actually cause the task to block, just place it on a blocked
		list.  It will not block until the scheduler is unlocked - at which
		time a yield will be performed.  If an item is added to the queue while
		the queue is locked, and the calling task blocks on the queue, then the
		calling task will be immediately unblocked when the queue is unlocked. */
		prvLockQueue( pxQueue );
    1e34:	4b15      	ldr	r3, [pc, #84]	; (1e8c <vQueueWaitForMessageRestricted+0x68>)
    1e36:	4798      	blx	r3
    1e38:	697b      	ldr	r3, [r7, #20]
    1e3a:	2244      	movs	r2, #68	; 0x44
    1e3c:	5c9b      	ldrb	r3, [r3, r2]
    1e3e:	b25b      	sxtb	r3, r3
    1e40:	3301      	adds	r3, #1
    1e42:	d103      	bne.n	1e4c <vQueueWaitForMessageRestricted+0x28>
    1e44:	697b      	ldr	r3, [r7, #20]
    1e46:	2244      	movs	r2, #68	; 0x44
    1e48:	2100      	movs	r1, #0
    1e4a:	5499      	strb	r1, [r3, r2]
    1e4c:	697b      	ldr	r3, [r7, #20]
    1e4e:	2245      	movs	r2, #69	; 0x45
    1e50:	5c9b      	ldrb	r3, [r3, r2]
    1e52:	b25b      	sxtb	r3, r3
    1e54:	3301      	adds	r3, #1
    1e56:	d103      	bne.n	1e60 <vQueueWaitForMessageRestricted+0x3c>
    1e58:	697b      	ldr	r3, [r7, #20]
    1e5a:	2245      	movs	r2, #69	; 0x45
    1e5c:	2100      	movs	r1, #0
    1e5e:	5499      	strb	r1, [r3, r2]
    1e60:	4b0b      	ldr	r3, [pc, #44]	; (1e90 <vQueueWaitForMessageRestricted+0x6c>)
    1e62:	4798      	blx	r3
		if( pxQueue->uxMessagesWaiting == ( UBaseType_t ) 0U )
    1e64:	697b      	ldr	r3, [r7, #20]
    1e66:	6b9b      	ldr	r3, [r3, #56]	; 0x38
    1e68:	2b00      	cmp	r3, #0
    1e6a:	d106      	bne.n	1e7a <vQueueWaitForMessageRestricted+0x56>
		{
			/* There is nothing in the queue, block for the specified period. */
			vTaskPlaceOnEventListRestricted( &( pxQueue->xTasksWaitingToReceive ), xTicksToWait, xWaitIndefinitely );
    1e6c:	697b      	ldr	r3, [r7, #20]
    1e6e:	3324      	adds	r3, #36	; 0x24
    1e70:	687a      	ldr	r2, [r7, #4]
    1e72:	68b9      	ldr	r1, [r7, #8]
    1e74:	0018      	movs	r0, r3
    1e76:	4b07      	ldr	r3, [pc, #28]	; (1e94 <vQueueWaitForMessageRestricted+0x70>)
    1e78:	4798      	blx	r3
		}
		else
		{
			mtCOVERAGE_TEST_MARKER();
		}
		prvUnlockQueue( pxQueue );
    1e7a:	697b      	ldr	r3, [r7, #20]
    1e7c:	0018      	movs	r0, r3
    1e7e:	4b06      	ldr	r3, [pc, #24]	; (1e98 <vQueueWaitForMessageRestricted+0x74>)
    1e80:	4798      	blx	r3
	}
    1e82:	46c0      	nop			; (mov r8, r8)
    1e84:	46bd      	mov	sp, r7
    1e86:	b006      	add	sp, #24
    1e88:	bd80      	pop	{r7, pc}
    1e8a:	46c0      	nop			; (mov r8, r8)
    1e8c:	00001141 	.word	0x00001141
    1e90:	00001165 	.word	0x00001165
    1e94:	00002641 	.word	0x00002641
    1e98:	00001cc9 	.word	0x00001cc9

00001e9c <prvNotifyQueueSetContainer>:
/*-----------------------------------------------------------*/

#if ( configUSE_QUEUE_SETS == 1 )

	static BaseType_t prvNotifyQueueSetContainer( const Queue_t * const pxQueue, const BaseType_t xCopyPosition )
	{
    1e9c:	b580      	push	{r7, lr}
    1e9e:	b086      	sub	sp, #24
    1ea0:	af00      	add	r7, sp, #0
    1ea2:	6078      	str	r0, [r7, #4]
    1ea4:	6039      	str	r1, [r7, #0]
	Queue_t *pxQueueSetContainer = pxQueue->pxQueueSetContainer;
    1ea6:	687b      	ldr	r3, [r7, #4]
    1ea8:	6c9b      	ldr	r3, [r3, #72]	; 0x48
    1eaa:	613b      	str	r3, [r7, #16]
	BaseType_t xReturn = pdFALSE;
    1eac:	2300      	movs	r3, #0
    1eae:	617b      	str	r3, [r7, #20]

		/* This function must be called form a critical section. */

		configASSERT( pxQueueSetContainer );
    1eb0:	693b      	ldr	r3, [r7, #16]
    1eb2:	2b00      	cmp	r3, #0
    1eb4:	d101      	bne.n	1eba <prvNotifyQueueSetContainer+0x1e>
    1eb6:	b672      	cpsid	i
    1eb8:	e7fe      	b.n	1eb8 <prvNotifyQueueSetContainer+0x1c>
		configASSERT( pxQueueSetContainer->uxMessagesWaiting < pxQueueSetContainer->uxLength );
    1eba:	693b      	ldr	r3, [r7, #16]
    1ebc:	6b9a      	ldr	r2, [r3, #56]	; 0x38
    1ebe:	693b      	ldr	r3, [r7, #16]
    1ec0:	6bdb      	ldr	r3, [r3, #60]	; 0x3c
    1ec2:	429a      	cmp	r2, r3
    1ec4:	d301      	bcc.n	1eca <prvNotifyQueueSetContainer+0x2e>
    1ec6:	b672      	cpsid	i
    1ec8:	e7fe      	b.n	1ec8 <prvNotifyQueueSetContainer+0x2c>

		if( pxQueueSetContainer->uxMessagesWaiting < pxQueueSetContainer->uxLength )
    1eca:	693b      	ldr	r3, [r7, #16]
    1ecc:	6b9a      	ldr	r2, [r3, #56]	; 0x38
    1ece:	693b      	ldr	r3, [r7, #16]
    1ed0:	6bdb      	ldr	r3, [r3, #60]	; 0x3c
    1ed2:	429a      	cmp	r2, r3
    1ed4:	d22a      	bcs.n	1f2c <prvNotifyQueueSetContainer+0x90>
		{
			const int8_t cTxLock = pxQueueSetContainer->cTxLock;
    1ed6:	230f      	movs	r3, #15
    1ed8:	18fb      	adds	r3, r7, r3
    1eda:	693a      	ldr	r2, [r7, #16]
    1edc:	2145      	movs	r1, #69	; 0x45
    1ede:	5c52      	ldrb	r2, [r2, r1]
    1ee0:	701a      	strb	r2, [r3, #0]

			traceQUEUE_SEND( pxQueueSetContainer );

			/* The data copied is the handle of the queue that contains data. */
			xReturn = prvCopyDataToQueue( pxQueueSetContainer, &pxQueue, xCopyPosition );
    1ee2:	683a      	ldr	r2, [r7, #0]
    1ee4:	1d39      	adds	r1, r7, #4
    1ee6:	693b      	ldr	r3, [r7, #16]
    1ee8:	0018      	movs	r0, r3
    1eea:	4b13      	ldr	r3, [pc, #76]	; (1f38 <prvNotifyQueueSetContainer+0x9c>)
    1eec:	4798      	blx	r3
    1eee:	0003      	movs	r3, r0
    1ef0:	617b      	str	r3, [r7, #20]

			if( cTxLock == queueUNLOCKED )
    1ef2:	230f      	movs	r3, #15
    1ef4:	18fb      	adds	r3, r7, r3
    1ef6:	781b      	ldrb	r3, [r3, #0]
    1ef8:	b25b      	sxtb	r3, r3
    1efa:	3301      	adds	r3, #1
    1efc:	d10d      	bne.n	1f1a <prvNotifyQueueSetContainer+0x7e>
			{
				if( listLIST_IS_EMPTY( &( pxQueueSetContainer->xTasksWaitingToReceive ) ) == pdFALSE )
    1efe:	693b      	ldr	r3, [r7, #16]
    1f00:	6a5b      	ldr	r3, [r3, #36]	; 0x24
    1f02:	2b00      	cmp	r3, #0
    1f04:	d012      	beq.n	1f2c <prvNotifyQueueSetContainer+0x90>
				{
					if( xTaskRemoveFromEventList( &( pxQueueSetContainer->xTasksWaitingToReceive ) ) != pdFALSE )
    1f06:	693b      	ldr	r3, [r7, #16]
    1f08:	3324      	adds	r3, #36	; 0x24
    1f0a:	0018      	movs	r0, r3
    1f0c:	4b0b      	ldr	r3, [pc, #44]	; (1f3c <prvNotifyQueueSetContainer+0xa0>)
    1f0e:	4798      	blx	r3
    1f10:	1e03      	subs	r3, r0, #0
    1f12:	d00b      	beq.n	1f2c <prvNotifyQueueSetContainer+0x90>
					{
						/* The task waiting has a higher priority. */
						xReturn = pdTRUE;
    1f14:	2301      	movs	r3, #1
    1f16:	617b      	str	r3, [r7, #20]
    1f18:	e008      	b.n	1f2c <prvNotifyQueueSetContainer+0x90>
					mtCOVERAGE_TEST_MARKER();
				}
			}
			else
			{
				pxQueueSetContainer->cTxLock = ( int8_t ) ( cTxLock + 1 );
    1f1a:	230f      	movs	r3, #15
    1f1c:	18fb      	adds	r3, r7, r3
    1f1e:	781b      	ldrb	r3, [r3, #0]
    1f20:	3301      	adds	r3, #1
    1f22:	b2db      	uxtb	r3, r3
    1f24:	b259      	sxtb	r1, r3
    1f26:	693b      	ldr	r3, [r7, #16]
    1f28:	2245      	movs	r2, #69	; 0x45
    1f2a:	5499      	strb	r1, [r3, r2]
		else
		{
			mtCOVERAGE_TEST_MARKER();
		}

		return xReturn;
    1f2c:	697b      	ldr	r3, [r7, #20]
	}
    1f2e:	0018      	movs	r0, r3
    1f30:	46bd      	mov	sp, r7
    1f32:	b006      	add	sp, #24
    1f34:	bd80      	pop	{r7, pc}
    1f36:	46c0      	nop			; (mov r8, r8)
    1f38:	00001b99 	.word	0x00001b99
    1f3c:	00002695 	.word	0x00002695

00001f40 <xTaskCreate>:
							const char * const pcName,		/*lint !e971 Unqualified char types are allowed for strings and single characters only. */
							const configSTACK_DEPTH_TYPE usStackDepth,
							void * const pvParameters,
							UBaseType_t uxPriority,
							TaskHandle_t * const pxCreatedTask )
	{
    1f40:	b590      	push	{r4, r7, lr}
    1f42:	b08d      	sub	sp, #52	; 0x34
    1f44:	af04      	add	r7, sp, #16
    1f46:	60f8      	str	r0, [r7, #12]
    1f48:	60b9      	str	r1, [r7, #8]
    1f4a:	603b      	str	r3, [r7, #0]
    1f4c:	1dbb      	adds	r3, r7, #6
    1f4e:	801a      	strh	r2, [r3, #0]
		#else /* portSTACK_GROWTH */
		{
		StackType_t *pxStack;

			/* Allocate space for the stack used by the task being created. */
			pxStack = ( StackType_t * ) pvPortMalloc( ( ( ( size_t ) usStackDepth ) * sizeof( StackType_t ) ) ); /*lint !e961 MISRA exception as the casts are only redundant for some ports. */
    1f50:	1dbb      	adds	r3, r7, #6
    1f52:	881b      	ldrh	r3, [r3, #0]
    1f54:	009b      	lsls	r3, r3, #2
    1f56:	0018      	movs	r0, r3
    1f58:	4b1d      	ldr	r3, [pc, #116]	; (1fd0 <xTaskCreate+0x90>)
    1f5a:	4798      	blx	r3
    1f5c:	0003      	movs	r3, r0
    1f5e:	617b      	str	r3, [r7, #20]

			if( pxStack != NULL )
    1f60:	697b      	ldr	r3, [r7, #20]
    1f62:	2b00      	cmp	r3, #0
    1f64:	d010      	beq.n	1f88 <xTaskCreate+0x48>
			{
				/* Allocate space for the TCB. */
				pxNewTCB = ( TCB_t * ) pvPortMalloc( sizeof( TCB_t ) ); /*lint !e961 MISRA exception as the casts are only redundant for some paths. */
    1f66:	2054      	movs	r0, #84	; 0x54
    1f68:	4b19      	ldr	r3, [pc, #100]	; (1fd0 <xTaskCreate+0x90>)
    1f6a:	4798      	blx	r3
    1f6c:	0003      	movs	r3, r0
    1f6e:	61fb      	str	r3, [r7, #28]

				if( pxNewTCB != NULL )
    1f70:	69fb      	ldr	r3, [r7, #28]
    1f72:	2b00      	cmp	r3, #0
    1f74:	d003      	beq.n	1f7e <xTaskCreate+0x3e>
				{
					/* Store the stack location in the TCB. */
					pxNewTCB->pxStack = pxStack;
    1f76:	69fb      	ldr	r3, [r7, #28]
    1f78:	697a      	ldr	r2, [r7, #20]
    1f7a:	631a      	str	r2, [r3, #48]	; 0x30
    1f7c:	e006      	b.n	1f8c <xTaskCreate+0x4c>
				}
				else
				{
					/* The stack cannot be used as the TCB was not created.  Free
					it again. */
					vPortFree( pxStack );
    1f7e:	697b      	ldr	r3, [r7, #20]
    1f80:	0018      	movs	r0, r3
    1f82:	4b14      	ldr	r3, [pc, #80]	; (1fd4 <xTaskCreate+0x94>)
    1f84:	4798      	blx	r3
    1f86:	e001      	b.n	1f8c <xTaskCreate+0x4c>
				}
			}
			else
			{
				pxNewTCB = NULL;
    1f88:	2300      	movs	r3, #0
    1f8a:	61fb      	str	r3, [r7, #28]
			}
		}
		#endif /* portSTACK_GROWTH */

		if( pxNewTCB != NULL )
    1f8c:	69fb      	ldr	r3, [r7, #28]
    1f8e:	2b00      	cmp	r3, #0
    1f90:	d016      	beq.n	1fc0 <xTaskCreate+0x80>
				task was created dynamically in case it is later deleted. */
				pxNewTCB->ucStaticallyAllocated = tskDYNAMICALLY_ALLOCATED_STACK_AND_TCB;
			}
			#endif /* configSUPPORT_STATIC_ALLOCATION */

			prvInitialiseNewTask( pxTaskCode, pcName, ( uint32_t ) usStackDepth, pvParameters, uxPriority, pxCreatedTask, pxNewTCB, NULL );
    1f92:	1dbb      	adds	r3, r7, #6
    1f94:	881a      	ldrh	r2, [r3, #0]
    1f96:	683c      	ldr	r4, [r7, #0]
    1f98:	68b9      	ldr	r1, [r7, #8]
    1f9a:	68f8      	ldr	r0, [r7, #12]
    1f9c:	2300      	movs	r3, #0
    1f9e:	9303      	str	r3, [sp, #12]
    1fa0:	69fb      	ldr	r3, [r7, #28]
    1fa2:	9302      	str	r3, [sp, #8]
    1fa4:	6b7b      	ldr	r3, [r7, #52]	; 0x34
    1fa6:	9301      	str	r3, [sp, #4]
    1fa8:	6b3b      	ldr	r3, [r7, #48]	; 0x30
    1faa:	9300      	str	r3, [sp, #0]
    1fac:	0023      	movs	r3, r4
    1fae:	4c0a      	ldr	r4, [pc, #40]	; (1fd8 <xTaskCreate+0x98>)
    1fb0:	47a0      	blx	r4
			prvAddNewTaskToReadyList( pxNewTCB );
    1fb2:	69fb      	ldr	r3, [r7, #28]
    1fb4:	0018      	movs	r0, r3
    1fb6:	4b09      	ldr	r3, [pc, #36]	; (1fdc <xTaskCreate+0x9c>)
    1fb8:	4798      	blx	r3
			xReturn = pdPASS;
    1fba:	2301      	movs	r3, #1
    1fbc:	61bb      	str	r3, [r7, #24]
    1fbe:	e002      	b.n	1fc6 <xTaskCreate+0x86>
		}
		else
		{
			xReturn = errCOULD_NOT_ALLOCATE_REQUIRED_MEMORY;
    1fc0:	2301      	movs	r3, #1
    1fc2:	425b      	negs	r3, r3
    1fc4:	61bb      	str	r3, [r7, #24]
		}

		return xReturn;
    1fc6:	69bb      	ldr	r3, [r7, #24]
	}
    1fc8:	0018      	movs	r0, r3
    1fca:	46bd      	mov	sp, r7
    1fcc:	b009      	add	sp, #36	; 0x24
    1fce:	bd90      	pop	{r4, r7, pc}
    1fd0:	00001281 	.word	0x00001281
    1fd4:	00001321 	.word	0x00001321
    1fd8:	00001fe1 	.word	0x00001fe1
    1fdc:	000020f1 	.word	0x000020f1

00001fe0 <prvInitialiseNewTask>:
									void * const pvParameters,
									UBaseType_t uxPriority,
									TaskHandle_t * const pxCreatedTask,
									TCB_t *pxNewTCB,
									const MemoryRegion_t * const xRegions )
{
    1fe0:	b580      	push	{r7, lr}
    1fe2:	b086      	sub	sp, #24
    1fe4:	af00      	add	r7, sp, #0
    1fe6:	60f8      	str	r0, [r7, #12]
    1fe8:	60b9      	str	r1, [r7, #8]
    1fea:	607a      	str	r2, [r7, #4]
    1fec:	603b      	str	r3, [r7, #0]

	/* Avoid dependency on memset() if it is not required. */
	#if( tskSET_NEW_STACKS_TO_KNOWN_VALUE == 1 )
	{
		/* Fill the stack with a known value to assist debugging. */
		( void ) memset( pxNewTCB->pxStack, ( int ) tskSTACK_FILL_BYTE, ( size_t ) ulStackDepth * sizeof( StackType_t ) );
    1fee:	6abb      	ldr	r3, [r7, #40]	; 0x28
    1ff0:	6b18      	ldr	r0, [r3, #48]	; 0x30
    1ff2:	687b      	ldr	r3, [r7, #4]
    1ff4:	009b      	lsls	r3, r3, #2
    1ff6:	001a      	movs	r2, r3
    1ff8:	21a5      	movs	r1, #165	; 0xa5
    1ffa:	4b39      	ldr	r3, [pc, #228]	; (20e0 <STACK_SIZE+0xe0>)
    1ffc:	4798      	blx	r3
	grows from high memory to low (as per the 80x86) or vice versa.
	portSTACK_GROWTH is used to make the result positive or negative as required
	by the port. */
	#if( portSTACK_GROWTH < 0 )
	{
		pxTopOfStack = pxNewTCB->pxStack + ( ulStackDepth - ( uint32_t ) 1 );
    1ffe:	6abb      	ldr	r3, [r7, #40]	; 0x28
    2000:	6b1a      	ldr	r2, [r3, #48]	; 0x30
    2002:	687b      	ldr	r3, [r7, #4]
    2004:	4937      	ldr	r1, [pc, #220]	; (20e4 <STACK_SIZE+0xe4>)
    2006:	468c      	mov	ip, r1
    2008:	4463      	add	r3, ip
    200a:	009b      	lsls	r3, r3, #2
    200c:	18d3      	adds	r3, r2, r3
    200e:	613b      	str	r3, [r7, #16]
		pxTopOfStack = ( StackType_t * ) ( ( ( portPOINTER_SIZE_TYPE ) pxTopOfStack ) & ( ~( ( portPOINTER_SIZE_TYPE ) portBYTE_ALIGNMENT_MASK ) ) ); /*lint !e923 MISRA exception.  Avoiding casts between pointers and integers is not practical.  Size differences accounted for using portPOINTER_SIZE_TYPE type. */
    2010:	693b      	ldr	r3, [r7, #16]
    2012:	2207      	movs	r2, #7
    2014:	4393      	bics	r3, r2
    2016:	613b      	str	r3, [r7, #16]

		/* Check the alignment of the calculated top of stack is correct. */
		configASSERT( ( ( ( portPOINTER_SIZE_TYPE ) pxTopOfStack & ( portPOINTER_SIZE_TYPE ) portBYTE_ALIGNMENT_MASK ) == 0UL ) );
    2018:	693b      	ldr	r3, [r7, #16]
    201a:	2207      	movs	r2, #7
    201c:	4013      	ands	r3, r2
    201e:	d001      	beq.n	2024 <STACK_SIZE+0x24>
    2020:	b672      	cpsid	i
    2022:	e7fe      	b.n	2022 <STACK_SIZE+0x22>
		pxNewTCB->pxEndOfStack = pxNewTCB->pxStack + ( ulStackDepth - ( uint32_t ) 1 );
	}
	#endif /* portSTACK_GROWTH */

	/* Store the task name in the TCB. */
	for( x = ( UBaseType_t ) 0; x < ( UBaseType_t ) configMAX_TASK_NAME_LEN; x++ )
    2024:	2300      	movs	r3, #0
    2026:	617b      	str	r3, [r7, #20]
    2028:	e013      	b.n	2052 <STACK_SIZE+0x52>
	{
		pxNewTCB->pcTaskName[ x ] = pcName[ x ];
    202a:	68ba      	ldr	r2, [r7, #8]
    202c:	697b      	ldr	r3, [r7, #20]
    202e:	18d3      	adds	r3, r2, r3
    2030:	7818      	ldrb	r0, [r3, #0]
    2032:	6aba      	ldr	r2, [r7, #40]	; 0x28
    2034:	2134      	movs	r1, #52	; 0x34
    2036:	697b      	ldr	r3, [r7, #20]
    2038:	18d3      	adds	r3, r2, r3
    203a:	185b      	adds	r3, r3, r1
    203c:	1c02      	adds	r2, r0, #0
    203e:	701a      	strb	r2, [r3, #0]

		/* Don't copy all configMAX_TASK_NAME_LEN if the string is shorter than
		configMAX_TASK_NAME_LEN characters just in case the memory after the
		string is not accessible (extremely unlikely). */
		if( pcName[ x ] == 0x00 )
    2040:	68ba      	ldr	r2, [r7, #8]
    2042:	697b      	ldr	r3, [r7, #20]
    2044:	18d3      	adds	r3, r2, r3
    2046:	781b      	ldrb	r3, [r3, #0]
    2048:	2b00      	cmp	r3, #0
    204a:	d006      	beq.n	205a <STACK_SIZE+0x5a>
	for( x = ( UBaseType_t ) 0; x < ( UBaseType_t ) configMAX_TASK_NAME_LEN; x++ )
    204c:	697b      	ldr	r3, [r7, #20]
    204e:	3301      	adds	r3, #1
    2050:	617b      	str	r3, [r7, #20]
    2052:	697b      	ldr	r3, [r7, #20]
    2054:	2b07      	cmp	r3, #7
    2056:	d9e8      	bls.n	202a <STACK_SIZE+0x2a>
    2058:	e000      	b.n	205c <STACK_SIZE+0x5c>
		{
			break;
    205a:	46c0      	nop			; (mov r8, r8)
		}
	}

	/* Ensure the name string is terminated in the case that the string length
	was greater or equal to configMAX_TASK_NAME_LEN. */
	pxNewTCB->pcTaskName[ configMAX_TASK_NAME_LEN - 1 ] = '\0';
    205c:	6abb      	ldr	r3, [r7, #40]	; 0x28
    205e:	223b      	movs	r2, #59	; 0x3b
    2060:	2100      	movs	r1, #0
    2062:	5499      	strb	r1, [r3, r2]

	/* This is used as an array index so must ensure it's not too large.  First
	remove the privilege bit if one is present. */
	if( uxPriority >= ( UBaseType_t ) configMAX_PRIORITIES )
    2064:	6a3b      	ldr	r3, [r7, #32]
    2066:	2b04      	cmp	r3, #4
    2068:	d901      	bls.n	206e <STACK_SIZE+0x6e>
	{
		uxPriority = ( UBaseType_t ) configMAX_PRIORITIES - ( UBaseType_t ) 1U;
    206a:	2304      	movs	r3, #4
    206c:	623b      	str	r3, [r7, #32]
	else
	{
		mtCOVERAGE_TEST_MARKER();
	}

	pxNewTCB->uxPriority = uxPriority;
    206e:	6abb      	ldr	r3, [r7, #40]	; 0x28
    2070:	6a3a      	ldr	r2, [r7, #32]
    2072:	62da      	str	r2, [r3, #44]	; 0x2c
	#if ( configUSE_MUTEXES == 1 )
	{
		pxNewTCB->uxBasePriority = uxPriority;
    2074:	6abb      	ldr	r3, [r7, #40]	; 0x28
    2076:	6a3a      	ldr	r2, [r7, #32]
    2078:	645a      	str	r2, [r3, #68]	; 0x44
		pxNewTCB->uxMutexesHeld = 0;
    207a:	6abb      	ldr	r3, [r7, #40]	; 0x28
    207c:	2200      	movs	r2, #0
    207e:	649a      	str	r2, [r3, #72]	; 0x48
	}
	#endif /* configUSE_MUTEXES */

	vListInitialiseItem( &( pxNewTCB->xStateListItem ) );
    2080:	6abb      	ldr	r3, [r7, #40]	; 0x28
    2082:	3304      	adds	r3, #4
    2084:	0018      	movs	r0, r3
    2086:	4b18      	ldr	r3, [pc, #96]	; (20e8 <STACK_SIZE+0xe8>)
    2088:	4798      	blx	r3
	vListInitialiseItem( &( pxNewTCB->xEventListItem ) );
    208a:	6abb      	ldr	r3, [r7, #40]	; 0x28
    208c:	3318      	adds	r3, #24
    208e:	0018      	movs	r0, r3
    2090:	4b15      	ldr	r3, [pc, #84]	; (20e8 <STACK_SIZE+0xe8>)
    2092:	4798      	blx	r3

	/* Set the pxNewTCB as a link back from the ListItem_t.  This is so we can get
	back to	the containing TCB from a generic item in a list. */
	listSET_LIST_ITEM_OWNER( &( pxNewTCB->xStateListItem ), pxNewTCB );
    2094:	6abb      	ldr	r3, [r7, #40]	; 0x28
    2096:	6aba      	ldr	r2, [r7, #40]	; 0x28
    2098:	611a      	str	r2, [r3, #16]

	/* Event lists are always in priority order. */
	listSET_LIST_ITEM_VALUE( &( pxNewTCB->xEventListItem ), ( TickType_t ) configMAX_PRIORITIES - ( TickType_t ) uxPriority ); /*lint !e961 MISRA exception as the casts are only redundant for some ports. */
    209a:	6a3b      	ldr	r3, [r7, #32]
    209c:	2205      	movs	r2, #5
    209e:	1ad2      	subs	r2, r2, r3
    20a0:	6abb      	ldr	r3, [r7, #40]	; 0x28
    20a2:	619a      	str	r2, [r3, #24]
	listSET_LIST_ITEM_OWNER( &( pxNewTCB->xEventListItem ), pxNewTCB );
    20a4:	6abb      	ldr	r3, [r7, #40]	; 0x28
    20a6:	6aba      	ldr	r2, [r7, #40]	; 0x28
    20a8:	625a      	str	r2, [r3, #36]	; 0x24
	}
	#endif

	#if ( configUSE_TASK_NOTIFICATIONS == 1 )
	{
		pxNewTCB->ulNotifiedValue = 0;
    20aa:	6abb      	ldr	r3, [r7, #40]	; 0x28
    20ac:	2200      	movs	r2, #0
    20ae:	64da      	str	r2, [r3, #76]	; 0x4c
		pxNewTCB->ucNotifyState = taskNOT_WAITING_NOTIFICATION;
    20b0:	6abb      	ldr	r3, [r7, #40]	; 0x28
    20b2:	2250      	movs	r2, #80	; 0x50
    20b4:	2100      	movs	r1, #0
    20b6:	5499      	strb	r1, [r3, r2]
	{
		pxNewTCB->pxTopOfStack = pxPortInitialiseStack( pxTopOfStack, pxTaskCode, pvParameters, xRunPrivileged );
	}
	#else /* portUSING_MPU_WRAPPERS */
	{
		pxNewTCB->pxTopOfStack = pxPortInitialiseStack( pxTopOfStack, pxTaskCode, pvParameters );
    20b8:	683a      	ldr	r2, [r7, #0]
    20ba:	68f9      	ldr	r1, [r7, #12]
    20bc:	693b      	ldr	r3, [r7, #16]
    20be:	0018      	movs	r0, r3
    20c0:	4b0a      	ldr	r3, [pc, #40]	; (20ec <STACK_SIZE+0xec>)
    20c2:	4798      	blx	r3
    20c4:	0002      	movs	r2, r0
    20c6:	6abb      	ldr	r3, [r7, #40]	; 0x28
    20c8:	601a      	str	r2, [r3, #0]
	}
	#endif /* portUSING_MPU_WRAPPERS */

	if( ( void * ) pxCreatedTask != NULL )
    20ca:	6a7b      	ldr	r3, [r7, #36]	; 0x24
    20cc:	2b00      	cmp	r3, #0
    20ce:	d002      	beq.n	20d6 <STACK_SIZE+0xd6>
	{
		/* Pass the handle out in an anonymous way.  The handle can be used to
		change the created task's priority, delete the created task, etc.*/
		*pxCreatedTask = ( TaskHandle_t ) pxNewTCB;
    20d0:	6a7b      	ldr	r3, [r7, #36]	; 0x24
    20d2:	6aba      	ldr	r2, [r7, #40]	; 0x28
    20d4:	601a      	str	r2, [r3, #0]
	}
	else
	{
		mtCOVERAGE_TEST_MARKER();
	}
}
    20d6:	46c0      	nop			; (mov r8, r8)
    20d8:	46bd      	mov	sp, r7
    20da:	b006      	add	sp, #24
    20dc:	bd80      	pop	{r7, pc}
    20de:	46c0      	nop			; (mov r8, r8)
    20e0:	0000584b 	.word	0x0000584b
    20e4:	3fffffff 	.word	0x3fffffff
    20e8:	00000eeb 	.word	0x00000eeb
    20ec:	00001001 	.word	0x00001001

000020f0 <prvAddNewTaskToReadyList>:
/*-----------------------------------------------------------*/

static void prvAddNewTaskToReadyList( TCB_t *pxNewTCB )
{
    20f0:	b580      	push	{r7, lr}
    20f2:	b082      	sub	sp, #8
    20f4:	af00      	add	r7, sp, #0
    20f6:	6078      	str	r0, [r7, #4]
	/* Ensure interrupts don't access the task lists while the lists are being
	updated. */
	taskENTER_CRITICAL();
    20f8:	4b2b      	ldr	r3, [pc, #172]	; (21a8 <prvAddNewTaskToReadyList+0xb8>)
    20fa:	4798      	blx	r3
	{
		uxCurrentNumberOfTasks++;
    20fc:	4b2b      	ldr	r3, [pc, #172]	; (21ac <prvAddNewTaskToReadyList+0xbc>)
    20fe:	681b      	ldr	r3, [r3, #0]
    2100:	1c5a      	adds	r2, r3, #1
    2102:	4b2a      	ldr	r3, [pc, #168]	; (21ac <prvAddNewTaskToReadyList+0xbc>)
    2104:	601a      	str	r2, [r3, #0]
		if( pxCurrentTCB == NULL )
    2106:	4b2a      	ldr	r3, [pc, #168]	; (21b0 <prvAddNewTaskToReadyList+0xc0>)
    2108:	681b      	ldr	r3, [r3, #0]
    210a:	2b00      	cmp	r3, #0
    210c:	d109      	bne.n	2122 <prvAddNewTaskToReadyList+0x32>
		{
			/* There are no other tasks, or all the other tasks are in
			the suspended state - make this the current task. */
			pxCurrentTCB = pxNewTCB;
    210e:	4b28      	ldr	r3, [pc, #160]	; (21b0 <prvAddNewTaskToReadyList+0xc0>)
    2110:	687a      	ldr	r2, [r7, #4]
    2112:	601a      	str	r2, [r3, #0]

			if( uxCurrentNumberOfTasks == ( UBaseType_t ) 1 )
    2114:	4b25      	ldr	r3, [pc, #148]	; (21ac <prvAddNewTaskToReadyList+0xbc>)
    2116:	681b      	ldr	r3, [r3, #0]
    2118:	2b01      	cmp	r3, #1
    211a:	d110      	bne.n	213e <prvAddNewTaskToReadyList+0x4e>
			{
				/* This is the first task to be created so do the preliminary
				initialisation required.  We will not recover if this call
				fails, but we will report the failure. */
				prvInitialiseTaskLists();
    211c:	4b25      	ldr	r3, [pc, #148]	; (21b4 <prvAddNewTaskToReadyList+0xc4>)
    211e:	4798      	blx	r3
    2120:	e00d      	b.n	213e <prvAddNewTaskToReadyList+0x4e>
		else
		{
			/* If the scheduler is not already running, make this task the
			current task if it is the highest priority task to be created
			so far. */
			if( xSchedulerRunning == pdFALSE )
    2122:	4b25      	ldr	r3, [pc, #148]	; (21b8 <prvAddNewTaskToReadyList+0xc8>)
    2124:	681b      	ldr	r3, [r3, #0]
    2126:	2b00      	cmp	r3, #0
    2128:	d109      	bne.n	213e <prvAddNewTaskToReadyList+0x4e>
			{
				if( pxCurrentTCB->uxPriority <= pxNewTCB->uxPriority )
    212a:	4b21      	ldr	r3, [pc, #132]	; (21b0 <prvAddNewTaskToReadyList+0xc0>)
    212c:	681b      	ldr	r3, [r3, #0]
    212e:	6ada      	ldr	r2, [r3, #44]	; 0x2c
    2130:	687b      	ldr	r3, [r7, #4]
    2132:	6adb      	ldr	r3, [r3, #44]	; 0x2c
    2134:	429a      	cmp	r2, r3
    2136:	d802      	bhi.n	213e <prvAddNewTaskToReadyList+0x4e>
				{
					pxCurrentTCB = pxNewTCB;
    2138:	4b1d      	ldr	r3, [pc, #116]	; (21b0 <prvAddNewTaskToReadyList+0xc0>)
    213a:	687a      	ldr	r2, [r7, #4]
    213c:	601a      	str	r2, [r3, #0]
			{
				mtCOVERAGE_TEST_MARKER();
			}
		}

		uxTaskNumber++;
    213e:	4b1f      	ldr	r3, [pc, #124]	; (21bc <prvAddNewTaskToReadyList+0xcc>)
    2140:	681b      	ldr	r3, [r3, #0]
    2142:	1c5a      	adds	r2, r3, #1
    2144:	4b1d      	ldr	r3, [pc, #116]	; (21bc <prvAddNewTaskToReadyList+0xcc>)
    2146:	601a      	str	r2, [r3, #0]

		#if ( configUSE_TRACE_FACILITY == 1 )
		{
			/* Add a counter into the TCB for tracing only. */
			pxNewTCB->uxTCBNumber = uxTaskNumber;
    2148:	4b1c      	ldr	r3, [pc, #112]	; (21bc <prvAddNewTaskToReadyList+0xcc>)
    214a:	681a      	ldr	r2, [r3, #0]
    214c:	687b      	ldr	r3, [r7, #4]
    214e:	63da      	str	r2, [r3, #60]	; 0x3c
		}
		#endif /* configUSE_TRACE_FACILITY */
		traceTASK_CREATE( pxNewTCB );

		prvAddTaskToReadyList( pxNewTCB );
    2150:	687b      	ldr	r3, [r7, #4]
    2152:	6ada      	ldr	r2, [r3, #44]	; 0x2c
    2154:	4b1a      	ldr	r3, [pc, #104]	; (21c0 <prvAddNewTaskToReadyList+0xd0>)
    2156:	681b      	ldr	r3, [r3, #0]
    2158:	429a      	cmp	r2, r3
    215a:	d903      	bls.n	2164 <prvAddNewTaskToReadyList+0x74>
    215c:	687b      	ldr	r3, [r7, #4]
    215e:	6ada      	ldr	r2, [r3, #44]	; 0x2c
    2160:	4b17      	ldr	r3, [pc, #92]	; (21c0 <prvAddNewTaskToReadyList+0xd0>)
    2162:	601a      	str	r2, [r3, #0]
    2164:	687b      	ldr	r3, [r7, #4]
    2166:	6ada      	ldr	r2, [r3, #44]	; 0x2c
    2168:	0013      	movs	r3, r2
    216a:	009b      	lsls	r3, r3, #2
    216c:	189b      	adds	r3, r3, r2
    216e:	009b      	lsls	r3, r3, #2
    2170:	4a14      	ldr	r2, [pc, #80]	; (21c4 <prvAddNewTaskToReadyList+0xd4>)
    2172:	189a      	adds	r2, r3, r2
    2174:	687b      	ldr	r3, [r7, #4]
    2176:	3304      	adds	r3, #4
    2178:	0019      	movs	r1, r3
    217a:	0010      	movs	r0, r2
    217c:	4b12      	ldr	r3, [pc, #72]	; (21c8 <prvAddNewTaskToReadyList+0xd8>)
    217e:	4798      	blx	r3

		portSETUP_TCB( pxNewTCB );
	}
	taskEXIT_CRITICAL();
    2180:	4b12      	ldr	r3, [pc, #72]	; (21cc <prvAddNewTaskToReadyList+0xdc>)
    2182:	4798      	blx	r3

	if( xSchedulerRunning != pdFALSE )
    2184:	4b0c      	ldr	r3, [pc, #48]	; (21b8 <prvAddNewTaskToReadyList+0xc8>)
    2186:	681b      	ldr	r3, [r3, #0]
    2188:	2b00      	cmp	r3, #0
    218a:	d008      	beq.n	219e <prvAddNewTaskToReadyList+0xae>
	{
		/* If the created task is of a higher priority than the current task
		then it should run now. */
		if( pxCurrentTCB->uxPriority < pxNewTCB->uxPriority )
    218c:	4b08      	ldr	r3, [pc, #32]	; (21b0 <prvAddNewTaskToReadyList+0xc0>)
    218e:	681b      	ldr	r3, [r3, #0]
    2190:	6ada      	ldr	r2, [r3, #44]	; 0x2c
    2192:	687b      	ldr	r3, [r7, #4]
    2194:	6adb      	ldr	r3, [r3, #44]	; 0x2c
    2196:	429a      	cmp	r2, r3
    2198:	d201      	bcs.n	219e <prvAddNewTaskToReadyList+0xae>
		{
			taskYIELD_IF_USING_PREEMPTION();
    219a:	4b0d      	ldr	r3, [pc, #52]	; (21d0 <prvAddNewTaskToReadyList+0xe0>)
    219c:	4798      	blx	r3
	}
	else
	{
		mtCOVERAGE_TEST_MARKER();
	}
}
    219e:	46c0      	nop			; (mov r8, r8)
    21a0:	46bd      	mov	sp, r7
    21a2:	b002      	add	sp, #8
    21a4:	bd80      	pop	{r7, pc}
    21a6:	46c0      	nop			; (mov r8, r8)
    21a8:	00001141 	.word	0x00001141
    21ac:	200031d8 	.word	0x200031d8
    21b0:	20003100 	.word	0x20003100
    21b4:	00002865 	.word	0x00002865
    21b8:	200031e4 	.word	0x200031e4
    21bc:	200031f4 	.word	0x200031f4
    21c0:	200031e0 	.word	0x200031e0
    21c4:	20003104 	.word	0x20003104
    21c8:	00000f01 	.word	0x00000f01
    21cc:	00001165 	.word	0x00001165
    21d0:	00001121 	.word	0x00001121

000021d4 <vTaskStartScheduler>:

#endif /* ( ( INCLUDE_xTaskResumeFromISR == 1 ) && ( INCLUDE_vTaskSuspend == 1 ) ) */
/*-----------------------------------------------------------*/

void vTaskStartScheduler( void )
{
    21d4:	b590      	push	{r4, r7, lr}
    21d6:	b085      	sub	sp, #20
    21d8:	af02      	add	r7, sp, #8
		}
	}
	#else
	{
		/* The Idle task is being created using dynamically allocated RAM. */
		xReturn = xTaskCreate(	prvIdleTask,
    21da:	4916      	ldr	r1, [pc, #88]	; (2234 <vTaskStartScheduler+0x60>)
    21dc:	4816      	ldr	r0, [pc, #88]	; (2238 <vTaskStartScheduler+0x64>)
    21de:	4b17      	ldr	r3, [pc, #92]	; (223c <vTaskStartScheduler+0x68>)
    21e0:	9301      	str	r3, [sp, #4]
    21e2:	2300      	movs	r3, #0
    21e4:	9300      	str	r3, [sp, #0]
    21e6:	2300      	movs	r3, #0
    21e8:	2264      	movs	r2, #100	; 0x64
    21ea:	4c15      	ldr	r4, [pc, #84]	; (2240 <vTaskStartScheduler+0x6c>)
    21ec:	47a0      	blx	r4
    21ee:	0003      	movs	r3, r0
    21f0:	607b      	str	r3, [r7, #4]
	}
	#endif /* configSUPPORT_STATIC_ALLOCATION */

	#if ( configUSE_TIMERS == 1 )
	{
		if( xReturn == pdPASS )
    21f2:	687b      	ldr	r3, [r7, #4]
    21f4:	2b01      	cmp	r3, #1
    21f6:	d103      	bne.n	2200 <vTaskStartScheduler+0x2c>
		{
			xReturn = xTimerCreateTimerTask();
    21f8:	4b12      	ldr	r3, [pc, #72]	; (2244 <vTaskStartScheduler+0x70>)
    21fa:	4798      	blx	r3
    21fc:	0003      	movs	r3, r0
    21fe:	607b      	str	r3, [r7, #4]
			mtCOVERAGE_TEST_MARKER();
		}
	}
	#endif /* configUSE_TIMERS */

	if( xReturn == pdPASS )
    2200:	687b      	ldr	r3, [r7, #4]
    2202:	2b01      	cmp	r3, #1
    2204:	d10d      	bne.n	2222 <vTaskStartScheduler+0x4e>
		/* Interrupts are turned off here, to ensure a tick does not occur
		before or during the call to xPortStartScheduler().  The stacks of
		the created tasks contain a status word with interrupts switched on
		so interrupts will automatically get re-enabled when the first task
		starts to run. */
		portDISABLE_INTERRUPTS();
    2206:	b672      	cpsid	i
			structure specific to the task that will run first. */
			_impure_ptr = &( pxCurrentTCB->xNewLib_reent );
		}
		#endif /* configUSE_NEWLIB_REENTRANT */

		xNextTaskUnblockTime = portMAX_DELAY;
    2208:	4b0f      	ldr	r3, [pc, #60]	; (2248 <vTaskStartScheduler+0x74>)
    220a:	2201      	movs	r2, #1
    220c:	4252      	negs	r2, r2
    220e:	601a      	str	r2, [r3, #0]
		xSchedulerRunning = pdTRUE;
    2210:	4b0e      	ldr	r3, [pc, #56]	; (224c <vTaskStartScheduler+0x78>)
    2212:	2201      	movs	r2, #1
    2214:	601a      	str	r2, [r3, #0]
		xTickCount = ( TickType_t ) 0U;
    2216:	4b0e      	ldr	r3, [pc, #56]	; (2250 <vTaskStartScheduler+0x7c>)
    2218:	2200      	movs	r2, #0
    221a:	601a      	str	r2, [r3, #0]
		FreeRTOSConfig.h file. */
		portCONFIGURE_TIMER_FOR_RUN_TIME_STATS();

		/* Setting up the timer tick is hardware specific and thus in the
		portable interface. */
		if( xPortStartScheduler() != pdFALSE )
    221c:	4b0d      	ldr	r3, [pc, #52]	; (2254 <vTaskStartScheduler+0x80>)
    221e:	4798      	blx	r3
	}

	/* Prevent compiler warnings if INCLUDE_xTaskGetIdleTaskHandle is set to 0,
	meaning xIdleTaskHandle is not used anywhere else. */
	( void ) xIdleTaskHandle;
}
    2220:	e004      	b.n	222c <vTaskStartScheduler+0x58>
		configASSERT( xReturn != errCOULD_NOT_ALLOCATE_REQUIRED_MEMORY );
    2222:	687b      	ldr	r3, [r7, #4]
    2224:	3301      	adds	r3, #1
    2226:	d101      	bne.n	222c <vTaskStartScheduler+0x58>
    2228:	b672      	cpsid	i
    222a:	e7fe      	b.n	222a <vTaskStartScheduler+0x56>
}
    222c:	46c0      	nop			; (mov r8, r8)
    222e:	46bd      	mov	sp, r7
    2230:	b003      	add	sp, #12
    2232:	bd90      	pop	{r4, r7, pc}
    2234:	00006330 	.word	0x00006330
    2238:	0000283d 	.word	0x0000283d
    223c:	200031fc 	.word	0x200031fc
    2240:	00001f41 	.word	0x00001f41
    2244:	00002d71 	.word	0x00002d71
    2248:	200031f8 	.word	0x200031f8
    224c:	200031e4 	.word	0x200031e4
    2250:	200031dc 	.word	0x200031dc
    2254:	000010c9 	.word	0x000010c9

00002258 <vTaskSuspendAll>:
	vPortEndScheduler();
}
/*----------------------------------------------------------*/

void vTaskSuspendAll( void )
{
    2258:	b580      	push	{r7, lr}
    225a:	af00      	add	r7, sp, #0
	/* A critical section is not required as the variable is of type
	BaseType_t.  Please read Richard Barry's reply in the following link to a
	post in the FreeRTOS support forum before reporting this as a bug! -
	http://goo.gl/wu4acr */
	++uxSchedulerSuspended;
    225c:	4b03      	ldr	r3, [pc, #12]	; (226c <vTaskSuspendAll+0x14>)
    225e:	681b      	ldr	r3, [r3, #0]
    2260:	1c5a      	adds	r2, r3, #1
    2262:	4b02      	ldr	r3, [pc, #8]	; (226c <vTaskSuspendAll+0x14>)
    2264:	601a      	str	r2, [r3, #0]
}
    2266:	46c0      	nop			; (mov r8, r8)
    2268:	46bd      	mov	sp, r7
    226a:	bd80      	pop	{r7, pc}
    226c:	20003200 	.word	0x20003200

00002270 <xTaskResumeAll>:

#endif /* configUSE_TICKLESS_IDLE */
/*----------------------------------------------------------*/

BaseType_t xTaskResumeAll( void )
{
    2270:	b580      	push	{r7, lr}
    2272:	b084      	sub	sp, #16
    2274:	af00      	add	r7, sp, #0
TCB_t *pxTCB = NULL;
    2276:	2300      	movs	r3, #0
    2278:	60fb      	str	r3, [r7, #12]
BaseType_t xAlreadyYielded = pdFALSE;
    227a:	2300      	movs	r3, #0
    227c:	60bb      	str	r3, [r7, #8]

	/* If uxSchedulerSuspended is zero then this function does not match a
	previous call to vTaskSuspendAll(). */
	configASSERT( uxSchedulerSuspended );
    227e:	4b3a      	ldr	r3, [pc, #232]	; (2368 <xTaskResumeAll+0xf8>)
    2280:	681b      	ldr	r3, [r3, #0]
    2282:	2b00      	cmp	r3, #0
    2284:	d101      	bne.n	228a <xTaskResumeAll+0x1a>
    2286:	b672      	cpsid	i
    2288:	e7fe      	b.n	2288 <xTaskResumeAll+0x18>
	/* It is possible that an ISR caused a task to be removed from an event
	list while the scheduler was suspended.  If this was the case then the
	removed task will have been added to the xPendingReadyList.  Once the
	scheduler has been resumed it is safe to move all the pending ready
	tasks from this list into their appropriate ready list. */
	taskENTER_CRITICAL();
    228a:	4b38      	ldr	r3, [pc, #224]	; (236c <xTaskResumeAll+0xfc>)
    228c:	4798      	blx	r3
	{
		--uxSchedulerSuspended;
    228e:	4b36      	ldr	r3, [pc, #216]	; (2368 <xTaskResumeAll+0xf8>)
    2290:	681b      	ldr	r3, [r3, #0]
    2292:	1e5a      	subs	r2, r3, #1
    2294:	4b34      	ldr	r3, [pc, #208]	; (2368 <xTaskResumeAll+0xf8>)
    2296:	601a      	str	r2, [r3, #0]

		if( uxSchedulerSuspended == ( UBaseType_t ) pdFALSE )
    2298:	4b33      	ldr	r3, [pc, #204]	; (2368 <xTaskResumeAll+0xf8>)
    229a:	681b      	ldr	r3, [r3, #0]
    229c:	2b00      	cmp	r3, #0
    229e:	d15b      	bne.n	2358 <xTaskResumeAll+0xe8>
		{
			if( uxCurrentNumberOfTasks > ( UBaseType_t ) 0U )
    22a0:	4b33      	ldr	r3, [pc, #204]	; (2370 <xTaskResumeAll+0x100>)
    22a2:	681b      	ldr	r3, [r3, #0]
    22a4:	2b00      	cmp	r3, #0
    22a6:	d057      	beq.n	2358 <xTaskResumeAll+0xe8>
			{
				/* Move any readied tasks from the pending list into the
				appropriate ready list. */
				while( listLIST_IS_EMPTY( &xPendingReadyList ) == pdFALSE )
    22a8:	e02f      	b.n	230a <xTaskResumeAll+0x9a>
				{
					pxTCB = ( TCB_t * ) listGET_OWNER_OF_HEAD_ENTRY( ( &xPendingReadyList ) );
    22aa:	4b32      	ldr	r3, [pc, #200]	; (2374 <xTaskResumeAll+0x104>)
    22ac:	68db      	ldr	r3, [r3, #12]
    22ae:	68db      	ldr	r3, [r3, #12]
    22b0:	60fb      	str	r3, [r7, #12]
					( void ) uxListRemove( &( pxTCB->xEventListItem ) );
    22b2:	68fb      	ldr	r3, [r7, #12]
    22b4:	3318      	adds	r3, #24
    22b6:	0018      	movs	r0, r3
    22b8:	4b2f      	ldr	r3, [pc, #188]	; (2378 <xTaskResumeAll+0x108>)
    22ba:	4798      	blx	r3
					( void ) uxListRemove( &( pxTCB->xStateListItem ) );
    22bc:	68fb      	ldr	r3, [r7, #12]
    22be:	3304      	adds	r3, #4
    22c0:	0018      	movs	r0, r3
    22c2:	4b2d      	ldr	r3, [pc, #180]	; (2378 <xTaskResumeAll+0x108>)
    22c4:	4798      	blx	r3
					prvAddTaskToReadyList( pxTCB );
    22c6:	68fb      	ldr	r3, [r7, #12]
    22c8:	6ada      	ldr	r2, [r3, #44]	; 0x2c
    22ca:	4b2c      	ldr	r3, [pc, #176]	; (237c <xTaskResumeAll+0x10c>)
    22cc:	681b      	ldr	r3, [r3, #0]
    22ce:	429a      	cmp	r2, r3
    22d0:	d903      	bls.n	22da <xTaskResumeAll+0x6a>
    22d2:	68fb      	ldr	r3, [r7, #12]
    22d4:	6ada      	ldr	r2, [r3, #44]	; 0x2c
    22d6:	4b29      	ldr	r3, [pc, #164]	; (237c <xTaskResumeAll+0x10c>)
    22d8:	601a      	str	r2, [r3, #0]
    22da:	68fb      	ldr	r3, [r7, #12]
    22dc:	6ada      	ldr	r2, [r3, #44]	; 0x2c
    22de:	0013      	movs	r3, r2
    22e0:	009b      	lsls	r3, r3, #2
    22e2:	189b      	adds	r3, r3, r2
    22e4:	009b      	lsls	r3, r3, #2
    22e6:	4a26      	ldr	r2, [pc, #152]	; (2380 <xTaskResumeAll+0x110>)
    22e8:	189a      	adds	r2, r3, r2
    22ea:	68fb      	ldr	r3, [r7, #12]
    22ec:	3304      	adds	r3, #4
    22ee:	0019      	movs	r1, r3
    22f0:	0010      	movs	r0, r2
    22f2:	4b24      	ldr	r3, [pc, #144]	; (2384 <xTaskResumeAll+0x114>)
    22f4:	4798      	blx	r3

					/* If the moved task has a priority higher than the current
					task then a yield must be performed. */
					if( pxTCB->uxPriority >= pxCurrentTCB->uxPriority )
    22f6:	68fb      	ldr	r3, [r7, #12]
    22f8:	6ada      	ldr	r2, [r3, #44]	; 0x2c
    22fa:	4b23      	ldr	r3, [pc, #140]	; (2388 <xTaskResumeAll+0x118>)
    22fc:	681b      	ldr	r3, [r3, #0]
    22fe:	6adb      	ldr	r3, [r3, #44]	; 0x2c
    2300:	429a      	cmp	r2, r3
    2302:	d302      	bcc.n	230a <xTaskResumeAll+0x9a>
					{
						xYieldPending = pdTRUE;
    2304:	4b21      	ldr	r3, [pc, #132]	; (238c <xTaskResumeAll+0x11c>)
    2306:	2201      	movs	r2, #1
    2308:	601a      	str	r2, [r3, #0]
				while( listLIST_IS_EMPTY( &xPendingReadyList ) == pdFALSE )
    230a:	4b1a      	ldr	r3, [pc, #104]	; (2374 <xTaskResumeAll+0x104>)
    230c:	681b      	ldr	r3, [r3, #0]
    230e:	2b00      	cmp	r3, #0
    2310:	d1cb      	bne.n	22aa <xTaskResumeAll+0x3a>
					{
						mtCOVERAGE_TEST_MARKER();
					}
				}

				if( pxTCB != NULL )
    2312:	68fb      	ldr	r3, [r7, #12]
    2314:	2b00      	cmp	r3, #0
    2316:	d001      	beq.n	231c <xTaskResumeAll+0xac>
					which may have prevented the next unblock time from being
					re-calculated, in which case re-calculate it now.  Mainly
					important for low power tickless implementations, where
					this can prevent an unnecessary exit from low power
					state. */
					prvResetNextTaskUnblockTime();
    2318:	4b1d      	ldr	r3, [pc, #116]	; (2390 <xTaskResumeAll+0x120>)
    231a:	4798      	blx	r3
				/* If any ticks occurred while the scheduler was suspended then
				they should be processed now.  This ensures the tick count does
				not	slip, and that any delayed tasks are resumed at the correct
				time. */
				{
					UBaseType_t uxPendedCounts = uxPendedTicks; /* Non-volatile copy. */
    231c:	4b1d      	ldr	r3, [pc, #116]	; (2394 <xTaskResumeAll+0x124>)
    231e:	681b      	ldr	r3, [r3, #0]
    2320:	607b      	str	r3, [r7, #4]

					if( uxPendedCounts > ( UBaseType_t ) 0U )
    2322:	687b      	ldr	r3, [r7, #4]
    2324:	2b00      	cmp	r3, #0
    2326:	d00f      	beq.n	2348 <xTaskResumeAll+0xd8>
					{
						do
						{
							if( xTaskIncrementTick() != pdFALSE )
    2328:	4b1b      	ldr	r3, [pc, #108]	; (2398 <xTaskResumeAll+0x128>)
    232a:	4798      	blx	r3
    232c:	1e03      	subs	r3, r0, #0
    232e:	d002      	beq.n	2336 <xTaskResumeAll+0xc6>
							{
								xYieldPending = pdTRUE;
    2330:	4b16      	ldr	r3, [pc, #88]	; (238c <xTaskResumeAll+0x11c>)
    2332:	2201      	movs	r2, #1
    2334:	601a      	str	r2, [r3, #0]
							}
							else
							{
								mtCOVERAGE_TEST_MARKER();
							}
							--uxPendedCounts;
    2336:	687b      	ldr	r3, [r7, #4]
    2338:	3b01      	subs	r3, #1
    233a:	607b      	str	r3, [r7, #4]
						} while( uxPendedCounts > ( UBaseType_t ) 0U );
    233c:	687b      	ldr	r3, [r7, #4]
    233e:	2b00      	cmp	r3, #0
    2340:	d1f2      	bne.n	2328 <xTaskResumeAll+0xb8>

						uxPendedTicks = 0;
    2342:	4b14      	ldr	r3, [pc, #80]	; (2394 <xTaskResumeAll+0x124>)
    2344:	2200      	movs	r2, #0
    2346:	601a      	str	r2, [r3, #0]
					{
						mtCOVERAGE_TEST_MARKER();
					}
				}

				if( xYieldPending != pdFALSE )
    2348:	4b10      	ldr	r3, [pc, #64]	; (238c <xTaskResumeAll+0x11c>)
    234a:	681b      	ldr	r3, [r3, #0]
    234c:	2b00      	cmp	r3, #0
    234e:	d003      	beq.n	2358 <xTaskResumeAll+0xe8>
				{
					#if( configUSE_PREEMPTION != 0 )
					{
						xAlreadyYielded = pdTRUE;
    2350:	2301      	movs	r3, #1
    2352:	60bb      	str	r3, [r7, #8]
					}
					#endif
					taskYIELD_IF_USING_PREEMPTION();
    2354:	4b11      	ldr	r3, [pc, #68]	; (239c <xTaskResumeAll+0x12c>)
    2356:	4798      	blx	r3
		else
		{
			mtCOVERAGE_TEST_MARKER();
		}
	}
	taskEXIT_CRITICAL();
    2358:	4b11      	ldr	r3, [pc, #68]	; (23a0 <xTaskResumeAll+0x130>)
    235a:	4798      	blx	r3

	return xAlreadyYielded;
    235c:	68bb      	ldr	r3, [r7, #8]
}
    235e:	0018      	movs	r0, r3
    2360:	46bd      	mov	sp, r7
    2362:	b004      	add	sp, #16
    2364:	bd80      	pop	{r7, pc}
    2366:	46c0      	nop			; (mov r8, r8)
    2368:	20003200 	.word	0x20003200
    236c:	00001141 	.word	0x00001141
    2370:	200031d8 	.word	0x200031d8
    2374:	20003198 	.word	0x20003198
    2378:	00000fb1 	.word	0x00000fb1
    237c:	200031e0 	.word	0x200031e0
    2380:	20003104 	.word	0x20003104
    2384:	00000f01 	.word	0x00000f01
    2388:	20003100 	.word	0x20003100
    238c:	200031ec 	.word	0x200031ec
    2390:	00002985 	.word	0x00002985
    2394:	200031e8 	.word	0x200031e8
    2398:	000023c1 	.word	0x000023c1
    239c:	00001121 	.word	0x00001121
    23a0:	00001165 	.word	0x00001165

000023a4 <xTaskGetTickCount>:
/*-----------------------------------------------------------*/

TickType_t xTaskGetTickCount( void )
{
    23a4:	b580      	push	{r7, lr}
    23a6:	b082      	sub	sp, #8
    23a8:	af00      	add	r7, sp, #0
TickType_t xTicks;

	/* Critical section required if running on a 16 bit processor. */
	portTICK_TYPE_ENTER_CRITICAL();
	{
		xTicks = xTickCount;
    23aa:	4b04      	ldr	r3, [pc, #16]	; (23bc <xTaskGetTickCount+0x18>)
    23ac:	681b      	ldr	r3, [r3, #0]
    23ae:	607b      	str	r3, [r7, #4]
	}
	portTICK_TYPE_EXIT_CRITICAL();

	return xTicks;
    23b0:	687b      	ldr	r3, [r7, #4]
}
    23b2:	0018      	movs	r0, r3
    23b4:	46bd      	mov	sp, r7
    23b6:	b002      	add	sp, #8
    23b8:	bd80      	pop	{r7, pc}
    23ba:	46c0      	nop			; (mov r8, r8)
    23bc:	200031dc 	.word	0x200031dc

000023c0 <xTaskIncrementTick>:

#endif /* INCLUDE_xTaskAbortDelay */
/*----------------------------------------------------------*/

BaseType_t xTaskIncrementTick( void )
{
    23c0:	b580      	push	{r7, lr}
    23c2:	b086      	sub	sp, #24
    23c4:	af00      	add	r7, sp, #0
TCB_t * pxTCB;
TickType_t xItemValue;
BaseType_t xSwitchRequired = pdFALSE;
    23c6:	2300      	movs	r3, #0
    23c8:	617b      	str	r3, [r7, #20]

	/* Called by the portable layer each time a tick interrupt occurs.
	Increments the tick then checks to see if the new tick value will cause any
	tasks to be unblocked. */
	traceTASK_INCREMENT_TICK( xTickCount );
	if( uxSchedulerSuspended == ( UBaseType_t ) pdFALSE )
    23ca:	4b4c      	ldr	r3, [pc, #304]	; (24fc <xTaskIncrementTick+0x13c>)
    23cc:	681b      	ldr	r3, [r3, #0]
    23ce:	2b00      	cmp	r3, #0
    23d0:	d000      	beq.n	23d4 <xTaskIncrementTick+0x14>
    23d2:	e083      	b.n	24dc <xTaskIncrementTick+0x11c>
	{
		/* Minor optimisation.  The tick count cannot change in this
		block. */
		const TickType_t xConstTickCount = xTickCount + ( TickType_t ) 1;
    23d4:	4b4a      	ldr	r3, [pc, #296]	; (2500 <xTaskIncrementTick+0x140>)
    23d6:	681b      	ldr	r3, [r3, #0]
    23d8:	3301      	adds	r3, #1
    23da:	613b      	str	r3, [r7, #16]

		/* Increment the RTOS tick, switching the delayed and overflowed
		delayed lists if it wraps to 0. */
		xTickCount = xConstTickCount;
    23dc:	4b48      	ldr	r3, [pc, #288]	; (2500 <xTaskIncrementTick+0x140>)
    23de:	693a      	ldr	r2, [r7, #16]
    23e0:	601a      	str	r2, [r3, #0]

		if( xConstTickCount == ( TickType_t ) 0U ) /*lint !e774 'if' does not always evaluate to false as it is looking for an overflow. */
    23e2:	693b      	ldr	r3, [r7, #16]
    23e4:	2b00      	cmp	r3, #0
    23e6:	d117      	bne.n	2418 <xTaskIncrementTick+0x58>
		{
			taskSWITCH_DELAYED_LISTS();
    23e8:	4b46      	ldr	r3, [pc, #280]	; (2504 <xTaskIncrementTick+0x144>)
    23ea:	681b      	ldr	r3, [r3, #0]
    23ec:	681b      	ldr	r3, [r3, #0]
    23ee:	2b00      	cmp	r3, #0
    23f0:	d001      	beq.n	23f6 <xTaskIncrementTick+0x36>
    23f2:	b672      	cpsid	i
    23f4:	e7fe      	b.n	23f4 <xTaskIncrementTick+0x34>
    23f6:	4b43      	ldr	r3, [pc, #268]	; (2504 <xTaskIncrementTick+0x144>)
    23f8:	681b      	ldr	r3, [r3, #0]
    23fa:	60fb      	str	r3, [r7, #12]
    23fc:	4b42      	ldr	r3, [pc, #264]	; (2508 <xTaskIncrementTick+0x148>)
    23fe:	681a      	ldr	r2, [r3, #0]
    2400:	4b40      	ldr	r3, [pc, #256]	; (2504 <xTaskIncrementTick+0x144>)
    2402:	601a      	str	r2, [r3, #0]
    2404:	4b40      	ldr	r3, [pc, #256]	; (2508 <xTaskIncrementTick+0x148>)
    2406:	68fa      	ldr	r2, [r7, #12]
    2408:	601a      	str	r2, [r3, #0]
    240a:	4b40      	ldr	r3, [pc, #256]	; (250c <xTaskIncrementTick+0x14c>)
    240c:	681b      	ldr	r3, [r3, #0]
    240e:	1c5a      	adds	r2, r3, #1
    2410:	4b3e      	ldr	r3, [pc, #248]	; (250c <xTaskIncrementTick+0x14c>)
    2412:	601a      	str	r2, [r3, #0]
    2414:	4b3e      	ldr	r3, [pc, #248]	; (2510 <xTaskIncrementTick+0x150>)
    2416:	4798      	blx	r3

		/* See if this tick has made a timeout expire.  Tasks are stored in
		the	queue in the order of their wake time - meaning once one task
		has been found whose block time has not expired there is no need to
		look any further down the list. */
		if( xConstTickCount >= xNextTaskUnblockTime )
    2418:	4b3e      	ldr	r3, [pc, #248]	; (2514 <xTaskIncrementTick+0x154>)
    241a:	681b      	ldr	r3, [r3, #0]
    241c:	693a      	ldr	r2, [r7, #16]
    241e:	429a      	cmp	r2, r3
    2420:	d34e      	bcc.n	24c0 <xTaskIncrementTick+0x100>
		{
			for( ;; )
			{
				if( listLIST_IS_EMPTY( pxDelayedTaskList ) != pdFALSE )
    2422:	4b38      	ldr	r3, [pc, #224]	; (2504 <xTaskIncrementTick+0x144>)
    2424:	681b      	ldr	r3, [r3, #0]
    2426:	681b      	ldr	r3, [r3, #0]
    2428:	2b00      	cmp	r3, #0
    242a:	d101      	bne.n	2430 <xTaskIncrementTick+0x70>
    242c:	2301      	movs	r3, #1
    242e:	e000      	b.n	2432 <xTaskIncrementTick+0x72>
    2430:	2300      	movs	r3, #0
    2432:	2b00      	cmp	r3, #0
    2434:	d004      	beq.n	2440 <xTaskIncrementTick+0x80>
					/* The delayed list is empty.  Set xNextTaskUnblockTime
					to the maximum possible value so it is extremely
					unlikely that the
					if( xTickCount >= xNextTaskUnblockTime ) test will pass
					next time through. */
					xNextTaskUnblockTime = portMAX_DELAY; /*lint !e961 MISRA exception as the casts are only redundant for some ports. */
    2436:	4b37      	ldr	r3, [pc, #220]	; (2514 <xTaskIncrementTick+0x154>)
    2438:	2201      	movs	r2, #1
    243a:	4252      	negs	r2, r2
    243c:	601a      	str	r2, [r3, #0]
					break;
    243e:	e03f      	b.n	24c0 <xTaskIncrementTick+0x100>
				{
					/* The delayed list is not empty, get the value of the
					item at the head of the delayed list.  This is the time
					at which the task at the head of the delayed list must
					be removed from the Blocked state. */
					pxTCB = ( TCB_t * ) listGET_OWNER_OF_HEAD_ENTRY( pxDelayedTaskList );
    2440:	4b30      	ldr	r3, [pc, #192]	; (2504 <xTaskIncrementTick+0x144>)
    2442:	681b      	ldr	r3, [r3, #0]
    2444:	68db      	ldr	r3, [r3, #12]
    2446:	68db      	ldr	r3, [r3, #12]
    2448:	60bb      	str	r3, [r7, #8]
					xItemValue = listGET_LIST_ITEM_VALUE( &( pxTCB->xStateListItem ) );
    244a:	68bb      	ldr	r3, [r7, #8]
    244c:	685b      	ldr	r3, [r3, #4]
    244e:	607b      	str	r3, [r7, #4]

					if( xConstTickCount < xItemValue )
    2450:	693a      	ldr	r2, [r7, #16]
    2452:	687b      	ldr	r3, [r7, #4]
    2454:	429a      	cmp	r2, r3
    2456:	d203      	bcs.n	2460 <xTaskIncrementTick+0xa0>
						/* It is not time to unblock this item yet, but the
						item value is the time at which the task at the head
						of the blocked list must be removed from the Blocked
						state -	so record the item value in
						xNextTaskUnblockTime. */
						xNextTaskUnblockTime = xItemValue;
    2458:	4b2e      	ldr	r3, [pc, #184]	; (2514 <xTaskIncrementTick+0x154>)
    245a:	687a      	ldr	r2, [r7, #4]
    245c:	601a      	str	r2, [r3, #0]
						break;
    245e:	e02f      	b.n	24c0 <xTaskIncrementTick+0x100>
					{
						mtCOVERAGE_TEST_MARKER();
					}

					/* It is time to remove the item from the Blocked state. */
					( void ) uxListRemove( &( pxTCB->xStateListItem ) );
    2460:	68bb      	ldr	r3, [r7, #8]
    2462:	3304      	adds	r3, #4
    2464:	0018      	movs	r0, r3
    2466:	4b2c      	ldr	r3, [pc, #176]	; (2518 <xTaskIncrementTick+0x158>)
    2468:	4798      	blx	r3

					/* Is the task waiting on an event also?  If so remove
					it from the event list. */
					if( listLIST_ITEM_CONTAINER( &( pxTCB->xEventListItem ) ) != NULL )
    246a:	68bb      	ldr	r3, [r7, #8]
    246c:	6a9b      	ldr	r3, [r3, #40]	; 0x28
    246e:	2b00      	cmp	r3, #0
    2470:	d004      	beq.n	247c <xTaskIncrementTick+0xbc>
					{
						( void ) uxListRemove( &( pxTCB->xEventListItem ) );
    2472:	68bb      	ldr	r3, [r7, #8]
    2474:	3318      	adds	r3, #24
    2476:	0018      	movs	r0, r3
    2478:	4b27      	ldr	r3, [pc, #156]	; (2518 <xTaskIncrementTick+0x158>)
    247a:	4798      	blx	r3
						mtCOVERAGE_TEST_MARKER();
					}

					/* Place the unblocked task into the appropriate ready
					list. */
					prvAddTaskToReadyList( pxTCB );
    247c:	68bb      	ldr	r3, [r7, #8]
    247e:	6ada      	ldr	r2, [r3, #44]	; 0x2c
    2480:	4b26      	ldr	r3, [pc, #152]	; (251c <xTaskIncrementTick+0x15c>)
    2482:	681b      	ldr	r3, [r3, #0]
    2484:	429a      	cmp	r2, r3
    2486:	d903      	bls.n	2490 <xTaskIncrementTick+0xd0>
    2488:	68bb      	ldr	r3, [r7, #8]
    248a:	6ada      	ldr	r2, [r3, #44]	; 0x2c
    248c:	4b23      	ldr	r3, [pc, #140]	; (251c <xTaskIncrementTick+0x15c>)
    248e:	601a      	str	r2, [r3, #0]
    2490:	68bb      	ldr	r3, [r7, #8]
    2492:	6ada      	ldr	r2, [r3, #44]	; 0x2c
    2494:	0013      	movs	r3, r2
    2496:	009b      	lsls	r3, r3, #2
    2498:	189b      	adds	r3, r3, r2
    249a:	009b      	lsls	r3, r3, #2
    249c:	4a20      	ldr	r2, [pc, #128]	; (2520 <xTaskIncrementTick+0x160>)
    249e:	189a      	adds	r2, r3, r2
    24a0:	68bb      	ldr	r3, [r7, #8]
    24a2:	3304      	adds	r3, #4
    24a4:	0019      	movs	r1, r3
    24a6:	0010      	movs	r0, r2
    24a8:	4b1e      	ldr	r3, [pc, #120]	; (2524 <xTaskIncrementTick+0x164>)
    24aa:	4798      	blx	r3
					{
						/* Preemption is on, but a context switch should
						only be performed if the unblocked task has a
						priority that is equal to or higher than the
						currently executing task. */
						if( pxTCB->uxPriority >= pxCurrentTCB->uxPriority )
    24ac:	68bb      	ldr	r3, [r7, #8]
    24ae:	6ada      	ldr	r2, [r3, #44]	; 0x2c
    24b0:	4b1d      	ldr	r3, [pc, #116]	; (2528 <xTaskIncrementTick+0x168>)
    24b2:	681b      	ldr	r3, [r3, #0]
    24b4:	6adb      	ldr	r3, [r3, #44]	; 0x2c
    24b6:	429a      	cmp	r2, r3
    24b8:	d3b3      	bcc.n	2422 <xTaskIncrementTick+0x62>
						{
							xSwitchRequired = pdTRUE;
    24ba:	2301      	movs	r3, #1
    24bc:	617b      	str	r3, [r7, #20]
				if( listLIST_IS_EMPTY( pxDelayedTaskList ) != pdFALSE )
    24be:	e7b0      	b.n	2422 <xTaskIncrementTick+0x62>
		/* Tasks of equal priority to the currently running task will share
		processing time (time slice) if preemption is on, and the application
		writer has not explicitly turned time slicing off. */
		#if ( ( configUSE_PREEMPTION == 1 ) && ( configUSE_TIME_SLICING == 1 ) )
		{
			if( listCURRENT_LIST_LENGTH( &( pxReadyTasksLists[ pxCurrentTCB->uxPriority ] ) ) > ( UBaseType_t ) 1 )
    24c0:	4b19      	ldr	r3, [pc, #100]	; (2528 <xTaskIncrementTick+0x168>)
    24c2:	681b      	ldr	r3, [r3, #0]
    24c4:	6ada      	ldr	r2, [r3, #44]	; 0x2c
    24c6:	4916      	ldr	r1, [pc, #88]	; (2520 <xTaskIncrementTick+0x160>)
    24c8:	0013      	movs	r3, r2
    24ca:	009b      	lsls	r3, r3, #2
    24cc:	189b      	adds	r3, r3, r2
    24ce:	009b      	lsls	r3, r3, #2
    24d0:	585b      	ldr	r3, [r3, r1]
    24d2:	2b01      	cmp	r3, #1
    24d4:	d907      	bls.n	24e6 <xTaskIncrementTick+0x126>
			{
				xSwitchRequired = pdTRUE;
    24d6:	2301      	movs	r3, #1
    24d8:	617b      	str	r3, [r7, #20]
    24da:	e004      	b.n	24e6 <xTaskIncrementTick+0x126>
		}
		#endif /* configUSE_TICK_HOOK */
	}
	else
	{
		++uxPendedTicks;
    24dc:	4b13      	ldr	r3, [pc, #76]	; (252c <xTaskIncrementTick+0x16c>)
    24de:	681b      	ldr	r3, [r3, #0]
    24e0:	1c5a      	adds	r2, r3, #1
    24e2:	4b12      	ldr	r3, [pc, #72]	; (252c <xTaskIncrementTick+0x16c>)
    24e4:	601a      	str	r2, [r3, #0]
		#endif
	}

	#if ( configUSE_PREEMPTION == 1 )
	{
		if( xYieldPending != pdFALSE )
    24e6:	4b12      	ldr	r3, [pc, #72]	; (2530 <xTaskIncrementTick+0x170>)
    24e8:	681b      	ldr	r3, [r3, #0]
    24ea:	2b00      	cmp	r3, #0
    24ec:	d001      	beq.n	24f2 <xTaskIncrementTick+0x132>
		{
			xSwitchRequired = pdTRUE;
    24ee:	2301      	movs	r3, #1
    24f0:	617b      	str	r3, [r7, #20]
			mtCOVERAGE_TEST_MARKER();
		}
	}
	#endif /* configUSE_PREEMPTION */

	return xSwitchRequired;
    24f2:	697b      	ldr	r3, [r7, #20]
}
    24f4:	0018      	movs	r0, r3
    24f6:	46bd      	mov	sp, r7
    24f8:	b006      	add	sp, #24
    24fa:	bd80      	pop	{r7, pc}
    24fc:	20003200 	.word	0x20003200
    2500:	200031dc 	.word	0x200031dc
    2504:	20003190 	.word	0x20003190
    2508:	20003194 	.word	0x20003194
    250c:	200031f0 	.word	0x200031f0
    2510:	00002985 	.word	0x00002985
    2514:	200031f8 	.word	0x200031f8
    2518:	00000fb1 	.word	0x00000fb1
    251c:	200031e0 	.word	0x200031e0
    2520:	20003104 	.word	0x20003104
    2524:	00000f01 	.word	0x00000f01
    2528:	20003100 	.word	0x20003100
    252c:	200031e8 	.word	0x200031e8
    2530:	200031ec 	.word	0x200031ec

00002534 <vTaskSwitchContext>:

#endif /* configUSE_APPLICATION_TASK_TAG */
/*-----------------------------------------------------------*/

void vTaskSwitchContext( void )
{
    2534:	b580      	push	{r7, lr}
    2536:	b082      	sub	sp, #8
    2538:	af00      	add	r7, sp, #0
	if( uxSchedulerSuspended != ( UBaseType_t ) pdFALSE )
    253a:	4b2a      	ldr	r3, [pc, #168]	; (25e4 <vTaskSwitchContext+0xb0>)
    253c:	681b      	ldr	r3, [r3, #0]
    253e:	2b00      	cmp	r3, #0
    2540:	d003      	beq.n	254a <vTaskSwitchContext+0x16>
	{
		/* The scheduler is currently suspended - do not allow a context
		switch. */
		xYieldPending = pdTRUE;
    2542:	4b29      	ldr	r3, [pc, #164]	; (25e8 <vTaskSwitchContext+0xb4>)
    2544:	2201      	movs	r2, #1
    2546:	601a      	str	r2, [r3, #0]
			structure specific to this task. */
			_impure_ptr = &( pxCurrentTCB->xNewLib_reent );
		}
		#endif /* configUSE_NEWLIB_REENTRANT */
	}
}
    2548:	e048      	b.n	25dc <vTaskSwitchContext+0xa8>
		xYieldPending = pdFALSE;
    254a:	4b27      	ldr	r3, [pc, #156]	; (25e8 <vTaskSwitchContext+0xb4>)
    254c:	2200      	movs	r2, #0
    254e:	601a      	str	r2, [r3, #0]
		taskCHECK_FOR_STACK_OVERFLOW();
    2550:	4b26      	ldr	r3, [pc, #152]	; (25ec <vTaskSwitchContext+0xb8>)
    2552:	681b      	ldr	r3, [r3, #0]
    2554:	681a      	ldr	r2, [r3, #0]
    2556:	4b25      	ldr	r3, [pc, #148]	; (25ec <vTaskSwitchContext+0xb8>)
    2558:	681b      	ldr	r3, [r3, #0]
    255a:	6b1b      	ldr	r3, [r3, #48]	; 0x30
    255c:	429a      	cmp	r2, r3
    255e:	d808      	bhi.n	2572 <vTaskSwitchContext+0x3e>
    2560:	4b22      	ldr	r3, [pc, #136]	; (25ec <vTaskSwitchContext+0xb8>)
    2562:	681a      	ldr	r2, [r3, #0]
    2564:	4b21      	ldr	r3, [pc, #132]	; (25ec <vTaskSwitchContext+0xb8>)
    2566:	681b      	ldr	r3, [r3, #0]
    2568:	3334      	adds	r3, #52	; 0x34
    256a:	0019      	movs	r1, r3
    256c:	0010      	movs	r0, r2
    256e:	4b20      	ldr	r3, [pc, #128]	; (25f0 <vTaskSwitchContext+0xbc>)
    2570:	4798      	blx	r3
		taskSELECT_HIGHEST_PRIORITY_TASK();
    2572:	4b20      	ldr	r3, [pc, #128]	; (25f4 <vTaskSwitchContext+0xc0>)
    2574:	681b      	ldr	r3, [r3, #0]
    2576:	607b      	str	r3, [r7, #4]
    2578:	e007      	b.n	258a <vTaskSwitchContext+0x56>
    257a:	687b      	ldr	r3, [r7, #4]
    257c:	2b00      	cmp	r3, #0
    257e:	d101      	bne.n	2584 <vTaskSwitchContext+0x50>
    2580:	b672      	cpsid	i
    2582:	e7fe      	b.n	2582 <vTaskSwitchContext+0x4e>
    2584:	687b      	ldr	r3, [r7, #4]
    2586:	3b01      	subs	r3, #1
    2588:	607b      	str	r3, [r7, #4]
    258a:	491b      	ldr	r1, [pc, #108]	; (25f8 <vTaskSwitchContext+0xc4>)
    258c:	687a      	ldr	r2, [r7, #4]
    258e:	0013      	movs	r3, r2
    2590:	009b      	lsls	r3, r3, #2
    2592:	189b      	adds	r3, r3, r2
    2594:	009b      	lsls	r3, r3, #2
    2596:	585b      	ldr	r3, [r3, r1]
    2598:	2b00      	cmp	r3, #0
    259a:	d0ee      	beq.n	257a <vTaskSwitchContext+0x46>
    259c:	687a      	ldr	r2, [r7, #4]
    259e:	0013      	movs	r3, r2
    25a0:	009b      	lsls	r3, r3, #2
    25a2:	189b      	adds	r3, r3, r2
    25a4:	009b      	lsls	r3, r3, #2
    25a6:	4a14      	ldr	r2, [pc, #80]	; (25f8 <vTaskSwitchContext+0xc4>)
    25a8:	189b      	adds	r3, r3, r2
    25aa:	603b      	str	r3, [r7, #0]
    25ac:	683b      	ldr	r3, [r7, #0]
    25ae:	685b      	ldr	r3, [r3, #4]
    25b0:	685a      	ldr	r2, [r3, #4]
    25b2:	683b      	ldr	r3, [r7, #0]
    25b4:	605a      	str	r2, [r3, #4]
    25b6:	683b      	ldr	r3, [r7, #0]
    25b8:	685a      	ldr	r2, [r3, #4]
    25ba:	683b      	ldr	r3, [r7, #0]
    25bc:	3308      	adds	r3, #8
    25be:	429a      	cmp	r2, r3
    25c0:	d104      	bne.n	25cc <vTaskSwitchContext+0x98>
    25c2:	683b      	ldr	r3, [r7, #0]
    25c4:	685b      	ldr	r3, [r3, #4]
    25c6:	685a      	ldr	r2, [r3, #4]
    25c8:	683b      	ldr	r3, [r7, #0]
    25ca:	605a      	str	r2, [r3, #4]
    25cc:	683b      	ldr	r3, [r7, #0]
    25ce:	685b      	ldr	r3, [r3, #4]
    25d0:	68da      	ldr	r2, [r3, #12]
    25d2:	4b06      	ldr	r3, [pc, #24]	; (25ec <vTaskSwitchContext+0xb8>)
    25d4:	601a      	str	r2, [r3, #0]
    25d6:	4b07      	ldr	r3, [pc, #28]	; (25f4 <vTaskSwitchContext+0xc0>)
    25d8:	687a      	ldr	r2, [r7, #4]
    25da:	601a      	str	r2, [r3, #0]
}
    25dc:	46c0      	nop			; (mov r8, r8)
    25de:	46bd      	mov	sp, r7
    25e0:	b002      	add	sp, #8
    25e2:	bd80      	pop	{r7, pc}
    25e4:	20003200 	.word	0x20003200
    25e8:	200031ec 	.word	0x200031ec
    25ec:	20003100 	.word	0x20003100
    25f0:	00005659 	.word	0x00005659
    25f4:	200031e0 	.word	0x200031e0
    25f8:	20003104 	.word	0x20003104

000025fc <vTaskPlaceOnEventList>:
/*-----------------------------------------------------------*/

void vTaskPlaceOnEventList( List_t * const pxEventList, const TickType_t xTicksToWait )
{
    25fc:	b580      	push	{r7, lr}
    25fe:	b082      	sub	sp, #8
    2600:	af00      	add	r7, sp, #0
    2602:	6078      	str	r0, [r7, #4]
    2604:	6039      	str	r1, [r7, #0]
	configASSERT( pxEventList );
    2606:	687b      	ldr	r3, [r7, #4]
    2608:	2b00      	cmp	r3, #0
    260a:	d101      	bne.n	2610 <vTaskPlaceOnEventList+0x14>
    260c:	b672      	cpsid	i
    260e:	e7fe      	b.n	260e <vTaskPlaceOnEventList+0x12>

	/* Place the event list item of the TCB in the appropriate event list.
	This is placed in the list in priority order so the highest priority task
	is the first to be woken by the event.  The queue that contains the event
	list is locked, preventing simultaneous access from interrupts. */
	vListInsert( pxEventList, &( pxCurrentTCB->xEventListItem ) );
    2610:	4b08      	ldr	r3, [pc, #32]	; (2634 <vTaskPlaceOnEventList+0x38>)
    2612:	681b      	ldr	r3, [r3, #0]
    2614:	3318      	adds	r3, #24
    2616:	001a      	movs	r2, r3
    2618:	687b      	ldr	r3, [r7, #4]
    261a:	0011      	movs	r1, r2
    261c:	0018      	movs	r0, r3
    261e:	4b06      	ldr	r3, [pc, #24]	; (2638 <vTaskPlaceOnEventList+0x3c>)
    2620:	4798      	blx	r3

	prvAddCurrentTaskToDelayedList( xTicksToWait, pdTRUE );
    2622:	683b      	ldr	r3, [r7, #0]
    2624:	2101      	movs	r1, #1
    2626:	0018      	movs	r0, r3
    2628:	4b04      	ldr	r3, [pc, #16]	; (263c <vTaskPlaceOnEventList+0x40>)
    262a:	4798      	blx	r3
}
    262c:	46c0      	nop			; (mov r8, r8)
    262e:	46bd      	mov	sp, r7
    2630:	b002      	add	sp, #8
    2632:	bd80      	pop	{r7, pc}
    2634:	20003100 	.word	0x20003100
    2638:	00000f45 	.word	0x00000f45
    263c:	00002cbd 	.word	0x00002cbd

00002640 <vTaskPlaceOnEventListRestricted>:
/*-----------------------------------------------------------*/

#if( configUSE_TIMERS == 1 )

	void vTaskPlaceOnEventListRestricted( List_t * const pxEventList, TickType_t xTicksToWait, const BaseType_t xWaitIndefinitely )
	{
    2640:	b580      	push	{r7, lr}
    2642:	b084      	sub	sp, #16
    2644:	af00      	add	r7, sp, #0
    2646:	60f8      	str	r0, [r7, #12]
    2648:	60b9      	str	r1, [r7, #8]
    264a:	607a      	str	r2, [r7, #4]
		configASSERT( pxEventList );
    264c:	68fb      	ldr	r3, [r7, #12]
    264e:	2b00      	cmp	r3, #0
    2650:	d101      	bne.n	2656 <vTaskPlaceOnEventListRestricted+0x16>
    2652:	b672      	cpsid	i
    2654:	e7fe      	b.n	2654 <vTaskPlaceOnEventListRestricted+0x14>

		/* Place the event list item of the TCB in the appropriate event list.
		In this case it is assume that this is the only task that is going to
		be waiting on this event list, so the faster vListInsertEnd() function
		can be used in place of vListInsert. */
		vListInsertEnd( pxEventList, &( pxCurrentTCB->xEventListItem ) );
    2656:	4b0c      	ldr	r3, [pc, #48]	; (2688 <vTaskPlaceOnEventListRestricted+0x48>)
    2658:	681b      	ldr	r3, [r3, #0]
    265a:	3318      	adds	r3, #24
    265c:	001a      	movs	r2, r3
    265e:	68fb      	ldr	r3, [r7, #12]
    2660:	0011      	movs	r1, r2
    2662:	0018      	movs	r0, r3
    2664:	4b09      	ldr	r3, [pc, #36]	; (268c <vTaskPlaceOnEventListRestricted+0x4c>)
    2666:	4798      	blx	r3

		/* If the task should block indefinitely then set the block time to a
		value that will be recognised as an indefinite delay inside the
		prvAddCurrentTaskToDelayedList() function. */
		if( xWaitIndefinitely != pdFALSE )
    2668:	687b      	ldr	r3, [r7, #4]
    266a:	2b00      	cmp	r3, #0
    266c:	d002      	beq.n	2674 <vTaskPlaceOnEventListRestricted+0x34>
		{
			xTicksToWait = portMAX_DELAY;
    266e:	2301      	movs	r3, #1
    2670:	425b      	negs	r3, r3
    2672:	60bb      	str	r3, [r7, #8]
		}

		traceTASK_DELAY_UNTIL( ( xTickCount + xTicksToWait ) );
		prvAddCurrentTaskToDelayedList( xTicksToWait, xWaitIndefinitely );
    2674:	687a      	ldr	r2, [r7, #4]
    2676:	68bb      	ldr	r3, [r7, #8]
    2678:	0011      	movs	r1, r2
    267a:	0018      	movs	r0, r3
    267c:	4b04      	ldr	r3, [pc, #16]	; (2690 <vTaskPlaceOnEventListRestricted+0x50>)
    267e:	4798      	blx	r3
	}
    2680:	46c0      	nop			; (mov r8, r8)
    2682:	46bd      	mov	sp, r7
    2684:	b004      	add	sp, #16
    2686:	bd80      	pop	{r7, pc}
    2688:	20003100 	.word	0x20003100
    268c:	00000f01 	.word	0x00000f01
    2690:	00002cbd 	.word	0x00002cbd

00002694 <xTaskRemoveFromEventList>:

#endif /* configUSE_TIMERS */
/*-----------------------------------------------------------*/

BaseType_t xTaskRemoveFromEventList( const List_t * const pxEventList )
{
    2694:	b580      	push	{r7, lr}
    2696:	b084      	sub	sp, #16
    2698:	af00      	add	r7, sp, #0
    269a:	6078      	str	r0, [r7, #4]
	get called - the lock count on the queue will get modified instead.  This
	means exclusive access to the event list is guaranteed here.

	This function assumes that a check has already been made to ensure that
	pxEventList is not empty. */
	pxUnblockedTCB = ( TCB_t * ) listGET_OWNER_OF_HEAD_ENTRY( pxEventList );
    269c:	687b      	ldr	r3, [r7, #4]
    269e:	68db      	ldr	r3, [r3, #12]
    26a0:	68db      	ldr	r3, [r3, #12]
    26a2:	60bb      	str	r3, [r7, #8]
	configASSERT( pxUnblockedTCB );
    26a4:	68bb      	ldr	r3, [r7, #8]
    26a6:	2b00      	cmp	r3, #0
    26a8:	d101      	bne.n	26ae <xTaskRemoveFromEventList+0x1a>
    26aa:	b672      	cpsid	i
    26ac:	e7fe      	b.n	26ac <xTaskRemoveFromEventList+0x18>
	( void ) uxListRemove( &( pxUnblockedTCB->xEventListItem ) );
    26ae:	68bb      	ldr	r3, [r7, #8]
    26b0:	3318      	adds	r3, #24
    26b2:	0018      	movs	r0, r3
    26b4:	4b1f      	ldr	r3, [pc, #124]	; (2734 <xTaskRemoveFromEventList+0xa0>)
    26b6:	4798      	blx	r3

	if( uxSchedulerSuspended == ( UBaseType_t ) pdFALSE )
    26b8:	4b1f      	ldr	r3, [pc, #124]	; (2738 <xTaskRemoveFromEventList+0xa4>)
    26ba:	681b      	ldr	r3, [r3, #0]
    26bc:	2b00      	cmp	r3, #0
    26be:	d11d      	bne.n	26fc <xTaskRemoveFromEventList+0x68>
	{
		( void ) uxListRemove( &( pxUnblockedTCB->xStateListItem ) );
    26c0:	68bb      	ldr	r3, [r7, #8]
    26c2:	3304      	adds	r3, #4
    26c4:	0018      	movs	r0, r3
    26c6:	4b1b      	ldr	r3, [pc, #108]	; (2734 <xTaskRemoveFromEventList+0xa0>)
    26c8:	4798      	blx	r3
		prvAddTaskToReadyList( pxUnblockedTCB );
    26ca:	68bb      	ldr	r3, [r7, #8]
    26cc:	6ada      	ldr	r2, [r3, #44]	; 0x2c
    26ce:	4b1b      	ldr	r3, [pc, #108]	; (273c <xTaskRemoveFromEventList+0xa8>)
    26d0:	681b      	ldr	r3, [r3, #0]
    26d2:	429a      	cmp	r2, r3
    26d4:	d903      	bls.n	26de <xTaskRemoveFromEventList+0x4a>
    26d6:	68bb      	ldr	r3, [r7, #8]
    26d8:	6ada      	ldr	r2, [r3, #44]	; 0x2c
    26da:	4b18      	ldr	r3, [pc, #96]	; (273c <xTaskRemoveFromEventList+0xa8>)
    26dc:	601a      	str	r2, [r3, #0]
    26de:	68bb      	ldr	r3, [r7, #8]
    26e0:	6ada      	ldr	r2, [r3, #44]	; 0x2c
    26e2:	0013      	movs	r3, r2
    26e4:	009b      	lsls	r3, r3, #2
    26e6:	189b      	adds	r3, r3, r2
    26e8:	009b      	lsls	r3, r3, #2
    26ea:	4a15      	ldr	r2, [pc, #84]	; (2740 <xTaskRemoveFromEventList+0xac>)
    26ec:	189a      	adds	r2, r3, r2
    26ee:	68bb      	ldr	r3, [r7, #8]
    26f0:	3304      	adds	r3, #4
    26f2:	0019      	movs	r1, r3
    26f4:	0010      	movs	r0, r2
    26f6:	4b13      	ldr	r3, [pc, #76]	; (2744 <xTaskRemoveFromEventList+0xb0>)
    26f8:	4798      	blx	r3
    26fa:	e007      	b.n	270c <xTaskRemoveFromEventList+0x78>
	}
	else
	{
		/* The delayed and ready lists cannot be accessed, so hold this task
		pending until the scheduler is resumed. */
		vListInsertEnd( &( xPendingReadyList ), &( pxUnblockedTCB->xEventListItem ) );
    26fc:	68bb      	ldr	r3, [r7, #8]
    26fe:	3318      	adds	r3, #24
    2700:	001a      	movs	r2, r3
    2702:	4b11      	ldr	r3, [pc, #68]	; (2748 <xTaskRemoveFromEventList+0xb4>)
    2704:	0011      	movs	r1, r2
    2706:	0018      	movs	r0, r3
    2708:	4b0e      	ldr	r3, [pc, #56]	; (2744 <xTaskRemoveFromEventList+0xb0>)
    270a:	4798      	blx	r3
	}

	if( pxUnblockedTCB->uxPriority > pxCurrentTCB->uxPriority )
    270c:	68bb      	ldr	r3, [r7, #8]
    270e:	6ada      	ldr	r2, [r3, #44]	; 0x2c
    2710:	4b0e      	ldr	r3, [pc, #56]	; (274c <xTaskRemoveFromEventList+0xb8>)
    2712:	681b      	ldr	r3, [r3, #0]
    2714:	6adb      	ldr	r3, [r3, #44]	; 0x2c
    2716:	429a      	cmp	r2, r3
    2718:	d905      	bls.n	2726 <xTaskRemoveFromEventList+0x92>
	{
		/* Return true if the task removed from the event list has a higher
		priority than the calling task.  This allows the calling task to know if
		it should force a context switch now. */
		xReturn = pdTRUE;
    271a:	2301      	movs	r3, #1
    271c:	60fb      	str	r3, [r7, #12]

		/* Mark that a yield is pending in case the user is not using the
		"xHigherPriorityTaskWoken" parameter to an ISR safe FreeRTOS function. */
		xYieldPending = pdTRUE;
    271e:	4b0c      	ldr	r3, [pc, #48]	; (2750 <xTaskRemoveFromEventList+0xbc>)
    2720:	2201      	movs	r2, #1
    2722:	601a      	str	r2, [r3, #0]
    2724:	e001      	b.n	272a <xTaskRemoveFromEventList+0x96>
	}
	else
	{
		xReturn = pdFALSE;
    2726:	2300      	movs	r3, #0
    2728:	60fb      	str	r3, [r7, #12]
		ensure it is updated at the earliest possible time. */
		prvResetNextTaskUnblockTime();
	}
	#endif

	return xReturn;
    272a:	68fb      	ldr	r3, [r7, #12]
}
    272c:	0018      	movs	r0, r3
    272e:	46bd      	mov	sp, r7
    2730:	b004      	add	sp, #16
    2732:	bd80      	pop	{r7, pc}
    2734:	00000fb1 	.word	0x00000fb1
    2738:	20003200 	.word	0x20003200
    273c:	200031e0 	.word	0x200031e0
    2740:	20003104 	.word	0x20003104
    2744:	00000f01 	.word	0x00000f01
    2748:	20003198 	.word	0x20003198
    274c:	20003100 	.word	0x20003100
    2750:	200031ec 	.word	0x200031ec

00002754 <vTaskInternalSetTimeOutState>:
	taskEXIT_CRITICAL();
}
/*-----------------------------------------------------------*/

void vTaskInternalSetTimeOutState( TimeOut_t * const pxTimeOut )
{
    2754:	b580      	push	{r7, lr}
    2756:	b082      	sub	sp, #8
    2758:	af00      	add	r7, sp, #0
    275a:	6078      	str	r0, [r7, #4]
	/* For internal use only as it does not use a critical section. */
	pxTimeOut->xOverflowCount = xNumOfOverflows;
    275c:	4b05      	ldr	r3, [pc, #20]	; (2774 <vTaskInternalSetTimeOutState+0x20>)
    275e:	681a      	ldr	r2, [r3, #0]
    2760:	687b      	ldr	r3, [r7, #4]
    2762:	601a      	str	r2, [r3, #0]
	pxTimeOut->xTimeOnEntering = xTickCount;
    2764:	4b04      	ldr	r3, [pc, #16]	; (2778 <vTaskInternalSetTimeOutState+0x24>)
    2766:	681a      	ldr	r2, [r3, #0]
    2768:	687b      	ldr	r3, [r7, #4]
    276a:	605a      	str	r2, [r3, #4]
}
    276c:	46c0      	nop			; (mov r8, r8)
    276e:	46bd      	mov	sp, r7
    2770:	b002      	add	sp, #8
    2772:	bd80      	pop	{r7, pc}
    2774:	200031f0 	.word	0x200031f0
    2778:	200031dc 	.word	0x200031dc

0000277c <xTaskCheckForTimeOut>:
/*-----------------------------------------------------------*/

BaseType_t xTaskCheckForTimeOut( TimeOut_t * const pxTimeOut, TickType_t * const pxTicksToWait )
{
    277c:	b580      	push	{r7, lr}
    277e:	b086      	sub	sp, #24
    2780:	af00      	add	r7, sp, #0
    2782:	6078      	str	r0, [r7, #4]
    2784:	6039      	str	r1, [r7, #0]
BaseType_t xReturn;

	configASSERT( pxTimeOut );
    2786:	687b      	ldr	r3, [r7, #4]
    2788:	2b00      	cmp	r3, #0
    278a:	d101      	bne.n	2790 <xTaskCheckForTimeOut+0x14>
    278c:	b672      	cpsid	i
    278e:	e7fe      	b.n	278e <xTaskCheckForTimeOut+0x12>
	configASSERT( pxTicksToWait );
    2790:	683b      	ldr	r3, [r7, #0]
    2792:	2b00      	cmp	r3, #0
    2794:	d101      	bne.n	279a <xTaskCheckForTimeOut+0x1e>
    2796:	b672      	cpsid	i
    2798:	e7fe      	b.n	2798 <xTaskCheckForTimeOut+0x1c>

	taskENTER_CRITICAL();
    279a:	4b1e      	ldr	r3, [pc, #120]	; (2814 <xTaskCheckForTimeOut+0x98>)
    279c:	4798      	blx	r3
	{
		/* Minor optimisation.  The tick count cannot change in this block. */
		const TickType_t xConstTickCount = xTickCount;
    279e:	4b1e      	ldr	r3, [pc, #120]	; (2818 <xTaskCheckForTimeOut+0x9c>)
    27a0:	681b      	ldr	r3, [r3, #0]
    27a2:	613b      	str	r3, [r7, #16]
		const TickType_t xElapsedTime = xConstTickCount - pxTimeOut->xTimeOnEntering;
    27a4:	687b      	ldr	r3, [r7, #4]
    27a6:	685b      	ldr	r3, [r3, #4]
    27a8:	693a      	ldr	r2, [r7, #16]
    27aa:	1ad3      	subs	r3, r2, r3
    27ac:	60fb      	str	r3, [r7, #12]
			}
			else
		#endif

		#if ( INCLUDE_vTaskSuspend == 1 )
			if( *pxTicksToWait == portMAX_DELAY )
    27ae:	683b      	ldr	r3, [r7, #0]
    27b0:	681b      	ldr	r3, [r3, #0]
    27b2:	3301      	adds	r3, #1
    27b4:	d102      	bne.n	27bc <xTaskCheckForTimeOut+0x40>
			{
				/* If INCLUDE_vTaskSuspend is set to 1 and the block time
				specified is the maximum block time then the task should block
				indefinitely, and therefore never time out. */
				xReturn = pdFALSE;
    27b6:	2300      	movs	r3, #0
    27b8:	617b      	str	r3, [r7, #20]
    27ba:	e024      	b.n	2806 <xTaskCheckForTimeOut+0x8a>
			}
			else
		#endif

		if( ( xNumOfOverflows != pxTimeOut->xOverflowCount ) && ( xConstTickCount >= pxTimeOut->xTimeOnEntering ) ) /*lint !e525 Indentation preferred as is to make code within pre-processor directives clearer. */
    27bc:	687b      	ldr	r3, [r7, #4]
    27be:	681a      	ldr	r2, [r3, #0]
    27c0:	4b16      	ldr	r3, [pc, #88]	; (281c <xTaskCheckForTimeOut+0xa0>)
    27c2:	681b      	ldr	r3, [r3, #0]
    27c4:	429a      	cmp	r2, r3
    27c6:	d007      	beq.n	27d8 <xTaskCheckForTimeOut+0x5c>
    27c8:	687b      	ldr	r3, [r7, #4]
    27ca:	685a      	ldr	r2, [r3, #4]
    27cc:	693b      	ldr	r3, [r7, #16]
    27ce:	429a      	cmp	r2, r3
    27d0:	d802      	bhi.n	27d8 <xTaskCheckForTimeOut+0x5c>
			/* The tick count is greater than the time at which
			vTaskSetTimeout() was called, but has also overflowed since
			vTaskSetTimeOut() was called.  It must have wrapped all the way
			around and gone past again. This passed since vTaskSetTimeout()
			was called. */
			xReturn = pdTRUE;
    27d2:	2301      	movs	r3, #1
    27d4:	617b      	str	r3, [r7, #20]
    27d6:	e016      	b.n	2806 <xTaskCheckForTimeOut+0x8a>
		}
		else if( xElapsedTime < *pxTicksToWait ) /*lint !e961 Explicit casting is only redundant with some compilers, whereas others require it to prevent integer conversion errors. */
    27d8:	683b      	ldr	r3, [r7, #0]
    27da:	681a      	ldr	r2, [r3, #0]
    27dc:	68fb      	ldr	r3, [r7, #12]
    27de:	429a      	cmp	r2, r3
    27e0:	d90c      	bls.n	27fc <xTaskCheckForTimeOut+0x80>
		{
			/* Not a genuine timeout. Adjust parameters for time remaining. */
			*pxTicksToWait -= xElapsedTime;
    27e2:	683b      	ldr	r3, [r7, #0]
    27e4:	681a      	ldr	r2, [r3, #0]
    27e6:	68fb      	ldr	r3, [r7, #12]
    27e8:	1ad2      	subs	r2, r2, r3
    27ea:	683b      	ldr	r3, [r7, #0]
    27ec:	601a      	str	r2, [r3, #0]
			vTaskInternalSetTimeOutState( pxTimeOut );
    27ee:	687b      	ldr	r3, [r7, #4]
    27f0:	0018      	movs	r0, r3
    27f2:	4b0b      	ldr	r3, [pc, #44]	; (2820 <xTaskCheckForTimeOut+0xa4>)
    27f4:	4798      	blx	r3
			xReturn = pdFALSE;
    27f6:	2300      	movs	r3, #0
    27f8:	617b      	str	r3, [r7, #20]
    27fa:	e004      	b.n	2806 <xTaskCheckForTimeOut+0x8a>
		}
		else
		{
			*pxTicksToWait = 0;
    27fc:	683b      	ldr	r3, [r7, #0]
    27fe:	2200      	movs	r2, #0
    2800:	601a      	str	r2, [r3, #0]
			xReturn = pdTRUE;
    2802:	2301      	movs	r3, #1
    2804:	617b      	str	r3, [r7, #20]
		}
	}
	taskEXIT_CRITICAL();
    2806:	4b07      	ldr	r3, [pc, #28]	; (2824 <xTaskCheckForTimeOut+0xa8>)
    2808:	4798      	blx	r3

	return xReturn;
    280a:	697b      	ldr	r3, [r7, #20]
}
    280c:	0018      	movs	r0, r3
    280e:	46bd      	mov	sp, r7
    2810:	b006      	add	sp, #24
    2812:	bd80      	pop	{r7, pc}
    2814:	00001141 	.word	0x00001141
    2818:	200031dc 	.word	0x200031dc
    281c:	200031f0 	.word	0x200031f0
    2820:	00002755 	.word	0x00002755
    2824:	00001165 	.word	0x00001165

00002828 <vTaskMissedYield>:
/*-----------------------------------------------------------*/

void vTaskMissedYield( void )
{
    2828:	b580      	push	{r7, lr}
    282a:	af00      	add	r7, sp, #0
	xYieldPending = pdTRUE;
    282c:	4b02      	ldr	r3, [pc, #8]	; (2838 <vTaskMissedYield+0x10>)
    282e:	2201      	movs	r2, #1
    2830:	601a      	str	r2, [r3, #0]
}
    2832:	46c0      	nop			; (mov r8, r8)
    2834:	46bd      	mov	sp, r7
    2836:	bd80      	pop	{r7, pc}
    2838:	200031ec 	.word	0x200031ec

0000283c <prvIdleTask>:
 *
 * void prvIdleTask( void *pvParameters );
 *
 */
static portTASK_FUNCTION( prvIdleTask, pvParameters )
{
    283c:	b580      	push	{r7, lr}
    283e:	b082      	sub	sp, #8
    2840:	af00      	add	r7, sp, #0
    2842:	6078      	str	r0, [r7, #4]

	for( ;; )
	{
		/* See if any tasks have deleted themselves - if so then the idle task
		is responsible for freeing the deleted task's TCB and stack. */
		prvCheckTasksWaitingTermination();
    2844:	4b04      	ldr	r3, [pc, #16]	; (2858 <prvIdleTask+0x1c>)
    2846:	4798      	blx	r3

			A critical region is not required here as we are just reading from
			the list, and an occasional incorrect value will not matter.  If
			the ready list at the idle priority contains more than one task
			then a task other than the idle task is ready to execute. */
			if( listCURRENT_LIST_LENGTH( &( pxReadyTasksLists[ tskIDLE_PRIORITY ] ) ) > ( UBaseType_t ) 1 )
    2848:	4b04      	ldr	r3, [pc, #16]	; (285c <prvIdleTask+0x20>)
    284a:	681b      	ldr	r3, [r3, #0]
    284c:	2b01      	cmp	r3, #1
    284e:	d9f9      	bls.n	2844 <prvIdleTask+0x8>
			{
				taskYIELD();
    2850:	4b03      	ldr	r3, [pc, #12]	; (2860 <prvIdleTask+0x24>)
    2852:	4798      	blx	r3
		prvCheckTasksWaitingTermination();
    2854:	e7f6      	b.n	2844 <prvIdleTask+0x8>
    2856:	46c0      	nop			; (mov r8, r8)
    2858:	000028f1 	.word	0x000028f1
    285c:	20003104 	.word	0x20003104
    2860:	00001121 	.word	0x00001121

00002864 <prvInitialiseTaskLists>:

#endif /* portUSING_MPU_WRAPPERS */
/*-----------------------------------------------------------*/

static void prvInitialiseTaskLists( void )
{
    2864:	b580      	push	{r7, lr}
    2866:	b082      	sub	sp, #8
    2868:	af00      	add	r7, sp, #0
UBaseType_t uxPriority;

	for( uxPriority = ( UBaseType_t ) 0U; uxPriority < ( UBaseType_t ) configMAX_PRIORITIES; uxPriority++ )
    286a:	2300      	movs	r3, #0
    286c:	607b      	str	r3, [r7, #4]
    286e:	e00c      	b.n	288a <prvInitialiseTaskLists+0x26>
	{
		vListInitialise( &( pxReadyTasksLists[ uxPriority ] ) );
    2870:	687a      	ldr	r2, [r7, #4]
    2872:	0013      	movs	r3, r2
    2874:	009b      	lsls	r3, r3, #2
    2876:	189b      	adds	r3, r3, r2
    2878:	009b      	lsls	r3, r3, #2
    287a:	4a14      	ldr	r2, [pc, #80]	; (28cc <prvInitialiseTaskLists+0x68>)
    287c:	189b      	adds	r3, r3, r2
    287e:	0018      	movs	r0, r3
    2880:	4b13      	ldr	r3, [pc, #76]	; (28d0 <prvInitialiseTaskLists+0x6c>)
    2882:	4798      	blx	r3
	for( uxPriority = ( UBaseType_t ) 0U; uxPriority < ( UBaseType_t ) configMAX_PRIORITIES; uxPriority++ )
    2884:	687b      	ldr	r3, [r7, #4]
    2886:	3301      	adds	r3, #1
    2888:	607b      	str	r3, [r7, #4]
    288a:	687b      	ldr	r3, [r7, #4]
    288c:	2b04      	cmp	r3, #4
    288e:	d9ef      	bls.n	2870 <prvInitialiseTaskLists+0xc>
	}

	vListInitialise( &xDelayedTaskList1 );
    2890:	4b10      	ldr	r3, [pc, #64]	; (28d4 <prvInitialiseTaskLists+0x70>)
    2892:	0018      	movs	r0, r3
    2894:	4b0e      	ldr	r3, [pc, #56]	; (28d0 <prvInitialiseTaskLists+0x6c>)
    2896:	4798      	blx	r3
	vListInitialise( &xDelayedTaskList2 );
    2898:	4b0f      	ldr	r3, [pc, #60]	; (28d8 <prvInitialiseTaskLists+0x74>)
    289a:	0018      	movs	r0, r3
    289c:	4b0c      	ldr	r3, [pc, #48]	; (28d0 <prvInitialiseTaskLists+0x6c>)
    289e:	4798      	blx	r3
	vListInitialise( &xPendingReadyList );
    28a0:	4b0e      	ldr	r3, [pc, #56]	; (28dc <prvInitialiseTaskLists+0x78>)
    28a2:	0018      	movs	r0, r3
    28a4:	4b0a      	ldr	r3, [pc, #40]	; (28d0 <prvInitialiseTaskLists+0x6c>)
    28a6:	4798      	blx	r3

	#if ( INCLUDE_vTaskDelete == 1 )
	{
		vListInitialise( &xTasksWaitingTermination );
    28a8:	4b0d      	ldr	r3, [pc, #52]	; (28e0 <prvInitialiseTaskLists+0x7c>)
    28aa:	0018      	movs	r0, r3
    28ac:	4b08      	ldr	r3, [pc, #32]	; (28d0 <prvInitialiseTaskLists+0x6c>)
    28ae:	4798      	blx	r3
	}
	#endif /* INCLUDE_vTaskDelete */

	#if ( INCLUDE_vTaskSuspend == 1 )
	{
		vListInitialise( &xSuspendedTaskList );
    28b0:	4b0c      	ldr	r3, [pc, #48]	; (28e4 <prvInitialiseTaskLists+0x80>)
    28b2:	0018      	movs	r0, r3
    28b4:	4b06      	ldr	r3, [pc, #24]	; (28d0 <prvInitialiseTaskLists+0x6c>)
    28b6:	4798      	blx	r3
	}
	#endif /* INCLUDE_vTaskSuspend */

	/* Start with pxDelayedTaskList using list1 and the pxOverflowDelayedTaskList
	using list2. */
	pxDelayedTaskList = &xDelayedTaskList1;
    28b8:	4b0b      	ldr	r3, [pc, #44]	; (28e8 <prvInitialiseTaskLists+0x84>)
    28ba:	4a06      	ldr	r2, [pc, #24]	; (28d4 <prvInitialiseTaskLists+0x70>)
    28bc:	601a      	str	r2, [r3, #0]
	pxOverflowDelayedTaskList = &xDelayedTaskList2;
    28be:	4b0b      	ldr	r3, [pc, #44]	; (28ec <prvInitialiseTaskLists+0x88>)
    28c0:	4a05      	ldr	r2, [pc, #20]	; (28d8 <prvInitialiseTaskLists+0x74>)
    28c2:	601a      	str	r2, [r3, #0]
}
    28c4:	46c0      	nop			; (mov r8, r8)
    28c6:	46bd      	mov	sp, r7
    28c8:	b002      	add	sp, #8
    28ca:	bd80      	pop	{r7, pc}
    28cc:	20003104 	.word	0x20003104
    28d0:	00000eaf 	.word	0x00000eaf
    28d4:	20003168 	.word	0x20003168
    28d8:	2000317c 	.word	0x2000317c
    28dc:	20003198 	.word	0x20003198
    28e0:	200031ac 	.word	0x200031ac
    28e4:	200031c4 	.word	0x200031c4
    28e8:	20003190 	.word	0x20003190
    28ec:	20003194 	.word	0x20003194

000028f0 <prvCheckTasksWaitingTermination>:
/*-----------------------------------------------------------*/

static void prvCheckTasksWaitingTermination( void )
{
    28f0:	b580      	push	{r7, lr}
    28f2:	b082      	sub	sp, #8
    28f4:	af00      	add	r7, sp, #0
	{
		TCB_t *pxTCB;

		/* uxDeletedTasksWaitingCleanUp is used to prevent vTaskSuspendAll()
		being called too often in the idle task. */
		while( uxDeletedTasksWaitingCleanUp > ( UBaseType_t ) 0U )
    28f6:	e01a      	b.n	292e <prvCheckTasksWaitingTermination+0x3e>
		{
			taskENTER_CRITICAL();
    28f8:	4b11      	ldr	r3, [pc, #68]	; (2940 <prvCheckTasksWaitingTermination+0x50>)
    28fa:	4798      	blx	r3
			{
				pxTCB = ( TCB_t * ) listGET_OWNER_OF_HEAD_ENTRY( ( &xTasksWaitingTermination ) );
    28fc:	4b11      	ldr	r3, [pc, #68]	; (2944 <prvCheckTasksWaitingTermination+0x54>)
    28fe:	68db      	ldr	r3, [r3, #12]
    2900:	68db      	ldr	r3, [r3, #12]
    2902:	607b      	str	r3, [r7, #4]
				( void ) uxListRemove( &( pxTCB->xStateListItem ) );
    2904:	687b      	ldr	r3, [r7, #4]
    2906:	3304      	adds	r3, #4
    2908:	0018      	movs	r0, r3
    290a:	4b0f      	ldr	r3, [pc, #60]	; (2948 <prvCheckTasksWaitingTermination+0x58>)
    290c:	4798      	blx	r3
				--uxCurrentNumberOfTasks;
    290e:	4b0f      	ldr	r3, [pc, #60]	; (294c <prvCheckTasksWaitingTermination+0x5c>)
    2910:	681b      	ldr	r3, [r3, #0]
    2912:	1e5a      	subs	r2, r3, #1
    2914:	4b0d      	ldr	r3, [pc, #52]	; (294c <prvCheckTasksWaitingTermination+0x5c>)
    2916:	601a      	str	r2, [r3, #0]
				--uxDeletedTasksWaitingCleanUp;
    2918:	4b0d      	ldr	r3, [pc, #52]	; (2950 <prvCheckTasksWaitingTermination+0x60>)
    291a:	681b      	ldr	r3, [r3, #0]
    291c:	1e5a      	subs	r2, r3, #1
    291e:	4b0c      	ldr	r3, [pc, #48]	; (2950 <prvCheckTasksWaitingTermination+0x60>)
    2920:	601a      	str	r2, [r3, #0]
			}
			taskEXIT_CRITICAL();
    2922:	4b0c      	ldr	r3, [pc, #48]	; (2954 <prvCheckTasksWaitingTermination+0x64>)
    2924:	4798      	blx	r3

			prvDeleteTCB( pxTCB );
    2926:	687b      	ldr	r3, [r7, #4]
    2928:	0018      	movs	r0, r3
    292a:	4b0b      	ldr	r3, [pc, #44]	; (2958 <prvCheckTasksWaitingTermination+0x68>)
    292c:	4798      	blx	r3
		while( uxDeletedTasksWaitingCleanUp > ( UBaseType_t ) 0U )
    292e:	4b08      	ldr	r3, [pc, #32]	; (2950 <prvCheckTasksWaitingTermination+0x60>)
    2930:	681b      	ldr	r3, [r3, #0]
    2932:	2b00      	cmp	r3, #0
    2934:	d1e0      	bne.n	28f8 <prvCheckTasksWaitingTermination+0x8>
		}
	}
	#endif /* INCLUDE_vTaskDelete */
}
    2936:	46c0      	nop			; (mov r8, r8)
    2938:	46bd      	mov	sp, r7
    293a:	b002      	add	sp, #8
    293c:	bd80      	pop	{r7, pc}
    293e:	46c0      	nop			; (mov r8, r8)
    2940:	00001141 	.word	0x00001141
    2944:	200031ac 	.word	0x200031ac
    2948:	00000fb1 	.word	0x00000fb1
    294c:	200031d8 	.word	0x200031d8
    2950:	200031c0 	.word	0x200031c0
    2954:	00001165 	.word	0x00001165
    2958:	0000295d 	.word	0x0000295d

0000295c <prvDeleteTCB>:
/*-----------------------------------------------------------*/

#if ( INCLUDE_vTaskDelete == 1 )

	static void prvDeleteTCB( TCB_t *pxTCB )
	{
    295c:	b580      	push	{r7, lr}
    295e:	b082      	sub	sp, #8
    2960:	af00      	add	r7, sp, #0
    2962:	6078      	str	r0, [r7, #4]

		#if( ( configSUPPORT_DYNAMIC_ALLOCATION == 1 ) && ( configSUPPORT_STATIC_ALLOCATION == 0 ) && ( portUSING_MPU_WRAPPERS == 0 ) )
		{
			/* The task can only have been allocated dynamically - free both
			the stack and TCB. */
			vPortFree( pxTCB->pxStack );
    2964:	687b      	ldr	r3, [r7, #4]
    2966:	6b1b      	ldr	r3, [r3, #48]	; 0x30
    2968:	0018      	movs	r0, r3
    296a:	4b05      	ldr	r3, [pc, #20]	; (2980 <prvDeleteTCB+0x24>)
    296c:	4798      	blx	r3
			vPortFree( pxTCB );
    296e:	687b      	ldr	r3, [r7, #4]
    2970:	0018      	movs	r0, r3
    2972:	4b03      	ldr	r3, [pc, #12]	; (2980 <prvDeleteTCB+0x24>)
    2974:	4798      	blx	r3
				configASSERT( pxTCB->ucStaticallyAllocated == tskSTATICALLY_ALLOCATED_STACK_AND_TCB	);
				mtCOVERAGE_TEST_MARKER();
			}
		}
		#endif /* configSUPPORT_DYNAMIC_ALLOCATION */
	}
    2976:	46c0      	nop			; (mov r8, r8)
    2978:	46bd      	mov	sp, r7
    297a:	b002      	add	sp, #8
    297c:	bd80      	pop	{r7, pc}
    297e:	46c0      	nop			; (mov r8, r8)
    2980:	00001321 	.word	0x00001321

00002984 <prvResetNextTaskUnblockTime>:

#endif /* INCLUDE_vTaskDelete */
/*-----------------------------------------------------------*/

static void prvResetNextTaskUnblockTime( void )
{
    2984:	b580      	push	{r7, lr}
    2986:	b082      	sub	sp, #8
    2988:	af00      	add	r7, sp, #0
TCB_t *pxTCB;

	if( listLIST_IS_EMPTY( pxDelayedTaskList ) != pdFALSE )
    298a:	4b0e      	ldr	r3, [pc, #56]	; (29c4 <prvResetNextTaskUnblockTime+0x40>)
    298c:	681b      	ldr	r3, [r3, #0]
    298e:	681b      	ldr	r3, [r3, #0]
    2990:	2b00      	cmp	r3, #0
    2992:	d101      	bne.n	2998 <prvResetNextTaskUnblockTime+0x14>
    2994:	2301      	movs	r3, #1
    2996:	e000      	b.n	299a <prvResetNextTaskUnblockTime+0x16>
    2998:	2300      	movs	r3, #0
    299a:	2b00      	cmp	r3, #0
    299c:	d004      	beq.n	29a8 <prvResetNextTaskUnblockTime+0x24>
	{
		/* The new current delayed list is empty.  Set xNextTaskUnblockTime to
		the maximum possible value so it is	extremely unlikely that the
		if( xTickCount >= xNextTaskUnblockTime ) test will pass until
		there is an item in the delayed list. */
		xNextTaskUnblockTime = portMAX_DELAY;
    299e:	4b0a      	ldr	r3, [pc, #40]	; (29c8 <prvResetNextTaskUnblockTime+0x44>)
    29a0:	2201      	movs	r2, #1
    29a2:	4252      	negs	r2, r2
    29a4:	601a      	str	r2, [r3, #0]
		which the task at the head of the delayed list should be removed
		from the Blocked state. */
		( pxTCB ) = ( TCB_t * ) listGET_OWNER_OF_HEAD_ENTRY( pxDelayedTaskList );
		xNextTaskUnblockTime = listGET_LIST_ITEM_VALUE( &( ( pxTCB )->xStateListItem ) );
	}
}
    29a6:	e008      	b.n	29ba <prvResetNextTaskUnblockTime+0x36>
		( pxTCB ) = ( TCB_t * ) listGET_OWNER_OF_HEAD_ENTRY( pxDelayedTaskList );
    29a8:	4b06      	ldr	r3, [pc, #24]	; (29c4 <prvResetNextTaskUnblockTime+0x40>)
    29aa:	681b      	ldr	r3, [r3, #0]
    29ac:	68db      	ldr	r3, [r3, #12]
    29ae:	68db      	ldr	r3, [r3, #12]
    29b0:	607b      	str	r3, [r7, #4]
		xNextTaskUnblockTime = listGET_LIST_ITEM_VALUE( &( ( pxTCB )->xStateListItem ) );
    29b2:	687b      	ldr	r3, [r7, #4]
    29b4:	685a      	ldr	r2, [r3, #4]
    29b6:	4b04      	ldr	r3, [pc, #16]	; (29c8 <prvResetNextTaskUnblockTime+0x44>)
    29b8:	601a      	str	r2, [r3, #0]
}
    29ba:	46c0      	nop			; (mov r8, r8)
    29bc:	46bd      	mov	sp, r7
    29be:	b002      	add	sp, #8
    29c0:	bd80      	pop	{r7, pc}
    29c2:	46c0      	nop			; (mov r8, r8)
    29c4:	20003190 	.word	0x20003190
    29c8:	200031f8 	.word	0x200031f8

000029cc <xTaskGetSchedulerState>:
/*-----------------------------------------------------------*/

#if ( ( INCLUDE_xTaskGetSchedulerState == 1 ) || ( configUSE_TIMERS == 1 ) )

	BaseType_t xTaskGetSchedulerState( void )
	{
    29cc:	b580      	push	{r7, lr}
    29ce:	b082      	sub	sp, #8
    29d0:	af00      	add	r7, sp, #0
	BaseType_t xReturn;

		if( xSchedulerRunning == pdFALSE )
    29d2:	4b0a      	ldr	r3, [pc, #40]	; (29fc <xTaskGetSchedulerState+0x30>)
    29d4:	681b      	ldr	r3, [r3, #0]
    29d6:	2b00      	cmp	r3, #0
    29d8:	d102      	bne.n	29e0 <xTaskGetSchedulerState+0x14>
		{
			xReturn = taskSCHEDULER_NOT_STARTED;
    29da:	2301      	movs	r3, #1
    29dc:	607b      	str	r3, [r7, #4]
    29de:	e008      	b.n	29f2 <xTaskGetSchedulerState+0x26>
		}
		else
		{
			if( uxSchedulerSuspended == ( UBaseType_t ) pdFALSE )
    29e0:	4b07      	ldr	r3, [pc, #28]	; (2a00 <xTaskGetSchedulerState+0x34>)
    29e2:	681b      	ldr	r3, [r3, #0]
    29e4:	2b00      	cmp	r3, #0
    29e6:	d102      	bne.n	29ee <xTaskGetSchedulerState+0x22>
			{
				xReturn = taskSCHEDULER_RUNNING;
    29e8:	2302      	movs	r3, #2
    29ea:	607b      	str	r3, [r7, #4]
    29ec:	e001      	b.n	29f2 <xTaskGetSchedulerState+0x26>
			}
			else
			{
				xReturn = taskSCHEDULER_SUSPENDED;
    29ee:	2300      	movs	r3, #0
    29f0:	607b      	str	r3, [r7, #4]
			}
		}

		return xReturn;
    29f2:	687b      	ldr	r3, [r7, #4]
	}
    29f4:	0018      	movs	r0, r3
    29f6:	46bd      	mov	sp, r7
    29f8:	b002      	add	sp, #8
    29fa:	bd80      	pop	{r7, pc}
    29fc:	200031e4 	.word	0x200031e4
    2a00:	20003200 	.word	0x20003200

00002a04 <xTaskPriorityInherit>:
/*-----------------------------------------------------------*/

#if ( configUSE_MUTEXES == 1 )

	BaseType_t xTaskPriorityInherit( TaskHandle_t const pxMutexHolder )
	{
    2a04:	b580      	push	{r7, lr}
    2a06:	b084      	sub	sp, #16
    2a08:	af00      	add	r7, sp, #0
    2a0a:	6078      	str	r0, [r7, #4]
	TCB_t * const pxMutexHolderTCB = ( TCB_t * ) pxMutexHolder;
    2a0c:	687b      	ldr	r3, [r7, #4]
    2a0e:	60bb      	str	r3, [r7, #8]
	BaseType_t xReturn = pdFALSE;
    2a10:	2300      	movs	r3, #0
    2a12:	60fb      	str	r3, [r7, #12]

		/* If the mutex was given back by an interrupt while the queue was
		locked then the mutex holder might now be NULL.  _RB_ Is this still
		needed as interrupts can no longer use mutexes? */
		if( pxMutexHolder != NULL )
    2a14:	687b      	ldr	r3, [r7, #4]
    2a16:	2b00      	cmp	r3, #0
    2a18:	d056      	beq.n	2ac8 <xTaskPriorityInherit+0xc4>
		{
			/* If the holder of the mutex has a priority below the priority of
			the task attempting to obtain the mutex then it will temporarily
			inherit the priority of the task attempting to obtain the mutex. */
			if( pxMutexHolderTCB->uxPriority < pxCurrentTCB->uxPriority )
    2a1a:	68bb      	ldr	r3, [r7, #8]
    2a1c:	6ada      	ldr	r2, [r3, #44]	; 0x2c
    2a1e:	4b2d      	ldr	r3, [pc, #180]	; (2ad4 <xTaskPriorityInherit+0xd0>)
    2a20:	681b      	ldr	r3, [r3, #0]
    2a22:	6adb      	ldr	r3, [r3, #44]	; 0x2c
    2a24:	429a      	cmp	r2, r3
    2a26:	d246      	bcs.n	2ab6 <xTaskPriorityInherit+0xb2>
			{
				/* Adjust the mutex holder state to account for its new
				priority.  Only reset the event list item value if the value is
				not being used for anything else. */
				if( ( listGET_LIST_ITEM_VALUE( &( pxMutexHolderTCB->xEventListItem ) ) & taskEVENT_LIST_ITEM_VALUE_IN_USE ) == 0UL )
    2a28:	68bb      	ldr	r3, [r7, #8]
    2a2a:	699b      	ldr	r3, [r3, #24]
    2a2c:	2b00      	cmp	r3, #0
    2a2e:	db06      	blt.n	2a3e <xTaskPriorityInherit+0x3a>
				{
					listSET_LIST_ITEM_VALUE( &( pxMutexHolderTCB->xEventListItem ), ( TickType_t ) configMAX_PRIORITIES - ( TickType_t ) pxCurrentTCB->uxPriority ); /*lint !e961 MISRA exception as the casts are only redundant for some ports. */
    2a30:	4b28      	ldr	r3, [pc, #160]	; (2ad4 <xTaskPriorityInherit+0xd0>)
    2a32:	681b      	ldr	r3, [r3, #0]
    2a34:	6adb      	ldr	r3, [r3, #44]	; 0x2c
    2a36:	2205      	movs	r2, #5
    2a38:	1ad2      	subs	r2, r2, r3
    2a3a:	68bb      	ldr	r3, [r7, #8]
    2a3c:	619a      	str	r2, [r3, #24]
					mtCOVERAGE_TEST_MARKER();
				}

				/* If the task being modified is in the ready state it will need
				to be moved into a new list. */
				if( listIS_CONTAINED_WITHIN( &( pxReadyTasksLists[ pxMutexHolderTCB->uxPriority ] ), &( pxMutexHolderTCB->xStateListItem ) ) != pdFALSE )
    2a3e:	68bb      	ldr	r3, [r7, #8]
    2a40:	6959      	ldr	r1, [r3, #20]
    2a42:	68bb      	ldr	r3, [r7, #8]
    2a44:	6ada      	ldr	r2, [r3, #44]	; 0x2c
    2a46:	0013      	movs	r3, r2
    2a48:	009b      	lsls	r3, r3, #2
    2a4a:	189b      	adds	r3, r3, r2
    2a4c:	009b      	lsls	r3, r3, #2
    2a4e:	4a22      	ldr	r2, [pc, #136]	; (2ad8 <xTaskPriorityInherit+0xd4>)
    2a50:	189b      	adds	r3, r3, r2
    2a52:	4299      	cmp	r1, r3
    2a54:	d101      	bne.n	2a5a <xTaskPriorityInherit+0x56>
    2a56:	2301      	movs	r3, #1
    2a58:	e000      	b.n	2a5c <xTaskPriorityInherit+0x58>
    2a5a:	2300      	movs	r3, #0
    2a5c:	2b00      	cmp	r3, #0
    2a5e:	d022      	beq.n	2aa6 <xTaskPriorityInherit+0xa2>
				{
					if( uxListRemove( &( pxMutexHolderTCB->xStateListItem ) ) == ( UBaseType_t ) 0 )
    2a60:	68bb      	ldr	r3, [r7, #8]
    2a62:	3304      	adds	r3, #4
    2a64:	0018      	movs	r0, r3
    2a66:	4b1d      	ldr	r3, [pc, #116]	; (2adc <xTaskPriorityInherit+0xd8>)
    2a68:	4798      	blx	r3
					{
						mtCOVERAGE_TEST_MARKER();
					}

					/* Inherit the priority before being moved into the new list. */
					pxMutexHolderTCB->uxPriority = pxCurrentTCB->uxPriority;
    2a6a:	4b1a      	ldr	r3, [pc, #104]	; (2ad4 <xTaskPriorityInherit+0xd0>)
    2a6c:	681b      	ldr	r3, [r3, #0]
    2a6e:	6ada      	ldr	r2, [r3, #44]	; 0x2c
    2a70:	68bb      	ldr	r3, [r7, #8]
    2a72:	62da      	str	r2, [r3, #44]	; 0x2c
					prvAddTaskToReadyList( pxMutexHolderTCB );
    2a74:	68bb      	ldr	r3, [r7, #8]
    2a76:	6ada      	ldr	r2, [r3, #44]	; 0x2c
    2a78:	4b19      	ldr	r3, [pc, #100]	; (2ae0 <xTaskPriorityInherit+0xdc>)
    2a7a:	681b      	ldr	r3, [r3, #0]
    2a7c:	429a      	cmp	r2, r3
    2a7e:	d903      	bls.n	2a88 <xTaskPriorityInherit+0x84>
    2a80:	68bb      	ldr	r3, [r7, #8]
    2a82:	6ada      	ldr	r2, [r3, #44]	; 0x2c
    2a84:	4b16      	ldr	r3, [pc, #88]	; (2ae0 <xTaskPriorityInherit+0xdc>)
    2a86:	601a      	str	r2, [r3, #0]
    2a88:	68bb      	ldr	r3, [r7, #8]
    2a8a:	6ada      	ldr	r2, [r3, #44]	; 0x2c
    2a8c:	0013      	movs	r3, r2
    2a8e:	009b      	lsls	r3, r3, #2
    2a90:	189b      	adds	r3, r3, r2
    2a92:	009b      	lsls	r3, r3, #2
    2a94:	4a10      	ldr	r2, [pc, #64]	; (2ad8 <xTaskPriorityInherit+0xd4>)
    2a96:	189a      	adds	r2, r3, r2
    2a98:	68bb      	ldr	r3, [r7, #8]
    2a9a:	3304      	adds	r3, #4
    2a9c:	0019      	movs	r1, r3
    2a9e:	0010      	movs	r0, r2
    2aa0:	4b10      	ldr	r3, [pc, #64]	; (2ae4 <xTaskPriorityInherit+0xe0>)
    2aa2:	4798      	blx	r3
    2aa4:	e004      	b.n	2ab0 <xTaskPriorityInherit+0xac>
				}
				else
				{
					/* Just inherit the priority. */
					pxMutexHolderTCB->uxPriority = pxCurrentTCB->uxPriority;
    2aa6:	4b0b      	ldr	r3, [pc, #44]	; (2ad4 <xTaskPriorityInherit+0xd0>)
    2aa8:	681b      	ldr	r3, [r3, #0]
    2aaa:	6ada      	ldr	r2, [r3, #44]	; 0x2c
    2aac:	68bb      	ldr	r3, [r7, #8]
    2aae:	62da      	str	r2, [r3, #44]	; 0x2c
				}

				traceTASK_PRIORITY_INHERIT( pxMutexHolderTCB, pxCurrentTCB->uxPriority );

				/* Inheritance occurred. */
				xReturn = pdTRUE;
    2ab0:	2301      	movs	r3, #1
    2ab2:	60fb      	str	r3, [r7, #12]
    2ab4:	e008      	b.n	2ac8 <xTaskPriorityInherit+0xc4>
			}
			else
			{
				if( pxMutexHolderTCB->uxBasePriority < pxCurrentTCB->uxPriority )
    2ab6:	68bb      	ldr	r3, [r7, #8]
    2ab8:	6c5a      	ldr	r2, [r3, #68]	; 0x44
    2aba:	4b06      	ldr	r3, [pc, #24]	; (2ad4 <xTaskPriorityInherit+0xd0>)
    2abc:	681b      	ldr	r3, [r3, #0]
    2abe:	6adb      	ldr	r3, [r3, #44]	; 0x2c
    2ac0:	429a      	cmp	r2, r3
    2ac2:	d201      	bcs.n	2ac8 <xTaskPriorityInherit+0xc4>
					current priority of the mutex holder is not lower than the
					priority of the task attempting to take the mutex.
					Therefore the mutex holder must have already inherited a
					priority, but inheritance would have occurred if that had
					not been the case. */
					xReturn = pdTRUE;
    2ac4:	2301      	movs	r3, #1
    2ac6:	60fb      	str	r3, [r7, #12]
		else
		{
			mtCOVERAGE_TEST_MARKER();
		}

		return xReturn;
    2ac8:	68fb      	ldr	r3, [r7, #12]
	}
    2aca:	0018      	movs	r0, r3
    2acc:	46bd      	mov	sp, r7
    2ace:	b004      	add	sp, #16
    2ad0:	bd80      	pop	{r7, pc}
    2ad2:	46c0      	nop			; (mov r8, r8)
    2ad4:	20003100 	.word	0x20003100
    2ad8:	20003104 	.word	0x20003104
    2adc:	00000fb1 	.word	0x00000fb1
    2ae0:	200031e0 	.word	0x200031e0
    2ae4:	00000f01 	.word	0x00000f01

00002ae8 <xTaskPriorityDisinherit>:
/*-----------------------------------------------------------*/

#if ( configUSE_MUTEXES == 1 )

	BaseType_t xTaskPriorityDisinherit( TaskHandle_t const pxMutexHolder )
	{
    2ae8:	b580      	push	{r7, lr}
    2aea:	b084      	sub	sp, #16
    2aec:	af00      	add	r7, sp, #0
    2aee:	6078      	str	r0, [r7, #4]
	TCB_t * const pxTCB = ( TCB_t * ) pxMutexHolder;
    2af0:	687b      	ldr	r3, [r7, #4]
    2af2:	60bb      	str	r3, [r7, #8]
	BaseType_t xReturn = pdFALSE;
    2af4:	2300      	movs	r3, #0
    2af6:	60fb      	str	r3, [r7, #12]

		if( pxMutexHolder != NULL )
    2af8:	687b      	ldr	r3, [r7, #4]
    2afa:	2b00      	cmp	r3, #0
    2afc:	d044      	beq.n	2b88 <xTaskPriorityDisinherit+0xa0>
		{
			/* A task can only have an inherited priority if it holds the mutex.
			If the mutex is held by a task then it cannot be given from an
			interrupt, and if a mutex is given by the holding task then it must
			be the running state task. */
			configASSERT( pxTCB == pxCurrentTCB );
    2afe:	4b25      	ldr	r3, [pc, #148]	; (2b94 <xTaskPriorityDisinherit+0xac>)
    2b00:	681b      	ldr	r3, [r3, #0]
    2b02:	68ba      	ldr	r2, [r7, #8]
    2b04:	429a      	cmp	r2, r3
    2b06:	d001      	beq.n	2b0c <xTaskPriorityDisinherit+0x24>
    2b08:	b672      	cpsid	i
    2b0a:	e7fe      	b.n	2b0a <xTaskPriorityDisinherit+0x22>
			configASSERT( pxTCB->uxMutexesHeld );
    2b0c:	68bb      	ldr	r3, [r7, #8]
    2b0e:	6c9b      	ldr	r3, [r3, #72]	; 0x48
    2b10:	2b00      	cmp	r3, #0
    2b12:	d101      	bne.n	2b18 <xTaskPriorityDisinherit+0x30>
    2b14:	b672      	cpsid	i
    2b16:	e7fe      	b.n	2b16 <xTaskPriorityDisinherit+0x2e>
			( pxTCB->uxMutexesHeld )--;
    2b18:	68bb      	ldr	r3, [r7, #8]
    2b1a:	6c9b      	ldr	r3, [r3, #72]	; 0x48
    2b1c:	1e5a      	subs	r2, r3, #1
    2b1e:	68bb      	ldr	r3, [r7, #8]
    2b20:	649a      	str	r2, [r3, #72]	; 0x48

			/* Has the holder of the mutex inherited the priority of another
			task? */
			if( pxTCB->uxPriority != pxTCB->uxBasePriority )
    2b22:	68bb      	ldr	r3, [r7, #8]
    2b24:	6ada      	ldr	r2, [r3, #44]	; 0x2c
    2b26:	68bb      	ldr	r3, [r7, #8]
    2b28:	6c5b      	ldr	r3, [r3, #68]	; 0x44
    2b2a:	429a      	cmp	r2, r3
    2b2c:	d02c      	beq.n	2b88 <xTaskPriorityDisinherit+0xa0>
			{
				/* Only disinherit if no other mutexes are held. */
				if( pxTCB->uxMutexesHeld == ( UBaseType_t ) 0 )
    2b2e:	68bb      	ldr	r3, [r7, #8]
    2b30:	6c9b      	ldr	r3, [r3, #72]	; 0x48
    2b32:	2b00      	cmp	r3, #0
    2b34:	d128      	bne.n	2b88 <xTaskPriorityDisinherit+0xa0>
					/* A task can only have an inherited priority if it holds
					the mutex.  If the mutex is held by a task then it cannot be
					given from an interrupt, and if a mutex is given by the
					holding task then it must be the running state task.  Remove
					the holding task from the ready list. */
					if( uxListRemove( &( pxTCB->xStateListItem ) ) == ( UBaseType_t ) 0 )
    2b36:	68bb      	ldr	r3, [r7, #8]
    2b38:	3304      	adds	r3, #4
    2b3a:	0018      	movs	r0, r3
    2b3c:	4b16      	ldr	r3, [pc, #88]	; (2b98 <xTaskPriorityDisinherit+0xb0>)
    2b3e:	4798      	blx	r3
					}

					/* Disinherit the priority before adding the task into the
					new	ready list. */
					traceTASK_PRIORITY_DISINHERIT( pxTCB, pxTCB->uxBasePriority );
					pxTCB->uxPriority = pxTCB->uxBasePriority;
    2b40:	68bb      	ldr	r3, [r7, #8]
    2b42:	6c5a      	ldr	r2, [r3, #68]	; 0x44
    2b44:	68bb      	ldr	r3, [r7, #8]
    2b46:	62da      	str	r2, [r3, #44]	; 0x2c

					/* Reset the event list item value.  It cannot be in use for
					any other purpose if this task is running, and it must be
					running to give back the mutex. */
					listSET_LIST_ITEM_VALUE( &( pxTCB->xEventListItem ), ( TickType_t ) configMAX_PRIORITIES - ( TickType_t ) pxTCB->uxPriority ); /*lint !e961 MISRA exception as the casts are only redundant for some ports. */
    2b48:	68bb      	ldr	r3, [r7, #8]
    2b4a:	6adb      	ldr	r3, [r3, #44]	; 0x2c
    2b4c:	2205      	movs	r2, #5
    2b4e:	1ad2      	subs	r2, r2, r3
    2b50:	68bb      	ldr	r3, [r7, #8]
    2b52:	619a      	str	r2, [r3, #24]
					prvAddTaskToReadyList( pxTCB );
    2b54:	68bb      	ldr	r3, [r7, #8]
    2b56:	6ada      	ldr	r2, [r3, #44]	; 0x2c
    2b58:	4b10      	ldr	r3, [pc, #64]	; (2b9c <xTaskPriorityDisinherit+0xb4>)
    2b5a:	681b      	ldr	r3, [r3, #0]
    2b5c:	429a      	cmp	r2, r3
    2b5e:	d903      	bls.n	2b68 <xTaskPriorityDisinherit+0x80>
    2b60:	68bb      	ldr	r3, [r7, #8]
    2b62:	6ada      	ldr	r2, [r3, #44]	; 0x2c
    2b64:	4b0d      	ldr	r3, [pc, #52]	; (2b9c <xTaskPriorityDisinherit+0xb4>)
    2b66:	601a      	str	r2, [r3, #0]
    2b68:	68bb      	ldr	r3, [r7, #8]
    2b6a:	6ada      	ldr	r2, [r3, #44]	; 0x2c
    2b6c:	0013      	movs	r3, r2
    2b6e:	009b      	lsls	r3, r3, #2
    2b70:	189b      	adds	r3, r3, r2
    2b72:	009b      	lsls	r3, r3, #2
    2b74:	4a0a      	ldr	r2, [pc, #40]	; (2ba0 <xTaskPriorityDisinherit+0xb8>)
    2b76:	189a      	adds	r2, r3, r2
    2b78:	68bb      	ldr	r3, [r7, #8]
    2b7a:	3304      	adds	r3, #4
    2b7c:	0019      	movs	r1, r3
    2b7e:	0010      	movs	r0, r2
    2b80:	4b08      	ldr	r3, [pc, #32]	; (2ba4 <xTaskPriorityDisinherit+0xbc>)
    2b82:	4798      	blx	r3
					in an order different to that in which they were taken.
					If a context switch did not occur when the first mutex was
					returned, even if a task was waiting on it, then a context
					switch should occur when the last mutex is returned whether
					a task is waiting on it or not. */
					xReturn = pdTRUE;
    2b84:	2301      	movs	r3, #1
    2b86:	60fb      	str	r3, [r7, #12]
		else
		{
			mtCOVERAGE_TEST_MARKER();
		}

		return xReturn;
    2b88:	68fb      	ldr	r3, [r7, #12]
	}
    2b8a:	0018      	movs	r0, r3
    2b8c:	46bd      	mov	sp, r7
    2b8e:	b004      	add	sp, #16
    2b90:	bd80      	pop	{r7, pc}
    2b92:	46c0      	nop			; (mov r8, r8)
    2b94:	20003100 	.word	0x20003100
    2b98:	00000fb1 	.word	0x00000fb1
    2b9c:	200031e0 	.word	0x200031e0
    2ba0:	20003104 	.word	0x20003104
    2ba4:	00000f01 	.word	0x00000f01

00002ba8 <vTaskPriorityDisinheritAfterTimeout>:
/*-----------------------------------------------------------*/

#if ( configUSE_MUTEXES == 1 )

	void vTaskPriorityDisinheritAfterTimeout( TaskHandle_t const pxMutexHolder, UBaseType_t uxHighestPriorityWaitingTask )
	{
    2ba8:	b580      	push	{r7, lr}
    2baa:	b086      	sub	sp, #24
    2bac:	af00      	add	r7, sp, #0
    2bae:	6078      	str	r0, [r7, #4]
    2bb0:	6039      	str	r1, [r7, #0]
	TCB_t * const pxTCB = ( TCB_t * ) pxMutexHolder;
    2bb2:	687b      	ldr	r3, [r7, #4]
    2bb4:	613b      	str	r3, [r7, #16]
	UBaseType_t uxPriorityUsedOnEntry, uxPriorityToUse;
	const UBaseType_t uxOnlyOneMutexHeld = ( UBaseType_t ) 1;
    2bb6:	2301      	movs	r3, #1
    2bb8:	60fb      	str	r3, [r7, #12]

		if( pxMutexHolder != NULL )
    2bba:	687b      	ldr	r3, [r7, #4]
    2bbc:	2b00      	cmp	r3, #0
    2bbe:	d05d      	beq.n	2c7c <vTaskPriorityDisinheritAfterTimeout+0xd4>
		{
			/* If pxMutexHolder is not NULL then the holder must hold at least
			one mutex. */
			configASSERT( pxTCB->uxMutexesHeld );
    2bc0:	693b      	ldr	r3, [r7, #16]
    2bc2:	6c9b      	ldr	r3, [r3, #72]	; 0x48
    2bc4:	2b00      	cmp	r3, #0
    2bc6:	d101      	bne.n	2bcc <vTaskPriorityDisinheritAfterTimeout+0x24>
    2bc8:	b672      	cpsid	i
    2bca:	e7fe      	b.n	2bca <vTaskPriorityDisinheritAfterTimeout+0x22>

			/* Determine the priority to which the priority of the task that
			holds the mutex should be set.  This will be the greater of the
			holding task's base priority and the priority of the highest
			priority task that is waiting to obtain the mutex. */
			if( pxTCB->uxBasePriority < uxHighestPriorityWaitingTask )
    2bcc:	693b      	ldr	r3, [r7, #16]
    2bce:	6c5a      	ldr	r2, [r3, #68]	; 0x44
    2bd0:	683b      	ldr	r3, [r7, #0]
    2bd2:	429a      	cmp	r2, r3
    2bd4:	d202      	bcs.n	2bdc <vTaskPriorityDisinheritAfterTimeout+0x34>
			{
				uxPriorityToUse = uxHighestPriorityWaitingTask;
    2bd6:	683b      	ldr	r3, [r7, #0]
    2bd8:	617b      	str	r3, [r7, #20]
    2bda:	e002      	b.n	2be2 <vTaskPriorityDisinheritAfterTimeout+0x3a>
			}
			else
			{
				uxPriorityToUse = pxTCB->uxBasePriority;
    2bdc:	693b      	ldr	r3, [r7, #16]
    2bde:	6c5b      	ldr	r3, [r3, #68]	; 0x44
    2be0:	617b      	str	r3, [r7, #20]
			}

			/* Does the priority need to change? */
			if( pxTCB->uxPriority != uxPriorityToUse )
    2be2:	693b      	ldr	r3, [r7, #16]
    2be4:	6ada      	ldr	r2, [r3, #44]	; 0x2c
    2be6:	697b      	ldr	r3, [r7, #20]
    2be8:	429a      	cmp	r2, r3
    2bea:	d047      	beq.n	2c7c <vTaskPriorityDisinheritAfterTimeout+0xd4>
			{
				/* Only disinherit if no other mutexes are held.  This is a
				simplification in the priority inheritance implementation.  If
				the task that holds the mutex is also holding other mutexes then
				the other mutexes may have caused the priority inheritance. */
				if( pxTCB->uxMutexesHeld == uxOnlyOneMutexHeld )
    2bec:	693b      	ldr	r3, [r7, #16]
    2bee:	6c9a      	ldr	r2, [r3, #72]	; 0x48
    2bf0:	68fb      	ldr	r3, [r7, #12]
    2bf2:	429a      	cmp	r2, r3
    2bf4:	d142      	bne.n	2c7c <vTaskPriorityDisinheritAfterTimeout+0xd4>
				{
					/* If a task has timed out because it already holds the
					mutex it was trying to obtain then it cannot of inherited
					its own priority. */
					configASSERT( pxTCB != pxCurrentTCB );
    2bf6:	4b23      	ldr	r3, [pc, #140]	; (2c84 <vTaskPriorityDisinheritAfterTimeout+0xdc>)
    2bf8:	681b      	ldr	r3, [r3, #0]
    2bfa:	693a      	ldr	r2, [r7, #16]
    2bfc:	429a      	cmp	r2, r3
    2bfe:	d101      	bne.n	2c04 <vTaskPriorityDisinheritAfterTimeout+0x5c>
    2c00:	b672      	cpsid	i
    2c02:	e7fe      	b.n	2c02 <vTaskPriorityDisinheritAfterTimeout+0x5a>

					/* Disinherit the priority, remembering the previous
					priority to facilitate determining the subject task's
					state. */
					traceTASK_PRIORITY_DISINHERIT( pxTCB, pxTCB->uxBasePriority );
					uxPriorityUsedOnEntry = pxTCB->uxPriority;
    2c04:	693b      	ldr	r3, [r7, #16]
    2c06:	6adb      	ldr	r3, [r3, #44]	; 0x2c
    2c08:	60bb      	str	r3, [r7, #8]
					pxTCB->uxPriority = uxPriorityToUse;
    2c0a:	693b      	ldr	r3, [r7, #16]
    2c0c:	697a      	ldr	r2, [r7, #20]
    2c0e:	62da      	str	r2, [r3, #44]	; 0x2c

					/* Only reset the event list item value if the value is not
					being used for anything else. */
					if( ( listGET_LIST_ITEM_VALUE( &( pxTCB->xEventListItem ) ) & taskEVENT_LIST_ITEM_VALUE_IN_USE ) == 0UL )
    2c10:	693b      	ldr	r3, [r7, #16]
    2c12:	699b      	ldr	r3, [r3, #24]
    2c14:	2b00      	cmp	r3, #0
    2c16:	db04      	blt.n	2c22 <vTaskPriorityDisinheritAfterTimeout+0x7a>
					{
						listSET_LIST_ITEM_VALUE( &( pxTCB->xEventListItem ), ( TickType_t ) configMAX_PRIORITIES - ( TickType_t ) uxPriorityToUse ); /*lint !e961 MISRA exception as the casts are only redundant for some ports. */
    2c18:	697b      	ldr	r3, [r7, #20]
    2c1a:	2205      	movs	r2, #5
    2c1c:	1ad2      	subs	r2, r2, r3
    2c1e:	693b      	ldr	r3, [r7, #16]
    2c20:	619a      	str	r2, [r3, #24]
					then the task that holds the mutex could be in either the
					Ready, Blocked or Suspended states.  Only remove the task
					from its current state list if it is in the Ready state as
					the task's priority is going to change and there is one
					Ready list per priority. */
					if( listIS_CONTAINED_WITHIN( &( pxReadyTasksLists[ uxPriorityUsedOnEntry ] ), &( pxTCB->xStateListItem ) ) != pdFALSE )
    2c22:	693b      	ldr	r3, [r7, #16]
    2c24:	6959      	ldr	r1, [r3, #20]
    2c26:	68ba      	ldr	r2, [r7, #8]
    2c28:	0013      	movs	r3, r2
    2c2a:	009b      	lsls	r3, r3, #2
    2c2c:	189b      	adds	r3, r3, r2
    2c2e:	009b      	lsls	r3, r3, #2
    2c30:	4a15      	ldr	r2, [pc, #84]	; (2c88 <vTaskPriorityDisinheritAfterTimeout+0xe0>)
    2c32:	189b      	adds	r3, r3, r2
    2c34:	4299      	cmp	r1, r3
    2c36:	d101      	bne.n	2c3c <vTaskPriorityDisinheritAfterTimeout+0x94>
    2c38:	2301      	movs	r3, #1
    2c3a:	e000      	b.n	2c3e <vTaskPriorityDisinheritAfterTimeout+0x96>
    2c3c:	2300      	movs	r3, #0
    2c3e:	2b00      	cmp	r3, #0
    2c40:	d01c      	beq.n	2c7c <vTaskPriorityDisinheritAfterTimeout+0xd4>
					{
						if( uxListRemove( &( pxTCB->xStateListItem ) ) == ( UBaseType_t ) 0 )
    2c42:	693b      	ldr	r3, [r7, #16]
    2c44:	3304      	adds	r3, #4
    2c46:	0018      	movs	r0, r3
    2c48:	4b10      	ldr	r3, [pc, #64]	; (2c8c <vTaskPriorityDisinheritAfterTimeout+0xe4>)
    2c4a:	4798      	blx	r3
						else
						{
							mtCOVERAGE_TEST_MARKER();
						}

						prvAddTaskToReadyList( pxTCB );
    2c4c:	693b      	ldr	r3, [r7, #16]
    2c4e:	6ada      	ldr	r2, [r3, #44]	; 0x2c
    2c50:	4b0f      	ldr	r3, [pc, #60]	; (2c90 <vTaskPriorityDisinheritAfterTimeout+0xe8>)
    2c52:	681b      	ldr	r3, [r3, #0]
    2c54:	429a      	cmp	r2, r3
    2c56:	d903      	bls.n	2c60 <vTaskPriorityDisinheritAfterTimeout+0xb8>
    2c58:	693b      	ldr	r3, [r7, #16]
    2c5a:	6ada      	ldr	r2, [r3, #44]	; 0x2c
    2c5c:	4b0c      	ldr	r3, [pc, #48]	; (2c90 <vTaskPriorityDisinheritAfterTimeout+0xe8>)
    2c5e:	601a      	str	r2, [r3, #0]
    2c60:	693b      	ldr	r3, [r7, #16]
    2c62:	6ada      	ldr	r2, [r3, #44]	; 0x2c
    2c64:	0013      	movs	r3, r2
    2c66:	009b      	lsls	r3, r3, #2
    2c68:	189b      	adds	r3, r3, r2
    2c6a:	009b      	lsls	r3, r3, #2
    2c6c:	4a06      	ldr	r2, [pc, #24]	; (2c88 <vTaskPriorityDisinheritAfterTimeout+0xe0>)
    2c6e:	189a      	adds	r2, r3, r2
    2c70:	693b      	ldr	r3, [r7, #16]
    2c72:	3304      	adds	r3, #4
    2c74:	0019      	movs	r1, r3
    2c76:	0010      	movs	r0, r2
    2c78:	4b06      	ldr	r3, [pc, #24]	; (2c94 <vTaskPriorityDisinheritAfterTimeout+0xec>)
    2c7a:	4798      	blx	r3
		}
		else
		{
			mtCOVERAGE_TEST_MARKER();
		}
	}
    2c7c:	46c0      	nop			; (mov r8, r8)
    2c7e:	46bd      	mov	sp, r7
    2c80:	b006      	add	sp, #24
    2c82:	bd80      	pop	{r7, pc}
    2c84:	20003100 	.word	0x20003100
    2c88:	20003104 	.word	0x20003104
    2c8c:	00000fb1 	.word	0x00000fb1
    2c90:	200031e0 	.word	0x200031e0
    2c94:	00000f01 	.word	0x00000f01

00002c98 <pvTaskIncrementMutexHeldCount>:
/*-----------------------------------------------------------*/

#if ( configUSE_MUTEXES == 1 )

	void *pvTaskIncrementMutexHeldCount( void )
	{
    2c98:	b580      	push	{r7, lr}
    2c9a:	af00      	add	r7, sp, #0
		/* If xSemaphoreCreateMutex() is called before any tasks have been created
		then pxCurrentTCB will be NULL. */
		if( pxCurrentTCB != NULL )
    2c9c:	4b06      	ldr	r3, [pc, #24]	; (2cb8 <pvTaskIncrementMutexHeldCount+0x20>)
    2c9e:	681b      	ldr	r3, [r3, #0]
    2ca0:	2b00      	cmp	r3, #0
    2ca2:	d004      	beq.n	2cae <pvTaskIncrementMutexHeldCount+0x16>
		{
			( pxCurrentTCB->uxMutexesHeld )++;
    2ca4:	4b04      	ldr	r3, [pc, #16]	; (2cb8 <pvTaskIncrementMutexHeldCount+0x20>)
    2ca6:	681b      	ldr	r3, [r3, #0]
    2ca8:	6c9a      	ldr	r2, [r3, #72]	; 0x48
    2caa:	3201      	adds	r2, #1
    2cac:	649a      	str	r2, [r3, #72]	; 0x48
		}

		return pxCurrentTCB;
    2cae:	4b02      	ldr	r3, [pc, #8]	; (2cb8 <pvTaskIncrementMutexHeldCount+0x20>)
    2cb0:	681b      	ldr	r3, [r3, #0]
	}
    2cb2:	0018      	movs	r0, r3
    2cb4:	46bd      	mov	sp, r7
    2cb6:	bd80      	pop	{r7, pc}
    2cb8:	20003100 	.word	0x20003100

00002cbc <prvAddCurrentTaskToDelayedList>:
#endif /* configUSE_TASK_NOTIFICATIONS */
/*-----------------------------------------------------------*/


static void prvAddCurrentTaskToDelayedList( TickType_t xTicksToWait, const BaseType_t xCanBlockIndefinitely )
{
    2cbc:	b580      	push	{r7, lr}
    2cbe:	b084      	sub	sp, #16
    2cc0:	af00      	add	r7, sp, #0
    2cc2:	6078      	str	r0, [r7, #4]
    2cc4:	6039      	str	r1, [r7, #0]
TickType_t xTimeToWake;
const TickType_t xConstTickCount = xTickCount;
    2cc6:	4b21      	ldr	r3, [pc, #132]	; (2d4c <prvAddCurrentTaskToDelayedList+0x90>)
    2cc8:	681b      	ldr	r3, [r3, #0]
    2cca:	60fb      	str	r3, [r7, #12]
	}
	#endif

	/* Remove the task from the ready list before adding it to the blocked list
	as the same list item is used for both lists. */
	if( uxListRemove( &( pxCurrentTCB->xStateListItem ) ) == ( UBaseType_t ) 0 )
    2ccc:	4b20      	ldr	r3, [pc, #128]	; (2d50 <prvAddCurrentTaskToDelayedList+0x94>)
    2cce:	681b      	ldr	r3, [r3, #0]
    2cd0:	3304      	adds	r3, #4
    2cd2:	0018      	movs	r0, r3
    2cd4:	4b1f      	ldr	r3, [pc, #124]	; (2d54 <prvAddCurrentTaskToDelayedList+0x98>)
    2cd6:	4798      	blx	r3
		mtCOVERAGE_TEST_MARKER();
	}

	#if ( INCLUDE_vTaskSuspend == 1 )
	{
		if( ( xTicksToWait == portMAX_DELAY ) && ( xCanBlockIndefinitely != pdFALSE ) )
    2cd8:	687b      	ldr	r3, [r7, #4]
    2cda:	3301      	adds	r3, #1
    2cdc:	d10b      	bne.n	2cf6 <prvAddCurrentTaskToDelayedList+0x3a>
    2cde:	683b      	ldr	r3, [r7, #0]
    2ce0:	2b00      	cmp	r3, #0
    2ce2:	d008      	beq.n	2cf6 <prvAddCurrentTaskToDelayedList+0x3a>
		{
			/* Add the task to the suspended task list instead of a delayed task
			list to ensure it is not woken by a timing event.  It will block
			indefinitely. */
			vListInsertEnd( &xSuspendedTaskList, &( pxCurrentTCB->xStateListItem ) );
    2ce4:	4b1a      	ldr	r3, [pc, #104]	; (2d50 <prvAddCurrentTaskToDelayedList+0x94>)
    2ce6:	681b      	ldr	r3, [r3, #0]
    2ce8:	1d1a      	adds	r2, r3, #4
    2cea:	4b1b      	ldr	r3, [pc, #108]	; (2d58 <prvAddCurrentTaskToDelayedList+0x9c>)
    2cec:	0011      	movs	r1, r2
    2cee:	0018      	movs	r0, r3
    2cf0:	4b1a      	ldr	r3, [pc, #104]	; (2d5c <prvAddCurrentTaskToDelayedList+0xa0>)
    2cf2:	4798      	blx	r3

		/* Avoid compiler warning when INCLUDE_vTaskSuspend is not 1. */
		( void ) xCanBlockIndefinitely;
	}
	#endif /* INCLUDE_vTaskSuspend */
}
    2cf4:	e026      	b.n	2d44 <prvAddCurrentTaskToDelayedList+0x88>
			xTimeToWake = xConstTickCount + xTicksToWait;
    2cf6:	68fa      	ldr	r2, [r7, #12]
    2cf8:	687b      	ldr	r3, [r7, #4]
    2cfa:	18d3      	adds	r3, r2, r3
    2cfc:	60bb      	str	r3, [r7, #8]
			listSET_LIST_ITEM_VALUE( &( pxCurrentTCB->xStateListItem ), xTimeToWake );
    2cfe:	4b14      	ldr	r3, [pc, #80]	; (2d50 <prvAddCurrentTaskToDelayedList+0x94>)
    2d00:	681b      	ldr	r3, [r3, #0]
    2d02:	68ba      	ldr	r2, [r7, #8]
    2d04:	605a      	str	r2, [r3, #4]
			if( xTimeToWake < xConstTickCount )
    2d06:	68ba      	ldr	r2, [r7, #8]
    2d08:	68fb      	ldr	r3, [r7, #12]
    2d0a:	429a      	cmp	r2, r3
    2d0c:	d209      	bcs.n	2d22 <prvAddCurrentTaskToDelayedList+0x66>
				vListInsert( pxOverflowDelayedTaskList, &( pxCurrentTCB->xStateListItem ) );
    2d0e:	4b14      	ldr	r3, [pc, #80]	; (2d60 <prvAddCurrentTaskToDelayedList+0xa4>)
    2d10:	681a      	ldr	r2, [r3, #0]
    2d12:	4b0f      	ldr	r3, [pc, #60]	; (2d50 <prvAddCurrentTaskToDelayedList+0x94>)
    2d14:	681b      	ldr	r3, [r3, #0]
    2d16:	3304      	adds	r3, #4
    2d18:	0019      	movs	r1, r3
    2d1a:	0010      	movs	r0, r2
    2d1c:	4b11      	ldr	r3, [pc, #68]	; (2d64 <prvAddCurrentTaskToDelayedList+0xa8>)
    2d1e:	4798      	blx	r3
}
    2d20:	e010      	b.n	2d44 <prvAddCurrentTaskToDelayedList+0x88>
				vListInsert( pxDelayedTaskList, &( pxCurrentTCB->xStateListItem ) );
    2d22:	4b11      	ldr	r3, [pc, #68]	; (2d68 <prvAddCurrentTaskToDelayedList+0xac>)
    2d24:	681a      	ldr	r2, [r3, #0]
    2d26:	4b0a      	ldr	r3, [pc, #40]	; (2d50 <prvAddCurrentTaskToDelayedList+0x94>)
    2d28:	681b      	ldr	r3, [r3, #0]
    2d2a:	3304      	adds	r3, #4
    2d2c:	0019      	movs	r1, r3
    2d2e:	0010      	movs	r0, r2
    2d30:	4b0c      	ldr	r3, [pc, #48]	; (2d64 <prvAddCurrentTaskToDelayedList+0xa8>)
    2d32:	4798      	blx	r3
				if( xTimeToWake < xNextTaskUnblockTime )
    2d34:	4b0d      	ldr	r3, [pc, #52]	; (2d6c <prvAddCurrentTaskToDelayedList+0xb0>)
    2d36:	681b      	ldr	r3, [r3, #0]
    2d38:	68ba      	ldr	r2, [r7, #8]
    2d3a:	429a      	cmp	r2, r3
    2d3c:	d202      	bcs.n	2d44 <prvAddCurrentTaskToDelayedList+0x88>
					xNextTaskUnblockTime = xTimeToWake;
    2d3e:	4b0b      	ldr	r3, [pc, #44]	; (2d6c <prvAddCurrentTaskToDelayedList+0xb0>)
    2d40:	68ba      	ldr	r2, [r7, #8]
    2d42:	601a      	str	r2, [r3, #0]
}
    2d44:	46c0      	nop			; (mov r8, r8)
    2d46:	46bd      	mov	sp, r7
    2d48:	b004      	add	sp, #16
    2d4a:	bd80      	pop	{r7, pc}
    2d4c:	200031dc 	.word	0x200031dc
    2d50:	20003100 	.word	0x20003100
    2d54:	00000fb1 	.word	0x00000fb1
    2d58:	200031c4 	.word	0x200031c4
    2d5c:	00000f01 	.word	0x00000f01
    2d60:	20003194 	.word	0x20003194
    2d64:	00000f45 	.word	0x00000f45
    2d68:	20003190 	.word	0x20003190
    2d6c:	200031f8 	.word	0x200031f8

00002d70 <xTimerCreateTimerTask>:
									TimerCallbackFunction_t pxCallbackFunction,
									Timer_t *pxNewTimer ) PRIVILEGED_FUNCTION;
/*-----------------------------------------------------------*/

BaseType_t xTimerCreateTimerTask( void )
{
    2d70:	b590      	push	{r4, r7, lr}
    2d72:	b085      	sub	sp, #20
    2d74:	af02      	add	r7, sp, #8
BaseType_t xReturn = pdFAIL;
    2d76:	2300      	movs	r3, #0
    2d78:	607b      	str	r3, [r7, #4]

	/* This function is called when the scheduler is started if
	configUSE_TIMERS is set to 1.  Check that the infrastructure used by the
	timer service task has been created/initialised.  If timers have already
	been created then the initialisation will already have been performed. */
	prvCheckForValidListAndQueue();
    2d7a:	4b0e      	ldr	r3, [pc, #56]	; (2db4 <xTimerCreateTimerTask+0x44>)
    2d7c:	4798      	blx	r3

	if( xTimerQueue != NULL )
    2d7e:	4b0e      	ldr	r3, [pc, #56]	; (2db8 <xTimerCreateTimerTask+0x48>)
    2d80:	681b      	ldr	r3, [r3, #0]
    2d82:	2b00      	cmp	r3, #0
    2d84:	d00b      	beq.n	2d9e <xTimerCreateTimerTask+0x2e>
				xReturn = pdPASS;
			}
		}
		#else
		{
			xReturn = xTaskCreate(	prvTimerTask,
    2d86:	490d      	ldr	r1, [pc, #52]	; (2dbc <xTimerCreateTimerTask+0x4c>)
    2d88:	480d      	ldr	r0, [pc, #52]	; (2dc0 <xTimerCreateTimerTask+0x50>)
    2d8a:	4b0e      	ldr	r3, [pc, #56]	; (2dc4 <xTimerCreateTimerTask+0x54>)
    2d8c:	9301      	str	r3, [sp, #4]
    2d8e:	2302      	movs	r3, #2
    2d90:	9300      	str	r3, [sp, #0]
    2d92:	2300      	movs	r3, #0
    2d94:	2280      	movs	r2, #128	; 0x80
    2d96:	4c0c      	ldr	r4, [pc, #48]	; (2dc8 <xTimerCreateTimerTask+0x58>)
    2d98:	47a0      	blx	r4
    2d9a:	0003      	movs	r3, r0
    2d9c:	607b      	str	r3, [r7, #4]
	else
	{
		mtCOVERAGE_TEST_MARKER();
	}

	configASSERT( xReturn );
    2d9e:	687b      	ldr	r3, [r7, #4]
    2da0:	2b00      	cmp	r3, #0
    2da2:	d101      	bne.n	2da8 <xTimerCreateTimerTask+0x38>
    2da4:	b672      	cpsid	i
    2da6:	e7fe      	b.n	2da6 <xTimerCreateTimerTask+0x36>
	return xReturn;
    2da8:	687b      	ldr	r3, [r7, #4]
}
    2daa:	0018      	movs	r0, r3
    2dac:	46bd      	mov	sp, r7
    2dae:	b003      	add	sp, #12
    2db0:	bd90      	pop	{r4, r7, pc}
    2db2:	46c0      	nop			; (mov r8, r8)
    2db4:	000032b9 	.word	0x000032b9
    2db8:	20003234 	.word	0x20003234
    2dbc:	00006338 	.word	0x00006338
    2dc0:	00002ef1 	.word	0x00002ef1
    2dc4:	20003238 	.word	0x20003238
    2dc8:	00001f41 	.word	0x00001f41

00002dcc <xTimerGenericCommand>:
	}
}
/*-----------------------------------------------------------*/

BaseType_t xTimerGenericCommand( TimerHandle_t xTimer, const BaseType_t xCommandID, const TickType_t xOptionalValue, BaseType_t * const pxHigherPriorityTaskWoken, const TickType_t xTicksToWait )
{
    2dcc:	b590      	push	{r4, r7, lr}
    2dce:	b089      	sub	sp, #36	; 0x24
    2dd0:	af00      	add	r7, sp, #0
    2dd2:	60f8      	str	r0, [r7, #12]
    2dd4:	60b9      	str	r1, [r7, #8]
    2dd6:	607a      	str	r2, [r7, #4]
    2dd8:	603b      	str	r3, [r7, #0]
BaseType_t xReturn = pdFAIL;
    2dda:	2300      	movs	r3, #0
    2ddc:	61fb      	str	r3, [r7, #28]
DaemonTaskMessage_t xMessage;

	configASSERT( xTimer );
    2dde:	68fb      	ldr	r3, [r7, #12]
    2de0:	2b00      	cmp	r3, #0
    2de2:	d101      	bne.n	2de8 <xTimerGenericCommand+0x1c>
    2de4:	b672      	cpsid	i
    2de6:	e7fe      	b.n	2de6 <xTimerGenericCommand+0x1a>

	/* Send a message to the timer service task to perform a particular action
	on a particular timer definition. */
	if( xTimerQueue != NULL )
    2de8:	4b1e      	ldr	r3, [pc, #120]	; (2e64 <xTimerGenericCommand+0x98>)
    2dea:	681b      	ldr	r3, [r3, #0]
    2dec:	2b00      	cmp	r3, #0
    2dee:	d033      	beq.n	2e58 <xTimerGenericCommand+0x8c>
	{
		/* Send a command to the timer service task to start the xTimer timer. */
		xMessage.xMessageID = xCommandID;
    2df0:	2310      	movs	r3, #16
    2df2:	18fb      	adds	r3, r7, r3
    2df4:	68ba      	ldr	r2, [r7, #8]
    2df6:	601a      	str	r2, [r3, #0]
		xMessage.u.xTimerParameters.xMessageValue = xOptionalValue;
    2df8:	2310      	movs	r3, #16
    2dfa:	18fb      	adds	r3, r7, r3
    2dfc:	687a      	ldr	r2, [r7, #4]
    2dfe:	605a      	str	r2, [r3, #4]
		xMessage.u.xTimerParameters.pxTimer = ( Timer_t * ) xTimer;
    2e00:	2310      	movs	r3, #16
    2e02:	18fb      	adds	r3, r7, r3
    2e04:	68fa      	ldr	r2, [r7, #12]
    2e06:	609a      	str	r2, [r3, #8]

		if( xCommandID < tmrFIRST_FROM_ISR_COMMAND )
    2e08:	68bb      	ldr	r3, [r7, #8]
    2e0a:	2b05      	cmp	r3, #5
    2e0c:	dc1a      	bgt.n	2e44 <xTimerGenericCommand+0x78>
		{
			if( xTaskGetSchedulerState() == taskSCHEDULER_RUNNING )
    2e0e:	4b16      	ldr	r3, [pc, #88]	; (2e68 <xTimerGenericCommand+0x9c>)
    2e10:	4798      	blx	r3
    2e12:	0003      	movs	r3, r0
    2e14:	2b02      	cmp	r3, #2
    2e16:	d10a      	bne.n	2e2e <xTimerGenericCommand+0x62>
			{
				xReturn = xQueueSendToBack( xTimerQueue, &xMessage, xTicksToWait );
    2e18:	4b12      	ldr	r3, [pc, #72]	; (2e64 <xTimerGenericCommand+0x98>)
    2e1a:	6818      	ldr	r0, [r3, #0]
    2e1c:	6b3a      	ldr	r2, [r7, #48]	; 0x30
    2e1e:	2310      	movs	r3, #16
    2e20:	18f9      	adds	r1, r7, r3
    2e22:	2300      	movs	r3, #0
    2e24:	4c11      	ldr	r4, [pc, #68]	; (2e6c <xTimerGenericCommand+0xa0>)
    2e26:	47a0      	blx	r4
    2e28:	0003      	movs	r3, r0
    2e2a:	61fb      	str	r3, [r7, #28]
    2e2c:	e014      	b.n	2e58 <xTimerGenericCommand+0x8c>
			}
			else
			{
				xReturn = xQueueSendToBack( xTimerQueue, &xMessage, tmrNO_DELAY );
    2e2e:	4b0d      	ldr	r3, [pc, #52]	; (2e64 <xTimerGenericCommand+0x98>)
    2e30:	6818      	ldr	r0, [r3, #0]
    2e32:	2310      	movs	r3, #16
    2e34:	18f9      	adds	r1, r7, r3
    2e36:	2300      	movs	r3, #0
    2e38:	2200      	movs	r2, #0
    2e3a:	4c0c      	ldr	r4, [pc, #48]	; (2e6c <xTimerGenericCommand+0xa0>)
    2e3c:	47a0      	blx	r4
    2e3e:	0003      	movs	r3, r0
    2e40:	61fb      	str	r3, [r7, #28]
    2e42:	e009      	b.n	2e58 <xTimerGenericCommand+0x8c>
			}
		}
		else
		{
			xReturn = xQueueSendToBackFromISR( xTimerQueue, &xMessage, pxHigherPriorityTaskWoken );
    2e44:	4b07      	ldr	r3, [pc, #28]	; (2e64 <xTimerGenericCommand+0x98>)
    2e46:	6818      	ldr	r0, [r3, #0]
    2e48:	683a      	ldr	r2, [r7, #0]
    2e4a:	2310      	movs	r3, #16
    2e4c:	18f9      	adds	r1, r7, r3
    2e4e:	2300      	movs	r3, #0
    2e50:	4c07      	ldr	r4, [pc, #28]	; (2e70 <xTimerGenericCommand+0xa4>)
    2e52:	47a0      	blx	r4
    2e54:	0003      	movs	r3, r0
    2e56:	61fb      	str	r3, [r7, #28]
	else
	{
		mtCOVERAGE_TEST_MARKER();
	}

	return xReturn;
    2e58:	69fb      	ldr	r3, [r7, #28]
}
    2e5a:	0018      	movs	r0, r3
    2e5c:	46bd      	mov	sp, r7
    2e5e:	b009      	add	sp, #36	; 0x24
    2e60:	bd90      	pop	{r4, r7, pc}
    2e62:	46c0      	nop			; (mov r8, r8)
    2e64:	20003234 	.word	0x20003234
    2e68:	000029cd 	.word	0x000029cd
    2e6c:	000014d9 	.word	0x000014d9
    2e70:	000016b9 	.word	0x000016b9

00002e74 <prvProcessExpiredTimer>:
	return pxTimer->pcTimerName;
}
/*-----------------------------------------------------------*/

static void prvProcessExpiredTimer( const TickType_t xNextExpireTime, const TickType_t xTimeNow )
{
    2e74:	b590      	push	{r4, r7, lr}
    2e76:	b087      	sub	sp, #28
    2e78:	af02      	add	r7, sp, #8
    2e7a:	6078      	str	r0, [r7, #4]
    2e7c:	6039      	str	r1, [r7, #0]
BaseType_t xResult;
Timer_t * const pxTimer = ( Timer_t * ) listGET_OWNER_OF_HEAD_ENTRY( pxCurrentTimerList );
    2e7e:	4b18      	ldr	r3, [pc, #96]	; (2ee0 <prvProcessExpiredTimer+0x6c>)
    2e80:	681b      	ldr	r3, [r3, #0]
    2e82:	68db      	ldr	r3, [r3, #12]
    2e84:	68db      	ldr	r3, [r3, #12]
    2e86:	60fb      	str	r3, [r7, #12]

	/* Remove the timer from the list of active timers.  A check has already
	been performed to ensure the list is not empty. */
	( void ) uxListRemove( &( pxTimer->xTimerListItem ) );
    2e88:	68fb      	ldr	r3, [r7, #12]
    2e8a:	3304      	adds	r3, #4
    2e8c:	0018      	movs	r0, r3
    2e8e:	4b15      	ldr	r3, [pc, #84]	; (2ee4 <prvProcessExpiredTimer+0x70>)
    2e90:	4798      	blx	r3
	traceTIMER_EXPIRED( pxTimer );

	/* If the timer is an auto reload timer then calculate the next
	expiry time and re-insert the timer in the list of active timers. */
	if( pxTimer->uxAutoReload == ( UBaseType_t ) pdTRUE )
    2e92:	68fb      	ldr	r3, [r7, #12]
    2e94:	69db      	ldr	r3, [r3, #28]
    2e96:	2b01      	cmp	r3, #1
    2e98:	d119      	bne.n	2ece <prvProcessExpiredTimer+0x5a>
	{
		/* The timer is inserted into a list using a time relative to anything
		other than the current time.  It will therefore be inserted into the
		correct list relative to the time this task thinks it is now. */
		if( prvInsertTimerInActiveList( pxTimer, ( xNextExpireTime + pxTimer->xTimerPeriodInTicks ), xTimeNow, xNextExpireTime ) != pdFALSE )
    2e9a:	68fb      	ldr	r3, [r7, #12]
    2e9c:	699a      	ldr	r2, [r3, #24]
    2e9e:	687b      	ldr	r3, [r7, #4]
    2ea0:	18d1      	adds	r1, r2, r3
    2ea2:	687b      	ldr	r3, [r7, #4]
    2ea4:	683a      	ldr	r2, [r7, #0]
    2ea6:	68f8      	ldr	r0, [r7, #12]
    2ea8:	4c0f      	ldr	r4, [pc, #60]	; (2ee8 <prvProcessExpiredTimer+0x74>)
    2eaa:	47a0      	blx	r4
    2eac:	1e03      	subs	r3, r0, #0
    2eae:	d00e      	beq.n	2ece <prvProcessExpiredTimer+0x5a>
		{
			/* The timer expired before it was added to the active timer
			list.  Reload it now.  */
			xResult = xTimerGenericCommand( pxTimer, tmrCOMMAND_START_DONT_TRACE, xNextExpireTime, NULL, tmrNO_DELAY );
    2eb0:	687a      	ldr	r2, [r7, #4]
    2eb2:	68f8      	ldr	r0, [r7, #12]
    2eb4:	2300      	movs	r3, #0
    2eb6:	9300      	str	r3, [sp, #0]
    2eb8:	2300      	movs	r3, #0
    2eba:	2100      	movs	r1, #0
    2ebc:	4c0b      	ldr	r4, [pc, #44]	; (2eec <prvProcessExpiredTimer+0x78>)
    2ebe:	47a0      	blx	r4
    2ec0:	0003      	movs	r3, r0
    2ec2:	60bb      	str	r3, [r7, #8]
			configASSERT( xResult );
    2ec4:	68bb      	ldr	r3, [r7, #8]
    2ec6:	2b00      	cmp	r3, #0
    2ec8:	d101      	bne.n	2ece <prvProcessExpiredTimer+0x5a>
    2eca:	b672      	cpsid	i
    2ecc:	e7fe      	b.n	2ecc <prvProcessExpiredTimer+0x58>
	{
		mtCOVERAGE_TEST_MARKER();
	}

	/* Call the timer callback. */
	pxTimer->pxCallbackFunction( ( TimerHandle_t ) pxTimer );
    2ece:	68fb      	ldr	r3, [r7, #12]
    2ed0:	6a5b      	ldr	r3, [r3, #36]	; 0x24
    2ed2:	68fa      	ldr	r2, [r7, #12]
    2ed4:	0010      	movs	r0, r2
    2ed6:	4798      	blx	r3
}
    2ed8:	46c0      	nop			; (mov r8, r8)
    2eda:	46bd      	mov	sp, r7
    2edc:	b005      	add	sp, #20
    2ede:	bd90      	pop	{r4, r7, pc}
    2ee0:	2000322c 	.word	0x2000322c
    2ee4:	00000fb1 	.word	0x00000fb1
    2ee8:	00003059 	.word	0x00003059
    2eec:	00002dcd 	.word	0x00002dcd

00002ef0 <prvTimerTask>:
/*-----------------------------------------------------------*/

static void prvTimerTask( void *pvParameters )
{
    2ef0:	b580      	push	{r7, lr}
    2ef2:	b084      	sub	sp, #16
    2ef4:	af00      	add	r7, sp, #0
    2ef6:	6078      	str	r0, [r7, #4]

		/* Allow the application writer to execute some code in the context of
		this task at the point the task starts executing.  This is useful if the
		application includes initialisation code that would benefit from
		executing after the scheduler has been started. */
		vApplicationDaemonTaskStartupHook();
    2ef8:	4b08      	ldr	r3, [pc, #32]	; (2f1c <prvTimerTask+0x2c>)
    2efa:	4798      	blx	r3

	for( ;; )
	{
		/* Query the timers list to see if it contains any timers, and if so,
		obtain the time at which the next timer will expire. */
		xNextExpireTime = prvGetNextExpireTime( &xListWasEmpty );
    2efc:	2308      	movs	r3, #8
    2efe:	18fb      	adds	r3, r7, r3
    2f00:	0018      	movs	r0, r3
    2f02:	4b07      	ldr	r3, [pc, #28]	; (2f20 <prvTimerTask+0x30>)
    2f04:	4798      	blx	r3
    2f06:	0003      	movs	r3, r0
    2f08:	60fb      	str	r3, [r7, #12]

		/* If a timer has expired, process it.  Otherwise, block this task
		until either a timer does expire, or a command is received. */
		prvProcessTimerOrBlockTask( xNextExpireTime, xListWasEmpty );
    2f0a:	68ba      	ldr	r2, [r7, #8]
    2f0c:	68fb      	ldr	r3, [r7, #12]
    2f0e:	0011      	movs	r1, r2
    2f10:	0018      	movs	r0, r3
    2f12:	4b04      	ldr	r3, [pc, #16]	; (2f24 <prvTimerTask+0x34>)
    2f14:	4798      	blx	r3

		/* Empty the command queue. */
		prvProcessReceivedCommands();
    2f16:	4b04      	ldr	r3, [pc, #16]	; (2f28 <prvTimerTask+0x38>)
    2f18:	4798      	blx	r3
		xNextExpireTime = prvGetNextExpireTime( &xListWasEmpty );
    2f1a:	e7ef      	b.n	2efc <prvTimerTask+0xc>
    2f1c:	00005629 	.word	0x00005629
    2f20:	00002fd1 	.word	0x00002fd1
    2f24:	00002f2d 	.word	0x00002f2d
    2f28:	000030e1 	.word	0x000030e1

00002f2c <prvProcessTimerOrBlockTask>:
	}
}
/*-----------------------------------------------------------*/

static void prvProcessTimerOrBlockTask( const TickType_t xNextExpireTime, BaseType_t xListWasEmpty )
{
    2f2c:	b580      	push	{r7, lr}
    2f2e:	b084      	sub	sp, #16
    2f30:	af00      	add	r7, sp, #0
    2f32:	6078      	str	r0, [r7, #4]
    2f34:	6039      	str	r1, [r7, #0]
TickType_t xTimeNow;
BaseType_t xTimerListsWereSwitched;

	vTaskSuspendAll();
    2f36:	4b1e      	ldr	r3, [pc, #120]	; (2fb0 <prvProcessTimerOrBlockTask+0x84>)
    2f38:	4798      	blx	r3
		/* Obtain the time now to make an assessment as to whether the timer
		has expired or not.  If obtaining the time causes the lists to switch
		then don't process this timer as any timers that remained in the list
		when the lists were switched will have been processed within the
		prvSampleTimeNow() function. */
		xTimeNow = prvSampleTimeNow( &xTimerListsWereSwitched );
    2f3a:	2308      	movs	r3, #8
    2f3c:	18fb      	adds	r3, r7, r3
    2f3e:	0018      	movs	r0, r3
    2f40:	4b1c      	ldr	r3, [pc, #112]	; (2fb4 <prvProcessTimerOrBlockTask+0x88>)
    2f42:	4798      	blx	r3
    2f44:	0003      	movs	r3, r0
    2f46:	60fb      	str	r3, [r7, #12]
		if( xTimerListsWereSwitched == pdFALSE )
    2f48:	68bb      	ldr	r3, [r7, #8]
    2f4a:	2b00      	cmp	r3, #0
    2f4c:	d129      	bne.n	2fa2 <prvProcessTimerOrBlockTask+0x76>
		{
			/* The tick count has not overflowed, has the timer expired? */
			if( ( xListWasEmpty == pdFALSE ) && ( xNextExpireTime <= xTimeNow ) )
    2f4e:	683b      	ldr	r3, [r7, #0]
    2f50:	2b00      	cmp	r3, #0
    2f52:	d10c      	bne.n	2f6e <prvProcessTimerOrBlockTask+0x42>
    2f54:	687a      	ldr	r2, [r7, #4]
    2f56:	68fb      	ldr	r3, [r7, #12]
    2f58:	429a      	cmp	r2, r3
    2f5a:	d808      	bhi.n	2f6e <prvProcessTimerOrBlockTask+0x42>
			{
				( void ) xTaskResumeAll();
    2f5c:	4b16      	ldr	r3, [pc, #88]	; (2fb8 <prvProcessTimerOrBlockTask+0x8c>)
    2f5e:	4798      	blx	r3
				prvProcessExpiredTimer( xNextExpireTime, xTimeNow );
    2f60:	68fa      	ldr	r2, [r7, #12]
    2f62:	687b      	ldr	r3, [r7, #4]
    2f64:	0011      	movs	r1, r2
    2f66:	0018      	movs	r0, r3
    2f68:	4b14      	ldr	r3, [pc, #80]	; (2fbc <prvProcessTimerOrBlockTask+0x90>)
    2f6a:	4798      	blx	r3
		else
		{
			( void ) xTaskResumeAll();
		}
	}
}
    2f6c:	e01b      	b.n	2fa6 <prvProcessTimerOrBlockTask+0x7a>
				if( xListWasEmpty != pdFALSE )
    2f6e:	683b      	ldr	r3, [r7, #0]
    2f70:	2b00      	cmp	r3, #0
    2f72:	d006      	beq.n	2f82 <prvProcessTimerOrBlockTask+0x56>
					xListWasEmpty = listLIST_IS_EMPTY( pxOverflowTimerList );
    2f74:	4b12      	ldr	r3, [pc, #72]	; (2fc0 <prvProcessTimerOrBlockTask+0x94>)
    2f76:	681b      	ldr	r3, [r3, #0]
    2f78:	681b      	ldr	r3, [r3, #0]
    2f7a:	425a      	negs	r2, r3
    2f7c:	4153      	adcs	r3, r2
    2f7e:	b2db      	uxtb	r3, r3
    2f80:	603b      	str	r3, [r7, #0]
				vQueueWaitForMessageRestricted( xTimerQueue, ( xNextExpireTime - xTimeNow ), xListWasEmpty );
    2f82:	4b10      	ldr	r3, [pc, #64]	; (2fc4 <prvProcessTimerOrBlockTask+0x98>)
    2f84:	6818      	ldr	r0, [r3, #0]
    2f86:	687a      	ldr	r2, [r7, #4]
    2f88:	68fb      	ldr	r3, [r7, #12]
    2f8a:	1ad3      	subs	r3, r2, r3
    2f8c:	683a      	ldr	r2, [r7, #0]
    2f8e:	0019      	movs	r1, r3
    2f90:	4b0d      	ldr	r3, [pc, #52]	; (2fc8 <prvProcessTimerOrBlockTask+0x9c>)
    2f92:	4798      	blx	r3
				if( xTaskResumeAll() == pdFALSE )
    2f94:	4b08      	ldr	r3, [pc, #32]	; (2fb8 <prvProcessTimerOrBlockTask+0x8c>)
    2f96:	4798      	blx	r3
    2f98:	1e03      	subs	r3, r0, #0
    2f9a:	d104      	bne.n	2fa6 <prvProcessTimerOrBlockTask+0x7a>
					portYIELD_WITHIN_API();
    2f9c:	4b0b      	ldr	r3, [pc, #44]	; (2fcc <prvProcessTimerOrBlockTask+0xa0>)
    2f9e:	4798      	blx	r3
}
    2fa0:	e001      	b.n	2fa6 <prvProcessTimerOrBlockTask+0x7a>
			( void ) xTaskResumeAll();
    2fa2:	4b05      	ldr	r3, [pc, #20]	; (2fb8 <prvProcessTimerOrBlockTask+0x8c>)
    2fa4:	4798      	blx	r3
}
    2fa6:	46c0      	nop			; (mov r8, r8)
    2fa8:	46bd      	mov	sp, r7
    2faa:	b004      	add	sp, #16
    2fac:	bd80      	pop	{r7, pc}
    2fae:	46c0      	nop			; (mov r8, r8)
    2fb0:	00002259 	.word	0x00002259
    2fb4:	00003011 	.word	0x00003011
    2fb8:	00002271 	.word	0x00002271
    2fbc:	00002e75 	.word	0x00002e75
    2fc0:	20003230 	.word	0x20003230
    2fc4:	20003234 	.word	0x20003234
    2fc8:	00001e25 	.word	0x00001e25
    2fcc:	00001121 	.word	0x00001121

00002fd0 <prvGetNextExpireTime>:
/*-----------------------------------------------------------*/

static TickType_t prvGetNextExpireTime( BaseType_t * const pxListWasEmpty )
{
    2fd0:	b580      	push	{r7, lr}
    2fd2:	b084      	sub	sp, #16
    2fd4:	af00      	add	r7, sp, #0
    2fd6:	6078      	str	r0, [r7, #4]
	the timer with the nearest expiry time will expire.  If there are no
	active timers then just set the next expire time to 0.  That will cause
	this task to unblock when the tick count overflows, at which point the
	timer lists will be switched and the next expiry time can be
	re-assessed.  */
	*pxListWasEmpty = listLIST_IS_EMPTY( pxCurrentTimerList );
    2fd8:	4b0c      	ldr	r3, [pc, #48]	; (300c <prvGetNextExpireTime+0x3c>)
    2fda:	681b      	ldr	r3, [r3, #0]
    2fdc:	681b      	ldr	r3, [r3, #0]
    2fde:	425a      	negs	r2, r3
    2fe0:	4153      	adcs	r3, r2
    2fe2:	b2db      	uxtb	r3, r3
    2fe4:	001a      	movs	r2, r3
    2fe6:	687b      	ldr	r3, [r7, #4]
    2fe8:	601a      	str	r2, [r3, #0]
	if( *pxListWasEmpty == pdFALSE )
    2fea:	687b      	ldr	r3, [r7, #4]
    2fec:	681b      	ldr	r3, [r3, #0]
    2fee:	2b00      	cmp	r3, #0
    2ff0:	d105      	bne.n	2ffe <prvGetNextExpireTime+0x2e>
	{
		xNextExpireTime = listGET_ITEM_VALUE_OF_HEAD_ENTRY( pxCurrentTimerList );
    2ff2:	4b06      	ldr	r3, [pc, #24]	; (300c <prvGetNextExpireTime+0x3c>)
    2ff4:	681b      	ldr	r3, [r3, #0]
    2ff6:	68db      	ldr	r3, [r3, #12]
    2ff8:	681b      	ldr	r3, [r3, #0]
    2ffa:	60fb      	str	r3, [r7, #12]
    2ffc:	e001      	b.n	3002 <prvGetNextExpireTime+0x32>
	}
	else
	{
		/* Ensure the task unblocks when the tick count rolls over. */
		xNextExpireTime = ( TickType_t ) 0U;
    2ffe:	2300      	movs	r3, #0
    3000:	60fb      	str	r3, [r7, #12]
	}

	return xNextExpireTime;
    3002:	68fb      	ldr	r3, [r7, #12]
}
    3004:	0018      	movs	r0, r3
    3006:	46bd      	mov	sp, r7
    3008:	b004      	add	sp, #16
    300a:	bd80      	pop	{r7, pc}
    300c:	2000322c 	.word	0x2000322c

00003010 <prvSampleTimeNow>:
/*-----------------------------------------------------------*/

static TickType_t prvSampleTimeNow( BaseType_t * const pxTimerListsWereSwitched )
{
    3010:	b580      	push	{r7, lr}
    3012:	b084      	sub	sp, #16
    3014:	af00      	add	r7, sp, #0
    3016:	6078      	str	r0, [r7, #4]
TickType_t xTimeNow;
PRIVILEGED_DATA static TickType_t xLastTime = ( TickType_t ) 0U; /*lint !e956 Variable is only accessible to one task. */

	xTimeNow = xTaskGetTickCount();
    3018:	4b0c      	ldr	r3, [pc, #48]	; (304c <prvSampleTimeNow+0x3c>)
    301a:	4798      	blx	r3
    301c:	0003      	movs	r3, r0
    301e:	60fb      	str	r3, [r7, #12]

	if( xTimeNow < xLastTime )
    3020:	4b0b      	ldr	r3, [pc, #44]	; (3050 <prvSampleTimeNow+0x40>)
    3022:	681b      	ldr	r3, [r3, #0]
    3024:	68fa      	ldr	r2, [r7, #12]
    3026:	429a      	cmp	r2, r3
    3028:	d205      	bcs.n	3036 <prvSampleTimeNow+0x26>
	{
		prvSwitchTimerLists();
    302a:	4b0a      	ldr	r3, [pc, #40]	; (3054 <prvSampleTimeNow+0x44>)
    302c:	4798      	blx	r3
		*pxTimerListsWereSwitched = pdTRUE;
    302e:	687b      	ldr	r3, [r7, #4]
    3030:	2201      	movs	r2, #1
    3032:	601a      	str	r2, [r3, #0]
    3034:	e002      	b.n	303c <prvSampleTimeNow+0x2c>
	}
	else
	{
		*pxTimerListsWereSwitched = pdFALSE;
    3036:	687b      	ldr	r3, [r7, #4]
    3038:	2200      	movs	r2, #0
    303a:	601a      	str	r2, [r3, #0]
	}

	xLastTime = xTimeNow;
    303c:	4b04      	ldr	r3, [pc, #16]	; (3050 <prvSampleTimeNow+0x40>)
    303e:	68fa      	ldr	r2, [r7, #12]
    3040:	601a      	str	r2, [r3, #0]

	return xTimeNow;
    3042:	68fb      	ldr	r3, [r7, #12]
}
    3044:	0018      	movs	r0, r3
    3046:	46bd      	mov	sp, r7
    3048:	b004      	add	sp, #16
    304a:	bd80      	pop	{r7, pc}
    304c:	000023a5 	.word	0x000023a5
    3050:	2000323c 	.word	0x2000323c
    3054:	000031f9 	.word	0x000031f9

00003058 <prvInsertTimerInActiveList>:
/*-----------------------------------------------------------*/

static BaseType_t prvInsertTimerInActiveList( Timer_t * const pxTimer, const TickType_t xNextExpiryTime, const TickType_t xTimeNow, const TickType_t xCommandTime )
{
    3058:	b580      	push	{r7, lr}
    305a:	b086      	sub	sp, #24
    305c:	af00      	add	r7, sp, #0
    305e:	60f8      	str	r0, [r7, #12]
    3060:	60b9      	str	r1, [r7, #8]
    3062:	607a      	str	r2, [r7, #4]
    3064:	603b      	str	r3, [r7, #0]
BaseType_t xProcessTimerNow = pdFALSE;
    3066:	2300      	movs	r3, #0
    3068:	617b      	str	r3, [r7, #20]

	listSET_LIST_ITEM_VALUE( &( pxTimer->xTimerListItem ), xNextExpiryTime );
    306a:	68fb      	ldr	r3, [r7, #12]
    306c:	68ba      	ldr	r2, [r7, #8]
    306e:	605a      	str	r2, [r3, #4]
	listSET_LIST_ITEM_OWNER( &( pxTimer->xTimerListItem ), pxTimer );
    3070:	68fb      	ldr	r3, [r7, #12]
    3072:	68fa      	ldr	r2, [r7, #12]
    3074:	611a      	str	r2, [r3, #16]

	if( xNextExpiryTime <= xTimeNow )
    3076:	68ba      	ldr	r2, [r7, #8]
    3078:	687b      	ldr	r3, [r7, #4]
    307a:	429a      	cmp	r2, r3
    307c:	d812      	bhi.n	30a4 <prvInsertTimerInActiveList+0x4c>
	{
		/* Has the expiry time elapsed between the command to start/reset a
		timer was issued, and the time the command was processed? */
		if( ( ( TickType_t ) ( xTimeNow - xCommandTime ) ) >= pxTimer->xTimerPeriodInTicks ) /*lint !e961 MISRA exception as the casts are only redundant for some ports. */
    307e:	687a      	ldr	r2, [r7, #4]
    3080:	683b      	ldr	r3, [r7, #0]
    3082:	1ad2      	subs	r2, r2, r3
    3084:	68fb      	ldr	r3, [r7, #12]
    3086:	699b      	ldr	r3, [r3, #24]
    3088:	429a      	cmp	r2, r3
    308a:	d302      	bcc.n	3092 <prvInsertTimerInActiveList+0x3a>
		{
			/* The time between a command being issued and the command being
			processed actually exceeds the timers period.  */
			xProcessTimerNow = pdTRUE;
    308c:	2301      	movs	r3, #1
    308e:	617b      	str	r3, [r7, #20]
    3090:	e01b      	b.n	30ca <prvInsertTimerInActiveList+0x72>
		}
		else
		{
			vListInsert( pxOverflowTimerList, &( pxTimer->xTimerListItem ) );
    3092:	4b10      	ldr	r3, [pc, #64]	; (30d4 <prvInsertTimerInActiveList+0x7c>)
    3094:	681a      	ldr	r2, [r3, #0]
    3096:	68fb      	ldr	r3, [r7, #12]
    3098:	3304      	adds	r3, #4
    309a:	0019      	movs	r1, r3
    309c:	0010      	movs	r0, r2
    309e:	4b0e      	ldr	r3, [pc, #56]	; (30d8 <prvInsertTimerInActiveList+0x80>)
    30a0:	4798      	blx	r3
    30a2:	e012      	b.n	30ca <prvInsertTimerInActiveList+0x72>
		}
	}
	else
	{
		if( ( xTimeNow < xCommandTime ) && ( xNextExpiryTime >= xCommandTime ) )
    30a4:	687a      	ldr	r2, [r7, #4]
    30a6:	683b      	ldr	r3, [r7, #0]
    30a8:	429a      	cmp	r2, r3
    30aa:	d206      	bcs.n	30ba <prvInsertTimerInActiveList+0x62>
    30ac:	68ba      	ldr	r2, [r7, #8]
    30ae:	683b      	ldr	r3, [r7, #0]
    30b0:	429a      	cmp	r2, r3
    30b2:	d302      	bcc.n	30ba <prvInsertTimerInActiveList+0x62>
		{
			/* If, since the command was issued, the tick count has overflowed
			but the expiry time has not, then the timer must have already passed
			its expiry time and should be processed immediately. */
			xProcessTimerNow = pdTRUE;
    30b4:	2301      	movs	r3, #1
    30b6:	617b      	str	r3, [r7, #20]
    30b8:	e007      	b.n	30ca <prvInsertTimerInActiveList+0x72>
		}
		else
		{
			vListInsert( pxCurrentTimerList, &( pxTimer->xTimerListItem ) );
    30ba:	4b08      	ldr	r3, [pc, #32]	; (30dc <prvInsertTimerInActiveList+0x84>)
    30bc:	681a      	ldr	r2, [r3, #0]
    30be:	68fb      	ldr	r3, [r7, #12]
    30c0:	3304      	adds	r3, #4
    30c2:	0019      	movs	r1, r3
    30c4:	0010      	movs	r0, r2
    30c6:	4b04      	ldr	r3, [pc, #16]	; (30d8 <prvInsertTimerInActiveList+0x80>)
    30c8:	4798      	blx	r3
		}
	}

	return xProcessTimerNow;
    30ca:	697b      	ldr	r3, [r7, #20]
}
    30cc:	0018      	movs	r0, r3
    30ce:	46bd      	mov	sp, r7
    30d0:	b006      	add	sp, #24
    30d2:	bd80      	pop	{r7, pc}
    30d4:	20003230 	.word	0x20003230
    30d8:	00000f45 	.word	0x00000f45
    30dc:	2000322c 	.word	0x2000322c

000030e0 <prvProcessReceivedCommands>:
/*-----------------------------------------------------------*/

static void	prvProcessReceivedCommands( void )
{
    30e0:	b590      	push	{r4, r7, lr}
    30e2:	b08b      	sub	sp, #44	; 0x2c
    30e4:	af02      	add	r7, sp, #8
DaemonTaskMessage_t xMessage;
Timer_t *pxTimer;
BaseType_t xTimerListsWereSwitched, xResult;
TickType_t xTimeNow;

	while( xQueueReceive( xTimerQueue, &xMessage, tmrNO_DELAY ) != pdFAIL ) /*lint !e603 xMessage does not have to be initialised as it is passed out, not in, and it is not used unless xQueueReceive() returns pdTRUE. */
    30e6:	e068      	b.n	31ba <prvProcessReceivedCommands+0xda>
		}
		#endif /* INCLUDE_xTimerPendFunctionCall */

		/* Commands that are positive are timer commands rather than pended
		function calls. */
		if( xMessage.xMessageID >= ( BaseType_t ) 0 )
    30e8:	2308      	movs	r3, #8
    30ea:	18fb      	adds	r3, r7, r3
    30ec:	681b      	ldr	r3, [r3, #0]
    30ee:	2b00      	cmp	r3, #0
    30f0:	db63      	blt.n	31ba <prvProcessReceivedCommands+0xda>
		{
			/* The messages uses the xTimerParameters member to work on a
			software timer. */
			pxTimer = xMessage.u.xTimerParameters.pxTimer;
    30f2:	2308      	movs	r3, #8
    30f4:	18fb      	adds	r3, r7, r3
    30f6:	689b      	ldr	r3, [r3, #8]
    30f8:	61fb      	str	r3, [r7, #28]

			if( listIS_CONTAINED_WITHIN( NULL, &( pxTimer->xTimerListItem ) ) == pdFALSE ) /*lint !e961. The cast is only redundant when NULL is passed into the macro. */
    30fa:	69fb      	ldr	r3, [r7, #28]
    30fc:	695b      	ldr	r3, [r3, #20]
    30fe:	2b00      	cmp	r3, #0
    3100:	d004      	beq.n	310c <prvProcessReceivedCommands+0x2c>
			{
				/* The timer is in a list, remove it. */
				( void ) uxListRemove( &( pxTimer->xTimerListItem ) );
    3102:	69fb      	ldr	r3, [r7, #28]
    3104:	3304      	adds	r3, #4
    3106:	0018      	movs	r0, r3
    3108:	4b33      	ldr	r3, [pc, #204]	; (31d8 <prvProcessReceivedCommands+0xf8>)
    310a:	4798      	blx	r3
			it must be present in the function call.  prvSampleTimeNow() must be
			called after the message is received from xTimerQueue so there is no
			possibility of a higher priority task adding a message to the message
			queue with a time that is ahead of the timer daemon task (because it
			pre-empted the timer daemon task after the xTimeNow value was set). */
			xTimeNow = prvSampleTimeNow( &xTimerListsWereSwitched );
    310c:	1d3b      	adds	r3, r7, #4
    310e:	0018      	movs	r0, r3
    3110:	4b32      	ldr	r3, [pc, #200]	; (31dc <prvProcessReceivedCommands+0xfc>)
    3112:	4798      	blx	r3
    3114:	0003      	movs	r3, r0
    3116:	61bb      	str	r3, [r7, #24]

			switch( xMessage.xMessageID )
    3118:	2308      	movs	r3, #8
    311a:	18fb      	adds	r3, r7, r3
    311c:	681b      	ldr	r3, [r3, #0]
    311e:	2b09      	cmp	r3, #9
    3120:	d84a      	bhi.n	31b8 <prvProcessReceivedCommands+0xd8>
    3122:	009a      	lsls	r2, r3, #2
    3124:	4b2e      	ldr	r3, [pc, #184]	; (31e0 <prvProcessReceivedCommands+0x100>)
    3126:	18d3      	adds	r3, r2, r3
    3128:	681b      	ldr	r3, [r3, #0]
    312a:	469f      	mov	pc, r3
			    case tmrCOMMAND_START_FROM_ISR :
			    case tmrCOMMAND_RESET :
			    case tmrCOMMAND_RESET_FROM_ISR :
				case tmrCOMMAND_START_DONT_TRACE :
					/* Start or restart a timer. */
					if( prvInsertTimerInActiveList( pxTimer,  xMessage.u.xTimerParameters.xMessageValue + pxTimer->xTimerPeriodInTicks, xTimeNow, xMessage.u.xTimerParameters.xMessageValue ) != pdFALSE )
    312c:	2308      	movs	r3, #8
    312e:	18fb      	adds	r3, r7, r3
    3130:	685a      	ldr	r2, [r3, #4]
    3132:	69fb      	ldr	r3, [r7, #28]
    3134:	699b      	ldr	r3, [r3, #24]
    3136:	18d1      	adds	r1, r2, r3
    3138:	2308      	movs	r3, #8
    313a:	18fb      	adds	r3, r7, r3
    313c:	685b      	ldr	r3, [r3, #4]
    313e:	69ba      	ldr	r2, [r7, #24]
    3140:	69f8      	ldr	r0, [r7, #28]
    3142:	4c28      	ldr	r4, [pc, #160]	; (31e4 <prvProcessReceivedCommands+0x104>)
    3144:	47a0      	blx	r4
    3146:	1e03      	subs	r3, r0, #0
    3148:	d037      	beq.n	31ba <prvProcessReceivedCommands+0xda>
					{
						/* The timer expired before it was added to the active
						timer list.  Process it now. */
						pxTimer->pxCallbackFunction( ( TimerHandle_t ) pxTimer );
    314a:	69fb      	ldr	r3, [r7, #28]
    314c:	6a5b      	ldr	r3, [r3, #36]	; 0x24
    314e:	69fa      	ldr	r2, [r7, #28]
    3150:	0010      	movs	r0, r2
    3152:	4798      	blx	r3
						traceTIMER_EXPIRED( pxTimer );

						if( pxTimer->uxAutoReload == ( UBaseType_t ) pdTRUE )
    3154:	69fb      	ldr	r3, [r7, #28]
    3156:	69db      	ldr	r3, [r3, #28]
    3158:	2b01      	cmp	r3, #1
    315a:	d12e      	bne.n	31ba <prvProcessReceivedCommands+0xda>
						{
							xResult = xTimerGenericCommand( pxTimer, tmrCOMMAND_START_DONT_TRACE, xMessage.u.xTimerParameters.xMessageValue + pxTimer->xTimerPeriodInTicks, NULL, tmrNO_DELAY );
    315c:	2308      	movs	r3, #8
    315e:	18fb      	adds	r3, r7, r3
    3160:	685a      	ldr	r2, [r3, #4]
    3162:	69fb      	ldr	r3, [r7, #28]
    3164:	699b      	ldr	r3, [r3, #24]
    3166:	18d2      	adds	r2, r2, r3
    3168:	69f8      	ldr	r0, [r7, #28]
    316a:	2300      	movs	r3, #0
    316c:	9300      	str	r3, [sp, #0]
    316e:	2300      	movs	r3, #0
    3170:	2100      	movs	r1, #0
    3172:	4c1d      	ldr	r4, [pc, #116]	; (31e8 <prvProcessReceivedCommands+0x108>)
    3174:	47a0      	blx	r4
    3176:	0003      	movs	r3, r0
    3178:	617b      	str	r3, [r7, #20]
							configASSERT( xResult );
    317a:	697b      	ldr	r3, [r7, #20]
    317c:	2b00      	cmp	r3, #0
    317e:	d11c      	bne.n	31ba <prvProcessReceivedCommands+0xda>
    3180:	b672      	cpsid	i
    3182:	e7fe      	b.n	3182 <prvProcessReceivedCommands+0xa2>
					There is nothing to do here. */
					break;

				case tmrCOMMAND_CHANGE_PERIOD :
				case tmrCOMMAND_CHANGE_PERIOD_FROM_ISR :
					pxTimer->xTimerPeriodInTicks = xMessage.u.xTimerParameters.xMessageValue;
    3184:	2308      	movs	r3, #8
    3186:	18fb      	adds	r3, r7, r3
    3188:	685a      	ldr	r2, [r3, #4]
    318a:	69fb      	ldr	r3, [r7, #28]
    318c:	619a      	str	r2, [r3, #24]
					configASSERT( ( pxTimer->xTimerPeriodInTicks > 0 ) );
    318e:	69fb      	ldr	r3, [r7, #28]
    3190:	699b      	ldr	r3, [r3, #24]
    3192:	2b00      	cmp	r3, #0
    3194:	d101      	bne.n	319a <prvProcessReceivedCommands+0xba>
    3196:	b672      	cpsid	i
    3198:	e7fe      	b.n	3198 <prvProcessReceivedCommands+0xb8>
					be longer or shorter than the old one.  The command time is
					therefore set to the current time, and as the period cannot
					be zero the next expiry time can only be in the future,
					meaning (unlike for the xTimerStart() case above) there is
					no fail case that needs to be handled here. */
					( void ) prvInsertTimerInActiveList( pxTimer, ( xTimeNow + pxTimer->xTimerPeriodInTicks ), xTimeNow, xTimeNow );
    319a:	69fb      	ldr	r3, [r7, #28]
    319c:	699a      	ldr	r2, [r3, #24]
    319e:	69bb      	ldr	r3, [r7, #24]
    31a0:	18d1      	adds	r1, r2, r3
    31a2:	69bb      	ldr	r3, [r7, #24]
    31a4:	69ba      	ldr	r2, [r7, #24]
    31a6:	69f8      	ldr	r0, [r7, #28]
    31a8:	4c0e      	ldr	r4, [pc, #56]	; (31e4 <prvProcessReceivedCommands+0x104>)
    31aa:	47a0      	blx	r4
					break;
    31ac:	e005      	b.n	31ba <prvProcessReceivedCommands+0xda>
					allocated. */
					#if( ( configSUPPORT_DYNAMIC_ALLOCATION == 1 ) && ( configSUPPORT_STATIC_ALLOCATION == 0 ) )
					{
						/* The timer can only have been allocated dynamically -
						free it again. */
						vPortFree( pxTimer );
    31ae:	69fb      	ldr	r3, [r7, #28]
    31b0:	0018      	movs	r0, r3
    31b2:	4b0e      	ldr	r3, [pc, #56]	; (31ec <prvProcessReceivedCommands+0x10c>)
    31b4:	4798      	blx	r3
						{
							mtCOVERAGE_TEST_MARKER();
						}
					}
					#endif /* configSUPPORT_DYNAMIC_ALLOCATION */
					break;
    31b6:	e000      	b.n	31ba <prvProcessReceivedCommands+0xda>

				default	:
					/* Don't expect to get here. */
					break;
    31b8:	46c0      	nop			; (mov r8, r8)
	while( xQueueReceive( xTimerQueue, &xMessage, tmrNO_DELAY ) != pdFAIL ) /*lint !e603 xMessage does not have to be initialised as it is passed out, not in, and it is not used unless xQueueReceive() returns pdTRUE. */
    31ba:	4b0d      	ldr	r3, [pc, #52]	; (31f0 <prvProcessReceivedCommands+0x110>)
    31bc:	681b      	ldr	r3, [r3, #0]
    31be:	2208      	movs	r2, #8
    31c0:	18b9      	adds	r1, r7, r2
    31c2:	2200      	movs	r2, #0
    31c4:	0018      	movs	r0, r3
    31c6:	4b0b      	ldr	r3, [pc, #44]	; (31f4 <prvProcessReceivedCommands+0x114>)
    31c8:	4798      	blx	r3
    31ca:	1e03      	subs	r3, r0, #0
    31cc:	d18c      	bne.n	30e8 <prvProcessReceivedCommands+0x8>
			}
		}
	}
}
    31ce:	46c0      	nop			; (mov r8, r8)
    31d0:	46bd      	mov	sp, r7
    31d2:	b009      	add	sp, #36	; 0x24
    31d4:	bd90      	pop	{r4, r7, pc}
    31d6:	46c0      	nop			; (mov r8, r8)
    31d8:	00000fb1 	.word	0x00000fb1
    31dc:	00003011 	.word	0x00003011
    31e0:	00006340 	.word	0x00006340
    31e4:	00003059 	.word	0x00003059
    31e8:	00002dcd 	.word	0x00002dcd
    31ec:	00001321 	.word	0x00001321
    31f0:	20003234 	.word	0x20003234
    31f4:	000017d9 	.word	0x000017d9

000031f8 <prvSwitchTimerLists>:
/*-----------------------------------------------------------*/

static void prvSwitchTimerLists( void )
{
    31f8:	b590      	push	{r4, r7, lr}
    31fa:	b089      	sub	sp, #36	; 0x24
    31fc:	af02      	add	r7, sp, #8

	/* The tick count has overflowed.  The timer lists must be switched.
	If there are any timers still referenced from the current timer list
	then they must have expired and should be processed before the lists
	are switched. */
	while( listLIST_IS_EMPTY( pxCurrentTimerList ) == pdFALSE )
    31fe:	e03e      	b.n	327e <prvSwitchTimerLists+0x86>
	{
		xNextExpireTime = listGET_ITEM_VALUE_OF_HEAD_ENTRY( pxCurrentTimerList );
    3200:	4b28      	ldr	r3, [pc, #160]	; (32a4 <prvSwitchTimerLists+0xac>)
    3202:	681b      	ldr	r3, [r3, #0]
    3204:	68db      	ldr	r3, [r3, #12]
    3206:	681b      	ldr	r3, [r3, #0]
    3208:	617b      	str	r3, [r7, #20]

		/* Remove the timer from the list. */
		pxTimer = ( Timer_t * ) listGET_OWNER_OF_HEAD_ENTRY( pxCurrentTimerList );
    320a:	4b26      	ldr	r3, [pc, #152]	; (32a4 <prvSwitchTimerLists+0xac>)
    320c:	681b      	ldr	r3, [r3, #0]
    320e:	68db      	ldr	r3, [r3, #12]
    3210:	68db      	ldr	r3, [r3, #12]
    3212:	613b      	str	r3, [r7, #16]
		( void ) uxListRemove( &( pxTimer->xTimerListItem ) );
    3214:	693b      	ldr	r3, [r7, #16]
    3216:	3304      	adds	r3, #4
    3218:	0018      	movs	r0, r3
    321a:	4b23      	ldr	r3, [pc, #140]	; (32a8 <prvSwitchTimerLists+0xb0>)
    321c:	4798      	blx	r3
		traceTIMER_EXPIRED( pxTimer );

		/* Execute its callback, then send a command to restart the timer if
		it is an auto-reload timer.  It cannot be restarted here as the lists
		have not yet been switched. */
		pxTimer->pxCallbackFunction( ( TimerHandle_t ) pxTimer );
    321e:	693b      	ldr	r3, [r7, #16]
    3220:	6a5b      	ldr	r3, [r3, #36]	; 0x24
    3222:	693a      	ldr	r2, [r7, #16]
    3224:	0010      	movs	r0, r2
    3226:	4798      	blx	r3

		if( pxTimer->uxAutoReload == ( UBaseType_t ) pdTRUE )
    3228:	693b      	ldr	r3, [r7, #16]
    322a:	69db      	ldr	r3, [r3, #28]
    322c:	2b01      	cmp	r3, #1
    322e:	d126      	bne.n	327e <prvSwitchTimerLists+0x86>
			the timer going into the same timer list then it has already expired
			and the timer should be re-inserted into the current list so it is
			processed again within this loop.  Otherwise a command should be sent
			to restart the timer to ensure it is only inserted into a list after
			the lists have been swapped. */
			xReloadTime = ( xNextExpireTime + pxTimer->xTimerPeriodInTicks );
    3230:	693b      	ldr	r3, [r7, #16]
    3232:	699a      	ldr	r2, [r3, #24]
    3234:	697b      	ldr	r3, [r7, #20]
    3236:	18d3      	adds	r3, r2, r3
    3238:	60fb      	str	r3, [r7, #12]
			if( xReloadTime > xNextExpireTime )
    323a:	68fa      	ldr	r2, [r7, #12]
    323c:	697b      	ldr	r3, [r7, #20]
    323e:	429a      	cmp	r2, r3
    3240:	d90e      	bls.n	3260 <prvSwitchTimerLists+0x68>
			{
				listSET_LIST_ITEM_VALUE( &( pxTimer->xTimerListItem ), xReloadTime );
    3242:	693b      	ldr	r3, [r7, #16]
    3244:	68fa      	ldr	r2, [r7, #12]
    3246:	605a      	str	r2, [r3, #4]
				listSET_LIST_ITEM_OWNER( &( pxTimer->xTimerListItem ), pxTimer );
    3248:	693b      	ldr	r3, [r7, #16]
    324a:	693a      	ldr	r2, [r7, #16]
    324c:	611a      	str	r2, [r3, #16]
				vListInsert( pxCurrentTimerList, &( pxTimer->xTimerListItem ) );
    324e:	4b15      	ldr	r3, [pc, #84]	; (32a4 <prvSwitchTimerLists+0xac>)
    3250:	681a      	ldr	r2, [r3, #0]
    3252:	693b      	ldr	r3, [r7, #16]
    3254:	3304      	adds	r3, #4
    3256:	0019      	movs	r1, r3
    3258:	0010      	movs	r0, r2
    325a:	4b14      	ldr	r3, [pc, #80]	; (32ac <prvSwitchTimerLists+0xb4>)
    325c:	4798      	blx	r3
    325e:	e00e      	b.n	327e <prvSwitchTimerLists+0x86>
			}
			else
			{
				xResult = xTimerGenericCommand( pxTimer, tmrCOMMAND_START_DONT_TRACE, xNextExpireTime, NULL, tmrNO_DELAY );
    3260:	697a      	ldr	r2, [r7, #20]
    3262:	6938      	ldr	r0, [r7, #16]
    3264:	2300      	movs	r3, #0
    3266:	9300      	str	r3, [sp, #0]
    3268:	2300      	movs	r3, #0
    326a:	2100      	movs	r1, #0
    326c:	4c10      	ldr	r4, [pc, #64]	; (32b0 <prvSwitchTimerLists+0xb8>)
    326e:	47a0      	blx	r4
    3270:	0003      	movs	r3, r0
    3272:	60bb      	str	r3, [r7, #8]
				configASSERT( xResult );
    3274:	68bb      	ldr	r3, [r7, #8]
    3276:	2b00      	cmp	r3, #0
    3278:	d101      	bne.n	327e <prvSwitchTimerLists+0x86>
    327a:	b672      	cpsid	i
    327c:	e7fe      	b.n	327c <prvSwitchTimerLists+0x84>
	while( listLIST_IS_EMPTY( pxCurrentTimerList ) == pdFALSE )
    327e:	4b09      	ldr	r3, [pc, #36]	; (32a4 <prvSwitchTimerLists+0xac>)
    3280:	681b      	ldr	r3, [r3, #0]
    3282:	681b      	ldr	r3, [r3, #0]
    3284:	2b00      	cmp	r3, #0
    3286:	d1bb      	bne.n	3200 <prvSwitchTimerLists+0x8>
		{
			mtCOVERAGE_TEST_MARKER();
		}
	}

	pxTemp = pxCurrentTimerList;
    3288:	4b06      	ldr	r3, [pc, #24]	; (32a4 <prvSwitchTimerLists+0xac>)
    328a:	681b      	ldr	r3, [r3, #0]
    328c:	607b      	str	r3, [r7, #4]
	pxCurrentTimerList = pxOverflowTimerList;
    328e:	4b09      	ldr	r3, [pc, #36]	; (32b4 <prvSwitchTimerLists+0xbc>)
    3290:	681a      	ldr	r2, [r3, #0]
    3292:	4b04      	ldr	r3, [pc, #16]	; (32a4 <prvSwitchTimerLists+0xac>)
    3294:	601a      	str	r2, [r3, #0]
	pxOverflowTimerList = pxTemp;
    3296:	4b07      	ldr	r3, [pc, #28]	; (32b4 <prvSwitchTimerLists+0xbc>)
    3298:	687a      	ldr	r2, [r7, #4]
    329a:	601a      	str	r2, [r3, #0]
}
    329c:	46c0      	nop			; (mov r8, r8)
    329e:	46bd      	mov	sp, r7
    32a0:	b007      	add	sp, #28
    32a2:	bd90      	pop	{r4, r7, pc}
    32a4:	2000322c 	.word	0x2000322c
    32a8:	00000fb1 	.word	0x00000fb1
    32ac:	00000f45 	.word	0x00000f45
    32b0:	00002dcd 	.word	0x00002dcd
    32b4:	20003230 	.word	0x20003230

000032b8 <prvCheckForValidListAndQueue>:
/*-----------------------------------------------------------*/

static void prvCheckForValidListAndQueue( void )
{
    32b8:	b580      	push	{r7, lr}
    32ba:	af00      	add	r7, sp, #0
	/* Check that the list from which active timers are referenced, and the
	queue used to communicate with the timer service, have been
	initialised. */
	taskENTER_CRITICAL();
    32bc:	4b10      	ldr	r3, [pc, #64]	; (3300 <prvCheckForValidListAndQueue+0x48>)
    32be:	4798      	blx	r3
	{
		if( xTimerQueue == NULL )
    32c0:	4b10      	ldr	r3, [pc, #64]	; (3304 <prvCheckForValidListAndQueue+0x4c>)
    32c2:	681b      	ldr	r3, [r3, #0]
    32c4:	2b00      	cmp	r3, #0
    32c6:	d115      	bne.n	32f4 <prvCheckForValidListAndQueue+0x3c>
		{
			vListInitialise( &xActiveTimerList1 );
    32c8:	4b0f      	ldr	r3, [pc, #60]	; (3308 <prvCheckForValidListAndQueue+0x50>)
    32ca:	0018      	movs	r0, r3
    32cc:	4b0f      	ldr	r3, [pc, #60]	; (330c <prvCheckForValidListAndQueue+0x54>)
    32ce:	4798      	blx	r3
			vListInitialise( &xActiveTimerList2 );
    32d0:	4b0f      	ldr	r3, [pc, #60]	; (3310 <prvCheckForValidListAndQueue+0x58>)
    32d2:	0018      	movs	r0, r3
    32d4:	4b0d      	ldr	r3, [pc, #52]	; (330c <prvCheckForValidListAndQueue+0x54>)
    32d6:	4798      	blx	r3
			pxCurrentTimerList = &xActiveTimerList1;
    32d8:	4b0e      	ldr	r3, [pc, #56]	; (3314 <prvCheckForValidListAndQueue+0x5c>)
    32da:	4a0b      	ldr	r2, [pc, #44]	; (3308 <prvCheckForValidListAndQueue+0x50>)
    32dc:	601a      	str	r2, [r3, #0]
			pxOverflowTimerList = &xActiveTimerList2;
    32de:	4b0e      	ldr	r3, [pc, #56]	; (3318 <prvCheckForValidListAndQueue+0x60>)
    32e0:	4a0b      	ldr	r2, [pc, #44]	; (3310 <prvCheckForValidListAndQueue+0x58>)
    32e2:	601a      	str	r2, [r3, #0]

				xTimerQueue = xQueueCreateStatic( ( UBaseType_t ) configTIMER_QUEUE_LENGTH, ( UBaseType_t ) sizeof( DaemonTaskMessage_t ), &( ucStaticTimerQueueStorage[ 0 ] ), &xStaticTimerQueue );
			}
			#else
			{
				xTimerQueue = xQueueCreate( ( UBaseType_t ) configTIMER_QUEUE_LENGTH, sizeof( DaemonTaskMessage_t ) );
    32e4:	2200      	movs	r2, #0
    32e6:	210c      	movs	r1, #12
    32e8:	2005      	movs	r0, #5
    32ea:	4b0c      	ldr	r3, [pc, #48]	; (331c <prvCheckForValidListAndQueue+0x64>)
    32ec:	4798      	blx	r3
    32ee:	0002      	movs	r2, r0
    32f0:	4b04      	ldr	r3, [pc, #16]	; (3304 <prvCheckForValidListAndQueue+0x4c>)
    32f2:	601a      	str	r2, [r3, #0]
		else
		{
			mtCOVERAGE_TEST_MARKER();
		}
	}
	taskEXIT_CRITICAL();
    32f4:	4b0a      	ldr	r3, [pc, #40]	; (3320 <prvCheckForValidListAndQueue+0x68>)
    32f6:	4798      	blx	r3
}
    32f8:	46c0      	nop			; (mov r8, r8)
    32fa:	46bd      	mov	sp, r7
    32fc:	bd80      	pop	{r7, pc}
    32fe:	46c0      	nop			; (mov r8, r8)
    3300:	00001141 	.word	0x00001141
    3304:	20003234 	.word	0x20003234
    3308:	20003204 	.word	0x20003204
    330c:	00000eaf 	.word	0x00000eaf
    3310:	20003218 	.word	0x20003218
    3314:	2000322c 	.word	0x2000322c
    3318:	20003230 	.word	0x20003230
    331c:	00001415 	.word	0x00001415
    3320:	00001165 	.word	0x00001165

00003324 <__NVIC_SystemReset>:
/**
  \brief   System Reset
  \details Initiates a system reset request to reset the MCU.
 */
__NO_RETURN __STATIC_INLINE void __NVIC_SystemReset(void)
{
    3324:	b580      	push	{r7, lr}
    3326:	af00      	add	r7, sp, #0
  __ASM volatile ("dsb 0xF":::"memory");
    3328:	f3bf 8f4f 	dsb	sy
  __DSB();                                                          /* Ensure all outstanding memory accesses included
                                                                       buffered write are completed before reset */
  SCB->AIRCR  = ((0x5FAUL << SCB_AIRCR_VECTKEY_Pos) |
    332c:	4b03      	ldr	r3, [pc, #12]	; (333c <__NVIC_SystemReset+0x18>)
    332e:	4a04      	ldr	r2, [pc, #16]	; (3340 <__NVIC_SystemReset+0x1c>)
    3330:	60da      	str	r2, [r3, #12]
    3332:	f3bf 8f4f 	dsb	sy
                 SCB_AIRCR_SYSRESETREQ_Msk);
  __DSB();                                                          /* Ensure completion of memory access */

  for(;;)                                                           /* wait until reset */
  {
    __NOP();
    3336:	46c0      	nop			; (mov r8, r8)
    3338:	e7fd      	b.n	3336 <__NVIC_SystemReset+0x12>
    333a:	46c0      	nop			; (mov r8, r8)
    333c:	e000ed00 	.word	0xe000ed00
    3340:	05fa0004 	.word	0x05fa0004

00003344 <system_reset>:
 * Resets the MCU and all associated peripherals and registers, except RTC, all 32KHz sources,
 * WDT (if ALWAYSON is set) and GCLK (if WRTLOCK is set).
 *
 */
static inline void system_reset(void)
{
    3344:	b580      	push	{r7, lr}
    3346:	af00      	add	r7, sp, #0
	NVIC_SystemReset();
    3348:	4b00      	ldr	r3, [pc, #0]	; (334c <system_reset+0x8>)
    334a:	4798      	blx	r3
    334c:	00003325 	.word	0x00003325

00003350 <vCommandConsoleTask>:

/******************************************************************************
* CLI Thread
******************************************************************************/
void vCommandConsoleTask( void *pvParameters )
{
    3350:	b580      	push	{r7, lr}
    3352:	b086      	sub	sp, #24
    3354:	af00      	add	r7, sp, #0
    3356:	6078      	str	r0, [r7, #4]

//REGISTER COMMANDS HERE

FreeRTOS_CLIRegisterCommand( &xClearScreen );
    3358:	4b89      	ldr	r3, [pc, #548]	; (3580 <vCommandConsoleTask+0x230>)
    335a:	0018      	movs	r0, r3
    335c:	4b89      	ldr	r3, [pc, #548]	; (3584 <vCommandConsoleTask+0x234>)
    335e:	4798      	blx	r3
FreeRTOS_CLIRegisterCommand( &xResetCommand );
    3360:	4b89      	ldr	r3, [pc, #548]	; (3588 <vCommandConsoleTask+0x238>)
    3362:	0018      	movs	r0, r3
    3364:	4b87      	ldr	r3, [pc, #540]	; (3584 <vCommandConsoleTask+0x234>)
    3366:	4798      	blx	r3
FreeRTOS_CLIRegisterCommand( &xVersionCommand );
    3368:	4b88      	ldr	r3, [pc, #544]	; (358c <vCommandConsoleTask+0x23c>)
    336a:	0018      	movs	r0, r3
    336c:	4b85      	ldr	r3, [pc, #532]	; (3584 <vCommandConsoleTask+0x234>)
    336e:	4798      	blx	r3

uint8_t cRxedChar[2], cInputIndex = 0;
    3370:	2317      	movs	r3, #23
    3372:	18fb      	adds	r3, r7, r3
    3374:	2200      	movs	r2, #0
    3376:	701a      	strb	r2, [r3, #0]
static bool isEscapeCode = false;
static char pcEscapeCodes [4];
static uint8_t pcEscapeCodePos = 0;

//Any semaphores/mutexes/etc you needed to be initialized, you can do them here
SemaUartRead = xSemaphoreCreateBinary();
    3378:	2203      	movs	r2, #3
    337a:	2100      	movs	r1, #0
    337c:	2001      	movs	r0, #1
    337e:	4b84      	ldr	r3, [pc, #528]	; (3590 <vCommandConsoleTask+0x240>)
    3380:	4798      	blx	r3
    3382:	0002      	movs	r2, r0
    3384:	4b83      	ldr	r3, [pc, #524]	; (3594 <vCommandConsoleTask+0x244>)
    3386:	601a      	str	r2, [r3, #0]
    /* This code assumes the peripheral being used as the console has already
    been opened and configured, and is passed into the task as the task
    parameter.  Cast the task parameter to the correct type. */

    /* Send a welcome message to the user knows they are connected. */
    SerialConsoleWriteString( pcWelcomeMessage);
    3388:	4b83      	ldr	r3, [pc, #524]	; (3598 <vCommandConsoleTask+0x248>)
    338a:	0018      	movs	r0, r3
    338c:	4b83      	ldr	r3, [pc, #524]	; (359c <vCommandConsoleTask+0x24c>)
    338e:	4798      	blx	r3
    for( ;; )
    {
        /* This implementation reads a single character at a time.  Wait in the
        Blocked state until a character is received. */
		
		FreeRTOS_read(&cRxedChar);
    3390:	230c      	movs	r3, #12
    3392:	18fb      	adds	r3, r7, r3
    3394:	0018      	movs	r0, r3
    3396:	4b82      	ldr	r3, [pc, #520]	; (35a0 <vCommandConsoleTask+0x250>)
    3398:	4798      	blx	r3
		
        if( cRxedChar[0] == '\n' || cRxedChar[0] == '\r'  )
    339a:	230c      	movs	r3, #12
    339c:	18fb      	adds	r3, r7, r3
    339e:	781b      	ldrb	r3, [r3, #0]
    33a0:	2b0a      	cmp	r3, #10
    33a2:	d004      	beq.n	33ae <vCommandConsoleTask+0x5e>
    33a4:	230c      	movs	r3, #12
    33a6:	18fb      	adds	r3, r7, r3
    33a8:	781b      	ldrb	r3, [r3, #0]
    33aa:	2b0d      	cmp	r3, #13
    33ac:	d131      	bne.n	3412 <vCommandConsoleTask+0xc2>
        {
            /* A newline character was received, so the input command string is
            complete and can be processed.  Transmit a line separator, just to
            make the output easier to read. */
            SerialConsoleWriteString("\r\n");
    33ae:	4b7d      	ldr	r3, [pc, #500]	; (35a4 <vCommandConsoleTask+0x254>)
    33b0:	0018      	movs	r0, r3
    33b2:	4b7a      	ldr	r3, [pc, #488]	; (359c <vCommandConsoleTask+0x24c>)
    33b4:	4798      	blx	r3
			//Copy for last command
			isEscapeCode = false; pcEscapeCodePos = 0;
    33b6:	4b7c      	ldr	r3, [pc, #496]	; (35a8 <vCommandConsoleTask+0x258>)
    33b8:	2200      	movs	r2, #0
    33ba:	701a      	strb	r2, [r3, #0]
    33bc:	4b7b      	ldr	r3, [pc, #492]	; (35ac <vCommandConsoleTask+0x25c>)
    33be:	2200      	movs	r2, #0
    33c0:	701a      	strb	r2, [r3, #0]
			strncpy(pcLastCommand, pcInputString, MAX_INPUT_LENGTH_CLI-1);
    33c2:	497b      	ldr	r1, [pc, #492]	; (35b0 <vCommandConsoleTask+0x260>)
    33c4:	4b7b      	ldr	r3, [pc, #492]	; (35b4 <vCommandConsoleTask+0x264>)
    33c6:	2263      	movs	r2, #99	; 0x63
    33c8:	0018      	movs	r0, r3
    33ca:	4b7b      	ldr	r3, [pc, #492]	; (35b8 <vCommandConsoleTask+0x268>)
    33cc:	4798      	blx	r3
			pcLastCommand[MAX_INPUT_LENGTH_CLI-1] = 0;	//Ensure null termination
    33ce:	4b79      	ldr	r3, [pc, #484]	; (35b4 <vCommandConsoleTask+0x264>)
    33d0:	2263      	movs	r2, #99	; 0x63
    33d2:	2100      	movs	r1, #0
    33d4:	5499      	strb	r1, [r3, r2]
            do
            {
                /* Send the command string to the command interpreter.  Any
                output generated by the command interpreter will be placed in the
                pcOutputString buffer. */
                xMoreDataToFollow = FreeRTOS_CLIProcessCommand
    33d6:	4979      	ldr	r1, [pc, #484]	; (35bc <vCommandConsoleTask+0x26c>)
    33d8:	4b75      	ldr	r3, [pc, #468]	; (35b0 <vCommandConsoleTask+0x260>)
    33da:	2282      	movs	r2, #130	; 0x82
    33dc:	0018      	movs	r0, r3
    33de:	4b78      	ldr	r3, [pc, #480]	; (35c0 <vCommandConsoleTask+0x270>)
    33e0:	4798      	blx	r3
    33e2:	0003      	movs	r3, r0
    33e4:	613b      	str	r3, [r7, #16]
                              );

                /* Write the output generated by the command interpreter to the
                console. */
				//Ensure it is null terminated
				pcOutputString[MAX_OUTPUT_LENGTH_CLI - 1] = 0;
    33e6:	4b75      	ldr	r3, [pc, #468]	; (35bc <vCommandConsoleTask+0x26c>)
    33e8:	2281      	movs	r2, #129	; 0x81
    33ea:	2100      	movs	r1, #0
    33ec:	5499      	strb	r1, [r3, r2]
                SerialConsoleWriteString(pcOutputString);
    33ee:	4b73      	ldr	r3, [pc, #460]	; (35bc <vCommandConsoleTask+0x26c>)
    33f0:	0018      	movs	r0, r3
    33f2:	4b6a      	ldr	r3, [pc, #424]	; (359c <vCommandConsoleTask+0x24c>)
    33f4:	4798      	blx	r3

            } while( xMoreDataToFollow != pdFALSE );
    33f6:	693b      	ldr	r3, [r7, #16]
    33f8:	2b00      	cmp	r3, #0
    33fa:	d1ec      	bne.n	33d6 <vCommandConsoleTask+0x86>

            /* All the strings generated by the input command have been sent.
            Processing of the command is complete.  Clear the input string ready
            to receive the next command. */
            cInputIndex = 0;
    33fc:	2317      	movs	r3, #23
    33fe:	18fb      	adds	r3, r7, r3
    3400:	2200      	movs	r2, #0
    3402:	701a      	strb	r2, [r3, #0]
            memset( pcInputString, 0x00, MAX_INPUT_LENGTH_CLI );
    3404:	4b6a      	ldr	r3, [pc, #424]	; (35b0 <vCommandConsoleTask+0x260>)
    3406:	2264      	movs	r2, #100	; 0x64
    3408:	2100      	movs	r1, #0
    340a:	0018      	movs	r0, r3
    340c:	4b6d      	ldr	r3, [pc, #436]	; (35c4 <vCommandConsoleTask+0x274>)
    340e:	4798      	blx	r3
    3410:	e0b5      	b.n	357e <vCommandConsoleTask+0x22e>
        {
		            /* The if() clause performs the processing after a newline character
            is received.  This else clause performs the processing if any other
            character is received. */
		
			if (true == isEscapeCode) {
    3412:	4b65      	ldr	r3, [pc, #404]	; (35a8 <vCommandConsoleTask+0x258>)
    3414:	781b      	ldrb	r3, [r3, #0]
    3416:	2b00      	cmp	r3, #0
    3418:	d059      	beq.n	34ce <vCommandConsoleTask+0x17e>

				if(pcEscapeCodePos < CLI_PC_ESCAPE_CODE_SIZE) {
    341a:	4b64      	ldr	r3, [pc, #400]	; (35ac <vCommandConsoleTask+0x25c>)
    341c:	781b      	ldrb	r3, [r3, #0]
    341e:	2b03      	cmp	r3, #3
    3420:	d80c      	bhi.n	343c <vCommandConsoleTask+0xec>
					pcEscapeCodes[pcEscapeCodePos++] = cRxedChar[0];
    3422:	4b62      	ldr	r3, [pc, #392]	; (35ac <vCommandConsoleTask+0x25c>)
    3424:	781b      	ldrb	r3, [r3, #0]
    3426:	1c5a      	adds	r2, r3, #1
    3428:	b2d1      	uxtb	r1, r2
    342a:	4a60      	ldr	r2, [pc, #384]	; (35ac <vCommandConsoleTask+0x25c>)
    342c:	7011      	strb	r1, [r2, #0]
    342e:	001a      	movs	r2, r3
    3430:	230c      	movs	r3, #12
    3432:	18fb      	adds	r3, r7, r3
    3434:	7819      	ldrb	r1, [r3, #0]
    3436:	4b64      	ldr	r3, [pc, #400]	; (35c8 <vCommandConsoleTask+0x278>)
    3438:	5499      	strb	r1, [r3, r2]
    343a:	e005      	b.n	3448 <vCommandConsoleTask+0xf8>
				}
				else {
					isEscapeCode = false; pcEscapeCodePos = 0;
    343c:	4b5a      	ldr	r3, [pc, #360]	; (35a8 <vCommandConsoleTask+0x258>)
    343e:	2200      	movs	r2, #0
    3440:	701a      	strb	r2, [r3, #0]
    3442:	4b5a      	ldr	r3, [pc, #360]	; (35ac <vCommandConsoleTask+0x25c>)
    3444:	2200      	movs	r2, #0
    3446:	701a      	strb	r2, [r3, #0]
				}
			
				if (pcEscapeCodePos >= CLI_PC_MIN_ESCAPE_CODE_SIZE) {
    3448:	4b58      	ldr	r3, [pc, #352]	; (35ac <vCommandConsoleTask+0x25c>)
    344a:	781b      	ldrb	r3, [r3, #0]
    344c:	2b01      	cmp	r3, #1
    344e:	d99f      	bls.n	3390 <vCommandConsoleTask+0x40>
				
					// UP ARROW SHOW LAST COMMAND
					if(strcasecmp(pcEscapeCodes, "oa"))	{
    3450:	4a5e      	ldr	r2, [pc, #376]	; (35cc <vCommandConsoleTask+0x27c>)
    3452:	4b5d      	ldr	r3, [pc, #372]	; (35c8 <vCommandConsoleTask+0x278>)
    3454:	0011      	movs	r1, r2
    3456:	0018      	movs	r0, r3
    3458:	4b5d      	ldr	r3, [pc, #372]	; (35d0 <vCommandConsoleTask+0x280>)
    345a:	4798      	blx	r3
    345c:	1e03      	subs	r3, r0, #0
    345e:	d02f      	beq.n	34c0 <vCommandConsoleTask+0x170>
                            /// Delete current line and add prompt (">")
                            sprintf(pcInputString, "%c[2K\r>", 27);
    3460:	495c      	ldr	r1, [pc, #368]	; (35d4 <vCommandConsoleTask+0x284>)
    3462:	4b53      	ldr	r3, [pc, #332]	; (35b0 <vCommandConsoleTask+0x260>)
    3464:	221b      	movs	r2, #27
    3466:	0018      	movs	r0, r3
    3468:	4b5b      	ldr	r3, [pc, #364]	; (35d8 <vCommandConsoleTask+0x288>)
    346a:	4798      	blx	r3
				            SerialConsoleWriteString(pcInputString);
    346c:	4b50      	ldr	r3, [pc, #320]	; (35b0 <vCommandConsoleTask+0x260>)
    346e:	0018      	movs	r0, r3
    3470:	4b4a      	ldr	r3, [pc, #296]	; (359c <vCommandConsoleTask+0x24c>)
    3472:	4798      	blx	r3
                            /// Clear input buffer
                            cInputIndex = 0;
    3474:	2317      	movs	r3, #23
    3476:	18fb      	adds	r3, r7, r3
    3478:	2200      	movs	r2, #0
    347a:	701a      	strb	r2, [r3, #0]
                            memset( pcInputString, 0x00, MAX_INPUT_LENGTH_CLI );
    347c:	4b4c      	ldr	r3, [pc, #304]	; (35b0 <vCommandConsoleTask+0x260>)
    347e:	2264      	movs	r2, #100	; 0x64
    3480:	2100      	movs	r1, #0
    3482:	0018      	movs	r0, r3
    3484:	4b4f      	ldr	r3, [pc, #316]	; (35c4 <vCommandConsoleTask+0x274>)
    3486:	4798      	blx	r3
                        /// Send last command
						strncpy(pcInputString, pcLastCommand, MAX_INPUT_LENGTH_CLI - 1); 	
    3488:	494a      	ldr	r1, [pc, #296]	; (35b4 <vCommandConsoleTask+0x264>)
    348a:	4b49      	ldr	r3, [pc, #292]	; (35b0 <vCommandConsoleTask+0x260>)
    348c:	2263      	movs	r2, #99	; 0x63
    348e:	0018      	movs	r0, r3
    3490:	4b49      	ldr	r3, [pc, #292]	; (35b8 <vCommandConsoleTask+0x268>)
    3492:	4798      	blx	r3
                        cInputIndex = (strlen(pcInputString) < MAX_INPUT_LENGTH_CLI - 1) ? strlen(pcLastCommand) : MAX_INPUT_LENGTH_CLI - 1;
    3494:	4b46      	ldr	r3, [pc, #280]	; (35b0 <vCommandConsoleTask+0x260>)
    3496:	0018      	movs	r0, r3
    3498:	4b50      	ldr	r3, [pc, #320]	; (35dc <vCommandConsoleTask+0x28c>)
    349a:	4798      	blx	r3
    349c:	0003      	movs	r3, r0
    349e:	2b62      	cmp	r3, #98	; 0x62
    34a0:	d806      	bhi.n	34b0 <vCommandConsoleTask+0x160>
    34a2:	4b44      	ldr	r3, [pc, #272]	; (35b4 <vCommandConsoleTask+0x264>)
    34a4:	0018      	movs	r0, r3
    34a6:	4b4d      	ldr	r3, [pc, #308]	; (35dc <vCommandConsoleTask+0x28c>)
    34a8:	4798      	blx	r3
    34aa:	0003      	movs	r3, r0
    34ac:	b2da      	uxtb	r2, r3
    34ae:	e000      	b.n	34b2 <vCommandConsoleTask+0x162>
    34b0:	2263      	movs	r2, #99	; 0x63
    34b2:	2317      	movs	r3, #23
    34b4:	18fb      	adds	r3, r7, r3
    34b6:	701a      	strb	r2, [r3, #0]
						SerialConsoleWriteString(pcInputString);
    34b8:	4b3d      	ldr	r3, [pc, #244]	; (35b0 <vCommandConsoleTask+0x260>)
    34ba:	0018      	movs	r0, r3
    34bc:	4b37      	ldr	r3, [pc, #220]	; (359c <vCommandConsoleTask+0x24c>)
    34be:	4798      	blx	r3
					}
				
					isEscapeCode = false; pcEscapeCodePos = 0;
    34c0:	4b39      	ldr	r3, [pc, #228]	; (35a8 <vCommandConsoleTask+0x258>)
    34c2:	2200      	movs	r2, #0
    34c4:	701a      	strb	r2, [r3, #0]
    34c6:	4b39      	ldr	r3, [pc, #228]	; (35ac <vCommandConsoleTask+0x25c>)
    34c8:	2200      	movs	r2, #0
    34ca:	701a      	strb	r2, [r3, #0]
    34cc:	e760      	b.n	3390 <vCommandConsoleTask+0x40>
			}
            /* The if() clause performs the processing after a newline character
            is received.  This else clause performs the processing if any other
            character is received. */

            else if( cRxedChar[0] == '\r' )
    34ce:	230c      	movs	r3, #12
    34d0:	18fb      	adds	r3, r7, r3
    34d2:	781b      	ldrb	r3, [r3, #0]
    34d4:	2b0d      	cmp	r3, #13
    34d6:	d100      	bne.n	34da <vCommandConsoleTask+0x18a>
    34d8:	e75a      	b.n	3390 <vCommandConsoleTask+0x40>
            {
                /* Ignore carriage returns. */
            }
            else if( cRxedChar[0] == ASCII_BACKSPACE || cRxedChar[0] == ASCII_DELETE )
    34da:	230c      	movs	r3, #12
    34dc:	18fb      	adds	r3, r7, r3
    34de:	781b      	ldrb	r3, [r3, #0]
    34e0:	2b08      	cmp	r3, #8
    34e2:	d004      	beq.n	34ee <vCommandConsoleTask+0x19e>
    34e4:	230c      	movs	r3, #12
    34e6:	18fb      	adds	r3, r7, r3
    34e8:	781b      	ldrb	r3, [r3, #0]
    34ea:	2b7f      	cmp	r3, #127	; 0x7f
    34ec:	d11c      	bne.n	3528 <vCommandConsoleTask+0x1d8>
            {
				char erase[4] = {0x08, 0x20, 0x08, 0x00};
    34ee:	2308      	movs	r3, #8
    34f0:	18fb      	adds	r3, r7, r3
    34f2:	4a3b      	ldr	r2, [pc, #236]	; (35e0 <vCommandConsoleTask+0x290>)
    34f4:	6812      	ldr	r2, [r2, #0]
    34f6:	601a      	str	r2, [r3, #0]
				SerialConsoleWriteString(erase);
    34f8:	2308      	movs	r3, #8
    34fa:	18fb      	adds	r3, r7, r3
    34fc:	0018      	movs	r0, r3
    34fe:	4b27      	ldr	r3, [pc, #156]	; (359c <vCommandConsoleTask+0x24c>)
    3500:	4798      	blx	r3
                /* Backspace was pressed.  Erase the last character in the input
                buffer - if there are any. */
                if( cInputIndex > 0 )
    3502:	2317      	movs	r3, #23
    3504:	18fb      	adds	r3, r7, r3
    3506:	781b      	ldrb	r3, [r3, #0]
    3508:	2b00      	cmp	r3, #0
    350a:	d037      	beq.n	357c <vCommandConsoleTask+0x22c>
                {
                    cInputIndex--;
    350c:	2317      	movs	r3, #23
    350e:	18fb      	adds	r3, r7, r3
    3510:	781a      	ldrb	r2, [r3, #0]
    3512:	2317      	movs	r3, #23
    3514:	18fb      	adds	r3, r7, r3
    3516:	3a01      	subs	r2, #1
    3518:	701a      	strb	r2, [r3, #0]
                    pcInputString[ cInputIndex ] = 0;
    351a:	2317      	movs	r3, #23
    351c:	18fb      	adds	r3, r7, r3
    351e:	781b      	ldrb	r3, [r3, #0]
    3520:	4a23      	ldr	r2, [pc, #140]	; (35b0 <vCommandConsoleTask+0x260>)
    3522:	2100      	movs	r1, #0
    3524:	54d1      	strb	r1, [r2, r3]
            {
    3526:	e029      	b.n	357c <vCommandConsoleTask+0x22c>
                }
            }
			// ESC
			else if( cRxedChar[0] == ASCII_ESC) {
    3528:	230c      	movs	r3, #12
    352a:	18fb      	adds	r3, r7, r3
    352c:	781b      	ldrb	r3, [r3, #0]
    352e:	2b1b      	cmp	r3, #27
    3530:	d106      	bne.n	3540 <vCommandConsoleTask+0x1f0>
				isEscapeCode = true; //Next characters will be code arguments
    3532:	4b1d      	ldr	r3, [pc, #116]	; (35a8 <vCommandConsoleTask+0x258>)
    3534:	2201      	movs	r2, #1
    3536:	701a      	strb	r2, [r3, #0]
				pcEscapeCodePos = 0;
    3538:	4b1c      	ldr	r3, [pc, #112]	; (35ac <vCommandConsoleTask+0x25c>)
    353a:	2200      	movs	r2, #0
    353c:	701a      	strb	r2, [r3, #0]
    353e:	e727      	b.n	3390 <vCommandConsoleTask+0x40>
            {
                /* A character was entered.  It was not a new line, backspace
                or carriage return, so it is accepted as part of the input and
                placed into the input buffer.  When a n is entered the complete
                string will be passed to the command interpreter. */
                if( cInputIndex < MAX_INPUT_LENGTH_CLI )
    3540:	2317      	movs	r3, #23
    3542:	18fb      	adds	r3, r7, r3
    3544:	781b      	ldrb	r3, [r3, #0]
    3546:	2b63      	cmp	r3, #99	; 0x63
    3548:	d80e      	bhi.n	3568 <vCommandConsoleTask+0x218>
                {
                    pcInputString[ cInputIndex ] = cRxedChar[0];
    354a:	2317      	movs	r3, #23
    354c:	18fb      	adds	r3, r7, r3
    354e:	781b      	ldrb	r3, [r3, #0]
    3550:	220c      	movs	r2, #12
    3552:	18ba      	adds	r2, r7, r2
    3554:	7811      	ldrb	r1, [r2, #0]
    3556:	4a16      	ldr	r2, [pc, #88]	; (35b0 <vCommandConsoleTask+0x260>)
    3558:	54d1      	strb	r1, [r2, r3]
                    cInputIndex++;
    355a:	2317      	movs	r3, #23
    355c:	18fb      	adds	r3, r7, r3
    355e:	781a      	ldrb	r2, [r3, #0]
    3560:	2317      	movs	r3, #23
    3562:	18fb      	adds	r3, r7, r3
    3564:	3201      	adds	r2, #1
    3566:	701a      	strb	r2, [r3, #0]
                }

					//Order Echo
					cRxedChar[1] = 0;
    3568:	230c      	movs	r3, #12
    356a:	18fb      	adds	r3, r7, r3
    356c:	2200      	movs	r2, #0
    356e:	705a      	strb	r2, [r3, #1]
					SerialConsoleWriteString(&cRxedChar[0]);
    3570:	230c      	movs	r3, #12
    3572:	18fb      	adds	r3, r7, r3
    3574:	0018      	movs	r0, r3
    3576:	4b09      	ldr	r3, [pc, #36]	; (359c <vCommandConsoleTask+0x24c>)
    3578:	4798      	blx	r3
    357a:	e709      	b.n	3390 <vCommandConsoleTask+0x40>
            {
    357c:	46c0      	nop			; (mov r8, r8)
		FreeRTOS_read(&cRxedChar);
    357e:	e707      	b.n	3390 <vCommandConsoleTask+0x40>
    3580:	0000644c 	.word	0x0000644c
    3584:	00000c3d 	.word	0x00000c3d
    3588:	0000645c 	.word	0x0000645c
    358c:	0000646c 	.word	0x0000646c
    3590:	00001415 	.word	0x00001415
    3594:	20003424 	.word	0x20003424
    3598:	00006368 	.word	0x00006368
    359c:	00003ba9 	.word	0x00003ba9
    35a0:	000035e5 	.word	0x000035e5
    35a4:	00006420 	.word	0x00006420
    35a8:	20003250 	.word	0x20003250
    35ac:	20003251 	.word	0x20003251
    35b0:	200032b8 	.word	0x200032b8
    35b4:	20003254 	.word	0x20003254
    35b8:	00005ae5 	.word	0x00005ae5
    35bc:	2000331c 	.word	0x2000331c
    35c0:	00000cad 	.word	0x00000cad
    35c4:	0000584b 	.word	0x0000584b
    35c8:	200033a0 	.word	0x200033a0
    35cc:	00006424 	.word	0x00006424
    35d0:	00005a79 	.word	0x00005a79
    35d4:	00006428 	.word	0x00006428
    35d8:	00005a35 	.word	0x00005a35
    35dc:	00005ab5 	.word	0x00005ab5
    35e0:	00006430 	.word	0x00006430

000035e4 <FreeRTOS_read>:
* @details		STUDENTS TO COMPLETE.
* @note
*****************************************************************************/

static void FreeRTOS_read(char* character)
{
    35e4:	b580      	push	{r7, lr}
    35e6:	b082      	sub	sp, #8
    35e8:	af00      	add	r7, sp, #0
    35ea:	6078      	str	r0, [r7, #4]
	//vTaskSuspend( NULL );//We suspend ourselves. Please remove this when doing your code
		
	if(xSemaphoreTake(SemaUartRead, portMAX_DELAY) == pdTRUE)
    35ec:	4b09      	ldr	r3, [pc, #36]	; (3614 <FreeRTOS_read+0x30>)
    35ee:	681a      	ldr	r2, [r3, #0]
    35f0:	2301      	movs	r3, #1
    35f2:	425b      	negs	r3, r3
    35f4:	0019      	movs	r1, r3
    35f6:	0010      	movs	r0, r2
    35f8:	4b07      	ldr	r3, [pc, #28]	; (3618 <FreeRTOS_read+0x34>)
    35fa:	4798      	blx	r3
    35fc:	0003      	movs	r3, r0
    35fe:	2b01      	cmp	r3, #1
    3600:	d103      	bne.n	360a <FreeRTOS_read+0x26>
	{
		SerialConsoleReadCharacter(character);
    3602:	687b      	ldr	r3, [r7, #4]
    3604:	0018      	movs	r0, r3
    3606:	4b05      	ldr	r3, [pc, #20]	; (361c <FreeRTOS_read+0x38>)
    3608:	4798      	blx	r3
	}
}
    360a:	46c0      	nop			; (mov r8, r8)
    360c:	46bd      	mov	sp, r7
    360e:	b002      	add	sp, #8
    3610:	bd80      	pop	{r7, pc}
    3612:	46c0      	nop			; (mov r8, r8)
    3614:	20003424 	.word	0x20003424
    3618:	00001979 	.word	0x00001979
    361c:	00003c35 	.word	0x00003c35

00003620 <UartSemaphoreGive>:

void UartSemaphoreGive(void)
{
    3620:	b5b0      	push	{r4, r5, r7, lr}
    3622:	af00      	add	r7, sp, #0
	xSemaphoreGive(SemaUartRead);
    3624:	4b04      	ldr	r3, [pc, #16]	; (3638 <UartSemaphoreGive+0x18>)
    3626:	6818      	ldr	r0, [r3, #0]
    3628:	2300      	movs	r3, #0
    362a:	2200      	movs	r2, #0
    362c:	2100      	movs	r1, #0
    362e:	4c03      	ldr	r4, [pc, #12]	; (363c <UartSemaphoreGive+0x1c>)
    3630:	47a0      	blx	r4
}
    3632:	46c0      	nop			; (mov r8, r8)
    3634:	46bd      	mov	sp, r7
    3636:	bdb0      	pop	{r4, r5, r7, pc}
    3638:	20003424 	.word	0x20003424
    363c:	000014d9 	.word	0x000014d9

00003640 <xCliClearTerminalScreen>:
//THIS COMMAND USES vt100 TERMINAL COMMANDS TO CLEAR THE SCREEN ON A TERMINAL PROGRAM LIKE TERA TERM
//SEE http://www.csie.ntu.edu.tw/~r92094/c++/VT100.html for more info
//CLI SPECIFIC COMMANDS
static char bufCli[CLI_MSG_LEN];
BaseType_t xCliClearTerminalScreen( char *pcWriteBuffer,size_t xWriteBufferLen,const int8_t *pcCommandString )
{
    3640:	b590      	push	{r4, r7, lr}
    3642:	b087      	sub	sp, #28
    3644:	af00      	add	r7, sp, #0
    3646:	60f8      	str	r0, [r7, #12]
    3648:	60b9      	str	r1, [r7, #8]
    364a:	607a      	str	r2, [r7, #4]
	char clearScreen = ASCII_ESC;
    364c:	2317      	movs	r3, #23
    364e:	18fb      	adds	r3, r7, r3
    3650:	221b      	movs	r2, #27
    3652:	701a      	strb	r2, [r3, #0]
	snprintf(bufCli, CLI_MSG_LEN - 1, "%c[2J", clearScreen);
    3654:	2317      	movs	r3, #23
    3656:	18fb      	adds	r3, r7, r3
    3658:	781b      	ldrb	r3, [r3, #0]
    365a:	4a08      	ldr	r2, [pc, #32]	; (367c <xCliClearTerminalScreen+0x3c>)
    365c:	4808      	ldr	r0, [pc, #32]	; (3680 <xCliClearTerminalScreen+0x40>)
    365e:	210f      	movs	r1, #15
    3660:	4c08      	ldr	r4, [pc, #32]	; (3684 <xCliClearTerminalScreen+0x44>)
    3662:	47a0      	blx	r4
	snprintf(pcWriteBuffer, xWriteBufferLen, bufCli);
    3664:	4a06      	ldr	r2, [pc, #24]	; (3680 <xCliClearTerminalScreen+0x40>)
    3666:	68b9      	ldr	r1, [r7, #8]
    3668:	68fb      	ldr	r3, [r7, #12]
    366a:	0018      	movs	r0, r3
    366c:	4b05      	ldr	r3, [pc, #20]	; (3684 <xCliClearTerminalScreen+0x44>)
    366e:	4798      	blx	r3
	return pdFALSE;
    3670:	2300      	movs	r3, #0
}
    3672:	0018      	movs	r0, r3
    3674:	46bd      	mov	sp, r7
    3676:	b007      	add	sp, #28
    3678:	bd90      	pop	{r4, r7, pc}
    367a:	46c0      	nop			; (mov r8, r8)
    367c:	00006434 	.word	0x00006434
    3680:	20003240 	.word	0x20003240
    3684:	000059d1 	.word	0x000059d1

00003688 <CLI_ResetDevice>:

//Example CLI Command. Resets system.
BaseType_t CLI_ResetDevice( int8_t *pcWriteBuffer,size_t xWriteBufferLen,const int8_t *pcCommandString )
{
    3688:	b580      	push	{r7, lr}
    368a:	b084      	sub	sp, #16
    368c:	af00      	add	r7, sp, #0
    368e:	60f8      	str	r0, [r7, #12]
    3690:	60b9      	str	r1, [r7, #8]
    3692:	607a      	str	r2, [r7, #4]
	system_reset();
    3694:	4b03      	ldr	r3, [pc, #12]	; (36a4 <CLI_ResetDevice+0x1c>)
    3696:	4798      	blx	r3
	return pdFALSE;
    3698:	2300      	movs	r3, #0
}
    369a:	0018      	movs	r0, r3
    369c:	46bd      	mov	sp, r7
    369e:	b004      	add	sp, #16
    36a0:	bd80      	pop	{r7, pc}
    36a2:	46c0      	nop			; (mov r8, r8)
    36a4:	00003345 	.word	0x00003345

000036a8 <CLI_DeviceVersion>:

BaseType_t CLI_DeviceVersion( int8_t *pcWriteBuffer,size_t xWriteBufferLen,const int8_t *pcCommandString )
{
    36a8:	b590      	push	{r4, r7, lr}
    36aa:	b087      	sub	sp, #28
    36ac:	af00      	add	r7, sp, #0
    36ae:	60f8      	str	r0, [r7, #12]
    36b0:	60b9      	str	r1, [r7, #8]
    36b2:	607a      	str	r2, [r7, #4]
	char* s = VERSION;
    36b4:	4b09      	ldr	r3, [pc, #36]	; (36dc <CLI_DeviceVersion+0x34>)
    36b6:	617b      	str	r3, [r7, #20]
	snprintf(bufCli, CLI_MSG_LEN - 1, "%s\r\n", s);
    36b8:	697b      	ldr	r3, [r7, #20]
    36ba:	4a09      	ldr	r2, [pc, #36]	; (36e0 <CLI_DeviceVersion+0x38>)
    36bc:	4809      	ldr	r0, [pc, #36]	; (36e4 <CLI_DeviceVersion+0x3c>)
    36be:	210f      	movs	r1, #15
    36c0:	4c09      	ldr	r4, [pc, #36]	; (36e8 <CLI_DeviceVersion+0x40>)
    36c2:	47a0      	blx	r4
	snprintf(pcWriteBuffer, xWriteBufferLen, bufCli);
    36c4:	4a07      	ldr	r2, [pc, #28]	; (36e4 <CLI_DeviceVersion+0x3c>)
    36c6:	68b9      	ldr	r1, [r7, #8]
    36c8:	68fb      	ldr	r3, [r7, #12]
    36ca:	0018      	movs	r0, r3
    36cc:	4b06      	ldr	r3, [pc, #24]	; (36e8 <CLI_DeviceVersion+0x40>)
    36ce:	4798      	blx	r3
	return pdFALSE;
    36d0:	2300      	movs	r3, #0
}
    36d2:	0018      	movs	r0, r3
    36d4:	46bd      	mov	sp, r7
    36d6:	b007      	add	sp, #28
    36d8:	bd90      	pop	{r4, r7, pc}
    36da:	46c0      	nop			; (mov r8, r8)
    36dc:	0000643c 	.word	0x0000643c
    36e0:	00006444 	.word	0x00006444
    36e4:	20003240 	.word	0x20003240
    36e8:	000059d1 	.word	0x000059d1

000036ec <advance_pointer>:
 };

 #pragma mark - Private Functions -

 static void advance_pointer(cbuf_handle_t cbuf)
 {
    36ec:	b580      	push	{r7, lr}
    36ee:	b082      	sub	sp, #8
    36f0:	af00      	add	r7, sp, #0
    36f2:	6078      	str	r0, [r7, #4]
	 //assert(cbuf);

	 if(cbuf->full)
    36f4:	687b      	ldr	r3, [r7, #4]
    36f6:	7c1b      	ldrb	r3, [r3, #16]
    36f8:	2b00      	cmp	r3, #0
    36fa:	d00b      	beq.n	3714 <advance_pointer+0x28>
	 {
		 cbuf->tail = (cbuf->tail + 1) % cbuf->max;
    36fc:	687b      	ldr	r3, [r7, #4]
    36fe:	689b      	ldr	r3, [r3, #8]
    3700:	1c5a      	adds	r2, r3, #1
    3702:	687b      	ldr	r3, [r7, #4]
    3704:	68d9      	ldr	r1, [r3, #12]
    3706:	4b10      	ldr	r3, [pc, #64]	; (3748 <advance_pointer+0x5c>)
    3708:	0010      	movs	r0, r2
    370a:	4798      	blx	r3
    370c:	000b      	movs	r3, r1
    370e:	001a      	movs	r2, r3
    3710:	687b      	ldr	r3, [r7, #4]
    3712:	609a      	str	r2, [r3, #8]
	 }

	 cbuf->head = (cbuf->head + 1) % cbuf->max;
    3714:	687b      	ldr	r3, [r7, #4]
    3716:	685b      	ldr	r3, [r3, #4]
    3718:	1c5a      	adds	r2, r3, #1
    371a:	687b      	ldr	r3, [r7, #4]
    371c:	68d9      	ldr	r1, [r3, #12]
    371e:	4b0a      	ldr	r3, [pc, #40]	; (3748 <advance_pointer+0x5c>)
    3720:	0010      	movs	r0, r2
    3722:	4798      	blx	r3
    3724:	000b      	movs	r3, r1
    3726:	001a      	movs	r2, r3
    3728:	687b      	ldr	r3, [r7, #4]
    372a:	605a      	str	r2, [r3, #4]

	 // We mark full because we will advance tail on the next time around
	 cbuf->full = (cbuf->head == cbuf->tail);
    372c:	687b      	ldr	r3, [r7, #4]
    372e:	685a      	ldr	r2, [r3, #4]
    3730:	687b      	ldr	r3, [r7, #4]
    3732:	689b      	ldr	r3, [r3, #8]
    3734:	1ad3      	subs	r3, r2, r3
    3736:	425a      	negs	r2, r3
    3738:	4153      	adcs	r3, r2
    373a:	b2da      	uxtb	r2, r3
    373c:	687b      	ldr	r3, [r7, #4]
    373e:	741a      	strb	r2, [r3, #16]
 }
    3740:	46c0      	nop			; (mov r8, r8)
    3742:	46bd      	mov	sp, r7
    3744:	b002      	add	sp, #8
    3746:	bd80      	pop	{r7, pc}
    3748:	0000577d 	.word	0x0000577d

0000374c <retreat_pointer>:

 static void retreat_pointer(cbuf_handle_t cbuf)
 {
    374c:	b580      	push	{r7, lr}
    374e:	b082      	sub	sp, #8
    3750:	af00      	add	r7, sp, #0
    3752:	6078      	str	r0, [r7, #4]
	 //assert(cbuf);

	 cbuf->full = false;
    3754:	687b      	ldr	r3, [r7, #4]
    3756:	2200      	movs	r2, #0
    3758:	741a      	strb	r2, [r3, #16]
	 cbuf->tail = (cbuf->tail + 1) % cbuf->max;
    375a:	687b      	ldr	r3, [r7, #4]
    375c:	689b      	ldr	r3, [r3, #8]
    375e:	1c5a      	adds	r2, r3, #1
    3760:	687b      	ldr	r3, [r7, #4]
    3762:	68d9      	ldr	r1, [r3, #12]
    3764:	4b05      	ldr	r3, [pc, #20]	; (377c <retreat_pointer+0x30>)
    3766:	0010      	movs	r0, r2
    3768:	4798      	blx	r3
    376a:	000b      	movs	r3, r1
    376c:	001a      	movs	r2, r3
    376e:	687b      	ldr	r3, [r7, #4]
    3770:	609a      	str	r2, [r3, #8]
 }
    3772:	46c0      	nop			; (mov r8, r8)
    3774:	46bd      	mov	sp, r7
    3776:	b002      	add	sp, #8
    3778:	bd80      	pop	{r7, pc}
    377a:	46c0      	nop			; (mov r8, r8)
    377c:	0000577d 	.word	0x0000577d

00003780 <circular_buf_init>:

 #pragma mark - APIs -

 cbuf_handle_t circular_buf_init(uint8_t* buffer, size_t size)
 {
    3780:	b580      	push	{r7, lr}
    3782:	b084      	sub	sp, #16
    3784:	af00      	add	r7, sp, #0
    3786:	6078      	str	r0, [r7, #4]
    3788:	6039      	str	r1, [r7, #0]
	// assert(buffer && size);

	 cbuf_handle_t cbuf = malloc(sizeof(circular_buf_t));
    378a:	2014      	movs	r0, #20
    378c:	4b09      	ldr	r3, [pc, #36]	; (37b4 <circular_buf_init+0x34>)
    378e:	4798      	blx	r3
    3790:	0003      	movs	r3, r0
    3792:	60fb      	str	r3, [r7, #12]
	 //assert(cbuf);

	 cbuf->buffer = buffer;
    3794:	68fb      	ldr	r3, [r7, #12]
    3796:	687a      	ldr	r2, [r7, #4]
    3798:	601a      	str	r2, [r3, #0]
	 cbuf->max = size;
    379a:	68fb      	ldr	r3, [r7, #12]
    379c:	683a      	ldr	r2, [r7, #0]
    379e:	60da      	str	r2, [r3, #12]
	 circular_buf_reset(cbuf);
    37a0:	68fb      	ldr	r3, [r7, #12]
    37a2:	0018      	movs	r0, r3
    37a4:	4b04      	ldr	r3, [pc, #16]	; (37b8 <circular_buf_init+0x38>)
    37a6:	4798      	blx	r3

	// assert(circular_buf_empty(cbuf));

	 return cbuf;
    37a8:	68fb      	ldr	r3, [r7, #12]
 }
    37aa:	0018      	movs	r0, r3
    37ac:	46bd      	mov	sp, r7
    37ae:	b004      	add	sp, #16
    37b0:	bd80      	pop	{r7, pc}
    37b2:	46c0      	nop			; (mov r8, r8)
    37b4:	00005825 	.word	0x00005825
    37b8:	000037bd 	.word	0x000037bd

000037bc <circular_buf_reset>:
	// assert(cbuf);
	 free(cbuf);
 }

 void circular_buf_reset(cbuf_handle_t cbuf)
 {
    37bc:	b580      	push	{r7, lr}
    37be:	b082      	sub	sp, #8
    37c0:	af00      	add	r7, sp, #0
    37c2:	6078      	str	r0, [r7, #4]
	// assert(cbuf);

	 cbuf->head = 0;
    37c4:	687b      	ldr	r3, [r7, #4]
    37c6:	2200      	movs	r2, #0
    37c8:	605a      	str	r2, [r3, #4]
	 cbuf->tail = 0;
    37ca:	687b      	ldr	r3, [r7, #4]
    37cc:	2200      	movs	r2, #0
    37ce:	609a      	str	r2, [r3, #8]
	 cbuf->full = false;
    37d0:	687b      	ldr	r3, [r7, #4]
    37d2:	2200      	movs	r2, #0
    37d4:	741a      	strb	r2, [r3, #16]
 }
    37d6:	46c0      	nop			; (mov r8, r8)
    37d8:	46bd      	mov	sp, r7
    37da:	b002      	add	sp, #8
    37dc:	bd80      	pop	{r7, pc}
	...

000037e0 <circular_buf_put>:

	 return cbuf->max;
 }

 void circular_buf_put(cbuf_handle_t cbuf, uint8_t data)
 {
    37e0:	b580      	push	{r7, lr}
    37e2:	b082      	sub	sp, #8
    37e4:	af00      	add	r7, sp, #0
    37e6:	6078      	str	r0, [r7, #4]
    37e8:	000a      	movs	r2, r1
    37ea:	1cfb      	adds	r3, r7, #3
    37ec:	701a      	strb	r2, [r3, #0]
	 //assert(cbuf && cbuf->buffer);

	 cbuf->buffer[cbuf->head] = data;
    37ee:	687b      	ldr	r3, [r7, #4]
    37f0:	681a      	ldr	r2, [r3, #0]
    37f2:	687b      	ldr	r3, [r7, #4]
    37f4:	685b      	ldr	r3, [r3, #4]
    37f6:	18d3      	adds	r3, r2, r3
    37f8:	1cfa      	adds	r2, r7, #3
    37fa:	7812      	ldrb	r2, [r2, #0]
    37fc:	701a      	strb	r2, [r3, #0]

	 advance_pointer(cbuf);
    37fe:	687b      	ldr	r3, [r7, #4]
    3800:	0018      	movs	r0, r3
    3802:	4b03      	ldr	r3, [pc, #12]	; (3810 <circular_buf_put+0x30>)
    3804:	4798      	blx	r3
 }
    3806:	46c0      	nop			; (mov r8, r8)
    3808:	46bd      	mov	sp, r7
    380a:	b002      	add	sp, #8
    380c:	bd80      	pop	{r7, pc}
    380e:	46c0      	nop			; (mov r8, r8)
    3810:	000036ed 	.word	0x000036ed

00003814 <circular_buf_get>:

	 return r;
 }

 int circular_buf_get(cbuf_handle_t cbuf, uint8_t * data)
 {
    3814:	b580      	push	{r7, lr}
    3816:	b084      	sub	sp, #16
    3818:	af00      	add	r7, sp, #0
    381a:	6078      	str	r0, [r7, #4]
    381c:	6039      	str	r1, [r7, #0]
	 //assert(cbuf && data && cbuf->buffer);
	 
	 int r = -1;
    381e:	2301      	movs	r3, #1
    3820:	425b      	negs	r3, r3
    3822:	60fb      	str	r3, [r7, #12]

	 if(!circular_buf_empty(cbuf))
    3824:	687b      	ldr	r3, [r7, #4]
    3826:	0018      	movs	r0, r3
    3828:	4b0d      	ldr	r3, [pc, #52]	; (3860 <circular_buf_get+0x4c>)
    382a:	4798      	blx	r3
    382c:	0003      	movs	r3, r0
    382e:	001a      	movs	r2, r3
    3830:	2301      	movs	r3, #1
    3832:	4053      	eors	r3, r2
    3834:	b2db      	uxtb	r3, r3
    3836:	2b00      	cmp	r3, #0
    3838:	d00d      	beq.n	3856 <circular_buf_get+0x42>
	 {
		 *data = cbuf->buffer[cbuf->tail];
    383a:	687b      	ldr	r3, [r7, #4]
    383c:	681a      	ldr	r2, [r3, #0]
    383e:	687b      	ldr	r3, [r7, #4]
    3840:	689b      	ldr	r3, [r3, #8]
    3842:	18d3      	adds	r3, r2, r3
    3844:	781a      	ldrb	r2, [r3, #0]
    3846:	683b      	ldr	r3, [r7, #0]
    3848:	701a      	strb	r2, [r3, #0]
		 retreat_pointer(cbuf);
    384a:	687b      	ldr	r3, [r7, #4]
    384c:	0018      	movs	r0, r3
    384e:	4b05      	ldr	r3, [pc, #20]	; (3864 <circular_buf_get+0x50>)
    3850:	4798      	blx	r3

		 r = 0;
    3852:	2300      	movs	r3, #0
    3854:	60fb      	str	r3, [r7, #12]
	 }

	 return r;
    3856:	68fb      	ldr	r3, [r7, #12]
 }
    3858:	0018      	movs	r0, r3
    385a:	46bd      	mov	sp, r7
    385c:	b004      	add	sp, #16
    385e:	bd80      	pop	{r7, pc}
    3860:	00003869 	.word	0x00003869
    3864:	0000374d 	.word	0x0000374d

00003868 <circular_buf_empty>:

 bool circular_buf_empty(cbuf_handle_t cbuf)
 {
    3868:	b580      	push	{r7, lr}
    386a:	b082      	sub	sp, #8
    386c:	af00      	add	r7, sp, #0
    386e:	6078      	str	r0, [r7, #4]
	 //assert(cbuf);

	 return (!cbuf->full && (cbuf->head == cbuf->tail));
    3870:	687b      	ldr	r3, [r7, #4]
    3872:	7c1b      	ldrb	r3, [r3, #16]
    3874:	2201      	movs	r2, #1
    3876:	4053      	eors	r3, r2
    3878:	b2db      	uxtb	r3, r3
    387a:	2b00      	cmp	r3, #0
    387c:	d007      	beq.n	388e <circular_buf_empty+0x26>
    387e:	687b      	ldr	r3, [r7, #4]
    3880:	685a      	ldr	r2, [r3, #4]
    3882:	687b      	ldr	r3, [r7, #4]
    3884:	689b      	ldr	r3, [r3, #8]
    3886:	429a      	cmp	r2, r3
    3888:	d101      	bne.n	388e <circular_buf_empty+0x26>
    388a:	2301      	movs	r3, #1
    388c:	e000      	b.n	3890 <circular_buf_empty+0x28>
    388e:	2300      	movs	r3, #0
    3890:	1c1a      	adds	r2, r3, #0
    3892:	2301      	movs	r3, #1
    3894:	4013      	ands	r3, r2
    3896:	b2db      	uxtb	r3, r3
 }
    3898:	0018      	movs	r0, r3
    389a:	46bd      	mov	sp, r7
    389c:	b002      	add	sp, #8
    389e:	bd80      	pop	{r7, pc}

000038a0 <__NVIC_SetPriority>:
{
    38a0:	b5b0      	push	{r4, r5, r7, lr}
    38a2:	b082      	sub	sp, #8
    38a4:	af00      	add	r7, sp, #0
    38a6:	0002      	movs	r2, r0
    38a8:	6039      	str	r1, [r7, #0]
    38aa:	1dfb      	adds	r3, r7, #7
    38ac:	701a      	strb	r2, [r3, #0]
  if ((int32_t)(IRQn) >= 0)
    38ae:	1dfb      	adds	r3, r7, #7
    38b0:	781b      	ldrb	r3, [r3, #0]
    38b2:	2b7f      	cmp	r3, #127	; 0x7f
    38b4:	d828      	bhi.n	3908 <__NVIC_SetPriority+0x68>
    NVIC->IP[_IP_IDX(IRQn)]  = ((uint32_t)(NVIC->IP[_IP_IDX(IRQn)]  & ~(0xFFUL << _BIT_SHIFT(IRQn))) |
    38b6:	4c2f      	ldr	r4, [pc, #188]	; (3974 <__NVIC_SetPriority+0xd4>)
    38b8:	1dfb      	adds	r3, r7, #7
    38ba:	781b      	ldrb	r3, [r3, #0]
    38bc:	b25b      	sxtb	r3, r3
    38be:	089b      	lsrs	r3, r3, #2
    38c0:	492c      	ldr	r1, [pc, #176]	; (3974 <__NVIC_SetPriority+0xd4>)
    38c2:	1dfa      	adds	r2, r7, #7
    38c4:	7812      	ldrb	r2, [r2, #0]
    38c6:	b252      	sxtb	r2, r2
    38c8:	0892      	lsrs	r2, r2, #2
    38ca:	32c0      	adds	r2, #192	; 0xc0
    38cc:	0092      	lsls	r2, r2, #2
    38ce:	5852      	ldr	r2, [r2, r1]
    38d0:	1df9      	adds	r1, r7, #7
    38d2:	7809      	ldrb	r1, [r1, #0]
    38d4:	0008      	movs	r0, r1
    38d6:	2103      	movs	r1, #3
    38d8:	4001      	ands	r1, r0
    38da:	00c9      	lsls	r1, r1, #3
    38dc:	20ff      	movs	r0, #255	; 0xff
    38de:	4088      	lsls	r0, r1
    38e0:	0001      	movs	r1, r0
    38e2:	43c9      	mvns	r1, r1
    38e4:	4011      	ands	r1, r2
       (((priority << (8U - __NVIC_PRIO_BITS)) & (uint32_t)0xFFUL) << _BIT_SHIFT(IRQn)));
    38e6:	683a      	ldr	r2, [r7, #0]
    38e8:	0192      	lsls	r2, r2, #6
    38ea:	20ff      	movs	r0, #255	; 0xff
    38ec:	4010      	ands	r0, r2
    38ee:	1dfa      	adds	r2, r7, #7
    38f0:	7812      	ldrb	r2, [r2, #0]
    38f2:	0015      	movs	r5, r2
    38f4:	2203      	movs	r2, #3
    38f6:	402a      	ands	r2, r5
    38f8:	00d2      	lsls	r2, r2, #3
    38fa:	4090      	lsls	r0, r2
    38fc:	0002      	movs	r2, r0
    NVIC->IP[_IP_IDX(IRQn)]  = ((uint32_t)(NVIC->IP[_IP_IDX(IRQn)]  & ~(0xFFUL << _BIT_SHIFT(IRQn))) |
    38fe:	430a      	orrs	r2, r1
    3900:	33c0      	adds	r3, #192	; 0xc0
    3902:	009b      	lsls	r3, r3, #2
    3904:	511a      	str	r2, [r3, r4]
}
    3906:	e031      	b.n	396c <__NVIC_SetPriority+0xcc>
    SCB->SHP[_SHP_IDX(IRQn)] = ((uint32_t)(SCB->SHP[_SHP_IDX(IRQn)] & ~(0xFFUL << _BIT_SHIFT(IRQn))) |
    3908:	4c1b      	ldr	r4, [pc, #108]	; (3978 <__NVIC_SetPriority+0xd8>)
    390a:	1dfb      	adds	r3, r7, #7
    390c:	781b      	ldrb	r3, [r3, #0]
    390e:	001a      	movs	r2, r3
    3910:	230f      	movs	r3, #15
    3912:	4013      	ands	r3, r2
    3914:	3b08      	subs	r3, #8
    3916:	0899      	lsrs	r1, r3, #2
    3918:	4a17      	ldr	r2, [pc, #92]	; (3978 <__NVIC_SetPriority+0xd8>)
    391a:	1dfb      	adds	r3, r7, #7
    391c:	781b      	ldrb	r3, [r3, #0]
    391e:	0018      	movs	r0, r3
    3920:	230f      	movs	r3, #15
    3922:	4003      	ands	r3, r0
    3924:	3b08      	subs	r3, #8
    3926:	089b      	lsrs	r3, r3, #2
    3928:	3306      	adds	r3, #6
    392a:	009b      	lsls	r3, r3, #2
    392c:	18d3      	adds	r3, r2, r3
    392e:	3304      	adds	r3, #4
    3930:	681b      	ldr	r3, [r3, #0]
    3932:	1dfa      	adds	r2, r7, #7
    3934:	7812      	ldrb	r2, [r2, #0]
    3936:	0010      	movs	r0, r2
    3938:	2203      	movs	r2, #3
    393a:	4002      	ands	r2, r0
    393c:	00d2      	lsls	r2, r2, #3
    393e:	20ff      	movs	r0, #255	; 0xff
    3940:	4090      	lsls	r0, r2
    3942:	0002      	movs	r2, r0
    3944:	43d2      	mvns	r2, r2
    3946:	401a      	ands	r2, r3
       (((priority << (8U - __NVIC_PRIO_BITS)) & (uint32_t)0xFFUL) << _BIT_SHIFT(IRQn)));
    3948:	683b      	ldr	r3, [r7, #0]
    394a:	019b      	lsls	r3, r3, #6
    394c:	20ff      	movs	r0, #255	; 0xff
    394e:	4018      	ands	r0, r3
    3950:	1dfb      	adds	r3, r7, #7
    3952:	781b      	ldrb	r3, [r3, #0]
    3954:	001d      	movs	r5, r3
    3956:	2303      	movs	r3, #3
    3958:	402b      	ands	r3, r5
    395a:	00db      	lsls	r3, r3, #3
    395c:	4098      	lsls	r0, r3
    395e:	0003      	movs	r3, r0
    SCB->SHP[_SHP_IDX(IRQn)] = ((uint32_t)(SCB->SHP[_SHP_IDX(IRQn)] & ~(0xFFUL << _BIT_SHIFT(IRQn))) |
    3960:	431a      	orrs	r2, r3
    3962:	1d8b      	adds	r3, r1, #6
    3964:	009b      	lsls	r3, r3, #2
    3966:	18e3      	adds	r3, r4, r3
    3968:	3304      	adds	r3, #4
    396a:	601a      	str	r2, [r3, #0]
}
    396c:	46c0      	nop			; (mov r8, r8)
    396e:	46bd      	mov	sp, r7
    3970:	b002      	add	sp, #8
    3972:	bdb0      	pop	{r4, r5, r7, pc}
    3974:	e000e100 	.word	0xe000e100
    3978:	e000ed00 	.word	0xe000ed00

0000397c <system_interrupt_enable>:
 *
 * \param[in] vector Interrupt vector to enable
 */
static inline void system_interrupt_enable(
		const enum system_interrupt_vector vector)
{
    397c:	b580      	push	{r7, lr}
    397e:	b082      	sub	sp, #8
    3980:	af00      	add	r7, sp, #0
    3982:	0002      	movs	r2, r0
    3984:	1dfb      	adds	r3, r7, #7
    3986:	701a      	strb	r2, [r3, #0]
	NVIC->ISER[0] = (uint32_t)(1 << ((uint32_t)vector & 0x0000001f));
    3988:	4b06      	ldr	r3, [pc, #24]	; (39a4 <system_interrupt_enable+0x28>)
    398a:	1dfa      	adds	r2, r7, #7
    398c:	7812      	ldrb	r2, [r2, #0]
    398e:	0011      	movs	r1, r2
    3990:	221f      	movs	r2, #31
    3992:	400a      	ands	r2, r1
    3994:	2101      	movs	r1, #1
    3996:	4091      	lsls	r1, r2
    3998:	000a      	movs	r2, r1
    399a:	601a      	str	r2, [r3, #0]
}
    399c:	46c0      	nop			; (mov r8, r8)
    399e:	46bd      	mov	sp, r7
    39a0:	b002      	add	sp, #8
    39a2:	bd80      	pop	{r7, pc}
    39a4:	e000e100 	.word	0xe000e100

000039a8 <usart_is_syncing>:
 * \retval false  Peripheral is not busy syncing and can be read/written without
 *                stalling the bus
 */
static inline bool usart_is_syncing(
		const struct usart_module *const module)
{
    39a8:	b580      	push	{r7, lr}
    39aa:	b084      	sub	sp, #16
    39ac:	af00      	add	r7, sp, #0
    39ae:	6078      	str	r0, [r7, #4]
	/* Sanity check arguments */
	Assert(module);
	Assert(module->hw);

	SercomUsart *const usart_hw = &(module->hw->USART);
    39b0:	687b      	ldr	r3, [r7, #4]
    39b2:	681b      	ldr	r3, [r3, #0]
    39b4:	60fb      	str	r3, [r7, #12]

#ifdef FEATURE_USART_SYNC_SCHEME_V2
	return (usart_hw->SYNCBUSY.reg);
    39b6:	68fb      	ldr	r3, [r7, #12]
    39b8:	69db      	ldr	r3, [r3, #28]
    39ba:	1e5a      	subs	r2, r3, #1
    39bc:	4193      	sbcs	r3, r2
    39be:	b2db      	uxtb	r3, r3
#else
	return (usart_hw->STATUS.reg & SERCOM_USART_STATUS_SYNCBUSY);
#endif
}
    39c0:	0018      	movs	r0, r3
    39c2:	46bd      	mov	sp, r7
    39c4:	b004      	add	sp, #16
    39c6:	bd80      	pop	{r7, pc}

000039c8 <_usart_wait_for_sync>:
 * \internal
 * Waits until synchronization is complete
 */
static inline void _usart_wait_for_sync(
		const struct usart_module *const module)
{
    39c8:	b580      	push	{r7, lr}
    39ca:	b082      	sub	sp, #8
    39cc:	af00      	add	r7, sp, #0
    39ce:	6078      	str	r0, [r7, #4]
	/* Sanity check */
	Assert(module);

	while (usart_is_syncing(module)) {
    39d0:	46c0      	nop			; (mov r8, r8)
    39d2:	687b      	ldr	r3, [r7, #4]
    39d4:	0018      	movs	r0, r3
    39d6:	4b04      	ldr	r3, [pc, #16]	; (39e8 <_usart_wait_for_sync+0x20>)
    39d8:	4798      	blx	r3
    39da:	1e03      	subs	r3, r0, #0
    39dc:	d1f9      	bne.n	39d2 <_usart_wait_for_sync+0xa>
		/* Wait until the synchronization is complete */
	}
}
    39de:	46c0      	nop			; (mov r8, r8)
    39e0:	46bd      	mov	sp, r7
    39e2:	b002      	add	sp, #8
    39e4:	bd80      	pop	{r7, pc}
    39e6:	46c0      	nop			; (mov r8, r8)
    39e8:	000039a9 	.word	0x000039a9

000039ec <usart_get_config_defaults>:
 *
 * \param[in,out] config  Pointer to configuration struct
 */
static inline void usart_get_config_defaults(
		struct usart_config *const config)
{
    39ec:	b580      	push	{r7, lr}
    39ee:	b082      	sub	sp, #8
    39f0:	af00      	add	r7, sp, #0
    39f2:	6078      	str	r0, [r7, #4]
	/* Sanity check arguments */
	Assert(config);

	/* Set default config in the config struct */
	config->data_order       = USART_DATAORDER_LSB;
    39f4:	687b      	ldr	r3, [r7, #4]
    39f6:	2280      	movs	r2, #128	; 0x80
    39f8:	05d2      	lsls	r2, r2, #23
    39fa:	601a      	str	r2, [r3, #0]
	config->transfer_mode    = USART_TRANSFER_ASYNCHRONOUSLY;
    39fc:	687b      	ldr	r3, [r7, #4]
    39fe:	2200      	movs	r2, #0
    3a00:	605a      	str	r2, [r3, #4]
	config->parity           = USART_PARITY_NONE;
    3a02:	687b      	ldr	r3, [r7, #4]
    3a04:	22ff      	movs	r2, #255	; 0xff
    3a06:	811a      	strh	r2, [r3, #8]
	config->stopbits         = USART_STOPBITS_1;
    3a08:	687b      	ldr	r3, [r7, #4]
    3a0a:	2200      	movs	r2, #0
    3a0c:	729a      	strb	r2, [r3, #10]
	config->character_size   = USART_CHARACTER_SIZE_8BIT;
    3a0e:	687b      	ldr	r3, [r7, #4]
    3a10:	2200      	movs	r2, #0
    3a12:	72da      	strb	r2, [r3, #11]
	config->baudrate         = 9600;
    3a14:	687b      	ldr	r3, [r7, #4]
    3a16:	2296      	movs	r2, #150	; 0x96
    3a18:	0192      	lsls	r2, r2, #6
    3a1a:	621a      	str	r2, [r3, #32]
	config->receiver_enable  = true;
    3a1c:	687b      	ldr	r3, [r7, #4]
    3a1e:	2224      	movs	r2, #36	; 0x24
    3a20:	2101      	movs	r1, #1
    3a22:	5499      	strb	r1, [r3, r2]
	config->transmitter_enable = true;
    3a24:	687b      	ldr	r3, [r7, #4]
    3a26:	2225      	movs	r2, #37	; 0x25
    3a28:	2101      	movs	r1, #1
    3a2a:	5499      	strb	r1, [r3, r2]
	config->clock_polarity_inverted = false;
    3a2c:	687b      	ldr	r3, [r7, #4]
    3a2e:	2226      	movs	r2, #38	; 0x26
    3a30:	2100      	movs	r1, #0
    3a32:	5499      	strb	r1, [r3, r2]
	config->use_external_clock = false;
    3a34:	687b      	ldr	r3, [r7, #4]
    3a36:	2227      	movs	r2, #39	; 0x27
    3a38:	2100      	movs	r1, #0
    3a3a:	5499      	strb	r1, [r3, r2]
	config->ext_clock_freq   = 0;
    3a3c:	687b      	ldr	r3, [r7, #4]
    3a3e:	2200      	movs	r2, #0
    3a40:	629a      	str	r2, [r3, #40]	; 0x28
	config->mux_setting      = USART_RX_1_TX_2_XCK_3;
    3a42:	687b      	ldr	r3, [r7, #4]
    3a44:	2288      	movs	r2, #136	; 0x88
    3a46:	0352      	lsls	r2, r2, #13
    3a48:	60da      	str	r2, [r3, #12]
	config->run_in_standby   = false;
    3a4a:	687b      	ldr	r3, [r7, #4]
    3a4c:	222c      	movs	r2, #44	; 0x2c
    3a4e:	2100      	movs	r1, #0
    3a50:	5499      	strb	r1, [r3, r2]
	config->generator_source = GCLK_GENERATOR_0;
    3a52:	687b      	ldr	r3, [r7, #4]
    3a54:	222d      	movs	r2, #45	; 0x2d
    3a56:	2100      	movs	r1, #0
    3a58:	5499      	strb	r1, [r3, r2]
	config->pinmux_pad0      = PINMUX_DEFAULT;
    3a5a:	687b      	ldr	r3, [r7, #4]
    3a5c:	2200      	movs	r2, #0
    3a5e:	631a      	str	r2, [r3, #48]	; 0x30
	config->pinmux_pad1      = PINMUX_DEFAULT;
    3a60:	687b      	ldr	r3, [r7, #4]
    3a62:	2200      	movs	r2, #0
    3a64:	635a      	str	r2, [r3, #52]	; 0x34
	config->pinmux_pad2      = PINMUX_DEFAULT;
    3a66:	687b      	ldr	r3, [r7, #4]
    3a68:	2200      	movs	r2, #0
    3a6a:	639a      	str	r2, [r3, #56]	; 0x38
	config->pinmux_pad3      = PINMUX_DEFAULT;
    3a6c:	687b      	ldr	r3, [r7, #4]
    3a6e:	2200      	movs	r2, #0
    3a70:	63da      	str	r2, [r3, #60]	; 0x3c
#ifdef FEATURE_USART_OVER_SAMPLE
	config->sample_adjustment     = USART_SAMPLE_ADJUSTMENT_7_8_9;
    3a72:	687b      	ldr	r3, [r7, #4]
    3a74:	2200      	movs	r2, #0
    3a76:	615a      	str	r2, [r3, #20]
	config->sample_rate           = USART_SAMPLE_RATE_16X_ARITHMETIC;
    3a78:	687b      	ldr	r3, [r7, #4]
    3a7a:	2200      	movs	r2, #0
    3a7c:	821a      	strh	r2, [r3, #16]
#endif
#ifdef FEATURE_USART_LIN_SLAVE
	config->lin_slave_enable      = false;
    3a7e:	687b      	ldr	r3, [r7, #4]
    3a80:	2200      	movs	r2, #0
    3a82:	76da      	strb	r2, [r3, #27]
	config->lin_header_delay = LIN_MASTER_HEADER_DELAY_0;
	config->lin_break_length = LIN_MASTER_BREAK_LENGTH_13_BIT;
#endif

#ifdef FEATURE_USART_IMMEDIATE_BUFFER_OVERFLOW_NOTIFICATION
	config->immediate_buffer_overflow_notification  = false;
    3a84:	687b      	ldr	r3, [r7, #4]
    3a86:	2200      	movs	r2, #0
    3a88:	761a      	strb	r2, [r3, #24]
#endif
#ifdef FEATURE_USART_START_FRAME_DECTION
	config->start_frame_detection_enable            = false;
    3a8a:	687b      	ldr	r3, [r7, #4]
    3a8c:	2200      	movs	r2, #0
    3a8e:	771a      	strb	r2, [r3, #28]
#endif
#ifdef FEATURE_USART_IRDA
	config->encoding_format_enable                  = false;
    3a90:	687b      	ldr	r3, [r7, #4]
    3a92:	2200      	movs	r2, #0
    3a94:	765a      	strb	r2, [r3, #25]
	config->receive_pulse_length                    = 19;
    3a96:	687b      	ldr	r3, [r7, #4]
    3a98:	2213      	movs	r2, #19
    3a9a:	769a      	strb	r2, [r3, #26]
	config->iso7816_config.inhibit_nack             = ISO7816_INHIBIT_NACK_DISABLE;
	config->iso7816_config.successive_recv_nack     = ISO7816_SUCCESSIVE_RECV_NACK_DISABLE;
	config->iso7816_config.max_iterations           = 7;
#endif
#ifdef FEATURE_USART_COLLISION_DECTION
	config->collision_detection_enable              = false;
    3a9c:	687b      	ldr	r3, [r7, #4]
    3a9e:	2200      	movs	r2, #0
    3aa0:	775a      	strb	r2, [r3, #29]
#endif
#ifdef FEATURE_USART_RS485
	config->rs485_guard_time = RS485_GUARD_TIME_0_BIT;
#endif
}
    3aa2:	46c0      	nop			; (mov r8, r8)
    3aa4:	46bd      	mov	sp, r7
    3aa6:	b002      	add	sp, #8
    3aa8:	bd80      	pop	{r7, pc}
	...

00003aac <usart_enable>:
 *
 * \param[in]  module  Pointer to USART software instance struct
 */
static inline void usart_enable(
		const struct usart_module *const module)
{
    3aac:	b580      	push	{r7, lr}
    3aae:	b084      	sub	sp, #16
    3ab0:	af00      	add	r7, sp, #0
    3ab2:	6078      	str	r0, [r7, #4]
	/* Sanity check arguments */
	Assert(module);
	Assert(module->hw);

	/* Get a pointer to the hardware module instance */
	SercomUsart *const usart_hw = &(module->hw->USART);
    3ab4:	687b      	ldr	r3, [r7, #4]
    3ab6:	681b      	ldr	r3, [r3, #0]
    3ab8:	60fb      	str	r3, [r7, #12]

#if USART_CALLBACK_MODE == true
	/* Enable Global interrupt for module */
	system_interrupt_enable(_sercom_get_interrupt_vector(module->hw));
    3aba:	687b      	ldr	r3, [r7, #4]
    3abc:	681b      	ldr	r3, [r3, #0]
    3abe:	0018      	movs	r0, r3
    3ac0:	4b09      	ldr	r3, [pc, #36]	; (3ae8 <usart_enable+0x3c>)
    3ac2:	4798      	blx	r3
    3ac4:	0003      	movs	r3, r0
    3ac6:	0018      	movs	r0, r3
    3ac8:	4b08      	ldr	r3, [pc, #32]	; (3aec <usart_enable+0x40>)
    3aca:	4798      	blx	r3
#endif

	/* Wait until synchronization is complete */
	_usart_wait_for_sync(module);
    3acc:	687b      	ldr	r3, [r7, #4]
    3ace:	0018      	movs	r0, r3
    3ad0:	4b07      	ldr	r3, [pc, #28]	; (3af0 <usart_enable+0x44>)
    3ad2:	4798      	blx	r3

	/* Enable USART module */
	usart_hw->CTRLA.reg |= SERCOM_USART_CTRLA_ENABLE;
    3ad4:	68fb      	ldr	r3, [r7, #12]
    3ad6:	681b      	ldr	r3, [r3, #0]
    3ad8:	2202      	movs	r2, #2
    3ada:	431a      	orrs	r2, r3
    3adc:	68fb      	ldr	r3, [r7, #12]
    3ade:	601a      	str	r2, [r3, #0]
}
    3ae0:	46c0      	nop			; (mov r8, r8)
    3ae2:	46bd      	mov	sp, r7
    3ae4:	b004      	add	sp, #16
    3ae6:	bd80      	pop	{r7, pc}
    3ae8:	00004acd 	.word	0x00004acd
    3aec:	0000397d 	.word	0x0000397d
    3af0:	000039c9 	.word	0x000039c9

00003af4 <usart_enable_callback>:
 * \param[in]  callback_type  Callback type given by an enum
 */
static inline void usart_enable_callback(
		struct usart_module *const module,
		enum usart_callback callback_type)
{
    3af4:	b580      	push	{r7, lr}
    3af6:	b082      	sub	sp, #8
    3af8:	af00      	add	r7, sp, #0
    3afa:	6078      	str	r0, [r7, #4]
    3afc:	000a      	movs	r2, r1
    3afe:	1cfb      	adds	r3, r7, #3
    3b00:	701a      	strb	r2, [r3, #0]
	/* Sanity check arguments */
	Assert(module);

	/* Enable callback */
	module->callback_enable_mask |= (1 << callback_type);
    3b02:	687b      	ldr	r3, [r7, #4]
    3b04:	2231      	movs	r2, #49	; 0x31
    3b06:	5c9b      	ldrb	r3, [r3, r2]
    3b08:	b25a      	sxtb	r2, r3
    3b0a:	1cfb      	adds	r3, r7, #3
    3b0c:	781b      	ldrb	r3, [r3, #0]
    3b0e:	2101      	movs	r1, #1
    3b10:	4099      	lsls	r1, r3
    3b12:	000b      	movs	r3, r1
    3b14:	b25b      	sxtb	r3, r3
    3b16:	4313      	orrs	r3, r2
    3b18:	b25b      	sxtb	r3, r3
    3b1a:	b2d9      	uxtb	r1, r3
    3b1c:	687b      	ldr	r3, [r7, #4]
    3b1e:	2231      	movs	r2, #49	; 0x31
    3b20:	5499      	strb	r1, [r3, r2]

}
    3b22:	46c0      	nop			; (mov r8, r8)
    3b24:	46bd      	mov	sp, r7
    3b26:	b002      	add	sp, #8
    3b28:	bd80      	pop	{r7, pc}
	...

00003b2c <InitializeSerialConsole>:
*				asynchronous reads and writes. 
* @note			Call from main once to initialize Hardware.
*****************************************************************************/

void InitializeSerialConsole(void)
{
    3b2c:	b580      	push	{r7, lr}
    3b2e:	af00      	add	r7, sp, #0

	//Initialize circular buffers for RX and TX
	cbufRx = circular_buf_init((uint8_t*)rxCharacterBuffer, RX_BUFFER_SIZE);
    3b30:	2380      	movs	r3, #128	; 0x80
    3b32:	009a      	lsls	r2, r3, #2
    3b34:	4b11      	ldr	r3, [pc, #68]	; (3b7c <InitializeSerialConsole+0x50>)
    3b36:	0011      	movs	r1, r2
    3b38:	0018      	movs	r0, r3
    3b3a:	4b11      	ldr	r3, [pc, #68]	; (3b80 <InitializeSerialConsole+0x54>)
    3b3c:	4798      	blx	r3
    3b3e:	0002      	movs	r2, r0
    3b40:	4b10      	ldr	r3, [pc, #64]	; (3b84 <InitializeSerialConsole+0x58>)
    3b42:	601a      	str	r2, [r3, #0]
	cbufTx = circular_buf_init((uint8_t*)txCharacterBuffer, RX_BUFFER_SIZE);
    3b44:	2380      	movs	r3, #128	; 0x80
    3b46:	009a      	lsls	r2, r3, #2
    3b48:	4b0f      	ldr	r3, [pc, #60]	; (3b88 <InitializeSerialConsole+0x5c>)
    3b4a:	0011      	movs	r1, r2
    3b4c:	0018      	movs	r0, r3
    3b4e:	4b0c      	ldr	r3, [pc, #48]	; (3b80 <InitializeSerialConsole+0x54>)
    3b50:	4798      	blx	r3
    3b52:	0002      	movs	r2, r0
    3b54:	4b0d      	ldr	r3, [pc, #52]	; (3b8c <InitializeSerialConsole+0x60>)
    3b56:	601a      	str	r2, [r3, #0]

	//Configure USART and Callbacks
	configure_usart();
    3b58:	4b0d      	ldr	r3, [pc, #52]	; (3b90 <InitializeSerialConsole+0x64>)
    3b5a:	4798      	blx	r3
	configure_usart_callbacks();
    3b5c:	4b0d      	ldr	r3, [pc, #52]	; (3b94 <InitializeSerialConsole+0x68>)
    3b5e:	4798      	blx	r3
	NVIC_SetPriority(SERCOM4_IRQn, 10);
    3b60:	210a      	movs	r1, #10
    3b62:	200d      	movs	r0, #13
    3b64:	4b0c      	ldr	r3, [pc, #48]	; (3b98 <InitializeSerialConsole+0x6c>)
    3b66:	4798      	blx	r3

	usart_read_buffer_job(&usart_instance, (uint8_t*) &latestRx, 1);	//Kicks off constant reading of characters
    3b68:	490c      	ldr	r1, [pc, #48]	; (3b9c <InitializeSerialConsole+0x70>)
    3b6a:	4b0d      	ldr	r3, [pc, #52]	; (3ba0 <InitializeSerialConsole+0x74>)
    3b6c:	2201      	movs	r2, #1
    3b6e:	0018      	movs	r0, r3
    3b70:	4b0c      	ldr	r3, [pc, #48]	; (3ba4 <InitializeSerialConsole+0x78>)
    3b72:	4798      	blx	r3

	//Add any other calls you need to do to initialize your Serial Console
}
    3b74:	46c0      	nop			; (mov r8, r8)
    3b76:	46bd      	mov	sp, r7
    3b78:	bd80      	pop	{r7, pc}
    3b7a:	46c0      	nop			; (mov r8, r8)
    3b7c:	200036b4 	.word	0x200036b4
    3b80:	00003781 	.word	0x00003781
    3b84:	200034ac 	.word	0x200034ac
    3b88:	200034b4 	.word	0x200034b4
    3b8c:	200038b8 	.word	0x200038b8
    3b90:	00003ced 	.word	0x00003ced
    3b94:	00003d65 	.word	0x00003d65
    3b98:	000038a1 	.word	0x000038a1
    3b9c:	200034b0 	.word	0x200034b0
    3ba0:	20003428 	.word	0x20003428
    3ba4:	00004675 	.word	0x00004675

00003ba8 <SerialConsoleWriteString>:
* @brief		Writes a string to be written to the uart. Copies the string to a ring buffer that is used to hold the text send to the uart
* @details		Uses the ringbuffer 'cbufTx', which in turn uses the array 'txCharacterBuffer'
* @note			Use to send a string of characters to the user via UART
*****************************************************************************/
void SerialConsoleWriteString(char * string)
{
    3ba8:	b580      	push	{r7, lr}
    3baa:	b084      	sub	sp, #16
    3bac:	af00      	add	r7, sp, #0
    3bae:	6078      	str	r0, [r7, #4]
	if(string != NULL)
    3bb0:	687b      	ldr	r3, [r7, #4]
    3bb2:	2b00      	cmp	r3, #0
    3bb4:	d02a      	beq.n	3c0c <SerialConsoleWriteString+0x64>
	{
		for (size_t iter = 0; iter < strlen(string); iter++)
    3bb6:	2300      	movs	r3, #0
    3bb8:	60fb      	str	r3, [r7, #12]
    3bba:	e00b      	b.n	3bd4 <SerialConsoleWriteString+0x2c>
		{
			circular_buf_put(cbufTx, string[iter]);
    3bbc:	4b15      	ldr	r3, [pc, #84]	; (3c14 <SerialConsoleWriteString+0x6c>)
    3bbe:	6818      	ldr	r0, [r3, #0]
    3bc0:	687a      	ldr	r2, [r7, #4]
    3bc2:	68fb      	ldr	r3, [r7, #12]
    3bc4:	18d3      	adds	r3, r2, r3
    3bc6:	781b      	ldrb	r3, [r3, #0]
    3bc8:	0019      	movs	r1, r3
    3bca:	4b13      	ldr	r3, [pc, #76]	; (3c18 <SerialConsoleWriteString+0x70>)
    3bcc:	4798      	blx	r3
		for (size_t iter = 0; iter < strlen(string); iter++)
    3bce:	68fb      	ldr	r3, [r7, #12]
    3bd0:	3301      	adds	r3, #1
    3bd2:	60fb      	str	r3, [r7, #12]
    3bd4:	687b      	ldr	r3, [r7, #4]
    3bd6:	0018      	movs	r0, r3
    3bd8:	4b10      	ldr	r3, [pc, #64]	; (3c1c <SerialConsoleWriteString+0x74>)
    3bda:	4798      	blx	r3
    3bdc:	0002      	movs	r2, r0
    3bde:	68fb      	ldr	r3, [r7, #12]
    3be0:	429a      	cmp	r2, r3
    3be2:	d8eb      	bhi.n	3bbc <SerialConsoleWriteString+0x14>
		}

		if(usart_get_job_status(&usart_instance, USART_TRANSCEIVER_TX) == STATUS_OK)
    3be4:	4b0e      	ldr	r3, [pc, #56]	; (3c20 <SerialConsoleWriteString+0x78>)
    3be6:	2101      	movs	r1, #1
    3be8:	0018      	movs	r0, r3
    3bea:	4b0e      	ldr	r3, [pc, #56]	; (3c24 <SerialConsoleWriteString+0x7c>)
    3bec:	4798      	blx	r3
    3bee:	1e03      	subs	r3, r0, #0
    3bf0:	d10c      	bne.n	3c0c <SerialConsoleWriteString+0x64>
		{
			circular_buf_get(cbufTx, (uint8_t*) &latestTx); //Perform only if the SERCOM TX is free (not busy)
    3bf2:	4b08      	ldr	r3, [pc, #32]	; (3c14 <SerialConsoleWriteString+0x6c>)
    3bf4:	681b      	ldr	r3, [r3, #0]
    3bf6:	4a0c      	ldr	r2, [pc, #48]	; (3c28 <SerialConsoleWriteString+0x80>)
    3bf8:	0011      	movs	r1, r2
    3bfa:	0018      	movs	r0, r3
    3bfc:	4b0b      	ldr	r3, [pc, #44]	; (3c2c <SerialConsoleWriteString+0x84>)
    3bfe:	4798      	blx	r3
			usart_write_buffer_job(&usart_instance, (uint8_t*) &latestTx, 1);
    3c00:	4909      	ldr	r1, [pc, #36]	; (3c28 <SerialConsoleWriteString+0x80>)
    3c02:	4b07      	ldr	r3, [pc, #28]	; (3c20 <SerialConsoleWriteString+0x78>)
    3c04:	2201      	movs	r2, #1
    3c06:	0018      	movs	r0, r3
    3c08:	4b09      	ldr	r3, [pc, #36]	; (3c30 <SerialConsoleWriteString+0x88>)
    3c0a:	4798      	blx	r3
		}
	}
}
    3c0c:	46c0      	nop			; (mov r8, r8)
    3c0e:	46bd      	mov	sp, r7
    3c10:	b004      	add	sp, #16
    3c12:	bd80      	pop	{r7, pc}
    3c14:	200038b8 	.word	0x200038b8
    3c18:	000037e1 	.word	0x000037e1
    3c1c:	00005ab5 	.word	0x00005ab5
    3c20:	20003428 	.word	0x20003428
    3c24:	000046bd 	.word	0x000046bd
    3c28:	200038b5 	.word	0x200038b5
    3c2c:	00003815 	.word	0x00003815
    3c30:	0000462d 	.word	0x0000462d

00003c34 <SerialConsoleReadCharacter>:
* @param[in]	Pointer to a character. This function will return the character from the RX buffer into this pointer
* @return		Returns -1 if there are no characters in the buffer
* @note			Use to receive characters from the RX buffer (FIFO)
*****************************************************************************/
int SerialConsoleReadCharacter(uint8_t *rxChar)
{
    3c34:	b580      	push	{r7, lr}
    3c36:	b084      	sub	sp, #16
    3c38:	af00      	add	r7, sp, #0
    3c3a:	6078      	str	r0, [r7, #4]
	vTaskSuspendAll();
    3c3c:	4b08      	ldr	r3, [pc, #32]	; (3c60 <SerialConsoleReadCharacter+0x2c>)
    3c3e:	4798      	blx	r3
	int a = circular_buf_get(cbufRx, (uint8_t*) rxChar);
    3c40:	4b08      	ldr	r3, [pc, #32]	; (3c64 <SerialConsoleReadCharacter+0x30>)
    3c42:	681b      	ldr	r3, [r3, #0]
    3c44:	687a      	ldr	r2, [r7, #4]
    3c46:	0011      	movs	r1, r2
    3c48:	0018      	movs	r0, r3
    3c4a:	4b07      	ldr	r3, [pc, #28]	; (3c68 <SerialConsoleReadCharacter+0x34>)
    3c4c:	4798      	blx	r3
    3c4e:	0003      	movs	r3, r0
    3c50:	60fb      	str	r3, [r7, #12]
	xTaskResumeAll();
    3c52:	4b06      	ldr	r3, [pc, #24]	; (3c6c <SerialConsoleReadCharacter+0x38>)
    3c54:	4798      	blx	r3
	return a;
    3c56:	68fb      	ldr	r3, [r7, #12]
}
    3c58:	0018      	movs	r0, r3
    3c5a:	46bd      	mov	sp, r7
    3c5c:	b004      	add	sp, #16
    3c5e:	bd80      	pop	{r7, pc}
    3c60:	00002259 	.word	0x00002259
    3c64:	200034ac 	.word	0x200034ac
    3c68:	00003815 	.word	0x00003815
    3c6c:	00002271 	.word	0x00002271

00003c70 <setLogLevel>:
* @param[in]    debugLevel The debug level to be set for the debug logger
* @note
*****************************************************************************/

void setLogLevel(enum eDebugLogLevels debugLevel)
{
    3c70:	b580      	push	{r7, lr}
    3c72:	b082      	sub	sp, #8
    3c74:	af00      	add	r7, sp, #0
    3c76:	0002      	movs	r2, r0
    3c78:	1dfb      	adds	r3, r7, #7
    3c7a:	701a      	strb	r2, [r3, #0]
currentDebugLevel = debugLevel;
    3c7c:	4b03      	ldr	r3, [pc, #12]	; (3c8c <setLogLevel+0x1c>)
    3c7e:	1dfa      	adds	r2, r7, #7
    3c80:	7812      	ldrb	r2, [r2, #0]
    3c82:	701a      	strb	r2, [r3, #0]

}
    3c84:	46c0      	nop			; (mov r8, r8)
    3c86:	46bd      	mov	sp, r7
    3c88:	b002      	add	sp, #8
    3c8a:	bd80      	pop	{r7, pc}
    3c8c:	200038b4 	.word	0x200038b4

00003c90 <LogMessage>:
* @brief
* @note
*****************************************************************************/	
char bufferMsg[80];
void LogMessage(enum eDebugLogLevels level, const char *format, ...)
{
    3c90:	b40e      	push	{r1, r2, r3}
    3c92:	b580      	push	{r7, lr}
    3c94:	b085      	sub	sp, #20
    3c96:	af00      	add	r7, sp, #0
    3c98:	0002      	movs	r2, r0
    3c9a:	1dfb      	adds	r3, r7, #7
    3c9c:	701a      	strb	r2, [r3, #0]
	if (level >= currentDebugLevel) {
    3c9e:	4b0f      	ldr	r3, [pc, #60]	; (3cdc <LogMessage+0x4c>)
    3ca0:	781b      	ldrb	r3, [r3, #0]
    3ca2:	1dfa      	adds	r2, r7, #7
    3ca4:	7812      	ldrb	r2, [r2, #0]
    3ca6:	429a      	cmp	r2, r3
    3ca8:	d310      	bcc.n	3ccc <LogMessage+0x3c>
	va_list aptr;
	uint8_t ret;
	va_start(aptr, format);
    3caa:	2320      	movs	r3, #32
    3cac:	18fb      	adds	r3, r7, r3
    3cae:	60bb      	str	r3, [r7, #8]
	ret = vsprintf(bufferMsg, format, aptr);
    3cb0:	68ba      	ldr	r2, [r7, #8]
    3cb2:	69f9      	ldr	r1, [r7, #28]
    3cb4:	4b0a      	ldr	r3, [pc, #40]	; (3ce0 <LogMessage+0x50>)
    3cb6:	0018      	movs	r0, r3
    3cb8:	4b0a      	ldr	r3, [pc, #40]	; (3ce4 <LogMessage+0x54>)
    3cba:	4798      	blx	r3
    3cbc:	0002      	movs	r2, r0
    3cbe:	230f      	movs	r3, #15
    3cc0:	18fb      	adds	r3, r7, r3
    3cc2:	701a      	strb	r2, [r3, #0]
	va_end(aptr);
	
	SerialConsoleWriteString(bufferMsg);
    3cc4:	4b06      	ldr	r3, [pc, #24]	; (3ce0 <LogMessage+0x50>)
    3cc6:	0018      	movs	r0, r3
    3cc8:	4b07      	ldr	r3, [pc, #28]	; (3ce8 <LogMessage+0x58>)
    3cca:	4798      	blx	r3
	}
};
    3ccc:	46c0      	nop			; (mov r8, r8)
    3cce:	46bd      	mov	sp, r7
    3cd0:	b005      	add	sp, #20
    3cd2:	bc80      	pop	{r7}
    3cd4:	bc08      	pop	{r3}
    3cd6:	b003      	add	sp, #12
    3cd8:	4718      	bx	r3
    3cda:	46c0      	nop			; (mov r8, r8)
    3cdc:	200038b4 	.word	0x200038b4
    3ce0:	2000345c 	.word	0x2000345c
    3ce4:	00005b41 	.word	0x00005b41
    3ce8:	00003ba9 	.word	0x00003ba9

00003cec <configure_usart>:
* @fn			static void configure_usart(void)
* @brief		Code to configure the SERCOM "EDBG_CDC_MODULE" to be a UART channel running at 115200 8N1
* @note			
*****************************************************************************/
static void configure_usart(void)
{
    3cec:	b580      	push	{r7, lr}
    3cee:	b090      	sub	sp, #64	; 0x40
    3cf0:	af00      	add	r7, sp, #0
	struct usart_config config_usart;
	usart_get_config_defaults(&config_usart);
    3cf2:	003b      	movs	r3, r7
    3cf4:	0018      	movs	r0, r3
    3cf6:	4b14      	ldr	r3, [pc, #80]	; (3d48 <configure_usart+0x5c>)
    3cf8:	4798      	blx	r3

	config_usart.baudrate    = 115200;
    3cfa:	003b      	movs	r3, r7
    3cfc:	22e1      	movs	r2, #225	; 0xe1
    3cfe:	0252      	lsls	r2, r2, #9
    3d00:	621a      	str	r2, [r3, #32]
	config_usart.mux_setting = EDBG_CDC_SERCOM_MUX_SETTING;
    3d02:	003b      	movs	r3, r7
    3d04:	22c4      	movs	r2, #196	; 0xc4
    3d06:	0392      	lsls	r2, r2, #14
    3d08:	60da      	str	r2, [r3, #12]
	config_usart.pinmux_pad0 = EDBG_CDC_SERCOM_PINMUX_PAD0;
    3d0a:	003b      	movs	r3, r7
    3d0c:	2201      	movs	r2, #1
    3d0e:	4252      	negs	r2, r2
    3d10:	631a      	str	r2, [r3, #48]	; 0x30
	config_usart.pinmux_pad1 = EDBG_CDC_SERCOM_PINMUX_PAD1;
    3d12:	003b      	movs	r3, r7
    3d14:	2201      	movs	r2, #1
    3d16:	4252      	negs	r2, r2
    3d18:	635a      	str	r2, [r3, #52]	; 0x34
	config_usart.pinmux_pad2 = EDBG_CDC_SERCOM_PINMUX_PAD2;
    3d1a:	003b      	movs	r3, r7
    3d1c:	4a0b      	ldr	r2, [pc, #44]	; (3d4c <configure_usart+0x60>)
    3d1e:	639a      	str	r2, [r3, #56]	; 0x38
	config_usart.pinmux_pad3 = EDBG_CDC_SERCOM_PINMUX_PAD3;
    3d20:	003b      	movs	r3, r7
    3d22:	4a0b      	ldr	r2, [pc, #44]	; (3d50 <configure_usart+0x64>)
    3d24:	63da      	str	r2, [r3, #60]	; 0x3c
	while (usart_init(&usart_instance,
    3d26:	46c0      	nop			; (mov r8, r8)
    3d28:	003a      	movs	r2, r7
    3d2a:	490a      	ldr	r1, [pc, #40]	; (3d54 <configure_usart+0x68>)
    3d2c:	4b0a      	ldr	r3, [pc, #40]	; (3d58 <configure_usart+0x6c>)
    3d2e:	0018      	movs	r0, r3
    3d30:	4b0a      	ldr	r3, [pc, #40]	; (3d5c <configure_usart+0x70>)
    3d32:	4798      	blx	r3
    3d34:	1e03      	subs	r3, r0, #0
    3d36:	d1f7      	bne.n	3d28 <configure_usart+0x3c>
					  &config_usart) != STATUS_OK) 
	{

	}
	
	usart_enable(&usart_instance);
    3d38:	4b07      	ldr	r3, [pc, #28]	; (3d58 <configure_usart+0x6c>)
    3d3a:	0018      	movs	r0, r3
    3d3c:	4b08      	ldr	r3, [pc, #32]	; (3d60 <configure_usart+0x74>)
    3d3e:	4798      	blx	r3
}
    3d40:	46c0      	nop			; (mov r8, r8)
    3d42:	46bd      	mov	sp, r7
    3d44:	b010      	add	sp, #64	; 0x40
    3d46:	bd80      	pop	{r7, pc}
    3d48:	000039ed 	.word	0x000039ed
    3d4c:	002a0003 	.word	0x002a0003
    3d50:	002b0003 	.word	0x002b0003
    3d54:	42001800 	.word	0x42001800
    3d58:	20003428 	.word	0x20003428
    3d5c:	00004231 	.word	0x00004231
    3d60:	00003aad 	.word	0x00003aad

00003d64 <configure_usart_callbacks>:
* @fn			static void configure_usart_callbacks(void)
* @brief		Code to register callbacks
* @note
*****************************************************************************/
static void configure_usart_callbacks(void)
{
    3d64:	b580      	push	{r7, lr}
    3d66:	af00      	add	r7, sp, #0
	usart_register_callback(&usart_instance,
    3d68:	490c      	ldr	r1, [pc, #48]	; (3d9c <configure_usart_callbacks+0x38>)
    3d6a:	4b0d      	ldr	r3, [pc, #52]	; (3da0 <configure_usart_callbacks+0x3c>)
    3d6c:	2200      	movs	r2, #0
    3d6e:	0018      	movs	r0, r3
    3d70:	4b0c      	ldr	r3, [pc, #48]	; (3da4 <configure_usart_callbacks+0x40>)
    3d72:	4798      	blx	r3
							usart_write_callback, 
							USART_CALLBACK_BUFFER_TRANSMITTED);
	usart_register_callback(&usart_instance,
    3d74:	490c      	ldr	r1, [pc, #48]	; (3da8 <configure_usart_callbacks+0x44>)
    3d76:	4b0a      	ldr	r3, [pc, #40]	; (3da0 <configure_usart_callbacks+0x3c>)
    3d78:	2201      	movs	r2, #1
    3d7a:	0018      	movs	r0, r3
    3d7c:	4b09      	ldr	r3, [pc, #36]	; (3da4 <configure_usart_callbacks+0x40>)
    3d7e:	4798      	blx	r3
							usart_read_callback, 
							USART_CALLBACK_BUFFER_RECEIVED);
	usart_enable_callback(&usart_instance, USART_CALLBACK_BUFFER_TRANSMITTED);
    3d80:	4b07      	ldr	r3, [pc, #28]	; (3da0 <configure_usart_callbacks+0x3c>)
    3d82:	2100      	movs	r1, #0
    3d84:	0018      	movs	r0, r3
    3d86:	4b09      	ldr	r3, [pc, #36]	; (3dac <configure_usart_callbacks+0x48>)
    3d88:	4798      	blx	r3
	usart_enable_callback(&usart_instance, USART_CALLBACK_BUFFER_RECEIVED);
    3d8a:	4b05      	ldr	r3, [pc, #20]	; (3da0 <configure_usart_callbacks+0x3c>)
    3d8c:	2101      	movs	r1, #1
    3d8e:	0018      	movs	r0, r3
    3d90:	4b06      	ldr	r3, [pc, #24]	; (3dac <configure_usart_callbacks+0x48>)
    3d92:	4798      	blx	r3
}
    3d94:	46c0      	nop			; (mov r8, r8)
    3d96:	46bd      	mov	sp, r7
    3d98:	bd80      	pop	{r7, pc}
    3d9a:	46c0      	nop			; (mov r8, r8)
    3d9c:	00003e19 	.word	0x00003e19
    3da0:	20003428 	.word	0x20003428
    3da4:	000045e5 	.word	0x000045e5
    3da8:	00003db1 	.word	0x00003db1
    3dac:	00003af5 	.word	0x00003af5

00003db0 <usart_read_callback>:
* @brief		Callback called when the system finishes receives all the bytes requested from a UART read job
		Students to fill out. Please note that the code here is dummy code. It is only used to show you how some functions work.
* @note
*****************************************************************************/
void usart_read_callback(struct usart_module *const usart_module)
{
    3db0:	b580      	push	{r7, lr}
    3db2:	b084      	sub	sp, #16
    3db4:	af00      	add	r7, sp, #0
    3db6:	6078      	str	r0, [r7, #4]
	//Order Echo
	//SerialConsoleWriteString(&latestRx);
	circular_buf_put(cbufRx, (uint8_t) latestRx); //Add the latest read character into the RX circular Buffer
    3db8:	4b10      	ldr	r3, [pc, #64]	; (3dfc <usart_read_callback+0x4c>)
    3dba:	681a      	ldr	r2, [r3, #0]
    3dbc:	4b10      	ldr	r3, [pc, #64]	; (3e00 <usart_read_callback+0x50>)
    3dbe:	781b      	ldrb	r3, [r3, #0]
    3dc0:	0019      	movs	r1, r3
    3dc2:	0010      	movs	r0, r2
    3dc4:	4b0f      	ldr	r3, [pc, #60]	; (3e04 <usart_read_callback+0x54>)
    3dc6:	4798      	blx	r3
	usart_read_buffer_job(&usart_instance, (uint8_t*) &latestRx, 1);	//Order the MCU to keep reading
    3dc8:	490d      	ldr	r1, [pc, #52]	; (3e00 <usart_read_callback+0x50>)
    3dca:	4b0f      	ldr	r3, [pc, #60]	; (3e08 <usart_read_callback+0x58>)
    3dcc:	2201      	movs	r2, #1
    3dce:	0018      	movs	r0, r3
    3dd0:	4b0e      	ldr	r3, [pc, #56]	; (3e0c <usart_read_callback+0x5c>)
    3dd2:	4798      	blx	r3

	char *rx1;
	SerialConsoleReadCharacter(&rx1);
    3dd4:	230c      	movs	r3, #12
    3dd6:	18fb      	adds	r3, r7, r3
    3dd8:	0018      	movs	r0, r3
    3dda:	4b0d      	ldr	r3, [pc, #52]	; (3e10 <usart_read_callback+0x60>)
    3ddc:	4798      	blx	r3

	//Add latest character again, just to try getting it out again
	circular_buf_put(cbufRx, (uint8_t) latestRx); //Add the latest read character into the RX circular Buffer
    3dde:	4b07      	ldr	r3, [pc, #28]	; (3dfc <usart_read_callback+0x4c>)
    3de0:	681a      	ldr	r2, [r3, #0]
    3de2:	4b07      	ldr	r3, [pc, #28]	; (3e00 <usart_read_callback+0x50>)
    3de4:	781b      	ldrb	r3, [r3, #0]
    3de6:	0019      	movs	r1, r3
    3de8:	0010      	movs	r0, r2
    3dea:	4b06      	ldr	r3, [pc, #24]	; (3e04 <usart_read_callback+0x54>)
    3dec:	4798      	blx	r3

	//Try method 2
	//char rx2;
	//SerialConsoleReadCharacter(&rx2);
	UartSemaphoreGive();
    3dee:	4b09      	ldr	r3, [pc, #36]	; (3e14 <usart_read_callback+0x64>)
    3df0:	4798      	blx	r3
}
    3df2:	46c0      	nop			; (mov r8, r8)
    3df4:	46bd      	mov	sp, r7
    3df6:	b004      	add	sp, #16
    3df8:	bd80      	pop	{r7, pc}
    3dfa:	46c0      	nop			; (mov r8, r8)
    3dfc:	200034ac 	.word	0x200034ac
    3e00:	200034b0 	.word	0x200034b0
    3e04:	000037e1 	.word	0x000037e1
    3e08:	20003428 	.word	0x20003428
    3e0c:	00004675 	.word	0x00004675
    3e10:	00003c35 	.word	0x00003c35
    3e14:	00003621 	.word	0x00003621

00003e18 <usart_write_callback>:
* @fn			void usart_write_callback(struct usart_module *const usart_module)
* @brief		Callback called when the system finishes sending all the bytes requested from a UART read job
* @note
*****************************************************************************/
void usart_write_callback(struct usart_module *const usart_module)
{
    3e18:	b580      	push	{r7, lr}
    3e1a:	b082      	sub	sp, #8
    3e1c:	af00      	add	r7, sp, #0
    3e1e:	6078      	str	r0, [r7, #4]
	if(circular_buf_get(cbufTx, (uint8_t*) &latestTx) != -1) //Only continue if there are more characters to send
    3e20:	4b09      	ldr	r3, [pc, #36]	; (3e48 <usart_write_callback+0x30>)
    3e22:	681b      	ldr	r3, [r3, #0]
    3e24:	4a09      	ldr	r2, [pc, #36]	; (3e4c <usart_write_callback+0x34>)
    3e26:	0011      	movs	r1, r2
    3e28:	0018      	movs	r0, r3
    3e2a:	4b09      	ldr	r3, [pc, #36]	; (3e50 <usart_write_callback+0x38>)
    3e2c:	4798      	blx	r3
    3e2e:	0003      	movs	r3, r0
    3e30:	3301      	adds	r3, #1
    3e32:	d005      	beq.n	3e40 <usart_write_callback+0x28>
	{
		usart_write_buffer_job(&usart_instance, (uint8_t*) &latestTx, 1);
    3e34:	4905      	ldr	r1, [pc, #20]	; (3e4c <usart_write_callback+0x34>)
    3e36:	4b07      	ldr	r3, [pc, #28]	; (3e54 <usart_write_callback+0x3c>)
    3e38:	2201      	movs	r2, #1
    3e3a:	0018      	movs	r0, r3
    3e3c:	4b06      	ldr	r3, [pc, #24]	; (3e58 <usart_write_callback+0x40>)
    3e3e:	4798      	blx	r3
	}
}
    3e40:	46c0      	nop			; (mov r8, r8)
    3e42:	46bd      	mov	sp, r7
    3e44:	b002      	add	sp, #8
    3e46:	bd80      	pop	{r7, pc}
    3e48:	200038b8 	.word	0x200038b8
    3e4c:	200038b5 	.word	0x200038b5
    3e50:	00003815 	.word	0x00003815
    3e54:	20003428 	.word	0x20003428
    3e58:	0000462d 	.word	0x0000462d

00003e5c <system_gclk_chan_get_config_defaults>:
{
    3e5c:	b580      	push	{r7, lr}
    3e5e:	b082      	sub	sp, #8
    3e60:	af00      	add	r7, sp, #0
    3e62:	6078      	str	r0, [r7, #4]
	config->source_generator = GCLK_GENERATOR_0;
    3e64:	687b      	ldr	r3, [r7, #4]
    3e66:	2200      	movs	r2, #0
    3e68:	701a      	strb	r2, [r3, #0]
}
    3e6a:	46c0      	nop			; (mov r8, r8)
    3e6c:	46bd      	mov	sp, r7
    3e6e:	b002      	add	sp, #8
    3e70:	bd80      	pop	{r7, pc}
	...

00003e74 <system_apb_clock_set_mask>:
 * \retval STATUS_OK               The clock mask was set successfully
 */
static inline enum status_code system_apb_clock_set_mask(
		const enum system_clock_apb_bus bus,
		const uint32_t mask)
{
    3e74:	b580      	push	{r7, lr}
    3e76:	b082      	sub	sp, #8
    3e78:	af00      	add	r7, sp, #0
    3e7a:	0002      	movs	r2, r0
    3e7c:	6039      	str	r1, [r7, #0]
    3e7e:	1dfb      	adds	r3, r7, #7
    3e80:	701a      	strb	r2, [r3, #0]
	switch (bus) {
    3e82:	1dfb      	adds	r3, r7, #7
    3e84:	781b      	ldrb	r3, [r3, #0]
    3e86:	2b01      	cmp	r3, #1
    3e88:	d00a      	beq.n	3ea0 <system_apb_clock_set_mask+0x2c>
    3e8a:	2b02      	cmp	r3, #2
    3e8c:	d00f      	beq.n	3eae <system_apb_clock_set_mask+0x3a>
    3e8e:	2b00      	cmp	r3, #0
    3e90:	d114      	bne.n	3ebc <system_apb_clock_set_mask+0x48>
		case SYSTEM_CLOCK_APB_APBA:
			PM->APBAMASK.reg |= mask;
    3e92:	4b0e      	ldr	r3, [pc, #56]	; (3ecc <system_apb_clock_set_mask+0x58>)
    3e94:	4a0d      	ldr	r2, [pc, #52]	; (3ecc <system_apb_clock_set_mask+0x58>)
    3e96:	6991      	ldr	r1, [r2, #24]
    3e98:	683a      	ldr	r2, [r7, #0]
    3e9a:	430a      	orrs	r2, r1
    3e9c:	619a      	str	r2, [r3, #24]
			break;
    3e9e:	e00f      	b.n	3ec0 <system_apb_clock_set_mask+0x4c>

		case SYSTEM_CLOCK_APB_APBB:
			PM->APBBMASK.reg |= mask;
    3ea0:	4b0a      	ldr	r3, [pc, #40]	; (3ecc <system_apb_clock_set_mask+0x58>)
    3ea2:	4a0a      	ldr	r2, [pc, #40]	; (3ecc <system_apb_clock_set_mask+0x58>)
    3ea4:	69d1      	ldr	r1, [r2, #28]
    3ea6:	683a      	ldr	r2, [r7, #0]
    3ea8:	430a      	orrs	r2, r1
    3eaa:	61da      	str	r2, [r3, #28]
			break;
    3eac:	e008      	b.n	3ec0 <system_apb_clock_set_mask+0x4c>

		case SYSTEM_CLOCK_APB_APBC:
			PM->APBCMASK.reg |= mask;
    3eae:	4b07      	ldr	r3, [pc, #28]	; (3ecc <system_apb_clock_set_mask+0x58>)
    3eb0:	4a06      	ldr	r2, [pc, #24]	; (3ecc <system_apb_clock_set_mask+0x58>)
    3eb2:	6a11      	ldr	r1, [r2, #32]
    3eb4:	683a      	ldr	r2, [r7, #0]
    3eb6:	430a      	orrs	r2, r1
    3eb8:	621a      	str	r2, [r3, #32]
			break;
    3eba:	e001      	b.n	3ec0 <system_apb_clock_set_mask+0x4c>

		default:
			Assert(false);
			return STATUS_ERR_INVALID_ARG;
    3ebc:	2317      	movs	r3, #23
    3ebe:	e000      	b.n	3ec2 <system_apb_clock_set_mask+0x4e>

	}

	return STATUS_OK;
    3ec0:	2300      	movs	r3, #0
}
    3ec2:	0018      	movs	r0, r3
    3ec4:	46bd      	mov	sp, r7
    3ec6:	b002      	add	sp, #8
    3ec8:	bd80      	pop	{r7, pc}
    3eca:	46c0      	nop			; (mov r8, r8)
    3ecc:	40000400 	.word	0x40000400

00003ed0 <system_pinmux_get_config_defaults>:
{
    3ed0:	b580      	push	{r7, lr}
    3ed2:	b082      	sub	sp, #8
    3ed4:	af00      	add	r7, sp, #0
    3ed6:	6078      	str	r0, [r7, #4]
	config->mux_position = SYSTEM_PINMUX_GPIO;
    3ed8:	687b      	ldr	r3, [r7, #4]
    3eda:	2280      	movs	r2, #128	; 0x80
    3edc:	701a      	strb	r2, [r3, #0]
	config->direction    = SYSTEM_PINMUX_PIN_DIR_INPUT;
    3ede:	687b      	ldr	r3, [r7, #4]
    3ee0:	2200      	movs	r2, #0
    3ee2:	705a      	strb	r2, [r3, #1]
	config->input_pull   = SYSTEM_PINMUX_PIN_PULL_UP;
    3ee4:	687b      	ldr	r3, [r7, #4]
    3ee6:	2201      	movs	r2, #1
    3ee8:	709a      	strb	r2, [r3, #2]
	config->powersave    = false;
    3eea:	687b      	ldr	r3, [r7, #4]
    3eec:	2200      	movs	r2, #0
    3eee:	70da      	strb	r2, [r3, #3]
}
    3ef0:	46c0      	nop			; (mov r8, r8)
    3ef2:	46bd      	mov	sp, r7
    3ef4:	b002      	add	sp, #8
    3ef6:	bd80      	pop	{r7, pc}

00003ef8 <system_is_debugger_present>:
 * \retval true  Debugger is connected to the system
 * \retval false Debugger is not connected to the system
 *
 */
static inline bool system_is_debugger_present(void)
{
    3ef8:	b580      	push	{r7, lr}
    3efa:	af00      	add	r7, sp, #0
	return DSU->STATUSB.reg & DSU_STATUSB_DBGPRES;
    3efc:	4b05      	ldr	r3, [pc, #20]	; (3f14 <system_is_debugger_present+0x1c>)
    3efe:	789b      	ldrb	r3, [r3, #2]
    3f00:	b2db      	uxtb	r3, r3
    3f02:	001a      	movs	r2, r3
    3f04:	2302      	movs	r3, #2
    3f06:	4013      	ands	r3, r2
    3f08:	1e5a      	subs	r2, r3, #1
    3f0a:	4193      	sbcs	r3, r2
    3f0c:	b2db      	uxtb	r3, r3
}
    3f0e:	0018      	movs	r0, r3
    3f10:	46bd      	mov	sp, r7
    3f12:	bd80      	pop	{r7, pc}
    3f14:	41002000 	.word	0x41002000

00003f18 <usart_is_syncing>:
{
    3f18:	b580      	push	{r7, lr}
    3f1a:	b084      	sub	sp, #16
    3f1c:	af00      	add	r7, sp, #0
    3f1e:	6078      	str	r0, [r7, #4]
	SercomUsart *const usart_hw = &(module->hw->USART);
    3f20:	687b      	ldr	r3, [r7, #4]
    3f22:	681b      	ldr	r3, [r3, #0]
    3f24:	60fb      	str	r3, [r7, #12]
	return (usart_hw->SYNCBUSY.reg);
    3f26:	68fb      	ldr	r3, [r7, #12]
    3f28:	69db      	ldr	r3, [r3, #28]
    3f2a:	1e5a      	subs	r2, r3, #1
    3f2c:	4193      	sbcs	r3, r2
    3f2e:	b2db      	uxtb	r3, r3
}
    3f30:	0018      	movs	r0, r3
    3f32:	46bd      	mov	sp, r7
    3f34:	b004      	add	sp, #16
    3f36:	bd80      	pop	{r7, pc}

00003f38 <_usart_wait_for_sync>:
{
    3f38:	b580      	push	{r7, lr}
    3f3a:	b082      	sub	sp, #8
    3f3c:	af00      	add	r7, sp, #0
    3f3e:	6078      	str	r0, [r7, #4]
	while (usart_is_syncing(module)) {
    3f40:	46c0      	nop			; (mov r8, r8)
    3f42:	687b      	ldr	r3, [r7, #4]
    3f44:	0018      	movs	r0, r3
    3f46:	4b04      	ldr	r3, [pc, #16]	; (3f58 <_usart_wait_for_sync+0x20>)
    3f48:	4798      	blx	r3
    3f4a:	1e03      	subs	r3, r0, #0
    3f4c:	d1f9      	bne.n	3f42 <_usart_wait_for_sync+0xa>
}
    3f4e:	46c0      	nop			; (mov r8, r8)
    3f50:	46bd      	mov	sp, r7
    3f52:	b002      	add	sp, #8
    3f54:	bd80      	pop	{r7, pc}
    3f56:	46c0      	nop			; (mov r8, r8)
    3f58:	00003f19 	.word	0x00003f19

00003f5c <_usart_set_config>:
 * Set Configuration of the USART module
 */
static enum status_code _usart_set_config(
		struct usart_module *const module,
		const struct usart_config *const config)
{
    3f5c:	b5b0      	push	{r4, r5, r7, lr}
    3f5e:	b08c      	sub	sp, #48	; 0x30
    3f60:	af02      	add	r7, sp, #8
    3f62:	6078      	str	r0, [r7, #4]
    3f64:	6039      	str	r1, [r7, #0]
	/* Sanity check arguments */
	Assert(module);
	Assert(module->hw);

	/* Get a pointer to the hardware module instance */
	SercomUsart *const usart_hw = &(module->hw->USART);
    3f66:	687b      	ldr	r3, [r7, #4]
    3f68:	681b      	ldr	r3, [r3, #0]
    3f6a:	61bb      	str	r3, [r7, #24]

	/* Index for generic clock */
	uint32_t sercom_index = _sercom_get_sercom_inst_index(module->hw);
    3f6c:	687b      	ldr	r3, [r7, #4]
    3f6e:	681b      	ldr	r3, [r3, #0]
    3f70:	0018      	movs	r0, r3
    3f72:	4ba9      	ldr	r3, [pc, #676]	; (4218 <_usart_set_config+0x2bc>)
    3f74:	4798      	blx	r3
    3f76:	0003      	movs	r3, r0
    3f78:	617b      	str	r3, [r7, #20]
		gclk_index   = SERCOM5_GCLK_ID_CORE;
	} else {
		gclk_index   = sercom_index + SERCOM0_GCLK_ID_CORE;
	}
#else
	gclk_index   = sercom_index + SERCOM0_GCLK_ID_CORE;
    3f7a:	697b      	ldr	r3, [r7, #20]
    3f7c:	3314      	adds	r3, #20
    3f7e:	613b      	str	r3, [r7, #16]
#endif

	/* Cache new register values to minimize the number of register writes */
	uint32_t ctrla = 0;
    3f80:	2300      	movs	r3, #0
    3f82:	627b      	str	r3, [r7, #36]	; 0x24
	uint32_t ctrlb = 0;
    3f84:	2300      	movs	r3, #0
    3f86:	623b      	str	r3, [r7, #32]
#ifdef FEATURE_USART_ISO7816
	uint32_t ctrlc = 0;
#endif
	uint16_t baud  = 0;
    3f88:	230a      	movs	r3, #10
    3f8a:	18fb      	adds	r3, r7, r3
    3f8c:	2200      	movs	r2, #0
    3f8e:	801a      	strh	r2, [r3, #0]
	uint32_t transfer_mode;

	enum sercom_asynchronous_operation_mode mode = SERCOM_ASYNC_OPERATION_MODE_ARITHMETIC;
    3f90:	231f      	movs	r3, #31
    3f92:	18fb      	adds	r3, r7, r3
    3f94:	2200      	movs	r2, #0
    3f96:	701a      	strb	r2, [r3, #0]
	enum sercom_asynchronous_sample_num sample_num = SERCOM_ASYNC_SAMPLE_NUM_16;
    3f98:	231e      	movs	r3, #30
    3f9a:	18fb      	adds	r3, r7, r3
    3f9c:	2210      	movs	r2, #16
    3f9e:	701a      	strb	r2, [r3, #0]

#ifdef FEATURE_USART_OVER_SAMPLE
	switch (config->sample_rate) {
    3fa0:	683b      	ldr	r3, [r7, #0]
    3fa2:	8a1b      	ldrh	r3, [r3, #16]
    3fa4:	2280      	movs	r2, #128	; 0x80
    3fa6:	01d2      	lsls	r2, r2, #7
    3fa8:	4293      	cmp	r3, r2
    3faa:	d01c      	beq.n	3fe6 <_usart_set_config+0x8a>
    3fac:	2280      	movs	r2, #128	; 0x80
    3fae:	01d2      	lsls	r2, r2, #7
    3fb0:	4293      	cmp	r3, r2
    3fb2:	dc06      	bgt.n	3fc2 <_usart_set_config+0x66>
    3fb4:	2b00      	cmp	r3, #0
    3fb6:	d00d      	beq.n	3fd4 <_usart_set_config+0x78>
    3fb8:	2280      	movs	r2, #128	; 0x80
    3fba:	0192      	lsls	r2, r2, #6
    3fbc:	4293      	cmp	r3, r2
    3fbe:	d024      	beq.n	400a <_usart_set_config+0xae>
    3fc0:	e035      	b.n	402e <_usart_set_config+0xd2>
    3fc2:	22c0      	movs	r2, #192	; 0xc0
    3fc4:	01d2      	lsls	r2, r2, #7
    3fc6:	4293      	cmp	r3, r2
    3fc8:	d028      	beq.n	401c <_usart_set_config+0xc0>
    3fca:	2280      	movs	r2, #128	; 0x80
    3fcc:	0212      	lsls	r2, r2, #8
    3fce:	4293      	cmp	r3, r2
    3fd0:	d012      	beq.n	3ff8 <_usart_set_config+0x9c>
    3fd2:	e02c      	b.n	402e <_usart_set_config+0xd2>
		case USART_SAMPLE_RATE_16X_ARITHMETIC:
			mode = SERCOM_ASYNC_OPERATION_MODE_ARITHMETIC;
    3fd4:	231f      	movs	r3, #31
    3fd6:	18fb      	adds	r3, r7, r3
    3fd8:	2200      	movs	r2, #0
    3fda:	701a      	strb	r2, [r3, #0]
			sample_num = SERCOM_ASYNC_SAMPLE_NUM_16;
    3fdc:	231e      	movs	r3, #30
    3fde:	18fb      	adds	r3, r7, r3
    3fe0:	2210      	movs	r2, #16
    3fe2:	701a      	strb	r2, [r3, #0]
			break;
    3fe4:	e023      	b.n	402e <_usart_set_config+0xd2>
		case USART_SAMPLE_RATE_8X_ARITHMETIC:
			mode = SERCOM_ASYNC_OPERATION_MODE_ARITHMETIC;
    3fe6:	231f      	movs	r3, #31
    3fe8:	18fb      	adds	r3, r7, r3
    3fea:	2200      	movs	r2, #0
    3fec:	701a      	strb	r2, [r3, #0]
			sample_num = SERCOM_ASYNC_SAMPLE_NUM_8;
    3fee:	231e      	movs	r3, #30
    3ff0:	18fb      	adds	r3, r7, r3
    3ff2:	2208      	movs	r2, #8
    3ff4:	701a      	strb	r2, [r3, #0]
			break;
    3ff6:	e01a      	b.n	402e <_usart_set_config+0xd2>
		case USART_SAMPLE_RATE_3X_ARITHMETIC:
			mode = SERCOM_ASYNC_OPERATION_MODE_ARITHMETIC;
    3ff8:	231f      	movs	r3, #31
    3ffa:	18fb      	adds	r3, r7, r3
    3ffc:	2200      	movs	r2, #0
    3ffe:	701a      	strb	r2, [r3, #0]
			sample_num = SERCOM_ASYNC_SAMPLE_NUM_3;
    4000:	231e      	movs	r3, #30
    4002:	18fb      	adds	r3, r7, r3
    4004:	2203      	movs	r2, #3
    4006:	701a      	strb	r2, [r3, #0]
			break;
    4008:	e011      	b.n	402e <_usart_set_config+0xd2>
		case USART_SAMPLE_RATE_16X_FRACTIONAL:
			mode = SERCOM_ASYNC_OPERATION_MODE_FRACTIONAL;
    400a:	231f      	movs	r3, #31
    400c:	18fb      	adds	r3, r7, r3
    400e:	2201      	movs	r2, #1
    4010:	701a      	strb	r2, [r3, #0]
			sample_num = SERCOM_ASYNC_SAMPLE_NUM_16;
    4012:	231e      	movs	r3, #30
    4014:	18fb      	adds	r3, r7, r3
    4016:	2210      	movs	r2, #16
    4018:	701a      	strb	r2, [r3, #0]
			break;
    401a:	e008      	b.n	402e <_usart_set_config+0xd2>
		case USART_SAMPLE_RATE_8X_FRACTIONAL:
			mode = SERCOM_ASYNC_OPERATION_MODE_FRACTIONAL;
    401c:	231f      	movs	r3, #31
    401e:	18fb      	adds	r3, r7, r3
    4020:	2201      	movs	r2, #1
    4022:	701a      	strb	r2, [r3, #0]
			sample_num = SERCOM_ASYNC_SAMPLE_NUM_8;
    4024:	231e      	movs	r3, #30
    4026:	18fb      	adds	r3, r7, r3
    4028:	2208      	movs	r2, #8
    402a:	701a      	strb	r2, [r3, #0]
			break;
    402c:	46c0      	nop			; (mov r8, r8)
	}
#endif

	/* Set data order, internal muxing, and clock polarity */
	ctrla = (uint32_t)config->data_order |
    402e:	683b      	ldr	r3, [r7, #0]
    4030:	681a      	ldr	r2, [r3, #0]
		(uint32_t)config->mux_setting |
    4032:	683b      	ldr	r3, [r7, #0]
    4034:	68db      	ldr	r3, [r3, #12]
	ctrla = (uint32_t)config->data_order |
    4036:	431a      	orrs	r2, r3
	#ifdef FEATURE_USART_OVER_SAMPLE
		config->sample_adjustment |
    4038:	683b      	ldr	r3, [r7, #0]
    403a:	695b      	ldr	r3, [r3, #20]
		(uint32_t)config->mux_setting |
    403c:	4313      	orrs	r3, r2
		config->sample_rate |
    403e:	683a      	ldr	r2, [r7, #0]
    4040:	8a12      	ldrh	r2, [r2, #16]
		config->sample_adjustment |
    4042:	4313      	orrs	r3, r2
	#endif
	#ifdef FEATURE_USART_IMMEDIATE_BUFFER_OVERFLOW_NOTIFICATION
		(config->immediate_buffer_overflow_notification << SERCOM_USART_CTRLA_IBON_Pos) |
    4044:	683a      	ldr	r2, [r7, #0]
    4046:	7e12      	ldrb	r2, [r2, #24]
    4048:	0212      	lsls	r2, r2, #8
		config->sample_rate |
    404a:	4313      	orrs	r3, r2
	#endif
		(config->clock_polarity_inverted << SERCOM_USART_CTRLA_CPOL_Pos);
    404c:	683a      	ldr	r2, [r7, #0]
    404e:	2126      	movs	r1, #38	; 0x26
    4050:	5c52      	ldrb	r2, [r2, r1]
    4052:	0752      	lsls	r2, r2, #29
	ctrla = (uint32_t)config->data_order |
    4054:	4313      	orrs	r3, r2
    4056:	627b      	str	r3, [r7, #36]	; 0x24

	enum status_code status_code = STATUS_OK;
    4058:	231d      	movs	r3, #29
    405a:	18fb      	adds	r3, r7, r3
    405c:	2200      	movs	r2, #0
    405e:	701a      	strb	r2, [r3, #0]

	transfer_mode = (uint32_t)config->transfer_mode;
    4060:	683b      	ldr	r3, [r7, #0]
    4062:	685b      	ldr	r3, [r3, #4]
    4064:	60fb      	str	r3, [r7, #12]
#ifdef FEATURE_USART_ISO7816
	if(config->iso7816_config.enabled) {
		baud = config->baudrate;
	} else {
#endif
	switch (transfer_mode)
    4066:	68fb      	ldr	r3, [r7, #12]
    4068:	2b00      	cmp	r3, #0
    406a:	d01e      	beq.n	40aa <_usart_set_config+0x14e>
    406c:	2280      	movs	r2, #128	; 0x80
    406e:	0552      	lsls	r2, r2, #21
    4070:	4293      	cmp	r3, r2
    4072:	d14f      	bne.n	4114 <_usart_set_config+0x1b8>
	{
		case USART_TRANSFER_SYNCHRONOUSLY:
			if (!config->use_external_clock) {
    4074:	683b      	ldr	r3, [r7, #0]
    4076:	2227      	movs	r2, #39	; 0x27
    4078:	5c9b      	ldrb	r3, [r3, r2]
    407a:	2201      	movs	r2, #1
    407c:	4053      	eors	r3, r2
    407e:	b2db      	uxtb	r3, r3
    4080:	2b00      	cmp	r3, #0
    4082:	d046      	beq.n	4112 <_usart_set_config+0x1b6>
				status_code = _sercom_get_sync_baud_val(config->baudrate,
    4084:	683b      	ldr	r3, [r7, #0]
    4086:	6a1d      	ldr	r5, [r3, #32]
    4088:	693b      	ldr	r3, [r7, #16]
    408a:	b2db      	uxtb	r3, r3
    408c:	0018      	movs	r0, r3
    408e:	4b63      	ldr	r3, [pc, #396]	; (421c <_usart_set_config+0x2c0>)
    4090:	4798      	blx	r3
    4092:	0001      	movs	r1, r0
    4094:	231d      	movs	r3, #29
    4096:	18fc      	adds	r4, r7, r3
    4098:	230a      	movs	r3, #10
    409a:	18fb      	adds	r3, r7, r3
    409c:	001a      	movs	r2, r3
    409e:	0028      	movs	r0, r5
    40a0:	4b5f      	ldr	r3, [pc, #380]	; (4220 <_usart_set_config+0x2c4>)
    40a2:	4798      	blx	r3
    40a4:	0003      	movs	r3, r0
    40a6:	7023      	strb	r3, [r4, #0]
						system_gclk_chan_get_hz(gclk_index), &baud);
			}

			break;
    40a8:	e033      	b.n	4112 <_usart_set_config+0x1b6>

		case USART_TRANSFER_ASYNCHRONOUSLY:
			if (config->use_external_clock) {
    40aa:	683b      	ldr	r3, [r7, #0]
    40ac:	2227      	movs	r2, #39	; 0x27
    40ae:	5c9b      	ldrb	r3, [r3, r2]
    40b0:	2b00      	cmp	r3, #0
    40b2:	d014      	beq.n	40de <_usart_set_config+0x182>
				status_code =
						_sercom_get_async_baud_val(config->baudrate,
    40b4:	683b      	ldr	r3, [r7, #0]
    40b6:	6a18      	ldr	r0, [r3, #32]
    40b8:	683b      	ldr	r3, [r7, #0]
    40ba:	6a99      	ldr	r1, [r3, #40]	; 0x28
				status_code =
    40bc:	231d      	movs	r3, #29
    40be:	18fc      	adds	r4, r7, r3
    40c0:	231f      	movs	r3, #31
    40c2:	18fb      	adds	r3, r7, r3
    40c4:	781d      	ldrb	r5, [r3, #0]
    40c6:	230a      	movs	r3, #10
    40c8:	18fa      	adds	r2, r7, r3
    40ca:	231e      	movs	r3, #30
    40cc:	18fb      	adds	r3, r7, r3
    40ce:	781b      	ldrb	r3, [r3, #0]
    40d0:	9300      	str	r3, [sp, #0]
    40d2:	002b      	movs	r3, r5
    40d4:	4d53      	ldr	r5, [pc, #332]	; (4224 <_usart_set_config+0x2c8>)
    40d6:	47a8      	blx	r5
    40d8:	0003      	movs	r3, r0
    40da:	7023      	strb	r3, [r4, #0]
				status_code =
						_sercom_get_async_baud_val(config->baudrate,
							system_gclk_chan_get_hz(gclk_index), &baud, mode, sample_num);
			}

			break;
    40dc:	e01a      	b.n	4114 <_usart_set_config+0x1b8>
						_sercom_get_async_baud_val(config->baudrate,
    40de:	683b      	ldr	r3, [r7, #0]
    40e0:	6a1d      	ldr	r5, [r3, #32]
    40e2:	693b      	ldr	r3, [r7, #16]
    40e4:	b2db      	uxtb	r3, r3
    40e6:	0018      	movs	r0, r3
    40e8:	4b4c      	ldr	r3, [pc, #304]	; (421c <_usart_set_config+0x2c0>)
    40ea:	4798      	blx	r3
				status_code =
    40ec:	231d      	movs	r3, #29
    40ee:	18fc      	adds	r4, r7, r3
    40f0:	231f      	movs	r3, #31
    40f2:	18fb      	adds	r3, r7, r3
    40f4:	7819      	ldrb	r1, [r3, #0]
    40f6:	230a      	movs	r3, #10
    40f8:	18fa      	adds	r2, r7, r3
    40fa:	231e      	movs	r3, #30
    40fc:	18fb      	adds	r3, r7, r3
    40fe:	781b      	ldrb	r3, [r3, #0]
    4100:	9300      	str	r3, [sp, #0]
    4102:	000b      	movs	r3, r1
    4104:	0001      	movs	r1, r0
    4106:	0028      	movs	r0, r5
    4108:	4d46      	ldr	r5, [pc, #280]	; (4224 <_usart_set_config+0x2c8>)
    410a:	47a8      	blx	r5
    410c:	0003      	movs	r3, r0
    410e:	7023      	strb	r3, [r4, #0]
			break;
    4110:	e000      	b.n	4114 <_usart_set_config+0x1b8>
			break;
    4112:	46c0      	nop			; (mov r8, r8)
	}

	/* Check if calculating the baudrate failed */
	if (status_code != STATUS_OK) {
    4114:	231d      	movs	r3, #29
    4116:	18fb      	adds	r3, r7, r3
    4118:	781b      	ldrb	r3, [r3, #0]
    411a:	2b00      	cmp	r3, #0
    411c:	d003      	beq.n	4126 <_usart_set_config+0x1ca>
		/* Abort */
		return status_code;
    411e:	231d      	movs	r3, #29
    4120:	18fb      	adds	r3, r7, r3
    4122:	781b      	ldrb	r3, [r3, #0]
    4124:	e073      	b.n	420e <_usart_set_config+0x2b2>
#ifdef FEATURE_USART_ISO7816
	}
#endif

#ifdef FEATURE_USART_IRDA
	if(config->encoding_format_enable) {
    4126:	683b      	ldr	r3, [r7, #0]
    4128:	7e5b      	ldrb	r3, [r3, #25]
    412a:	2b00      	cmp	r3, #0
    412c:	d003      	beq.n	4136 <_usart_set_config+0x1da>
		usart_hw->RXPL.reg = config->receive_pulse_length;
    412e:	683b      	ldr	r3, [r7, #0]
    4130:	7e9a      	ldrb	r2, [r3, #26]
    4132:	69bb      	ldr	r3, [r7, #24]
    4134:	739a      	strb	r2, [r3, #14]
	}
#endif

	/*Set baud val */
	usart_hw->BAUD.reg = baud;
    4136:	230a      	movs	r3, #10
    4138:	18fb      	adds	r3, r7, r3
    413a:	881a      	ldrh	r2, [r3, #0]
    413c:	69bb      	ldr	r3, [r7, #24]
    413e:	819a      	strh	r2, [r3, #12]

	/* Set sample mode */
	ctrla |= transfer_mode;
    4140:	6a7a      	ldr	r2, [r7, #36]	; 0x24
    4142:	68fb      	ldr	r3, [r7, #12]
    4144:	4313      	orrs	r3, r2
    4146:	627b      	str	r3, [r7, #36]	; 0x24

	if (config->use_external_clock == false) {
    4148:	683b      	ldr	r3, [r7, #0]
    414a:	2227      	movs	r2, #39	; 0x27
    414c:	5c9b      	ldrb	r3, [r3, r2]
    414e:	2201      	movs	r2, #1
    4150:	4053      	eors	r3, r2
    4152:	b2db      	uxtb	r3, r3
    4154:	2b00      	cmp	r3, #0
    4156:	d003      	beq.n	4160 <_usart_set_config+0x204>
		ctrla |= SERCOM_USART_CTRLA_MODE(0x1);
    4158:	6a7b      	ldr	r3, [r7, #36]	; 0x24
    415a:	2204      	movs	r2, #4
    415c:	4313      	orrs	r3, r2
    415e:	627b      	str	r3, [r7, #36]	; 0x24
	}

	/* Set stopbits and enable transceivers */
	ctrlb =  
		#ifdef FEATURE_USART_IRDA
			(config->encoding_format_enable << SERCOM_USART_CTRLB_ENC_Pos) |
    4160:	683b      	ldr	r3, [r7, #0]
    4162:	7e5b      	ldrb	r3, [r3, #25]
    4164:	029a      	lsls	r2, r3, #10
		#endif
		#ifdef FEATURE_USART_START_FRAME_DECTION
			(config->start_frame_detection_enable << SERCOM_USART_CTRLB_SFDE_Pos) |
    4166:	683b      	ldr	r3, [r7, #0]
    4168:	7f1b      	ldrb	r3, [r3, #28]
    416a:	025b      	lsls	r3, r3, #9
			(config->encoding_format_enable << SERCOM_USART_CTRLB_ENC_Pos) |
    416c:	431a      	orrs	r2, r3
		#endif
		#ifdef FEATURE_USART_COLLISION_DECTION
			(config->collision_detection_enable << SERCOM_USART_CTRLB_COLDEN_Pos) |
    416e:	683b      	ldr	r3, [r7, #0]
    4170:	7f5b      	ldrb	r3, [r3, #29]
    4172:	021b      	lsls	r3, r3, #8
			(config->start_frame_detection_enable << SERCOM_USART_CTRLB_SFDE_Pos) |
    4174:	431a      	orrs	r2, r3
		#endif
			(config->receiver_enable << SERCOM_USART_CTRLB_RXEN_Pos) |
    4176:	683b      	ldr	r3, [r7, #0]
    4178:	2124      	movs	r1, #36	; 0x24
    417a:	5c5b      	ldrb	r3, [r3, r1]
    417c:	045b      	lsls	r3, r3, #17
			(config->collision_detection_enable << SERCOM_USART_CTRLB_COLDEN_Pos) |
    417e:	431a      	orrs	r2, r3
			(config->transmitter_enable << SERCOM_USART_CTRLB_TXEN_Pos);
    4180:	683b      	ldr	r3, [r7, #0]
    4182:	2125      	movs	r1, #37	; 0x25
    4184:	5c5b      	ldrb	r3, [r3, r1]
    4186:	041b      	lsls	r3, r3, #16
			(config->receiver_enable << SERCOM_USART_CTRLB_RXEN_Pos) |
    4188:	4313      	orrs	r3, r2
	ctrlb =  
    418a:	623b      	str	r3, [r7, #32]
				ctrlb |= USART_STOPBITS_1;
				break;		
		}
	} else {
#endif
	ctrlb |= (uint32_t)config->stopbits;
    418c:	683b      	ldr	r3, [r7, #0]
    418e:	7a9b      	ldrb	r3, [r3, #10]
    4190:	001a      	movs	r2, r3
    4192:	6a3b      	ldr	r3, [r7, #32]
    4194:	4313      	orrs	r3, r2
    4196:	623b      	str	r3, [r7, #32]
	ctrlb |= (uint32_t)config->character_size;
    4198:	683b      	ldr	r3, [r7, #0]
    419a:	7adb      	ldrb	r3, [r3, #11]
    419c:	001a      	movs	r2, r3
    419e:	6a3b      	ldr	r3, [r7, #32]
    41a0:	4313      	orrs	r3, r2
    41a2:	623b      	str	r3, [r7, #32]
	/* Check parity mode bits */
	if (config->parity != USART_PARITY_NONE) {
    41a4:	683b      	ldr	r3, [r7, #0]
    41a6:	891b      	ldrh	r3, [r3, #8]
    41a8:	2bff      	cmp	r3, #255	; 0xff
    41aa:	d00b      	beq.n	41c4 <_usart_set_config+0x268>
		ctrla |= SERCOM_USART_CTRLA_FORM(1);
    41ac:	6a7b      	ldr	r3, [r7, #36]	; 0x24
    41ae:	2280      	movs	r2, #128	; 0x80
    41b0:	0452      	lsls	r2, r2, #17
    41b2:	4313      	orrs	r3, r2
    41b4:	627b      	str	r3, [r7, #36]	; 0x24
		ctrlb |= config->parity;
    41b6:	683b      	ldr	r3, [r7, #0]
    41b8:	891b      	ldrh	r3, [r3, #8]
    41ba:	001a      	movs	r2, r3
    41bc:	6a3b      	ldr	r3, [r7, #32]
    41be:	4313      	orrs	r3, r2
    41c0:	623b      	str	r3, [r7, #32]
    41c2:	e008      	b.n	41d6 <_usart_set_config+0x27a>
	} else {
#ifdef FEATURE_USART_LIN_SLAVE
		if(config->lin_slave_enable) {
    41c4:	683b      	ldr	r3, [r7, #0]
    41c6:	7edb      	ldrb	r3, [r3, #27]
    41c8:	2b00      	cmp	r3, #0
    41ca:	d004      	beq.n	41d6 <_usart_set_config+0x27a>
			ctrla |= SERCOM_USART_CTRLA_FORM(0x4);
    41cc:	6a7b      	ldr	r3, [r7, #36]	; 0x24
    41ce:	2280      	movs	r2, #128	; 0x80
    41d0:	04d2      	lsls	r2, r2, #19
    41d2:	4313      	orrs	r3, r2
    41d4:	627b      	str	r3, [r7, #36]	; 0x24
		ctrla |= config->lin_node;
	}
#endif

	/* Set whether module should run in standby. */
	if (config->run_in_standby || system_is_debugger_present()) {
    41d6:	683b      	ldr	r3, [r7, #0]
    41d8:	222c      	movs	r2, #44	; 0x2c
    41da:	5c9b      	ldrb	r3, [r3, r2]
    41dc:	2b00      	cmp	r3, #0
    41de:	d103      	bne.n	41e8 <_usart_set_config+0x28c>
    41e0:	4b11      	ldr	r3, [pc, #68]	; (4228 <_usart_set_config+0x2cc>)
    41e2:	4798      	blx	r3
    41e4:	1e03      	subs	r3, r0, #0
    41e6:	d003      	beq.n	41f0 <_usart_set_config+0x294>
		ctrla |= SERCOM_USART_CTRLA_RUNSTDBY;
    41e8:	6a7b      	ldr	r3, [r7, #36]	; 0x24
    41ea:	2280      	movs	r2, #128	; 0x80
    41ec:	4313      	orrs	r3, r2
    41ee:	627b      	str	r3, [r7, #36]	; 0x24
	}

	/* Wait until synchronization is complete */
	_usart_wait_for_sync(module);
    41f0:	687b      	ldr	r3, [r7, #4]
    41f2:	0018      	movs	r0, r3
    41f4:	4b0d      	ldr	r3, [pc, #52]	; (422c <_usart_set_config+0x2d0>)
    41f6:	4798      	blx	r3

	/* Write configuration to CTRLB */
	usart_hw->CTRLB.reg = ctrlb;
    41f8:	69bb      	ldr	r3, [r7, #24]
    41fa:	6a3a      	ldr	r2, [r7, #32]
    41fc:	605a      	str	r2, [r3, #4]

	/* Wait until synchronization is complete */
	_usart_wait_for_sync(module);
    41fe:	687b      	ldr	r3, [r7, #4]
    4200:	0018      	movs	r0, r3
    4202:	4b0a      	ldr	r3, [pc, #40]	; (422c <_usart_set_config+0x2d0>)
    4204:	4798      	blx	r3

	/* Write configuration to CTRLA */
	usart_hw->CTRLA.reg = ctrla;
    4206:	69bb      	ldr	r3, [r7, #24]
    4208:	6a7a      	ldr	r2, [r7, #36]	; 0x24
    420a:	601a      	str	r2, [r3, #0]
		_usart_wait_for_sync(module);
		usart_hw->CTRLC.reg = ctrlc;
	}
#endif

	return STATUS_OK;
    420c:	2300      	movs	r3, #0
}
    420e:	0018      	movs	r0, r3
    4210:	46bd      	mov	sp, r7
    4212:	b00a      	add	sp, #40	; 0x28
    4214:	bdb0      	pop	{r4, r5, r7, pc}
    4216:	46c0      	nop			; (mov r8, r8)
    4218:	000008f9 	.word	0x000008f9
    421c:	00005439 	.word	0x00005439
    4220:	00000473 	.word	0x00000473
    4224:	000004f1 	.word	0x000004f1
    4228:	00003ef9 	.word	0x00003ef9
    422c:	00003f39 	.word	0x00003f39

00004230 <usart_init>:
 */
enum status_code usart_init(
		struct usart_module *const module,
		Sercom *const hw,
		const struct usart_config *const config)
{
    4230:	b590      	push	{r4, r7, lr}
    4232:	b093      	sub	sp, #76	; 0x4c
    4234:	af00      	add	r7, sp, #0
    4236:	60f8      	str	r0, [r7, #12]
    4238:	60b9      	str	r1, [r7, #8]
    423a:	607a      	str	r2, [r7, #4]
	/* Sanity check arguments */
	Assert(module);
	Assert(hw);
	Assert(config);

	enum status_code status_code = STATUS_OK;
    423c:	233b      	movs	r3, #59	; 0x3b
    423e:	18fb      	adds	r3, r7, r3
    4240:	2200      	movs	r2, #0
    4242:	701a      	strb	r2, [r3, #0]

	/* Assign module pointer to software instance struct */
	module->hw = hw;
    4244:	68fb      	ldr	r3, [r7, #12]
    4246:	68ba      	ldr	r2, [r7, #8]
    4248:	601a      	str	r2, [r3, #0]

	/* Get a pointer to the hardware module instance */
	SercomUsart *const usart_hw = &(module->hw->USART);
    424a:	68fb      	ldr	r3, [r7, #12]
    424c:	681b      	ldr	r3, [r3, #0]
    424e:	637b      	str	r3, [r7, #52]	; 0x34

	uint32_t sercom_index = _sercom_get_sercom_inst_index(module->hw);
    4250:	68fb      	ldr	r3, [r7, #12]
    4252:	681b      	ldr	r3, [r3, #0]
    4254:	0018      	movs	r0, r3
    4256:	4b86      	ldr	r3, [pc, #536]	; (4470 <usart_init+0x240>)
    4258:	4798      	blx	r3
    425a:	0003      	movs	r3, r0
    425c:	633b      	str	r3, [r7, #48]	; 0x30
		gclk_index	= SERCOM5_GCLK_ID_CORE;
    } else {
    	gclk_index	= sercom_index + SERCOM0_GCLK_ID_CORE;
    }
#else
	pm_index     = sercom_index + PM_APBCMASK_SERCOM0_Pos;
    425e:	6b3b      	ldr	r3, [r7, #48]	; 0x30
    4260:	3302      	adds	r3, #2
    4262:	62fb      	str	r3, [r7, #44]	; 0x2c
	gclk_index   = sercom_index + SERCOM0_GCLK_ID_CORE;
    4264:	6b3b      	ldr	r3, [r7, #48]	; 0x30
    4266:	3314      	adds	r3, #20
    4268:	62bb      	str	r3, [r7, #40]	; 0x28
#endif

	if (usart_hw->CTRLA.reg & SERCOM_USART_CTRLA_SWRST) {
    426a:	6b7b      	ldr	r3, [r7, #52]	; 0x34
    426c:	681b      	ldr	r3, [r3, #0]
    426e:	2201      	movs	r2, #1
    4270:	4013      	ands	r3, r2
    4272:	d001      	beq.n	4278 <usart_init+0x48>
		/* The module is busy resetting itself */
		return STATUS_BUSY;
    4274:	2305      	movs	r3, #5
    4276:	e0f6      	b.n	4466 <usart_init+0x236>
	}

	if (usart_hw->CTRLA.reg & SERCOM_USART_CTRLA_ENABLE) {
    4278:	6b7b      	ldr	r3, [r7, #52]	; 0x34
    427a:	681b      	ldr	r3, [r3, #0]
    427c:	2202      	movs	r2, #2
    427e:	4013      	ands	r3, r2
    4280:	d001      	beq.n	4286 <usart_init+0x56>
		/* Check the module is enabled */
		return STATUS_ERR_DENIED;
    4282:	231c      	movs	r3, #28
    4284:	e0ef      	b.n	4466 <usart_init+0x236>
		system_apb_clock_set_mask(SYSTEM_CLOCK_APB_APBD, 1 << pm_index);
	} else {
		system_apb_clock_set_mask(SYSTEM_CLOCK_APB_APBC, 1 << pm_index);	
	}
#else
	system_apb_clock_set_mask(SYSTEM_CLOCK_APB_APBC, 1 << pm_index);
    4286:	2201      	movs	r2, #1
    4288:	6afb      	ldr	r3, [r7, #44]	; 0x2c
    428a:	409a      	lsls	r2, r3
    428c:	0013      	movs	r3, r2
    428e:	0019      	movs	r1, r3
    4290:	2002      	movs	r0, #2
    4292:	4b78      	ldr	r3, [pc, #480]	; (4474 <usart_init+0x244>)
    4294:	4798      	blx	r3
#endif

	/* Set up the GCLK for the module */
	struct system_gclk_chan_config gclk_chan_conf;
	system_gclk_chan_get_config_defaults(&gclk_chan_conf);
    4296:	2324      	movs	r3, #36	; 0x24
    4298:	18fb      	adds	r3, r7, r3
    429a:	0018      	movs	r0, r3
    429c:	4b76      	ldr	r3, [pc, #472]	; (4478 <usart_init+0x248>)
    429e:	4798      	blx	r3
	gclk_chan_conf.source_generator = config->generator_source;
    42a0:	687b      	ldr	r3, [r7, #4]
    42a2:	222d      	movs	r2, #45	; 0x2d
    42a4:	5c9a      	ldrb	r2, [r3, r2]
    42a6:	2324      	movs	r3, #36	; 0x24
    42a8:	18fb      	adds	r3, r7, r3
    42aa:	701a      	strb	r2, [r3, #0]
	system_gclk_chan_set_config(gclk_index, &gclk_chan_conf);
    42ac:	6abb      	ldr	r3, [r7, #40]	; 0x28
    42ae:	b2db      	uxtb	r3, r3
    42b0:	2224      	movs	r2, #36	; 0x24
    42b2:	18ba      	adds	r2, r7, r2
    42b4:	0011      	movs	r1, r2
    42b6:	0018      	movs	r0, r3
    42b8:	4b70      	ldr	r3, [pc, #448]	; (447c <usart_init+0x24c>)
    42ba:	4798      	blx	r3
	system_gclk_chan_enable(gclk_index);
    42bc:	6abb      	ldr	r3, [r7, #40]	; 0x28
    42be:	b2db      	uxtb	r3, r3
    42c0:	0018      	movs	r0, r3
    42c2:	4b6f      	ldr	r3, [pc, #444]	; (4480 <usart_init+0x250>)
    42c4:	4798      	blx	r3
	sercom_set_gclk_generator(config->generator_source, false);
    42c6:	687b      	ldr	r3, [r7, #4]
    42c8:	222d      	movs	r2, #45	; 0x2d
    42ca:	5c9b      	ldrb	r3, [r3, r2]
    42cc:	2100      	movs	r1, #0
    42ce:	0018      	movs	r0, r3
    42d0:	4b6c      	ldr	r3, [pc, #432]	; (4484 <usart_init+0x254>)
    42d2:	4798      	blx	r3

	/* Set character size */
	module->character_size = config->character_size;
    42d4:	687b      	ldr	r3, [r7, #4]
    42d6:	7ada      	ldrb	r2, [r3, #11]
    42d8:	68fb      	ldr	r3, [r7, #12]
    42da:	715a      	strb	r2, [r3, #5]

	/* Set transmitter and receiver status */
	module->receiver_enabled = config->receiver_enable;
    42dc:	687b      	ldr	r3, [r7, #4]
    42de:	2224      	movs	r2, #36	; 0x24
    42e0:	5c9a      	ldrb	r2, [r3, r2]
    42e2:	68fb      	ldr	r3, [r7, #12]
    42e4:	719a      	strb	r2, [r3, #6]
	module->transmitter_enabled = config->transmitter_enable;
    42e6:	687b      	ldr	r3, [r7, #4]
    42e8:	2225      	movs	r2, #37	; 0x25
    42ea:	5c9a      	ldrb	r2, [r3, r2]
    42ec:	68fb      	ldr	r3, [r7, #12]
    42ee:	71da      	strb	r2, [r3, #7]

#ifdef FEATURE_USART_LIN_SLAVE
	module->lin_slave_enabled = config->lin_slave_enable;
    42f0:	687b      	ldr	r3, [r7, #4]
    42f2:	7eda      	ldrb	r2, [r3, #27]
    42f4:	68fb      	ldr	r3, [r7, #12]
    42f6:	721a      	strb	r2, [r3, #8]
#endif
#ifdef FEATURE_USART_START_FRAME_DECTION
	module->start_frame_detection_enabled = config->start_frame_detection_enable;
    42f8:	687b      	ldr	r3, [r7, #4]
    42fa:	7f1a      	ldrb	r2, [r3, #28]
    42fc:	68fb      	ldr	r3, [r7, #12]
    42fe:	725a      	strb	r2, [r3, #9]
#endif
#ifdef FEATURE_USART_ISO7816
	module->iso7816_mode_enabled = config->iso7816_config.enabled;
#endif
	/* Set configuration according to the config struct */
	status_code = _usart_set_config(module, config);
    4300:	233b      	movs	r3, #59	; 0x3b
    4302:	18fc      	adds	r4, r7, r3
    4304:	687a      	ldr	r2, [r7, #4]
    4306:	68fb      	ldr	r3, [r7, #12]
    4308:	0011      	movs	r1, r2
    430a:	0018      	movs	r0, r3
    430c:	4b5e      	ldr	r3, [pc, #376]	; (4488 <usart_init+0x258>)
    430e:	4798      	blx	r3
    4310:	0003      	movs	r3, r0
    4312:	7023      	strb	r3, [r4, #0]
	if(status_code != STATUS_OK) {
    4314:	233b      	movs	r3, #59	; 0x3b
    4316:	18fb      	adds	r3, r7, r3
    4318:	781b      	ldrb	r3, [r3, #0]
    431a:	2b00      	cmp	r3, #0
    431c:	d003      	beq.n	4326 <usart_init+0xf6>
		return status_code;
    431e:	233b      	movs	r3, #59	; 0x3b
    4320:	18fb      	adds	r3, r7, r3
    4322:	781b      	ldrb	r3, [r3, #0]
    4324:	e09f      	b.n	4466 <usart_init+0x236>
	}

	struct system_pinmux_config pin_conf;
	system_pinmux_get_config_defaults(&pin_conf);
    4326:	2320      	movs	r3, #32
    4328:	18fb      	adds	r3, r7, r3
    432a:	0018      	movs	r0, r3
    432c:	4b57      	ldr	r3, [pc, #348]	; (448c <usart_init+0x25c>)
    432e:	4798      	blx	r3
	pin_conf.direction = SYSTEM_PINMUX_PIN_DIR_INPUT;
    4330:	2320      	movs	r3, #32
    4332:	18fb      	adds	r3, r7, r3
    4334:	2200      	movs	r2, #0
    4336:	705a      	strb	r2, [r3, #1]
	pin_conf.input_pull = SYSTEM_PINMUX_PIN_PULL_NONE;
    4338:	2320      	movs	r3, #32
    433a:	18fb      	adds	r3, r7, r3
    433c:	2200      	movs	r2, #0
    433e:	709a      	strb	r2, [r3, #2]

	uint32_t pad_pinmuxes[] = {
			config->pinmux_pad0, config->pinmux_pad1,
    4340:	687b      	ldr	r3, [r7, #4]
    4342:	6b1a      	ldr	r2, [r3, #48]	; 0x30
	uint32_t pad_pinmuxes[] = {
    4344:	2310      	movs	r3, #16
    4346:	18fb      	adds	r3, r7, r3
    4348:	601a      	str	r2, [r3, #0]
			config->pinmux_pad0, config->pinmux_pad1,
    434a:	687b      	ldr	r3, [r7, #4]
    434c:	6b5a      	ldr	r2, [r3, #52]	; 0x34
	uint32_t pad_pinmuxes[] = {
    434e:	2310      	movs	r3, #16
    4350:	18fb      	adds	r3, r7, r3
    4352:	605a      	str	r2, [r3, #4]
			config->pinmux_pad2, config->pinmux_pad3
    4354:	687b      	ldr	r3, [r7, #4]
    4356:	6b9a      	ldr	r2, [r3, #56]	; 0x38
	uint32_t pad_pinmuxes[] = {
    4358:	2310      	movs	r3, #16
    435a:	18fb      	adds	r3, r7, r3
    435c:	609a      	str	r2, [r3, #8]
			config->pinmux_pad2, config->pinmux_pad3
    435e:	687b      	ldr	r3, [r7, #4]
    4360:	6bda      	ldr	r2, [r3, #60]	; 0x3c
	uint32_t pad_pinmuxes[] = {
    4362:	2310      	movs	r3, #16
    4364:	18fb      	adds	r3, r7, r3
    4366:	60da      	str	r2, [r3, #12]
		};

	/* Configure the SERCOM pins according to the user configuration */
	for (uint8_t pad = 0; pad < 4; pad++) {
    4368:	2347      	movs	r3, #71	; 0x47
    436a:	18fb      	adds	r3, r7, r3
    436c:	2200      	movs	r2, #0
    436e:	701a      	strb	r2, [r3, #0]
    4370:	e02c      	b.n	43cc <usart_init+0x19c>
		uint32_t current_pinmux = pad_pinmuxes[pad];
    4372:	2347      	movs	r3, #71	; 0x47
    4374:	18fb      	adds	r3, r7, r3
    4376:	781a      	ldrb	r2, [r3, #0]
    4378:	2310      	movs	r3, #16
    437a:	18fb      	adds	r3, r7, r3
    437c:	0092      	lsls	r2, r2, #2
    437e:	58d3      	ldr	r3, [r2, r3]
    4380:	643b      	str	r3, [r7, #64]	; 0x40

		if (current_pinmux == PINMUX_DEFAULT) {
    4382:	6c3b      	ldr	r3, [r7, #64]	; 0x40
    4384:	2b00      	cmp	r3, #0
    4386:	d109      	bne.n	439c <usart_init+0x16c>
			current_pinmux = _sercom_get_default_pad(hw, pad);
    4388:	2347      	movs	r3, #71	; 0x47
    438a:	18fb      	adds	r3, r7, r3
    438c:	781a      	ldrb	r2, [r3, #0]
    438e:	68bb      	ldr	r3, [r7, #8]
    4390:	0011      	movs	r1, r2
    4392:	0018      	movs	r0, r3
    4394:	4b3e      	ldr	r3, [pc, #248]	; (4490 <usart_init+0x260>)
    4396:	4798      	blx	r3
    4398:	0003      	movs	r3, r0
    439a:	643b      	str	r3, [r7, #64]	; 0x40
		}

		if (current_pinmux != PINMUX_UNUSED) {
    439c:	6c3b      	ldr	r3, [r7, #64]	; 0x40
    439e:	3301      	adds	r3, #1
    43a0:	d00d      	beq.n	43be <usart_init+0x18e>
			pin_conf.mux_position = current_pinmux & 0xFFFF;
    43a2:	6c3b      	ldr	r3, [r7, #64]	; 0x40
    43a4:	b2da      	uxtb	r2, r3
    43a6:	2320      	movs	r3, #32
    43a8:	18fb      	adds	r3, r7, r3
    43aa:	701a      	strb	r2, [r3, #0]
			system_pinmux_pin_set_config(current_pinmux >> 16, &pin_conf);
    43ac:	6c3b      	ldr	r3, [r7, #64]	; 0x40
    43ae:	0c1b      	lsrs	r3, r3, #16
    43b0:	b2db      	uxtb	r3, r3
    43b2:	2220      	movs	r2, #32
    43b4:	18ba      	adds	r2, r7, r2
    43b6:	0011      	movs	r1, r2
    43b8:	0018      	movs	r0, r3
    43ba:	4b36      	ldr	r3, [pc, #216]	; (4494 <usart_init+0x264>)
    43bc:	4798      	blx	r3
	for (uint8_t pad = 0; pad < 4; pad++) {
    43be:	2347      	movs	r3, #71	; 0x47
    43c0:	18fb      	adds	r3, r7, r3
    43c2:	781a      	ldrb	r2, [r3, #0]
    43c4:	2347      	movs	r3, #71	; 0x47
    43c6:	18fb      	adds	r3, r7, r3
    43c8:	3201      	adds	r2, #1
    43ca:	701a      	strb	r2, [r3, #0]
    43cc:	2347      	movs	r3, #71	; 0x47
    43ce:	18fb      	adds	r3, r7, r3
    43d0:	781b      	ldrb	r3, [r3, #0]
    43d2:	2b03      	cmp	r3, #3
    43d4:	d9cd      	bls.n	4372 <usart_init+0x142>
		}
	}

#if USART_CALLBACK_MODE == true
	/* Initialize parameters */
	for (uint32_t i = 0; i < USART_CALLBACK_N; i++) {
    43d6:	2300      	movs	r3, #0
    43d8:	63fb      	str	r3, [r7, #60]	; 0x3c
    43da:	e00a      	b.n	43f2 <usart_init+0x1c2>
		module->callback[i]            = NULL;
    43dc:	68fa      	ldr	r2, [r7, #12]
    43de:	6bfb      	ldr	r3, [r7, #60]	; 0x3c
    43e0:	3302      	adds	r3, #2
    43e2:	009b      	lsls	r3, r3, #2
    43e4:	18d3      	adds	r3, r2, r3
    43e6:	3304      	adds	r3, #4
    43e8:	2200      	movs	r2, #0
    43ea:	601a      	str	r2, [r3, #0]
	for (uint32_t i = 0; i < USART_CALLBACK_N; i++) {
    43ec:	6bfb      	ldr	r3, [r7, #60]	; 0x3c
    43ee:	3301      	adds	r3, #1
    43f0:	63fb      	str	r3, [r7, #60]	; 0x3c
    43f2:	6bfb      	ldr	r3, [r7, #60]	; 0x3c
    43f4:	2b05      	cmp	r3, #5
    43f6:	d9f1      	bls.n	43dc <usart_init+0x1ac>
	}

	module->tx_buffer_ptr              = NULL;
    43f8:	68fb      	ldr	r3, [r7, #12]
    43fa:	2200      	movs	r2, #0
    43fc:	629a      	str	r2, [r3, #40]	; 0x28
	module->rx_buffer_ptr              = NULL;
    43fe:	68fb      	ldr	r3, [r7, #12]
    4400:	2200      	movs	r2, #0
    4402:	625a      	str	r2, [r3, #36]	; 0x24
	module->remaining_tx_buffer_length = 0x0000;
    4404:	68fb      	ldr	r3, [r7, #12]
    4406:	2200      	movs	r2, #0
    4408:	85da      	strh	r2, [r3, #46]	; 0x2e
	module->remaining_rx_buffer_length = 0x0000;
    440a:	68fb      	ldr	r3, [r7, #12]
    440c:	2200      	movs	r2, #0
    440e:	859a      	strh	r2, [r3, #44]	; 0x2c
	module->callback_reg_mask          = 0x00;
    4410:	68fb      	ldr	r3, [r7, #12]
    4412:	2230      	movs	r2, #48	; 0x30
    4414:	2100      	movs	r1, #0
    4416:	5499      	strb	r1, [r3, r2]
	module->callback_enable_mask       = 0x00;
    4418:	68fb      	ldr	r3, [r7, #12]
    441a:	2231      	movs	r2, #49	; 0x31
    441c:	2100      	movs	r1, #0
    441e:	5499      	strb	r1, [r3, r2]
	module->rx_status                  = STATUS_OK;
    4420:	68fb      	ldr	r3, [r7, #12]
    4422:	2232      	movs	r2, #50	; 0x32
    4424:	2100      	movs	r1, #0
    4426:	5499      	strb	r1, [r3, r2]
	module->tx_status                  = STATUS_OK;
    4428:	68fb      	ldr	r3, [r7, #12]
    442a:	2233      	movs	r2, #51	; 0x33
    442c:	2100      	movs	r1, #0
    442e:	5499      	strb	r1, [r3, r2]

	/* Set interrupt handler and register USART software module struct in
	 * look-up table */
	uint8_t instance_index = _sercom_get_sercom_inst_index(module->hw);
    4430:	68fb      	ldr	r3, [r7, #12]
    4432:	681b      	ldr	r3, [r3, #0]
    4434:	2227      	movs	r2, #39	; 0x27
    4436:	18bc      	adds	r4, r7, r2
    4438:	0018      	movs	r0, r3
    443a:	4b0d      	ldr	r3, [pc, #52]	; (4470 <usart_init+0x240>)
    443c:	4798      	blx	r3
    443e:	0003      	movs	r3, r0
    4440:	7023      	strb	r3, [r4, #0]
	_sercom_set_handler(instance_index, _usart_interrupt_handler);
    4442:	4a15      	ldr	r2, [pc, #84]	; (4498 <usart_init+0x268>)
    4444:	2327      	movs	r3, #39	; 0x27
    4446:	18fb      	adds	r3, r7, r3
    4448:	781b      	ldrb	r3, [r3, #0]
    444a:	0011      	movs	r1, r2
    444c:	0018      	movs	r0, r3
    444e:	4b13      	ldr	r3, [pc, #76]	; (449c <usart_init+0x26c>)
    4450:	4798      	blx	r3
	_sercom_instances[instance_index] = module;
    4452:	2327      	movs	r3, #39	; 0x27
    4454:	18fb      	adds	r3, r7, r3
    4456:	781a      	ldrb	r2, [r3, #0]
    4458:	4b11      	ldr	r3, [pc, #68]	; (44a0 <usart_init+0x270>)
    445a:	0092      	lsls	r2, r2, #2
    445c:	68f9      	ldr	r1, [r7, #12]
    445e:	50d1      	str	r1, [r2, r3]
#endif

	return status_code;
    4460:	233b      	movs	r3, #59	; 0x3b
    4462:	18fb      	adds	r3, r7, r3
    4464:	781b      	ldrb	r3, [r3, #0]
}
    4466:	0018      	movs	r0, r3
    4468:	46bd      	mov	sp, r7
    446a:	b013      	add	sp, #76	; 0x4c
    446c:	bd90      	pop	{r4, r7, pc}
    446e:	46c0      	nop			; (mov r8, r8)
    4470:	000008f9 	.word	0x000008f9
    4474:	00003e75 	.word	0x00003e75
    4478:	00003e5d 	.word	0x00003e5d
    447c:	00005315 	.word	0x00005315
    4480:	00005359 	.word	0x00005359
    4484:	000006b1 	.word	0x000006b1
    4488:	00003f5d 	.word	0x00003f5d
    448c:	00003ed1 	.word	0x00003ed1
    4490:	0000073d 	.word	0x0000073d
    4494:	00000ab9 	.word	0x00000ab9
    4498:	0000470d 	.word	0x0000470d
    449c:	00004a61 	.word	0x00004a61
    44a0:	200038bc 	.word	0x200038bc

000044a4 <system_interrupt_enter_critical_section>:
{
    44a4:	b580      	push	{r7, lr}
    44a6:	af00      	add	r7, sp, #0
	cpu_irq_enter_critical();
    44a8:	4b02      	ldr	r3, [pc, #8]	; (44b4 <system_interrupt_enter_critical_section+0x10>)
    44aa:	4798      	blx	r3
}
    44ac:	46c0      	nop			; (mov r8, r8)
    44ae:	46bd      	mov	sp, r7
    44b0:	bd80      	pop	{r7, pc}
    44b2:	46c0      	nop			; (mov r8, r8)
    44b4:	00000115 	.word	0x00000115

000044b8 <system_interrupt_leave_critical_section>:
{
    44b8:	b580      	push	{r7, lr}
    44ba:	af00      	add	r7, sp, #0
	cpu_irq_leave_critical();
    44bc:	4b02      	ldr	r3, [pc, #8]	; (44c8 <system_interrupt_leave_critical_section+0x10>)
    44be:	4798      	blx	r3
}
    44c0:	46c0      	nop			; (mov r8, r8)
    44c2:	46bd      	mov	sp, r7
    44c4:	bd80      	pop	{r7, pc}
    44c6:	46c0      	nop			; (mov r8, r8)
    44c8:	00000169 	.word	0x00000169

000044cc <usart_is_syncing>:
{
    44cc:	b580      	push	{r7, lr}
    44ce:	b084      	sub	sp, #16
    44d0:	af00      	add	r7, sp, #0
    44d2:	6078      	str	r0, [r7, #4]
	SercomUsart *const usart_hw = &(module->hw->USART);
    44d4:	687b      	ldr	r3, [r7, #4]
    44d6:	681b      	ldr	r3, [r3, #0]
    44d8:	60fb      	str	r3, [r7, #12]
	return (usart_hw->SYNCBUSY.reg);
    44da:	68fb      	ldr	r3, [r7, #12]
    44dc:	69db      	ldr	r3, [r3, #28]
    44de:	1e5a      	subs	r2, r3, #1
    44e0:	4193      	sbcs	r3, r2
    44e2:	b2db      	uxtb	r3, r3
}
    44e4:	0018      	movs	r0, r3
    44e6:	46bd      	mov	sp, r7
    44e8:	b004      	add	sp, #16
    44ea:	bd80      	pop	{r7, pc}

000044ec <_usart_wait_for_sync>:
{
    44ec:	b580      	push	{r7, lr}
    44ee:	b082      	sub	sp, #8
    44f0:	af00      	add	r7, sp, #0
    44f2:	6078      	str	r0, [r7, #4]
	while (usart_is_syncing(module)) {
    44f4:	46c0      	nop			; (mov r8, r8)
    44f6:	687b      	ldr	r3, [r7, #4]
    44f8:	0018      	movs	r0, r3
    44fa:	4b04      	ldr	r3, [pc, #16]	; (450c <_usart_wait_for_sync+0x20>)
    44fc:	4798      	blx	r3
    44fe:	1e03      	subs	r3, r0, #0
    4500:	d1f9      	bne.n	44f6 <_usart_wait_for_sync+0xa>
}
    4502:	46c0      	nop			; (mov r8, r8)
    4504:	46bd      	mov	sp, r7
    4506:	b002      	add	sp, #8
    4508:	bd80      	pop	{r7, pc}
    450a:	46c0      	nop			; (mov r8, r8)
    450c:	000044cd 	.word	0x000044cd

00004510 <_usart_write_buffer>:
 */
enum status_code _usart_write_buffer(
		struct usart_module *const module,
		uint8_t *tx_data,
		uint16_t length)
{
    4510:	b580      	push	{r7, lr}
    4512:	b086      	sub	sp, #24
    4514:	af00      	add	r7, sp, #0
    4516:	60f8      	str	r0, [r7, #12]
    4518:	60b9      	str	r1, [r7, #8]
    451a:	1dbb      	adds	r3, r7, #6
    451c:	801a      	strh	r2, [r3, #0]
	Assert(module);
	Assert(module->hw);
	Assert(tx_data);

	/* Get a pointer to the hardware module instance */
	SercomUsart *const usart_hw = &(module->hw->USART);
    451e:	68fb      	ldr	r3, [r7, #12]
    4520:	681b      	ldr	r3, [r3, #0]
    4522:	617b      	str	r3, [r7, #20]

	system_interrupt_enter_critical_section();
    4524:	4b0f      	ldr	r3, [pc, #60]	; (4564 <_usart_write_buffer+0x54>)
    4526:	4798      	blx	r3

	/* Check if the USART transmitter is busy */
	if (module->remaining_tx_buffer_length > 0) {
    4528:	68fb      	ldr	r3, [r7, #12]
    452a:	8ddb      	ldrh	r3, [r3, #46]	; 0x2e
    452c:	b29b      	uxth	r3, r3
    452e:	2b00      	cmp	r3, #0
    4530:	d003      	beq.n	453a <_usart_write_buffer+0x2a>
		system_interrupt_leave_critical_section();
    4532:	4b0d      	ldr	r3, [pc, #52]	; (4568 <_usart_write_buffer+0x58>)
    4534:	4798      	blx	r3
		return STATUS_BUSY;
    4536:	2305      	movs	r3, #5
    4538:	e010      	b.n	455c <_usart_write_buffer+0x4c>
	}

	/* Write parameters to the device instance */
	module->remaining_tx_buffer_length = length;
    453a:	68fb      	ldr	r3, [r7, #12]
    453c:	1dba      	adds	r2, r7, #6
    453e:	8812      	ldrh	r2, [r2, #0]
    4540:	85da      	strh	r2, [r3, #46]	; 0x2e

	system_interrupt_leave_critical_section();
    4542:	4b09      	ldr	r3, [pc, #36]	; (4568 <_usart_write_buffer+0x58>)
    4544:	4798      	blx	r3

	module->tx_buffer_ptr              = tx_data;
    4546:	68fb      	ldr	r3, [r7, #12]
    4548:	68ba      	ldr	r2, [r7, #8]
    454a:	629a      	str	r2, [r3, #40]	; 0x28
	module->tx_status                  = STATUS_BUSY;
    454c:	68fb      	ldr	r3, [r7, #12]
    454e:	2233      	movs	r2, #51	; 0x33
    4550:	2105      	movs	r1, #5
    4552:	5499      	strb	r1, [r3, r2]

	/* Enable the Data Register Empty Interrupt */
	usart_hw->INTENSET.reg = SERCOM_USART_INTFLAG_DRE;
    4554:	697b      	ldr	r3, [r7, #20]
    4556:	2201      	movs	r2, #1
    4558:	759a      	strb	r2, [r3, #22]

	return STATUS_OK;
    455a:	2300      	movs	r3, #0
}
    455c:	0018      	movs	r0, r3
    455e:	46bd      	mov	sp, r7
    4560:	b006      	add	sp, #24
    4562:	bd80      	pop	{r7, pc}
    4564:	000044a5 	.word	0x000044a5
    4568:	000044b9 	.word	0x000044b9

0000456c <_usart_read_buffer>:
 */
enum status_code _usart_read_buffer(
		struct usart_module *const module,
		uint8_t *rx_data,
		uint16_t length)
{
    456c:	b580      	push	{r7, lr}
    456e:	b086      	sub	sp, #24
    4570:	af00      	add	r7, sp, #0
    4572:	60f8      	str	r0, [r7, #12]
    4574:	60b9      	str	r1, [r7, #8]
    4576:	1dbb      	adds	r3, r7, #6
    4578:	801a      	strh	r2, [r3, #0]
	Assert(module);
	Assert(module->hw);
	Assert(rx_data);

	/* Get a pointer to the hardware module instance */
	SercomUsart *const usart_hw = &(module->hw->USART);
    457a:	68fb      	ldr	r3, [r7, #12]
    457c:	681b      	ldr	r3, [r3, #0]
    457e:	617b      	str	r3, [r7, #20]

	system_interrupt_enter_critical_section();
    4580:	4b16      	ldr	r3, [pc, #88]	; (45dc <_usart_read_buffer+0x70>)
    4582:	4798      	blx	r3

	/* Check if the USART receiver is busy */
	if (module->remaining_rx_buffer_length > 0) {
    4584:	68fb      	ldr	r3, [r7, #12]
    4586:	8d9b      	ldrh	r3, [r3, #44]	; 0x2c
    4588:	b29b      	uxth	r3, r3
    458a:	2b00      	cmp	r3, #0
    458c:	d003      	beq.n	4596 <_usart_read_buffer+0x2a>
		system_interrupt_leave_critical_section();
    458e:	4b14      	ldr	r3, [pc, #80]	; (45e0 <_usart_read_buffer+0x74>)
    4590:	4798      	blx	r3
		return STATUS_BUSY;
    4592:	2305      	movs	r3, #5
    4594:	e01e      	b.n	45d4 <_usart_read_buffer+0x68>
	}

	/* Set length for the buffer and the pointer, and let
	 * the interrupt handler do the rest */
	module->remaining_rx_buffer_length = length;
    4596:	68fb      	ldr	r3, [r7, #12]
    4598:	1dba      	adds	r2, r7, #6
    459a:	8812      	ldrh	r2, [r2, #0]
    459c:	859a      	strh	r2, [r3, #44]	; 0x2c

	system_interrupt_leave_critical_section();
    459e:	4b10      	ldr	r3, [pc, #64]	; (45e0 <_usart_read_buffer+0x74>)
    45a0:	4798      	blx	r3

	module->rx_buffer_ptr              = rx_data;
    45a2:	68fb      	ldr	r3, [r7, #12]
    45a4:	68ba      	ldr	r2, [r7, #8]
    45a6:	625a      	str	r2, [r3, #36]	; 0x24
	module->rx_status                  = STATUS_BUSY;
    45a8:	68fb      	ldr	r3, [r7, #12]
    45aa:	2232      	movs	r2, #50	; 0x32
    45ac:	2105      	movs	r1, #5
    45ae:	5499      	strb	r1, [r3, r2]

	/* Enable the RX Complete Interrupt */
	usart_hw->INTENSET.reg = SERCOM_USART_INTFLAG_RXC;
    45b0:	697b      	ldr	r3, [r7, #20]
    45b2:	2204      	movs	r2, #4
    45b4:	759a      	strb	r2, [r3, #22]

#ifdef FEATURE_USART_LIN_SLAVE
	/* Enable the break character is received Interrupt */
	if(module->lin_slave_enabled) {
    45b6:	68fb      	ldr	r3, [r7, #12]
    45b8:	7a1b      	ldrb	r3, [r3, #8]
    45ba:	2b00      	cmp	r3, #0
    45bc:	d002      	beq.n	45c4 <_usart_read_buffer+0x58>
		usart_hw->INTENSET.reg = SERCOM_USART_INTFLAG_RXBRK;
    45be:	697b      	ldr	r3, [r7, #20]
    45c0:	2220      	movs	r2, #32
    45c2:	759a      	strb	r2, [r3, #22]
	}
#endif

#ifdef FEATURE_USART_START_FRAME_DECTION
	/* Enable a start condition is detected Interrupt */
	if(module->start_frame_detection_enabled) {
    45c4:	68fb      	ldr	r3, [r7, #12]
    45c6:	7a5b      	ldrb	r3, [r3, #9]
    45c8:	2b00      	cmp	r3, #0
    45ca:	d002      	beq.n	45d2 <_usart_read_buffer+0x66>
		usart_hw->INTENSET.reg = SERCOM_USART_INTFLAG_RXS;
    45cc:	697b      	ldr	r3, [r7, #20]
    45ce:	2208      	movs	r2, #8
    45d0:	759a      	strb	r2, [r3, #22]
	}
#endif

	return STATUS_OK;
    45d2:	2300      	movs	r3, #0
}
    45d4:	0018      	movs	r0, r3
    45d6:	46bd      	mov	sp, r7
    45d8:	b006      	add	sp, #24
    45da:	bd80      	pop	{r7, pc}
    45dc:	000044a5 	.word	0x000044a5
    45e0:	000044b9 	.word	0x000044b9

000045e4 <usart_register_callback>:
 */
void usart_register_callback(
		struct usart_module *const module,
		usart_callback_t callback_func,
		enum usart_callback callback_type)
{
    45e4:	b580      	push	{r7, lr}
    45e6:	b084      	sub	sp, #16
    45e8:	af00      	add	r7, sp, #0
    45ea:	60f8      	str	r0, [r7, #12]
    45ec:	60b9      	str	r1, [r7, #8]
    45ee:	1dfb      	adds	r3, r7, #7
    45f0:	701a      	strb	r2, [r3, #0]
	/* Sanity check arguments */
	Assert(module);
	Assert(callback_func);

	/* Register callback function */
	module->callback[callback_type] = callback_func;
    45f2:	1dfb      	adds	r3, r7, #7
    45f4:	781b      	ldrb	r3, [r3, #0]
    45f6:	68fa      	ldr	r2, [r7, #12]
    45f8:	3302      	adds	r3, #2
    45fa:	009b      	lsls	r3, r3, #2
    45fc:	18d3      	adds	r3, r2, r3
    45fe:	3304      	adds	r3, #4
    4600:	68ba      	ldr	r2, [r7, #8]
    4602:	601a      	str	r2, [r3, #0]

	/* Set the bit corresponding to the callback_type */
	module->callback_reg_mask |= (1 << callback_type);
    4604:	68fb      	ldr	r3, [r7, #12]
    4606:	2230      	movs	r2, #48	; 0x30
    4608:	5c9b      	ldrb	r3, [r3, r2]
    460a:	b25a      	sxtb	r2, r3
    460c:	1dfb      	adds	r3, r7, #7
    460e:	781b      	ldrb	r3, [r3, #0]
    4610:	2101      	movs	r1, #1
    4612:	4099      	lsls	r1, r3
    4614:	000b      	movs	r3, r1
    4616:	b25b      	sxtb	r3, r3
    4618:	4313      	orrs	r3, r2
    461a:	b25b      	sxtb	r3, r3
    461c:	b2d9      	uxtb	r1, r3
    461e:	68fb      	ldr	r3, [r7, #12]
    4620:	2230      	movs	r2, #48	; 0x30
    4622:	5499      	strb	r1, [r3, r2]
}
    4624:	46c0      	nop			; (mov r8, r8)
    4626:	46bd      	mov	sp, r7
    4628:	b004      	add	sp, #16
    462a:	bd80      	pop	{r7, pc}

0000462c <usart_write_buffer_job>:
 */
enum status_code usart_write_buffer_job(
		struct usart_module *const module,
		uint8_t *tx_data,
		uint16_t length)
{
    462c:	b580      	push	{r7, lr}
    462e:	b084      	sub	sp, #16
    4630:	af00      	add	r7, sp, #0
    4632:	60f8      	str	r0, [r7, #12]
    4634:	60b9      	str	r1, [r7, #8]
    4636:	1dbb      	adds	r3, r7, #6
    4638:	801a      	strh	r2, [r3, #0]
	/* Sanity check arguments */
	Assert(module);
	Assert(tx_data);

	if (length == 0) {
    463a:	1dbb      	adds	r3, r7, #6
    463c:	881b      	ldrh	r3, [r3, #0]
    463e:	2b00      	cmp	r3, #0
    4640:	d101      	bne.n	4646 <usart_write_buffer_job+0x1a>
		return STATUS_ERR_INVALID_ARG;
    4642:	2317      	movs	r3, #23
    4644:	e010      	b.n	4668 <usart_write_buffer_job+0x3c>
	}

	/* Check that the transmitter is enabled */
	if (!(module->transmitter_enabled)) {
    4646:	68fb      	ldr	r3, [r7, #12]
    4648:	79db      	ldrb	r3, [r3, #7]
    464a:	2201      	movs	r2, #1
    464c:	4053      	eors	r3, r2
    464e:	b2db      	uxtb	r3, r3
    4650:	2b00      	cmp	r3, #0
    4652:	d001      	beq.n	4658 <usart_write_buffer_job+0x2c>
		return STATUS_ERR_DENIED;
    4654:	231c      	movs	r3, #28
    4656:	e007      	b.n	4668 <usart_write_buffer_job+0x3c>
	}

	/* Issue internal asynchronous write */
	return _usart_write_buffer(module, tx_data, length);
    4658:	1dbb      	adds	r3, r7, #6
    465a:	881a      	ldrh	r2, [r3, #0]
    465c:	68b9      	ldr	r1, [r7, #8]
    465e:	68fb      	ldr	r3, [r7, #12]
    4660:	0018      	movs	r0, r3
    4662:	4b03      	ldr	r3, [pc, #12]	; (4670 <usart_write_buffer_job+0x44>)
    4664:	4798      	blx	r3
    4666:	0003      	movs	r3, r0
}
    4668:	0018      	movs	r0, r3
    466a:	46bd      	mov	sp, r7
    466c:	b004      	add	sp, #16
    466e:	bd80      	pop	{r7, pc}
    4670:	00004511 	.word	0x00004511

00004674 <usart_read_buffer_job>:
 */
enum status_code usart_read_buffer_job(
		struct usart_module *const module,
		uint8_t *rx_data,
		uint16_t length)
{
    4674:	b580      	push	{r7, lr}
    4676:	b084      	sub	sp, #16
    4678:	af00      	add	r7, sp, #0
    467a:	60f8      	str	r0, [r7, #12]
    467c:	60b9      	str	r1, [r7, #8]
    467e:	1dbb      	adds	r3, r7, #6
    4680:	801a      	strh	r2, [r3, #0]
	/* Sanity check arguments */
	Assert(module);
	Assert(rx_data);

	if (length == 0) {
    4682:	1dbb      	adds	r3, r7, #6
    4684:	881b      	ldrh	r3, [r3, #0]
    4686:	2b00      	cmp	r3, #0
    4688:	d101      	bne.n	468e <usart_read_buffer_job+0x1a>
		return STATUS_ERR_INVALID_ARG;
    468a:	2317      	movs	r3, #23
    468c:	e010      	b.n	46b0 <usart_read_buffer_job+0x3c>
	}

	/* Check that the receiver is enabled */
	if (!(module->receiver_enabled)) {
    468e:	68fb      	ldr	r3, [r7, #12]
    4690:	799b      	ldrb	r3, [r3, #6]
    4692:	2201      	movs	r2, #1
    4694:	4053      	eors	r3, r2
    4696:	b2db      	uxtb	r3, r3
    4698:	2b00      	cmp	r3, #0
    469a:	d001      	beq.n	46a0 <usart_read_buffer_job+0x2c>
		return STATUS_ERR_DENIED;
    469c:	231c      	movs	r3, #28
    469e:	e007      	b.n	46b0 <usart_read_buffer_job+0x3c>
	}

	/* Issue internal asynchronous read */
	return _usart_read_buffer(module, rx_data, length);
    46a0:	1dbb      	adds	r3, r7, #6
    46a2:	881a      	ldrh	r2, [r3, #0]
    46a4:	68b9      	ldr	r1, [r7, #8]
    46a6:	68fb      	ldr	r3, [r7, #12]
    46a8:	0018      	movs	r0, r3
    46aa:	4b03      	ldr	r3, [pc, #12]	; (46b8 <usart_read_buffer_job+0x44>)
    46ac:	4798      	blx	r3
    46ae:	0003      	movs	r3, r0
}
    46b0:	0018      	movs	r0, r3
    46b2:	46bd      	mov	sp, r7
    46b4:	b004      	add	sp, #16
    46b6:	bd80      	pop	{r7, pc}
    46b8:	0000456d 	.word	0x0000456d

000046bc <usart_get_job_status>:
 * \retval STATUS_ERR_INVALID_ARG  An invalid transceiver enum given
 */
enum status_code usart_get_job_status(
		struct usart_module *const module,
		enum usart_transceiver_type transceiver_type)
{
    46bc:	b580      	push	{r7, lr}
    46be:	b084      	sub	sp, #16
    46c0:	af00      	add	r7, sp, #0
    46c2:	6078      	str	r0, [r7, #4]
    46c4:	000a      	movs	r2, r1
    46c6:	1cfb      	adds	r3, r7, #3
    46c8:	701a      	strb	r2, [r3, #0]
	Assert(module);

	/* Variable for status code */
	enum status_code status_code;

	switch(transceiver_type) {
    46ca:	1cfb      	adds	r3, r7, #3
    46cc:	781b      	ldrb	r3, [r3, #0]
    46ce:	2b00      	cmp	r3, #0
    46d0:	d002      	beq.n	46d8 <usart_get_job_status+0x1c>
    46d2:	2b01      	cmp	r3, #1
    46d4:	d007      	beq.n	46e6 <usart_get_job_status+0x2a>
    46d6:	e00d      	b.n	46f4 <usart_get_job_status+0x38>
	case USART_TRANSCEIVER_RX:
			status_code = module->rx_status;
    46d8:	230f      	movs	r3, #15
    46da:	18fb      	adds	r3, r7, r3
    46dc:	687a      	ldr	r2, [r7, #4]
    46de:	2132      	movs	r1, #50	; 0x32
    46e0:	5c52      	ldrb	r2, [r2, r1]
    46e2:	701a      	strb	r2, [r3, #0]
			break;
    46e4:	e00b      	b.n	46fe <usart_get_job_status+0x42>

	case USART_TRANSCEIVER_TX:
			status_code = module->tx_status;
    46e6:	230f      	movs	r3, #15
    46e8:	18fb      	adds	r3, r7, r3
    46ea:	687a      	ldr	r2, [r7, #4]
    46ec:	2133      	movs	r1, #51	; 0x33
    46ee:	5c52      	ldrb	r2, [r2, r1]
    46f0:	701a      	strb	r2, [r3, #0]
			break;
    46f2:	e004      	b.n	46fe <usart_get_job_status+0x42>

	default:
			status_code = STATUS_ERR_INVALID_ARG;
    46f4:	230f      	movs	r3, #15
    46f6:	18fb      	adds	r3, r7, r3
    46f8:	2217      	movs	r2, #23
    46fa:	701a      	strb	r2, [r3, #0]
			break;
    46fc:	46c0      	nop			; (mov r8, r8)
	}

	return status_code;
    46fe:	230f      	movs	r3, #15
    4700:	18fb      	adds	r3, r7, r3
    4702:	781b      	ldrb	r3, [r3, #0]
}
    4704:	0018      	movs	r0, r3
    4706:	46bd      	mov	sp, r7
    4708:	b004      	add	sp, #16
    470a:	bd80      	pop	{r7, pc}

0000470c <_usart_interrupt_handler>:
 * \param[in]  instance  ID of the SERCOM instance calling the interrupt
 *                       handler.
 */
void _usart_interrupt_handler(
		uint8_t instance)
{
    470c:	b580      	push	{r7, lr}
    470e:	b088      	sub	sp, #32
    4710:	af00      	add	r7, sp, #0
    4712:	0002      	movs	r2, r0
    4714:	1dfb      	adds	r3, r7, #7
    4716:	701a      	strb	r2, [r3, #0]
	uint8_t error_code;


	/* Get device instance from the look-up table */
	struct usart_module *module
		= (struct usart_module *)_sercom_instances[instance];
    4718:	1dfb      	adds	r3, r7, #7
    471a:	781a      	ldrb	r2, [r3, #0]
	struct usart_module *module
    471c:	4ba3      	ldr	r3, [pc, #652]	; (49ac <_usart_interrupt_handler+0x2a0>)
    471e:	0092      	lsls	r2, r2, #2
    4720:	58d3      	ldr	r3, [r2, r3]
    4722:	61bb      	str	r3, [r7, #24]

	/* Pointer to the hardware module instance */
	SercomUsart *const usart_hw
		= &(module->hw->USART);
    4724:	69bb      	ldr	r3, [r7, #24]
    4726:	681b      	ldr	r3, [r3, #0]
	SercomUsart *const usart_hw
    4728:	617b      	str	r3, [r7, #20]

	/* Wait for the synchronization to complete */
	_usart_wait_for_sync(module);
    472a:	69bb      	ldr	r3, [r7, #24]
    472c:	0018      	movs	r0, r3
    472e:	4ba0      	ldr	r3, [pc, #640]	; (49b0 <_usart_interrupt_handler+0x2a4>)
    4730:	4798      	blx	r3

	/* Read and mask interrupt flag register */
	interrupt_status = usart_hw->INTFLAG.reg;
    4732:	697b      	ldr	r3, [r7, #20]
    4734:	7e1b      	ldrb	r3, [r3, #24]
    4736:	b2da      	uxtb	r2, r3
    4738:	2312      	movs	r3, #18
    473a:	18fb      	adds	r3, r7, r3
    473c:	801a      	strh	r2, [r3, #0]
	interrupt_status &= usart_hw->INTENSET.reg;
    473e:	697b      	ldr	r3, [r7, #20]
    4740:	7d9b      	ldrb	r3, [r3, #22]
    4742:	b2db      	uxtb	r3, r3
    4744:	b29a      	uxth	r2, r3
    4746:	2312      	movs	r3, #18
    4748:	18fb      	adds	r3, r7, r3
    474a:	2112      	movs	r1, #18
    474c:	1879      	adds	r1, r7, r1
    474e:	8809      	ldrh	r1, [r1, #0]
    4750:	400a      	ands	r2, r1
    4752:	801a      	strh	r2, [r3, #0]
	callback_status = module->callback_reg_mask &
    4754:	69bb      	ldr	r3, [r7, #24]
    4756:	2230      	movs	r2, #48	; 0x30
    4758:	5c9b      	ldrb	r3, [r3, r2]
			module->callback_enable_mask;
    475a:	69ba      	ldr	r2, [r7, #24]
    475c:	2131      	movs	r1, #49	; 0x31
    475e:	5c52      	ldrb	r2, [r2, r1]
	callback_status = module->callback_reg_mask &
    4760:	4013      	ands	r3, r2
    4762:	b2da      	uxtb	r2, r3
    4764:	2310      	movs	r3, #16
    4766:	18fb      	adds	r3, r7, r3
    4768:	801a      	strh	r2, [r3, #0]

	/* Check if a DATA READY interrupt has occurred,
	 * and if there is more to transfer */
	if (interrupt_status & SERCOM_USART_INTFLAG_DRE) {
    476a:	2312      	movs	r3, #18
    476c:	18fb      	adds	r3, r7, r3
    476e:	881b      	ldrh	r3, [r3, #0]
    4770:	2201      	movs	r2, #1
    4772:	4013      	ands	r3, r2
    4774:	d044      	beq.n	4800 <_usart_interrupt_handler+0xf4>
		if (module->remaining_tx_buffer_length) {
    4776:	69bb      	ldr	r3, [r7, #24]
    4778:	8ddb      	ldrh	r3, [r3, #46]	; 0x2e
    477a:	b29b      	uxth	r3, r3
    477c:	2b00      	cmp	r3, #0
    477e:	d03c      	beq.n	47fa <_usart_interrupt_handler+0xee>
			/* Write value will be at least 8-bits long */
			uint16_t data_to_send = *(module->tx_buffer_ptr);
    4780:	69bb      	ldr	r3, [r7, #24]
    4782:	6a9b      	ldr	r3, [r3, #40]	; 0x28
    4784:	781b      	ldrb	r3, [r3, #0]
    4786:	b2da      	uxtb	r2, r3
    4788:	231c      	movs	r3, #28
    478a:	18fb      	adds	r3, r7, r3
    478c:	801a      	strh	r2, [r3, #0]
			/* Increment 8-bit pointer */
			(module->tx_buffer_ptr)++;
    478e:	69bb      	ldr	r3, [r7, #24]
    4790:	6a9b      	ldr	r3, [r3, #40]	; 0x28
    4792:	1c5a      	adds	r2, r3, #1
    4794:	69bb      	ldr	r3, [r7, #24]
    4796:	629a      	str	r2, [r3, #40]	; 0x28

			if (module->character_size == USART_CHARACTER_SIZE_9BIT) {
    4798:	69bb      	ldr	r3, [r7, #24]
    479a:	795b      	ldrb	r3, [r3, #5]
    479c:	2b01      	cmp	r3, #1
    479e:	d113      	bne.n	47c8 <_usart_interrupt_handler+0xbc>
				data_to_send |= (*(module->tx_buffer_ptr) << 8);
    47a0:	69bb      	ldr	r3, [r7, #24]
    47a2:	6a9b      	ldr	r3, [r3, #40]	; 0x28
    47a4:	781b      	ldrb	r3, [r3, #0]
    47a6:	b2db      	uxtb	r3, r3
    47a8:	021b      	lsls	r3, r3, #8
    47aa:	b21a      	sxth	r2, r3
    47ac:	231c      	movs	r3, #28
    47ae:	18fb      	adds	r3, r7, r3
    47b0:	2100      	movs	r1, #0
    47b2:	5e5b      	ldrsh	r3, [r3, r1]
    47b4:	4313      	orrs	r3, r2
    47b6:	b21a      	sxth	r2, r3
    47b8:	231c      	movs	r3, #28
    47ba:	18fb      	adds	r3, r7, r3
    47bc:	801a      	strh	r2, [r3, #0]
				/* Increment 8-bit pointer */
				(module->tx_buffer_ptr)++;
    47be:	69bb      	ldr	r3, [r7, #24]
    47c0:	6a9b      	ldr	r3, [r3, #40]	; 0x28
    47c2:	1c5a      	adds	r2, r3, #1
    47c4:	69bb      	ldr	r3, [r7, #24]
    47c6:	629a      	str	r2, [r3, #40]	; 0x28
			}
			/* Write the data to send */
			usart_hw->DATA.reg = (data_to_send & SERCOM_USART_DATA_MASK);
    47c8:	231c      	movs	r3, #28
    47ca:	18fb      	adds	r3, r7, r3
    47cc:	881b      	ldrh	r3, [r3, #0]
    47ce:	05db      	lsls	r3, r3, #23
    47d0:	0ddb      	lsrs	r3, r3, #23
    47d2:	b29a      	uxth	r2, r3
    47d4:	697b      	ldr	r3, [r7, #20]
    47d6:	851a      	strh	r2, [r3, #40]	; 0x28

			if (--(module->remaining_tx_buffer_length) == 0) {
    47d8:	69bb      	ldr	r3, [r7, #24]
    47da:	8ddb      	ldrh	r3, [r3, #46]	; 0x2e
    47dc:	b29b      	uxth	r3, r3
    47de:	3b01      	subs	r3, #1
    47e0:	b29b      	uxth	r3, r3
    47e2:	69ba      	ldr	r2, [r7, #24]
    47e4:	1c19      	adds	r1, r3, #0
    47e6:	85d1      	strh	r1, [r2, #46]	; 0x2e
    47e8:	2b00      	cmp	r3, #0
    47ea:	d109      	bne.n	4800 <_usart_interrupt_handler+0xf4>
				/* Disable the Data Register Empty Interrupt */
				usart_hw->INTENCLR.reg = SERCOM_USART_INTFLAG_DRE;
    47ec:	697b      	ldr	r3, [r7, #20]
    47ee:	2201      	movs	r2, #1
    47f0:	751a      	strb	r2, [r3, #20]
				/* Enable Transmission Complete interrupt */
				usart_hw->INTENSET.reg = SERCOM_USART_INTFLAG_TXC;
    47f2:	697b      	ldr	r3, [r7, #20]
    47f4:	2202      	movs	r2, #2
    47f6:	759a      	strb	r2, [r3, #22]
    47f8:	e002      	b.n	4800 <_usart_interrupt_handler+0xf4>

			}
		} else {
			usart_hw->INTENCLR.reg = SERCOM_USART_INTFLAG_DRE;
    47fa:	697b      	ldr	r3, [r7, #20]
    47fc:	2201      	movs	r2, #1
    47fe:	751a      	strb	r2, [r3, #20]
		}
	}

	/* Check if the Transmission Complete interrupt has occurred and
	 * that the transmit buffer is empty */
	if (interrupt_status & SERCOM_USART_INTFLAG_TXC) {
    4800:	2312      	movs	r3, #18
    4802:	18fb      	adds	r3, r7, r3
    4804:	881b      	ldrh	r3, [r3, #0]
    4806:	2202      	movs	r2, #2
    4808:	4013      	ands	r3, r2
    480a:	d011      	beq.n	4830 <_usart_interrupt_handler+0x124>

		/* Disable TX Complete Interrupt, and set STATUS_OK */
		usart_hw->INTENCLR.reg = SERCOM_USART_INTFLAG_TXC;
    480c:	697b      	ldr	r3, [r7, #20]
    480e:	2202      	movs	r2, #2
    4810:	751a      	strb	r2, [r3, #20]
		module->tx_status = STATUS_OK;
    4812:	69bb      	ldr	r3, [r7, #24]
    4814:	2233      	movs	r2, #51	; 0x33
    4816:	2100      	movs	r1, #0
    4818:	5499      	strb	r1, [r3, r2]

		/* Run callback if registered and enabled */
		if (callback_status & (1 << USART_CALLBACK_BUFFER_TRANSMITTED)) {
    481a:	2310      	movs	r3, #16
    481c:	18fb      	adds	r3, r7, r3
    481e:	881b      	ldrh	r3, [r3, #0]
    4820:	2201      	movs	r2, #1
    4822:	4013      	ands	r3, r2
    4824:	d004      	beq.n	4830 <_usart_interrupt_handler+0x124>
			(*(module->callback[USART_CALLBACK_BUFFER_TRANSMITTED]))(module);
    4826:	69bb      	ldr	r3, [r7, #24]
    4828:	68db      	ldr	r3, [r3, #12]
    482a:	69ba      	ldr	r2, [r7, #24]
    482c:	0010      	movs	r0, r2
    482e:	4798      	blx	r3
		}
	}

	/* Check if the Receive Complete interrupt has occurred, and that
	 * there's more data to receive */
	if (interrupt_status & SERCOM_USART_INTFLAG_RXC) {
    4830:	2312      	movs	r3, #18
    4832:	18fb      	adds	r3, r7, r3
    4834:	881b      	ldrh	r3, [r3, #0]
    4836:	2204      	movs	r2, #4
    4838:	4013      	ands	r3, r2
    483a:	d100      	bne.n	483e <_usart_interrupt_handler+0x132>
    483c:	e0bd      	b.n	49ba <_usart_interrupt_handler+0x2ae>

		if (module->remaining_rx_buffer_length) {
    483e:	69bb      	ldr	r3, [r7, #24]
    4840:	8d9b      	ldrh	r3, [r3, #44]	; 0x2c
    4842:	b29b      	uxth	r3, r3
    4844:	2b00      	cmp	r3, #0
    4846:	d100      	bne.n	484a <_usart_interrupt_handler+0x13e>
    4848:	e0b4      	b.n	49b4 <_usart_interrupt_handler+0x2a8>
			/* Read out the status code and mask away all but the 4 LSBs*/
			error_code = (uint8_t)(usart_hw->STATUS.reg & SERCOM_USART_STATUS_MASK);
    484a:	697b      	ldr	r3, [r7, #20]
    484c:	8b5b      	ldrh	r3, [r3, #26]
    484e:	b29b      	uxth	r3, r3
    4850:	b2da      	uxtb	r2, r3
    4852:	231f      	movs	r3, #31
    4854:	18fb      	adds	r3, r7, r3
    4856:	213f      	movs	r1, #63	; 0x3f
    4858:	400a      	ands	r2, r1
    485a:	701a      	strb	r2, [r3, #0]
#if !SAMD20
			/* CTS status should not be considered as an error */
			if(error_code & SERCOM_USART_STATUS_CTS) {
    485c:	231f      	movs	r3, #31
    485e:	18fb      	adds	r3, r7, r3
    4860:	781b      	ldrb	r3, [r3, #0]
    4862:	2208      	movs	r2, #8
    4864:	4013      	ands	r3, r2
    4866:	d007      	beq.n	4878 <_usart_interrupt_handler+0x16c>
				error_code &= ~SERCOM_USART_STATUS_CTS;
    4868:	231f      	movs	r3, #31
    486a:	18fb      	adds	r3, r7, r3
    486c:	221f      	movs	r2, #31
    486e:	18ba      	adds	r2, r7, r2
    4870:	7812      	ldrb	r2, [r2, #0]
    4872:	2108      	movs	r1, #8
    4874:	438a      	bics	r2, r1
    4876:	701a      	strb	r2, [r3, #0]
			if(error_code & SERCOM_USART_STATUS_TXE) {
				error_code &= ~SERCOM_USART_STATUS_TXE;
			}
#endif
			/* Check if an error has occurred during the receiving */
			if (error_code) {
    4878:	231f      	movs	r3, #31
    487a:	18fb      	adds	r3, r7, r3
    487c:	781b      	ldrb	r3, [r3, #0]
    487e:	2b00      	cmp	r3, #0
    4880:	d050      	beq.n	4924 <_usart_interrupt_handler+0x218>
				/* Check which error occurred */
				if (error_code & SERCOM_USART_STATUS_FERR) {
    4882:	231f      	movs	r3, #31
    4884:	18fb      	adds	r3, r7, r3
    4886:	781b      	ldrb	r3, [r3, #0]
    4888:	2202      	movs	r2, #2
    488a:	4013      	ands	r3, r2
    488c:	d007      	beq.n	489e <_usart_interrupt_handler+0x192>
					/* Store the error code and clear flag by writing 1 to it */
					module->rx_status = STATUS_ERR_BAD_FORMAT;
    488e:	69bb      	ldr	r3, [r7, #24]
    4890:	2232      	movs	r2, #50	; 0x32
    4892:	211a      	movs	r1, #26
    4894:	5499      	strb	r1, [r3, r2]
					usart_hw->STATUS.reg = SERCOM_USART_STATUS_FERR;
    4896:	697b      	ldr	r3, [r7, #20]
    4898:	2202      	movs	r2, #2
    489a:	835a      	strh	r2, [r3, #26]
    489c:	e036      	b.n	490c <_usart_interrupt_handler+0x200>
				} else if (error_code & SERCOM_USART_STATUS_BUFOVF) {
    489e:	231f      	movs	r3, #31
    48a0:	18fb      	adds	r3, r7, r3
    48a2:	781b      	ldrb	r3, [r3, #0]
    48a4:	2204      	movs	r2, #4
    48a6:	4013      	ands	r3, r2
    48a8:	d007      	beq.n	48ba <_usart_interrupt_handler+0x1ae>
					/* Store the error code and clear flag by writing 1 to it */
					module->rx_status = STATUS_ERR_OVERFLOW;
    48aa:	69bb      	ldr	r3, [r7, #24]
    48ac:	2232      	movs	r2, #50	; 0x32
    48ae:	211e      	movs	r1, #30
    48b0:	5499      	strb	r1, [r3, r2]
					usart_hw->STATUS.reg = SERCOM_USART_STATUS_BUFOVF;
    48b2:	697b      	ldr	r3, [r7, #20]
    48b4:	2204      	movs	r2, #4
    48b6:	835a      	strh	r2, [r3, #26]
    48b8:	e028      	b.n	490c <_usart_interrupt_handler+0x200>
				} else if (error_code & SERCOM_USART_STATUS_PERR) {
    48ba:	231f      	movs	r3, #31
    48bc:	18fb      	adds	r3, r7, r3
    48be:	781b      	ldrb	r3, [r3, #0]
    48c0:	2201      	movs	r2, #1
    48c2:	4013      	ands	r3, r2
    48c4:	d007      	beq.n	48d6 <_usart_interrupt_handler+0x1ca>
					/* Store the error code and clear flag by writing 1 to it */
					module->rx_status = STATUS_ERR_BAD_DATA;
    48c6:	69bb      	ldr	r3, [r7, #24]
    48c8:	2232      	movs	r2, #50	; 0x32
    48ca:	2113      	movs	r1, #19
    48cc:	5499      	strb	r1, [r3, r2]
					usart_hw->STATUS.reg = SERCOM_USART_STATUS_PERR;
    48ce:	697b      	ldr	r3, [r7, #20]
    48d0:	2201      	movs	r2, #1
    48d2:	835a      	strh	r2, [r3, #26]
    48d4:	e01a      	b.n	490c <_usart_interrupt_handler+0x200>
				}
#ifdef FEATURE_USART_LIN_SLAVE
				else if (error_code & SERCOM_USART_STATUS_ISF) {
    48d6:	231f      	movs	r3, #31
    48d8:	18fb      	adds	r3, r7, r3
    48da:	781b      	ldrb	r3, [r3, #0]
    48dc:	2210      	movs	r2, #16
    48de:	4013      	ands	r3, r2
    48e0:	d007      	beq.n	48f2 <_usart_interrupt_handler+0x1e6>
					/* Store the error code and clear flag by writing 1 to it */
					module->rx_status = STATUS_ERR_PROTOCOL;
    48e2:	69bb      	ldr	r3, [r7, #24]
    48e4:	2232      	movs	r2, #50	; 0x32
    48e6:	2142      	movs	r1, #66	; 0x42
    48e8:	5499      	strb	r1, [r3, r2]
					usart_hw->STATUS.reg = SERCOM_USART_STATUS_ISF;
    48ea:	697b      	ldr	r3, [r7, #20]
    48ec:	2210      	movs	r2, #16
    48ee:	835a      	strh	r2, [r3, #26]
    48f0:	e00c      	b.n	490c <_usart_interrupt_handler+0x200>
				}
#endif
#ifdef FEATURE_USART_COLLISION_DECTION
				else if (error_code & SERCOM_USART_STATUS_COLL) {
    48f2:	231f      	movs	r3, #31
    48f4:	18fb      	adds	r3, r7, r3
    48f6:	781b      	ldrb	r3, [r3, #0]
    48f8:	2220      	movs	r2, #32
    48fa:	4013      	ands	r3, r2
    48fc:	d006      	beq.n	490c <_usart_interrupt_handler+0x200>
					/* Store the error code and clear flag by writing 1 to it */
					module->rx_status = STATUS_ERR_PACKET_COLLISION;
    48fe:	69bb      	ldr	r3, [r7, #24]
    4900:	2232      	movs	r2, #50	; 0x32
    4902:	2141      	movs	r1, #65	; 0x41
    4904:	5499      	strb	r1, [r3, r2]
					usart_hw->STATUS.reg = SERCOM_USART_STATUS_COLL;
    4906:	697b      	ldr	r3, [r7, #20]
    4908:	2220      	movs	r2, #32
    490a:	835a      	strh	r2, [r3, #26]
				}
#endif

				/* Run callback if registered and enabled */
				if (callback_status
						& (1 << USART_CALLBACK_ERROR)) {
    490c:	2310      	movs	r3, #16
    490e:	18fb      	adds	r3, r7, r3
    4910:	881b      	ldrh	r3, [r3, #0]
    4912:	2204      	movs	r2, #4
    4914:	4013      	ands	r3, r2
				if (callback_status
    4916:	d050      	beq.n	49ba <_usart_interrupt_handler+0x2ae>
					(*(module->callback[USART_CALLBACK_ERROR]))(module);
    4918:	69bb      	ldr	r3, [r7, #24]
    491a:	695b      	ldr	r3, [r3, #20]
    491c:	69ba      	ldr	r2, [r7, #24]
    491e:	0010      	movs	r0, r2
    4920:	4798      	blx	r3
    4922:	e04a      	b.n	49ba <_usart_interrupt_handler+0x2ae>

			} else {

				/* Read current packet from DATA register,
				 * increment buffer pointer and decrement buffer length */
				uint16_t received_data = (usart_hw->DATA.reg & SERCOM_USART_DATA_MASK);
    4924:	697b      	ldr	r3, [r7, #20]
    4926:	8d1b      	ldrh	r3, [r3, #40]	; 0x28
    4928:	b29a      	uxth	r2, r3
    492a:	230e      	movs	r3, #14
    492c:	18fb      	adds	r3, r7, r3
    492e:	05d2      	lsls	r2, r2, #23
    4930:	0dd2      	lsrs	r2, r2, #23
    4932:	801a      	strh	r2, [r3, #0]

				/* Read value will be at least 8-bits long */
				*(module->rx_buffer_ptr) = received_data;
    4934:	69bb      	ldr	r3, [r7, #24]
    4936:	6a5b      	ldr	r3, [r3, #36]	; 0x24
    4938:	220e      	movs	r2, #14
    493a:	18ba      	adds	r2, r7, r2
    493c:	8812      	ldrh	r2, [r2, #0]
    493e:	b2d2      	uxtb	r2, r2
    4940:	701a      	strb	r2, [r3, #0]
				/* Increment 8-bit pointer */
				module->rx_buffer_ptr += 1;
    4942:	69bb      	ldr	r3, [r7, #24]
    4944:	6a5b      	ldr	r3, [r3, #36]	; 0x24
    4946:	1c5a      	adds	r2, r3, #1
    4948:	69bb      	ldr	r3, [r7, #24]
    494a:	625a      	str	r2, [r3, #36]	; 0x24

				if (module->character_size == USART_CHARACTER_SIZE_9BIT) {
    494c:	69bb      	ldr	r3, [r7, #24]
    494e:	795b      	ldrb	r3, [r3, #5]
    4950:	2b01      	cmp	r3, #1
    4952:	d10d      	bne.n	4970 <_usart_interrupt_handler+0x264>
					/* 9-bit data, write next received byte to the buffer */
					*(module->rx_buffer_ptr) = (received_data >> 8);
    4954:	69bb      	ldr	r3, [r7, #24]
    4956:	6a5b      	ldr	r3, [r3, #36]	; 0x24
    4958:	220e      	movs	r2, #14
    495a:	18ba      	adds	r2, r7, r2
    495c:	8812      	ldrh	r2, [r2, #0]
    495e:	0a12      	lsrs	r2, r2, #8
    4960:	b292      	uxth	r2, r2
    4962:	b2d2      	uxtb	r2, r2
    4964:	701a      	strb	r2, [r3, #0]
					/* Increment 8-bit pointer */
					module->rx_buffer_ptr += 1;
    4966:	69bb      	ldr	r3, [r7, #24]
    4968:	6a5b      	ldr	r3, [r3, #36]	; 0x24
    496a:	1c5a      	adds	r2, r3, #1
    496c:	69bb      	ldr	r3, [r7, #24]
    496e:	625a      	str	r2, [r3, #36]	; 0x24
				}

				/* Check if the last character have been received */
				if(--(module->remaining_rx_buffer_length) == 0) {
    4970:	69bb      	ldr	r3, [r7, #24]
    4972:	8d9b      	ldrh	r3, [r3, #44]	; 0x2c
    4974:	b29b      	uxth	r3, r3
    4976:	3b01      	subs	r3, #1
    4978:	b29b      	uxth	r3, r3
    497a:	69ba      	ldr	r2, [r7, #24]
    497c:	1c19      	adds	r1, r3, #0
    497e:	8591      	strh	r1, [r2, #44]	; 0x2c
    4980:	2b00      	cmp	r3, #0
    4982:	d11a      	bne.n	49ba <_usart_interrupt_handler+0x2ae>
					/* Disable RX Complete Interrupt,
					 * and set STATUS_OK */
					usart_hw->INTENCLR.reg = SERCOM_USART_INTFLAG_RXC;
    4984:	697b      	ldr	r3, [r7, #20]
    4986:	2204      	movs	r2, #4
    4988:	751a      	strb	r2, [r3, #20]
					module->rx_status = STATUS_OK;
    498a:	69bb      	ldr	r3, [r7, #24]
    498c:	2232      	movs	r2, #50	; 0x32
    498e:	2100      	movs	r1, #0
    4990:	5499      	strb	r1, [r3, r2]

					/* Run callback if registered and enabled */
					if (callback_status
							& (1 << USART_CALLBACK_BUFFER_RECEIVED)) {
    4992:	2310      	movs	r3, #16
    4994:	18fb      	adds	r3, r7, r3
    4996:	881b      	ldrh	r3, [r3, #0]
    4998:	2202      	movs	r2, #2
    499a:	4013      	ands	r3, r2
					if (callback_status
    499c:	d00d      	beq.n	49ba <_usart_interrupt_handler+0x2ae>
						(*(module->callback[USART_CALLBACK_BUFFER_RECEIVED]))(module);
    499e:	69bb      	ldr	r3, [r7, #24]
    49a0:	691b      	ldr	r3, [r3, #16]
    49a2:	69ba      	ldr	r2, [r7, #24]
    49a4:	0010      	movs	r0, r2
    49a6:	4798      	blx	r3
    49a8:	e007      	b.n	49ba <_usart_interrupt_handler+0x2ae>
    49aa:	46c0      	nop			; (mov r8, r8)
    49ac:	200038bc 	.word	0x200038bc
    49b0:	000044ed 	.word	0x000044ed
					}
				}
			}
		} else {
			/* This should not happen. Disable Receive Complete interrupt. */
			usart_hw->INTENCLR.reg = SERCOM_USART_INTFLAG_RXC;
    49b4:	697b      	ldr	r3, [r7, #20]
    49b6:	2204      	movs	r2, #4
    49b8:	751a      	strb	r2, [r3, #20]
		}
	}

#ifdef FEATURE_USART_HARDWARE_FLOW_CONTROL
	if (interrupt_status & SERCOM_USART_INTFLAG_CTSIC) {
    49ba:	2312      	movs	r3, #18
    49bc:	18fb      	adds	r3, r7, r3
    49be:	881b      	ldrh	r3, [r3, #0]
    49c0:	2210      	movs	r2, #16
    49c2:	4013      	ands	r3, r2
    49c4:	d010      	beq.n	49e8 <_usart_interrupt_handler+0x2dc>
		/* Disable interrupts */
		usart_hw->INTENCLR.reg = SERCOM_USART_INTENCLR_CTSIC;
    49c6:	697b      	ldr	r3, [r7, #20]
    49c8:	2210      	movs	r2, #16
    49ca:	751a      	strb	r2, [r3, #20]
		/* Clear interrupt flag */
		usart_hw->INTFLAG.reg = SERCOM_USART_INTFLAG_CTSIC;
    49cc:	697b      	ldr	r3, [r7, #20]
    49ce:	2210      	movs	r2, #16
    49d0:	761a      	strb	r2, [r3, #24]

		/* Run callback if registered and enabled */
		if (callback_status & (1 << USART_CALLBACK_CTS_INPUT_CHANGE)) {
    49d2:	2310      	movs	r3, #16
    49d4:	18fb      	adds	r3, r7, r3
    49d6:	881b      	ldrh	r3, [r3, #0]
    49d8:	2210      	movs	r2, #16
    49da:	4013      	ands	r3, r2
    49dc:	d004      	beq.n	49e8 <_usart_interrupt_handler+0x2dc>
			(*(module->callback[USART_CALLBACK_CTS_INPUT_CHANGE]))(module);
    49de:	69bb      	ldr	r3, [r7, #24]
    49e0:	69db      	ldr	r3, [r3, #28]
    49e2:	69ba      	ldr	r2, [r7, #24]
    49e4:	0010      	movs	r0, r2
    49e6:	4798      	blx	r3
		}
	}
#endif

#ifdef FEATURE_USART_LIN_SLAVE
	if (interrupt_status & SERCOM_USART_INTFLAG_RXBRK) {
    49e8:	2312      	movs	r3, #18
    49ea:	18fb      	adds	r3, r7, r3
    49ec:	881b      	ldrh	r3, [r3, #0]
    49ee:	2220      	movs	r2, #32
    49f0:	4013      	ands	r3, r2
    49f2:	d010      	beq.n	4a16 <_usart_interrupt_handler+0x30a>
		/* Disable interrupts */
		usart_hw->INTENCLR.reg = SERCOM_USART_INTENCLR_RXBRK;
    49f4:	697b      	ldr	r3, [r7, #20]
    49f6:	2220      	movs	r2, #32
    49f8:	751a      	strb	r2, [r3, #20]
		/* Clear interrupt flag */
		usart_hw->INTFLAG.reg = SERCOM_USART_INTFLAG_RXBRK;
    49fa:	697b      	ldr	r3, [r7, #20]
    49fc:	2220      	movs	r2, #32
    49fe:	761a      	strb	r2, [r3, #24]

		/* Run callback if registered and enabled */
		if (callback_status & (1 << USART_CALLBACK_BREAK_RECEIVED)) {
    4a00:	2310      	movs	r3, #16
    4a02:	18fb      	adds	r3, r7, r3
    4a04:	881b      	ldrh	r3, [r3, #0]
    4a06:	2208      	movs	r2, #8
    4a08:	4013      	ands	r3, r2
    4a0a:	d004      	beq.n	4a16 <_usart_interrupt_handler+0x30a>
			(*(module->callback[USART_CALLBACK_BREAK_RECEIVED]))(module);
    4a0c:	69bb      	ldr	r3, [r7, #24]
    4a0e:	699b      	ldr	r3, [r3, #24]
    4a10:	69ba      	ldr	r2, [r7, #24]
    4a12:	0010      	movs	r0, r2
    4a14:	4798      	blx	r3
		}
	}
#endif

#ifdef FEATURE_USART_START_FRAME_DECTION
	if (interrupt_status & SERCOM_USART_INTFLAG_RXS) {
    4a16:	2312      	movs	r3, #18
    4a18:	18fb      	adds	r3, r7, r3
    4a1a:	881b      	ldrh	r3, [r3, #0]
    4a1c:	2208      	movs	r2, #8
    4a1e:	4013      	ands	r3, r2
    4a20:	d010      	beq.n	4a44 <_usart_interrupt_handler+0x338>
		/* Disable interrupts */
		usart_hw->INTENCLR.reg = SERCOM_USART_INTENCLR_RXS;
    4a22:	697b      	ldr	r3, [r7, #20]
    4a24:	2208      	movs	r2, #8
    4a26:	751a      	strb	r2, [r3, #20]
		/* Clear interrupt flag */
		usart_hw->INTFLAG.reg = SERCOM_USART_INTFLAG_RXS;
    4a28:	697b      	ldr	r3, [r7, #20]
    4a2a:	2208      	movs	r2, #8
    4a2c:	761a      	strb	r2, [r3, #24]

		/* Run callback if registered and enabled */
		if (callback_status & (1 << USART_CALLBACK_START_RECEIVED)) {
    4a2e:	2310      	movs	r3, #16
    4a30:	18fb      	adds	r3, r7, r3
    4a32:	881b      	ldrh	r3, [r3, #0]
    4a34:	2220      	movs	r2, #32
    4a36:	4013      	ands	r3, r2
    4a38:	d004      	beq.n	4a44 <_usart_interrupt_handler+0x338>
			(*(module->callback[USART_CALLBACK_START_RECEIVED]))(module);
    4a3a:	69bb      	ldr	r3, [r7, #24]
    4a3c:	6a1b      	ldr	r3, [r3, #32]
    4a3e:	69ba      	ldr	r2, [r7, #24]
    4a40:	0010      	movs	r0, r2
    4a42:	4798      	blx	r3
		}
	}
#endif
}
    4a44:	46c0      	nop			; (mov r8, r8)
    4a46:	46bd      	mov	sp, r7
    4a48:	b008      	add	sp, #32
    4a4a:	bd80      	pop	{r7, pc}

00004a4c <_sercom_default_handler>:
 *
 * \param[in] instance SERCOM instance used.
 */
static void _sercom_default_handler(
		const uint8_t instance)
{
    4a4c:	b580      	push	{r7, lr}
    4a4e:	b082      	sub	sp, #8
    4a50:	af00      	add	r7, sp, #0
    4a52:	0002      	movs	r2, r0
    4a54:	1dfb      	adds	r3, r7, #7
    4a56:	701a      	strb	r2, [r3, #0]
	Assert(false);
}
    4a58:	46c0      	nop			; (mov r8, r8)
    4a5a:	46bd      	mov	sp, r7
    4a5c:	b002      	add	sp, #8
    4a5e:	bd80      	pop	{r7, pc}

00004a60 <_sercom_set_handler>:
 * \param[in]  interrupt_handler  Pointer to instance callback handler.
 */
void _sercom_set_handler(
		const uint8_t instance,
		const sercom_handler_t interrupt_handler)
{
    4a60:	b580      	push	{r7, lr}
    4a62:	b084      	sub	sp, #16
    4a64:	af00      	add	r7, sp, #0
    4a66:	0002      	movs	r2, r0
    4a68:	6039      	str	r1, [r7, #0]
    4a6a:	1dfb      	adds	r3, r7, #7
    4a6c:	701a      	strb	r2, [r3, #0]
	/* Initialize handlers with default handler and device instances with 0 */
	if (_handler_table_initialized == false) {
    4a6e:	4b13      	ldr	r3, [pc, #76]	; (4abc <_sercom_set_handler+0x5c>)
    4a70:	781b      	ldrb	r3, [r3, #0]
    4a72:	2201      	movs	r2, #1
    4a74:	4053      	eors	r3, r2
    4a76:	b2db      	uxtb	r3, r3
    4a78:	2b00      	cmp	r3, #0
    4a7a:	d015      	beq.n	4aa8 <_sercom_set_handler+0x48>
		for (uint32_t i = 0; i < SERCOM_INST_NUM; i++) {
    4a7c:	2300      	movs	r3, #0
    4a7e:	60fb      	str	r3, [r7, #12]
    4a80:	e00c      	b.n	4a9c <_sercom_set_handler+0x3c>
			_sercom_interrupt_handlers[i] = &_sercom_default_handler;
    4a82:	4b0f      	ldr	r3, [pc, #60]	; (4ac0 <_sercom_set_handler+0x60>)
    4a84:	68fa      	ldr	r2, [r7, #12]
    4a86:	0092      	lsls	r2, r2, #2
    4a88:	490e      	ldr	r1, [pc, #56]	; (4ac4 <_sercom_set_handler+0x64>)
    4a8a:	50d1      	str	r1, [r2, r3]
			_sercom_instances[i] = NULL;
    4a8c:	4b0e      	ldr	r3, [pc, #56]	; (4ac8 <_sercom_set_handler+0x68>)
    4a8e:	68fa      	ldr	r2, [r7, #12]
    4a90:	0092      	lsls	r2, r2, #2
    4a92:	2100      	movs	r1, #0
    4a94:	50d1      	str	r1, [r2, r3]
		for (uint32_t i = 0; i < SERCOM_INST_NUM; i++) {
    4a96:	68fb      	ldr	r3, [r7, #12]
    4a98:	3301      	adds	r3, #1
    4a9a:	60fb      	str	r3, [r7, #12]
    4a9c:	68fb      	ldr	r3, [r7, #12]
    4a9e:	2b05      	cmp	r3, #5
    4aa0:	d9ef      	bls.n	4a82 <_sercom_set_handler+0x22>
		}

		_handler_table_initialized = true;
    4aa2:	4b06      	ldr	r3, [pc, #24]	; (4abc <_sercom_set_handler+0x5c>)
    4aa4:	2201      	movs	r2, #1
    4aa6:	701a      	strb	r2, [r3, #0]
	}

	/* Save interrupt handler */
	_sercom_interrupt_handlers[instance] = interrupt_handler;
    4aa8:	1dfb      	adds	r3, r7, #7
    4aaa:	781a      	ldrb	r2, [r3, #0]
    4aac:	4b04      	ldr	r3, [pc, #16]	; (4ac0 <_sercom_set_handler+0x60>)
    4aae:	0092      	lsls	r2, r2, #2
    4ab0:	6839      	ldr	r1, [r7, #0]
    4ab2:	50d1      	str	r1, [r2, r3]
}
    4ab4:	46c0      	nop			; (mov r8, r8)
    4ab6:	46bd      	mov	sp, r7
    4ab8:	b004      	add	sp, #16
    4aba:	bd80      	pop	{r7, pc}
    4abc:	200033a4 	.word	0x200033a4
    4ac0:	200033a8 	.word	0x200033a8
    4ac4:	00004a4d 	.word	0x00004a4d
    4ac8:	200038bc 	.word	0x200038bc

00004acc <_sercom_get_interrupt_vector>:
 * \retval SYSTEM_INTERRUPT_MODULE_SERCOM6
 * \retval SYSTEM_INTERRUPT_MODULE_SERCOM7
 */
enum system_interrupt_vector _sercom_get_interrupt_vector(
		Sercom *const sercom_instance)
{
    4acc:	b590      	push	{r4, r7, lr}
    4ace:	b085      	sub	sp, #20
    4ad0:	af00      	add	r7, sp, #0
    4ad2:	6078      	str	r0, [r7, #4]
	const uint8_t sercom_int_vectors[SERCOM_INST_NUM] =
    4ad4:	2308      	movs	r3, #8
    4ad6:	18fb      	adds	r3, r7, r3
    4ad8:	4a0b      	ldr	r2, [pc, #44]	; (4b08 <_sercom_get_interrupt_vector+0x3c>)
    4ada:	6811      	ldr	r1, [r2, #0]
    4adc:	6019      	str	r1, [r3, #0]
    4ade:	8892      	ldrh	r2, [r2, #4]
    4ae0:	809a      	strh	r2, [r3, #4]
		{
			MREPEAT(SERCOM_INST_NUM, _SERCOM_INTERRUPT_VECT_NUM, ~)
		};

	/* Retrieve the index of the SERCOM being requested */
	uint8_t instance_index = _sercom_get_sercom_inst_index(sercom_instance);
    4ae2:	230f      	movs	r3, #15
    4ae4:	18fc      	adds	r4, r7, r3
    4ae6:	687b      	ldr	r3, [r7, #4]
    4ae8:	0018      	movs	r0, r3
    4aea:	4b08      	ldr	r3, [pc, #32]	; (4b0c <_sercom_get_interrupt_vector+0x40>)
    4aec:	4798      	blx	r3
    4aee:	0003      	movs	r3, r0
    4af0:	7023      	strb	r3, [r4, #0]

	/* Get the vector number from the lookup table for the requested SERCOM */
	return (enum system_interrupt_vector)sercom_int_vectors[instance_index];
    4af2:	230f      	movs	r3, #15
    4af4:	18fb      	adds	r3, r7, r3
    4af6:	781b      	ldrb	r3, [r3, #0]
    4af8:	2208      	movs	r2, #8
    4afa:	18ba      	adds	r2, r7, r2
    4afc:	5cd3      	ldrb	r3, [r2, r3]
    4afe:	b25b      	sxtb	r3, r3
}
    4b00:	0018      	movs	r0, r3
    4b02:	46bd      	mov	sp, r7
    4b04:	b005      	add	sp, #20
    4b06:	bd90      	pop	{r4, r7, pc}
    4b08:	0000647c 	.word	0x0000647c
    4b0c:	000008f9 	.word	0x000008f9

00004b10 <SERCOM0_Handler>:

/** Auto-generate a set of interrupt handlers for each SERCOM in the device */
MREPEAT(SERCOM_INST_NUM, _SERCOM_INTERRUPT_HANDLER, ~)
    4b10:	b580      	push	{r7, lr}
    4b12:	af00      	add	r7, sp, #0
    4b14:	4b03      	ldr	r3, [pc, #12]	; (4b24 <SERCOM0_Handler+0x14>)
    4b16:	681b      	ldr	r3, [r3, #0]
    4b18:	2000      	movs	r0, #0
    4b1a:	4798      	blx	r3
    4b1c:	46c0      	nop			; (mov r8, r8)
    4b1e:	46bd      	mov	sp, r7
    4b20:	bd80      	pop	{r7, pc}
    4b22:	46c0      	nop			; (mov r8, r8)
    4b24:	200033a8 	.word	0x200033a8

00004b28 <SERCOM1_Handler>:
    4b28:	b580      	push	{r7, lr}
    4b2a:	af00      	add	r7, sp, #0
    4b2c:	4b03      	ldr	r3, [pc, #12]	; (4b3c <SERCOM1_Handler+0x14>)
    4b2e:	685b      	ldr	r3, [r3, #4]
    4b30:	2001      	movs	r0, #1
    4b32:	4798      	blx	r3
    4b34:	46c0      	nop			; (mov r8, r8)
    4b36:	46bd      	mov	sp, r7
    4b38:	bd80      	pop	{r7, pc}
    4b3a:	46c0      	nop			; (mov r8, r8)
    4b3c:	200033a8 	.word	0x200033a8

00004b40 <SERCOM2_Handler>:
    4b40:	b580      	push	{r7, lr}
    4b42:	af00      	add	r7, sp, #0
    4b44:	4b03      	ldr	r3, [pc, #12]	; (4b54 <SERCOM2_Handler+0x14>)
    4b46:	689b      	ldr	r3, [r3, #8]
    4b48:	2002      	movs	r0, #2
    4b4a:	4798      	blx	r3
    4b4c:	46c0      	nop			; (mov r8, r8)
    4b4e:	46bd      	mov	sp, r7
    4b50:	bd80      	pop	{r7, pc}
    4b52:	46c0      	nop			; (mov r8, r8)
    4b54:	200033a8 	.word	0x200033a8

00004b58 <SERCOM3_Handler>:
    4b58:	b580      	push	{r7, lr}
    4b5a:	af00      	add	r7, sp, #0
    4b5c:	4b03      	ldr	r3, [pc, #12]	; (4b6c <SERCOM3_Handler+0x14>)
    4b5e:	68db      	ldr	r3, [r3, #12]
    4b60:	2003      	movs	r0, #3
    4b62:	4798      	blx	r3
    4b64:	46c0      	nop			; (mov r8, r8)
    4b66:	46bd      	mov	sp, r7
    4b68:	bd80      	pop	{r7, pc}
    4b6a:	46c0      	nop			; (mov r8, r8)
    4b6c:	200033a8 	.word	0x200033a8

00004b70 <SERCOM4_Handler>:
    4b70:	b580      	push	{r7, lr}
    4b72:	af00      	add	r7, sp, #0
    4b74:	4b03      	ldr	r3, [pc, #12]	; (4b84 <SERCOM4_Handler+0x14>)
    4b76:	691b      	ldr	r3, [r3, #16]
    4b78:	2004      	movs	r0, #4
    4b7a:	4798      	blx	r3
    4b7c:	46c0      	nop			; (mov r8, r8)
    4b7e:	46bd      	mov	sp, r7
    4b80:	bd80      	pop	{r7, pc}
    4b82:	46c0      	nop			; (mov r8, r8)
    4b84:	200033a8 	.word	0x200033a8

00004b88 <SERCOM5_Handler>:
    4b88:	b580      	push	{r7, lr}
    4b8a:	af00      	add	r7, sp, #0
    4b8c:	4b03      	ldr	r3, [pc, #12]	; (4b9c <SERCOM5_Handler+0x14>)
    4b8e:	695b      	ldr	r3, [r3, #20]
    4b90:	2005      	movs	r0, #5
    4b92:	4798      	blx	r3
    4b94:	46c0      	nop			; (mov r8, r8)
    4b96:	46bd      	mov	sp, r7
    4b98:	bd80      	pop	{r7, pc}
    4b9a:	46c0      	nop			; (mov r8, r8)
    4b9c:	200033a8 	.word	0x200033a8

00004ba0 <system_gclk_gen_get_config_defaults>:
{
    4ba0:	b580      	push	{r7, lr}
    4ba2:	b082      	sub	sp, #8
    4ba4:	af00      	add	r7, sp, #0
    4ba6:	6078      	str	r0, [r7, #4]
	config->division_factor    = 1;
    4ba8:	687b      	ldr	r3, [r7, #4]
    4baa:	2201      	movs	r2, #1
    4bac:	605a      	str	r2, [r3, #4]
	config->high_when_disabled = false;
    4bae:	687b      	ldr	r3, [r7, #4]
    4bb0:	2200      	movs	r2, #0
    4bb2:	705a      	strb	r2, [r3, #1]
	config->source_clock       = GCLK_SOURCE_OSC8M;
    4bb4:	687b      	ldr	r3, [r7, #4]
    4bb6:	2206      	movs	r2, #6
    4bb8:	701a      	strb	r2, [r3, #0]
	config->run_in_standby     = false;
    4bba:	687b      	ldr	r3, [r7, #4]
    4bbc:	2200      	movs	r2, #0
    4bbe:	721a      	strb	r2, [r3, #8]
	config->output_enable      = false;
    4bc0:	687b      	ldr	r3, [r7, #4]
    4bc2:	2200      	movs	r2, #0
    4bc4:	725a      	strb	r2, [r3, #9]
}
    4bc6:	46c0      	nop			; (mov r8, r8)
    4bc8:	46bd      	mov	sp, r7
    4bca:	b002      	add	sp, #8
    4bcc:	bd80      	pop	{r7, pc}

00004bce <system_clock_source_osc8m_get_config_defaults>:
{
    4bce:	b580      	push	{r7, lr}
    4bd0:	b082      	sub	sp, #8
    4bd2:	af00      	add	r7, sp, #0
    4bd4:	6078      	str	r0, [r7, #4]
	config->prescaler       = SYSTEM_OSC8M_DIV_8;
    4bd6:	687b      	ldr	r3, [r7, #4]
    4bd8:	2203      	movs	r2, #3
    4bda:	701a      	strb	r2, [r3, #0]
	config->run_in_standby  = false;
    4bdc:	687b      	ldr	r3, [r7, #4]
    4bde:	2200      	movs	r2, #0
    4be0:	705a      	strb	r2, [r3, #1]
	config->on_demand       = true;
    4be2:	687b      	ldr	r3, [r7, #4]
    4be4:	2201      	movs	r2, #1
    4be6:	709a      	strb	r2, [r3, #2]
}
    4be8:	46c0      	nop			; (mov r8, r8)
    4bea:	46bd      	mov	sp, r7
    4bec:	b002      	add	sp, #8
    4bee:	bd80      	pop	{r7, pc}

00004bf0 <system_cpu_clock_set_divider>:
{
    4bf0:	b580      	push	{r7, lr}
    4bf2:	b082      	sub	sp, #8
    4bf4:	af00      	add	r7, sp, #0
    4bf6:	0002      	movs	r2, r0
    4bf8:	1dfb      	adds	r3, r7, #7
    4bfa:	701a      	strb	r2, [r3, #0]
	PM->CPUSEL.reg = (uint32_t)divider;
    4bfc:	4a03      	ldr	r2, [pc, #12]	; (4c0c <system_cpu_clock_set_divider+0x1c>)
    4bfe:	1dfb      	adds	r3, r7, #7
    4c00:	781b      	ldrb	r3, [r3, #0]
    4c02:	7213      	strb	r3, [r2, #8]
}
    4c04:	46c0      	nop			; (mov r8, r8)
    4c06:	46bd      	mov	sp, r7
    4c08:	b002      	add	sp, #8
    4c0a:	bd80      	pop	{r7, pc}
    4c0c:	40000400 	.word	0x40000400

00004c10 <system_apb_clock_set_divider>:
{
    4c10:	b580      	push	{r7, lr}
    4c12:	b082      	sub	sp, #8
    4c14:	af00      	add	r7, sp, #0
    4c16:	0002      	movs	r2, r0
    4c18:	1dfb      	adds	r3, r7, #7
    4c1a:	701a      	strb	r2, [r3, #0]
    4c1c:	1dbb      	adds	r3, r7, #6
    4c1e:	1c0a      	adds	r2, r1, #0
    4c20:	701a      	strb	r2, [r3, #0]
	switch (bus) {
    4c22:	1dfb      	adds	r3, r7, #7
    4c24:	781b      	ldrb	r3, [r3, #0]
    4c26:	2b01      	cmp	r3, #1
    4c28:	d008      	beq.n	4c3c <system_apb_clock_set_divider+0x2c>
    4c2a:	2b02      	cmp	r3, #2
    4c2c:	d00b      	beq.n	4c46 <system_apb_clock_set_divider+0x36>
    4c2e:	2b00      	cmp	r3, #0
    4c30:	d10e      	bne.n	4c50 <system_apb_clock_set_divider+0x40>
			PM->APBASEL.reg = (uint32_t)divider;
    4c32:	4a0b      	ldr	r2, [pc, #44]	; (4c60 <system_apb_clock_set_divider+0x50>)
    4c34:	1dbb      	adds	r3, r7, #6
    4c36:	781b      	ldrb	r3, [r3, #0]
    4c38:	7253      	strb	r3, [r2, #9]
			break;
    4c3a:	e00b      	b.n	4c54 <system_apb_clock_set_divider+0x44>
			PM->APBBSEL.reg = (uint32_t)divider;
    4c3c:	4a08      	ldr	r2, [pc, #32]	; (4c60 <system_apb_clock_set_divider+0x50>)
    4c3e:	1dbb      	adds	r3, r7, #6
    4c40:	781b      	ldrb	r3, [r3, #0]
    4c42:	7293      	strb	r3, [r2, #10]
			break;
    4c44:	e006      	b.n	4c54 <system_apb_clock_set_divider+0x44>
			PM->APBCSEL.reg = (uint32_t)divider;
    4c46:	4a06      	ldr	r2, [pc, #24]	; (4c60 <system_apb_clock_set_divider+0x50>)
    4c48:	1dbb      	adds	r3, r7, #6
    4c4a:	781b      	ldrb	r3, [r3, #0]
    4c4c:	72d3      	strb	r3, [r2, #11]
			break;
    4c4e:	e001      	b.n	4c54 <system_apb_clock_set_divider+0x44>
			return STATUS_ERR_INVALID_ARG;
    4c50:	2317      	movs	r3, #23
    4c52:	e000      	b.n	4c56 <system_apb_clock_set_divider+0x46>
	return STATUS_OK;
    4c54:	2300      	movs	r3, #0
}
    4c56:	0018      	movs	r0, r3
    4c58:	46bd      	mov	sp, r7
    4c5a:	b002      	add	sp, #8
    4c5c:	bd80      	pop	{r7, pc}
    4c5e:	46c0      	nop			; (mov r8, r8)
    4c60:	40000400 	.word	0x40000400

00004c64 <system_flash_set_waitstates>:
 * can be found in the electrical characteristics of the device.
 *
 * \param[in] wait_states Number of wait states to use for internal flash
 */
static inline void system_flash_set_waitstates(uint8_t wait_states)
{
    4c64:	b580      	push	{r7, lr}
    4c66:	b082      	sub	sp, #8
    4c68:	af00      	add	r7, sp, #0
    4c6a:	0002      	movs	r2, r0
    4c6c:	1dfb      	adds	r3, r7, #7
    4c6e:	701a      	strb	r2, [r3, #0]
	Assert(NVMCTRL_CTRLB_RWS((uint32_t)wait_states) ==
			((uint32_t)wait_states << NVMCTRL_CTRLB_RWS_Pos));

	NVMCTRL->CTRLB.bit.RWS = wait_states;
    4c70:	4a08      	ldr	r2, [pc, #32]	; (4c94 <system_flash_set_waitstates+0x30>)
    4c72:	1dfb      	adds	r3, r7, #7
    4c74:	781b      	ldrb	r3, [r3, #0]
    4c76:	210f      	movs	r1, #15
    4c78:	400b      	ands	r3, r1
    4c7a:	b2d9      	uxtb	r1, r3
    4c7c:	6853      	ldr	r3, [r2, #4]
    4c7e:	200f      	movs	r0, #15
    4c80:	4001      	ands	r1, r0
    4c82:	0049      	lsls	r1, r1, #1
    4c84:	201e      	movs	r0, #30
    4c86:	4383      	bics	r3, r0
    4c88:	430b      	orrs	r3, r1
    4c8a:	6053      	str	r3, [r2, #4]
}
    4c8c:	46c0      	nop			; (mov r8, r8)
    4c8e:	46bd      	mov	sp, r7
    4c90:	b002      	add	sp, #8
    4c92:	bd80      	pop	{r7, pc}
    4c94:	41004000 	.word	0x41004000

00004c98 <_system_dfll_wait_for_sync>:
/**
 * \internal
 * \brief Wait for sync to the DFLL control registers.
 */
static inline void _system_dfll_wait_for_sync(void)
{
    4c98:	b580      	push	{r7, lr}
    4c9a:	af00      	add	r7, sp, #0
	while (!(SYSCTRL->PCLKSR.reg & SYSCTRL_PCLKSR_DFLLRDY)) {
    4c9c:	46c0      	nop			; (mov r8, r8)
    4c9e:	4b04      	ldr	r3, [pc, #16]	; (4cb0 <_system_dfll_wait_for_sync+0x18>)
    4ca0:	68db      	ldr	r3, [r3, #12]
    4ca2:	2210      	movs	r2, #16
    4ca4:	4013      	ands	r3, r2
    4ca6:	d0fa      	beq.n	4c9e <_system_dfll_wait_for_sync+0x6>
		/* Wait for DFLL sync */
	}
}
    4ca8:	46c0      	nop			; (mov r8, r8)
    4caa:	46bd      	mov	sp, r7
    4cac:	bd80      	pop	{r7, pc}
    4cae:	46c0      	nop			; (mov r8, r8)
    4cb0:	40000800 	.word	0x40000800

00004cb4 <_system_clock_source_dfll_set_config_errata_9905>:
		/* Wait for OSC32K sync */
	}
}

static inline void _system_clock_source_dfll_set_config_errata_9905(void)
{
    4cb4:	b580      	push	{r7, lr}
    4cb6:	af00      	add	r7, sp, #0

	/* Disable ONDEMAND mode while writing configurations */
	SYSCTRL->DFLLCTRL.reg = SYSCTRL_DFLLCTRL_ENABLE;
    4cb8:	4b0c      	ldr	r3, [pc, #48]	; (4cec <_system_clock_source_dfll_set_config_errata_9905+0x38>)
    4cba:	2202      	movs	r2, #2
    4cbc:	849a      	strh	r2, [r3, #36]	; 0x24
	_system_dfll_wait_for_sync();
    4cbe:	4b0c      	ldr	r3, [pc, #48]	; (4cf0 <_system_clock_source_dfll_set_config_errata_9905+0x3c>)
    4cc0:	4798      	blx	r3

	SYSCTRL->DFLLMUL.reg = _system_clock_inst.dfll.mul;
    4cc2:	4a0a      	ldr	r2, [pc, #40]	; (4cec <_system_clock_source_dfll_set_config_errata_9905+0x38>)
    4cc4:	4b0b      	ldr	r3, [pc, #44]	; (4cf4 <_system_clock_source_dfll_set_config_errata_9905+0x40>)
    4cc6:	689b      	ldr	r3, [r3, #8]
    4cc8:	62d3      	str	r3, [r2, #44]	; 0x2c
	SYSCTRL->DFLLVAL.reg = _system_clock_inst.dfll.val;
    4cca:	4a08      	ldr	r2, [pc, #32]	; (4cec <_system_clock_source_dfll_set_config_errata_9905+0x38>)
    4ccc:	4b09      	ldr	r3, [pc, #36]	; (4cf4 <_system_clock_source_dfll_set_config_errata_9905+0x40>)
    4cce:	685b      	ldr	r3, [r3, #4]
    4cd0:	6293      	str	r3, [r2, #40]	; 0x28

	/* Write full configuration to DFLL control register */
	SYSCTRL->DFLLCTRL.reg = 0;
    4cd2:	4b06      	ldr	r3, [pc, #24]	; (4cec <_system_clock_source_dfll_set_config_errata_9905+0x38>)
    4cd4:	2200      	movs	r2, #0
    4cd6:	849a      	strh	r2, [r3, #36]	; 0x24
	_system_dfll_wait_for_sync();
    4cd8:	4b05      	ldr	r3, [pc, #20]	; (4cf0 <_system_clock_source_dfll_set_config_errata_9905+0x3c>)
    4cda:	4798      	blx	r3
	SYSCTRL->DFLLCTRL.reg = _system_clock_inst.dfll.control;
    4cdc:	4a03      	ldr	r2, [pc, #12]	; (4cec <_system_clock_source_dfll_set_config_errata_9905+0x38>)
    4cde:	4b05      	ldr	r3, [pc, #20]	; (4cf4 <_system_clock_source_dfll_set_config_errata_9905+0x40>)
    4ce0:	681b      	ldr	r3, [r3, #0]
    4ce2:	b29b      	uxth	r3, r3
    4ce4:	8493      	strh	r3, [r2, #36]	; 0x24
}
    4ce6:	46c0      	nop			; (mov r8, r8)
    4ce8:	46bd      	mov	sp, r7
    4cea:	bd80      	pop	{r7, pc}
    4cec:	40000800 	.word	0x40000800
    4cf0:	00004c99 	.word	0x00004c99
    4cf4:	200033c0 	.word	0x200033c0

00004cf8 <system_clock_source_get_hz>:
 *
 * \returns Frequency of the given clock source, in Hz.
 */
uint32_t system_clock_source_get_hz(
		const enum system_clock_source clock_source)
{
    4cf8:	b580      	push	{r7, lr}
    4cfa:	b082      	sub	sp, #8
    4cfc:	af00      	add	r7, sp, #0
    4cfe:	0002      	movs	r2, r0
    4d00:	1dfb      	adds	r3, r7, #7
    4d02:	701a      	strb	r2, [r3, #0]
	switch (clock_source) {
    4d04:	1dfb      	adds	r3, r7, #7
    4d06:	781b      	ldrb	r3, [r3, #0]
    4d08:	2b08      	cmp	r3, #8
    4d0a:	d841      	bhi.n	4d90 <system_clock_source_get_hz+0x98>
    4d0c:	009a      	lsls	r2, r3, #2
    4d0e:	4b23      	ldr	r3, [pc, #140]	; (4d9c <system_clock_source_get_hz+0xa4>)
    4d10:	18d3      	adds	r3, r2, r3
    4d12:	681b      	ldr	r3, [r3, #0]
    4d14:	469f      	mov	pc, r3
	case SYSTEM_CLOCK_SOURCE_XOSC:
		return _system_clock_inst.xosc.frequency;
    4d16:	4b22      	ldr	r3, [pc, #136]	; (4da0 <system_clock_source_get_hz+0xa8>)
    4d18:	691b      	ldr	r3, [r3, #16]
    4d1a:	e03a      	b.n	4d92 <system_clock_source_get_hz+0x9a>

	case SYSTEM_CLOCK_SOURCE_OSC8M:
		return 8000000UL >> SYSCTRL->OSC8M.bit.PRESC;
    4d1c:	4b21      	ldr	r3, [pc, #132]	; (4da4 <system_clock_source_get_hz+0xac>)
    4d1e:	6a1b      	ldr	r3, [r3, #32]
    4d20:	059b      	lsls	r3, r3, #22
    4d22:	0f9b      	lsrs	r3, r3, #30
    4d24:	b2db      	uxtb	r3, r3
    4d26:	001a      	movs	r2, r3
    4d28:	4b1f      	ldr	r3, [pc, #124]	; (4da8 <system_clock_source_get_hz+0xb0>)
    4d2a:	40d3      	lsrs	r3, r2
    4d2c:	e031      	b.n	4d92 <system_clock_source_get_hz+0x9a>

	case SYSTEM_CLOCK_SOURCE_OSC32K:
		return 32768UL;
    4d2e:	2380      	movs	r3, #128	; 0x80
    4d30:	021b      	lsls	r3, r3, #8
    4d32:	e02e      	b.n	4d92 <system_clock_source_get_hz+0x9a>

	case SYSTEM_CLOCK_SOURCE_ULP32K:
		return 32768UL;
    4d34:	2380      	movs	r3, #128	; 0x80
    4d36:	021b      	lsls	r3, r3, #8
    4d38:	e02b      	b.n	4d92 <system_clock_source_get_hz+0x9a>

	case SYSTEM_CLOCK_SOURCE_XOSC32K:
		return _system_clock_inst.xosc32k.frequency;
    4d3a:	4b19      	ldr	r3, [pc, #100]	; (4da0 <system_clock_source_get_hz+0xa8>)
    4d3c:	695b      	ldr	r3, [r3, #20]
    4d3e:	e028      	b.n	4d92 <system_clock_source_get_hz+0x9a>

	case SYSTEM_CLOCK_SOURCE_DFLL:

		/* Check if the DFLL has been configured */
		if (!(_system_clock_inst.dfll.control & SYSCTRL_DFLLCTRL_ENABLE))
    4d40:	4b17      	ldr	r3, [pc, #92]	; (4da0 <system_clock_source_get_hz+0xa8>)
    4d42:	681b      	ldr	r3, [r3, #0]
    4d44:	2202      	movs	r2, #2
    4d46:	4013      	ands	r3, r2
    4d48:	d101      	bne.n	4d4e <system_clock_source_get_hz+0x56>
			return 0;
    4d4a:	2300      	movs	r3, #0
    4d4c:	e021      	b.n	4d92 <system_clock_source_get_hz+0x9a>

		/* Make sure that the DFLL module is ready */
		_system_dfll_wait_for_sync();
    4d4e:	4b17      	ldr	r3, [pc, #92]	; (4dac <system_clock_source_get_hz+0xb4>)
    4d50:	4798      	blx	r3

		/* Check if operating in closed loop (USB) mode */
		switch(_system_clock_inst.dfll.control &
    4d52:	4b13      	ldr	r3, [pc, #76]	; (4da0 <system_clock_source_get_hz+0xa8>)
    4d54:	681b      	ldr	r3, [r3, #0]
    4d56:	2224      	movs	r2, #36	; 0x24
    4d58:	4013      	ands	r3, r2
    4d5a:	2b04      	cmp	r3, #4
    4d5c:	d109      	bne.n	4d72 <system_clock_source_get_hz+0x7a>
				(SYSCTRL_DFLLCTRL_MODE | SYSCTRL_DFLLCTRL_USBCRM)) {
		case SYSCTRL_DFLLCTRL_MODE:
			return system_gclk_chan_get_hz(SYSCTRL_GCLK_ID_DFLL48) *
    4d5e:	2000      	movs	r0, #0
    4d60:	4b13      	ldr	r3, [pc, #76]	; (4db0 <system_clock_source_get_hz+0xb8>)
    4d62:	4798      	blx	r3
    4d64:	0002      	movs	r2, r0
					(_system_clock_inst.dfll.mul & 0xffff);
    4d66:	4b0e      	ldr	r3, [pc, #56]	; (4da0 <system_clock_source_get_hz+0xa8>)
    4d68:	689b      	ldr	r3, [r3, #8]
    4d6a:	041b      	lsls	r3, r3, #16
    4d6c:	0c1b      	lsrs	r3, r3, #16
			return system_gclk_chan_get_hz(SYSCTRL_GCLK_ID_DFLL48) *
    4d6e:	4353      	muls	r3, r2
    4d70:	e00f      	b.n	4d92 <system_clock_source_get_hz+0x9a>
		default:
			return 48000000UL;
    4d72:	4b10      	ldr	r3, [pc, #64]	; (4db4 <system_clock_source_get_hz+0xbc>)
    4d74:	e00d      	b.n	4d92 <system_clock_source_get_hz+0x9a>
		}

#ifdef FEATURE_SYSTEM_CLOCK_DPLL
	case SYSTEM_CLOCK_SOURCE_DPLL:
		if (!(SYSCTRL->DPLLSTATUS.reg & SYSCTRL_DPLLSTATUS_ENABLE)) {
    4d76:	4a0b      	ldr	r2, [pc, #44]	; (4da4 <system_clock_source_get_hz+0xac>)
    4d78:	2350      	movs	r3, #80	; 0x50
    4d7a:	5cd3      	ldrb	r3, [r2, r3]
    4d7c:	b2db      	uxtb	r3, r3
    4d7e:	001a      	movs	r2, r3
    4d80:	2304      	movs	r3, #4
    4d82:	4013      	ands	r3, r2
    4d84:	d101      	bne.n	4d8a <system_clock_source_get_hz+0x92>
			return 0;
    4d86:	2300      	movs	r3, #0
    4d88:	e003      	b.n	4d92 <system_clock_source_get_hz+0x9a>
		}

		return _system_clock_inst.dpll.frequency;
    4d8a:	4b05      	ldr	r3, [pc, #20]	; (4da0 <system_clock_source_get_hz+0xa8>)
    4d8c:	68db      	ldr	r3, [r3, #12]
    4d8e:	e000      	b.n	4d92 <system_clock_source_get_hz+0x9a>
#endif

	default:
		return 0;
    4d90:	2300      	movs	r3, #0
	}
}
    4d92:	0018      	movs	r0, r3
    4d94:	46bd      	mov	sp, r7
    4d96:	b002      	add	sp, #8
    4d98:	bd80      	pop	{r7, pc}
    4d9a:	46c0      	nop			; (mov r8, r8)
    4d9c:	00006484 	.word	0x00006484
    4da0:	200033c0 	.word	0x200033c0
    4da4:	40000800 	.word	0x40000800
    4da8:	007a1200 	.word	0x007a1200
    4dac:	00004c99 	.word	0x00004c99
    4db0:	00005439 	.word	0x00005439
    4db4:	02dc6c00 	.word	0x02dc6c00

00004db8 <system_clock_source_osc8m_set_config>:
 *
 * \param[in] config  OSC8M configuration structure containing the new config
 */
void system_clock_source_osc8m_set_config(
		struct system_clock_source_osc8m_config *const config)
{
    4db8:	b580      	push	{r7, lr}
    4dba:	b084      	sub	sp, #16
    4dbc:	af00      	add	r7, sp, #0
    4dbe:	6078      	str	r0, [r7, #4]
	SYSCTRL_OSC8M_Type temp = SYSCTRL->OSC8M;
    4dc0:	4b1a      	ldr	r3, [pc, #104]	; (4e2c <system_clock_source_osc8m_set_config+0x74>)
    4dc2:	6a1b      	ldr	r3, [r3, #32]
    4dc4:	60fb      	str	r3, [r7, #12]

	/* Use temporary struct to reduce register access */
	temp.bit.PRESC    = config->prescaler;
    4dc6:	687b      	ldr	r3, [r7, #4]
    4dc8:	781b      	ldrb	r3, [r3, #0]
    4dca:	1c1a      	adds	r2, r3, #0
    4dcc:	2303      	movs	r3, #3
    4dce:	4013      	ands	r3, r2
    4dd0:	b2da      	uxtb	r2, r3
    4dd2:	230d      	movs	r3, #13
    4dd4:	18fb      	adds	r3, r7, r3
    4dd6:	2103      	movs	r1, #3
    4dd8:	400a      	ands	r2, r1
    4dda:	0010      	movs	r0, r2
    4ddc:	781a      	ldrb	r2, [r3, #0]
    4dde:	2103      	movs	r1, #3
    4de0:	438a      	bics	r2, r1
    4de2:	1c11      	adds	r1, r2, #0
    4de4:	1c02      	adds	r2, r0, #0
    4de6:	430a      	orrs	r2, r1
    4de8:	701a      	strb	r2, [r3, #0]
	temp.bit.ONDEMAND = config->on_demand;
    4dea:	687b      	ldr	r3, [r7, #4]
    4dec:	789a      	ldrb	r2, [r3, #2]
    4dee:	230c      	movs	r3, #12
    4df0:	18fb      	adds	r3, r7, r3
    4df2:	01d0      	lsls	r0, r2, #7
    4df4:	781a      	ldrb	r2, [r3, #0]
    4df6:	217f      	movs	r1, #127	; 0x7f
    4df8:	400a      	ands	r2, r1
    4dfa:	1c11      	adds	r1, r2, #0
    4dfc:	1c02      	adds	r2, r0, #0
    4dfe:	430a      	orrs	r2, r1
    4e00:	701a      	strb	r2, [r3, #0]
	temp.bit.RUNSTDBY = config->run_in_standby;
    4e02:	687b      	ldr	r3, [r7, #4]
    4e04:	785a      	ldrb	r2, [r3, #1]
    4e06:	230c      	movs	r3, #12
    4e08:	18fb      	adds	r3, r7, r3
    4e0a:	2101      	movs	r1, #1
    4e0c:	400a      	ands	r2, r1
    4e0e:	0190      	lsls	r0, r2, #6
    4e10:	781a      	ldrb	r2, [r3, #0]
    4e12:	2140      	movs	r1, #64	; 0x40
    4e14:	438a      	bics	r2, r1
    4e16:	1c11      	adds	r1, r2, #0
    4e18:	1c02      	adds	r2, r0, #0
    4e1a:	430a      	orrs	r2, r1
    4e1c:	701a      	strb	r2, [r3, #0]

	SYSCTRL->OSC8M = temp;
    4e1e:	4b03      	ldr	r3, [pc, #12]	; (4e2c <system_clock_source_osc8m_set_config+0x74>)
    4e20:	68fa      	ldr	r2, [r7, #12]
    4e22:	621a      	str	r2, [r3, #32]
}
    4e24:	46c0      	nop			; (mov r8, r8)
    4e26:	46bd      	mov	sp, r7
    4e28:	b004      	add	sp, #16
    4e2a:	bd80      	pop	{r7, pc}
    4e2c:	40000800 	.word	0x40000800

00004e30 <system_clock_source_enable>:
 * \retval STATUS_ERR_INVALID_ARG  The clock source is not available on this
 *                                 device
 */
enum status_code system_clock_source_enable(
		const enum system_clock_source clock_source)
{
    4e30:	b580      	push	{r7, lr}
    4e32:	b082      	sub	sp, #8
    4e34:	af00      	add	r7, sp, #0
    4e36:	0002      	movs	r2, r0
    4e38:	1dfb      	adds	r3, r7, #7
    4e3a:	701a      	strb	r2, [r3, #0]
	switch (clock_source) {
    4e3c:	1dfb      	adds	r3, r7, #7
    4e3e:	781b      	ldrb	r3, [r3, #0]
    4e40:	2b08      	cmp	r3, #8
    4e42:	d83b      	bhi.n	4ebc <system_clock_source_enable+0x8c>
    4e44:	009a      	lsls	r2, r3, #2
    4e46:	4b21      	ldr	r3, [pc, #132]	; (4ecc <system_clock_source_enable+0x9c>)
    4e48:	18d3      	adds	r3, r2, r3
    4e4a:	681b      	ldr	r3, [r3, #0]
    4e4c:	469f      	mov	pc, r3
	case SYSTEM_CLOCK_SOURCE_OSC8M:
		SYSCTRL->OSC8M.reg |= SYSCTRL_OSC8M_ENABLE;
    4e4e:	4b20      	ldr	r3, [pc, #128]	; (4ed0 <system_clock_source_enable+0xa0>)
    4e50:	4a1f      	ldr	r2, [pc, #124]	; (4ed0 <system_clock_source_enable+0xa0>)
    4e52:	6a12      	ldr	r2, [r2, #32]
    4e54:	2102      	movs	r1, #2
    4e56:	430a      	orrs	r2, r1
    4e58:	621a      	str	r2, [r3, #32]
		return STATUS_OK;
    4e5a:	2300      	movs	r3, #0
    4e5c:	e031      	b.n	4ec2 <system_clock_source_enable+0x92>

	case SYSTEM_CLOCK_SOURCE_OSC32K:
		SYSCTRL->OSC32K.reg |= SYSCTRL_OSC32K_ENABLE;
    4e5e:	4b1c      	ldr	r3, [pc, #112]	; (4ed0 <system_clock_source_enable+0xa0>)
    4e60:	4a1b      	ldr	r2, [pc, #108]	; (4ed0 <system_clock_source_enable+0xa0>)
    4e62:	6992      	ldr	r2, [r2, #24]
    4e64:	2102      	movs	r1, #2
    4e66:	430a      	orrs	r2, r1
    4e68:	619a      	str	r2, [r3, #24]
		break;
    4e6a:	e029      	b.n	4ec0 <system_clock_source_enable+0x90>

	case SYSTEM_CLOCK_SOURCE_XOSC:
		SYSCTRL->XOSC.reg |= SYSCTRL_XOSC_ENABLE;
    4e6c:	4a18      	ldr	r2, [pc, #96]	; (4ed0 <system_clock_source_enable+0xa0>)
    4e6e:	4b18      	ldr	r3, [pc, #96]	; (4ed0 <system_clock_source_enable+0xa0>)
    4e70:	8a1b      	ldrh	r3, [r3, #16]
    4e72:	b29b      	uxth	r3, r3
    4e74:	2102      	movs	r1, #2
    4e76:	430b      	orrs	r3, r1
    4e78:	b29b      	uxth	r3, r3
    4e7a:	8213      	strh	r3, [r2, #16]
		break;
    4e7c:	e020      	b.n	4ec0 <system_clock_source_enable+0x90>

	case SYSTEM_CLOCK_SOURCE_XOSC32K:
		SYSCTRL->XOSC32K.reg |= SYSCTRL_XOSC32K_ENABLE;
    4e7e:	4a14      	ldr	r2, [pc, #80]	; (4ed0 <system_clock_source_enable+0xa0>)
    4e80:	4b13      	ldr	r3, [pc, #76]	; (4ed0 <system_clock_source_enable+0xa0>)
    4e82:	8a9b      	ldrh	r3, [r3, #20]
    4e84:	b29b      	uxth	r3, r3
    4e86:	2102      	movs	r1, #2
    4e88:	430b      	orrs	r3, r1
    4e8a:	b29b      	uxth	r3, r3
    4e8c:	8293      	strh	r3, [r2, #20]
		break;
    4e8e:	e017      	b.n	4ec0 <system_clock_source_enable+0x90>

	case SYSTEM_CLOCK_SOURCE_DFLL:
		_system_clock_inst.dfll.control |= SYSCTRL_DFLLCTRL_ENABLE;
    4e90:	4b10      	ldr	r3, [pc, #64]	; (4ed4 <system_clock_source_enable+0xa4>)
    4e92:	681b      	ldr	r3, [r3, #0]
    4e94:	2202      	movs	r2, #2
    4e96:	431a      	orrs	r2, r3
    4e98:	4b0e      	ldr	r3, [pc, #56]	; (4ed4 <system_clock_source_enable+0xa4>)
    4e9a:	601a      	str	r2, [r3, #0]
		_system_clock_source_dfll_set_config_errata_9905();
    4e9c:	4b0e      	ldr	r3, [pc, #56]	; (4ed8 <system_clock_source_enable+0xa8>)
    4e9e:	4798      	blx	r3
		break;
    4ea0:	e00e      	b.n	4ec0 <system_clock_source_enable+0x90>

#ifdef FEATURE_SYSTEM_CLOCK_DPLL
	case SYSTEM_CLOCK_SOURCE_DPLL:
		SYSCTRL->DPLLCTRLA.reg |= SYSCTRL_DPLLCTRLA_ENABLE;
    4ea2:	4a0b      	ldr	r2, [pc, #44]	; (4ed0 <system_clock_source_enable+0xa0>)
    4ea4:	490a      	ldr	r1, [pc, #40]	; (4ed0 <system_clock_source_enable+0xa0>)
    4ea6:	2344      	movs	r3, #68	; 0x44
    4ea8:	5ccb      	ldrb	r3, [r1, r3]
    4eaa:	b2db      	uxtb	r3, r3
    4eac:	2102      	movs	r1, #2
    4eae:	430b      	orrs	r3, r1
    4eb0:	b2d9      	uxtb	r1, r3
    4eb2:	2344      	movs	r3, #68	; 0x44
    4eb4:	54d1      	strb	r1, [r2, r3]
		break;
    4eb6:	e003      	b.n	4ec0 <system_clock_source_enable+0x90>
#endif

	case SYSTEM_CLOCK_SOURCE_ULP32K:
		/* Always enabled */
		return STATUS_OK;
    4eb8:	2300      	movs	r3, #0
    4eba:	e002      	b.n	4ec2 <system_clock_source_enable+0x92>

	default:
		Assert(false);
		return STATUS_ERR_INVALID_ARG;
    4ebc:	2317      	movs	r3, #23
    4ebe:	e000      	b.n	4ec2 <system_clock_source_enable+0x92>
	}

	return STATUS_OK;
    4ec0:	2300      	movs	r3, #0
}
    4ec2:	0018      	movs	r0, r3
    4ec4:	46bd      	mov	sp, r7
    4ec6:	b002      	add	sp, #8
    4ec8:	bd80      	pop	{r7, pc}
    4eca:	46c0      	nop			; (mov r8, r8)
    4ecc:	000064a8 	.word	0x000064a8
    4ed0:	40000800 	.word	0x40000800
    4ed4:	200033c0 	.word	0x200033c0
    4ed8:	00004cb5 	.word	0x00004cb5

00004edc <_switch_peripheral_gclk>:
 *
 * Switch all peripheral clock to a not enabled general clock
 * to save power.
 */
static void _switch_peripheral_gclk(void)
{
    4edc:	b580      	push	{r7, lr}
    4ede:	b082      	sub	sp, #8
    4ee0:	af00      	add	r7, sp, #0
	uint32_t gclk_id;
	struct system_gclk_chan_config gclk_conf;

#if CONF_CLOCK_GCLK_1_ENABLE == false
	gclk_conf.source_generator = GCLK_GENERATOR_1;
    4ee2:	003b      	movs	r3, r7
    4ee4:	2201      	movs	r2, #1
    4ee6:	701a      	strb	r2, [r3, #0]
	gclk_conf.source_generator = GCLK_GENERATOR_7;
#else
	gclk_conf.source_generator = GCLK_GENERATOR_7;
#endif

	for (gclk_id = 0; gclk_id < GCLK_NUM; gclk_id++) {
    4ee8:	2300      	movs	r3, #0
    4eea:	607b      	str	r3, [r7, #4]
    4eec:	e009      	b.n	4f02 <_switch_peripheral_gclk+0x26>
		system_gclk_chan_set_config(gclk_id, &gclk_conf);
    4eee:	687b      	ldr	r3, [r7, #4]
    4ef0:	b2db      	uxtb	r3, r3
    4ef2:	003a      	movs	r2, r7
    4ef4:	0011      	movs	r1, r2
    4ef6:	0018      	movs	r0, r3
    4ef8:	4b05      	ldr	r3, [pc, #20]	; (4f10 <_switch_peripheral_gclk+0x34>)
    4efa:	4798      	blx	r3
	for (gclk_id = 0; gclk_id < GCLK_NUM; gclk_id++) {
    4efc:	687b      	ldr	r3, [r7, #4]
    4efe:	3301      	adds	r3, #1
    4f00:	607b      	str	r3, [r7, #4]
    4f02:	687b      	ldr	r3, [r7, #4]
    4f04:	2b24      	cmp	r3, #36	; 0x24
    4f06:	d9f2      	bls.n	4eee <_switch_peripheral_gclk+0x12>
	}
}
    4f08:	46c0      	nop			; (mov r8, r8)
    4f0a:	46bd      	mov	sp, r7
    4f0c:	b002      	add	sp, #8
    4f0e:	bd80      	pop	{r7, pc}
    4f10:	00005315 	.word	0x00005315

00004f14 <system_clock_init>:
 * \note OSC8M is always enabled and if user selects other clocks for GCLK generators,
 * the OSC8M default enable can be disabled after system_clock_init. Make sure the
 * clock switch successfully before disabling OSC8M.
 */
void system_clock_init(void)
{
    4f14:	b580      	push	{r7, lr}
    4f16:	b0a0      	sub	sp, #128	; 0x80
    4f18:	af00      	add	r7, sp, #0
	/* Various bits in the INTFLAG register can be set to one at startup.
	   This will ensure that these bits are cleared */
	SYSCTRL->INTFLAG.reg = SYSCTRL_INTFLAG_BOD33RDY | SYSCTRL_INTFLAG_BOD33DET |
    4f1a:	4b27      	ldr	r3, [pc, #156]	; (4fb8 <system_clock_init+0xa4>)
    4f1c:	22c2      	movs	r2, #194	; 0xc2
    4f1e:	00d2      	lsls	r2, r2, #3
    4f20:	609a      	str	r2, [r3, #8]
			SYSCTRL_INTFLAG_DFLLRDY;

	system_flash_set_waitstates(CONF_CLOCK_FLASH_WAIT_STATES);
    4f22:	2000      	movs	r0, #0
    4f24:	4b25      	ldr	r3, [pc, #148]	; (4fbc <system_clock_init+0xa8>)
    4f26:	4798      	blx	r3

	/* Switch all peripheral clock to a not enabled general clock to save power. */
	_switch_peripheral_gclk();
    4f28:	4b25      	ldr	r3, [pc, #148]	; (4fc0 <system_clock_init+0xac>)
    4f2a:	4798      	blx	r3
#endif


	/* OSC8M */
	struct system_clock_source_osc8m_config osc8m_conf;
	system_clock_source_osc8m_get_config_defaults(&osc8m_conf);
    4f2c:	237c      	movs	r3, #124	; 0x7c
    4f2e:	18fb      	adds	r3, r7, r3
    4f30:	0018      	movs	r0, r3
    4f32:	4b24      	ldr	r3, [pc, #144]	; (4fc4 <system_clock_init+0xb0>)
    4f34:	4798      	blx	r3

	osc8m_conf.prescaler       = CONF_CLOCK_OSC8M_PRESCALER;
    4f36:	237c      	movs	r3, #124	; 0x7c
    4f38:	18fb      	adds	r3, r7, r3
    4f3a:	2200      	movs	r2, #0
    4f3c:	701a      	strb	r2, [r3, #0]
	osc8m_conf.on_demand       = CONF_CLOCK_OSC8M_ON_DEMAND;
    4f3e:	237c      	movs	r3, #124	; 0x7c
    4f40:	18fb      	adds	r3, r7, r3
    4f42:	2201      	movs	r2, #1
    4f44:	709a      	strb	r2, [r3, #2]
	osc8m_conf.run_in_standby  = CONF_CLOCK_OSC8M_RUN_IN_STANDBY;
    4f46:	237c      	movs	r3, #124	; 0x7c
    4f48:	18fb      	adds	r3, r7, r3
    4f4a:	2200      	movs	r2, #0
    4f4c:	705a      	strb	r2, [r3, #1]

	system_clock_source_osc8m_set_config(&osc8m_conf);
    4f4e:	237c      	movs	r3, #124	; 0x7c
    4f50:	18fb      	adds	r3, r7, r3
    4f52:	0018      	movs	r0, r3
    4f54:	4b1c      	ldr	r3, [pc, #112]	; (4fc8 <system_clock_init+0xb4>)
    4f56:	4798      	blx	r3
	system_clock_source_enable(SYSTEM_CLOCK_SOURCE_OSC8M);
    4f58:	2006      	movs	r0, #6
    4f5a:	4b1c      	ldr	r3, [pc, #112]	; (4fcc <system_clock_init+0xb8>)
    4f5c:	4798      	blx	r3


	/* GCLK */
#if CONF_CLOCK_CONFIGURE_GCLK == true
	system_gclk_init();
    4f5e:	4b1c      	ldr	r3, [pc, #112]	; (4fd0 <system_clock_init+0xbc>)
    4f60:	4798      	blx	r3

#  endif
#endif

	/* CPU and BUS clocks */
	system_cpu_clock_set_divider(CONF_CLOCK_CPU_DIVIDER);
    4f62:	2000      	movs	r0, #0
    4f64:	4b1b      	ldr	r3, [pc, #108]	; (4fd4 <system_clock_init+0xc0>)
    4f66:	4798      	blx	r3

	system_apb_clock_set_divider(SYSTEM_CLOCK_APB_APBA, CONF_CLOCK_APBA_DIVIDER);
    4f68:	2100      	movs	r1, #0
    4f6a:	2000      	movs	r0, #0
    4f6c:	4b1a      	ldr	r3, [pc, #104]	; (4fd8 <system_clock_init+0xc4>)
    4f6e:	4798      	blx	r3
	system_apb_clock_set_divider(SYSTEM_CLOCK_APB_APBB, CONF_CLOCK_APBB_DIVIDER);
    4f70:	2100      	movs	r1, #0
    4f72:	2001      	movs	r0, #1
    4f74:	4b18      	ldr	r3, [pc, #96]	; (4fd8 <system_clock_init+0xc4>)
    4f76:	4798      	blx	r3
	system_apb_clock_set_divider(SYSTEM_CLOCK_APB_APBC, CONF_CLOCK_APBC_DIVIDER);
    4f78:	2100      	movs	r1, #0
    4f7a:	2002      	movs	r0, #2
    4f7c:	4b16      	ldr	r3, [pc, #88]	; (4fd8 <system_clock_init+0xc4>)
    4f7e:	4798      	blx	r3

	/* GCLK 0 */
#if CONF_CLOCK_CONFIGURE_GCLK == true
	/* Configure the main GCLK last as it might depend on other generators */
	_CONF_CLOCK_GCLK_CONFIG(0, ~);
    4f80:	1d3b      	adds	r3, r7, #4
    4f82:	0018      	movs	r0, r3
    4f84:	4b15      	ldr	r3, [pc, #84]	; (4fdc <system_clock_init+0xc8>)
    4f86:	4798      	blx	r3
    4f88:	1d3b      	adds	r3, r7, #4
    4f8a:	2206      	movs	r2, #6
    4f8c:	701a      	strb	r2, [r3, #0]
    4f8e:	1d3b      	adds	r3, r7, #4
    4f90:	2201      	movs	r2, #1
    4f92:	605a      	str	r2, [r3, #4]
    4f94:	1d3b      	adds	r3, r7, #4
    4f96:	2200      	movs	r2, #0
    4f98:	721a      	strb	r2, [r3, #8]
    4f9a:	1d3b      	adds	r3, r7, #4
    4f9c:	2200      	movs	r2, #0
    4f9e:	725a      	strb	r2, [r3, #9]
    4fa0:	1d3b      	adds	r3, r7, #4
    4fa2:	0019      	movs	r1, r3
    4fa4:	2000      	movs	r0, #0
    4fa6:	4b0e      	ldr	r3, [pc, #56]	; (4fe0 <system_clock_init+0xcc>)
    4fa8:	4798      	blx	r3
    4faa:	2000      	movs	r0, #0
    4fac:	4b0d      	ldr	r3, [pc, #52]	; (4fe4 <system_clock_init+0xd0>)
    4fae:	4798      	blx	r3
#endif
}
    4fb0:	46c0      	nop			; (mov r8, r8)
    4fb2:	46bd      	mov	sp, r7
    4fb4:	b020      	add	sp, #128	; 0x80
    4fb6:	bd80      	pop	{r7, pc}
    4fb8:	40000800 	.word	0x40000800
    4fbc:	00004c65 	.word	0x00004c65
    4fc0:	00004edd 	.word	0x00004edd
    4fc4:	00004bcf 	.word	0x00004bcf
    4fc8:	00004db9 	.word	0x00004db9
    4fcc:	00004e31 	.word	0x00004e31
    4fd0:	0000508d 	.word	0x0000508d
    4fd4:	00004bf1 	.word	0x00004bf1
    4fd8:	00004c11 	.word	0x00004c11
    4fdc:	00004ba1 	.word	0x00004ba1
    4fe0:	000050bd 	.word	0x000050bd
    4fe4:	000051e1 	.word	0x000051e1

00004fe8 <system_apb_clock_set_mask>:
{
    4fe8:	b580      	push	{r7, lr}
    4fea:	b082      	sub	sp, #8
    4fec:	af00      	add	r7, sp, #0
    4fee:	0002      	movs	r2, r0
    4ff0:	6039      	str	r1, [r7, #0]
    4ff2:	1dfb      	adds	r3, r7, #7
    4ff4:	701a      	strb	r2, [r3, #0]
	switch (bus) {
    4ff6:	1dfb      	adds	r3, r7, #7
    4ff8:	781b      	ldrb	r3, [r3, #0]
    4ffa:	2b01      	cmp	r3, #1
    4ffc:	d00a      	beq.n	5014 <system_apb_clock_set_mask+0x2c>
    4ffe:	2b02      	cmp	r3, #2
    5000:	d00f      	beq.n	5022 <system_apb_clock_set_mask+0x3a>
    5002:	2b00      	cmp	r3, #0
    5004:	d114      	bne.n	5030 <system_apb_clock_set_mask+0x48>
			PM->APBAMASK.reg |= mask;
    5006:	4b0e      	ldr	r3, [pc, #56]	; (5040 <system_apb_clock_set_mask+0x58>)
    5008:	4a0d      	ldr	r2, [pc, #52]	; (5040 <system_apb_clock_set_mask+0x58>)
    500a:	6991      	ldr	r1, [r2, #24]
    500c:	683a      	ldr	r2, [r7, #0]
    500e:	430a      	orrs	r2, r1
    5010:	619a      	str	r2, [r3, #24]
			break;
    5012:	e00f      	b.n	5034 <system_apb_clock_set_mask+0x4c>
			PM->APBBMASK.reg |= mask;
    5014:	4b0a      	ldr	r3, [pc, #40]	; (5040 <system_apb_clock_set_mask+0x58>)
    5016:	4a0a      	ldr	r2, [pc, #40]	; (5040 <system_apb_clock_set_mask+0x58>)
    5018:	69d1      	ldr	r1, [r2, #28]
    501a:	683a      	ldr	r2, [r7, #0]
    501c:	430a      	orrs	r2, r1
    501e:	61da      	str	r2, [r3, #28]
			break;
    5020:	e008      	b.n	5034 <system_apb_clock_set_mask+0x4c>
			PM->APBCMASK.reg |= mask;
    5022:	4b07      	ldr	r3, [pc, #28]	; (5040 <system_apb_clock_set_mask+0x58>)
    5024:	4a06      	ldr	r2, [pc, #24]	; (5040 <system_apb_clock_set_mask+0x58>)
    5026:	6a11      	ldr	r1, [r2, #32]
    5028:	683a      	ldr	r2, [r7, #0]
    502a:	430a      	orrs	r2, r1
    502c:	621a      	str	r2, [r3, #32]
			break;
    502e:	e001      	b.n	5034 <system_apb_clock_set_mask+0x4c>
			return STATUS_ERR_INVALID_ARG;
    5030:	2317      	movs	r3, #23
    5032:	e000      	b.n	5036 <system_apb_clock_set_mask+0x4e>
	return STATUS_OK;
    5034:	2300      	movs	r3, #0
}
    5036:	0018      	movs	r0, r3
    5038:	46bd      	mov	sp, r7
    503a:	b002      	add	sp, #8
    503c:	bd80      	pop	{r7, pc}
    503e:	46c0      	nop			; (mov r8, r8)
    5040:	40000400 	.word	0x40000400

00005044 <system_interrupt_enter_critical_section>:
{
    5044:	b580      	push	{r7, lr}
    5046:	af00      	add	r7, sp, #0
	cpu_irq_enter_critical();
    5048:	4b02      	ldr	r3, [pc, #8]	; (5054 <system_interrupt_enter_critical_section+0x10>)
    504a:	4798      	blx	r3
}
    504c:	46c0      	nop			; (mov r8, r8)
    504e:	46bd      	mov	sp, r7
    5050:	bd80      	pop	{r7, pc}
    5052:	46c0      	nop			; (mov r8, r8)
    5054:	00000115 	.word	0x00000115

00005058 <system_interrupt_leave_critical_section>:
{
    5058:	b580      	push	{r7, lr}
    505a:	af00      	add	r7, sp, #0
	cpu_irq_leave_critical();
    505c:	4b02      	ldr	r3, [pc, #8]	; (5068 <system_interrupt_leave_critical_section+0x10>)
    505e:	4798      	blx	r3
}
    5060:	46c0      	nop			; (mov r8, r8)
    5062:	46bd      	mov	sp, r7
    5064:	bd80      	pop	{r7, pc}
    5066:	46c0      	nop			; (mov r8, r8)
    5068:	00000169 	.word	0x00000169

0000506c <system_gclk_is_syncing>:
 *
 * \retval false if the module has completed synchronization
 * \retval true if the module synchronization is ongoing
 */
static inline bool system_gclk_is_syncing(void)
{
    506c:	b580      	push	{r7, lr}
    506e:	af00      	add	r7, sp, #0
	if (GCLK->STATUS.reg & GCLK_STATUS_SYNCBUSY){
    5070:	4b05      	ldr	r3, [pc, #20]	; (5088 <system_gclk_is_syncing+0x1c>)
    5072:	785b      	ldrb	r3, [r3, #1]
    5074:	b2db      	uxtb	r3, r3
    5076:	b25b      	sxtb	r3, r3
    5078:	2b00      	cmp	r3, #0
    507a:	da01      	bge.n	5080 <system_gclk_is_syncing+0x14>
		return true;
    507c:	2301      	movs	r3, #1
    507e:	e000      	b.n	5082 <system_gclk_is_syncing+0x16>
	}

	return false;
    5080:	2300      	movs	r3, #0
}
    5082:	0018      	movs	r0, r3
    5084:	46bd      	mov	sp, r7
    5086:	bd80      	pop	{r7, pc}
    5088:	40000c00 	.word	0x40000c00

0000508c <system_gclk_init>:
 *
 * Initializes the Generic Clock module, disabling and resetting all active
 * Generic Clock Generators and Channels to their power-on default values.
 */
void system_gclk_init(void)
{
    508c:	b580      	push	{r7, lr}
    508e:	af00      	add	r7, sp, #0
	/* Turn on the digital interface clock */
	system_apb_clock_set_mask(SYSTEM_CLOCK_APB_APBA, PM_APBAMASK_GCLK);
    5090:	2108      	movs	r1, #8
    5092:	2000      	movs	r0, #0
    5094:	4b07      	ldr	r3, [pc, #28]	; (50b4 <system_gclk_init+0x28>)
    5096:	4798      	blx	r3

	/* Software reset the module to ensure it is re-initialized correctly */
	GCLK->CTRL.reg = GCLK_CTRL_SWRST;
    5098:	4b07      	ldr	r3, [pc, #28]	; (50b8 <system_gclk_init+0x2c>)
    509a:	2201      	movs	r2, #1
    509c:	701a      	strb	r2, [r3, #0]
	while (GCLK->CTRL.reg & GCLK_CTRL_SWRST) {
    509e:	46c0      	nop			; (mov r8, r8)
    50a0:	4b05      	ldr	r3, [pc, #20]	; (50b8 <system_gclk_init+0x2c>)
    50a2:	781b      	ldrb	r3, [r3, #0]
    50a4:	b2db      	uxtb	r3, r3
    50a6:	001a      	movs	r2, r3
    50a8:	2301      	movs	r3, #1
    50aa:	4013      	ands	r3, r2
    50ac:	d1f8      	bne.n	50a0 <system_gclk_init+0x14>
		/* Wait for reset to complete */
	}
}
    50ae:	46c0      	nop			; (mov r8, r8)
    50b0:	46bd      	mov	sp, r7
    50b2:	bd80      	pop	{r7, pc}
    50b4:	00004fe9 	.word	0x00004fe9
    50b8:	40000c00 	.word	0x40000c00

000050bc <system_gclk_gen_set_config>:
 * \param[in] config     Configuration settings for the generator
 */
void system_gclk_gen_set_config(
		const uint8_t generator,
		struct system_gclk_gen_config *const config)
{
    50bc:	b580      	push	{r7, lr}
    50be:	b086      	sub	sp, #24
    50c0:	af00      	add	r7, sp, #0
    50c2:	0002      	movs	r2, r0
    50c4:	6039      	str	r1, [r7, #0]
    50c6:	1dfb      	adds	r3, r7, #7
    50c8:	701a      	strb	r2, [r3, #0]
	/* Sanity check arguments */
	Assert(config);

	/* Cache new register configurations to minimize sync requirements. */
	uint32_t new_genctrl_config = (generator << GCLK_GENCTRL_ID_Pos);
    50ca:	1dfb      	adds	r3, r7, #7
    50cc:	781b      	ldrb	r3, [r3, #0]
    50ce:	617b      	str	r3, [r7, #20]
	uint32_t new_gendiv_config  = (generator << GCLK_GENDIV_ID_Pos);
    50d0:	1dfb      	adds	r3, r7, #7
    50d2:	781b      	ldrb	r3, [r3, #0]
    50d4:	613b      	str	r3, [r7, #16]

	/* Select the requested source clock for the generator */
	new_genctrl_config |= config->source_clock << GCLK_GENCTRL_SRC_Pos;
    50d6:	683b      	ldr	r3, [r7, #0]
    50d8:	781b      	ldrb	r3, [r3, #0]
    50da:	021b      	lsls	r3, r3, #8
    50dc:	001a      	movs	r2, r3
    50de:	697b      	ldr	r3, [r7, #20]
    50e0:	4313      	orrs	r3, r2
    50e2:	617b      	str	r3, [r7, #20]

	/* Configure the clock to be either high or low when disabled */
	if (config->high_when_disabled) {
    50e4:	683b      	ldr	r3, [r7, #0]
    50e6:	785b      	ldrb	r3, [r3, #1]
    50e8:	2b00      	cmp	r3, #0
    50ea:	d004      	beq.n	50f6 <system_gclk_gen_set_config+0x3a>
		new_genctrl_config |= GCLK_GENCTRL_OOV;
    50ec:	697b      	ldr	r3, [r7, #20]
    50ee:	2280      	movs	r2, #128	; 0x80
    50f0:	02d2      	lsls	r2, r2, #11
    50f2:	4313      	orrs	r3, r2
    50f4:	617b      	str	r3, [r7, #20]
	}

	/* Configure if the clock output to I/O pin should be enabled. */
	if (config->output_enable) {
    50f6:	683b      	ldr	r3, [r7, #0]
    50f8:	7a5b      	ldrb	r3, [r3, #9]
    50fa:	2b00      	cmp	r3, #0
    50fc:	d004      	beq.n	5108 <system_gclk_gen_set_config+0x4c>
		new_genctrl_config |= GCLK_GENCTRL_OE;
    50fe:	697b      	ldr	r3, [r7, #20]
    5100:	2280      	movs	r2, #128	; 0x80
    5102:	0312      	lsls	r2, r2, #12
    5104:	4313      	orrs	r3, r2
    5106:	617b      	str	r3, [r7, #20]
	}

	/* Set division factor */
	if (config->division_factor > 1) {
    5108:	683b      	ldr	r3, [r7, #0]
    510a:	685b      	ldr	r3, [r3, #4]
    510c:	2b01      	cmp	r3, #1
    510e:	d92c      	bls.n	516a <system_gclk_gen_set_config+0xae>
		/* Check if division is a power of two */
		if (((config->division_factor & (config->division_factor - 1)) == 0)) {
    5110:	683b      	ldr	r3, [r7, #0]
    5112:	685a      	ldr	r2, [r3, #4]
    5114:	683b      	ldr	r3, [r7, #0]
    5116:	685b      	ldr	r3, [r3, #4]
    5118:	3b01      	subs	r3, #1
    511a:	4013      	ands	r3, r2
    511c:	d11a      	bne.n	5154 <system_gclk_gen_set_config+0x98>
			/* Determine the index of the highest bit set to get the
			 * division factor that must be loaded into the division
			 * register */

			uint32_t div2_count = 0;
    511e:	2300      	movs	r3, #0
    5120:	60fb      	str	r3, [r7, #12]

			uint32_t mask;
			for (mask = (1UL << 1); mask < config->division_factor;
    5122:	2302      	movs	r3, #2
    5124:	60bb      	str	r3, [r7, #8]
    5126:	e005      	b.n	5134 <system_gclk_gen_set_config+0x78>
						mask <<= 1) {
				div2_count++;
    5128:	68fb      	ldr	r3, [r7, #12]
    512a:	3301      	adds	r3, #1
    512c:	60fb      	str	r3, [r7, #12]
						mask <<= 1) {
    512e:	68bb      	ldr	r3, [r7, #8]
    5130:	005b      	lsls	r3, r3, #1
    5132:	60bb      	str	r3, [r7, #8]
			for (mask = (1UL << 1); mask < config->division_factor;
    5134:	683b      	ldr	r3, [r7, #0]
    5136:	685a      	ldr	r2, [r3, #4]
    5138:	68bb      	ldr	r3, [r7, #8]
    513a:	429a      	cmp	r2, r3
    513c:	d8f4      	bhi.n	5128 <system_gclk_gen_set_config+0x6c>
			}

			/* Set binary divider power of 2 division factor */
			new_gendiv_config  |= div2_count << GCLK_GENDIV_DIV_Pos;
    513e:	68fb      	ldr	r3, [r7, #12]
    5140:	021b      	lsls	r3, r3, #8
    5142:	693a      	ldr	r2, [r7, #16]
    5144:	4313      	orrs	r3, r2
    5146:	613b      	str	r3, [r7, #16]
			new_genctrl_config |= GCLK_GENCTRL_DIVSEL;
    5148:	697b      	ldr	r3, [r7, #20]
    514a:	2280      	movs	r2, #128	; 0x80
    514c:	0352      	lsls	r2, r2, #13
    514e:	4313      	orrs	r3, r2
    5150:	617b      	str	r3, [r7, #20]
    5152:	e00a      	b.n	516a <system_gclk_gen_set_config+0xae>
		} else {
			/* Set integer division factor */

			new_gendiv_config  |=
					(config->division_factor) << GCLK_GENDIV_DIV_Pos;
    5154:	683b      	ldr	r3, [r7, #0]
    5156:	685b      	ldr	r3, [r3, #4]
    5158:	021b      	lsls	r3, r3, #8
			new_gendiv_config  |=
    515a:	693a      	ldr	r2, [r7, #16]
    515c:	4313      	orrs	r3, r2
    515e:	613b      	str	r3, [r7, #16]

			/* Enable non-binary division with increased duty cycle accuracy */
			new_genctrl_config |= GCLK_GENCTRL_IDC;
    5160:	697b      	ldr	r3, [r7, #20]
    5162:	2280      	movs	r2, #128	; 0x80
    5164:	0292      	lsls	r2, r2, #10
    5166:	4313      	orrs	r3, r2
    5168:	617b      	str	r3, [r7, #20]
		}

	}

	/* Enable or disable the clock in standby mode */
	if (config->run_in_standby) {
    516a:	683b      	ldr	r3, [r7, #0]
    516c:	7a1b      	ldrb	r3, [r3, #8]
    516e:	2b00      	cmp	r3, #0
    5170:	d004      	beq.n	517c <system_gclk_gen_set_config+0xc0>
		new_genctrl_config |= GCLK_GENCTRL_RUNSTDBY;
    5172:	697b      	ldr	r3, [r7, #20]
    5174:	2280      	movs	r2, #128	; 0x80
    5176:	0392      	lsls	r2, r2, #14
    5178:	4313      	orrs	r3, r2
    517a:	617b      	str	r3, [r7, #20]
	}

	while (system_gclk_is_syncing()) {
    517c:	46c0      	nop			; (mov r8, r8)
    517e:	4b13      	ldr	r3, [pc, #76]	; (51cc <system_gclk_gen_set_config+0x110>)
    5180:	4798      	blx	r3
    5182:	1e03      	subs	r3, r0, #0
    5184:	d1fb      	bne.n	517e <system_gclk_gen_set_config+0xc2>
		/* Wait for synchronization */
	};

	system_interrupt_enter_critical_section();
    5186:	4b12      	ldr	r3, [pc, #72]	; (51d0 <system_gclk_gen_set_config+0x114>)
    5188:	4798      	blx	r3

	/* Select the correct generator */
	*((uint8_t*)&GCLK->GENDIV.reg) = generator;
    518a:	4a12      	ldr	r2, [pc, #72]	; (51d4 <system_gclk_gen_set_config+0x118>)
    518c:	1dfb      	adds	r3, r7, #7
    518e:	781b      	ldrb	r3, [r3, #0]
    5190:	7013      	strb	r3, [r2, #0]

	/* Write the new generator configuration */
	while (system_gclk_is_syncing()) {
    5192:	46c0      	nop			; (mov r8, r8)
    5194:	4b0d      	ldr	r3, [pc, #52]	; (51cc <system_gclk_gen_set_config+0x110>)
    5196:	4798      	blx	r3
    5198:	1e03      	subs	r3, r0, #0
    519a:	d1fb      	bne.n	5194 <system_gclk_gen_set_config+0xd8>
		/* Wait for synchronization */
	};
	GCLK->GENDIV.reg  = new_gendiv_config;
    519c:	4b0e      	ldr	r3, [pc, #56]	; (51d8 <system_gclk_gen_set_config+0x11c>)
    519e:	693a      	ldr	r2, [r7, #16]
    51a0:	609a      	str	r2, [r3, #8]

	while (system_gclk_is_syncing()) {
    51a2:	46c0      	nop			; (mov r8, r8)
    51a4:	4b09      	ldr	r3, [pc, #36]	; (51cc <system_gclk_gen_set_config+0x110>)
    51a6:	4798      	blx	r3
    51a8:	1e03      	subs	r3, r0, #0
    51aa:	d1fb      	bne.n	51a4 <system_gclk_gen_set_config+0xe8>
		/* Wait for synchronization */
	};
	GCLK->GENCTRL.reg = new_genctrl_config | (GCLK->GENCTRL.reg & GCLK_GENCTRL_GENEN);
    51ac:	4b0a      	ldr	r3, [pc, #40]	; (51d8 <system_gclk_gen_set_config+0x11c>)
    51ae:	4a0a      	ldr	r2, [pc, #40]	; (51d8 <system_gclk_gen_set_config+0x11c>)
    51b0:	6851      	ldr	r1, [r2, #4]
    51b2:	2280      	movs	r2, #128	; 0x80
    51b4:	0252      	lsls	r2, r2, #9
    51b6:	4011      	ands	r1, r2
    51b8:	697a      	ldr	r2, [r7, #20]
    51ba:	430a      	orrs	r2, r1
    51bc:	605a      	str	r2, [r3, #4]

	system_interrupt_leave_critical_section();
    51be:	4b07      	ldr	r3, [pc, #28]	; (51dc <system_gclk_gen_set_config+0x120>)
    51c0:	4798      	blx	r3
}
    51c2:	46c0      	nop			; (mov r8, r8)
    51c4:	46bd      	mov	sp, r7
    51c6:	b006      	add	sp, #24
    51c8:	bd80      	pop	{r7, pc}
    51ca:	46c0      	nop			; (mov r8, r8)
    51cc:	0000506d 	.word	0x0000506d
    51d0:	00005045 	.word	0x00005045
    51d4:	40000c08 	.word	0x40000c08
    51d8:	40000c00 	.word	0x40000c00
    51dc:	00005059 	.word	0x00005059

000051e0 <system_gclk_gen_enable>:
 *
 * \param[in] generator  Generic Clock Generator index to enable
 */
void system_gclk_gen_enable(
		const uint8_t generator)
{
    51e0:	b580      	push	{r7, lr}
    51e2:	b082      	sub	sp, #8
    51e4:	af00      	add	r7, sp, #0
    51e6:	0002      	movs	r2, r0
    51e8:	1dfb      	adds	r3, r7, #7
    51ea:	701a      	strb	r2, [r3, #0]
	while (system_gclk_is_syncing()) {
    51ec:	46c0      	nop			; (mov r8, r8)
    51ee:	4b0e      	ldr	r3, [pc, #56]	; (5228 <system_gclk_gen_enable+0x48>)
    51f0:	4798      	blx	r3
    51f2:	1e03      	subs	r3, r0, #0
    51f4:	d1fb      	bne.n	51ee <system_gclk_gen_enable+0xe>
		/* Wait for synchronization */
	};

	system_interrupt_enter_critical_section();
    51f6:	4b0d      	ldr	r3, [pc, #52]	; (522c <system_gclk_gen_enable+0x4c>)
    51f8:	4798      	blx	r3

	/* Select the requested generator */
	*((uint8_t*)&GCLK->GENCTRL.reg) = generator;
    51fa:	4a0d      	ldr	r2, [pc, #52]	; (5230 <system_gclk_gen_enable+0x50>)
    51fc:	1dfb      	adds	r3, r7, #7
    51fe:	781b      	ldrb	r3, [r3, #0]
    5200:	7013      	strb	r3, [r2, #0]
	while (system_gclk_is_syncing()) {
    5202:	46c0      	nop			; (mov r8, r8)
    5204:	4b08      	ldr	r3, [pc, #32]	; (5228 <system_gclk_gen_enable+0x48>)
    5206:	4798      	blx	r3
    5208:	1e03      	subs	r3, r0, #0
    520a:	d1fb      	bne.n	5204 <system_gclk_gen_enable+0x24>
		/* Wait for synchronization */
	};

	/* Enable generator */
	GCLK->GENCTRL.reg |= GCLK_GENCTRL_GENEN;
    520c:	4b09      	ldr	r3, [pc, #36]	; (5234 <system_gclk_gen_enable+0x54>)
    520e:	4a09      	ldr	r2, [pc, #36]	; (5234 <system_gclk_gen_enable+0x54>)
    5210:	6852      	ldr	r2, [r2, #4]
    5212:	2180      	movs	r1, #128	; 0x80
    5214:	0249      	lsls	r1, r1, #9
    5216:	430a      	orrs	r2, r1
    5218:	605a      	str	r2, [r3, #4]

	system_interrupt_leave_critical_section();
    521a:	4b07      	ldr	r3, [pc, #28]	; (5238 <system_gclk_gen_enable+0x58>)
    521c:	4798      	blx	r3
}
    521e:	46c0      	nop			; (mov r8, r8)
    5220:	46bd      	mov	sp, r7
    5222:	b002      	add	sp, #8
    5224:	bd80      	pop	{r7, pc}
    5226:	46c0      	nop			; (mov r8, r8)
    5228:	0000506d 	.word	0x0000506d
    522c:	00005045 	.word	0x00005045
    5230:	40000c04 	.word	0x40000c04
    5234:	40000c00 	.word	0x40000c00
    5238:	00005059 	.word	0x00005059

0000523c <system_gclk_gen_get_hz>:
 *
 * \return The frequency of the generic clock generator, in Hz.
 */
uint32_t system_gclk_gen_get_hz(
		const uint8_t generator)
{
    523c:	b580      	push	{r7, lr}
    523e:	b086      	sub	sp, #24
    5240:	af00      	add	r7, sp, #0
    5242:	0002      	movs	r2, r0
    5244:	1dfb      	adds	r3, r7, #7
    5246:	701a      	strb	r2, [r3, #0]
	while (system_gclk_is_syncing()) {
    5248:	46c0      	nop			; (mov r8, r8)
    524a:	4b2a      	ldr	r3, [pc, #168]	; (52f4 <system_gclk_gen_get_hz+0xb8>)
    524c:	4798      	blx	r3
    524e:	1e03      	subs	r3, r0, #0
    5250:	d1fb      	bne.n	524a <system_gclk_gen_get_hz+0xe>
		/* Wait for synchronization */
	};

	system_interrupt_enter_critical_section();
    5252:	4b29      	ldr	r3, [pc, #164]	; (52f8 <system_gclk_gen_get_hz+0xbc>)
    5254:	4798      	blx	r3

	/* Select the appropriate generator */
	*((uint8_t*)&GCLK->GENCTRL.reg) = generator;
    5256:	4a29      	ldr	r2, [pc, #164]	; (52fc <system_gclk_gen_get_hz+0xc0>)
    5258:	1dfb      	adds	r3, r7, #7
    525a:	781b      	ldrb	r3, [r3, #0]
    525c:	7013      	strb	r3, [r2, #0]
	while (system_gclk_is_syncing()) {
    525e:	46c0      	nop			; (mov r8, r8)
    5260:	4b24      	ldr	r3, [pc, #144]	; (52f4 <system_gclk_gen_get_hz+0xb8>)
    5262:	4798      	blx	r3
    5264:	1e03      	subs	r3, r0, #0
    5266:	d1fb      	bne.n	5260 <system_gclk_gen_get_hz+0x24>
		/* Wait for synchronization */
	};

	/* Get the frequency of the source connected to the GCLK generator */
	uint32_t gen_input_hz = system_clock_source_get_hz(
			(enum system_clock_source)GCLK->GENCTRL.bit.SRC);
    5268:	4b25      	ldr	r3, [pc, #148]	; (5300 <system_gclk_gen_get_hz+0xc4>)
    526a:	685b      	ldr	r3, [r3, #4]
    526c:	04db      	lsls	r3, r3, #19
    526e:	0edb      	lsrs	r3, r3, #27
    5270:	b2db      	uxtb	r3, r3
	uint32_t gen_input_hz = system_clock_source_get_hz(
    5272:	0018      	movs	r0, r3
    5274:	4b23      	ldr	r3, [pc, #140]	; (5304 <system_gclk_gen_get_hz+0xc8>)
    5276:	4798      	blx	r3
    5278:	0003      	movs	r3, r0
    527a:	617b      	str	r3, [r7, #20]

	*((uint8_t*)&GCLK->GENCTRL.reg) = generator;
    527c:	4a1f      	ldr	r2, [pc, #124]	; (52fc <system_gclk_gen_get_hz+0xc0>)
    527e:	1dfb      	adds	r3, r7, #7
    5280:	781b      	ldrb	r3, [r3, #0]
    5282:	7013      	strb	r3, [r2, #0]

	uint8_t divsel = GCLK->GENCTRL.bit.DIVSEL;
    5284:	4b1e      	ldr	r3, [pc, #120]	; (5300 <system_gclk_gen_get_hz+0xc4>)
    5286:	685b      	ldr	r3, [r3, #4]
    5288:	02db      	lsls	r3, r3, #11
    528a:	0fdb      	lsrs	r3, r3, #31
    528c:	b2da      	uxtb	r2, r3
    528e:	2313      	movs	r3, #19
    5290:	18fb      	adds	r3, r7, r3
    5292:	701a      	strb	r2, [r3, #0]

	/* Select the appropriate generator division register */
	*((uint8_t*)&GCLK->GENDIV.reg) = generator;
    5294:	4a1c      	ldr	r2, [pc, #112]	; (5308 <system_gclk_gen_get_hz+0xcc>)
    5296:	1dfb      	adds	r3, r7, #7
    5298:	781b      	ldrb	r3, [r3, #0]
    529a:	7013      	strb	r3, [r2, #0]
	while (system_gclk_is_syncing()) {
    529c:	46c0      	nop			; (mov r8, r8)
    529e:	4b15      	ldr	r3, [pc, #84]	; (52f4 <system_gclk_gen_get_hz+0xb8>)
    52a0:	4798      	blx	r3
    52a2:	1e03      	subs	r3, r0, #0
    52a4:	d1fb      	bne.n	529e <system_gclk_gen_get_hz+0x62>
		/* Wait for synchronization */
	};

	uint32_t divider = GCLK->GENDIV.bit.DIV;
    52a6:	4b16      	ldr	r3, [pc, #88]	; (5300 <system_gclk_gen_get_hz+0xc4>)
    52a8:	689b      	ldr	r3, [r3, #8]
    52aa:	021b      	lsls	r3, r3, #8
    52ac:	0c1b      	lsrs	r3, r3, #16
    52ae:	b29b      	uxth	r3, r3
    52b0:	60fb      	str	r3, [r7, #12]

	system_interrupt_leave_critical_section();
    52b2:	4b16      	ldr	r3, [pc, #88]	; (530c <system_gclk_gen_get_hz+0xd0>)
    52b4:	4798      	blx	r3

	/* Check if the generator is using fractional or binary division */
	if (!divsel && divider > 1) {
    52b6:	2313      	movs	r3, #19
    52b8:	18fb      	adds	r3, r7, r3
    52ba:	781b      	ldrb	r3, [r3, #0]
    52bc:	2b00      	cmp	r3, #0
    52be:	d109      	bne.n	52d4 <system_gclk_gen_get_hz+0x98>
    52c0:	68fb      	ldr	r3, [r7, #12]
    52c2:	2b01      	cmp	r3, #1
    52c4:	d906      	bls.n	52d4 <system_gclk_gen_get_hz+0x98>
		gen_input_hz /= divider;
    52c6:	4b12      	ldr	r3, [pc, #72]	; (5310 <system_gclk_gen_get_hz+0xd4>)
    52c8:	68f9      	ldr	r1, [r7, #12]
    52ca:	6978      	ldr	r0, [r7, #20]
    52cc:	4798      	blx	r3
    52ce:	0003      	movs	r3, r0
    52d0:	617b      	str	r3, [r7, #20]
    52d2:	e00a      	b.n	52ea <system_gclk_gen_get_hz+0xae>
	} else if (divsel) {
    52d4:	2313      	movs	r3, #19
    52d6:	18fb      	adds	r3, r7, r3
    52d8:	781b      	ldrb	r3, [r3, #0]
    52da:	2b00      	cmp	r3, #0
    52dc:	d005      	beq.n	52ea <system_gclk_gen_get_hz+0xae>
		gen_input_hz >>= (divider+1);
    52de:	68fb      	ldr	r3, [r7, #12]
    52e0:	3301      	adds	r3, #1
    52e2:	697a      	ldr	r2, [r7, #20]
    52e4:	40da      	lsrs	r2, r3
    52e6:	0013      	movs	r3, r2
    52e8:	617b      	str	r3, [r7, #20]
	}

	return gen_input_hz;
    52ea:	697b      	ldr	r3, [r7, #20]
}
    52ec:	0018      	movs	r0, r3
    52ee:	46bd      	mov	sp, r7
    52f0:	b006      	add	sp, #24
    52f2:	bd80      	pop	{r7, pc}
    52f4:	0000506d 	.word	0x0000506d
    52f8:	00005045 	.word	0x00005045
    52fc:	40000c04 	.word	0x40000c04
    5300:	40000c00 	.word	0x40000c00
    5304:	00004cf9 	.word	0x00004cf9
    5308:	40000c08 	.word	0x40000c08
    530c:	00005059 	.word	0x00005059
    5310:	00005671 	.word	0x00005671

00005314 <system_gclk_chan_set_config>:
 *
 */
void system_gclk_chan_set_config(
		const uint8_t channel,
		struct system_gclk_chan_config *const config)
{
    5314:	b580      	push	{r7, lr}
    5316:	b084      	sub	sp, #16
    5318:	af00      	add	r7, sp, #0
    531a:	0002      	movs	r2, r0
    531c:	6039      	str	r1, [r7, #0]
    531e:	1dfb      	adds	r3, r7, #7
    5320:	701a      	strb	r2, [r3, #0]
	/* Sanity check arguments */
	Assert(config);

	/* Cache the new config to reduce sync requirements */
	uint32_t new_clkctrl_config = (channel << GCLK_CLKCTRL_ID_Pos);
    5322:	1dfb      	adds	r3, r7, #7
    5324:	781b      	ldrb	r3, [r3, #0]
    5326:	60fb      	str	r3, [r7, #12]

	/* Select the desired generic clock generator */
	new_clkctrl_config |= config->source_generator << GCLK_CLKCTRL_GEN_Pos;
    5328:	683b      	ldr	r3, [r7, #0]
    532a:	781b      	ldrb	r3, [r3, #0]
    532c:	021b      	lsls	r3, r3, #8
    532e:	001a      	movs	r2, r3
    5330:	68fb      	ldr	r3, [r7, #12]
    5332:	4313      	orrs	r3, r2
    5334:	60fb      	str	r3, [r7, #12]

	/* Disable generic clock channel */
	system_gclk_chan_disable(channel);
    5336:	1dfb      	adds	r3, r7, #7
    5338:	781b      	ldrb	r3, [r3, #0]
    533a:	0018      	movs	r0, r3
    533c:	4b04      	ldr	r3, [pc, #16]	; (5350 <system_gclk_chan_set_config+0x3c>)
    533e:	4798      	blx	r3

	/* Write the new configuration */
	GCLK->CLKCTRL.reg = new_clkctrl_config;
    5340:	4b04      	ldr	r3, [pc, #16]	; (5354 <system_gclk_chan_set_config+0x40>)
    5342:	68fa      	ldr	r2, [r7, #12]
    5344:	b292      	uxth	r2, r2
    5346:	805a      	strh	r2, [r3, #2]
}
    5348:	46c0      	nop			; (mov r8, r8)
    534a:	46bd      	mov	sp, r7
    534c:	b004      	add	sp, #16
    534e:	bd80      	pop	{r7, pc}
    5350:	000053a1 	.word	0x000053a1
    5354:	40000c00 	.word	0x40000c00

00005358 <system_gclk_chan_enable>:
 *
 * \param[in] channel   Generic Clock channel to enable
 */
void system_gclk_chan_enable(
		const uint8_t channel)
{
    5358:	b580      	push	{r7, lr}
    535a:	b082      	sub	sp, #8
    535c:	af00      	add	r7, sp, #0
    535e:	0002      	movs	r2, r0
    5360:	1dfb      	adds	r3, r7, #7
    5362:	701a      	strb	r2, [r3, #0]
	system_interrupt_enter_critical_section();
    5364:	4b0a      	ldr	r3, [pc, #40]	; (5390 <system_gclk_chan_enable+0x38>)
    5366:	4798      	blx	r3

	/* Select the requested generator channel */
	*((uint8_t*)&GCLK->CLKCTRL.reg) = channel;
    5368:	4a0a      	ldr	r2, [pc, #40]	; (5394 <system_gclk_chan_enable+0x3c>)
    536a:	1dfb      	adds	r3, r7, #7
    536c:	781b      	ldrb	r3, [r3, #0]
    536e:	7013      	strb	r3, [r2, #0]

	/* Enable the generic clock */
	GCLK->CLKCTRL.reg |= GCLK_CLKCTRL_CLKEN;
    5370:	4909      	ldr	r1, [pc, #36]	; (5398 <system_gclk_chan_enable+0x40>)
    5372:	4b09      	ldr	r3, [pc, #36]	; (5398 <system_gclk_chan_enable+0x40>)
    5374:	885b      	ldrh	r3, [r3, #2]
    5376:	b29b      	uxth	r3, r3
    5378:	2280      	movs	r2, #128	; 0x80
    537a:	01d2      	lsls	r2, r2, #7
    537c:	4313      	orrs	r3, r2
    537e:	b29b      	uxth	r3, r3
    5380:	804b      	strh	r3, [r1, #2]

	system_interrupt_leave_critical_section();
    5382:	4b06      	ldr	r3, [pc, #24]	; (539c <system_gclk_chan_enable+0x44>)
    5384:	4798      	blx	r3
}
    5386:	46c0      	nop			; (mov r8, r8)
    5388:	46bd      	mov	sp, r7
    538a:	b002      	add	sp, #8
    538c:	bd80      	pop	{r7, pc}
    538e:	46c0      	nop			; (mov r8, r8)
    5390:	00005045 	.word	0x00005045
    5394:	40000c02 	.word	0x40000c02
    5398:	40000c00 	.word	0x40000c00
    539c:	00005059 	.word	0x00005059

000053a0 <system_gclk_chan_disable>:
 *
 * \param[in] channel  Generic Clock channel to disable
 */
void system_gclk_chan_disable(
		const uint8_t channel)
{
    53a0:	b580      	push	{r7, lr}
    53a2:	b084      	sub	sp, #16
    53a4:	af00      	add	r7, sp, #0
    53a6:	0002      	movs	r2, r0
    53a8:	1dfb      	adds	r3, r7, #7
    53aa:	701a      	strb	r2, [r3, #0]
	system_interrupt_enter_critical_section();
    53ac:	4b1c      	ldr	r3, [pc, #112]	; (5420 <system_gclk_chan_disable+0x80>)
    53ae:	4798      	blx	r3

	/* Select the requested generator channel */
	*((uint8_t*)&GCLK->CLKCTRL.reg) = channel;
    53b0:	4a1c      	ldr	r2, [pc, #112]	; (5424 <system_gclk_chan_disable+0x84>)
    53b2:	1dfb      	adds	r3, r7, #7
    53b4:	781b      	ldrb	r3, [r3, #0]
    53b6:	7013      	strb	r3, [r2, #0]

	/* Sanity check WRTLOCK */
	Assert(!GCLK->CLKCTRL.bit.WRTLOCK);

	/* Switch to known-working source so that the channel can be disabled */
	uint32_t prev_gen_id = GCLK->CLKCTRL.bit.GEN;
    53b8:	4b1b      	ldr	r3, [pc, #108]	; (5428 <system_gclk_chan_disable+0x88>)
    53ba:	885b      	ldrh	r3, [r3, #2]
    53bc:	051b      	lsls	r3, r3, #20
    53be:	0f1b      	lsrs	r3, r3, #28
    53c0:	b2db      	uxtb	r3, r3
    53c2:	60fb      	str	r3, [r7, #12]
	GCLK->CLKCTRL.bit.GEN = 0;
    53c4:	4a18      	ldr	r2, [pc, #96]	; (5428 <system_gclk_chan_disable+0x88>)
    53c6:	8853      	ldrh	r3, [r2, #2]
    53c8:	4918      	ldr	r1, [pc, #96]	; (542c <system_gclk_chan_disable+0x8c>)
    53ca:	400b      	ands	r3, r1
    53cc:	8053      	strh	r3, [r2, #2]

	/* Disable the generic clock */
	GCLK->CLKCTRL.reg &= ~GCLK_CLKCTRL_CLKEN;
    53ce:	4a16      	ldr	r2, [pc, #88]	; (5428 <system_gclk_chan_disable+0x88>)
    53d0:	4b15      	ldr	r3, [pc, #84]	; (5428 <system_gclk_chan_disable+0x88>)
    53d2:	885b      	ldrh	r3, [r3, #2]
    53d4:	b29b      	uxth	r3, r3
    53d6:	4916      	ldr	r1, [pc, #88]	; (5430 <system_gclk_chan_disable+0x90>)
    53d8:	400b      	ands	r3, r1
    53da:	b29b      	uxth	r3, r3
    53dc:	8053      	strh	r3, [r2, #2]
	while (GCLK->CLKCTRL.reg & GCLK_CLKCTRL_CLKEN) {
    53de:	46c0      	nop			; (mov r8, r8)
    53e0:	4b11      	ldr	r3, [pc, #68]	; (5428 <system_gclk_chan_disable+0x88>)
    53e2:	885b      	ldrh	r3, [r3, #2]
    53e4:	b29b      	uxth	r3, r3
    53e6:	001a      	movs	r2, r3
    53e8:	2380      	movs	r3, #128	; 0x80
    53ea:	01db      	lsls	r3, r3, #7
    53ec:	4013      	ands	r3, r2
    53ee:	d1f7      	bne.n	53e0 <system_gclk_chan_disable+0x40>
		/* Wait for clock to become disabled */
	}

	/* Restore previous configured clock generator */
	GCLK->CLKCTRL.bit.GEN = prev_gen_id;
    53f0:	4a0d      	ldr	r2, [pc, #52]	; (5428 <system_gclk_chan_disable+0x88>)
    53f2:	68fb      	ldr	r3, [r7, #12]
    53f4:	b2db      	uxtb	r3, r3
    53f6:	1c19      	adds	r1, r3, #0
    53f8:	230f      	movs	r3, #15
    53fa:	400b      	ands	r3, r1
    53fc:	b2d9      	uxtb	r1, r3
    53fe:	8853      	ldrh	r3, [r2, #2]
    5400:	1c08      	adds	r0, r1, #0
    5402:	210f      	movs	r1, #15
    5404:	4001      	ands	r1, r0
    5406:	0208      	lsls	r0, r1, #8
    5408:	4908      	ldr	r1, [pc, #32]	; (542c <system_gclk_chan_disable+0x8c>)
    540a:	400b      	ands	r3, r1
    540c:	1c19      	adds	r1, r3, #0
    540e:	1c03      	adds	r3, r0, #0
    5410:	430b      	orrs	r3, r1
    5412:	8053      	strh	r3, [r2, #2]

	system_interrupt_leave_critical_section();
    5414:	4b07      	ldr	r3, [pc, #28]	; (5434 <system_gclk_chan_disable+0x94>)
    5416:	4798      	blx	r3
}
    5418:	46c0      	nop			; (mov r8, r8)
    541a:	46bd      	mov	sp, r7
    541c:	b004      	add	sp, #16
    541e:	bd80      	pop	{r7, pc}
    5420:	00005045 	.word	0x00005045
    5424:	40000c02 	.word	0x40000c02
    5428:	40000c00 	.word	0x40000c00
    542c:	fffff0ff 	.word	0xfffff0ff
    5430:	ffffbfff 	.word	0xffffbfff
    5434:	00005059 	.word	0x00005059

00005438 <system_gclk_chan_get_hz>:
 *
 * \return The frequency of the generic clock channel, in Hz.
 */
uint32_t system_gclk_chan_get_hz(
		const uint8_t channel)
{
    5438:	b580      	push	{r7, lr}
    543a:	b084      	sub	sp, #16
    543c:	af00      	add	r7, sp, #0
    543e:	0002      	movs	r2, r0
    5440:	1dfb      	adds	r3, r7, #7
    5442:	701a      	strb	r2, [r3, #0]
	uint8_t gen_id;

	system_interrupt_enter_critical_section();
    5444:	4b0d      	ldr	r3, [pc, #52]	; (547c <system_gclk_chan_get_hz+0x44>)
    5446:	4798      	blx	r3

	/* Select the requested generic clock channel */
	*((uint8_t*)&GCLK->CLKCTRL.reg) = channel;
    5448:	4a0d      	ldr	r2, [pc, #52]	; (5480 <system_gclk_chan_get_hz+0x48>)
    544a:	1dfb      	adds	r3, r7, #7
    544c:	781b      	ldrb	r3, [r3, #0]
    544e:	7013      	strb	r3, [r2, #0]
	gen_id = GCLK->CLKCTRL.bit.GEN;
    5450:	4b0c      	ldr	r3, [pc, #48]	; (5484 <system_gclk_chan_get_hz+0x4c>)
    5452:	885b      	ldrh	r3, [r3, #2]
    5454:	051b      	lsls	r3, r3, #20
    5456:	0f1b      	lsrs	r3, r3, #28
    5458:	b2da      	uxtb	r2, r3
    545a:	230f      	movs	r3, #15
    545c:	18fb      	adds	r3, r7, r3
    545e:	701a      	strb	r2, [r3, #0]

	system_interrupt_leave_critical_section();
    5460:	4b09      	ldr	r3, [pc, #36]	; (5488 <system_gclk_chan_get_hz+0x50>)
    5462:	4798      	blx	r3

	/* Return the clock speed of the associated GCLK generator */
	return system_gclk_gen_get_hz(gen_id);
    5464:	230f      	movs	r3, #15
    5466:	18fb      	adds	r3, r7, r3
    5468:	781b      	ldrb	r3, [r3, #0]
    546a:	0018      	movs	r0, r3
    546c:	4b07      	ldr	r3, [pc, #28]	; (548c <system_gclk_chan_get_hz+0x54>)
    546e:	4798      	blx	r3
    5470:	0003      	movs	r3, r0
}
    5472:	0018      	movs	r0, r3
    5474:	46bd      	mov	sp, r7
    5476:	b004      	add	sp, #16
    5478:	bd80      	pop	{r7, pc}
    547a:	46c0      	nop			; (mov r8, r8)
    547c:	00005045 	.word	0x00005045
    5480:	40000c02 	.word	0x40000c02
    5484:	40000c00 	.word	0x40000c00
    5488:	00005059 	.word	0x00005059
    548c:	0000523d 	.word	0x0000523d

00005490 <_system_dummy_init>:
 * Dummy initialization function, used as a weak alias target for the various
 * init functions called by \ref system_init().
 */
void _system_dummy_init(void);
void _system_dummy_init(void)
{
    5490:	b580      	push	{r7, lr}
    5492:	af00      	add	r7, sp, #0
	return;
    5494:	46c0      	nop			; (mov r8, r8)
}
    5496:	46bd      	mov	sp, r7
    5498:	bd80      	pop	{r7, pc}
	...

0000549c <system_init>:
 *  - Board hardware initialization (via the Board module)
 *  - Event system driver initialization (via the EVSYS module)
 *  - External Interrupt driver initialization (via the EXTINT module)
 */
void system_init(void)
{
    549c:	b580      	push	{r7, lr}
    549e:	af00      	add	r7, sp, #0
	/* Configure GCLK and clock sources according to conf_clocks.h */
	system_clock_init();
    54a0:	4b06      	ldr	r3, [pc, #24]	; (54bc <system_init+0x20>)
    54a2:	4798      	blx	r3

	/* Initialize board hardware */
	system_board_init();
    54a4:	4b06      	ldr	r3, [pc, #24]	; (54c0 <system_init+0x24>)
    54a6:	4798      	blx	r3

	/* Initialize EVSYS hardware */
	_system_events_init();
    54a8:	4b06      	ldr	r3, [pc, #24]	; (54c4 <system_init+0x28>)
    54aa:	4798      	blx	r3

	/* Initialize External hardware */
	_system_extint_init();
    54ac:	4b06      	ldr	r3, [pc, #24]	; (54c8 <system_init+0x2c>)
    54ae:	4798      	blx	r3
	
	/* Initialize DIVAS hardware */
	_system_divas_init();
    54b0:	4b06      	ldr	r3, [pc, #24]	; (54cc <system_init+0x30>)
    54b2:	4798      	blx	r3
}
    54b4:	46c0      	nop			; (mov r8, r8)
    54b6:	46bd      	mov	sp, r7
    54b8:	bd80      	pop	{r7, pc}
    54ba:	46c0      	nop			; (mov r8, r8)
    54bc:	00004f15 	.word	0x00004f15
    54c0:	000002a5 	.word	0x000002a5
    54c4:	00005491 	.word	0x00005491
    54c8:	00005491 	.word	0x00005491
    54cc:	00005491 	.word	0x00005491

000054d0 <system_interrupt_enable_global>:
{
    54d0:	b580      	push	{r7, lr}
    54d2:	af00      	add	r7, sp, #0
	cpu_irq_enable();
    54d4:	4b04      	ldr	r3, [pc, #16]	; (54e8 <system_interrupt_enable_global+0x18>)
    54d6:	2201      	movs	r2, #1
    54d8:	701a      	strb	r2, [r3, #0]
  __ASM volatile ("dmb 0xF":::"memory");
    54da:	f3bf 8f5f 	dmb	sy
  __ASM volatile ("cpsie i" : : : "memory");
    54de:	b662      	cpsie	i
}
    54e0:	46c0      	nop			; (mov r8, r8)
    54e2:	46bd      	mov	sp, r7
    54e4:	bd80      	pop	{r7, pc}
    54e6:	46c0      	nop			; (mov r8, r8)
    54e8:	20000000 	.word	0x20000000

000054ec <main>:

volatile char buffer[7];


int main (void)
{
    54ec:	b590      	push	{r4, r7, lr}
    54ee:	b089      	sub	sp, #36	; 0x24
    54f0:	af00      	add	r7, sp, #0
	//Board Initialization -- Code that initializes the HW and happens only once
	system_init();
    54f2:	4b1b      	ldr	r3, [pc, #108]	; (5560 <main+0x74>)
    54f4:	4798      	blx	r3
	InitializeSerialConsole();
    54f6:	4b1b      	ldr	r3, [pc, #108]	; (5564 <main+0x78>)
    54f8:	4798      	blx	r3

	/* Insert application code here, after the board has been initialized. */


	system_interrupt_enable_global();
    54fa:	4b1b      	ldr	r3, [pc, #108]	; (5568 <main+0x7c>)
    54fc:	4798      	blx	r3
	
	SerialConsoleWriteString("ESE516 - CLI and Debug Logger\r\n");	//Order to add string to TX Buffer
    54fe:	4b1b      	ldr	r3, [pc, #108]	; (556c <main+0x80>)
    5500:	0018      	movs	r0, r3
    5502:	4b1b      	ldr	r3, [pc, #108]	; (5570 <main+0x84>)
    5504:	4798      	blx	r3
	
	char string[] = "CLI starter code - ESE516\r\n";
    5506:	1d3b      	adds	r3, r7, #4
    5508:	4a1a      	ldr	r2, [pc, #104]	; (5574 <main+0x88>)
    550a:	ca13      	ldmia	r2!, {r0, r1, r4}
    550c:	c313      	stmia	r3!, {r0, r1, r4}
    550e:	ca13      	ldmia	r2!, {r0, r1, r4}
    5510:	c313      	stmia	r3!, {r0, r1, r4}
    5512:	6812      	ldr	r2, [r2, #0]
    5514:	601a      	str	r2, [r3, #0]
	
	/*Simple DebugLogger Test*/
	setLogLevel(LOG_INFO_LVL); 
    5516:	2000      	movs	r0, #0
    5518:	4b17      	ldr	r3, [pc, #92]	; (5578 <main+0x8c>)
    551a:	4798      	blx	r3
	LogMessage(LOG_INFO_LVL , "%s", string); //Test
    551c:	1d3a      	adds	r2, r7, #4
    551e:	4b17      	ldr	r3, [pc, #92]	; (557c <main+0x90>)
    5520:	0019      	movs	r1, r3
    5522:	2000      	movs	r0, #0
    5524:	4b16      	ldr	r3, [pc, #88]	; (5580 <main+0x94>)
    5526:	4798      	blx	r3
	setLogLevel(LOG_ERROR_LVL); //Sets the Debug Logger to only allow messages with LOG_ERROR_LVL or higher to be printed
    5528:	2003      	movs	r0, #3
    552a:	4b13      	ldr	r3, [pc, #76]	; (5578 <main+0x8c>)
    552c:	4798      	blx	r3
	LogMessage(LOG_INFO_LVL, "Performing Temperature Test\r\n"); //This should NOT print
    552e:	4b15      	ldr	r3, [pc, #84]	; (5584 <main+0x98>)
    5530:	0019      	movs	r1, r3
    5532:	2000      	movs	r0, #0
    5534:	4b12      	ldr	r3, [pc, #72]	; (5580 <main+0x94>)
    5536:	4798      	blx	r3
	LogMessage(LOG_FATAL_LVL,"Error! Temperature over %d Degrees!\r\n", 55); //This should print
    5538:	4b13      	ldr	r3, [pc, #76]	; (5588 <main+0x9c>)
    553a:	2237      	movs	r2, #55	; 0x37
    553c:	0019      	movs	r1, r3
    553e:	2004      	movs	r0, #4
    5540:	4b0f      	ldr	r3, [pc, #60]	; (5580 <main+0x94>)
    5542:	4798      	blx	r3
	LogMessage(LOG_ERROR_LVL,"System error!\r\n"); //This should print , since they are the same level
    5544:	4b11      	ldr	r3, [pc, #68]	; (558c <main+0xa0>)
    5546:	0019      	movs	r1, r3
    5548:	2003      	movs	r0, #3
    554a:	4b0d      	ldr	r3, [pc, #52]	; (5580 <main+0x94>)
    554c:	4798      	blx	r3
	
    LogMessage(LOG_INFO_LVL , "ESE516 CLI STARTER PROJECT STARTED\r\n"); //this should not print since it is error level now
    554e:	4b10      	ldr	r3, [pc, #64]	; (5590 <main+0xa4>)
    5550:	0019      	movs	r1, r3
    5552:	2000      	movs	r0, #0
    5554:	4b0a      	ldr	r3, [pc, #40]	; (5580 <main+0x94>)
    5556:	4798      	blx	r3

    // Start FreeRTOS scheduler.
    vTaskStartScheduler();
    5558:	4b0e      	ldr	r3, [pc, #56]	; (5594 <main+0xa8>)
    555a:	4798      	blx	r3

	while(1);
    555c:	e7fe      	b.n	555c <main+0x70>
    555e:	46c0      	nop			; (mov r8, r8)
    5560:	0000549d 	.word	0x0000549d
    5564:	00003b2d 	.word	0x00003b2d
    5568:	000054d1 	.word	0x000054d1
    556c:	000064cc 	.word	0x000064cc
    5570:	00003ba9 	.word	0x00003ba9
    5574:	00006570 	.word	0x00006570
    5578:	00003c71 	.word	0x00003c71
    557c:	000064ec 	.word	0x000064ec
    5580:	00003c91 	.word	0x00003c91
    5584:	000064f0 	.word	0x000064f0
    5588:	00006510 	.word	0x00006510
    558c:	00006538 	.word	0x00006538
    5590:	00006548 	.word	0x00006548
    5594:	000021d5 	.word	0x000021d5

00005598 <StartTasks>:
* @details
* @param[in]        None
* @return           None
*****************************************************************************/
static void StartTasks(void)
{
    5598:	b590      	push	{r4, r7, lr}
    559a:	b083      	sub	sp, #12
    559c:	af02      	add	r7, sp, #8
	

	snprintf(bufferPrint, 64, "Heap before starting tasks: %d\r\n", xPortGetFreeHeapSize());
    559e:	4b17      	ldr	r3, [pc, #92]	; (55fc <StartTasks+0x64>)
    55a0:	4798      	blx	r3
    55a2:	0003      	movs	r3, r0
    55a4:	4a16      	ldr	r2, [pc, #88]	; (5600 <StartTasks+0x68>)
    55a6:	4817      	ldr	r0, [pc, #92]	; (5604 <StartTasks+0x6c>)
    55a8:	2140      	movs	r1, #64	; 0x40
    55aa:	4c17      	ldr	r4, [pc, #92]	; (5608 <StartTasks+0x70>)
    55ac:	47a0      	blx	r4
	SerialConsoleWriteString(bufferPrint);
    55ae:	4b15      	ldr	r3, [pc, #84]	; (5604 <StartTasks+0x6c>)
    55b0:	0018      	movs	r0, r3
    55b2:	4b16      	ldr	r3, [pc, #88]	; (560c <StartTasks+0x74>)
    55b4:	4798      	blx	r3

	//Initialize Tasks here
	
	if (xTaskCreate(vCommandConsoleTask, "CLI_TASK", CLI_TASK_SIZE, NULL, CLI_PRIORITY, &cliTaskHandle) != pdPASS) {
    55b6:	2380      	movs	r3, #128	; 0x80
    55b8:	005a      	lsls	r2, r3, #1
    55ba:	4915      	ldr	r1, [pc, #84]	; (5610 <StartTasks+0x78>)
    55bc:	4815      	ldr	r0, [pc, #84]	; (5614 <StartTasks+0x7c>)
    55be:	4b16      	ldr	r3, [pc, #88]	; (5618 <StartTasks+0x80>)
    55c0:	9301      	str	r3, [sp, #4]
    55c2:	2304      	movs	r3, #4
    55c4:	9300      	str	r3, [sp, #0]
    55c6:	2300      	movs	r3, #0
    55c8:	4c14      	ldr	r4, [pc, #80]	; (561c <StartTasks+0x84>)
    55ca:	47a0      	blx	r4
    55cc:	0003      	movs	r3, r0
    55ce:	2b01      	cmp	r3, #1
    55d0:	d003      	beq.n	55da <StartTasks+0x42>
		SerialConsoleWriteString("ERR: CLI task could not be initialized!\r\n");
    55d2:	4b13      	ldr	r3, [pc, #76]	; (5620 <StartTasks+0x88>)
    55d4:	0018      	movs	r0, r3
    55d6:	4b0d      	ldr	r3, [pc, #52]	; (560c <StartTasks+0x74>)
    55d8:	4798      	blx	r3
	}

	snprintf(bufferPrint, 64, "Heap after starting CLI: %d\r\n", xPortGetFreeHeapSize());
    55da:	4b08      	ldr	r3, [pc, #32]	; (55fc <StartTasks+0x64>)
    55dc:	4798      	blx	r3
    55de:	0003      	movs	r3, r0
    55e0:	4a10      	ldr	r2, [pc, #64]	; (5624 <StartTasks+0x8c>)
    55e2:	4808      	ldr	r0, [pc, #32]	; (5604 <StartTasks+0x6c>)
    55e4:	2140      	movs	r1, #64	; 0x40
    55e6:	4c08      	ldr	r4, [pc, #32]	; (5608 <StartTasks+0x70>)
    55e8:	47a0      	blx	r4
	SerialConsoleWriteString(bufferPrint);
    55ea:	4b06      	ldr	r3, [pc, #24]	; (5604 <StartTasks+0x6c>)
    55ec:	0018      	movs	r0, r3
    55ee:	4b07      	ldr	r3, [pc, #28]	; (560c <StartTasks+0x74>)
    55f0:	4798      	blx	r3
	
}
    55f2:	46c0      	nop			; (mov r8, r8)
    55f4:	46bd      	mov	sp, r7
    55f6:	b001      	add	sp, #4
    55f8:	bd90      	pop	{r4, r7, pc}
    55fa:	46c0      	nop			; (mov r8, r8)
    55fc:	0000133d 	.word	0x0000133d
    5600:	0000658c 	.word	0x0000658c
    5604:	200033d8 	.word	0x200033d8
    5608:	000059d1 	.word	0x000059d1
    560c:	00003ba9 	.word	0x00003ba9
    5610:	000065b0 	.word	0x000065b0
    5614:	00003351 	.word	0x00003351
    5618:	20003418 	.word	0x20003418
    561c:	00001f41 	.word	0x00001f41
    5620:	000065bc 	.word	0x000065bc
    5624:	000065e8 	.word	0x000065e8

00005628 <vApplicationDaemonTaskStartupHook>:
* @param[in]        None
* @return           None
*****************************************************************************/

void vApplicationDaemonTaskStartupHook (void *ucParameterToPass) //vApplicationDaemonTaskStartupHook()
{
    5628:	b580      	push	{r7, lr}
    562a:	b082      	sub	sp, #8
    562c:	af00      	add	r7, sp, #0
    562e:	6078      	str	r0, [r7, #4]
	
	//CODE HERE: Initialize any HW here
	//SerialConsoleWriteString("hi\r\n");
	
	//Initialize tasks
	StartTasks();	
    5630:	4b02      	ldr	r3, [pc, #8]	; (563c <vApplicationDaemonTaskStartupHook+0x14>)
    5632:	4798      	blx	r3
	
	
}
    5634:	46c0      	nop			; (mov r8, r8)
    5636:	46bd      	mov	sp, r7
    5638:	b002      	add	sp, #8
    563a:	bd80      	pop	{r7, pc}
    563c:	00005599 	.word	0x00005599

00005640 <vApplicationMallocFailedHook>:



void vApplicationMallocFailedHook(void)
{
    5640:	b580      	push	{r7, lr}
    5642:	af00      	add	r7, sp, #0
	SerialConsoleWriteString("Error on memory allocation on FREERTOS!\r\n");
    5644:	4b02      	ldr	r3, [pc, #8]	; (5650 <vApplicationMallocFailedHook+0x10>)
    5646:	0018      	movs	r0, r3
    5648:	4b02      	ldr	r3, [pc, #8]	; (5654 <vApplicationMallocFailedHook+0x14>)
    564a:	4798      	blx	r3
	while(1);
    564c:	e7fe      	b.n	564c <vApplicationMallocFailedHook+0xc>
    564e:	46c0      	nop			; (mov r8, r8)
    5650:	00006608 	.word	0x00006608
    5654:	00003ba9 	.word	0x00003ba9

00005658 <vApplicationStackOverflowHook>:
}

void vApplicationStackOverflowHook(void)
{
    5658:	b580      	push	{r7, lr}
    565a:	af00      	add	r7, sp, #0
	SerialConsoleWriteString("Error on stack overflow on FREERTOS!\r\n");
    565c:	4b02      	ldr	r3, [pc, #8]	; (5668 <vApplicationStackOverflowHook+0x10>)
    565e:	0018      	movs	r0, r3
    5660:	4b02      	ldr	r3, [pc, #8]	; (566c <vApplicationStackOverflowHook+0x14>)
    5662:	4798      	blx	r3
	while(1);
    5664:	e7fe      	b.n	5664 <vApplicationStackOverflowHook+0xc>
    5666:	46c0      	nop			; (mov r8, r8)
    5668:	00006634 	.word	0x00006634
    566c:	00003ba9 	.word	0x00003ba9

00005670 <__udivsi3>:
    5670:	2200      	movs	r2, #0
    5672:	0843      	lsrs	r3, r0, #1
    5674:	428b      	cmp	r3, r1
    5676:	d374      	bcc.n	5762 <__udivsi3+0xf2>
    5678:	0903      	lsrs	r3, r0, #4
    567a:	428b      	cmp	r3, r1
    567c:	d35f      	bcc.n	573e <__udivsi3+0xce>
    567e:	0a03      	lsrs	r3, r0, #8
    5680:	428b      	cmp	r3, r1
    5682:	d344      	bcc.n	570e <__udivsi3+0x9e>
    5684:	0b03      	lsrs	r3, r0, #12
    5686:	428b      	cmp	r3, r1
    5688:	d328      	bcc.n	56dc <__udivsi3+0x6c>
    568a:	0c03      	lsrs	r3, r0, #16
    568c:	428b      	cmp	r3, r1
    568e:	d30d      	bcc.n	56ac <__udivsi3+0x3c>
    5690:	22ff      	movs	r2, #255	; 0xff
    5692:	0209      	lsls	r1, r1, #8
    5694:	ba12      	rev	r2, r2
    5696:	0c03      	lsrs	r3, r0, #16
    5698:	428b      	cmp	r3, r1
    569a:	d302      	bcc.n	56a2 <__udivsi3+0x32>
    569c:	1212      	asrs	r2, r2, #8
    569e:	0209      	lsls	r1, r1, #8
    56a0:	d065      	beq.n	576e <__udivsi3+0xfe>
    56a2:	0b03      	lsrs	r3, r0, #12
    56a4:	428b      	cmp	r3, r1
    56a6:	d319      	bcc.n	56dc <__udivsi3+0x6c>
    56a8:	e000      	b.n	56ac <__udivsi3+0x3c>
    56aa:	0a09      	lsrs	r1, r1, #8
    56ac:	0bc3      	lsrs	r3, r0, #15
    56ae:	428b      	cmp	r3, r1
    56b0:	d301      	bcc.n	56b6 <__udivsi3+0x46>
    56b2:	03cb      	lsls	r3, r1, #15
    56b4:	1ac0      	subs	r0, r0, r3
    56b6:	4152      	adcs	r2, r2
    56b8:	0b83      	lsrs	r3, r0, #14
    56ba:	428b      	cmp	r3, r1
    56bc:	d301      	bcc.n	56c2 <__udivsi3+0x52>
    56be:	038b      	lsls	r3, r1, #14
    56c0:	1ac0      	subs	r0, r0, r3
    56c2:	4152      	adcs	r2, r2
    56c4:	0b43      	lsrs	r3, r0, #13
    56c6:	428b      	cmp	r3, r1
    56c8:	d301      	bcc.n	56ce <__udivsi3+0x5e>
    56ca:	034b      	lsls	r3, r1, #13
    56cc:	1ac0      	subs	r0, r0, r3
    56ce:	4152      	adcs	r2, r2
    56d0:	0b03      	lsrs	r3, r0, #12
    56d2:	428b      	cmp	r3, r1
    56d4:	d301      	bcc.n	56da <__udivsi3+0x6a>
    56d6:	030b      	lsls	r3, r1, #12
    56d8:	1ac0      	subs	r0, r0, r3
    56da:	4152      	adcs	r2, r2
    56dc:	0ac3      	lsrs	r3, r0, #11
    56de:	428b      	cmp	r3, r1
    56e0:	d301      	bcc.n	56e6 <__udivsi3+0x76>
    56e2:	02cb      	lsls	r3, r1, #11
    56e4:	1ac0      	subs	r0, r0, r3
    56e6:	4152      	adcs	r2, r2
    56e8:	0a83      	lsrs	r3, r0, #10
    56ea:	428b      	cmp	r3, r1
    56ec:	d301      	bcc.n	56f2 <__udivsi3+0x82>
    56ee:	028b      	lsls	r3, r1, #10
    56f0:	1ac0      	subs	r0, r0, r3
    56f2:	4152      	adcs	r2, r2
    56f4:	0a43      	lsrs	r3, r0, #9
    56f6:	428b      	cmp	r3, r1
    56f8:	d301      	bcc.n	56fe <__udivsi3+0x8e>
    56fa:	024b      	lsls	r3, r1, #9
    56fc:	1ac0      	subs	r0, r0, r3
    56fe:	4152      	adcs	r2, r2
    5700:	0a03      	lsrs	r3, r0, #8
    5702:	428b      	cmp	r3, r1
    5704:	d301      	bcc.n	570a <__udivsi3+0x9a>
    5706:	020b      	lsls	r3, r1, #8
    5708:	1ac0      	subs	r0, r0, r3
    570a:	4152      	adcs	r2, r2
    570c:	d2cd      	bcs.n	56aa <__udivsi3+0x3a>
    570e:	09c3      	lsrs	r3, r0, #7
    5710:	428b      	cmp	r3, r1
    5712:	d301      	bcc.n	5718 <__udivsi3+0xa8>
    5714:	01cb      	lsls	r3, r1, #7
    5716:	1ac0      	subs	r0, r0, r3
    5718:	4152      	adcs	r2, r2
    571a:	0983      	lsrs	r3, r0, #6
    571c:	428b      	cmp	r3, r1
    571e:	d301      	bcc.n	5724 <__udivsi3+0xb4>
    5720:	018b      	lsls	r3, r1, #6
    5722:	1ac0      	subs	r0, r0, r3
    5724:	4152      	adcs	r2, r2
    5726:	0943      	lsrs	r3, r0, #5
    5728:	428b      	cmp	r3, r1
    572a:	d301      	bcc.n	5730 <__udivsi3+0xc0>
    572c:	014b      	lsls	r3, r1, #5
    572e:	1ac0      	subs	r0, r0, r3
    5730:	4152      	adcs	r2, r2
    5732:	0903      	lsrs	r3, r0, #4
    5734:	428b      	cmp	r3, r1
    5736:	d301      	bcc.n	573c <__udivsi3+0xcc>
    5738:	010b      	lsls	r3, r1, #4
    573a:	1ac0      	subs	r0, r0, r3
    573c:	4152      	adcs	r2, r2
    573e:	08c3      	lsrs	r3, r0, #3
    5740:	428b      	cmp	r3, r1
    5742:	d301      	bcc.n	5748 <__udivsi3+0xd8>
    5744:	00cb      	lsls	r3, r1, #3
    5746:	1ac0      	subs	r0, r0, r3
    5748:	4152      	adcs	r2, r2
    574a:	0883      	lsrs	r3, r0, #2
    574c:	428b      	cmp	r3, r1
    574e:	d301      	bcc.n	5754 <__udivsi3+0xe4>
    5750:	008b      	lsls	r3, r1, #2
    5752:	1ac0      	subs	r0, r0, r3
    5754:	4152      	adcs	r2, r2
    5756:	0843      	lsrs	r3, r0, #1
    5758:	428b      	cmp	r3, r1
    575a:	d301      	bcc.n	5760 <__udivsi3+0xf0>
    575c:	004b      	lsls	r3, r1, #1
    575e:	1ac0      	subs	r0, r0, r3
    5760:	4152      	adcs	r2, r2
    5762:	1a41      	subs	r1, r0, r1
    5764:	d200      	bcs.n	5768 <__udivsi3+0xf8>
    5766:	4601      	mov	r1, r0
    5768:	4152      	adcs	r2, r2
    576a:	4610      	mov	r0, r2
    576c:	4770      	bx	lr
    576e:	e7ff      	b.n	5770 <__udivsi3+0x100>
    5770:	b501      	push	{r0, lr}
    5772:	2000      	movs	r0, #0
    5774:	f000 f806 	bl	5784 <__aeabi_idiv0>
    5778:	bd02      	pop	{r1, pc}
    577a:	46c0      	nop			; (mov r8, r8)

0000577c <__aeabi_uidivmod>:
    577c:	2900      	cmp	r1, #0
    577e:	d0f7      	beq.n	5770 <__udivsi3+0x100>
    5780:	e776      	b.n	5670 <__udivsi3>
    5782:	4770      	bx	lr

00005784 <__aeabi_idiv0>:
    5784:	4770      	bx	lr
    5786:	46c0      	nop			; (mov r8, r8)

00005788 <__aeabi_lmul>:
    5788:	b5f0      	push	{r4, r5, r6, r7, lr}
    578a:	46ce      	mov	lr, r9
    578c:	4647      	mov	r7, r8
    578e:	0415      	lsls	r5, r2, #16
    5790:	0c2d      	lsrs	r5, r5, #16
    5792:	002e      	movs	r6, r5
    5794:	b580      	push	{r7, lr}
    5796:	0407      	lsls	r7, r0, #16
    5798:	0c14      	lsrs	r4, r2, #16
    579a:	0c3f      	lsrs	r7, r7, #16
    579c:	4699      	mov	r9, r3
    579e:	0c03      	lsrs	r3, r0, #16
    57a0:	437e      	muls	r6, r7
    57a2:	435d      	muls	r5, r3
    57a4:	4367      	muls	r7, r4
    57a6:	4363      	muls	r3, r4
    57a8:	197f      	adds	r7, r7, r5
    57aa:	0c34      	lsrs	r4, r6, #16
    57ac:	19e4      	adds	r4, r4, r7
    57ae:	469c      	mov	ip, r3
    57b0:	42a5      	cmp	r5, r4
    57b2:	d903      	bls.n	57bc <__aeabi_lmul+0x34>
    57b4:	2380      	movs	r3, #128	; 0x80
    57b6:	025b      	lsls	r3, r3, #9
    57b8:	4698      	mov	r8, r3
    57ba:	44c4      	add	ip, r8
    57bc:	464b      	mov	r3, r9
    57be:	4351      	muls	r1, r2
    57c0:	4343      	muls	r3, r0
    57c2:	0436      	lsls	r6, r6, #16
    57c4:	0c36      	lsrs	r6, r6, #16
    57c6:	0c25      	lsrs	r5, r4, #16
    57c8:	0424      	lsls	r4, r4, #16
    57ca:	4465      	add	r5, ip
    57cc:	19a4      	adds	r4, r4, r6
    57ce:	1859      	adds	r1, r3, r1
    57d0:	1949      	adds	r1, r1, r5
    57d2:	0020      	movs	r0, r4
    57d4:	bc0c      	pop	{r2, r3}
    57d6:	4690      	mov	r8, r2
    57d8:	4699      	mov	r9, r3
    57da:	bdf0      	pop	{r4, r5, r6, r7, pc}

000057dc <__libc_init_array>:
    57dc:	b570      	push	{r4, r5, r6, lr}
    57de:	2600      	movs	r6, #0
    57e0:	4d0c      	ldr	r5, [pc, #48]	; (5814 <__libc_init_array+0x38>)
    57e2:	4c0d      	ldr	r4, [pc, #52]	; (5818 <__libc_init_array+0x3c>)
    57e4:	1b64      	subs	r4, r4, r5
    57e6:	10a4      	asrs	r4, r4, #2
    57e8:	42a6      	cmp	r6, r4
    57ea:	d109      	bne.n	5800 <__libc_init_array+0x24>
    57ec:	2600      	movs	r6, #0
    57ee:	f000 ffd5 	bl	679c <_init>
    57f2:	4d0a      	ldr	r5, [pc, #40]	; (581c <__libc_init_array+0x40>)
    57f4:	4c0a      	ldr	r4, [pc, #40]	; (5820 <__libc_init_array+0x44>)
    57f6:	1b64      	subs	r4, r4, r5
    57f8:	10a4      	asrs	r4, r4, #2
    57fa:	42a6      	cmp	r6, r4
    57fc:	d105      	bne.n	580a <__libc_init_array+0x2e>
    57fe:	bd70      	pop	{r4, r5, r6, pc}
    5800:	00b3      	lsls	r3, r6, #2
    5802:	58eb      	ldr	r3, [r5, r3]
    5804:	4798      	blx	r3
    5806:	3601      	adds	r6, #1
    5808:	e7ee      	b.n	57e8 <__libc_init_array+0xc>
    580a:	00b3      	lsls	r3, r6, #2
    580c:	58eb      	ldr	r3, [r5, r3]
    580e:	4798      	blx	r3
    5810:	3601      	adds	r6, #1
    5812:	e7f2      	b.n	57fa <__libc_init_array+0x1e>
    5814:	000067a8 	.word	0x000067a8
    5818:	000067a8 	.word	0x000067a8
    581c:	000067a8 	.word	0x000067a8
    5820:	000067ac 	.word	0x000067ac

00005824 <malloc>:
    5824:	b510      	push	{r4, lr}
    5826:	4b03      	ldr	r3, [pc, #12]	; (5834 <malloc+0x10>)
    5828:	0001      	movs	r1, r0
    582a:	6818      	ldr	r0, [r3, #0]
    582c:	f000 f860 	bl	58f0 <_malloc_r>
    5830:	bd10      	pop	{r4, pc}
    5832:	46c0      	nop			; (mov r8, r8)
    5834:	20000014 	.word	0x20000014

00005838 <memcpy>:
    5838:	2300      	movs	r3, #0
    583a:	b510      	push	{r4, lr}
    583c:	429a      	cmp	r2, r3
    583e:	d100      	bne.n	5842 <memcpy+0xa>
    5840:	bd10      	pop	{r4, pc}
    5842:	5ccc      	ldrb	r4, [r1, r3]
    5844:	54c4      	strb	r4, [r0, r3]
    5846:	3301      	adds	r3, #1
    5848:	e7f8      	b.n	583c <memcpy+0x4>

0000584a <memset>:
    584a:	0003      	movs	r3, r0
    584c:	1882      	adds	r2, r0, r2
    584e:	4293      	cmp	r3, r2
    5850:	d100      	bne.n	5854 <memset+0xa>
    5852:	4770      	bx	lr
    5854:	7019      	strb	r1, [r3, #0]
    5856:	3301      	adds	r3, #1
    5858:	e7f9      	b.n	584e <memset+0x4>
	...

0000585c <_free_r>:
    585c:	b570      	push	{r4, r5, r6, lr}
    585e:	0005      	movs	r5, r0
    5860:	2900      	cmp	r1, #0
    5862:	d010      	beq.n	5886 <_free_r+0x2a>
    5864:	1f0c      	subs	r4, r1, #4
    5866:	6823      	ldr	r3, [r4, #0]
    5868:	2b00      	cmp	r3, #0
    586a:	da00      	bge.n	586e <_free_r+0x12>
    586c:	18e4      	adds	r4, r4, r3
    586e:	0028      	movs	r0, r5
    5870:	f000 f992 	bl	5b98 <__malloc_lock>
    5874:	4a1d      	ldr	r2, [pc, #116]	; (58ec <_free_r+0x90>)
    5876:	6813      	ldr	r3, [r2, #0]
    5878:	2b00      	cmp	r3, #0
    587a:	d105      	bne.n	5888 <_free_r+0x2c>
    587c:	6063      	str	r3, [r4, #4]
    587e:	6014      	str	r4, [r2, #0]
    5880:	0028      	movs	r0, r5
    5882:	f000 f98a 	bl	5b9a <__malloc_unlock>
    5886:	bd70      	pop	{r4, r5, r6, pc}
    5888:	42a3      	cmp	r3, r4
    588a:	d909      	bls.n	58a0 <_free_r+0x44>
    588c:	6821      	ldr	r1, [r4, #0]
    588e:	1860      	adds	r0, r4, r1
    5890:	4283      	cmp	r3, r0
    5892:	d1f3      	bne.n	587c <_free_r+0x20>
    5894:	6818      	ldr	r0, [r3, #0]
    5896:	685b      	ldr	r3, [r3, #4]
    5898:	1841      	adds	r1, r0, r1
    589a:	6021      	str	r1, [r4, #0]
    589c:	e7ee      	b.n	587c <_free_r+0x20>
    589e:	0013      	movs	r3, r2
    58a0:	685a      	ldr	r2, [r3, #4]
    58a2:	2a00      	cmp	r2, #0
    58a4:	d001      	beq.n	58aa <_free_r+0x4e>
    58a6:	42a2      	cmp	r2, r4
    58a8:	d9f9      	bls.n	589e <_free_r+0x42>
    58aa:	6819      	ldr	r1, [r3, #0]
    58ac:	1858      	adds	r0, r3, r1
    58ae:	42a0      	cmp	r0, r4
    58b0:	d10b      	bne.n	58ca <_free_r+0x6e>
    58b2:	6820      	ldr	r0, [r4, #0]
    58b4:	1809      	adds	r1, r1, r0
    58b6:	1858      	adds	r0, r3, r1
    58b8:	6019      	str	r1, [r3, #0]
    58ba:	4282      	cmp	r2, r0
    58bc:	d1e0      	bne.n	5880 <_free_r+0x24>
    58be:	6810      	ldr	r0, [r2, #0]
    58c0:	6852      	ldr	r2, [r2, #4]
    58c2:	1841      	adds	r1, r0, r1
    58c4:	6019      	str	r1, [r3, #0]
    58c6:	605a      	str	r2, [r3, #4]
    58c8:	e7da      	b.n	5880 <_free_r+0x24>
    58ca:	42a0      	cmp	r0, r4
    58cc:	d902      	bls.n	58d4 <_free_r+0x78>
    58ce:	230c      	movs	r3, #12
    58d0:	602b      	str	r3, [r5, #0]
    58d2:	e7d5      	b.n	5880 <_free_r+0x24>
    58d4:	6821      	ldr	r1, [r4, #0]
    58d6:	1860      	adds	r0, r4, r1
    58d8:	4282      	cmp	r2, r0
    58da:	d103      	bne.n	58e4 <_free_r+0x88>
    58dc:	6810      	ldr	r0, [r2, #0]
    58de:	6852      	ldr	r2, [r2, #4]
    58e0:	1841      	adds	r1, r0, r1
    58e2:	6021      	str	r1, [r4, #0]
    58e4:	6062      	str	r2, [r4, #4]
    58e6:	605c      	str	r4, [r3, #4]
    58e8:	e7ca      	b.n	5880 <_free_r+0x24>
    58ea:	46c0      	nop			; (mov r8, r8)
    58ec:	2000341c 	.word	0x2000341c

000058f0 <_malloc_r>:
    58f0:	2303      	movs	r3, #3
    58f2:	b570      	push	{r4, r5, r6, lr}
    58f4:	1ccd      	adds	r5, r1, #3
    58f6:	439d      	bics	r5, r3
    58f8:	3508      	adds	r5, #8
    58fa:	0006      	movs	r6, r0
    58fc:	2d0c      	cmp	r5, #12
    58fe:	d21e      	bcs.n	593e <_malloc_r+0x4e>
    5900:	250c      	movs	r5, #12
    5902:	42a9      	cmp	r1, r5
    5904:	d81d      	bhi.n	5942 <_malloc_r+0x52>
    5906:	0030      	movs	r0, r6
    5908:	f000 f946 	bl	5b98 <__malloc_lock>
    590c:	4a25      	ldr	r2, [pc, #148]	; (59a4 <_malloc_r+0xb4>)
    590e:	6814      	ldr	r4, [r2, #0]
    5910:	0021      	movs	r1, r4
    5912:	2900      	cmp	r1, #0
    5914:	d119      	bne.n	594a <_malloc_r+0x5a>
    5916:	4c24      	ldr	r4, [pc, #144]	; (59a8 <_malloc_r+0xb8>)
    5918:	6823      	ldr	r3, [r4, #0]
    591a:	2b00      	cmp	r3, #0
    591c:	d103      	bne.n	5926 <_malloc_r+0x36>
    591e:	0030      	movs	r0, r6
    5920:	f000 f844 	bl	59ac <_sbrk_r>
    5924:	6020      	str	r0, [r4, #0]
    5926:	0029      	movs	r1, r5
    5928:	0030      	movs	r0, r6
    592a:	f000 f83f 	bl	59ac <_sbrk_r>
    592e:	1c43      	adds	r3, r0, #1
    5930:	d12c      	bne.n	598c <_malloc_r+0x9c>
    5932:	230c      	movs	r3, #12
    5934:	0030      	movs	r0, r6
    5936:	6033      	str	r3, [r6, #0]
    5938:	f000 f92f 	bl	5b9a <__malloc_unlock>
    593c:	e003      	b.n	5946 <_malloc_r+0x56>
    593e:	2d00      	cmp	r5, #0
    5940:	dadf      	bge.n	5902 <_malloc_r+0x12>
    5942:	230c      	movs	r3, #12
    5944:	6033      	str	r3, [r6, #0]
    5946:	2000      	movs	r0, #0
    5948:	bd70      	pop	{r4, r5, r6, pc}
    594a:	680b      	ldr	r3, [r1, #0]
    594c:	1b5b      	subs	r3, r3, r5
    594e:	d41a      	bmi.n	5986 <_malloc_r+0x96>
    5950:	2b0b      	cmp	r3, #11
    5952:	d903      	bls.n	595c <_malloc_r+0x6c>
    5954:	600b      	str	r3, [r1, #0]
    5956:	18cc      	adds	r4, r1, r3
    5958:	6025      	str	r5, [r4, #0]
    595a:	e003      	b.n	5964 <_malloc_r+0x74>
    595c:	428c      	cmp	r4, r1
    595e:	d10e      	bne.n	597e <_malloc_r+0x8e>
    5960:	6863      	ldr	r3, [r4, #4]
    5962:	6013      	str	r3, [r2, #0]
    5964:	0030      	movs	r0, r6
    5966:	f000 f918 	bl	5b9a <__malloc_unlock>
    596a:	0020      	movs	r0, r4
    596c:	2207      	movs	r2, #7
    596e:	300b      	adds	r0, #11
    5970:	1d23      	adds	r3, r4, #4
    5972:	4390      	bics	r0, r2
    5974:	1ac3      	subs	r3, r0, r3
    5976:	d0e7      	beq.n	5948 <_malloc_r+0x58>
    5978:	425a      	negs	r2, r3
    597a:	50e2      	str	r2, [r4, r3]
    597c:	e7e4      	b.n	5948 <_malloc_r+0x58>
    597e:	684b      	ldr	r3, [r1, #4]
    5980:	6063      	str	r3, [r4, #4]
    5982:	000c      	movs	r4, r1
    5984:	e7ee      	b.n	5964 <_malloc_r+0x74>
    5986:	000c      	movs	r4, r1
    5988:	6849      	ldr	r1, [r1, #4]
    598a:	e7c2      	b.n	5912 <_malloc_r+0x22>
    598c:	2303      	movs	r3, #3
    598e:	1cc4      	adds	r4, r0, #3
    5990:	439c      	bics	r4, r3
    5992:	42a0      	cmp	r0, r4
    5994:	d0e0      	beq.n	5958 <_malloc_r+0x68>
    5996:	1a21      	subs	r1, r4, r0
    5998:	0030      	movs	r0, r6
    599a:	f000 f807 	bl	59ac <_sbrk_r>
    599e:	1c43      	adds	r3, r0, #1
    59a0:	d1da      	bne.n	5958 <_malloc_r+0x68>
    59a2:	e7c6      	b.n	5932 <_malloc_r+0x42>
    59a4:	2000341c 	.word	0x2000341c
    59a8:	20003420 	.word	0x20003420

000059ac <_sbrk_r>:
    59ac:	2300      	movs	r3, #0
    59ae:	b570      	push	{r4, r5, r6, lr}
    59b0:	4c06      	ldr	r4, [pc, #24]	; (59cc <_sbrk_r+0x20>)
    59b2:	0005      	movs	r5, r0
    59b4:	0008      	movs	r0, r1
    59b6:	6023      	str	r3, [r4, #0]
    59b8:	f7fb f922 	bl	c00 <_sbrk>
    59bc:	1c43      	adds	r3, r0, #1
    59be:	d103      	bne.n	59c8 <_sbrk_r+0x1c>
    59c0:	6823      	ldr	r3, [r4, #0]
    59c2:	2b00      	cmp	r3, #0
    59c4:	d000      	beq.n	59c8 <_sbrk_r+0x1c>
    59c6:	602b      	str	r3, [r5, #0]
    59c8:	bd70      	pop	{r4, r5, r6, pc}
    59ca:	46c0      	nop			; (mov r8, r8)
    59cc:	200038d4 	.word	0x200038d4

000059d0 <sniprintf>:
    59d0:	b40c      	push	{r2, r3}
    59d2:	b530      	push	{r4, r5, lr}
    59d4:	4b16      	ldr	r3, [pc, #88]	; (5a30 <sniprintf+0x60>)
    59d6:	b09d      	sub	sp, #116	; 0x74
    59d8:	1e0c      	subs	r4, r1, #0
    59da:	681d      	ldr	r5, [r3, #0]
    59dc:	da08      	bge.n	59f0 <sniprintf+0x20>
    59de:	238b      	movs	r3, #139	; 0x8b
    59e0:	2001      	movs	r0, #1
    59e2:	602b      	str	r3, [r5, #0]
    59e4:	4240      	negs	r0, r0
    59e6:	b01d      	add	sp, #116	; 0x74
    59e8:	bc30      	pop	{r4, r5}
    59ea:	bc08      	pop	{r3}
    59ec:	b002      	add	sp, #8
    59ee:	4718      	bx	r3
    59f0:	2382      	movs	r3, #130	; 0x82
    59f2:	a902      	add	r1, sp, #8
    59f4:	009b      	lsls	r3, r3, #2
    59f6:	818b      	strh	r3, [r1, #12]
    59f8:	2300      	movs	r3, #0
    59fa:	9002      	str	r0, [sp, #8]
    59fc:	6108      	str	r0, [r1, #16]
    59fe:	429c      	cmp	r4, r3
    5a00:	d000      	beq.n	5a04 <sniprintf+0x34>
    5a02:	1e63      	subs	r3, r4, #1
    5a04:	608b      	str	r3, [r1, #8]
    5a06:	614b      	str	r3, [r1, #20]
    5a08:	2301      	movs	r3, #1
    5a0a:	425b      	negs	r3, r3
    5a0c:	81cb      	strh	r3, [r1, #14]
    5a0e:	9a20      	ldr	r2, [sp, #128]	; 0x80
    5a10:	ab21      	add	r3, sp, #132	; 0x84
    5a12:	0028      	movs	r0, r5
    5a14:	9301      	str	r3, [sp, #4]
    5a16:	f000 f923 	bl	5c60 <_svfiprintf_r>
    5a1a:	1c43      	adds	r3, r0, #1
    5a1c:	da01      	bge.n	5a22 <sniprintf+0x52>
    5a1e:	238b      	movs	r3, #139	; 0x8b
    5a20:	602b      	str	r3, [r5, #0]
    5a22:	2c00      	cmp	r4, #0
    5a24:	d0df      	beq.n	59e6 <sniprintf+0x16>
    5a26:	2300      	movs	r3, #0
    5a28:	9a02      	ldr	r2, [sp, #8]
    5a2a:	7013      	strb	r3, [r2, #0]
    5a2c:	e7db      	b.n	59e6 <sniprintf+0x16>
    5a2e:	46c0      	nop			; (mov r8, r8)
    5a30:	20000014 	.word	0x20000014

00005a34 <siprintf>:
    5a34:	b40e      	push	{r1, r2, r3}
    5a36:	b510      	push	{r4, lr}
    5a38:	b09d      	sub	sp, #116	; 0x74
    5a3a:	a902      	add	r1, sp, #8
    5a3c:	9002      	str	r0, [sp, #8]
    5a3e:	6108      	str	r0, [r1, #16]
    5a40:	480b      	ldr	r0, [pc, #44]	; (5a70 <siprintf+0x3c>)
    5a42:	2482      	movs	r4, #130	; 0x82
    5a44:	6088      	str	r0, [r1, #8]
    5a46:	6148      	str	r0, [r1, #20]
    5a48:	2001      	movs	r0, #1
    5a4a:	4240      	negs	r0, r0
    5a4c:	ab1f      	add	r3, sp, #124	; 0x7c
    5a4e:	81c8      	strh	r0, [r1, #14]
    5a50:	4808      	ldr	r0, [pc, #32]	; (5a74 <siprintf+0x40>)
    5a52:	cb04      	ldmia	r3!, {r2}
    5a54:	00a4      	lsls	r4, r4, #2
    5a56:	6800      	ldr	r0, [r0, #0]
    5a58:	9301      	str	r3, [sp, #4]
    5a5a:	818c      	strh	r4, [r1, #12]
    5a5c:	f000 f900 	bl	5c60 <_svfiprintf_r>
    5a60:	2300      	movs	r3, #0
    5a62:	9a02      	ldr	r2, [sp, #8]
    5a64:	7013      	strb	r3, [r2, #0]
    5a66:	b01d      	add	sp, #116	; 0x74
    5a68:	bc10      	pop	{r4}
    5a6a:	bc08      	pop	{r3}
    5a6c:	b003      	add	sp, #12
    5a6e:	4718      	bx	r3
    5a70:	7fffffff 	.word	0x7fffffff
    5a74:	20000014 	.word	0x20000014

00005a78 <strcasecmp>:
    5a78:	b5f8      	push	{r3, r4, r5, r6, r7, lr}
    5a7a:	0007      	movs	r7, r0
    5a7c:	000e      	movs	r6, r1
    5a7e:	783c      	ldrb	r4, [r7, #0]
    5a80:	f000 f86a 	bl	5b58 <__locale_ctype_ptr>
    5a84:	2203      	movs	r2, #3
    5a86:	1900      	adds	r0, r0, r4
    5a88:	7843      	ldrb	r3, [r0, #1]
    5a8a:	4013      	ands	r3, r2
    5a8c:	2b01      	cmp	r3, #1
    5a8e:	d100      	bne.n	5a92 <strcasecmp+0x1a>
    5a90:	3420      	adds	r4, #32
    5a92:	7835      	ldrb	r5, [r6, #0]
    5a94:	f000 f860 	bl	5b58 <__locale_ctype_ptr>
    5a98:	2203      	movs	r2, #3
    5a9a:	1940      	adds	r0, r0, r5
    5a9c:	7843      	ldrb	r3, [r0, #1]
    5a9e:	4013      	ands	r3, r2
    5aa0:	2b01      	cmp	r3, #1
    5aa2:	d100      	bne.n	5aa6 <strcasecmp+0x2e>
    5aa4:	3520      	adds	r5, #32
    5aa6:	1b60      	subs	r0, r4, r5
    5aa8:	d103      	bne.n	5ab2 <strcasecmp+0x3a>
    5aaa:	3701      	adds	r7, #1
    5aac:	3601      	adds	r6, #1
    5aae:	2d00      	cmp	r5, #0
    5ab0:	d1e5      	bne.n	5a7e <strcasecmp+0x6>
    5ab2:	bdf8      	pop	{r3, r4, r5, r6, r7, pc}

00005ab4 <strlen>:
    5ab4:	2300      	movs	r3, #0
    5ab6:	5cc2      	ldrb	r2, [r0, r3]
    5ab8:	3301      	adds	r3, #1
    5aba:	2a00      	cmp	r2, #0
    5abc:	d1fb      	bne.n	5ab6 <strlen+0x2>
    5abe:	1e58      	subs	r0, r3, #1
    5ac0:	4770      	bx	lr

00005ac2 <strncmp>:
    5ac2:	2300      	movs	r3, #0
    5ac4:	b530      	push	{r4, r5, lr}
    5ac6:	429a      	cmp	r2, r3
    5ac8:	d00a      	beq.n	5ae0 <strncmp+0x1e>
    5aca:	3a01      	subs	r2, #1
    5acc:	5cc4      	ldrb	r4, [r0, r3]
    5ace:	5ccd      	ldrb	r5, [r1, r3]
    5ad0:	42ac      	cmp	r4, r5
    5ad2:	d104      	bne.n	5ade <strncmp+0x1c>
    5ad4:	429a      	cmp	r2, r3
    5ad6:	d002      	beq.n	5ade <strncmp+0x1c>
    5ad8:	3301      	adds	r3, #1
    5ada:	2c00      	cmp	r4, #0
    5adc:	d1f6      	bne.n	5acc <strncmp+0xa>
    5ade:	1b63      	subs	r3, r4, r5
    5ae0:	0018      	movs	r0, r3
    5ae2:	bd30      	pop	{r4, r5, pc}

00005ae4 <strncpy>:
    5ae4:	b570      	push	{r4, r5, r6, lr}
    5ae6:	0004      	movs	r4, r0
    5ae8:	2a00      	cmp	r2, #0
    5aea:	d100      	bne.n	5aee <strncpy+0xa>
    5aec:	bd70      	pop	{r4, r5, r6, pc}
    5aee:	780d      	ldrb	r5, [r1, #0]
    5af0:	1e56      	subs	r6, r2, #1
    5af2:	1c63      	adds	r3, r4, #1
    5af4:	7025      	strb	r5, [r4, #0]
    5af6:	3101      	adds	r1, #1
    5af8:	2d00      	cmp	r5, #0
    5afa:	d105      	bne.n	5b08 <strncpy+0x24>
    5afc:	18a4      	adds	r4, r4, r2
    5afe:	429c      	cmp	r4, r3
    5b00:	d0f4      	beq.n	5aec <strncpy+0x8>
    5b02:	701d      	strb	r5, [r3, #0]
    5b04:	3301      	adds	r3, #1
    5b06:	e7fa      	b.n	5afe <strncpy+0x1a>
    5b08:	001c      	movs	r4, r3
    5b0a:	0032      	movs	r2, r6
    5b0c:	e7ec      	b.n	5ae8 <strncpy+0x4>
	...

00005b10 <_vsiprintf_r>:
    5b10:	b530      	push	{r4, r5, lr}
    5b12:	b09b      	sub	sp, #108	; 0x6c
    5b14:	9100      	str	r1, [sp, #0]
    5b16:	9104      	str	r1, [sp, #16]
    5b18:	4908      	ldr	r1, [pc, #32]	; (5b3c <_vsiprintf_r+0x2c>)
    5b1a:	466d      	mov	r5, sp
    5b1c:	9102      	str	r1, [sp, #8]
    5b1e:	9105      	str	r1, [sp, #20]
    5b20:	2101      	movs	r1, #1
    5b22:	2482      	movs	r4, #130	; 0x82
    5b24:	4249      	negs	r1, r1
    5b26:	81e9      	strh	r1, [r5, #14]
    5b28:	00a4      	lsls	r4, r4, #2
    5b2a:	4669      	mov	r1, sp
    5b2c:	81ac      	strh	r4, [r5, #12]
    5b2e:	f000 f897 	bl	5c60 <_svfiprintf_r>
    5b32:	2300      	movs	r3, #0
    5b34:	9a00      	ldr	r2, [sp, #0]
    5b36:	7013      	strb	r3, [r2, #0]
    5b38:	b01b      	add	sp, #108	; 0x6c
    5b3a:	bd30      	pop	{r4, r5, pc}
    5b3c:	7fffffff 	.word	0x7fffffff

00005b40 <vsiprintf>:
    5b40:	b510      	push	{r4, lr}
    5b42:	0013      	movs	r3, r2
    5b44:	000a      	movs	r2, r1
    5b46:	0001      	movs	r1, r0
    5b48:	4802      	ldr	r0, [pc, #8]	; (5b54 <vsiprintf+0x14>)
    5b4a:	6800      	ldr	r0, [r0, #0]
    5b4c:	f7ff ffe0 	bl	5b10 <_vsiprintf_r>
    5b50:	bd10      	pop	{r4, pc}
    5b52:	46c0      	nop			; (mov r8, r8)
    5b54:	20000014 	.word	0x20000014

00005b58 <__locale_ctype_ptr>:
    5b58:	4b04      	ldr	r3, [pc, #16]	; (5b6c <__locale_ctype_ptr+0x14>)
    5b5a:	681b      	ldr	r3, [r3, #0]
    5b5c:	6a1b      	ldr	r3, [r3, #32]
    5b5e:	2b00      	cmp	r3, #0
    5b60:	d100      	bne.n	5b64 <__locale_ctype_ptr+0xc>
    5b62:	4b03      	ldr	r3, [pc, #12]	; (5b70 <__locale_ctype_ptr+0x18>)
    5b64:	33ec      	adds	r3, #236	; 0xec
    5b66:	6818      	ldr	r0, [r3, #0]
    5b68:	4770      	bx	lr
    5b6a:	46c0      	nop			; (mov r8, r8)
    5b6c:	20000014 	.word	0x20000014
    5b70:	20000078 	.word	0x20000078

00005b74 <__ascii_mbtowc>:
    5b74:	b082      	sub	sp, #8
    5b76:	2900      	cmp	r1, #0
    5b78:	d100      	bne.n	5b7c <__ascii_mbtowc+0x8>
    5b7a:	a901      	add	r1, sp, #4
    5b7c:	1e10      	subs	r0, r2, #0
    5b7e:	d006      	beq.n	5b8e <__ascii_mbtowc+0x1a>
    5b80:	2b00      	cmp	r3, #0
    5b82:	d006      	beq.n	5b92 <__ascii_mbtowc+0x1e>
    5b84:	7813      	ldrb	r3, [r2, #0]
    5b86:	600b      	str	r3, [r1, #0]
    5b88:	7810      	ldrb	r0, [r2, #0]
    5b8a:	1e43      	subs	r3, r0, #1
    5b8c:	4198      	sbcs	r0, r3
    5b8e:	b002      	add	sp, #8
    5b90:	4770      	bx	lr
    5b92:	2002      	movs	r0, #2
    5b94:	4240      	negs	r0, r0
    5b96:	e7fa      	b.n	5b8e <__ascii_mbtowc+0x1a>

00005b98 <__malloc_lock>:
    5b98:	4770      	bx	lr

00005b9a <__malloc_unlock>:
    5b9a:	4770      	bx	lr

00005b9c <__ssputs_r>:
    5b9c:	b5f0      	push	{r4, r5, r6, r7, lr}
    5b9e:	688e      	ldr	r6, [r1, #8]
    5ba0:	b085      	sub	sp, #20
    5ba2:	0007      	movs	r7, r0
    5ba4:	000c      	movs	r4, r1
    5ba6:	9203      	str	r2, [sp, #12]
    5ba8:	9301      	str	r3, [sp, #4]
    5baa:	429e      	cmp	r6, r3
    5bac:	d839      	bhi.n	5c22 <__ssputs_r+0x86>
    5bae:	2390      	movs	r3, #144	; 0x90
    5bb0:	898a      	ldrh	r2, [r1, #12]
    5bb2:	00db      	lsls	r3, r3, #3
    5bb4:	421a      	tst	r2, r3
    5bb6:	d034      	beq.n	5c22 <__ssputs_r+0x86>
    5bb8:	2503      	movs	r5, #3
    5bba:	6909      	ldr	r1, [r1, #16]
    5bbc:	6823      	ldr	r3, [r4, #0]
    5bbe:	1a5b      	subs	r3, r3, r1
    5bc0:	9302      	str	r3, [sp, #8]
    5bc2:	6963      	ldr	r3, [r4, #20]
    5bc4:	9802      	ldr	r0, [sp, #8]
    5bc6:	435d      	muls	r5, r3
    5bc8:	0feb      	lsrs	r3, r5, #31
    5bca:	195d      	adds	r5, r3, r5
    5bcc:	9b01      	ldr	r3, [sp, #4]
    5bce:	106d      	asrs	r5, r5, #1
    5bd0:	3301      	adds	r3, #1
    5bd2:	181b      	adds	r3, r3, r0
    5bd4:	42ab      	cmp	r3, r5
    5bd6:	d900      	bls.n	5bda <__ssputs_r+0x3e>
    5bd8:	001d      	movs	r5, r3
    5bda:	0553      	lsls	r3, r2, #21
    5bdc:	d532      	bpl.n	5c44 <__ssputs_r+0xa8>
    5bde:	0029      	movs	r1, r5
    5be0:	0038      	movs	r0, r7
    5be2:	f7ff fe85 	bl	58f0 <_malloc_r>
    5be6:	1e06      	subs	r6, r0, #0
    5be8:	d109      	bne.n	5bfe <__ssputs_r+0x62>
    5bea:	230c      	movs	r3, #12
    5bec:	603b      	str	r3, [r7, #0]
    5bee:	2340      	movs	r3, #64	; 0x40
    5bf0:	2001      	movs	r0, #1
    5bf2:	89a2      	ldrh	r2, [r4, #12]
    5bf4:	4240      	negs	r0, r0
    5bf6:	4313      	orrs	r3, r2
    5bf8:	81a3      	strh	r3, [r4, #12]
    5bfa:	b005      	add	sp, #20
    5bfc:	bdf0      	pop	{r4, r5, r6, r7, pc}
    5bfe:	9a02      	ldr	r2, [sp, #8]
    5c00:	6921      	ldr	r1, [r4, #16]
    5c02:	f7ff fe19 	bl	5838 <memcpy>
    5c06:	89a3      	ldrh	r3, [r4, #12]
    5c08:	4a14      	ldr	r2, [pc, #80]	; (5c5c <__ssputs_r+0xc0>)
    5c0a:	401a      	ands	r2, r3
    5c0c:	2380      	movs	r3, #128	; 0x80
    5c0e:	4313      	orrs	r3, r2
    5c10:	81a3      	strh	r3, [r4, #12]
    5c12:	9b02      	ldr	r3, [sp, #8]
    5c14:	6126      	str	r6, [r4, #16]
    5c16:	18f6      	adds	r6, r6, r3
    5c18:	6026      	str	r6, [r4, #0]
    5c1a:	6165      	str	r5, [r4, #20]
    5c1c:	9e01      	ldr	r6, [sp, #4]
    5c1e:	1aed      	subs	r5, r5, r3
    5c20:	60a5      	str	r5, [r4, #8]
    5c22:	9b01      	ldr	r3, [sp, #4]
    5c24:	42b3      	cmp	r3, r6
    5c26:	d200      	bcs.n	5c2a <__ssputs_r+0x8e>
    5c28:	001e      	movs	r6, r3
    5c2a:	0032      	movs	r2, r6
    5c2c:	9903      	ldr	r1, [sp, #12]
    5c2e:	6820      	ldr	r0, [r4, #0]
    5c30:	f000 fab9 	bl	61a6 <memmove>
    5c34:	68a3      	ldr	r3, [r4, #8]
    5c36:	2000      	movs	r0, #0
    5c38:	1b9b      	subs	r3, r3, r6
    5c3a:	60a3      	str	r3, [r4, #8]
    5c3c:	6823      	ldr	r3, [r4, #0]
    5c3e:	199e      	adds	r6, r3, r6
    5c40:	6026      	str	r6, [r4, #0]
    5c42:	e7da      	b.n	5bfa <__ssputs_r+0x5e>
    5c44:	002a      	movs	r2, r5
    5c46:	0038      	movs	r0, r7
    5c48:	f000 fabf 	bl	61ca <_realloc_r>
    5c4c:	1e06      	subs	r6, r0, #0
    5c4e:	d1e0      	bne.n	5c12 <__ssputs_r+0x76>
    5c50:	6921      	ldr	r1, [r4, #16]
    5c52:	0038      	movs	r0, r7
    5c54:	f7ff fe02 	bl	585c <_free_r>
    5c58:	e7c7      	b.n	5bea <__ssputs_r+0x4e>
    5c5a:	46c0      	nop			; (mov r8, r8)
    5c5c:	fffffb7f 	.word	0xfffffb7f

00005c60 <_svfiprintf_r>:
    5c60:	b5f0      	push	{r4, r5, r6, r7, lr}
    5c62:	b09f      	sub	sp, #124	; 0x7c
    5c64:	9002      	str	r0, [sp, #8]
    5c66:	9305      	str	r3, [sp, #20]
    5c68:	898b      	ldrh	r3, [r1, #12]
    5c6a:	000f      	movs	r7, r1
    5c6c:	0016      	movs	r6, r2
    5c6e:	061b      	lsls	r3, r3, #24
    5c70:	d511      	bpl.n	5c96 <_svfiprintf_r+0x36>
    5c72:	690b      	ldr	r3, [r1, #16]
    5c74:	2b00      	cmp	r3, #0
    5c76:	d10e      	bne.n	5c96 <_svfiprintf_r+0x36>
    5c78:	2140      	movs	r1, #64	; 0x40
    5c7a:	f7ff fe39 	bl	58f0 <_malloc_r>
    5c7e:	6038      	str	r0, [r7, #0]
    5c80:	6138      	str	r0, [r7, #16]
    5c82:	2800      	cmp	r0, #0
    5c84:	d105      	bne.n	5c92 <_svfiprintf_r+0x32>
    5c86:	230c      	movs	r3, #12
    5c88:	9a02      	ldr	r2, [sp, #8]
    5c8a:	3801      	subs	r0, #1
    5c8c:	6013      	str	r3, [r2, #0]
    5c8e:	b01f      	add	sp, #124	; 0x7c
    5c90:	bdf0      	pop	{r4, r5, r6, r7, pc}
    5c92:	2340      	movs	r3, #64	; 0x40
    5c94:	617b      	str	r3, [r7, #20]
    5c96:	2300      	movs	r3, #0
    5c98:	ad06      	add	r5, sp, #24
    5c9a:	616b      	str	r3, [r5, #20]
    5c9c:	3320      	adds	r3, #32
    5c9e:	766b      	strb	r3, [r5, #25]
    5ca0:	3310      	adds	r3, #16
    5ca2:	76ab      	strb	r3, [r5, #26]
    5ca4:	0034      	movs	r4, r6
    5ca6:	7823      	ldrb	r3, [r4, #0]
    5ca8:	2b00      	cmp	r3, #0
    5caa:	d147      	bne.n	5d3c <_svfiprintf_r+0xdc>
    5cac:	1ba3      	subs	r3, r4, r6
    5cae:	9304      	str	r3, [sp, #16]
    5cb0:	d00d      	beq.n	5cce <_svfiprintf_r+0x6e>
    5cb2:	1ba3      	subs	r3, r4, r6
    5cb4:	0032      	movs	r2, r6
    5cb6:	0039      	movs	r1, r7
    5cb8:	9802      	ldr	r0, [sp, #8]
    5cba:	f7ff ff6f 	bl	5b9c <__ssputs_r>
    5cbe:	1c43      	adds	r3, r0, #1
    5cc0:	d100      	bne.n	5cc4 <_svfiprintf_r+0x64>
    5cc2:	e0b5      	b.n	5e30 <_svfiprintf_r+0x1d0>
    5cc4:	696a      	ldr	r2, [r5, #20]
    5cc6:	9b04      	ldr	r3, [sp, #16]
    5cc8:	4694      	mov	ip, r2
    5cca:	4463      	add	r3, ip
    5ccc:	616b      	str	r3, [r5, #20]
    5cce:	7823      	ldrb	r3, [r4, #0]
    5cd0:	2b00      	cmp	r3, #0
    5cd2:	d100      	bne.n	5cd6 <_svfiprintf_r+0x76>
    5cd4:	e0ac      	b.n	5e30 <_svfiprintf_r+0x1d0>
    5cd6:	2201      	movs	r2, #1
    5cd8:	2300      	movs	r3, #0
    5cda:	4252      	negs	r2, r2
    5cdc:	606a      	str	r2, [r5, #4]
    5cde:	a902      	add	r1, sp, #8
    5ce0:	3254      	adds	r2, #84	; 0x54
    5ce2:	1852      	adds	r2, r2, r1
    5ce4:	3401      	adds	r4, #1
    5ce6:	602b      	str	r3, [r5, #0]
    5ce8:	60eb      	str	r3, [r5, #12]
    5cea:	60ab      	str	r3, [r5, #8]
    5cec:	7013      	strb	r3, [r2, #0]
    5cee:	65ab      	str	r3, [r5, #88]	; 0x58
    5cf0:	4e58      	ldr	r6, [pc, #352]	; (5e54 <_svfiprintf_r+0x1f4>)
    5cf2:	2205      	movs	r2, #5
    5cf4:	7821      	ldrb	r1, [r4, #0]
    5cf6:	0030      	movs	r0, r6
    5cf8:	f000 fa4a 	bl	6190 <memchr>
    5cfc:	1c62      	adds	r2, r4, #1
    5cfe:	2800      	cmp	r0, #0
    5d00:	d120      	bne.n	5d44 <_svfiprintf_r+0xe4>
    5d02:	6829      	ldr	r1, [r5, #0]
    5d04:	06cb      	lsls	r3, r1, #27
    5d06:	d504      	bpl.n	5d12 <_svfiprintf_r+0xb2>
    5d08:	2353      	movs	r3, #83	; 0x53
    5d0a:	ae02      	add	r6, sp, #8
    5d0c:	3020      	adds	r0, #32
    5d0e:	199b      	adds	r3, r3, r6
    5d10:	7018      	strb	r0, [r3, #0]
    5d12:	070b      	lsls	r3, r1, #28
    5d14:	d504      	bpl.n	5d20 <_svfiprintf_r+0xc0>
    5d16:	2353      	movs	r3, #83	; 0x53
    5d18:	202b      	movs	r0, #43	; 0x2b
    5d1a:	ae02      	add	r6, sp, #8
    5d1c:	199b      	adds	r3, r3, r6
    5d1e:	7018      	strb	r0, [r3, #0]
    5d20:	7823      	ldrb	r3, [r4, #0]
    5d22:	2b2a      	cmp	r3, #42	; 0x2a
    5d24:	d016      	beq.n	5d54 <_svfiprintf_r+0xf4>
    5d26:	2000      	movs	r0, #0
    5d28:	210a      	movs	r1, #10
    5d2a:	9b09      	ldr	r3, [sp, #36]	; 0x24
    5d2c:	7822      	ldrb	r2, [r4, #0]
    5d2e:	3a30      	subs	r2, #48	; 0x30
    5d30:	2a09      	cmp	r2, #9
    5d32:	d955      	bls.n	5de0 <_svfiprintf_r+0x180>
    5d34:	2800      	cmp	r0, #0
    5d36:	d015      	beq.n	5d64 <_svfiprintf_r+0x104>
    5d38:	9309      	str	r3, [sp, #36]	; 0x24
    5d3a:	e013      	b.n	5d64 <_svfiprintf_r+0x104>
    5d3c:	2b25      	cmp	r3, #37	; 0x25
    5d3e:	d0b5      	beq.n	5cac <_svfiprintf_r+0x4c>
    5d40:	3401      	adds	r4, #1
    5d42:	e7b0      	b.n	5ca6 <_svfiprintf_r+0x46>
    5d44:	2301      	movs	r3, #1
    5d46:	1b80      	subs	r0, r0, r6
    5d48:	4083      	lsls	r3, r0
    5d4a:	6829      	ldr	r1, [r5, #0]
    5d4c:	0014      	movs	r4, r2
    5d4e:	430b      	orrs	r3, r1
    5d50:	602b      	str	r3, [r5, #0]
    5d52:	e7cd      	b.n	5cf0 <_svfiprintf_r+0x90>
    5d54:	9b05      	ldr	r3, [sp, #20]
    5d56:	1d18      	adds	r0, r3, #4
    5d58:	681b      	ldr	r3, [r3, #0]
    5d5a:	9005      	str	r0, [sp, #20]
    5d5c:	2b00      	cmp	r3, #0
    5d5e:	db39      	blt.n	5dd4 <_svfiprintf_r+0x174>
    5d60:	9309      	str	r3, [sp, #36]	; 0x24
    5d62:	0014      	movs	r4, r2
    5d64:	7823      	ldrb	r3, [r4, #0]
    5d66:	2b2e      	cmp	r3, #46	; 0x2e
    5d68:	d10b      	bne.n	5d82 <_svfiprintf_r+0x122>
    5d6a:	7863      	ldrb	r3, [r4, #1]
    5d6c:	1c62      	adds	r2, r4, #1
    5d6e:	2b2a      	cmp	r3, #42	; 0x2a
    5d70:	d13e      	bne.n	5df0 <_svfiprintf_r+0x190>
    5d72:	9b05      	ldr	r3, [sp, #20]
    5d74:	3402      	adds	r4, #2
    5d76:	1d1a      	adds	r2, r3, #4
    5d78:	681b      	ldr	r3, [r3, #0]
    5d7a:	9205      	str	r2, [sp, #20]
    5d7c:	2b00      	cmp	r3, #0
    5d7e:	db34      	blt.n	5dea <_svfiprintf_r+0x18a>
    5d80:	9307      	str	r3, [sp, #28]
    5d82:	4e35      	ldr	r6, [pc, #212]	; (5e58 <_svfiprintf_r+0x1f8>)
    5d84:	7821      	ldrb	r1, [r4, #0]
    5d86:	2203      	movs	r2, #3
    5d88:	0030      	movs	r0, r6
    5d8a:	f000 fa01 	bl	6190 <memchr>
    5d8e:	2800      	cmp	r0, #0
    5d90:	d006      	beq.n	5da0 <_svfiprintf_r+0x140>
    5d92:	2340      	movs	r3, #64	; 0x40
    5d94:	1b80      	subs	r0, r0, r6
    5d96:	4083      	lsls	r3, r0
    5d98:	682a      	ldr	r2, [r5, #0]
    5d9a:	3401      	adds	r4, #1
    5d9c:	4313      	orrs	r3, r2
    5d9e:	602b      	str	r3, [r5, #0]
    5da0:	7821      	ldrb	r1, [r4, #0]
    5da2:	2206      	movs	r2, #6
    5da4:	482d      	ldr	r0, [pc, #180]	; (5e5c <_svfiprintf_r+0x1fc>)
    5da6:	1c66      	adds	r6, r4, #1
    5da8:	7629      	strb	r1, [r5, #24]
    5daa:	f000 f9f1 	bl	6190 <memchr>
    5dae:	2800      	cmp	r0, #0
    5db0:	d046      	beq.n	5e40 <_svfiprintf_r+0x1e0>
    5db2:	4b2b      	ldr	r3, [pc, #172]	; (5e60 <_svfiprintf_r+0x200>)
    5db4:	2b00      	cmp	r3, #0
    5db6:	d12f      	bne.n	5e18 <_svfiprintf_r+0x1b8>
    5db8:	6829      	ldr	r1, [r5, #0]
    5dba:	9b05      	ldr	r3, [sp, #20]
    5dbc:	2207      	movs	r2, #7
    5dbe:	05c9      	lsls	r1, r1, #23
    5dc0:	d528      	bpl.n	5e14 <_svfiprintf_r+0x1b4>
    5dc2:	189b      	adds	r3, r3, r2
    5dc4:	4393      	bics	r3, r2
    5dc6:	3308      	adds	r3, #8
    5dc8:	9305      	str	r3, [sp, #20]
    5dca:	696b      	ldr	r3, [r5, #20]
    5dcc:	9a03      	ldr	r2, [sp, #12]
    5dce:	189b      	adds	r3, r3, r2
    5dd0:	616b      	str	r3, [r5, #20]
    5dd2:	e767      	b.n	5ca4 <_svfiprintf_r+0x44>
    5dd4:	425b      	negs	r3, r3
    5dd6:	60eb      	str	r3, [r5, #12]
    5dd8:	2302      	movs	r3, #2
    5dda:	430b      	orrs	r3, r1
    5ddc:	602b      	str	r3, [r5, #0]
    5dde:	e7c0      	b.n	5d62 <_svfiprintf_r+0x102>
    5de0:	434b      	muls	r3, r1
    5de2:	3401      	adds	r4, #1
    5de4:	189b      	adds	r3, r3, r2
    5de6:	2001      	movs	r0, #1
    5de8:	e7a0      	b.n	5d2c <_svfiprintf_r+0xcc>
    5dea:	2301      	movs	r3, #1
    5dec:	425b      	negs	r3, r3
    5dee:	e7c7      	b.n	5d80 <_svfiprintf_r+0x120>
    5df0:	2300      	movs	r3, #0
    5df2:	0014      	movs	r4, r2
    5df4:	200a      	movs	r0, #10
    5df6:	001a      	movs	r2, r3
    5df8:	606b      	str	r3, [r5, #4]
    5dfa:	7821      	ldrb	r1, [r4, #0]
    5dfc:	3930      	subs	r1, #48	; 0x30
    5dfe:	2909      	cmp	r1, #9
    5e00:	d903      	bls.n	5e0a <_svfiprintf_r+0x1aa>
    5e02:	2b00      	cmp	r3, #0
    5e04:	d0bd      	beq.n	5d82 <_svfiprintf_r+0x122>
    5e06:	9207      	str	r2, [sp, #28]
    5e08:	e7bb      	b.n	5d82 <_svfiprintf_r+0x122>
    5e0a:	4342      	muls	r2, r0
    5e0c:	3401      	adds	r4, #1
    5e0e:	1852      	adds	r2, r2, r1
    5e10:	2301      	movs	r3, #1
    5e12:	e7f2      	b.n	5dfa <_svfiprintf_r+0x19a>
    5e14:	3307      	adds	r3, #7
    5e16:	e7d5      	b.n	5dc4 <_svfiprintf_r+0x164>
    5e18:	ab05      	add	r3, sp, #20
    5e1a:	9300      	str	r3, [sp, #0]
    5e1c:	003a      	movs	r2, r7
    5e1e:	4b11      	ldr	r3, [pc, #68]	; (5e64 <_svfiprintf_r+0x204>)
    5e20:	0029      	movs	r1, r5
    5e22:	9802      	ldr	r0, [sp, #8]
    5e24:	e000      	b.n	5e28 <_svfiprintf_r+0x1c8>
    5e26:	bf00      	nop
    5e28:	9003      	str	r0, [sp, #12]
    5e2a:	9b03      	ldr	r3, [sp, #12]
    5e2c:	3301      	adds	r3, #1
    5e2e:	d1cc      	bne.n	5dca <_svfiprintf_r+0x16a>
    5e30:	89bb      	ldrh	r3, [r7, #12]
    5e32:	980b      	ldr	r0, [sp, #44]	; 0x2c
    5e34:	065b      	lsls	r3, r3, #25
    5e36:	d400      	bmi.n	5e3a <_svfiprintf_r+0x1da>
    5e38:	e729      	b.n	5c8e <_svfiprintf_r+0x2e>
    5e3a:	2001      	movs	r0, #1
    5e3c:	4240      	negs	r0, r0
    5e3e:	e726      	b.n	5c8e <_svfiprintf_r+0x2e>
    5e40:	ab05      	add	r3, sp, #20
    5e42:	9300      	str	r3, [sp, #0]
    5e44:	003a      	movs	r2, r7
    5e46:	4b07      	ldr	r3, [pc, #28]	; (5e64 <_svfiprintf_r+0x204>)
    5e48:	0029      	movs	r1, r5
    5e4a:	9802      	ldr	r0, [sp, #8]
    5e4c:	f000 f87a 	bl	5f44 <_printf_i>
    5e50:	e7ea      	b.n	5e28 <_svfiprintf_r+0x1c8>
    5e52:	46c0      	nop			; (mov r8, r8)
    5e54:	00006665 	.word	0x00006665
    5e58:	0000666b 	.word	0x0000666b
    5e5c:	0000666f 	.word	0x0000666f
    5e60:	00000000 	.word	0x00000000
    5e64:	00005b9d 	.word	0x00005b9d

00005e68 <_printf_common>:
    5e68:	b5f7      	push	{r0, r1, r2, r4, r5, r6, r7, lr}
    5e6a:	0015      	movs	r5, r2
    5e6c:	9301      	str	r3, [sp, #4]
    5e6e:	688a      	ldr	r2, [r1, #8]
    5e70:	690b      	ldr	r3, [r1, #16]
    5e72:	9000      	str	r0, [sp, #0]
    5e74:	000c      	movs	r4, r1
    5e76:	4293      	cmp	r3, r2
    5e78:	da00      	bge.n	5e7c <_printf_common+0x14>
    5e7a:	0013      	movs	r3, r2
    5e7c:	0022      	movs	r2, r4
    5e7e:	602b      	str	r3, [r5, #0]
    5e80:	3243      	adds	r2, #67	; 0x43
    5e82:	7812      	ldrb	r2, [r2, #0]
    5e84:	2a00      	cmp	r2, #0
    5e86:	d001      	beq.n	5e8c <_printf_common+0x24>
    5e88:	3301      	adds	r3, #1
    5e8a:	602b      	str	r3, [r5, #0]
    5e8c:	6823      	ldr	r3, [r4, #0]
    5e8e:	069b      	lsls	r3, r3, #26
    5e90:	d502      	bpl.n	5e98 <_printf_common+0x30>
    5e92:	682b      	ldr	r3, [r5, #0]
    5e94:	3302      	adds	r3, #2
    5e96:	602b      	str	r3, [r5, #0]
    5e98:	2706      	movs	r7, #6
    5e9a:	6823      	ldr	r3, [r4, #0]
    5e9c:	401f      	ands	r7, r3
    5e9e:	d027      	beq.n	5ef0 <_printf_common+0x88>
    5ea0:	0023      	movs	r3, r4
    5ea2:	3343      	adds	r3, #67	; 0x43
    5ea4:	781b      	ldrb	r3, [r3, #0]
    5ea6:	1e5a      	subs	r2, r3, #1
    5ea8:	4193      	sbcs	r3, r2
    5eaa:	6822      	ldr	r2, [r4, #0]
    5eac:	0692      	lsls	r2, r2, #26
    5eae:	d430      	bmi.n	5f12 <_printf_common+0xaa>
    5eb0:	0022      	movs	r2, r4
    5eb2:	9901      	ldr	r1, [sp, #4]
    5eb4:	3243      	adds	r2, #67	; 0x43
    5eb6:	9800      	ldr	r0, [sp, #0]
    5eb8:	9e08      	ldr	r6, [sp, #32]
    5eba:	47b0      	blx	r6
    5ebc:	1c43      	adds	r3, r0, #1
    5ebe:	d025      	beq.n	5f0c <_printf_common+0xa4>
    5ec0:	2306      	movs	r3, #6
    5ec2:	6820      	ldr	r0, [r4, #0]
    5ec4:	682a      	ldr	r2, [r5, #0]
    5ec6:	68e1      	ldr	r1, [r4, #12]
    5ec8:	4003      	ands	r3, r0
    5eca:	2500      	movs	r5, #0
    5ecc:	2b04      	cmp	r3, #4
    5ece:	d103      	bne.n	5ed8 <_printf_common+0x70>
    5ed0:	1a8d      	subs	r5, r1, r2
    5ed2:	43eb      	mvns	r3, r5
    5ed4:	17db      	asrs	r3, r3, #31
    5ed6:	401d      	ands	r5, r3
    5ed8:	68a3      	ldr	r3, [r4, #8]
    5eda:	6922      	ldr	r2, [r4, #16]
    5edc:	4293      	cmp	r3, r2
    5ede:	dd01      	ble.n	5ee4 <_printf_common+0x7c>
    5ee0:	1a9b      	subs	r3, r3, r2
    5ee2:	18ed      	adds	r5, r5, r3
    5ee4:	2700      	movs	r7, #0
    5ee6:	42bd      	cmp	r5, r7
    5ee8:	d120      	bne.n	5f2c <_printf_common+0xc4>
    5eea:	2000      	movs	r0, #0
    5eec:	e010      	b.n	5f10 <_printf_common+0xa8>
    5eee:	3701      	adds	r7, #1
    5ef0:	68e3      	ldr	r3, [r4, #12]
    5ef2:	682a      	ldr	r2, [r5, #0]
    5ef4:	1a9b      	subs	r3, r3, r2
    5ef6:	429f      	cmp	r7, r3
    5ef8:	dad2      	bge.n	5ea0 <_printf_common+0x38>
    5efa:	0022      	movs	r2, r4
    5efc:	2301      	movs	r3, #1
    5efe:	3219      	adds	r2, #25
    5f00:	9901      	ldr	r1, [sp, #4]
    5f02:	9800      	ldr	r0, [sp, #0]
    5f04:	9e08      	ldr	r6, [sp, #32]
    5f06:	47b0      	blx	r6
    5f08:	1c43      	adds	r3, r0, #1
    5f0a:	d1f0      	bne.n	5eee <_printf_common+0x86>
    5f0c:	2001      	movs	r0, #1
    5f0e:	4240      	negs	r0, r0
    5f10:	bdfe      	pop	{r1, r2, r3, r4, r5, r6, r7, pc}
    5f12:	2030      	movs	r0, #48	; 0x30
    5f14:	18e1      	adds	r1, r4, r3
    5f16:	3143      	adds	r1, #67	; 0x43
    5f18:	7008      	strb	r0, [r1, #0]
    5f1a:	0021      	movs	r1, r4
    5f1c:	1c5a      	adds	r2, r3, #1
    5f1e:	3145      	adds	r1, #69	; 0x45
    5f20:	7809      	ldrb	r1, [r1, #0]
    5f22:	18a2      	adds	r2, r4, r2
    5f24:	3243      	adds	r2, #67	; 0x43
    5f26:	3302      	adds	r3, #2
    5f28:	7011      	strb	r1, [r2, #0]
    5f2a:	e7c1      	b.n	5eb0 <_printf_common+0x48>
    5f2c:	0022      	movs	r2, r4
    5f2e:	2301      	movs	r3, #1
    5f30:	321a      	adds	r2, #26
    5f32:	9901      	ldr	r1, [sp, #4]
    5f34:	9800      	ldr	r0, [sp, #0]
    5f36:	9e08      	ldr	r6, [sp, #32]
    5f38:	47b0      	blx	r6
    5f3a:	1c43      	adds	r3, r0, #1
    5f3c:	d0e6      	beq.n	5f0c <_printf_common+0xa4>
    5f3e:	3701      	adds	r7, #1
    5f40:	e7d1      	b.n	5ee6 <_printf_common+0x7e>
	...

00005f44 <_printf_i>:
    5f44:	b5f0      	push	{r4, r5, r6, r7, lr}
    5f46:	b08b      	sub	sp, #44	; 0x2c
    5f48:	9206      	str	r2, [sp, #24]
    5f4a:	000a      	movs	r2, r1
    5f4c:	3243      	adds	r2, #67	; 0x43
    5f4e:	9307      	str	r3, [sp, #28]
    5f50:	9005      	str	r0, [sp, #20]
    5f52:	9204      	str	r2, [sp, #16]
    5f54:	7e0a      	ldrb	r2, [r1, #24]
    5f56:	000c      	movs	r4, r1
    5f58:	9b10      	ldr	r3, [sp, #64]	; 0x40
    5f5a:	2a6e      	cmp	r2, #110	; 0x6e
    5f5c:	d100      	bne.n	5f60 <_printf_i+0x1c>
    5f5e:	e08f      	b.n	6080 <_printf_i+0x13c>
    5f60:	d817      	bhi.n	5f92 <_printf_i+0x4e>
    5f62:	2a63      	cmp	r2, #99	; 0x63
    5f64:	d02c      	beq.n	5fc0 <_printf_i+0x7c>
    5f66:	d808      	bhi.n	5f7a <_printf_i+0x36>
    5f68:	2a00      	cmp	r2, #0
    5f6a:	d100      	bne.n	5f6e <_printf_i+0x2a>
    5f6c:	e099      	b.n	60a2 <_printf_i+0x15e>
    5f6e:	2a58      	cmp	r2, #88	; 0x58
    5f70:	d054      	beq.n	601c <_printf_i+0xd8>
    5f72:	0026      	movs	r6, r4
    5f74:	3642      	adds	r6, #66	; 0x42
    5f76:	7032      	strb	r2, [r6, #0]
    5f78:	e029      	b.n	5fce <_printf_i+0x8a>
    5f7a:	2a64      	cmp	r2, #100	; 0x64
    5f7c:	d001      	beq.n	5f82 <_printf_i+0x3e>
    5f7e:	2a69      	cmp	r2, #105	; 0x69
    5f80:	d1f7      	bne.n	5f72 <_printf_i+0x2e>
    5f82:	6821      	ldr	r1, [r4, #0]
    5f84:	681a      	ldr	r2, [r3, #0]
    5f86:	0608      	lsls	r0, r1, #24
    5f88:	d523      	bpl.n	5fd2 <_printf_i+0x8e>
    5f8a:	1d11      	adds	r1, r2, #4
    5f8c:	6019      	str	r1, [r3, #0]
    5f8e:	6815      	ldr	r5, [r2, #0]
    5f90:	e025      	b.n	5fde <_printf_i+0x9a>
    5f92:	2a73      	cmp	r2, #115	; 0x73
    5f94:	d100      	bne.n	5f98 <_printf_i+0x54>
    5f96:	e088      	b.n	60aa <_printf_i+0x166>
    5f98:	d808      	bhi.n	5fac <_printf_i+0x68>
    5f9a:	2a6f      	cmp	r2, #111	; 0x6f
    5f9c:	d029      	beq.n	5ff2 <_printf_i+0xae>
    5f9e:	2a70      	cmp	r2, #112	; 0x70
    5fa0:	d1e7      	bne.n	5f72 <_printf_i+0x2e>
    5fa2:	2220      	movs	r2, #32
    5fa4:	6809      	ldr	r1, [r1, #0]
    5fa6:	430a      	orrs	r2, r1
    5fa8:	6022      	str	r2, [r4, #0]
    5faa:	e003      	b.n	5fb4 <_printf_i+0x70>
    5fac:	2a75      	cmp	r2, #117	; 0x75
    5fae:	d020      	beq.n	5ff2 <_printf_i+0xae>
    5fb0:	2a78      	cmp	r2, #120	; 0x78
    5fb2:	d1de      	bne.n	5f72 <_printf_i+0x2e>
    5fb4:	0022      	movs	r2, r4
    5fb6:	2178      	movs	r1, #120	; 0x78
    5fb8:	3245      	adds	r2, #69	; 0x45
    5fba:	7011      	strb	r1, [r2, #0]
    5fbc:	4a6c      	ldr	r2, [pc, #432]	; (6170 <_printf_i+0x22c>)
    5fbe:	e030      	b.n	6022 <_printf_i+0xde>
    5fc0:	000e      	movs	r6, r1
    5fc2:	681a      	ldr	r2, [r3, #0]
    5fc4:	3642      	adds	r6, #66	; 0x42
    5fc6:	1d11      	adds	r1, r2, #4
    5fc8:	6019      	str	r1, [r3, #0]
    5fca:	6813      	ldr	r3, [r2, #0]
    5fcc:	7033      	strb	r3, [r6, #0]
    5fce:	2301      	movs	r3, #1
    5fd0:	e079      	b.n	60c6 <_printf_i+0x182>
    5fd2:	0649      	lsls	r1, r1, #25
    5fd4:	d5d9      	bpl.n	5f8a <_printf_i+0x46>
    5fd6:	1d11      	adds	r1, r2, #4
    5fd8:	6019      	str	r1, [r3, #0]
    5fda:	2300      	movs	r3, #0
    5fdc:	5ed5      	ldrsh	r5, [r2, r3]
    5fde:	2d00      	cmp	r5, #0
    5fe0:	da03      	bge.n	5fea <_printf_i+0xa6>
    5fe2:	232d      	movs	r3, #45	; 0x2d
    5fe4:	9a04      	ldr	r2, [sp, #16]
    5fe6:	426d      	negs	r5, r5
    5fe8:	7013      	strb	r3, [r2, #0]
    5fea:	4b62      	ldr	r3, [pc, #392]	; (6174 <_printf_i+0x230>)
    5fec:	270a      	movs	r7, #10
    5fee:	9303      	str	r3, [sp, #12]
    5ff0:	e02f      	b.n	6052 <_printf_i+0x10e>
    5ff2:	6820      	ldr	r0, [r4, #0]
    5ff4:	6819      	ldr	r1, [r3, #0]
    5ff6:	0605      	lsls	r5, r0, #24
    5ff8:	d503      	bpl.n	6002 <_printf_i+0xbe>
    5ffa:	1d08      	adds	r0, r1, #4
    5ffc:	6018      	str	r0, [r3, #0]
    5ffe:	680d      	ldr	r5, [r1, #0]
    6000:	e005      	b.n	600e <_printf_i+0xca>
    6002:	0640      	lsls	r0, r0, #25
    6004:	d5f9      	bpl.n	5ffa <_printf_i+0xb6>
    6006:	680d      	ldr	r5, [r1, #0]
    6008:	1d08      	adds	r0, r1, #4
    600a:	6018      	str	r0, [r3, #0]
    600c:	b2ad      	uxth	r5, r5
    600e:	4b59      	ldr	r3, [pc, #356]	; (6174 <_printf_i+0x230>)
    6010:	2708      	movs	r7, #8
    6012:	9303      	str	r3, [sp, #12]
    6014:	2a6f      	cmp	r2, #111	; 0x6f
    6016:	d018      	beq.n	604a <_printf_i+0x106>
    6018:	270a      	movs	r7, #10
    601a:	e016      	b.n	604a <_printf_i+0x106>
    601c:	3145      	adds	r1, #69	; 0x45
    601e:	700a      	strb	r2, [r1, #0]
    6020:	4a54      	ldr	r2, [pc, #336]	; (6174 <_printf_i+0x230>)
    6022:	9203      	str	r2, [sp, #12]
    6024:	681a      	ldr	r2, [r3, #0]
    6026:	6821      	ldr	r1, [r4, #0]
    6028:	1d10      	adds	r0, r2, #4
    602a:	6018      	str	r0, [r3, #0]
    602c:	6815      	ldr	r5, [r2, #0]
    602e:	0608      	lsls	r0, r1, #24
    6030:	d522      	bpl.n	6078 <_printf_i+0x134>
    6032:	07cb      	lsls	r3, r1, #31
    6034:	d502      	bpl.n	603c <_printf_i+0xf8>
    6036:	2320      	movs	r3, #32
    6038:	4319      	orrs	r1, r3
    603a:	6021      	str	r1, [r4, #0]
    603c:	2710      	movs	r7, #16
    603e:	2d00      	cmp	r5, #0
    6040:	d103      	bne.n	604a <_printf_i+0x106>
    6042:	2320      	movs	r3, #32
    6044:	6822      	ldr	r2, [r4, #0]
    6046:	439a      	bics	r2, r3
    6048:	6022      	str	r2, [r4, #0]
    604a:	0023      	movs	r3, r4
    604c:	2200      	movs	r2, #0
    604e:	3343      	adds	r3, #67	; 0x43
    6050:	701a      	strb	r2, [r3, #0]
    6052:	6863      	ldr	r3, [r4, #4]
    6054:	60a3      	str	r3, [r4, #8]
    6056:	2b00      	cmp	r3, #0
    6058:	db5c      	blt.n	6114 <_printf_i+0x1d0>
    605a:	2204      	movs	r2, #4
    605c:	6821      	ldr	r1, [r4, #0]
    605e:	4391      	bics	r1, r2
    6060:	6021      	str	r1, [r4, #0]
    6062:	2d00      	cmp	r5, #0
    6064:	d158      	bne.n	6118 <_printf_i+0x1d4>
    6066:	9e04      	ldr	r6, [sp, #16]
    6068:	2b00      	cmp	r3, #0
    606a:	d064      	beq.n	6136 <_printf_i+0x1f2>
    606c:	0026      	movs	r6, r4
    606e:	9b03      	ldr	r3, [sp, #12]
    6070:	3642      	adds	r6, #66	; 0x42
    6072:	781b      	ldrb	r3, [r3, #0]
    6074:	7033      	strb	r3, [r6, #0]
    6076:	e05e      	b.n	6136 <_printf_i+0x1f2>
    6078:	0648      	lsls	r0, r1, #25
    607a:	d5da      	bpl.n	6032 <_printf_i+0xee>
    607c:	b2ad      	uxth	r5, r5
    607e:	e7d8      	b.n	6032 <_printf_i+0xee>
    6080:	6809      	ldr	r1, [r1, #0]
    6082:	681a      	ldr	r2, [r3, #0]
    6084:	0608      	lsls	r0, r1, #24
    6086:	d505      	bpl.n	6094 <_printf_i+0x150>
    6088:	1d11      	adds	r1, r2, #4
    608a:	6019      	str	r1, [r3, #0]
    608c:	6813      	ldr	r3, [r2, #0]
    608e:	6962      	ldr	r2, [r4, #20]
    6090:	601a      	str	r2, [r3, #0]
    6092:	e006      	b.n	60a2 <_printf_i+0x15e>
    6094:	0649      	lsls	r1, r1, #25
    6096:	d5f7      	bpl.n	6088 <_printf_i+0x144>
    6098:	1d11      	adds	r1, r2, #4
    609a:	6019      	str	r1, [r3, #0]
    609c:	6813      	ldr	r3, [r2, #0]
    609e:	8aa2      	ldrh	r2, [r4, #20]
    60a0:	801a      	strh	r2, [r3, #0]
    60a2:	2300      	movs	r3, #0
    60a4:	9e04      	ldr	r6, [sp, #16]
    60a6:	6123      	str	r3, [r4, #16]
    60a8:	e054      	b.n	6154 <_printf_i+0x210>
    60aa:	681a      	ldr	r2, [r3, #0]
    60ac:	1d11      	adds	r1, r2, #4
    60ae:	6019      	str	r1, [r3, #0]
    60b0:	6816      	ldr	r6, [r2, #0]
    60b2:	2100      	movs	r1, #0
    60b4:	6862      	ldr	r2, [r4, #4]
    60b6:	0030      	movs	r0, r6
    60b8:	f000 f86a 	bl	6190 <memchr>
    60bc:	2800      	cmp	r0, #0
    60be:	d001      	beq.n	60c4 <_printf_i+0x180>
    60c0:	1b80      	subs	r0, r0, r6
    60c2:	6060      	str	r0, [r4, #4]
    60c4:	6863      	ldr	r3, [r4, #4]
    60c6:	6123      	str	r3, [r4, #16]
    60c8:	2300      	movs	r3, #0
    60ca:	9a04      	ldr	r2, [sp, #16]
    60cc:	7013      	strb	r3, [r2, #0]
    60ce:	e041      	b.n	6154 <_printf_i+0x210>
    60d0:	6923      	ldr	r3, [r4, #16]
    60d2:	0032      	movs	r2, r6
    60d4:	9906      	ldr	r1, [sp, #24]
    60d6:	9805      	ldr	r0, [sp, #20]
    60d8:	9d07      	ldr	r5, [sp, #28]
    60da:	47a8      	blx	r5
    60dc:	1c43      	adds	r3, r0, #1
    60de:	d043      	beq.n	6168 <_printf_i+0x224>
    60e0:	6823      	ldr	r3, [r4, #0]
    60e2:	2500      	movs	r5, #0
    60e4:	079b      	lsls	r3, r3, #30
    60e6:	d40f      	bmi.n	6108 <_printf_i+0x1c4>
    60e8:	9b09      	ldr	r3, [sp, #36]	; 0x24
    60ea:	68e0      	ldr	r0, [r4, #12]
    60ec:	4298      	cmp	r0, r3
    60ee:	da3d      	bge.n	616c <_printf_i+0x228>
    60f0:	0018      	movs	r0, r3
    60f2:	e03b      	b.n	616c <_printf_i+0x228>
    60f4:	0022      	movs	r2, r4
    60f6:	2301      	movs	r3, #1
    60f8:	3219      	adds	r2, #25
    60fa:	9906      	ldr	r1, [sp, #24]
    60fc:	9805      	ldr	r0, [sp, #20]
    60fe:	9e07      	ldr	r6, [sp, #28]
    6100:	47b0      	blx	r6
    6102:	1c43      	adds	r3, r0, #1
    6104:	d030      	beq.n	6168 <_printf_i+0x224>
    6106:	3501      	adds	r5, #1
    6108:	68e3      	ldr	r3, [r4, #12]
    610a:	9a09      	ldr	r2, [sp, #36]	; 0x24
    610c:	1a9b      	subs	r3, r3, r2
    610e:	429d      	cmp	r5, r3
    6110:	dbf0      	blt.n	60f4 <_printf_i+0x1b0>
    6112:	e7e9      	b.n	60e8 <_printf_i+0x1a4>
    6114:	2d00      	cmp	r5, #0
    6116:	d0a9      	beq.n	606c <_printf_i+0x128>
    6118:	9e04      	ldr	r6, [sp, #16]
    611a:	0028      	movs	r0, r5
    611c:	0039      	movs	r1, r7
    611e:	f7ff fb2d 	bl	577c <__aeabi_uidivmod>
    6122:	9b03      	ldr	r3, [sp, #12]
    6124:	3e01      	subs	r6, #1
    6126:	5c5b      	ldrb	r3, [r3, r1]
    6128:	0028      	movs	r0, r5
    612a:	7033      	strb	r3, [r6, #0]
    612c:	0039      	movs	r1, r7
    612e:	f7ff fa9f 	bl	5670 <__udivsi3>
    6132:	1e05      	subs	r5, r0, #0
    6134:	d1f1      	bne.n	611a <_printf_i+0x1d6>
    6136:	2f08      	cmp	r7, #8
    6138:	d109      	bne.n	614e <_printf_i+0x20a>
    613a:	6823      	ldr	r3, [r4, #0]
    613c:	07db      	lsls	r3, r3, #31
    613e:	d506      	bpl.n	614e <_printf_i+0x20a>
    6140:	6863      	ldr	r3, [r4, #4]
    6142:	6922      	ldr	r2, [r4, #16]
    6144:	4293      	cmp	r3, r2
    6146:	dc02      	bgt.n	614e <_printf_i+0x20a>
    6148:	2330      	movs	r3, #48	; 0x30
    614a:	3e01      	subs	r6, #1
    614c:	7033      	strb	r3, [r6, #0]
    614e:	9b04      	ldr	r3, [sp, #16]
    6150:	1b9b      	subs	r3, r3, r6
    6152:	6123      	str	r3, [r4, #16]
    6154:	9b07      	ldr	r3, [sp, #28]
    6156:	aa09      	add	r2, sp, #36	; 0x24
    6158:	9300      	str	r3, [sp, #0]
    615a:	0021      	movs	r1, r4
    615c:	9b06      	ldr	r3, [sp, #24]
    615e:	9805      	ldr	r0, [sp, #20]
    6160:	f7ff fe82 	bl	5e68 <_printf_common>
    6164:	1c43      	adds	r3, r0, #1
    6166:	d1b3      	bne.n	60d0 <_printf_i+0x18c>
    6168:	2001      	movs	r0, #1
    616a:	4240      	negs	r0, r0
    616c:	b00b      	add	sp, #44	; 0x2c
    616e:	bdf0      	pop	{r4, r5, r6, r7, pc}
    6170:	00006687 	.word	0x00006687
    6174:	00006676 	.word	0x00006676

00006178 <__ascii_wctomb>:
    6178:	1e0b      	subs	r3, r1, #0
    617a:	d004      	beq.n	6186 <__ascii_wctomb+0xe>
    617c:	2aff      	cmp	r2, #255	; 0xff
    617e:	d904      	bls.n	618a <__ascii_wctomb+0x12>
    6180:	238a      	movs	r3, #138	; 0x8a
    6182:	6003      	str	r3, [r0, #0]
    6184:	3b8b      	subs	r3, #139	; 0x8b
    6186:	0018      	movs	r0, r3
    6188:	4770      	bx	lr
    618a:	700a      	strb	r2, [r1, #0]
    618c:	2301      	movs	r3, #1
    618e:	e7fa      	b.n	6186 <__ascii_wctomb+0xe>

00006190 <memchr>:
    6190:	b2c9      	uxtb	r1, r1
    6192:	1882      	adds	r2, r0, r2
    6194:	4290      	cmp	r0, r2
    6196:	d101      	bne.n	619c <memchr+0xc>
    6198:	2000      	movs	r0, #0
    619a:	4770      	bx	lr
    619c:	7803      	ldrb	r3, [r0, #0]
    619e:	428b      	cmp	r3, r1
    61a0:	d0fb      	beq.n	619a <memchr+0xa>
    61a2:	3001      	adds	r0, #1
    61a4:	e7f6      	b.n	6194 <memchr+0x4>

000061a6 <memmove>:
    61a6:	b510      	push	{r4, lr}
    61a8:	4288      	cmp	r0, r1
    61aa:	d902      	bls.n	61b2 <memmove+0xc>
    61ac:	188b      	adds	r3, r1, r2
    61ae:	4298      	cmp	r0, r3
    61b0:	d308      	bcc.n	61c4 <memmove+0x1e>
    61b2:	2300      	movs	r3, #0
    61b4:	429a      	cmp	r2, r3
    61b6:	d007      	beq.n	61c8 <memmove+0x22>
    61b8:	5ccc      	ldrb	r4, [r1, r3]
    61ba:	54c4      	strb	r4, [r0, r3]
    61bc:	3301      	adds	r3, #1
    61be:	e7f9      	b.n	61b4 <memmove+0xe>
    61c0:	5c8b      	ldrb	r3, [r1, r2]
    61c2:	5483      	strb	r3, [r0, r2]
    61c4:	3a01      	subs	r2, #1
    61c6:	d2fb      	bcs.n	61c0 <memmove+0x1a>
    61c8:	bd10      	pop	{r4, pc}

000061ca <_realloc_r>:
    61ca:	b5f8      	push	{r3, r4, r5, r6, r7, lr}
    61cc:	0007      	movs	r7, r0
    61ce:	000d      	movs	r5, r1
    61d0:	0016      	movs	r6, r2
    61d2:	2900      	cmp	r1, #0
    61d4:	d105      	bne.n	61e2 <_realloc_r+0x18>
    61d6:	0011      	movs	r1, r2
    61d8:	f7ff fb8a 	bl	58f0 <_malloc_r>
    61dc:	0004      	movs	r4, r0
    61de:	0020      	movs	r0, r4
    61e0:	bdf8      	pop	{r3, r4, r5, r6, r7, pc}
    61e2:	2a00      	cmp	r2, #0
    61e4:	d103      	bne.n	61ee <_realloc_r+0x24>
    61e6:	f7ff fb39 	bl	585c <_free_r>
    61ea:	0034      	movs	r4, r6
    61ec:	e7f7      	b.n	61de <_realloc_r+0x14>
    61ee:	f000 f812 	bl	6216 <_malloc_usable_size_r>
    61f2:	002c      	movs	r4, r5
    61f4:	4286      	cmp	r6, r0
    61f6:	d9f2      	bls.n	61de <_realloc_r+0x14>
    61f8:	0031      	movs	r1, r6
    61fa:	0038      	movs	r0, r7
    61fc:	f7ff fb78 	bl	58f0 <_malloc_r>
    6200:	1e04      	subs	r4, r0, #0
    6202:	d0ec      	beq.n	61de <_realloc_r+0x14>
    6204:	0029      	movs	r1, r5
    6206:	0032      	movs	r2, r6
    6208:	f7ff fb16 	bl	5838 <memcpy>
    620c:	0029      	movs	r1, r5
    620e:	0038      	movs	r0, r7
    6210:	f7ff fb24 	bl	585c <_free_r>
    6214:	e7e3      	b.n	61de <_realloc_r+0x14>

00006216 <_malloc_usable_size_r>:
    6216:	1f0b      	subs	r3, r1, #4
    6218:	681b      	ldr	r3, [r3, #0]
    621a:	1f18      	subs	r0, r3, #4
    621c:	2b00      	cmp	r3, #0
    621e:	da01      	bge.n	6224 <_malloc_usable_size_r+0xe>
    6220:	580b      	ldr	r3, [r1, r0]
    6222:	18c0      	adds	r0, r0, r3
    6224:	4770      	bx	lr
    6226:	0000      	movs	r0, r0
    6228:	42000800 	.word	0x42000800
    622c:	42000c00 	.word	0x42000c00
    6230:	42001000 	.word	0x42001000
    6234:	42001400 	.word	0x42001400
    6238:	42001800 	.word	0x42001800
    623c:	42001c00 	.word	0x42001c00
    6240:	706c6568 	.word	0x706c6568
    6244:	00000000 	.word	0x00000000
    6248:	65680a0d 	.word	0x65680a0d
    624c:	0d3a706c 	.word	0x0d3a706c
    6250:	694c200a 	.word	0x694c200a
    6254:	20737473 	.word	0x20737473
    6258:	206c6c61 	.word	0x206c6c61
    625c:	20656874 	.word	0x20656874
    6260:	69676572 	.word	0x69676572
    6264:	72657473 	.word	0x72657473
    6268:	63206465 	.word	0x63206465
    626c:	616d6d6f 	.word	0x616d6d6f
    6270:	0d73646e 	.word	0x0d73646e
    6274:	000a0d0a 	.word	0x000a0d0a
    6278:	6f636e49 	.word	0x6f636e49
    627c:	63657272 	.word	0x63657272
    6280:	6f632074 	.word	0x6f632074
    6284:	6e616d6d 	.word	0x6e616d6d
    6288:	61702064 	.word	0x61702064
    628c:	656d6172 	.word	0x656d6172
    6290:	28726574 	.word	0x28726574
    6294:	202e2973 	.word	0x202e2973
    6298:	746e4520 	.word	0x746e4520
    629c:	22207265 	.word	0x22207265
    62a0:	706c6568 	.word	0x706c6568
    62a4:	6f742022 	.word	0x6f742022
    62a8:	65697620 	.word	0x65697620
    62ac:	20612077 	.word	0x20612077
    62b0:	7473696c 	.word	0x7473696c
    62b4:	20666f20 	.word	0x20666f20
    62b8:	69617661 	.word	0x69617661
    62bc:	6c62616c 	.word	0x6c62616c
    62c0:	6f632065 	.word	0x6f632065
    62c4:	6e616d6d 	.word	0x6e616d6d
    62c8:	0d2e7364 	.word	0x0d2e7364
    62cc:	000a0d0a 	.word	0x000a0d0a
    62d0:	6d6d6f43 	.word	0x6d6d6f43
    62d4:	20646e61 	.word	0x20646e61
    62d8:	20746f6e 	.word	0x20746f6e
    62dc:	6f636572 	.word	0x6f636572
    62e0:	73696e67 	.word	0x73696e67
    62e4:	202e6465 	.word	0x202e6465
    62e8:	746e4520 	.word	0x746e4520
    62ec:	27207265 	.word	0x27207265
    62f0:	706c6568 	.word	0x706c6568
    62f4:	6f742027 	.word	0x6f742027
    62f8:	65697620 	.word	0x65697620
    62fc:	20612077 	.word	0x20612077
    6300:	7473696c 	.word	0x7473696c
    6304:	20666f20 	.word	0x20666f20
    6308:	69617661 	.word	0x69617661
    630c:	6c62616c 	.word	0x6c62616c
    6310:	6f632065 	.word	0x6f632065
    6314:	6e616d6d 	.word	0x6e616d6d
    6318:	0d2e7364 	.word	0x0d2e7364
    631c:	000a0d0a 	.word	0x000a0d0a

00006320 <xHelpCommand>:
    6320:	00006240 00006248 00000dd5 00000000     @b..Hb..........
    6330:	454c4449 00000000 20726d54 00637653     IDLE....Tmr Svc.
    6340:	0000312c 0000312c 0000312c 000031ba     ,1..,1..,1...1..
    6350:	00003184 000031ae 0000312c 0000312c     .1...1..,1..,1..
    6360:	000031ba 00003184 65657246 534f5452     .1...1..FreeRTOS
    6370:	494c4320 540a0d2e 20657079 706c6548      CLI...Type Help
    6380:	206f7420 77656976 6c206120 20747369      to view a list 
    6390:	7220666f 73696765 65726574 6f632064     of registered co
    63a0:	6e616d6d 0d2e7364 0000000a 00736c63     mmands......cls.
    63b0:	3a736c63 656c4320 20737261 20656874     cls: Clears the 
    63c0:	6d726574 6c616e69 72637320 0d6e6565     terminal screen.
    63d0:	0000000a 65736572 00000074 65736572     ....reset...rese
    63e0:	52203a74 74657365 68742073 65642065     t: Resets the de
    63f0:	65636976 00000a0d 73726576 006e6f69     vice....version.
    6400:	73726576 3a6e6f69 72694620 7261776d     version: Firmwar
    6410:	65762065 6f697372 7369206e 002e2e2e     e version is....
    6420:	00000a0d 0000616f 325b6325 003e0d4b     ....oa..%c[2K.>.
    6430:	00082008 325b6325 0000004a 2e302e30     . ..%c[2J...0.0.
    6440:	00000031 0a0d7325 00000000              1...%s......

0000644c <xClearScreen>:
    644c:	000063ac 000063b0 00003641 00000000     .c...c..A6......

0000645c <xResetCommand>:
    645c:	000063d4 000063dc 00003689 00000000     .c...c...6......

0000646c <xVersionCommand>:
    646c:	000063f8 00006400 000036a9 00000000     .c...d...6......
    647c:	0c0b0a09 00000e0d 00004d16 00004d90     .........M...M..
    648c:	00004d90 00004d34 00004d2e 00004d3a     .M..4M...M..:M..
    649c:	00004d1c 00004d40 00004d76 00004e6c     .M..@M..vM..lN..
    64ac:	00004ebc 00004ebc 00004eb8 00004e5e     .N...N...N..^N..
    64bc:	00004e7e 00004e4e 00004e90 00004ea2     ~N..NN...N...N..
    64cc:	35455345 2d203631 494c4320 646e6120     ESE516 - CLI and
    64dc:	62654420 4c206775 6567676f 000a0d72      Debug Logger...
    64ec:	00007325 66726550 696d726f 5420676e     %s..Performing T
    64fc:	65706d65 75746172 54206572 0d747365     emperature Test.
    650c:	0000000a 6f727245 54202172 65706d65     ....Error! Tempe
    651c:	75746172 6f206572 20726576 44206425     rature over %d D
    652c:	65726765 0d217365 0000000a 74737953     egrees!.....Syst
    653c:	65206d65 726f7272 000a0d21 35455345     em error!...ESE5
    654c:	43203631 5320494c 54524154 50205245     16 CLI STARTER P
    655c:	454a4f52 53205443 54524154 0a0d4445     ROJECT STARTED..
    656c:	00000000 20494c43 72617473 20726574     ....CLI starter 
    657c:	65646f63 45202d20 31354553 000a0d36     code - ESE516...
    658c:	70616548 66656220 2065726f 72617473     Heap before star
    659c:	676e6974 73617420 203a736b 0a0d6425     ting tasks: %d..
    65ac:	00000000 5f494c43 4b534154 00000000     ....CLI_TASK....
    65bc:	3a525245 494c4320 73617420 6f63206b     ERR: CLI task co
    65cc:	20646c75 20746f6e 69206562 6974696e     uld not be initi
    65dc:	7a696c61 0d216465 0000000a 70616548     alized!.....Heap
    65ec:	74666120 73207265 74726174 20676e69      after starting 
    65fc:	3a494c43 0d642520 0000000a 6f727245     CLI: %d.....Erro
    660c:	6e6f2072 6d656d20 2079726f 6f6c6c61     r on memory allo
    661c:	69746163 6f206e6f 5246206e 54524545     cation on FREERT
    662c:	0d21534f 0000000a 6f727245 6e6f2072     OS!.....Error on
    663c:	61747320 6f206b63 66726576 20776f6c      stack overflow 
    664c:	46206e6f 52454552 21534f54 43000a0d     on FREERTOS!...C
    665c:	534f5000 2e005849 302d2300 6800202b     .POSIX...#-0+ .h
    666c:	65004c6c 46456766 31300047 35343332     lL.efgEFG.012345
    667c:	39383736 44434241 30004645 34333231     6789ABCDEF.01234
    668c:	38373635 63626139 00666564              56789abcdef.

00006698 <_ctype_>:
    6698:	20202000 20202020 28282020 20282828     .         ((((( 
    66a8:	20202020 20202020 20202020 20202020                     
    66b8:	10108820 10101010 10101010 10101010      ...............
    66c8:	04040410 04040404 10040404 10101010     ................
    66d8:	41411010 41414141 01010101 01010101     ..AAAAAA........
    66e8:	01010101 01010101 01010101 10101010     ................
    66f8:	42421010 42424242 02020202 02020202     ..BBBBBB........
    6708:	02020202 02020202 02020202 10101010     ................
    6718:	00000020 00000000 00000000 00000000      ...............
	...

0000679c <_init>:
    679c:	b5f8      	push	{r3, r4, r5, r6, r7, lr}
    679e:	46c0      	nop			; (mov r8, r8)
    67a0:	bcf8      	pop	{r3, r4, r5, r6, r7}
    67a2:	bc08      	pop	{r3}
    67a4:	469e      	mov	lr, r3
    67a6:	4770      	bx	lr

000067a8 <__init_array_start>:
    67a8:	000000dd 	.word	0x000000dd

000067ac <_fini>:
    67ac:	b5f8      	push	{r3, r4, r5, r6, r7, lr}
    67ae:	46c0      	nop			; (mov r8, r8)
    67b0:	bcf8      	pop	{r3, r4, r5, r6, r7}
    67b2:	bc08      	pop	{r3}
    67b4:	469e      	mov	lr, r3
    67b6:	4770      	bx	lr

000067b8 <__fini_array_start>:
    67b8:	000000b5 	.word	0x000000b5
