
ESE516 MAIN FW.elf:     file format elf32-littlearm

Sections:
Idx Name          Size      VMA       LMA       File off  Algn
  0 .text         00007f84  00012000  00012000  00002000  2**4
                  CONTENTS, ALLOC, LOAD, READONLY, CODE
  1 .relocate     00000074  20000000  00019f84  00010000  2**2
                  CONTENTS, ALLOC, LOAD, DATA
  2 .bss          0000315c  20000074  00019ff8  00010074  2**2
                  ALLOC
  3 .stack        00002000  200031d0  0001d154  00010074  2**0
                  ALLOC
  4 .ARM.attributes 00000028  00000000  00000000  00010074  2**0
                  CONTENTS, READONLY
  5 .comment      00000059  00000000  00000000  0001009c  2**0
                  CONTENTS, READONLY
  6 .debug_info   0005c8c0  00000000  00000000  000100f5  2**0
                  CONTENTS, READONLY, DEBUGGING
  7 .debug_abbrev 0000892e  00000000  00000000  0006c9b5  2**0
                  CONTENTS, READONLY, DEBUGGING
  8 .debug_loc    00015ad5  00000000  00000000  000752e3  2**0
                  CONTENTS, READONLY, DEBUGGING
  9 .debug_aranges 000010d0  00000000  00000000  0008adb8  2**0
                  CONTENTS, READONLY, DEBUGGING
 10 .debug_ranges 00001850  00000000  00000000  0008be88  2**0
                  CONTENTS, READONLY, DEBUGGING
 11 .debug_macro  0001008a  00000000  00000000  0008d6d8  2**0
                  CONTENTS, READONLY, DEBUGGING
 12 .debug_line   0001eea9  00000000  00000000  0009d762  2**0
                  CONTENTS, READONLY, DEBUGGING
 13 .debug_str    000a278e  00000000  00000000  000bc60b  2**0
                  CONTENTS, READONLY, DEBUGGING
 14 .debug_frame  000031b0  00000000  00000000  0015ed9c  2**2
                  CONTENTS, READONLY, DEBUGGING

Disassembly of section .text:

00012000 <exception_table>:
   12000:	d0 51 00 20 39 69 01 00 1d 69 01 00 1d 69 01 00     .Q. 9i...i...i..
	...
   1202c:	75 23 01 00 00 00 00 00 00 00 00 00 51 24 01 00     u#..........Q$..
   1203c:	95 24 01 00 1d 69 01 00 1d 69 01 00 1d 69 01 00     .$...i...i...i..
   1204c:	45 50 01 00 51 4d 01 00 1d 69 01 00 1d 69 01 00     EP..QM...i...i..
   1205c:	1d 69 01 00 1d 69 01 00 6d 54 01 00 7d 54 01 00     .i...i..mT..}T..
   1206c:	8d 54 01 00 9d 54 01 00 ad 54 01 00 bd 54 01 00     .T...T...T...T..
   1207c:	ed 68 01 00 fd 68 01 00 0d 69 01 00 35 22 01 00     .h...h...i..5"..
   1208c:	45 22 01 00 55 22 01 00 00 00 00 00 00 00 00 00     E"..U"..........
   1209c:	1d 69 01 00 1d 69 01 00 1d 69 01 00 1d 69 01 00     .i...i...i...i..
   120ac:	1d 69 01 00 00 00 00 00                             .i......

000120b4 <__do_global_dtors_aux>:
   120b4:	b510      	push	{r4, lr}
   120b6:	4c06      	ldr	r4, [pc, #24]	; (120d0 <__do_global_dtors_aux+0x1c>)
   120b8:	7823      	ldrb	r3, [r4, #0]
   120ba:	2b00      	cmp	r3, #0
   120bc:	d107      	bne.n	120ce <__do_global_dtors_aux+0x1a>
   120be:	4b05      	ldr	r3, [pc, #20]	; (120d4 <__do_global_dtors_aux+0x20>)
   120c0:	2b00      	cmp	r3, #0
   120c2:	d002      	beq.n	120ca <__do_global_dtors_aux+0x16>
   120c4:	4804      	ldr	r0, [pc, #16]	; (120d8 <__do_global_dtors_aux+0x24>)
   120c6:	e000      	b.n	120ca <__do_global_dtors_aux+0x16>
   120c8:	bf00      	nop
   120ca:	2301      	movs	r3, #1
   120cc:	7023      	strb	r3, [r4, #0]
   120ce:	bd10      	pop	{r4, pc}
   120d0:	20000074 	.word	0x20000074
   120d4:	00000000 	.word	0x00000000
   120d8:	00019f84 	.word	0x00019f84

000120dc <frame_dummy>:
   120dc:	4b08      	ldr	r3, [pc, #32]	; (12100 <frame_dummy+0x24>)
   120de:	b510      	push	{r4, lr}
   120e0:	2b00      	cmp	r3, #0
   120e2:	d003      	beq.n	120ec <frame_dummy+0x10>
   120e4:	4907      	ldr	r1, [pc, #28]	; (12104 <frame_dummy+0x28>)
   120e6:	4808      	ldr	r0, [pc, #32]	; (12108 <frame_dummy+0x2c>)
   120e8:	e000      	b.n	120ec <frame_dummy+0x10>
   120ea:	bf00      	nop
   120ec:	4807      	ldr	r0, [pc, #28]	; (1210c <frame_dummy+0x30>)
   120ee:	6803      	ldr	r3, [r0, #0]
   120f0:	2b00      	cmp	r3, #0
   120f2:	d100      	bne.n	120f6 <frame_dummy+0x1a>
   120f4:	bd10      	pop	{r4, pc}
   120f6:	4b06      	ldr	r3, [pc, #24]	; (12110 <frame_dummy+0x34>)
   120f8:	2b00      	cmp	r3, #0
   120fa:	d0fb      	beq.n	120f4 <frame_dummy+0x18>
   120fc:	4798      	blx	r3
   120fe:	e7f9      	b.n	120f4 <frame_dummy+0x18>
   12100:	00000000 	.word	0x00000000
   12104:	20000078 	.word	0x20000078
   12108:	00019f84 	.word	0x00019f84
   1210c:	00019f84 	.word	0x00019f84
   12110:	00000000 	.word	0x00000000

00012114 <add_state>:
   12114:	4b02      	ldr	r3, [pc, #8]	; (12120 <add_state+0xc>)
   12116:	781a      	ldrb	r2, [r3, #0]
   12118:	4310      	orrs	r0, r2
   1211a:	7018      	strb	r0, [r3, #0]
   1211c:	4770      	bx	lr
   1211e:	46c0      	nop			; (mov r8, r8)
   12120:	20000090 	.word	0x20000090

00012124 <init_storage>:
   12124:	b570      	push	{r4, r5, r6, lr}
   12126:	4b1c      	ldr	r3, [pc, #112]	; (12198 <init_storage+0x74>)
   12128:	4798      	blx	r3
   1212a:	491c      	ldr	r1, [pc, #112]	; (1219c <init_storage+0x78>)
   1212c:	2001      	movs	r0, #1
   1212e:	4b1c      	ldr	r3, [pc, #112]	; (121a0 <init_storage+0x7c>)
   12130:	4798      	blx	r3
   12132:	4e1c      	ldr	r6, [pc, #112]	; (121a4 <init_storage+0x80>)
   12134:	4c1a      	ldr	r4, [pc, #104]	; (121a0 <init_storage+0x7c>)
   12136:	e009      	b.n	1214c <init_storage+0x28>
   12138:	491b      	ldr	r1, [pc, #108]	; (121a8 <init_storage+0x84>)
   1213a:	47a0      	blx	r4
   1213c:	491b      	ldr	r1, [pc, #108]	; (121ac <init_storage+0x88>)
   1213e:	2001      	movs	r0, #1
   12140:	47a0      	blx	r4
   12142:	4d1b      	ldr	r5, [pc, #108]	; (121b0 <init_storage+0x8c>)
   12144:	2000      	movs	r0, #0
   12146:	47a8      	blx	r5
   12148:	2802      	cmp	r0, #2
   1214a:	d1fb      	bne.n	12144 <init_storage+0x20>
   1214c:	2000      	movs	r0, #0
   1214e:	47b0      	blx	r6
   12150:	2801      	cmp	r0, #1
   12152:	d0f1      	beq.n	12138 <init_storage+0x14>
   12154:	2800      	cmp	r0, #0
   12156:	d1f9      	bne.n	1214c <init_storage+0x28>
   12158:	4916      	ldr	r1, [pc, #88]	; (121b4 <init_storage+0x90>)
   1215a:	3001      	adds	r0, #1
   1215c:	4b10      	ldr	r3, [pc, #64]	; (121a0 <init_storage+0x7c>)
   1215e:	4798      	blx	r3
   12160:	4c15      	ldr	r4, [pc, #84]	; (121b8 <init_storage+0x94>)
   12162:	228c      	movs	r2, #140	; 0x8c
   12164:	0092      	lsls	r2, r2, #2
   12166:	2100      	movs	r1, #0
   12168:	0020      	movs	r0, r4
   1216a:	4b14      	ldr	r3, [pc, #80]	; (121bc <init_storage+0x98>)
   1216c:	4798      	blx	r3
   1216e:	0021      	movs	r1, r4
   12170:	2000      	movs	r0, #0
   12172:	4b13      	ldr	r3, [pc, #76]	; (121c0 <init_storage+0x9c>)
   12174:	4798      	blx	r3
   12176:	280b      	cmp	r0, #11
   12178:	d007      	beq.n	1218a <init_storage+0x66>
   1217a:	4912      	ldr	r1, [pc, #72]	; (121c4 <init_storage+0xa0>)
   1217c:	2001      	movs	r0, #1
   1217e:	4b08      	ldr	r3, [pc, #32]	; (121a0 <init_storage+0x7c>)
   12180:	4798      	blx	r3
   12182:	2001      	movs	r0, #1
   12184:	4b10      	ldr	r3, [pc, #64]	; (121c8 <init_storage+0xa4>)
   12186:	4798      	blx	r3
   12188:	bd70      	pop	{r4, r5, r6, pc}
   1218a:	220b      	movs	r2, #11
   1218c:	490f      	ldr	r1, [pc, #60]	; (121cc <init_storage+0xa8>)
   1218e:	380a      	subs	r0, #10
   12190:	4b03      	ldr	r3, [pc, #12]	; (121a0 <init_storage+0x7c>)
   12192:	4798      	blx	r3
   12194:	e7f8      	b.n	12188 <init_storage+0x64>
   12196:	46c0      	nop			; (mov r8, r8)
   12198:	00013c51 	.word	0x00013c51
   1219c:	000194dc 	.word	0x000194dc
   121a0:	00013aed 	.word	0x00013aed
   121a4:	00014385 	.word	0x00014385
   121a8:	00019514 	.word	0x00019514
   121ac:	0001953c 	.word	0x0001953c
   121b0:	00013c71 	.word	0x00013c71
   121b4:	00019570 	.word	0x00019570
   121b8:	20000094 	.word	0x20000094
   121bc:	00018c23 	.word	0x00018c23
   121c0:	00018239 	.word	0x00018239
   121c4:	000195c4 	.word	0x000195c4
   121c8:	00012115 	.word	0x00012115
   121cc:	00019594 	.word	0x00019594

000121d0 <_tc_interrupt_handler>:
   121d0:	b570      	push	{r4, r5, r6, lr}
   121d2:	0080      	lsls	r0, r0, #2
   121d4:	4b16      	ldr	r3, [pc, #88]	; (12230 <_tc_interrupt_handler+0x60>)
   121d6:	58c4      	ldr	r4, [r0, r3]
   121d8:	6823      	ldr	r3, [r4, #0]
   121da:	7b9d      	ldrb	r5, [r3, #14]
   121dc:	7e22      	ldrb	r2, [r4, #24]
   121de:	7e63      	ldrb	r3, [r4, #25]
   121e0:	4013      	ands	r3, r2
   121e2:	401d      	ands	r5, r3
   121e4:	07eb      	lsls	r3, r5, #31
   121e6:	d406      	bmi.n	121f6 <_tc_interrupt_handler+0x26>
   121e8:	07ab      	lsls	r3, r5, #30
   121ea:	d40b      	bmi.n	12204 <_tc_interrupt_handler+0x34>
   121ec:	06eb      	lsls	r3, r5, #27
   121ee:	d410      	bmi.n	12212 <_tc_interrupt_handler+0x42>
   121f0:	06ab      	lsls	r3, r5, #26
   121f2:	d415      	bmi.n	12220 <_tc_interrupt_handler+0x50>
   121f4:	bd70      	pop	{r4, r5, r6, pc}
   121f6:	0020      	movs	r0, r4
   121f8:	68a3      	ldr	r3, [r4, #8]
   121fa:	4798      	blx	r3
   121fc:	2301      	movs	r3, #1
   121fe:	6822      	ldr	r2, [r4, #0]
   12200:	7393      	strb	r3, [r2, #14]
   12202:	e7f1      	b.n	121e8 <_tc_interrupt_handler+0x18>
   12204:	0020      	movs	r0, r4
   12206:	68e3      	ldr	r3, [r4, #12]
   12208:	4798      	blx	r3
   1220a:	2302      	movs	r3, #2
   1220c:	6822      	ldr	r2, [r4, #0]
   1220e:	7393      	strb	r3, [r2, #14]
   12210:	e7ec      	b.n	121ec <_tc_interrupt_handler+0x1c>
   12212:	0020      	movs	r0, r4
   12214:	6923      	ldr	r3, [r4, #16]
   12216:	4798      	blx	r3
   12218:	2310      	movs	r3, #16
   1221a:	6822      	ldr	r2, [r4, #0]
   1221c:	7393      	strb	r3, [r2, #14]
   1221e:	e7e7      	b.n	121f0 <_tc_interrupt_handler+0x20>
   12220:	0020      	movs	r0, r4
   12222:	6963      	ldr	r3, [r4, #20]
   12224:	4798      	blx	r3
   12226:	6823      	ldr	r3, [r4, #0]
   12228:	2220      	movs	r2, #32
   1222a:	739a      	strb	r2, [r3, #14]
   1222c:	e7e2      	b.n	121f4 <_tc_interrupt_handler+0x24>
   1222e:	46c0      	nop			; (mov r8, r8)
   12230:	20002c10 	.word	0x20002c10

00012234 <TC3_Handler>:
   12234:	b510      	push	{r4, lr}
   12236:	2000      	movs	r0, #0
   12238:	4b01      	ldr	r3, [pc, #4]	; (12240 <TC3_Handler+0xc>)
   1223a:	4798      	blx	r3
   1223c:	bd10      	pop	{r4, pc}
   1223e:	46c0      	nop			; (mov r8, r8)
   12240:	000121d1 	.word	0x000121d1

00012244 <TC4_Handler>:
   12244:	b510      	push	{r4, lr}
   12246:	2001      	movs	r0, #1
   12248:	4b01      	ldr	r3, [pc, #4]	; (12250 <TC4_Handler+0xc>)
   1224a:	4798      	blx	r3
   1224c:	bd10      	pop	{r4, pc}
   1224e:	46c0      	nop			; (mov r8, r8)
   12250:	000121d1 	.word	0x000121d1

00012254 <TC5_Handler>:
   12254:	b510      	push	{r4, lr}
   12256:	2002      	movs	r0, #2
   12258:	4b01      	ldr	r3, [pc, #4]	; (12260 <TC5_Handler+0xc>)
   1225a:	4798      	blx	r3
   1225c:	bd10      	pop	{r4, pc}
   1225e:	46c0      	nop			; (mov r8, r8)
   12260:	000121d1 	.word	0x000121d1

00012264 <vListInitialise>:
   12264:	0003      	movs	r3, r0
   12266:	3308      	adds	r3, #8
   12268:	6043      	str	r3, [r0, #4]
   1226a:	2201      	movs	r2, #1
   1226c:	4252      	negs	r2, r2
   1226e:	6082      	str	r2, [r0, #8]
   12270:	60c3      	str	r3, [r0, #12]
   12272:	6103      	str	r3, [r0, #16]
   12274:	2300      	movs	r3, #0
   12276:	6003      	str	r3, [r0, #0]
   12278:	4770      	bx	lr

0001227a <vListInitialiseItem>:
   1227a:	2300      	movs	r3, #0
   1227c:	6103      	str	r3, [r0, #16]
   1227e:	4770      	bx	lr

00012280 <vListInsertEnd>:
   12280:	6843      	ldr	r3, [r0, #4]
   12282:	604b      	str	r3, [r1, #4]
   12284:	689a      	ldr	r2, [r3, #8]
   12286:	608a      	str	r2, [r1, #8]
   12288:	689a      	ldr	r2, [r3, #8]
   1228a:	6051      	str	r1, [r2, #4]
   1228c:	6099      	str	r1, [r3, #8]
   1228e:	6108      	str	r0, [r1, #16]
   12290:	6803      	ldr	r3, [r0, #0]
   12292:	3301      	adds	r3, #1
   12294:	6003      	str	r3, [r0, #0]
   12296:	4770      	bx	lr

00012298 <vListInsert>:
   12298:	b530      	push	{r4, r5, lr}
   1229a:	680c      	ldr	r4, [r1, #0]
   1229c:	0002      	movs	r2, r0
   1229e:	3208      	adds	r2, #8
   122a0:	1c63      	adds	r3, r4, #1
   122a2:	d102      	bne.n	122aa <vListInsert+0x12>
   122a4:	6902      	ldr	r2, [r0, #16]
   122a6:	e004      	b.n	122b2 <vListInsert+0x1a>
   122a8:	001a      	movs	r2, r3
   122aa:	6853      	ldr	r3, [r2, #4]
   122ac:	681d      	ldr	r5, [r3, #0]
   122ae:	42ac      	cmp	r4, r5
   122b0:	d2fa      	bcs.n	122a8 <vListInsert+0x10>
   122b2:	6853      	ldr	r3, [r2, #4]
   122b4:	604b      	str	r3, [r1, #4]
   122b6:	6099      	str	r1, [r3, #8]
   122b8:	608a      	str	r2, [r1, #8]
   122ba:	6051      	str	r1, [r2, #4]
   122bc:	6108      	str	r0, [r1, #16]
   122be:	6803      	ldr	r3, [r0, #0]
   122c0:	3301      	adds	r3, #1
   122c2:	6003      	str	r3, [r0, #0]
   122c4:	bd30      	pop	{r4, r5, pc}

000122c6 <uxListRemove>:
   122c6:	6903      	ldr	r3, [r0, #16]
   122c8:	6842      	ldr	r2, [r0, #4]
   122ca:	6881      	ldr	r1, [r0, #8]
   122cc:	6091      	str	r1, [r2, #8]
   122ce:	6882      	ldr	r2, [r0, #8]
   122d0:	6841      	ldr	r1, [r0, #4]
   122d2:	6051      	str	r1, [r2, #4]
   122d4:	685a      	ldr	r2, [r3, #4]
   122d6:	4290      	cmp	r0, r2
   122d8:	d006      	beq.n	122e8 <uxListRemove+0x22>
   122da:	2200      	movs	r2, #0
   122dc:	6102      	str	r2, [r0, #16]
   122de:	681a      	ldr	r2, [r3, #0]
   122e0:	3a01      	subs	r2, #1
   122e2:	601a      	str	r2, [r3, #0]
   122e4:	6818      	ldr	r0, [r3, #0]
   122e6:	4770      	bx	lr
   122e8:	6882      	ldr	r2, [r0, #8]
   122ea:	605a      	str	r2, [r3, #4]
   122ec:	e7f5      	b.n	122da <uxListRemove+0x14>
	...

000122f0 <prvTaskExitError>:
   122f0:	b082      	sub	sp, #8
   122f2:	2300      	movs	r3, #0
   122f4:	9301      	str	r3, [sp, #4]
   122f6:	4b06      	ldr	r3, [pc, #24]	; (12310 <prvTaskExitError+0x20>)
   122f8:	681b      	ldr	r3, [r3, #0]
   122fa:	3301      	adds	r3, #1
   122fc:	d001      	beq.n	12302 <prvTaskExitError+0x12>
   122fe:	b672      	cpsid	i
   12300:	e7fe      	b.n	12300 <prvTaskExitError+0x10>
   12302:	b672      	cpsid	i
   12304:	9b01      	ldr	r3, [sp, #4]
   12306:	2b00      	cmp	r3, #0
   12308:	d0fc      	beq.n	12304 <prvTaskExitError+0x14>
   1230a:	b002      	add	sp, #8
   1230c:	4770      	bx	lr
   1230e:	46c0      	nop			; (mov r8, r8)
   12310:	20000000 	.word	0x20000000
	...

00012320 <vPortStartFirstTask>:
   12320:	4a0b      	ldr	r2, [pc, #44]	; (12350 <pxCurrentTCBConst2>)
   12322:	6813      	ldr	r3, [r2, #0]
   12324:	6818      	ldr	r0, [r3, #0]
   12326:	3020      	adds	r0, #32
   12328:	f380 8809 	msr	PSP, r0
   1232c:	2002      	movs	r0, #2
   1232e:	f380 8814 	msr	CONTROL, r0
   12332:	f3bf 8f6f 	isb	sy
   12336:	bc3f      	pop	{r0, r1, r2, r3, r4, r5}
   12338:	46ae      	mov	lr, r5
   1233a:	bc08      	pop	{r3}
   1233c:	bc04      	pop	{r2}
   1233e:	b662      	cpsie	i
   12340:	4718      	bx	r3
   12342:	46c0      	nop			; (mov r8, r8)
   12344:	46c0      	nop			; (mov r8, r8)
   12346:	46c0      	nop			; (mov r8, r8)
   12348:	46c0      	nop			; (mov r8, r8)
   1234a:	46c0      	nop			; (mov r8, r8)
   1234c:	46c0      	nop			; (mov r8, r8)
   1234e:	46c0      	nop			; (mov r8, r8)

00012350 <pxCurrentTCBConst2>:
   12350:	200029dc 	.word	0x200029dc

00012354 <pxPortInitialiseStack>:
   12354:	b510      	push	{r4, lr}
   12356:	1f03      	subs	r3, r0, #4
   12358:	2480      	movs	r4, #128	; 0x80
   1235a:	0464      	lsls	r4, r4, #17
   1235c:	601c      	str	r4, [r3, #0]
   1235e:	3b04      	subs	r3, #4
   12360:	6019      	str	r1, [r3, #0]
   12362:	3b04      	subs	r3, #4
   12364:	4902      	ldr	r1, [pc, #8]	; (12370 <pxPortInitialiseStack+0x1c>)
   12366:	6019      	str	r1, [r3, #0]
   12368:	3b14      	subs	r3, #20
   1236a:	601a      	str	r2, [r3, #0]
   1236c:	3840      	subs	r0, #64	; 0x40
   1236e:	bd10      	pop	{r4, pc}
   12370:	000122f1 	.word	0x000122f1

00012374 <SVC_Handler>:
   12374:	4770      	bx	lr
	...

00012378 <xPortStartScheduler>:
   12378:	b570      	push	{r4, r5, r6, lr}
   1237a:	4b13      	ldr	r3, [pc, #76]	; (123c8 <xPortStartScheduler+0x50>)
   1237c:	6819      	ldr	r1, [r3, #0]
   1237e:	22ff      	movs	r2, #255	; 0xff
   12380:	0412      	lsls	r2, r2, #16
   12382:	430a      	orrs	r2, r1
   12384:	601a      	str	r2, [r3, #0]
   12386:	6819      	ldr	r1, [r3, #0]
   12388:	22ff      	movs	r2, #255	; 0xff
   1238a:	0612      	lsls	r2, r2, #24
   1238c:	430a      	orrs	r2, r1
   1238e:	601a      	str	r2, [r3, #0]
   12390:	4d0e      	ldr	r5, [pc, #56]	; (123cc <xPortStartScheduler+0x54>)
   12392:	2400      	movs	r4, #0
   12394:	602c      	str	r4, [r5, #0]
   12396:	4b0e      	ldr	r3, [pc, #56]	; (123d0 <xPortStartScheduler+0x58>)
   12398:	601c      	str	r4, [r3, #0]
   1239a:	2000      	movs	r0, #0
   1239c:	4b0d      	ldr	r3, [pc, #52]	; (123d4 <xPortStartScheduler+0x5c>)
   1239e:	4798      	blx	r3
   123a0:	21fa      	movs	r1, #250	; 0xfa
   123a2:	0089      	lsls	r1, r1, #2
   123a4:	4b0c      	ldr	r3, [pc, #48]	; (123d8 <xPortStartScheduler+0x60>)
   123a6:	4798      	blx	r3
   123a8:	3801      	subs	r0, #1
   123aa:	4b0c      	ldr	r3, [pc, #48]	; (123dc <xPortStartScheduler+0x64>)
   123ac:	6018      	str	r0, [r3, #0]
   123ae:	2307      	movs	r3, #7
   123b0:	602b      	str	r3, [r5, #0]
   123b2:	4b0b      	ldr	r3, [pc, #44]	; (123e0 <xPortStartScheduler+0x68>)
   123b4:	601c      	str	r4, [r3, #0]
   123b6:	4b0b      	ldr	r3, [pc, #44]	; (123e4 <xPortStartScheduler+0x6c>)
   123b8:	4798      	blx	r3
   123ba:	4b0b      	ldr	r3, [pc, #44]	; (123e8 <xPortStartScheduler+0x70>)
   123bc:	4798      	blx	r3
   123be:	4b0b      	ldr	r3, [pc, #44]	; (123ec <xPortStartScheduler+0x74>)
   123c0:	4798      	blx	r3
   123c2:	2000      	movs	r0, #0
   123c4:	bd70      	pop	{r4, r5, r6, pc}
   123c6:	46c0      	nop			; (mov r8, r8)
   123c8:	e000ed20 	.word	0xe000ed20
   123cc:	e000e010 	.word	0xe000e010
   123d0:	e000e018 	.word	0xe000e018
   123d4:	00016631 	.word	0x00016631
   123d8:	00018851 	.word	0x00018851
   123dc:	e000e014 	.word	0xe000e014
   123e0:	20000000 	.word	0x20000000
   123e4:	00012321 	.word	0x00012321
   123e8:	000131ad 	.word	0x000131ad
   123ec:	000122f1 	.word	0x000122f1

000123f0 <vPortYield>:
   123f0:	2280      	movs	r2, #128	; 0x80
   123f2:	0552      	lsls	r2, r2, #21
   123f4:	4b01      	ldr	r3, [pc, #4]	; (123fc <vPortYield+0xc>)
   123f6:	601a      	str	r2, [r3, #0]
   123f8:	4770      	bx	lr
   123fa:	46c0      	nop			; (mov r8, r8)
   123fc:	e000ed04 	.word	0xe000ed04

00012400 <vPortEnterCritical>:
   12400:	b672      	cpsid	i
   12402:	4a04      	ldr	r2, [pc, #16]	; (12414 <vPortEnterCritical+0x14>)
   12404:	6813      	ldr	r3, [r2, #0]
   12406:	3301      	adds	r3, #1
   12408:	6013      	str	r3, [r2, #0]
   1240a:	f3bf 8f4f 	dsb	sy
   1240e:	f3bf 8f6f 	isb	sy
   12412:	4770      	bx	lr
   12414:	20000000 	.word	0x20000000

00012418 <vPortExitCritical>:
   12418:	4b06      	ldr	r3, [pc, #24]	; (12434 <vPortExitCritical+0x1c>)
   1241a:	681b      	ldr	r3, [r3, #0]
   1241c:	2b00      	cmp	r3, #0
   1241e:	d101      	bne.n	12424 <vPortExitCritical+0xc>
   12420:	b672      	cpsid	i
   12422:	e7fe      	b.n	12422 <vPortExitCritical+0xa>
   12424:	3b01      	subs	r3, #1
   12426:	4a03      	ldr	r2, [pc, #12]	; (12434 <vPortExitCritical+0x1c>)
   12428:	6013      	str	r3, [r2, #0]
   1242a:	2b00      	cmp	r3, #0
   1242c:	d100      	bne.n	12430 <vPortExitCritical+0x18>
   1242e:	b662      	cpsie	i
   12430:	4770      	bx	lr
   12432:	46c0      	nop			; (mov r8, r8)
   12434:	20000000 	.word	0x20000000

00012438 <ulSetInterruptMaskFromISR>:
   12438:	f3ef 8010 	mrs	r0, PRIMASK
   1243c:	b672      	cpsid	i
   1243e:	4770      	bx	lr

00012440 <vClearInterruptMaskFromISR>:
   12440:	f380 8810 	msr	PRIMASK, r0
   12444:	4770      	bx	lr
	...

00012450 <PendSV_Handler>:
   12450:	f3ef 8009 	mrs	r0, PSP
   12454:	4b0e      	ldr	r3, [pc, #56]	; (12490 <pxCurrentTCBConst>)
   12456:	681a      	ldr	r2, [r3, #0]
   12458:	3820      	subs	r0, #32
   1245a:	6010      	str	r0, [r2, #0]
   1245c:	c0f0      	stmia	r0!, {r4, r5, r6, r7}
   1245e:	4644      	mov	r4, r8
   12460:	464d      	mov	r5, r9
   12462:	4656      	mov	r6, sl
   12464:	465f      	mov	r7, fp
   12466:	c0f0      	stmia	r0!, {r4, r5, r6, r7}
   12468:	b508      	push	{r3, lr}
   1246a:	b672      	cpsid	i
   1246c:	f000 fe9e 	bl	131ac <vTaskSwitchContext>
   12470:	b662      	cpsie	i
   12472:	bc0c      	pop	{r2, r3}
   12474:	6811      	ldr	r1, [r2, #0]
   12476:	6808      	ldr	r0, [r1, #0]
   12478:	3010      	adds	r0, #16
   1247a:	c8f0      	ldmia	r0!, {r4, r5, r6, r7}
   1247c:	46a0      	mov	r8, r4
   1247e:	46a9      	mov	r9, r5
   12480:	46b2      	mov	sl, r6
   12482:	46bb      	mov	fp, r7
   12484:	f380 8809 	msr	PSP, r0
   12488:	3820      	subs	r0, #32
   1248a:	c8f0      	ldmia	r0!, {r4, r5, r6, r7}
   1248c:	4718      	bx	r3
   1248e:	46c0      	nop			; (mov r8, r8)

00012490 <pxCurrentTCBConst>:
   12490:	200029dc 	.word	0x200029dc

00012494 <SysTick_Handler>:
   12494:	b510      	push	{r4, lr}
   12496:	4b07      	ldr	r3, [pc, #28]	; (124b4 <SysTick_Handler+0x20>)
   12498:	4798      	blx	r3
   1249a:	0004      	movs	r4, r0
   1249c:	4b06      	ldr	r3, [pc, #24]	; (124b8 <SysTick_Handler+0x24>)
   1249e:	4798      	blx	r3
   124a0:	2800      	cmp	r0, #0
   124a2:	d003      	beq.n	124ac <SysTick_Handler+0x18>
   124a4:	2280      	movs	r2, #128	; 0x80
   124a6:	0552      	lsls	r2, r2, #21
   124a8:	4b04      	ldr	r3, [pc, #16]	; (124bc <SysTick_Handler+0x28>)
   124aa:	601a      	str	r2, [r3, #0]
   124ac:	0020      	movs	r0, r4
   124ae:	4b04      	ldr	r3, [pc, #16]	; (124c0 <SysTick_Handler+0x2c>)
   124b0:	4798      	blx	r3
   124b2:	bd10      	pop	{r4, pc}
   124b4:	00012439 	.word	0x00012439
   124b8:	00012f8d 	.word	0x00012f8d
   124bc:	e000ed04 	.word	0xe000ed04
   124c0:	00012441 	.word	0x00012441

000124c4 <pvPortMalloc>:
   124c4:	b570      	push	{r4, r5, r6, lr}
   124c6:	0004      	movs	r4, r0
   124c8:	0743      	lsls	r3, r0, #29
   124ca:	d002      	beq.n	124d2 <pvPortMalloc+0xe>
   124cc:	2307      	movs	r3, #7
   124ce:	439c      	bics	r4, r3
   124d0:	3408      	adds	r4, #8
   124d2:	4b13      	ldr	r3, [pc, #76]	; (12520 <pvPortMalloc+0x5c>)
   124d4:	4798      	blx	r3
   124d6:	4b13      	ldr	r3, [pc, #76]	; (12524 <pvPortMalloc+0x60>)
   124d8:	681b      	ldr	r3, [r3, #0]
   124da:	2b00      	cmp	r3, #0
   124dc:	d012      	beq.n	12504 <pvPortMalloc+0x40>
   124de:	4b12      	ldr	r3, [pc, #72]	; (12528 <pvPortMalloc+0x64>)
   124e0:	681b      	ldr	r3, [r3, #0]
   124e2:	18e4      	adds	r4, r4, r3
   124e4:	4a11      	ldr	r2, [pc, #68]	; (1252c <pvPortMalloc+0x68>)
   124e6:	4294      	cmp	r4, r2
   124e8:	d813      	bhi.n	12512 <pvPortMalloc+0x4e>
   124ea:	42a3      	cmp	r3, r4
   124ec:	d211      	bcs.n	12512 <pvPortMalloc+0x4e>
   124ee:	4a0d      	ldr	r2, [pc, #52]	; (12524 <pvPortMalloc+0x60>)
   124f0:	6815      	ldr	r5, [r2, #0]
   124f2:	18ed      	adds	r5, r5, r3
   124f4:	4b0c      	ldr	r3, [pc, #48]	; (12528 <pvPortMalloc+0x64>)
   124f6:	601c      	str	r4, [r3, #0]
   124f8:	4b0d      	ldr	r3, [pc, #52]	; (12530 <pvPortMalloc+0x6c>)
   124fa:	4798      	blx	r3
   124fc:	2d00      	cmp	r5, #0
   124fe:	d00a      	beq.n	12516 <pvPortMalloc+0x52>
   12500:	0028      	movs	r0, r5
   12502:	bd70      	pop	{r4, r5, r6, pc}
   12504:	2207      	movs	r2, #7
   12506:	4b0b      	ldr	r3, [pc, #44]	; (12534 <pvPortMalloc+0x70>)
   12508:	3308      	adds	r3, #8
   1250a:	4393      	bics	r3, r2
   1250c:	4a05      	ldr	r2, [pc, #20]	; (12524 <pvPortMalloc+0x60>)
   1250e:	6013      	str	r3, [r2, #0]
   12510:	e7e5      	b.n	124de <pvPortMalloc+0x1a>
   12512:	4b07      	ldr	r3, [pc, #28]	; (12530 <pvPortMalloc+0x6c>)
   12514:	4798      	blx	r3
   12516:	4b08      	ldr	r3, [pc, #32]	; (12538 <pvPortMalloc+0x74>)
   12518:	4798      	blx	r3
   1251a:	2500      	movs	r5, #0
   1251c:	e7f0      	b.n	12500 <pvPortMalloc+0x3c>
   1251e:	46c0      	nop			; (mov r8, r8)
   12520:	00012f71 	.word	0x00012f71
   12524:	200002c4 	.word	0x200002c4
   12528:	200029d8 	.word	0x200029d8
   1252c:	00002707 	.word	0x00002707
   12530:	000130ad 	.word	0x000130ad
   12534:	200002c8 	.word	0x200002c8
   12538:	00018829 	.word	0x00018829

0001253c <vPortFree>:
   1253c:	2800      	cmp	r0, #0
   1253e:	d001      	beq.n	12544 <vPortFree+0x8>
   12540:	b672      	cpsid	i
   12542:	e7fe      	b.n	12542 <vPortFree+0x6>
   12544:	4770      	bx	lr
	...

00012548 <prvIsQueueEmpty>:
   12548:	b510      	push	{r4, lr}
   1254a:	0004      	movs	r4, r0
   1254c:	4b03      	ldr	r3, [pc, #12]	; (1255c <prvIsQueueEmpty+0x14>)
   1254e:	4798      	blx	r3
   12550:	6ba4      	ldr	r4, [r4, #56]	; 0x38
   12552:	4b03      	ldr	r3, [pc, #12]	; (12560 <prvIsQueueEmpty+0x18>)
   12554:	4798      	blx	r3
   12556:	4260      	negs	r0, r4
   12558:	4160      	adcs	r0, r4
   1255a:	bd10      	pop	{r4, pc}
   1255c:	00012401 	.word	0x00012401
   12560:	00012419 	.word	0x00012419

00012564 <prvCopyDataToQueue>:
   12564:	b570      	push	{r4, r5, r6, lr}
   12566:	0004      	movs	r4, r0
   12568:	0016      	movs	r6, r2
   1256a:	6b85      	ldr	r5, [r0, #56]	; 0x38
   1256c:	6c02      	ldr	r2, [r0, #64]	; 0x40
   1256e:	2a00      	cmp	r2, #0
   12570:	d10b      	bne.n	1258a <prvCopyDataToQueue+0x26>
   12572:	2000      	movs	r0, #0
   12574:	6823      	ldr	r3, [r4, #0]
   12576:	4283      	cmp	r3, r0
   12578:	d104      	bne.n	12584 <prvCopyDataToQueue+0x20>
   1257a:	6860      	ldr	r0, [r4, #4]
   1257c:	4b16      	ldr	r3, [pc, #88]	; (125d8 <prvCopyDataToQueue+0x74>)
   1257e:	4798      	blx	r3
   12580:	2300      	movs	r3, #0
   12582:	6063      	str	r3, [r4, #4]
   12584:	3501      	adds	r5, #1
   12586:	63a5      	str	r5, [r4, #56]	; 0x38
   12588:	bd70      	pop	{r4, r5, r6, pc}
   1258a:	2e00      	cmp	r6, #0
   1258c:	d10e      	bne.n	125ac <prvCopyDataToQueue+0x48>
   1258e:	6880      	ldr	r0, [r0, #8]
   12590:	4b12      	ldr	r3, [pc, #72]	; (125dc <prvCopyDataToQueue+0x78>)
   12592:	4798      	blx	r3
   12594:	68a3      	ldr	r3, [r4, #8]
   12596:	6c22      	ldr	r2, [r4, #64]	; 0x40
   12598:	4694      	mov	ip, r2
   1259a:	4463      	add	r3, ip
   1259c:	60a3      	str	r3, [r4, #8]
   1259e:	2000      	movs	r0, #0
   125a0:	6862      	ldr	r2, [r4, #4]
   125a2:	4293      	cmp	r3, r2
   125a4:	d3ee      	bcc.n	12584 <prvCopyDataToQueue+0x20>
   125a6:	6823      	ldr	r3, [r4, #0]
   125a8:	60a3      	str	r3, [r4, #8]
   125aa:	e7eb      	b.n	12584 <prvCopyDataToQueue+0x20>
   125ac:	68c0      	ldr	r0, [r0, #12]
   125ae:	4b0b      	ldr	r3, [pc, #44]	; (125dc <prvCopyDataToQueue+0x78>)
   125b0:	4798      	blx	r3
   125b2:	6c23      	ldr	r3, [r4, #64]	; 0x40
   125b4:	425b      	negs	r3, r3
   125b6:	68e2      	ldr	r2, [r4, #12]
   125b8:	18d2      	adds	r2, r2, r3
   125ba:	60e2      	str	r2, [r4, #12]
   125bc:	6821      	ldr	r1, [r4, #0]
   125be:	428a      	cmp	r2, r1
   125c0:	d203      	bcs.n	125ca <prvCopyDataToQueue+0x66>
   125c2:	6862      	ldr	r2, [r4, #4]
   125c4:	4694      	mov	ip, r2
   125c6:	4463      	add	r3, ip
   125c8:	60e3      	str	r3, [r4, #12]
   125ca:	2000      	movs	r0, #0
   125cc:	2e02      	cmp	r6, #2
   125ce:	d1d9      	bne.n	12584 <prvCopyDataToQueue+0x20>
   125d0:	4285      	cmp	r5, r0
   125d2:	d0d7      	beq.n	12584 <prvCopyDataToQueue+0x20>
   125d4:	3d01      	subs	r5, #1
   125d6:	e7d5      	b.n	12584 <prvCopyDataToQueue+0x20>
   125d8:	00013409 	.word	0x00013409
   125dc:	00018bed 	.word	0x00018bed

000125e0 <prvNotifyQueueSetContainer>:
   125e0:	b570      	push	{r4, r5, r6, lr}
   125e2:	b082      	sub	sp, #8
   125e4:	9001      	str	r0, [sp, #4]
   125e6:	000a      	movs	r2, r1
   125e8:	6c84      	ldr	r4, [r0, #72]	; 0x48
   125ea:	2c00      	cmp	r4, #0
   125ec:	d005      	beq.n	125fa <prvNotifyQueueSetContainer+0x1a>
   125ee:	6ba1      	ldr	r1, [r4, #56]	; 0x38
   125f0:	6be3      	ldr	r3, [r4, #60]	; 0x3c
   125f2:	4299      	cmp	r1, r3
   125f4:	d303      	bcc.n	125fe <prvNotifyQueueSetContainer+0x1e>
   125f6:	b672      	cpsid	i
   125f8:	e7fe      	b.n	125f8 <prvNotifyQueueSetContainer+0x18>
   125fa:	b672      	cpsid	i
   125fc:	e7fe      	b.n	125fc <prvNotifyQueueSetContainer+0x1c>
   125fe:	6ba1      	ldr	r1, [r4, #56]	; 0x38
   12600:	2600      	movs	r6, #0
   12602:	428b      	cmp	r3, r1
   12604:	d802      	bhi.n	1260c <prvNotifyQueueSetContainer+0x2c>
   12606:	0030      	movs	r0, r6
   12608:	b002      	add	sp, #8
   1260a:	bd70      	pop	{r4, r5, r6, pc}
   1260c:	2345      	movs	r3, #69	; 0x45
   1260e:	5ce5      	ldrb	r5, [r4, r3]
   12610:	b26d      	sxtb	r5, r5
   12612:	a901      	add	r1, sp, #4
   12614:	0020      	movs	r0, r4
   12616:	4b0a      	ldr	r3, [pc, #40]	; (12640 <prvNotifyQueueSetContainer+0x60>)
   12618:	4798      	blx	r3
   1261a:	0006      	movs	r6, r0
   1261c:	1c6b      	adds	r3, r5, #1
   1261e:	d10a      	bne.n	12636 <prvNotifyQueueSetContainer+0x56>
   12620:	6a63      	ldr	r3, [r4, #36]	; 0x24
   12622:	2b00      	cmp	r3, #0
   12624:	d0ef      	beq.n	12606 <prvNotifyQueueSetContainer+0x26>
   12626:	0020      	movs	r0, r4
   12628:	3024      	adds	r0, #36	; 0x24
   1262a:	4b06      	ldr	r3, [pc, #24]	; (12644 <prvNotifyQueueSetContainer+0x64>)
   1262c:	4798      	blx	r3
   1262e:	2800      	cmp	r0, #0
   12630:	d0e9      	beq.n	12606 <prvNotifyQueueSetContainer+0x26>
   12632:	2601      	movs	r6, #1
   12634:	e7e7      	b.n	12606 <prvNotifyQueueSetContainer+0x26>
   12636:	3501      	adds	r5, #1
   12638:	b26d      	sxtb	r5, r5
   1263a:	2345      	movs	r3, #69	; 0x45
   1263c:	54e5      	strb	r5, [r4, r3]
   1263e:	e7e2      	b.n	12606 <prvNotifyQueueSetContainer+0x26>
   12640:	00012565 	.word	0x00012565
   12644:	000132cd 	.word	0x000132cd

00012648 <prvCopyDataFromQueue>:
   12648:	b510      	push	{r4, lr}
   1264a:	000c      	movs	r4, r1
   1264c:	6c02      	ldr	r2, [r0, #64]	; 0x40
   1264e:	2a00      	cmp	r2, #0
   12650:	d00b      	beq.n	1266a <prvCopyDataFromQueue+0x22>
   12652:	68c3      	ldr	r3, [r0, #12]
   12654:	189b      	adds	r3, r3, r2
   12656:	60c3      	str	r3, [r0, #12]
   12658:	6841      	ldr	r1, [r0, #4]
   1265a:	428b      	cmp	r3, r1
   1265c:	d301      	bcc.n	12662 <prvCopyDataFromQueue+0x1a>
   1265e:	6803      	ldr	r3, [r0, #0]
   12660:	60c3      	str	r3, [r0, #12]
   12662:	68c1      	ldr	r1, [r0, #12]
   12664:	0020      	movs	r0, r4
   12666:	4b01      	ldr	r3, [pc, #4]	; (1266c <prvCopyDataFromQueue+0x24>)
   12668:	4798      	blx	r3
   1266a:	bd10      	pop	{r4, pc}
   1266c:	00018bed 	.word	0x00018bed

00012670 <prvUnlockQueue>:
   12670:	b5f8      	push	{r3, r4, r5, r6, r7, lr}
   12672:	0007      	movs	r7, r0
   12674:	4b25      	ldr	r3, [pc, #148]	; (1270c <prvUnlockQueue+0x9c>)
   12676:	4798      	blx	r3
   12678:	2345      	movs	r3, #69	; 0x45
   1267a:	5cfc      	ldrb	r4, [r7, r3]
   1267c:	b264      	sxtb	r4, r4
   1267e:	2c00      	cmp	r4, #0
   12680:	dd1c      	ble.n	126bc <prvUnlockQueue+0x4c>
   12682:	4e23      	ldr	r6, [pc, #140]	; (12710 <prvUnlockQueue+0xa0>)
   12684:	4d23      	ldr	r5, [pc, #140]	; (12714 <prvUnlockQueue+0xa4>)
   12686:	e00b      	b.n	126a0 <prvUnlockQueue+0x30>
   12688:	6a7b      	ldr	r3, [r7, #36]	; 0x24
   1268a:	2b00      	cmp	r3, #0
   1268c:	d016      	beq.n	126bc <prvUnlockQueue+0x4c>
   1268e:	0038      	movs	r0, r7
   12690:	3024      	adds	r0, #36	; 0x24
   12692:	47a8      	blx	r5
   12694:	2800      	cmp	r0, #0
   12696:	d10e      	bne.n	126b6 <prvUnlockQueue+0x46>
   12698:	3c01      	subs	r4, #1
   1269a:	b264      	sxtb	r4, r4
   1269c:	2c00      	cmp	r4, #0
   1269e:	d00d      	beq.n	126bc <prvUnlockQueue+0x4c>
   126a0:	6cbb      	ldr	r3, [r7, #72]	; 0x48
   126a2:	2b00      	cmp	r3, #0
   126a4:	d0f0      	beq.n	12688 <prvUnlockQueue+0x18>
   126a6:	2100      	movs	r1, #0
   126a8:	0038      	movs	r0, r7
   126aa:	47b0      	blx	r6
   126ac:	2800      	cmp	r0, #0
   126ae:	d0f3      	beq.n	12698 <prvUnlockQueue+0x28>
   126b0:	4b19      	ldr	r3, [pc, #100]	; (12718 <prvUnlockQueue+0xa8>)
   126b2:	4798      	blx	r3
   126b4:	e7f0      	b.n	12698 <prvUnlockQueue+0x28>
   126b6:	4b18      	ldr	r3, [pc, #96]	; (12718 <prvUnlockQueue+0xa8>)
   126b8:	4798      	blx	r3
   126ba:	e7ed      	b.n	12698 <prvUnlockQueue+0x28>
   126bc:	22ff      	movs	r2, #255	; 0xff
   126be:	2345      	movs	r3, #69	; 0x45
   126c0:	54fa      	strb	r2, [r7, r3]
   126c2:	4b16      	ldr	r3, [pc, #88]	; (1271c <prvUnlockQueue+0xac>)
   126c4:	4798      	blx	r3
   126c6:	4b11      	ldr	r3, [pc, #68]	; (1270c <prvUnlockQueue+0x9c>)
   126c8:	4798      	blx	r3
   126ca:	2344      	movs	r3, #68	; 0x44
   126cc:	5cfc      	ldrb	r4, [r7, r3]
   126ce:	b264      	sxtb	r4, r4
   126d0:	2c00      	cmp	r4, #0
   126d2:	dd14      	ble.n	126fe <prvUnlockQueue+0x8e>
   126d4:	693b      	ldr	r3, [r7, #16]
   126d6:	2b00      	cmp	r3, #0
   126d8:	d011      	beq.n	126fe <prvUnlockQueue+0x8e>
   126da:	003d      	movs	r5, r7
   126dc:	3510      	adds	r5, #16
   126de:	4e0d      	ldr	r6, [pc, #52]	; (12714 <prvUnlockQueue+0xa4>)
   126e0:	e006      	b.n	126f0 <prvUnlockQueue+0x80>
   126e2:	3c01      	subs	r4, #1
   126e4:	b264      	sxtb	r4, r4
   126e6:	2c00      	cmp	r4, #0
   126e8:	d009      	beq.n	126fe <prvUnlockQueue+0x8e>
   126ea:	693b      	ldr	r3, [r7, #16]
   126ec:	2b00      	cmp	r3, #0
   126ee:	d006      	beq.n	126fe <prvUnlockQueue+0x8e>
   126f0:	0028      	movs	r0, r5
   126f2:	47b0      	blx	r6
   126f4:	2800      	cmp	r0, #0
   126f6:	d0f4      	beq.n	126e2 <prvUnlockQueue+0x72>
   126f8:	4b07      	ldr	r3, [pc, #28]	; (12718 <prvUnlockQueue+0xa8>)
   126fa:	4798      	blx	r3
   126fc:	e7f1      	b.n	126e2 <prvUnlockQueue+0x72>
   126fe:	22ff      	movs	r2, #255	; 0xff
   12700:	2344      	movs	r3, #68	; 0x44
   12702:	54fa      	strb	r2, [r7, r3]
   12704:	4b05      	ldr	r3, [pc, #20]	; (1271c <prvUnlockQueue+0xac>)
   12706:	4798      	blx	r3
   12708:	bdf8      	pop	{r3, r4, r5, r6, r7, pc}
   1270a:	46c0      	nop			; (mov r8, r8)
   1270c:	00012401 	.word	0x00012401
   12710:	000125e1 	.word	0x000125e1
   12714:	000132cd 	.word	0x000132cd
   12718:	000133dd 	.word	0x000133dd
   1271c:	00012419 	.word	0x00012419

00012720 <xQueueGenericReset>:
   12720:	b570      	push	{r4, r5, r6, lr}
   12722:	0004      	movs	r4, r0
   12724:	000d      	movs	r5, r1
   12726:	2800      	cmp	r0, #0
   12728:	d021      	beq.n	1276e <xQueueGenericReset+0x4e>
   1272a:	4b17      	ldr	r3, [pc, #92]	; (12788 <xQueueGenericReset+0x68>)
   1272c:	4798      	blx	r3
   1272e:	6822      	ldr	r2, [r4, #0]
   12730:	6c21      	ldr	r1, [r4, #64]	; 0x40
   12732:	6be3      	ldr	r3, [r4, #60]	; 0x3c
   12734:	434b      	muls	r3, r1
   12736:	18d0      	adds	r0, r2, r3
   12738:	6060      	str	r0, [r4, #4]
   1273a:	2000      	movs	r0, #0
   1273c:	63a0      	str	r0, [r4, #56]	; 0x38
   1273e:	60a2      	str	r2, [r4, #8]
   12740:	1a5b      	subs	r3, r3, r1
   12742:	18d3      	adds	r3, r2, r3
   12744:	60e3      	str	r3, [r4, #12]
   12746:	23ff      	movs	r3, #255	; 0xff
   12748:	2244      	movs	r2, #68	; 0x44
   1274a:	54a3      	strb	r3, [r4, r2]
   1274c:	3201      	adds	r2, #1
   1274e:	54a3      	strb	r3, [r4, r2]
   12750:	2d00      	cmp	r5, #0
   12752:	d111      	bne.n	12778 <xQueueGenericReset+0x58>
   12754:	6923      	ldr	r3, [r4, #16]
   12756:	2b00      	cmp	r3, #0
   12758:	d005      	beq.n	12766 <xQueueGenericReset+0x46>
   1275a:	0020      	movs	r0, r4
   1275c:	3010      	adds	r0, #16
   1275e:	4b0b      	ldr	r3, [pc, #44]	; (1278c <xQueueGenericReset+0x6c>)
   12760:	4798      	blx	r3
   12762:	2800      	cmp	r0, #0
   12764:	d105      	bne.n	12772 <xQueueGenericReset+0x52>
   12766:	4b0a      	ldr	r3, [pc, #40]	; (12790 <xQueueGenericReset+0x70>)
   12768:	4798      	blx	r3
   1276a:	2001      	movs	r0, #1
   1276c:	bd70      	pop	{r4, r5, r6, pc}
   1276e:	b672      	cpsid	i
   12770:	e7fe      	b.n	12770 <xQueueGenericReset+0x50>
   12772:	4b08      	ldr	r3, [pc, #32]	; (12794 <xQueueGenericReset+0x74>)
   12774:	4798      	blx	r3
   12776:	e7f6      	b.n	12766 <xQueueGenericReset+0x46>
   12778:	0020      	movs	r0, r4
   1277a:	3010      	adds	r0, #16
   1277c:	4d06      	ldr	r5, [pc, #24]	; (12798 <xQueueGenericReset+0x78>)
   1277e:	47a8      	blx	r5
   12780:	0020      	movs	r0, r4
   12782:	3024      	adds	r0, #36	; 0x24
   12784:	47a8      	blx	r5
   12786:	e7ee      	b.n	12766 <xQueueGenericReset+0x46>
   12788:	00012401 	.word	0x00012401
   1278c:	000132cd 	.word	0x000132cd
   12790:	00012419 	.word	0x00012419
   12794:	000123f1 	.word	0x000123f1
   12798:	00012265 	.word	0x00012265

0001279c <xQueueGenericCreate>:
   1279c:	b570      	push	{r4, r5, r6, lr}
   1279e:	0006      	movs	r6, r0
   127a0:	000d      	movs	r5, r1
   127a2:	2800      	cmp	r0, #0
   127a4:	d101      	bne.n	127aa <xQueueGenericCreate+0xe>
   127a6:	b672      	cpsid	i
   127a8:	e7fe      	b.n	127a8 <xQueueGenericCreate+0xc>
   127aa:	0008      	movs	r0, r1
   127ac:	4370      	muls	r0, r6
   127ae:	304c      	adds	r0, #76	; 0x4c
   127b0:	4b0a      	ldr	r3, [pc, #40]	; (127dc <xQueueGenericCreate+0x40>)
   127b2:	4798      	blx	r3
   127b4:	1e04      	subs	r4, r0, #0
   127b6:	d00e      	beq.n	127d6 <xQueueGenericCreate+0x3a>
   127b8:	2d00      	cmp	r5, #0
   127ba:	d003      	beq.n	127c4 <xQueueGenericCreate+0x28>
   127bc:	0003      	movs	r3, r0
   127be:	334c      	adds	r3, #76	; 0x4c
   127c0:	6003      	str	r3, [r0, #0]
   127c2:	e000      	b.n	127c6 <xQueueGenericCreate+0x2a>
   127c4:	6020      	str	r0, [r4, #0]
   127c6:	63e6      	str	r6, [r4, #60]	; 0x3c
   127c8:	6425      	str	r5, [r4, #64]	; 0x40
   127ca:	2101      	movs	r1, #1
   127cc:	0020      	movs	r0, r4
   127ce:	4b04      	ldr	r3, [pc, #16]	; (127e0 <xQueueGenericCreate+0x44>)
   127d0:	4798      	blx	r3
   127d2:	2300      	movs	r3, #0
   127d4:	64a3      	str	r3, [r4, #72]	; 0x48
   127d6:	0020      	movs	r0, r4
   127d8:	bd70      	pop	{r4, r5, r6, pc}
   127da:	46c0      	nop			; (mov r8, r8)
   127dc:	000124c5 	.word	0x000124c5
   127e0:	00012721 	.word	0x00012721

000127e4 <xQueueGenericSend>:
   127e4:	b5f0      	push	{r4, r5, r6, r7, lr}
   127e6:	46ce      	mov	lr, r9
   127e8:	4647      	mov	r7, r8
   127ea:	b580      	push	{r7, lr}
   127ec:	b085      	sub	sp, #20
   127ee:	0004      	movs	r4, r0
   127f0:	000f      	movs	r7, r1
   127f2:	9201      	str	r2, [sp, #4]
   127f4:	001d      	movs	r5, r3
   127f6:	2800      	cmp	r0, #0
   127f8:	d00c      	beq.n	12814 <xQueueGenericSend+0x30>
   127fa:	2900      	cmp	r1, #0
   127fc:	d00c      	beq.n	12818 <xQueueGenericSend+0x34>
   127fe:	2d02      	cmp	r5, #2
   12800:	d00f      	beq.n	12822 <xQueueGenericSend+0x3e>
   12802:	4b4e      	ldr	r3, [pc, #312]	; (1293c <xQueueGenericSend+0x158>)
   12804:	4798      	blx	r3
   12806:	2800      	cmp	r0, #0
   12808:	d110      	bne.n	1282c <xQueueGenericSend+0x48>
   1280a:	9b01      	ldr	r3, [sp, #4]
   1280c:	2b00      	cmp	r3, #0
   1280e:	d011      	beq.n	12834 <xQueueGenericSend+0x50>
   12810:	b672      	cpsid	i
   12812:	e7fe      	b.n	12812 <xQueueGenericSend+0x2e>
   12814:	b672      	cpsid	i
   12816:	e7fe      	b.n	12816 <xQueueGenericSend+0x32>
   12818:	6c03      	ldr	r3, [r0, #64]	; 0x40
   1281a:	2b00      	cmp	r3, #0
   1281c:	d0ef      	beq.n	127fe <xQueueGenericSend+0x1a>
   1281e:	b672      	cpsid	i
   12820:	e7fe      	b.n	12820 <xQueueGenericSend+0x3c>
   12822:	6be3      	ldr	r3, [r4, #60]	; 0x3c
   12824:	2b01      	cmp	r3, #1
   12826:	d0ec      	beq.n	12802 <xQueueGenericSend+0x1e>
   12828:	b672      	cpsid	i
   1282a:	e7fe      	b.n	1282a <xQueueGenericSend+0x46>
   1282c:	2600      	movs	r6, #0
   1282e:	4b44      	ldr	r3, [pc, #272]	; (12940 <xQueueGenericSend+0x15c>)
   12830:	4698      	mov	r8, r3
   12832:	e04c      	b.n	128ce <xQueueGenericSend+0xea>
   12834:	2600      	movs	r6, #0
   12836:	e7fa      	b.n	1282e <xQueueGenericSend+0x4a>
   12838:	002a      	movs	r2, r5
   1283a:	0039      	movs	r1, r7
   1283c:	0020      	movs	r0, r4
   1283e:	4b41      	ldr	r3, [pc, #260]	; (12944 <xQueueGenericSend+0x160>)
   12840:	4798      	blx	r3
   12842:	6ca3      	ldr	r3, [r4, #72]	; 0x48
   12844:	2b00      	cmp	r3, #0
   12846:	d00f      	beq.n	12868 <xQueueGenericSend+0x84>
   12848:	0029      	movs	r1, r5
   1284a:	0020      	movs	r0, r4
   1284c:	4b3e      	ldr	r3, [pc, #248]	; (12948 <xQueueGenericSend+0x164>)
   1284e:	4798      	blx	r3
   12850:	2800      	cmp	r0, #0
   12852:	d001      	beq.n	12858 <xQueueGenericSend+0x74>
   12854:	4b3d      	ldr	r3, [pc, #244]	; (1294c <xQueueGenericSend+0x168>)
   12856:	4798      	blx	r3
   12858:	4b3d      	ldr	r3, [pc, #244]	; (12950 <xQueueGenericSend+0x16c>)
   1285a:	4798      	blx	r3
   1285c:	2001      	movs	r0, #1
   1285e:	b005      	add	sp, #20
   12860:	bc0c      	pop	{r2, r3}
   12862:	4690      	mov	r8, r2
   12864:	4699      	mov	r9, r3
   12866:	bdf0      	pop	{r4, r5, r6, r7, pc}
   12868:	6a63      	ldr	r3, [r4, #36]	; 0x24
   1286a:	2b00      	cmp	r3, #0
   1286c:	d008      	beq.n	12880 <xQueueGenericSend+0x9c>
   1286e:	0020      	movs	r0, r4
   12870:	3024      	adds	r0, #36	; 0x24
   12872:	4b38      	ldr	r3, [pc, #224]	; (12954 <xQueueGenericSend+0x170>)
   12874:	4798      	blx	r3
   12876:	2800      	cmp	r0, #0
   12878:	d0ee      	beq.n	12858 <xQueueGenericSend+0x74>
   1287a:	4b34      	ldr	r3, [pc, #208]	; (1294c <xQueueGenericSend+0x168>)
   1287c:	4798      	blx	r3
   1287e:	e7eb      	b.n	12858 <xQueueGenericSend+0x74>
   12880:	2800      	cmp	r0, #0
   12882:	d0e9      	beq.n	12858 <xQueueGenericSend+0x74>
   12884:	4b31      	ldr	r3, [pc, #196]	; (1294c <xQueueGenericSend+0x168>)
   12886:	4798      	blx	r3
   12888:	e7e6      	b.n	12858 <xQueueGenericSend+0x74>
   1288a:	4b31      	ldr	r3, [pc, #196]	; (12950 <xQueueGenericSend+0x16c>)
   1288c:	4798      	blx	r3
   1288e:	2000      	movs	r0, #0
   12890:	e7e5      	b.n	1285e <xQueueGenericSend+0x7a>
   12892:	4b2f      	ldr	r3, [pc, #188]	; (12950 <xQueueGenericSend+0x16c>)
   12894:	4798      	blx	r3
   12896:	a901      	add	r1, sp, #4
   12898:	a802      	add	r0, sp, #8
   1289a:	4b2f      	ldr	r3, [pc, #188]	; (12958 <xQueueGenericSend+0x174>)
   1289c:	4798      	blx	r3
   1289e:	2800      	cmp	r0, #0
   128a0:	d144      	bne.n	1292c <xQueueGenericSend+0x148>
   128a2:	4b27      	ldr	r3, [pc, #156]	; (12940 <xQueueGenericSend+0x15c>)
   128a4:	4798      	blx	r3
   128a6:	6ba3      	ldr	r3, [r4, #56]	; 0x38
   128a8:	4699      	mov	r9, r3
   128aa:	6be6      	ldr	r6, [r4, #60]	; 0x3c
   128ac:	4b28      	ldr	r3, [pc, #160]	; (12950 <xQueueGenericSend+0x16c>)
   128ae:	4798      	blx	r3
   128b0:	45b1      	cmp	r9, r6
   128b2:	d135      	bne.n	12920 <xQueueGenericSend+0x13c>
   128b4:	0020      	movs	r0, r4
   128b6:	3010      	adds	r0, #16
   128b8:	9901      	ldr	r1, [sp, #4]
   128ba:	4b28      	ldr	r3, [pc, #160]	; (1295c <xQueueGenericSend+0x178>)
   128bc:	4798      	blx	r3
   128be:	0020      	movs	r0, r4
   128c0:	4b27      	ldr	r3, [pc, #156]	; (12960 <xQueueGenericSend+0x17c>)
   128c2:	4798      	blx	r3
   128c4:	4b27      	ldr	r3, [pc, #156]	; (12964 <xQueueGenericSend+0x180>)
   128c6:	4798      	blx	r3
   128c8:	2800      	cmp	r0, #0
   128ca:	d026      	beq.n	1291a <xQueueGenericSend+0x136>
   128cc:	2601      	movs	r6, #1
   128ce:	47c0      	blx	r8
   128d0:	6ba3      	ldr	r3, [r4, #56]	; 0x38
   128d2:	6be2      	ldr	r2, [r4, #60]	; 0x3c
   128d4:	4293      	cmp	r3, r2
   128d6:	d3af      	bcc.n	12838 <xQueueGenericSend+0x54>
   128d8:	2d02      	cmp	r5, #2
   128da:	d0ad      	beq.n	12838 <xQueueGenericSend+0x54>
   128dc:	9b01      	ldr	r3, [sp, #4]
   128de:	2b00      	cmp	r3, #0
   128e0:	d0d3      	beq.n	1288a <xQueueGenericSend+0xa6>
   128e2:	2e00      	cmp	r6, #0
   128e4:	d102      	bne.n	128ec <xQueueGenericSend+0x108>
   128e6:	a802      	add	r0, sp, #8
   128e8:	4b1f      	ldr	r3, [pc, #124]	; (12968 <xQueueGenericSend+0x184>)
   128ea:	4798      	blx	r3
   128ec:	4b18      	ldr	r3, [pc, #96]	; (12950 <xQueueGenericSend+0x16c>)
   128ee:	4798      	blx	r3
   128f0:	4b1e      	ldr	r3, [pc, #120]	; (1296c <xQueueGenericSend+0x188>)
   128f2:	4798      	blx	r3
   128f4:	4b12      	ldr	r3, [pc, #72]	; (12940 <xQueueGenericSend+0x15c>)
   128f6:	4798      	blx	r3
   128f8:	2344      	movs	r3, #68	; 0x44
   128fa:	5ce3      	ldrb	r3, [r4, r3]
   128fc:	b25b      	sxtb	r3, r3
   128fe:	3301      	adds	r3, #1
   12900:	d102      	bne.n	12908 <xQueueGenericSend+0x124>
   12902:	2200      	movs	r2, #0
   12904:	2344      	movs	r3, #68	; 0x44
   12906:	54e2      	strb	r2, [r4, r3]
   12908:	2345      	movs	r3, #69	; 0x45
   1290a:	5ce3      	ldrb	r3, [r4, r3]
   1290c:	b25b      	sxtb	r3, r3
   1290e:	3301      	adds	r3, #1
   12910:	d1bf      	bne.n	12892 <xQueueGenericSend+0xae>
   12912:	2200      	movs	r2, #0
   12914:	2345      	movs	r3, #69	; 0x45
   12916:	54e2      	strb	r2, [r4, r3]
   12918:	e7bb      	b.n	12892 <xQueueGenericSend+0xae>
   1291a:	4b0c      	ldr	r3, [pc, #48]	; (1294c <xQueueGenericSend+0x168>)
   1291c:	4798      	blx	r3
   1291e:	e7d5      	b.n	128cc <xQueueGenericSend+0xe8>
   12920:	0020      	movs	r0, r4
   12922:	4b0f      	ldr	r3, [pc, #60]	; (12960 <xQueueGenericSend+0x17c>)
   12924:	4798      	blx	r3
   12926:	4b0f      	ldr	r3, [pc, #60]	; (12964 <xQueueGenericSend+0x180>)
   12928:	4798      	blx	r3
   1292a:	e7cf      	b.n	128cc <xQueueGenericSend+0xe8>
   1292c:	0020      	movs	r0, r4
   1292e:	4b0c      	ldr	r3, [pc, #48]	; (12960 <xQueueGenericSend+0x17c>)
   12930:	4798      	blx	r3
   12932:	4b0c      	ldr	r3, [pc, #48]	; (12964 <xQueueGenericSend+0x180>)
   12934:	4798      	blx	r3
   12936:	2000      	movs	r0, #0
   12938:	e791      	b.n	1285e <xQueueGenericSend+0x7a>
   1293a:	46c0      	nop			; (mov r8, r8)
   1293c:	000133e9 	.word	0x000133e9
   12940:	00012401 	.word	0x00012401
   12944:	00012565 	.word	0x00012565
   12948:	000125e1 	.word	0x000125e1
   1294c:	000123f1 	.word	0x000123f1
   12950:	00012419 	.word	0x00012419
   12954:	000132cd 	.word	0x000132cd
   12958:	0001336d 	.word	0x0001336d
   1295c:	00013269 	.word	0x00013269
   12960:	00012671 	.word	0x00012671
   12964:	000130ad 	.word	0x000130ad
   12968:	00013355 	.word	0x00013355
   1296c:	00012f71 	.word	0x00012f71

00012970 <xQueueGenericSendFromISR>:
   12970:	b5f0      	push	{r4, r5, r6, r7, lr}
   12972:	b083      	sub	sp, #12
   12974:	0004      	movs	r4, r0
   12976:	9101      	str	r1, [sp, #4]
   12978:	0016      	movs	r6, r2
   1297a:	001d      	movs	r5, r3
   1297c:	2800      	cmp	r0, #0
   1297e:	d012      	beq.n	129a6 <xQueueGenericSendFromISR+0x36>
   12980:	9b01      	ldr	r3, [sp, #4]
   12982:	2b00      	cmp	r3, #0
   12984:	d011      	beq.n	129aa <xQueueGenericSendFromISR+0x3a>
   12986:	2d02      	cmp	r5, #2
   12988:	d014      	beq.n	129b4 <xQueueGenericSendFromISR+0x44>
   1298a:	4b28      	ldr	r3, [pc, #160]	; (12a2c <xQueueGenericSendFromISR+0xbc>)
   1298c:	4798      	blx	r3
   1298e:	9000      	str	r0, [sp, #0]
   12990:	6ba3      	ldr	r3, [r4, #56]	; 0x38
   12992:	6be2      	ldr	r2, [r4, #60]	; 0x3c
   12994:	429a      	cmp	r2, r3
   12996:	d82f      	bhi.n	129f8 <xQueueGenericSendFromISR+0x88>
   12998:	2500      	movs	r5, #0
   1299a:	9800      	ldr	r0, [sp, #0]
   1299c:	4b24      	ldr	r3, [pc, #144]	; (12a30 <xQueueGenericSendFromISR+0xc0>)
   1299e:	4798      	blx	r3
   129a0:	0028      	movs	r0, r5
   129a2:	b003      	add	sp, #12
   129a4:	bdf0      	pop	{r4, r5, r6, r7, pc}
   129a6:	b672      	cpsid	i
   129a8:	e7fe      	b.n	129a8 <xQueueGenericSendFromISR+0x38>
   129aa:	6c03      	ldr	r3, [r0, #64]	; 0x40
   129ac:	2b00      	cmp	r3, #0
   129ae:	d0ea      	beq.n	12986 <xQueueGenericSendFromISR+0x16>
   129b0:	b672      	cpsid	i
   129b2:	e7fe      	b.n	129b2 <xQueueGenericSendFromISR+0x42>
   129b4:	6be3      	ldr	r3, [r4, #60]	; 0x3c
   129b6:	2b01      	cmp	r3, #1
   129b8:	d01a      	beq.n	129f0 <xQueueGenericSendFromISR+0x80>
   129ba:	b672      	cpsid	i
   129bc:	e7fe      	b.n	129bc <xQueueGenericSendFromISR+0x4c>
   129be:	6a63      	ldr	r3, [r4, #36]	; 0x24
   129c0:	2501      	movs	r5, #1
   129c2:	2b00      	cmp	r3, #0
   129c4:	d0e9      	beq.n	1299a <xQueueGenericSendFromISR+0x2a>
   129c6:	0020      	movs	r0, r4
   129c8:	3024      	adds	r0, #36	; 0x24
   129ca:	4b1a      	ldr	r3, [pc, #104]	; (12a34 <xQueueGenericSendFromISR+0xc4>)
   129cc:	4798      	blx	r3
   129ce:	2800      	cmp	r0, #0
   129d0:	d0e3      	beq.n	1299a <xQueueGenericSendFromISR+0x2a>
   129d2:	2e00      	cmp	r6, #0
   129d4:	d00a      	beq.n	129ec <xQueueGenericSendFromISR+0x7c>
   129d6:	2301      	movs	r3, #1
   129d8:	6033      	str	r3, [r6, #0]
   129da:	e7de      	b.n	1299a <xQueueGenericSendFromISR+0x2a>
   129dc:	1c7b      	adds	r3, r7, #1
   129de:	b25b      	sxtb	r3, r3
   129e0:	2245      	movs	r2, #69	; 0x45
   129e2:	54a3      	strb	r3, [r4, r2]
   129e4:	2501      	movs	r5, #1
   129e6:	e7d8      	b.n	1299a <xQueueGenericSendFromISR+0x2a>
   129e8:	2501      	movs	r5, #1
   129ea:	e7d6      	b.n	1299a <xQueueGenericSendFromISR+0x2a>
   129ec:	2501      	movs	r5, #1
   129ee:	e7d4      	b.n	1299a <xQueueGenericSendFromISR+0x2a>
   129f0:	4b0e      	ldr	r3, [pc, #56]	; (12a2c <xQueueGenericSendFromISR+0xbc>)
   129f2:	4798      	blx	r3
   129f4:	9000      	str	r0, [sp, #0]
   129f6:	6ba3      	ldr	r3, [r4, #56]	; 0x38
   129f8:	2345      	movs	r3, #69	; 0x45
   129fa:	5ce7      	ldrb	r7, [r4, r3]
   129fc:	b27f      	sxtb	r7, r7
   129fe:	002a      	movs	r2, r5
   12a00:	9901      	ldr	r1, [sp, #4]
   12a02:	0020      	movs	r0, r4
   12a04:	4b0c      	ldr	r3, [pc, #48]	; (12a38 <xQueueGenericSendFromISR+0xc8>)
   12a06:	4798      	blx	r3
   12a08:	1c7b      	adds	r3, r7, #1
   12a0a:	d1e7      	bne.n	129dc <xQueueGenericSendFromISR+0x6c>
   12a0c:	6ca3      	ldr	r3, [r4, #72]	; 0x48
   12a0e:	2b00      	cmp	r3, #0
   12a10:	d0d5      	beq.n	129be <xQueueGenericSendFromISR+0x4e>
   12a12:	0029      	movs	r1, r5
   12a14:	0020      	movs	r0, r4
   12a16:	4b09      	ldr	r3, [pc, #36]	; (12a3c <xQueueGenericSendFromISR+0xcc>)
   12a18:	4798      	blx	r3
   12a1a:	2501      	movs	r5, #1
   12a1c:	2800      	cmp	r0, #0
   12a1e:	d0bc      	beq.n	1299a <xQueueGenericSendFromISR+0x2a>
   12a20:	2e00      	cmp	r6, #0
   12a22:	d0e1      	beq.n	129e8 <xQueueGenericSendFromISR+0x78>
   12a24:	2301      	movs	r3, #1
   12a26:	6033      	str	r3, [r6, #0]
   12a28:	e7b7      	b.n	1299a <xQueueGenericSendFromISR+0x2a>
   12a2a:	46c0      	nop			; (mov r8, r8)
   12a2c:	00012439 	.word	0x00012439
   12a30:	00012441 	.word	0x00012441
   12a34:	000132cd 	.word	0x000132cd
   12a38:	00012565 	.word	0x00012565
   12a3c:	000125e1 	.word	0x000125e1

00012a40 <xQueueReceive>:
   12a40:	b5f0      	push	{r4, r5, r6, r7, lr}
   12a42:	46c6      	mov	lr, r8
   12a44:	b500      	push	{lr}
   12a46:	b084      	sub	sp, #16
   12a48:	0004      	movs	r4, r0
   12a4a:	000f      	movs	r7, r1
   12a4c:	9201      	str	r2, [sp, #4]
   12a4e:	2800      	cmp	r0, #0
   12a50:	d00a      	beq.n	12a68 <xQueueReceive+0x28>
   12a52:	2900      	cmp	r1, #0
   12a54:	d00a      	beq.n	12a6c <xQueueReceive+0x2c>
   12a56:	4b42      	ldr	r3, [pc, #264]	; (12b60 <xQueueReceive+0x120>)
   12a58:	4798      	blx	r3
   12a5a:	2800      	cmp	r0, #0
   12a5c:	d10b      	bne.n	12a76 <xQueueReceive+0x36>
   12a5e:	9b01      	ldr	r3, [sp, #4]
   12a60:	2b00      	cmp	r3, #0
   12a62:	d00c      	beq.n	12a7e <xQueueReceive+0x3e>
   12a64:	b672      	cpsid	i
   12a66:	e7fe      	b.n	12a66 <xQueueReceive+0x26>
   12a68:	b672      	cpsid	i
   12a6a:	e7fe      	b.n	12a6a <xQueueReceive+0x2a>
   12a6c:	6c03      	ldr	r3, [r0, #64]	; 0x40
   12a6e:	2b00      	cmp	r3, #0
   12a70:	d0f1      	beq.n	12a56 <xQueueReceive+0x16>
   12a72:	b672      	cpsid	i
   12a74:	e7fe      	b.n	12a74 <xQueueReceive+0x34>
   12a76:	2600      	movs	r6, #0
   12a78:	4b3a      	ldr	r3, [pc, #232]	; (12b64 <xQueueReceive+0x124>)
   12a7a:	4698      	mov	r8, r3
   12a7c:	e02f      	b.n	12ade <xQueueReceive+0x9e>
   12a7e:	2600      	movs	r6, #0
   12a80:	e7fa      	b.n	12a78 <xQueueReceive+0x38>
   12a82:	0039      	movs	r1, r7
   12a84:	0020      	movs	r0, r4
   12a86:	4b38      	ldr	r3, [pc, #224]	; (12b68 <xQueueReceive+0x128>)
   12a88:	4798      	blx	r3
   12a8a:	3d01      	subs	r5, #1
   12a8c:	63a5      	str	r5, [r4, #56]	; 0x38
   12a8e:	6923      	ldr	r3, [r4, #16]
   12a90:	2b00      	cmp	r3, #0
   12a92:	d007      	beq.n	12aa4 <xQueueReceive+0x64>
   12a94:	0020      	movs	r0, r4
   12a96:	3010      	adds	r0, #16
   12a98:	4b34      	ldr	r3, [pc, #208]	; (12b6c <xQueueReceive+0x12c>)
   12a9a:	4798      	blx	r3
   12a9c:	2800      	cmp	r0, #0
   12a9e:	d001      	beq.n	12aa4 <xQueueReceive+0x64>
   12aa0:	4b33      	ldr	r3, [pc, #204]	; (12b70 <xQueueReceive+0x130>)
   12aa2:	4798      	blx	r3
   12aa4:	4b33      	ldr	r3, [pc, #204]	; (12b74 <xQueueReceive+0x134>)
   12aa6:	4798      	blx	r3
   12aa8:	2001      	movs	r0, #1
   12aaa:	b004      	add	sp, #16
   12aac:	bc04      	pop	{r2}
   12aae:	4690      	mov	r8, r2
   12ab0:	bdf0      	pop	{r4, r5, r6, r7, pc}
   12ab2:	4b30      	ldr	r3, [pc, #192]	; (12b74 <xQueueReceive+0x134>)
   12ab4:	4798      	blx	r3
   12ab6:	2000      	movs	r0, #0
   12ab8:	e7f7      	b.n	12aaa <xQueueReceive+0x6a>
   12aba:	a802      	add	r0, sp, #8
   12abc:	4b2e      	ldr	r3, [pc, #184]	; (12b78 <xQueueReceive+0x138>)
   12abe:	4798      	blx	r3
   12ac0:	e016      	b.n	12af0 <xQueueReceive+0xb0>
   12ac2:	2200      	movs	r2, #0
   12ac4:	2344      	movs	r3, #68	; 0x44
   12ac6:	54e2      	strb	r2, [r4, r3]
   12ac8:	e01d      	b.n	12b06 <xQueueReceive+0xc6>
   12aca:	2200      	movs	r2, #0
   12acc:	2345      	movs	r3, #69	; 0x45
   12ace:	54e2      	strb	r2, [r4, r3]
   12ad0:	e01e      	b.n	12b10 <xQueueReceive+0xd0>
   12ad2:	0020      	movs	r0, r4
   12ad4:	4b29      	ldr	r3, [pc, #164]	; (12b7c <xQueueReceive+0x13c>)
   12ad6:	4798      	blx	r3
   12ad8:	4b29      	ldr	r3, [pc, #164]	; (12b80 <xQueueReceive+0x140>)
   12ada:	4798      	blx	r3
   12adc:	2601      	movs	r6, #1
   12ade:	47c0      	blx	r8
   12ae0:	6ba5      	ldr	r5, [r4, #56]	; 0x38
   12ae2:	2d00      	cmp	r5, #0
   12ae4:	d1cd      	bne.n	12a82 <xQueueReceive+0x42>
   12ae6:	9b01      	ldr	r3, [sp, #4]
   12ae8:	2b00      	cmp	r3, #0
   12aea:	d0e2      	beq.n	12ab2 <xQueueReceive+0x72>
   12aec:	2e00      	cmp	r6, #0
   12aee:	d0e4      	beq.n	12aba <xQueueReceive+0x7a>
   12af0:	4b20      	ldr	r3, [pc, #128]	; (12b74 <xQueueReceive+0x134>)
   12af2:	4798      	blx	r3
   12af4:	4b23      	ldr	r3, [pc, #140]	; (12b84 <xQueueReceive+0x144>)
   12af6:	4798      	blx	r3
   12af8:	4b1a      	ldr	r3, [pc, #104]	; (12b64 <xQueueReceive+0x124>)
   12afa:	4798      	blx	r3
   12afc:	2344      	movs	r3, #68	; 0x44
   12afe:	5ce3      	ldrb	r3, [r4, r3]
   12b00:	b25b      	sxtb	r3, r3
   12b02:	3301      	adds	r3, #1
   12b04:	d0dd      	beq.n	12ac2 <xQueueReceive+0x82>
   12b06:	2345      	movs	r3, #69	; 0x45
   12b08:	5ce3      	ldrb	r3, [r4, r3]
   12b0a:	b25b      	sxtb	r3, r3
   12b0c:	3301      	adds	r3, #1
   12b0e:	d0dc      	beq.n	12aca <xQueueReceive+0x8a>
   12b10:	4b18      	ldr	r3, [pc, #96]	; (12b74 <xQueueReceive+0x134>)
   12b12:	4798      	blx	r3
   12b14:	a901      	add	r1, sp, #4
   12b16:	a802      	add	r0, sp, #8
   12b18:	4b1b      	ldr	r3, [pc, #108]	; (12b88 <xQueueReceive+0x148>)
   12b1a:	4798      	blx	r3
   12b1c:	2800      	cmp	r0, #0
   12b1e:	d113      	bne.n	12b48 <xQueueReceive+0x108>
   12b20:	0020      	movs	r0, r4
   12b22:	4b1a      	ldr	r3, [pc, #104]	; (12b8c <xQueueReceive+0x14c>)
   12b24:	4798      	blx	r3
   12b26:	2800      	cmp	r0, #0
   12b28:	d0d3      	beq.n	12ad2 <xQueueReceive+0x92>
   12b2a:	0020      	movs	r0, r4
   12b2c:	3024      	adds	r0, #36	; 0x24
   12b2e:	9901      	ldr	r1, [sp, #4]
   12b30:	4b17      	ldr	r3, [pc, #92]	; (12b90 <xQueueReceive+0x150>)
   12b32:	4798      	blx	r3
   12b34:	0020      	movs	r0, r4
   12b36:	4b11      	ldr	r3, [pc, #68]	; (12b7c <xQueueReceive+0x13c>)
   12b38:	4798      	blx	r3
   12b3a:	4b11      	ldr	r3, [pc, #68]	; (12b80 <xQueueReceive+0x140>)
   12b3c:	4798      	blx	r3
   12b3e:	2800      	cmp	r0, #0
   12b40:	d1cc      	bne.n	12adc <xQueueReceive+0x9c>
   12b42:	4b0b      	ldr	r3, [pc, #44]	; (12b70 <xQueueReceive+0x130>)
   12b44:	4798      	blx	r3
   12b46:	e7c9      	b.n	12adc <xQueueReceive+0x9c>
   12b48:	0020      	movs	r0, r4
   12b4a:	4b0c      	ldr	r3, [pc, #48]	; (12b7c <xQueueReceive+0x13c>)
   12b4c:	4798      	blx	r3
   12b4e:	4b0c      	ldr	r3, [pc, #48]	; (12b80 <xQueueReceive+0x140>)
   12b50:	4798      	blx	r3
   12b52:	0020      	movs	r0, r4
   12b54:	4b0d      	ldr	r3, [pc, #52]	; (12b8c <xQueueReceive+0x14c>)
   12b56:	4798      	blx	r3
   12b58:	2800      	cmp	r0, #0
   12b5a:	d0bf      	beq.n	12adc <xQueueReceive+0x9c>
   12b5c:	2000      	movs	r0, #0
   12b5e:	e7a4      	b.n	12aaa <xQueueReceive+0x6a>
   12b60:	000133e9 	.word	0x000133e9
   12b64:	00012401 	.word	0x00012401
   12b68:	00012649 	.word	0x00012649
   12b6c:	000132cd 	.word	0x000132cd
   12b70:	000123f1 	.word	0x000123f1
   12b74:	00012419 	.word	0x00012419
   12b78:	00013355 	.word	0x00013355
   12b7c:	00012671 	.word	0x00012671
   12b80:	000130ad 	.word	0x000130ad
   12b84:	00012f71 	.word	0x00012f71
   12b88:	0001336d 	.word	0x0001336d
   12b8c:	00012549 	.word	0x00012549
   12b90:	00013269 	.word	0x00013269

00012b94 <vQueueWaitForMessageRestricted>:
   12b94:	b570      	push	{r4, r5, r6, lr}
   12b96:	0004      	movs	r4, r0
   12b98:	000d      	movs	r5, r1
   12b9a:	0016      	movs	r6, r2
   12b9c:	4b11      	ldr	r3, [pc, #68]	; (12be4 <vQueueWaitForMessageRestricted+0x50>)
   12b9e:	4798      	blx	r3
   12ba0:	2344      	movs	r3, #68	; 0x44
   12ba2:	5ce3      	ldrb	r3, [r4, r3]
   12ba4:	b25b      	sxtb	r3, r3
   12ba6:	3301      	adds	r3, #1
   12ba8:	d00d      	beq.n	12bc6 <vQueueWaitForMessageRestricted+0x32>
   12baa:	2345      	movs	r3, #69	; 0x45
   12bac:	5ce3      	ldrb	r3, [r4, r3]
   12bae:	b25b      	sxtb	r3, r3
   12bb0:	3301      	adds	r3, #1
   12bb2:	d00c      	beq.n	12bce <vQueueWaitForMessageRestricted+0x3a>
   12bb4:	4b0c      	ldr	r3, [pc, #48]	; (12be8 <vQueueWaitForMessageRestricted+0x54>)
   12bb6:	4798      	blx	r3
   12bb8:	6ba3      	ldr	r3, [r4, #56]	; 0x38
   12bba:	2b00      	cmp	r3, #0
   12bbc:	d00b      	beq.n	12bd6 <vQueueWaitForMessageRestricted+0x42>
   12bbe:	0020      	movs	r0, r4
   12bc0:	4b0a      	ldr	r3, [pc, #40]	; (12bec <vQueueWaitForMessageRestricted+0x58>)
   12bc2:	4798      	blx	r3
   12bc4:	bd70      	pop	{r4, r5, r6, pc}
   12bc6:	2200      	movs	r2, #0
   12bc8:	2344      	movs	r3, #68	; 0x44
   12bca:	54e2      	strb	r2, [r4, r3]
   12bcc:	e7ed      	b.n	12baa <vQueueWaitForMessageRestricted+0x16>
   12bce:	2200      	movs	r2, #0
   12bd0:	2345      	movs	r3, #69	; 0x45
   12bd2:	54e2      	strb	r2, [r4, r3]
   12bd4:	e7ee      	b.n	12bb4 <vQueueWaitForMessageRestricted+0x20>
   12bd6:	0020      	movs	r0, r4
   12bd8:	3024      	adds	r0, #36	; 0x24
   12bda:	0032      	movs	r2, r6
   12bdc:	0029      	movs	r1, r5
   12bde:	4b04      	ldr	r3, [pc, #16]	; (12bf0 <vQueueWaitForMessageRestricted+0x5c>)
   12be0:	4798      	blx	r3
   12be2:	e7ec      	b.n	12bbe <vQueueWaitForMessageRestricted+0x2a>
   12be4:	00012401 	.word	0x00012401
   12be8:	00012419 	.word	0x00012419
   12bec:	00012671 	.word	0x00012671
   12bf0:	00013295 	.word	0x00013295

00012bf4 <prvResetNextTaskUnblockTime>:
   12bf4:	4b08      	ldr	r3, [pc, #32]	; (12c18 <prvResetNextTaskUnblockTime+0x24>)
   12bf6:	681b      	ldr	r3, [r3, #0]
   12bf8:	681b      	ldr	r3, [r3, #0]
   12bfa:	2b00      	cmp	r3, #0
   12bfc:	d007      	beq.n	12c0e <prvResetNextTaskUnblockTime+0x1a>
   12bfe:	4b06      	ldr	r3, [pc, #24]	; (12c18 <prvResetNextTaskUnblockTime+0x24>)
   12c00:	681b      	ldr	r3, [r3, #0]
   12c02:	68db      	ldr	r3, [r3, #12]
   12c04:	68db      	ldr	r3, [r3, #12]
   12c06:	685a      	ldr	r2, [r3, #4]
   12c08:	4b04      	ldr	r3, [pc, #16]	; (12c1c <prvResetNextTaskUnblockTime+0x28>)
   12c0a:	601a      	str	r2, [r3, #0]
   12c0c:	4770      	bx	lr
   12c0e:	2201      	movs	r2, #1
   12c10:	4252      	negs	r2, r2
   12c12:	4b02      	ldr	r3, [pc, #8]	; (12c1c <prvResetNextTaskUnblockTime+0x28>)
   12c14:	601a      	str	r2, [r3, #0]
   12c16:	e7f9      	b.n	12c0c <prvResetNextTaskUnblockTime+0x18>
   12c18:	200029e0 	.word	0x200029e0
   12c1c:	20002a90 	.word	0x20002a90

00012c20 <prvIdleTask>:
   12c20:	b5f0      	push	{r4, r5, r6, r7, lr}
   12c22:	46d6      	mov	lr, sl
   12c24:	464f      	mov	r7, r9
   12c26:	4646      	mov	r6, r8
   12c28:	b5c0      	push	{r6, r7, lr}
   12c2a:	4b14      	ldr	r3, [pc, #80]	; (12c7c <prvIdleTask+0x5c>)
   12c2c:	4699      	mov	r9, r3
   12c2e:	4b14      	ldr	r3, [pc, #80]	; (12c80 <prvIdleTask+0x60>)
   12c30:	4698      	mov	r8, r3
   12c32:	4f14      	ldr	r7, [pc, #80]	; (12c84 <prvIdleTask+0x64>)
   12c34:	4b14      	ldr	r3, [pc, #80]	; (12c88 <prvIdleTask+0x68>)
   12c36:	469a      	mov	sl, r3
   12c38:	464b      	mov	r3, r9
   12c3a:	681b      	ldr	r3, [r3, #0]
   12c3c:	2b00      	cmp	r3, #0
   12c3e:	d016      	beq.n	12c6e <prvIdleTask+0x4e>
   12c40:	47c0      	blx	r8
   12c42:	68fb      	ldr	r3, [r7, #12]
   12c44:	68dd      	ldr	r5, [r3, #12]
   12c46:	1d28      	adds	r0, r5, #4
   12c48:	47d0      	blx	sl
   12c4a:	4a10      	ldr	r2, [pc, #64]	; (12c8c <prvIdleTask+0x6c>)
   12c4c:	6813      	ldr	r3, [r2, #0]
   12c4e:	3b01      	subs	r3, #1
   12c50:	6013      	str	r3, [r2, #0]
   12c52:	4c0a      	ldr	r4, [pc, #40]	; (12c7c <prvIdleTask+0x5c>)
   12c54:	6823      	ldr	r3, [r4, #0]
   12c56:	3b01      	subs	r3, #1
   12c58:	6023      	str	r3, [r4, #0]
   12c5a:	4b0d      	ldr	r3, [pc, #52]	; (12c90 <prvIdleTask+0x70>)
   12c5c:	4798      	blx	r3
   12c5e:	6b28      	ldr	r0, [r5, #48]	; 0x30
   12c60:	4e0c      	ldr	r6, [pc, #48]	; (12c94 <prvIdleTask+0x74>)
   12c62:	47b0      	blx	r6
   12c64:	0028      	movs	r0, r5
   12c66:	47b0      	blx	r6
   12c68:	6823      	ldr	r3, [r4, #0]
   12c6a:	2b00      	cmp	r3, #0
   12c6c:	d1e8      	bne.n	12c40 <prvIdleTask+0x20>
   12c6e:	4b0a      	ldr	r3, [pc, #40]	; (12c98 <prvIdleTask+0x78>)
   12c70:	681b      	ldr	r3, [r3, #0]
   12c72:	2b01      	cmp	r3, #1
   12c74:	d9e0      	bls.n	12c38 <prvIdleTask+0x18>
   12c76:	4b09      	ldr	r3, [pc, #36]	; (12c9c <prvIdleTask+0x7c>)
   12c78:	4798      	blx	r3
   12c7a:	e7dd      	b.n	12c38 <prvIdleTask+0x18>
   12c7c:	20002a50 	.word	0x20002a50
   12c80:	00012401 	.word	0x00012401
   12c84:	20002ac4 	.word	0x20002ac4
   12c88:	000122c7 	.word	0x000122c7
   12c8c:	20002a4c 	.word	0x20002a4c
   12c90:	00012419 	.word	0x00012419
   12c94:	0001253d 	.word	0x0001253d
   12c98:	200029e8 	.word	0x200029e8
   12c9c:	000123f1 	.word	0x000123f1

00012ca0 <prvAddCurrentTaskToDelayedList>:
   12ca0:	b570      	push	{r4, r5, r6, lr}
   12ca2:	0004      	movs	r4, r0
   12ca4:	000d      	movs	r5, r1
   12ca6:	4b17      	ldr	r3, [pc, #92]	; (12d04 <prvAddCurrentTaskToDelayedList+0x64>)
   12ca8:	681e      	ldr	r6, [r3, #0]
   12caa:	4b17      	ldr	r3, [pc, #92]	; (12d08 <prvAddCurrentTaskToDelayedList+0x68>)
   12cac:	6818      	ldr	r0, [r3, #0]
   12cae:	3004      	adds	r0, #4
   12cb0:	4b16      	ldr	r3, [pc, #88]	; (12d0c <prvAddCurrentTaskToDelayedList+0x6c>)
   12cb2:	4798      	blx	r3
   12cb4:	1c63      	adds	r3, r4, #1
   12cb6:	d013      	beq.n	12ce0 <prvAddCurrentTaskToDelayedList+0x40>
   12cb8:	1934      	adds	r4, r6, r4
   12cba:	4b13      	ldr	r3, [pc, #76]	; (12d08 <prvAddCurrentTaskToDelayedList+0x68>)
   12cbc:	681b      	ldr	r3, [r3, #0]
   12cbe:	605c      	str	r4, [r3, #4]
   12cc0:	42a6      	cmp	r6, r4
   12cc2:	d816      	bhi.n	12cf2 <prvAddCurrentTaskToDelayedList+0x52>
   12cc4:	4b12      	ldr	r3, [pc, #72]	; (12d10 <prvAddCurrentTaskToDelayedList+0x70>)
   12cc6:	6818      	ldr	r0, [r3, #0]
   12cc8:	4b0f      	ldr	r3, [pc, #60]	; (12d08 <prvAddCurrentTaskToDelayedList+0x68>)
   12cca:	6819      	ldr	r1, [r3, #0]
   12ccc:	3104      	adds	r1, #4
   12cce:	4b11      	ldr	r3, [pc, #68]	; (12d14 <prvAddCurrentTaskToDelayedList+0x74>)
   12cd0:	4798      	blx	r3
   12cd2:	4b11      	ldr	r3, [pc, #68]	; (12d18 <prvAddCurrentTaskToDelayedList+0x78>)
   12cd4:	681b      	ldr	r3, [r3, #0]
   12cd6:	429c      	cmp	r4, r3
   12cd8:	d212      	bcs.n	12d00 <prvAddCurrentTaskToDelayedList+0x60>
   12cda:	4b0f      	ldr	r3, [pc, #60]	; (12d18 <prvAddCurrentTaskToDelayedList+0x78>)
   12cdc:	601c      	str	r4, [r3, #0]
   12cde:	e00f      	b.n	12d00 <prvAddCurrentTaskToDelayedList+0x60>
   12ce0:	2d00      	cmp	r5, #0
   12ce2:	d0e9      	beq.n	12cb8 <prvAddCurrentTaskToDelayedList+0x18>
   12ce4:	4b08      	ldr	r3, [pc, #32]	; (12d08 <prvAddCurrentTaskToDelayedList+0x68>)
   12ce6:	6819      	ldr	r1, [r3, #0]
   12ce8:	3104      	adds	r1, #4
   12cea:	480c      	ldr	r0, [pc, #48]	; (12d1c <prvAddCurrentTaskToDelayedList+0x7c>)
   12cec:	4b0c      	ldr	r3, [pc, #48]	; (12d20 <prvAddCurrentTaskToDelayedList+0x80>)
   12cee:	4798      	blx	r3
   12cf0:	e006      	b.n	12d00 <prvAddCurrentTaskToDelayedList+0x60>
   12cf2:	4b0c      	ldr	r3, [pc, #48]	; (12d24 <prvAddCurrentTaskToDelayedList+0x84>)
   12cf4:	6818      	ldr	r0, [r3, #0]
   12cf6:	4b04      	ldr	r3, [pc, #16]	; (12d08 <prvAddCurrentTaskToDelayedList+0x68>)
   12cf8:	6819      	ldr	r1, [r3, #0]
   12cfa:	3104      	adds	r1, #4
   12cfc:	4b05      	ldr	r3, [pc, #20]	; (12d14 <prvAddCurrentTaskToDelayedList+0x74>)
   12cfe:	4798      	blx	r3
   12d00:	bd70      	pop	{r4, r5, r6, pc}
   12d02:	46c0      	nop			; (mov r8, r8)
   12d04:	20002ad8 	.word	0x20002ad8
   12d08:	200029dc 	.word	0x200029dc
   12d0c:	000122c7 	.word	0x000122c7
   12d10:	200029e0 	.word	0x200029e0
   12d14:	00012299 	.word	0x00012299
   12d18:	20002a90 	.word	0x20002a90
   12d1c:	20002ab0 	.word	0x20002ab0
   12d20:	00012281 	.word	0x00012281
   12d24:	200029e4 	.word	0x200029e4

00012d28 <xTaskCreate>:
   12d28:	b5f0      	push	{r4, r5, r6, r7, lr}
   12d2a:	46c6      	mov	lr, r8
   12d2c:	b500      	push	{lr}
   12d2e:	b084      	sub	sp, #16
   12d30:	9001      	str	r0, [sp, #4]
   12d32:	000d      	movs	r5, r1
   12d34:	9302      	str	r3, [sp, #8]
   12d36:	0097      	lsls	r7, r2, #2
   12d38:	0038      	movs	r0, r7
   12d3a:	4b5b      	ldr	r3, [pc, #364]	; (12ea8 <xTaskCreate+0x180>)
   12d3c:	4798      	blx	r3
   12d3e:	1e06      	subs	r6, r0, #0
   12d40:	d100      	bne.n	12d44 <xTaskCreate+0x1c>
   12d42:	e081      	b.n	12e48 <xTaskCreate+0x120>
   12d44:	204c      	movs	r0, #76	; 0x4c
   12d46:	4b58      	ldr	r3, [pc, #352]	; (12ea8 <xTaskCreate+0x180>)
   12d48:	4798      	blx	r3
   12d4a:	1e04      	subs	r4, r0, #0
   12d4c:	d100      	bne.n	12d50 <xTaskCreate+0x28>
   12d4e:	e078      	b.n	12e42 <xTaskCreate+0x11a>
   12d50:	6306      	str	r6, [r0, #48]	; 0x30
   12d52:	1f38      	subs	r0, r7, #4
   12d54:	1830      	adds	r0, r6, r0
   12d56:	2307      	movs	r3, #7
   12d58:	4398      	bics	r0, r3
   12d5a:	4680      	mov	r8, r0
   12d5c:	782a      	ldrb	r2, [r5, #0]
   12d5e:	332d      	adds	r3, #45	; 0x2d
   12d60:	54e2      	strb	r2, [r4, r3]
   12d62:	782b      	ldrb	r3, [r5, #0]
   12d64:	2b00      	cmp	r3, #0
   12d66:	d00d      	beq.n	12d84 <xTaskCreate+0x5c>
   12d68:	3501      	adds	r5, #1
   12d6a:	0023      	movs	r3, r4
   12d6c:	3335      	adds	r3, #53	; 0x35
   12d6e:	0020      	movs	r0, r4
   12d70:	303c      	adds	r0, #60	; 0x3c
   12d72:	782a      	ldrb	r2, [r5, #0]
   12d74:	701a      	strb	r2, [r3, #0]
   12d76:	782a      	ldrb	r2, [r5, #0]
   12d78:	2a00      	cmp	r2, #0
   12d7a:	d003      	beq.n	12d84 <xTaskCreate+0x5c>
   12d7c:	3501      	adds	r5, #1
   12d7e:	3301      	adds	r3, #1
   12d80:	4283      	cmp	r3, r0
   12d82:	d1f6      	bne.n	12d72 <xTaskCreate+0x4a>
   12d84:	2200      	movs	r2, #0
   12d86:	233b      	movs	r3, #59	; 0x3b
   12d88:	54e2      	strb	r2, [r4, r3]
   12d8a:	9f0a      	ldr	r7, [sp, #40]	; 0x28
   12d8c:	2f04      	cmp	r7, #4
   12d8e:	d900      	bls.n	12d92 <xTaskCreate+0x6a>
   12d90:	2704      	movs	r7, #4
   12d92:	62e7      	str	r7, [r4, #44]	; 0x2c
   12d94:	63e7      	str	r7, [r4, #60]	; 0x3c
   12d96:	2600      	movs	r6, #0
   12d98:	6426      	str	r6, [r4, #64]	; 0x40
   12d9a:	1d23      	adds	r3, r4, #4
   12d9c:	9303      	str	r3, [sp, #12]
   12d9e:	0018      	movs	r0, r3
   12da0:	4d42      	ldr	r5, [pc, #264]	; (12eac <xTaskCreate+0x184>)
   12da2:	47a8      	blx	r5
   12da4:	0020      	movs	r0, r4
   12da6:	3018      	adds	r0, #24
   12da8:	47a8      	blx	r5
   12daa:	6124      	str	r4, [r4, #16]
   12dac:	2305      	movs	r3, #5
   12dae:	1bdb      	subs	r3, r3, r7
   12db0:	61a3      	str	r3, [r4, #24]
   12db2:	6264      	str	r4, [r4, #36]	; 0x24
   12db4:	6466      	str	r6, [r4, #68]	; 0x44
   12db6:	2348      	movs	r3, #72	; 0x48
   12db8:	54e6      	strb	r6, [r4, r3]
   12dba:	9a02      	ldr	r2, [sp, #8]
   12dbc:	9901      	ldr	r1, [sp, #4]
   12dbe:	4640      	mov	r0, r8
   12dc0:	4b3b      	ldr	r3, [pc, #236]	; (12eb0 <xTaskCreate+0x188>)
   12dc2:	4798      	blx	r3
   12dc4:	6020      	str	r0, [r4, #0]
   12dc6:	9b0b      	ldr	r3, [sp, #44]	; 0x2c
   12dc8:	2b00      	cmp	r3, #0
   12dca:	d000      	beq.n	12dce <xTaskCreate+0xa6>
   12dcc:	601c      	str	r4, [r3, #0]
   12dce:	4b39      	ldr	r3, [pc, #228]	; (12eb4 <xTaskCreate+0x18c>)
   12dd0:	4798      	blx	r3
   12dd2:	4a39      	ldr	r2, [pc, #228]	; (12eb8 <xTaskCreate+0x190>)
   12dd4:	6813      	ldr	r3, [r2, #0]
   12dd6:	3301      	adds	r3, #1
   12dd8:	6013      	str	r3, [r2, #0]
   12dda:	4b38      	ldr	r3, [pc, #224]	; (12ebc <xTaskCreate+0x194>)
   12ddc:	681b      	ldr	r3, [r3, #0]
   12dde:	2b00      	cmp	r3, #0
   12de0:	d035      	beq.n	12e4e <xTaskCreate+0x126>
   12de2:	4b37      	ldr	r3, [pc, #220]	; (12ec0 <xTaskCreate+0x198>)
   12de4:	681b      	ldr	r3, [r3, #0]
   12de6:	2b00      	cmp	r3, #0
   12de8:	d107      	bne.n	12dfa <xTaskCreate+0xd2>
   12dea:	4b34      	ldr	r3, [pc, #208]	; (12ebc <xTaskCreate+0x194>)
   12dec:	681b      	ldr	r3, [r3, #0]
   12dee:	6adb      	ldr	r3, [r3, #44]	; 0x2c
   12df0:	6ae2      	ldr	r2, [r4, #44]	; 0x2c
   12df2:	4293      	cmp	r3, r2
   12df4:	d801      	bhi.n	12dfa <xTaskCreate+0xd2>
   12df6:	4b31      	ldr	r3, [pc, #196]	; (12ebc <xTaskCreate+0x194>)
   12df8:	601c      	str	r4, [r3, #0]
   12dfa:	4a32      	ldr	r2, [pc, #200]	; (12ec4 <xTaskCreate+0x19c>)
   12dfc:	6813      	ldr	r3, [r2, #0]
   12dfe:	3301      	adds	r3, #1
   12e00:	6013      	str	r3, [r2, #0]
   12e02:	6ae3      	ldr	r3, [r4, #44]	; 0x2c
   12e04:	4a30      	ldr	r2, [pc, #192]	; (12ec8 <xTaskCreate+0x1a0>)
   12e06:	6812      	ldr	r2, [r2, #0]
   12e08:	4293      	cmp	r3, r2
   12e0a:	d901      	bls.n	12e10 <xTaskCreate+0xe8>
   12e0c:	4a2e      	ldr	r2, [pc, #184]	; (12ec8 <xTaskCreate+0x1a0>)
   12e0e:	6013      	str	r3, [r2, #0]
   12e10:	0098      	lsls	r0, r3, #2
   12e12:	18c0      	adds	r0, r0, r3
   12e14:	0080      	lsls	r0, r0, #2
   12e16:	4b2d      	ldr	r3, [pc, #180]	; (12ecc <xTaskCreate+0x1a4>)
   12e18:	1818      	adds	r0, r3, r0
   12e1a:	9903      	ldr	r1, [sp, #12]
   12e1c:	4b2c      	ldr	r3, [pc, #176]	; (12ed0 <xTaskCreate+0x1a8>)
   12e1e:	4798      	blx	r3
   12e20:	4b2c      	ldr	r3, [pc, #176]	; (12ed4 <xTaskCreate+0x1ac>)
   12e22:	4798      	blx	r3
   12e24:	4b26      	ldr	r3, [pc, #152]	; (12ec0 <xTaskCreate+0x198>)
   12e26:	681b      	ldr	r3, [r3, #0]
   12e28:	2001      	movs	r0, #1
   12e2a:	2b00      	cmp	r3, #0
   12e2c:	d005      	beq.n	12e3a <xTaskCreate+0x112>
   12e2e:	4b23      	ldr	r3, [pc, #140]	; (12ebc <xTaskCreate+0x194>)
   12e30:	681b      	ldr	r3, [r3, #0]
   12e32:	6ada      	ldr	r2, [r3, #44]	; 0x2c
   12e34:	6ae3      	ldr	r3, [r4, #44]	; 0x2c
   12e36:	429a      	cmp	r2, r3
   12e38:	d331      	bcc.n	12e9e <xTaskCreate+0x176>
   12e3a:	b004      	add	sp, #16
   12e3c:	bc04      	pop	{r2}
   12e3e:	4690      	mov	r8, r2
   12e40:	bdf0      	pop	{r4, r5, r6, r7, pc}
   12e42:	0030      	movs	r0, r6
   12e44:	4b24      	ldr	r3, [pc, #144]	; (12ed8 <xTaskCreate+0x1b0>)
   12e46:	4798      	blx	r3
   12e48:	2001      	movs	r0, #1
   12e4a:	4240      	negs	r0, r0
   12e4c:	e7f5      	b.n	12e3a <xTaskCreate+0x112>
   12e4e:	4b1b      	ldr	r3, [pc, #108]	; (12ebc <xTaskCreate+0x194>)
   12e50:	601c      	str	r4, [r3, #0]
   12e52:	6813      	ldr	r3, [r2, #0]
   12e54:	2b01      	cmp	r3, #1
   12e56:	d1d0      	bne.n	12dfa <xTaskCreate+0xd2>
   12e58:	4f1c      	ldr	r7, [pc, #112]	; (12ecc <xTaskCreate+0x1a4>)
   12e5a:	0038      	movs	r0, r7
   12e5c:	4e1f      	ldr	r6, [pc, #124]	; (12edc <xTaskCreate+0x1b4>)
   12e5e:	47b0      	blx	r6
   12e60:	0038      	movs	r0, r7
   12e62:	3014      	adds	r0, #20
   12e64:	47b0      	blx	r6
   12e66:	0038      	movs	r0, r7
   12e68:	3028      	adds	r0, #40	; 0x28
   12e6a:	47b0      	blx	r6
   12e6c:	0038      	movs	r0, r7
   12e6e:	303c      	adds	r0, #60	; 0x3c
   12e70:	47b0      	blx	r6
   12e72:	0038      	movs	r0, r7
   12e74:	3050      	adds	r0, #80	; 0x50
   12e76:	47b0      	blx	r6
   12e78:	4b19      	ldr	r3, [pc, #100]	; (12ee0 <xTaskCreate+0x1b8>)
   12e7a:	4698      	mov	r8, r3
   12e7c:	0018      	movs	r0, r3
   12e7e:	47b0      	blx	r6
   12e80:	4f18      	ldr	r7, [pc, #96]	; (12ee4 <xTaskCreate+0x1bc>)
   12e82:	0038      	movs	r0, r7
   12e84:	47b0      	blx	r6
   12e86:	4818      	ldr	r0, [pc, #96]	; (12ee8 <xTaskCreate+0x1c0>)
   12e88:	47b0      	blx	r6
   12e8a:	4818      	ldr	r0, [pc, #96]	; (12eec <xTaskCreate+0x1c4>)
   12e8c:	47b0      	blx	r6
   12e8e:	4818      	ldr	r0, [pc, #96]	; (12ef0 <xTaskCreate+0x1c8>)
   12e90:	47b0      	blx	r6
   12e92:	4b18      	ldr	r3, [pc, #96]	; (12ef4 <xTaskCreate+0x1cc>)
   12e94:	4642      	mov	r2, r8
   12e96:	601a      	str	r2, [r3, #0]
   12e98:	4b17      	ldr	r3, [pc, #92]	; (12ef8 <xTaskCreate+0x1d0>)
   12e9a:	601f      	str	r7, [r3, #0]
   12e9c:	e7ad      	b.n	12dfa <xTaskCreate+0xd2>
   12e9e:	4b17      	ldr	r3, [pc, #92]	; (12efc <xTaskCreate+0x1d4>)
   12ea0:	4798      	blx	r3
   12ea2:	2001      	movs	r0, #1
   12ea4:	e7c9      	b.n	12e3a <xTaskCreate+0x112>
   12ea6:	46c0      	nop			; (mov r8, r8)
   12ea8:	000124c5 	.word	0x000124c5
   12eac:	0001227b 	.word	0x0001227b
   12eb0:	00012355 	.word	0x00012355
   12eb4:	00012401 	.word	0x00012401
   12eb8:	20002a4c 	.word	0x20002a4c
   12ebc:	200029dc 	.word	0x200029dc
   12ec0:	20002aac 	.word	0x20002aac
   12ec4:	20002a5c 	.word	0x20002a5c
   12ec8:	20002a60 	.word	0x20002a60
   12ecc:	200029e8 	.word	0x200029e8
   12ed0:	00012281 	.word	0x00012281
   12ed4:	00012419 	.word	0x00012419
   12ed8:	0001253d 	.word	0x0001253d
   12edc:	00012265 	.word	0x00012265
   12ee0:	20002a64 	.word	0x20002a64
   12ee4:	20002a78 	.word	0x20002a78
   12ee8:	20002a98 	.word	0x20002a98
   12eec:	20002ac4 	.word	0x20002ac4
   12ef0:	20002ab0 	.word	0x20002ab0
   12ef4:	200029e0 	.word	0x200029e0
   12ef8:	200029e4 	.word	0x200029e4
   12efc:	000123f1 	.word	0x000123f1

00012f00 <vTaskStartScheduler>:
   12f00:	b510      	push	{r4, lr}
   12f02:	b082      	sub	sp, #8
   12f04:	4b11      	ldr	r3, [pc, #68]	; (12f4c <vTaskStartScheduler+0x4c>)
   12f06:	9301      	str	r3, [sp, #4]
   12f08:	2300      	movs	r3, #0
   12f0a:	9300      	str	r3, [sp, #0]
   12f0c:	22fa      	movs	r2, #250	; 0xfa
   12f0e:	0052      	lsls	r2, r2, #1
   12f10:	490f      	ldr	r1, [pc, #60]	; (12f50 <vTaskStartScheduler+0x50>)
   12f12:	4810      	ldr	r0, [pc, #64]	; (12f54 <vTaskStartScheduler+0x54>)
   12f14:	4c10      	ldr	r4, [pc, #64]	; (12f58 <vTaskStartScheduler+0x58>)
   12f16:	47a0      	blx	r4
   12f18:	2801      	cmp	r0, #1
   12f1a:	d003      	beq.n	12f24 <vTaskStartScheduler+0x24>
   12f1c:	1c43      	adds	r3, r0, #1
   12f1e:	d013      	beq.n	12f48 <vTaskStartScheduler+0x48>
   12f20:	b002      	add	sp, #8
   12f22:	bd10      	pop	{r4, pc}
   12f24:	4b0d      	ldr	r3, [pc, #52]	; (12f5c <vTaskStartScheduler+0x5c>)
   12f26:	4798      	blx	r3
   12f28:	2801      	cmp	r0, #1
   12f2a:	d1f7      	bne.n	12f1c <vTaskStartScheduler+0x1c>
   12f2c:	b672      	cpsid	i
   12f2e:	2201      	movs	r2, #1
   12f30:	4252      	negs	r2, r2
   12f32:	4b0b      	ldr	r3, [pc, #44]	; (12f60 <vTaskStartScheduler+0x60>)
   12f34:	601a      	str	r2, [r3, #0]
   12f36:	3202      	adds	r2, #2
   12f38:	4b0a      	ldr	r3, [pc, #40]	; (12f64 <vTaskStartScheduler+0x64>)
   12f3a:	601a      	str	r2, [r3, #0]
   12f3c:	2200      	movs	r2, #0
   12f3e:	4b0a      	ldr	r3, [pc, #40]	; (12f68 <vTaskStartScheduler+0x68>)
   12f40:	601a      	str	r2, [r3, #0]
   12f42:	4b0a      	ldr	r3, [pc, #40]	; (12f6c <vTaskStartScheduler+0x6c>)
   12f44:	4798      	blx	r3
   12f46:	e7eb      	b.n	12f20 <vTaskStartScheduler+0x20>
   12f48:	b672      	cpsid	i
   12f4a:	e7fe      	b.n	12f4a <vTaskStartScheduler+0x4a>
   12f4c:	20002a8c 	.word	0x20002a8c
   12f50:	000195e8 	.word	0x000195e8
   12f54:	00012c21 	.word	0x00012c21
   12f58:	00012d29 	.word	0x00012d29
   12f5c:	0001352d 	.word	0x0001352d
   12f60:	20002a90 	.word	0x20002a90
   12f64:	20002aac 	.word	0x20002aac
   12f68:	20002ad8 	.word	0x20002ad8
   12f6c:	00012379 	.word	0x00012379

00012f70 <vTaskSuspendAll>:
   12f70:	4a02      	ldr	r2, [pc, #8]	; (12f7c <vTaskSuspendAll+0xc>)
   12f72:	6813      	ldr	r3, [r2, #0]
   12f74:	3301      	adds	r3, #1
   12f76:	6013      	str	r3, [r2, #0]
   12f78:	4770      	bx	lr
   12f7a:	46c0      	nop			; (mov r8, r8)
   12f7c:	20002a58 	.word	0x20002a58

00012f80 <xTaskGetTickCount>:
   12f80:	4b01      	ldr	r3, [pc, #4]	; (12f88 <xTaskGetTickCount+0x8>)
   12f82:	6818      	ldr	r0, [r3, #0]
   12f84:	4770      	bx	lr
   12f86:	46c0      	nop			; (mov r8, r8)
   12f88:	20002ad8 	.word	0x20002ad8

00012f8c <xTaskIncrementTick>:
   12f8c:	b5f0      	push	{r4, r5, r6, r7, lr}
   12f8e:	b083      	sub	sp, #12
   12f90:	4b38      	ldr	r3, [pc, #224]	; (13074 <xTaskIncrementTick+0xe8>)
   12f92:	681b      	ldr	r3, [r3, #0]
   12f94:	2b00      	cmp	r3, #0
   12f96:	d160      	bne.n	1305a <xTaskIncrementTick+0xce>
   12f98:	4b37      	ldr	r3, [pc, #220]	; (13078 <xTaskIncrementTick+0xec>)
   12f9a:	681d      	ldr	r5, [r3, #0]
   12f9c:	3501      	adds	r5, #1
   12f9e:	601d      	str	r5, [r3, #0]
   12fa0:	2d00      	cmp	r5, #0
   12fa2:	d112      	bne.n	12fca <xTaskIncrementTick+0x3e>
   12fa4:	4b35      	ldr	r3, [pc, #212]	; (1307c <xTaskIncrementTick+0xf0>)
   12fa6:	681b      	ldr	r3, [r3, #0]
   12fa8:	681b      	ldr	r3, [r3, #0]
   12faa:	2b00      	cmp	r3, #0
   12fac:	d001      	beq.n	12fb2 <xTaskIncrementTick+0x26>
   12fae:	b672      	cpsid	i
   12fb0:	e7fe      	b.n	12fb0 <xTaskIncrementTick+0x24>
   12fb2:	4a32      	ldr	r2, [pc, #200]	; (1307c <xTaskIncrementTick+0xf0>)
   12fb4:	6811      	ldr	r1, [r2, #0]
   12fb6:	4b32      	ldr	r3, [pc, #200]	; (13080 <xTaskIncrementTick+0xf4>)
   12fb8:	6818      	ldr	r0, [r3, #0]
   12fba:	6010      	str	r0, [r2, #0]
   12fbc:	6019      	str	r1, [r3, #0]
   12fbe:	4a31      	ldr	r2, [pc, #196]	; (13084 <xTaskIncrementTick+0xf8>)
   12fc0:	6813      	ldr	r3, [r2, #0]
   12fc2:	3301      	adds	r3, #1
   12fc4:	6013      	str	r3, [r2, #0]
   12fc6:	4b30      	ldr	r3, [pc, #192]	; (13088 <xTaskIncrementTick+0xfc>)
   12fc8:	4798      	blx	r3
   12fca:	4b30      	ldr	r3, [pc, #192]	; (1308c <xTaskIncrementTick+0x100>)
   12fcc:	681b      	ldr	r3, [r3, #0]
   12fce:	2400      	movs	r4, #0
   12fd0:	429d      	cmp	r5, r3
   12fd2:	d333      	bcc.n	1303c <xTaskIncrementTick+0xb0>
   12fd4:	2400      	movs	r4, #0
   12fd6:	4f29      	ldr	r7, [pc, #164]	; (1307c <xTaskIncrementTick+0xf0>)
   12fd8:	683b      	ldr	r3, [r7, #0]
   12fda:	681b      	ldr	r3, [r3, #0]
   12fdc:	2b00      	cmp	r3, #0
   12fde:	d029      	beq.n	13034 <xTaskIncrementTick+0xa8>
   12fe0:	4b26      	ldr	r3, [pc, #152]	; (1307c <xTaskIncrementTick+0xf0>)
   12fe2:	681b      	ldr	r3, [r3, #0]
   12fe4:	68db      	ldr	r3, [r3, #12]
   12fe6:	68de      	ldr	r6, [r3, #12]
   12fe8:	6873      	ldr	r3, [r6, #4]
   12fea:	429d      	cmp	r5, r3
   12fec:	d332      	bcc.n	13054 <xTaskIncrementTick+0xc8>
   12fee:	1d33      	adds	r3, r6, #4
   12ff0:	9301      	str	r3, [sp, #4]
   12ff2:	0018      	movs	r0, r3
   12ff4:	4b26      	ldr	r3, [pc, #152]	; (13090 <xTaskIncrementTick+0x104>)
   12ff6:	4798      	blx	r3
   12ff8:	6ab3      	ldr	r3, [r6, #40]	; 0x28
   12ffa:	2b00      	cmp	r3, #0
   12ffc:	d003      	beq.n	13006 <xTaskIncrementTick+0x7a>
   12ffe:	0030      	movs	r0, r6
   13000:	3018      	adds	r0, #24
   13002:	4b23      	ldr	r3, [pc, #140]	; (13090 <xTaskIncrementTick+0x104>)
   13004:	4798      	blx	r3
   13006:	6af3      	ldr	r3, [r6, #44]	; 0x2c
   13008:	4a22      	ldr	r2, [pc, #136]	; (13094 <xTaskIncrementTick+0x108>)
   1300a:	6812      	ldr	r2, [r2, #0]
   1300c:	4293      	cmp	r3, r2
   1300e:	d901      	bls.n	13014 <xTaskIncrementTick+0x88>
   13010:	4a20      	ldr	r2, [pc, #128]	; (13094 <xTaskIncrementTick+0x108>)
   13012:	6013      	str	r3, [r2, #0]
   13014:	0098      	lsls	r0, r3, #2
   13016:	18c0      	adds	r0, r0, r3
   13018:	0080      	lsls	r0, r0, #2
   1301a:	4b1f      	ldr	r3, [pc, #124]	; (13098 <xTaskIncrementTick+0x10c>)
   1301c:	1818      	adds	r0, r3, r0
   1301e:	9901      	ldr	r1, [sp, #4]
   13020:	4b1e      	ldr	r3, [pc, #120]	; (1309c <xTaskIncrementTick+0x110>)
   13022:	4798      	blx	r3
   13024:	4b1e      	ldr	r3, [pc, #120]	; (130a0 <xTaskIncrementTick+0x114>)
   13026:	681b      	ldr	r3, [r3, #0]
   13028:	6af2      	ldr	r2, [r6, #44]	; 0x2c
   1302a:	6adb      	ldr	r3, [r3, #44]	; 0x2c
   1302c:	429a      	cmp	r2, r3
   1302e:	d3d3      	bcc.n	12fd8 <xTaskIncrementTick+0x4c>
   13030:	2401      	movs	r4, #1
   13032:	e7d1      	b.n	12fd8 <xTaskIncrementTick+0x4c>
   13034:	2201      	movs	r2, #1
   13036:	4252      	negs	r2, r2
   13038:	4b14      	ldr	r3, [pc, #80]	; (1308c <xTaskIncrementTick+0x100>)
   1303a:	601a      	str	r2, [r3, #0]
   1303c:	4b18      	ldr	r3, [pc, #96]	; (130a0 <xTaskIncrementTick+0x114>)
   1303e:	681b      	ldr	r3, [r3, #0]
   13040:	6ada      	ldr	r2, [r3, #44]	; 0x2c
   13042:	0093      	lsls	r3, r2, #2
   13044:	189b      	adds	r3, r3, r2
   13046:	009b      	lsls	r3, r3, #2
   13048:	4a13      	ldr	r2, [pc, #76]	; (13098 <xTaskIncrementTick+0x10c>)
   1304a:	589b      	ldr	r3, [r3, r2]
   1304c:	2b01      	cmp	r3, #1
   1304e:	d909      	bls.n	13064 <xTaskIncrementTick+0xd8>
   13050:	2401      	movs	r4, #1
   13052:	e007      	b.n	13064 <xTaskIncrementTick+0xd8>
   13054:	4a0d      	ldr	r2, [pc, #52]	; (1308c <xTaskIncrementTick+0x100>)
   13056:	6013      	str	r3, [r2, #0]
   13058:	e7f0      	b.n	1303c <xTaskIncrementTick+0xb0>
   1305a:	4a12      	ldr	r2, [pc, #72]	; (130a4 <xTaskIncrementTick+0x118>)
   1305c:	6813      	ldr	r3, [r2, #0]
   1305e:	3301      	adds	r3, #1
   13060:	6013      	str	r3, [r2, #0]
   13062:	2400      	movs	r4, #0
   13064:	4b10      	ldr	r3, [pc, #64]	; (130a8 <xTaskIncrementTick+0x11c>)
   13066:	681b      	ldr	r3, [r3, #0]
   13068:	2b00      	cmp	r3, #0
   1306a:	d000      	beq.n	1306e <xTaskIncrementTick+0xe2>
   1306c:	2401      	movs	r4, #1
   1306e:	0020      	movs	r0, r4
   13070:	b003      	add	sp, #12
   13072:	bdf0      	pop	{r4, r5, r6, r7, pc}
   13074:	20002a58 	.word	0x20002a58
   13078:	20002ad8 	.word	0x20002ad8
   1307c:	200029e0 	.word	0x200029e0
   13080:	200029e4 	.word	0x200029e4
   13084:	20002a94 	.word	0x20002a94
   13088:	00012bf5 	.word	0x00012bf5
   1308c:	20002a90 	.word	0x20002a90
   13090:	000122c7 	.word	0x000122c7
   13094:	20002a60 	.word	0x20002a60
   13098:	200029e8 	.word	0x200029e8
   1309c:	00012281 	.word	0x00012281
   130a0:	200029dc 	.word	0x200029dc
   130a4:	20002a54 	.word	0x20002a54
   130a8:	20002adc 	.word	0x20002adc

000130ac <xTaskResumeAll>:
   130ac:	b5f8      	push	{r3, r4, r5, r6, r7, lr}
   130ae:	4b30      	ldr	r3, [pc, #192]	; (13170 <xTaskResumeAll+0xc4>)
   130b0:	681b      	ldr	r3, [r3, #0]
   130b2:	2b00      	cmp	r3, #0
   130b4:	d101      	bne.n	130ba <xTaskResumeAll+0xe>
   130b6:	b672      	cpsid	i
   130b8:	e7fe      	b.n	130b8 <xTaskResumeAll+0xc>
   130ba:	4b2e      	ldr	r3, [pc, #184]	; (13174 <xTaskResumeAll+0xc8>)
   130bc:	4798      	blx	r3
   130be:	4b2c      	ldr	r3, [pc, #176]	; (13170 <xTaskResumeAll+0xc4>)
   130c0:	681a      	ldr	r2, [r3, #0]
   130c2:	3a01      	subs	r2, #1
   130c4:	601a      	str	r2, [r3, #0]
   130c6:	681b      	ldr	r3, [r3, #0]
   130c8:	2400      	movs	r4, #0
   130ca:	2b00      	cmp	r3, #0
   130cc:	d103      	bne.n	130d6 <xTaskResumeAll+0x2a>
   130ce:	4b2a      	ldr	r3, [pc, #168]	; (13178 <xTaskResumeAll+0xcc>)
   130d0:	681b      	ldr	r3, [r3, #0]
   130d2:	2b00      	cmp	r3, #0
   130d4:	d103      	bne.n	130de <xTaskResumeAll+0x32>
   130d6:	4b29      	ldr	r3, [pc, #164]	; (1317c <xTaskResumeAll+0xd0>)
   130d8:	4798      	blx	r3
   130da:	0020      	movs	r0, r4
   130dc:	bdf8      	pop	{r3, r4, r5, r6, r7, pc}
   130de:	4d28      	ldr	r5, [pc, #160]	; (13180 <xTaskResumeAll+0xd4>)
   130e0:	002f      	movs	r7, r5
   130e2:	682b      	ldr	r3, [r5, #0]
   130e4:	2b00      	cmp	r3, #0
   130e6:	d022      	beq.n	1312e <xTaskResumeAll+0x82>
   130e8:	68fb      	ldr	r3, [r7, #12]
   130ea:	68dc      	ldr	r4, [r3, #12]
   130ec:	0020      	movs	r0, r4
   130ee:	3018      	adds	r0, #24
   130f0:	4b24      	ldr	r3, [pc, #144]	; (13184 <xTaskResumeAll+0xd8>)
   130f2:	4798      	blx	r3
   130f4:	1d26      	adds	r6, r4, #4
   130f6:	0030      	movs	r0, r6
   130f8:	4b22      	ldr	r3, [pc, #136]	; (13184 <xTaskResumeAll+0xd8>)
   130fa:	4798      	blx	r3
   130fc:	6ae3      	ldr	r3, [r4, #44]	; 0x2c
   130fe:	4a22      	ldr	r2, [pc, #136]	; (13188 <xTaskResumeAll+0xdc>)
   13100:	6812      	ldr	r2, [r2, #0]
   13102:	4293      	cmp	r3, r2
   13104:	d901      	bls.n	1310a <xTaskResumeAll+0x5e>
   13106:	4a20      	ldr	r2, [pc, #128]	; (13188 <xTaskResumeAll+0xdc>)
   13108:	6013      	str	r3, [r2, #0]
   1310a:	0098      	lsls	r0, r3, #2
   1310c:	18c0      	adds	r0, r0, r3
   1310e:	0080      	lsls	r0, r0, #2
   13110:	4b1e      	ldr	r3, [pc, #120]	; (1318c <xTaskResumeAll+0xe0>)
   13112:	1818      	adds	r0, r3, r0
   13114:	0031      	movs	r1, r6
   13116:	4b1e      	ldr	r3, [pc, #120]	; (13190 <xTaskResumeAll+0xe4>)
   13118:	4798      	blx	r3
   1311a:	4b1e      	ldr	r3, [pc, #120]	; (13194 <xTaskResumeAll+0xe8>)
   1311c:	681b      	ldr	r3, [r3, #0]
   1311e:	6adb      	ldr	r3, [r3, #44]	; 0x2c
   13120:	6ae2      	ldr	r2, [r4, #44]	; 0x2c
   13122:	429a      	cmp	r2, r3
   13124:	d3dd      	bcc.n	130e2 <xTaskResumeAll+0x36>
   13126:	2201      	movs	r2, #1
   13128:	4b1b      	ldr	r3, [pc, #108]	; (13198 <xTaskResumeAll+0xec>)
   1312a:	601a      	str	r2, [r3, #0]
   1312c:	e7d9      	b.n	130e2 <xTaskResumeAll+0x36>
   1312e:	2c00      	cmp	r4, #0
   13130:	d001      	beq.n	13136 <xTaskResumeAll+0x8a>
   13132:	4b1a      	ldr	r3, [pc, #104]	; (1319c <xTaskResumeAll+0xf0>)
   13134:	4798      	blx	r3
   13136:	4b1a      	ldr	r3, [pc, #104]	; (131a0 <xTaskResumeAll+0xf4>)
   13138:	681c      	ldr	r4, [r3, #0]
   1313a:	2c00      	cmp	r4, #0
   1313c:	d00e      	beq.n	1315c <xTaskResumeAll+0xb0>
   1313e:	4f19      	ldr	r7, [pc, #100]	; (131a4 <xTaskResumeAll+0xf8>)
   13140:	4e15      	ldr	r6, [pc, #84]	; (13198 <xTaskResumeAll+0xec>)
   13142:	2501      	movs	r5, #1
   13144:	e002      	b.n	1314c <xTaskResumeAll+0xa0>
   13146:	3c01      	subs	r4, #1
   13148:	2c00      	cmp	r4, #0
   1314a:	d004      	beq.n	13156 <xTaskResumeAll+0xaa>
   1314c:	47b8      	blx	r7
   1314e:	2800      	cmp	r0, #0
   13150:	d0f9      	beq.n	13146 <xTaskResumeAll+0x9a>
   13152:	6035      	str	r5, [r6, #0]
   13154:	e7f7      	b.n	13146 <xTaskResumeAll+0x9a>
   13156:	2200      	movs	r2, #0
   13158:	4b11      	ldr	r3, [pc, #68]	; (131a0 <xTaskResumeAll+0xf4>)
   1315a:	601a      	str	r2, [r3, #0]
   1315c:	4b0e      	ldr	r3, [pc, #56]	; (13198 <xTaskResumeAll+0xec>)
   1315e:	681b      	ldr	r3, [r3, #0]
   13160:	2400      	movs	r4, #0
   13162:	2b00      	cmp	r3, #0
   13164:	d0b7      	beq.n	130d6 <xTaskResumeAll+0x2a>
   13166:	4b10      	ldr	r3, [pc, #64]	; (131a8 <xTaskResumeAll+0xfc>)
   13168:	4798      	blx	r3
   1316a:	3401      	adds	r4, #1
   1316c:	e7b3      	b.n	130d6 <xTaskResumeAll+0x2a>
   1316e:	46c0      	nop			; (mov r8, r8)
   13170:	20002a58 	.word	0x20002a58
   13174:	00012401 	.word	0x00012401
   13178:	20002a4c 	.word	0x20002a4c
   1317c:	00012419 	.word	0x00012419
   13180:	20002a98 	.word	0x20002a98
   13184:	000122c7 	.word	0x000122c7
   13188:	20002a60 	.word	0x20002a60
   1318c:	200029e8 	.word	0x200029e8
   13190:	00012281 	.word	0x00012281
   13194:	200029dc 	.word	0x200029dc
   13198:	20002adc 	.word	0x20002adc
   1319c:	00012bf5 	.word	0x00012bf5
   131a0:	20002a54 	.word	0x20002a54
   131a4:	00012f8d 	.word	0x00012f8d
   131a8:	000123f1 	.word	0x000123f1

000131ac <vTaskSwitchContext>:
   131ac:	b510      	push	{r4, lr}
   131ae:	4b28      	ldr	r3, [pc, #160]	; (13250 <vTaskSwitchContext+0xa4>)
   131b0:	681b      	ldr	r3, [r3, #0]
   131b2:	2b00      	cmp	r3, #0
   131b4:	d125      	bne.n	13202 <vTaskSwitchContext+0x56>
   131b6:	2200      	movs	r2, #0
   131b8:	4b26      	ldr	r3, [pc, #152]	; (13254 <vTaskSwitchContext+0xa8>)
   131ba:	601a      	str	r2, [r3, #0]
   131bc:	4b26      	ldr	r3, [pc, #152]	; (13258 <vTaskSwitchContext+0xac>)
   131be:	681a      	ldr	r2, [r3, #0]
   131c0:	681b      	ldr	r3, [r3, #0]
   131c2:	6812      	ldr	r2, [r2, #0]
   131c4:	6b1b      	ldr	r3, [r3, #48]	; 0x30
   131c6:	429a      	cmp	r2, r3
   131c8:	d805      	bhi.n	131d6 <vTaskSwitchContext+0x2a>
   131ca:	4b23      	ldr	r3, [pc, #140]	; (13258 <vTaskSwitchContext+0xac>)
   131cc:	6818      	ldr	r0, [r3, #0]
   131ce:	6819      	ldr	r1, [r3, #0]
   131d0:	3134      	adds	r1, #52	; 0x34
   131d2:	4b22      	ldr	r3, [pc, #136]	; (1325c <vTaskSwitchContext+0xb0>)
   131d4:	4798      	blx	r3
   131d6:	4b22      	ldr	r3, [pc, #136]	; (13260 <vTaskSwitchContext+0xb4>)
   131d8:	681b      	ldr	r3, [r3, #0]
   131da:	009a      	lsls	r2, r3, #2
   131dc:	18d2      	adds	r2, r2, r3
   131de:	0092      	lsls	r2, r2, #2
   131e0:	4920      	ldr	r1, [pc, #128]	; (13264 <vTaskSwitchContext+0xb8>)
   131e2:	5852      	ldr	r2, [r2, r1]
   131e4:	2a00      	cmp	r2, #0
   131e6:	d110      	bne.n	1320a <vTaskSwitchContext+0x5e>
   131e8:	2b00      	cmp	r3, #0
   131ea:	d008      	beq.n	131fe <vTaskSwitchContext+0x52>
   131ec:	3b01      	subs	r3, #1
   131ee:	009a      	lsls	r2, r3, #2
   131f0:	18d2      	adds	r2, r2, r3
   131f2:	0092      	lsls	r2, r2, #2
   131f4:	5852      	ldr	r2, [r2, r1]
   131f6:	2a00      	cmp	r2, #0
   131f8:	d107      	bne.n	1320a <vTaskSwitchContext+0x5e>
   131fa:	2b00      	cmp	r3, #0
   131fc:	d1f6      	bne.n	131ec <vTaskSwitchContext+0x40>
   131fe:	b672      	cpsid	i
   13200:	e7fe      	b.n	13200 <vTaskSwitchContext+0x54>
   13202:	2201      	movs	r2, #1
   13204:	4b13      	ldr	r3, [pc, #76]	; (13254 <vTaskSwitchContext+0xa8>)
   13206:	601a      	str	r2, [r3, #0]
   13208:	bd10      	pop	{r4, pc}
   1320a:	4816      	ldr	r0, [pc, #88]	; (13264 <vTaskSwitchContext+0xb8>)
   1320c:	009a      	lsls	r2, r3, #2
   1320e:	18d1      	adds	r1, r2, r3
   13210:	0089      	lsls	r1, r1, #2
   13212:	1841      	adds	r1, r0, r1
   13214:	684c      	ldr	r4, [r1, #4]
   13216:	6864      	ldr	r4, [r4, #4]
   13218:	604c      	str	r4, [r1, #4]
   1321a:	18d2      	adds	r2, r2, r3
   1321c:	0092      	lsls	r2, r2, #2
   1321e:	3208      	adds	r2, #8
   13220:	1882      	adds	r2, r0, r2
   13222:	4294      	cmp	r4, r2
   13224:	d00b      	beq.n	1323e <vTaskSwitchContext+0x92>
   13226:	009a      	lsls	r2, r3, #2
   13228:	18d2      	adds	r2, r2, r3
   1322a:	0092      	lsls	r2, r2, #2
   1322c:	490d      	ldr	r1, [pc, #52]	; (13264 <vTaskSwitchContext+0xb8>)
   1322e:	188a      	adds	r2, r1, r2
   13230:	6852      	ldr	r2, [r2, #4]
   13232:	68d1      	ldr	r1, [r2, #12]
   13234:	4a08      	ldr	r2, [pc, #32]	; (13258 <vTaskSwitchContext+0xac>)
   13236:	6011      	str	r1, [r2, #0]
   13238:	4a09      	ldr	r2, [pc, #36]	; (13260 <vTaskSwitchContext+0xb4>)
   1323a:	6013      	str	r3, [r2, #0]
   1323c:	e7e4      	b.n	13208 <vTaskSwitchContext+0x5c>
   1323e:	6860      	ldr	r0, [r4, #4]
   13240:	009a      	lsls	r2, r3, #2
   13242:	18d2      	adds	r2, r2, r3
   13244:	0092      	lsls	r2, r2, #2
   13246:	4907      	ldr	r1, [pc, #28]	; (13264 <vTaskSwitchContext+0xb8>)
   13248:	188a      	adds	r2, r1, r2
   1324a:	6050      	str	r0, [r2, #4]
   1324c:	e7eb      	b.n	13226 <vTaskSwitchContext+0x7a>
   1324e:	46c0      	nop			; (mov r8, r8)
   13250:	20002a58 	.word	0x20002a58
   13254:	20002adc 	.word	0x20002adc
   13258:	200029dc 	.word	0x200029dc
   1325c:	0001883d 	.word	0x0001883d
   13260:	20002a60 	.word	0x20002a60
   13264:	200029e8 	.word	0x200029e8

00013268 <vTaskPlaceOnEventList>:
   13268:	b510      	push	{r4, lr}
   1326a:	000c      	movs	r4, r1
   1326c:	2800      	cmp	r0, #0
   1326e:	d101      	bne.n	13274 <vTaskPlaceOnEventList+0xc>
   13270:	b672      	cpsid	i
   13272:	e7fe      	b.n	13272 <vTaskPlaceOnEventList+0xa>
   13274:	4b04      	ldr	r3, [pc, #16]	; (13288 <vTaskPlaceOnEventList+0x20>)
   13276:	6819      	ldr	r1, [r3, #0]
   13278:	3118      	adds	r1, #24
   1327a:	4b04      	ldr	r3, [pc, #16]	; (1328c <vTaskPlaceOnEventList+0x24>)
   1327c:	4798      	blx	r3
   1327e:	2101      	movs	r1, #1
   13280:	0020      	movs	r0, r4
   13282:	4b03      	ldr	r3, [pc, #12]	; (13290 <vTaskPlaceOnEventList+0x28>)
   13284:	4798      	blx	r3
   13286:	bd10      	pop	{r4, pc}
   13288:	200029dc 	.word	0x200029dc
   1328c:	00012299 	.word	0x00012299
   13290:	00012ca1 	.word	0x00012ca1

00013294 <vTaskPlaceOnEventListRestricted>:
   13294:	b570      	push	{r4, r5, r6, lr}
   13296:	000c      	movs	r4, r1
   13298:	0015      	movs	r5, r2
   1329a:	2800      	cmp	r0, #0
   1329c:	d00d      	beq.n	132ba <vTaskPlaceOnEventListRestricted+0x26>
   1329e:	4b08      	ldr	r3, [pc, #32]	; (132c0 <vTaskPlaceOnEventListRestricted+0x2c>)
   132a0:	6819      	ldr	r1, [r3, #0]
   132a2:	3118      	adds	r1, #24
   132a4:	4b07      	ldr	r3, [pc, #28]	; (132c4 <vTaskPlaceOnEventListRestricted+0x30>)
   132a6:	4798      	blx	r3
   132a8:	2d00      	cmp	r5, #0
   132aa:	d001      	beq.n	132b0 <vTaskPlaceOnEventListRestricted+0x1c>
   132ac:	2401      	movs	r4, #1
   132ae:	4264      	negs	r4, r4
   132b0:	0029      	movs	r1, r5
   132b2:	0020      	movs	r0, r4
   132b4:	4b04      	ldr	r3, [pc, #16]	; (132c8 <vTaskPlaceOnEventListRestricted+0x34>)
   132b6:	4798      	blx	r3
   132b8:	bd70      	pop	{r4, r5, r6, pc}
   132ba:	b672      	cpsid	i
   132bc:	e7fe      	b.n	132bc <vTaskPlaceOnEventListRestricted+0x28>
   132be:	46c0      	nop			; (mov r8, r8)
   132c0:	200029dc 	.word	0x200029dc
   132c4:	00012281 	.word	0x00012281
   132c8:	00012ca1 	.word	0x00012ca1

000132cc <xTaskRemoveFromEventList>:
   132cc:	b570      	push	{r4, r5, r6, lr}
   132ce:	68c3      	ldr	r3, [r0, #12]
   132d0:	68dc      	ldr	r4, [r3, #12]
   132d2:	2c00      	cmp	r4, #0
   132d4:	d027      	beq.n	13326 <xTaskRemoveFromEventList+0x5a>
   132d6:	0025      	movs	r5, r4
   132d8:	3518      	adds	r5, #24
   132da:	0028      	movs	r0, r5
   132dc:	4b15      	ldr	r3, [pc, #84]	; (13334 <xTaskRemoveFromEventList+0x68>)
   132de:	4798      	blx	r3
   132e0:	4b15      	ldr	r3, [pc, #84]	; (13338 <xTaskRemoveFromEventList+0x6c>)
   132e2:	681b      	ldr	r3, [r3, #0]
   132e4:	2b00      	cmp	r3, #0
   132e6:	d120      	bne.n	1332a <xTaskRemoveFromEventList+0x5e>
   132e8:	1d25      	adds	r5, r4, #4
   132ea:	0028      	movs	r0, r5
   132ec:	4b11      	ldr	r3, [pc, #68]	; (13334 <xTaskRemoveFromEventList+0x68>)
   132ee:	4798      	blx	r3
   132f0:	6ae3      	ldr	r3, [r4, #44]	; 0x2c
   132f2:	4a12      	ldr	r2, [pc, #72]	; (1333c <xTaskRemoveFromEventList+0x70>)
   132f4:	6812      	ldr	r2, [r2, #0]
   132f6:	4293      	cmp	r3, r2
   132f8:	d901      	bls.n	132fe <xTaskRemoveFromEventList+0x32>
   132fa:	4a10      	ldr	r2, [pc, #64]	; (1333c <xTaskRemoveFromEventList+0x70>)
   132fc:	6013      	str	r3, [r2, #0]
   132fe:	0098      	lsls	r0, r3, #2
   13300:	18c0      	adds	r0, r0, r3
   13302:	0080      	lsls	r0, r0, #2
   13304:	4b0e      	ldr	r3, [pc, #56]	; (13340 <xTaskRemoveFromEventList+0x74>)
   13306:	1818      	adds	r0, r3, r0
   13308:	0029      	movs	r1, r5
   1330a:	4b0e      	ldr	r3, [pc, #56]	; (13344 <xTaskRemoveFromEventList+0x78>)
   1330c:	4798      	blx	r3
   1330e:	4b0e      	ldr	r3, [pc, #56]	; (13348 <xTaskRemoveFromEventList+0x7c>)
   13310:	681b      	ldr	r3, [r3, #0]
   13312:	6ae2      	ldr	r2, [r4, #44]	; 0x2c
   13314:	6adb      	ldr	r3, [r3, #44]	; 0x2c
   13316:	2000      	movs	r0, #0
   13318:	429a      	cmp	r2, r3
   1331a:	d903      	bls.n	13324 <xTaskRemoveFromEventList+0x58>
   1331c:	2201      	movs	r2, #1
   1331e:	4b0b      	ldr	r3, [pc, #44]	; (1334c <xTaskRemoveFromEventList+0x80>)
   13320:	601a      	str	r2, [r3, #0]
   13322:	3001      	adds	r0, #1
   13324:	bd70      	pop	{r4, r5, r6, pc}
   13326:	b672      	cpsid	i
   13328:	e7fe      	b.n	13328 <xTaskRemoveFromEventList+0x5c>
   1332a:	0029      	movs	r1, r5
   1332c:	4808      	ldr	r0, [pc, #32]	; (13350 <xTaskRemoveFromEventList+0x84>)
   1332e:	4b05      	ldr	r3, [pc, #20]	; (13344 <xTaskRemoveFromEventList+0x78>)
   13330:	4798      	blx	r3
   13332:	e7ec      	b.n	1330e <xTaskRemoveFromEventList+0x42>
   13334:	000122c7 	.word	0x000122c7
   13338:	20002a58 	.word	0x20002a58
   1333c:	20002a60 	.word	0x20002a60
   13340:	200029e8 	.word	0x200029e8
   13344:	00012281 	.word	0x00012281
   13348:	200029dc 	.word	0x200029dc
   1334c:	20002adc 	.word	0x20002adc
   13350:	20002a98 	.word	0x20002a98

00013354 <vTaskInternalSetTimeOutState>:
   13354:	4b03      	ldr	r3, [pc, #12]	; (13364 <vTaskInternalSetTimeOutState+0x10>)
   13356:	681b      	ldr	r3, [r3, #0]
   13358:	6003      	str	r3, [r0, #0]
   1335a:	4b03      	ldr	r3, [pc, #12]	; (13368 <vTaskInternalSetTimeOutState+0x14>)
   1335c:	681b      	ldr	r3, [r3, #0]
   1335e:	6043      	str	r3, [r0, #4]
   13360:	4770      	bx	lr
   13362:	46c0      	nop			; (mov r8, r8)
   13364:	20002a94 	.word	0x20002a94
   13368:	20002ad8 	.word	0x20002ad8

0001336c <xTaskCheckForTimeOut>:
   1336c:	b570      	push	{r4, r5, r6, lr}
   1336e:	0006      	movs	r6, r0
   13370:	000d      	movs	r5, r1
   13372:	2800      	cmp	r0, #0
   13374:	d01b      	beq.n	133ae <xTaskCheckForTimeOut+0x42>
   13376:	2900      	cmp	r1, #0
   13378:	d01b      	beq.n	133b2 <xTaskCheckForTimeOut+0x46>
   1337a:	4b13      	ldr	r3, [pc, #76]	; (133c8 <xTaskCheckForTimeOut+0x5c>)
   1337c:	4798      	blx	r3
   1337e:	4b13      	ldr	r3, [pc, #76]	; (133cc <xTaskCheckForTimeOut+0x60>)
   13380:	681a      	ldr	r2, [r3, #0]
   13382:	6871      	ldr	r1, [r6, #4]
   13384:	682b      	ldr	r3, [r5, #0]
   13386:	1c58      	adds	r0, r3, #1
   13388:	d01c      	beq.n	133c4 <xTaskCheckForTimeOut+0x58>
   1338a:	4811      	ldr	r0, [pc, #68]	; (133d0 <xTaskCheckForTimeOut+0x64>)
   1338c:	6800      	ldr	r0, [r0, #0]
   1338e:	6834      	ldr	r4, [r6, #0]
   13390:	4284      	cmp	r4, r0
   13392:	d002      	beq.n	1339a <xTaskCheckForTimeOut+0x2e>
   13394:	2401      	movs	r4, #1
   13396:	428a      	cmp	r2, r1
   13398:	d205      	bcs.n	133a6 <xTaskCheckForTimeOut+0x3a>
   1339a:	1a52      	subs	r2, r2, r1
   1339c:	429a      	cmp	r2, r3
   1339e:	d30a      	bcc.n	133b6 <xTaskCheckForTimeOut+0x4a>
   133a0:	2300      	movs	r3, #0
   133a2:	602b      	str	r3, [r5, #0]
   133a4:	2401      	movs	r4, #1
   133a6:	4b0b      	ldr	r3, [pc, #44]	; (133d4 <xTaskCheckForTimeOut+0x68>)
   133a8:	4798      	blx	r3
   133aa:	0020      	movs	r0, r4
   133ac:	bd70      	pop	{r4, r5, r6, pc}
   133ae:	b672      	cpsid	i
   133b0:	e7fe      	b.n	133b0 <xTaskCheckForTimeOut+0x44>
   133b2:	b672      	cpsid	i
   133b4:	e7fe      	b.n	133b4 <xTaskCheckForTimeOut+0x48>
   133b6:	1a9b      	subs	r3, r3, r2
   133b8:	602b      	str	r3, [r5, #0]
   133ba:	0030      	movs	r0, r6
   133bc:	4b06      	ldr	r3, [pc, #24]	; (133d8 <xTaskCheckForTimeOut+0x6c>)
   133be:	4798      	blx	r3
   133c0:	2400      	movs	r4, #0
   133c2:	e7f0      	b.n	133a6 <xTaskCheckForTimeOut+0x3a>
   133c4:	2400      	movs	r4, #0
   133c6:	e7ee      	b.n	133a6 <xTaskCheckForTimeOut+0x3a>
   133c8:	00012401 	.word	0x00012401
   133cc:	20002ad8 	.word	0x20002ad8
   133d0:	20002a94 	.word	0x20002a94
   133d4:	00012419 	.word	0x00012419
   133d8:	00013355 	.word	0x00013355

000133dc <vTaskMissedYield>:
   133dc:	2201      	movs	r2, #1
   133de:	4b01      	ldr	r3, [pc, #4]	; (133e4 <vTaskMissedYield+0x8>)
   133e0:	601a      	str	r2, [r3, #0]
   133e2:	4770      	bx	lr
   133e4:	20002adc 	.word	0x20002adc

000133e8 <xTaskGetSchedulerState>:
   133e8:	4b05      	ldr	r3, [pc, #20]	; (13400 <xTaskGetSchedulerState+0x18>)
   133ea:	681b      	ldr	r3, [r3, #0]
   133ec:	2001      	movs	r0, #1
   133ee:	2b00      	cmp	r3, #0
   133f0:	d004      	beq.n	133fc <xTaskGetSchedulerState+0x14>
   133f2:	4b04      	ldr	r3, [pc, #16]	; (13404 <xTaskGetSchedulerState+0x1c>)
   133f4:	6818      	ldr	r0, [r3, #0]
   133f6:	4243      	negs	r3, r0
   133f8:	4158      	adcs	r0, r3
   133fa:	0040      	lsls	r0, r0, #1
   133fc:	4770      	bx	lr
   133fe:	46c0      	nop			; (mov r8, r8)
   13400:	20002aac 	.word	0x20002aac
   13404:	20002a58 	.word	0x20002a58

00013408 <xTaskPriorityDisinherit>:
   13408:	b570      	push	{r4, r5, r6, lr}
   1340a:	1e04      	subs	r4, r0, #0
   1340c:	d02c      	beq.n	13468 <xTaskPriorityDisinherit+0x60>
   1340e:	4b18      	ldr	r3, [pc, #96]	; (13470 <xTaskPriorityDisinherit+0x68>)
   13410:	681b      	ldr	r3, [r3, #0]
   13412:	4298      	cmp	r0, r3
   13414:	d001      	beq.n	1341a <xTaskPriorityDisinherit+0x12>
   13416:	b672      	cpsid	i
   13418:	e7fe      	b.n	13418 <xTaskPriorityDisinherit+0x10>
   1341a:	6c03      	ldr	r3, [r0, #64]	; 0x40
   1341c:	2b00      	cmp	r3, #0
   1341e:	d101      	bne.n	13424 <xTaskPriorityDisinherit+0x1c>
   13420:	b672      	cpsid	i
   13422:	e7fe      	b.n	13422 <xTaskPriorityDisinherit+0x1a>
   13424:	3b01      	subs	r3, #1
   13426:	6403      	str	r3, [r0, #64]	; 0x40
   13428:	6ac2      	ldr	r2, [r0, #44]	; 0x2c
   1342a:	6bc1      	ldr	r1, [r0, #60]	; 0x3c
   1342c:	428a      	cmp	r2, r1
   1342e:	d01d      	beq.n	1346c <xTaskPriorityDisinherit+0x64>
   13430:	2000      	movs	r0, #0
   13432:	2b00      	cmp	r3, #0
   13434:	d117      	bne.n	13466 <xTaskPriorityDisinherit+0x5e>
   13436:	1d25      	adds	r5, r4, #4
   13438:	0028      	movs	r0, r5
   1343a:	4b0e      	ldr	r3, [pc, #56]	; (13474 <xTaskPriorityDisinherit+0x6c>)
   1343c:	4798      	blx	r3
   1343e:	6be3      	ldr	r3, [r4, #60]	; 0x3c
   13440:	62e3      	str	r3, [r4, #44]	; 0x2c
   13442:	2205      	movs	r2, #5
   13444:	1ad2      	subs	r2, r2, r3
   13446:	61a2      	str	r2, [r4, #24]
   13448:	4a0b      	ldr	r2, [pc, #44]	; (13478 <xTaskPriorityDisinherit+0x70>)
   1344a:	6812      	ldr	r2, [r2, #0]
   1344c:	4293      	cmp	r3, r2
   1344e:	d901      	bls.n	13454 <xTaskPriorityDisinherit+0x4c>
   13450:	4a09      	ldr	r2, [pc, #36]	; (13478 <xTaskPriorityDisinherit+0x70>)
   13452:	6013      	str	r3, [r2, #0]
   13454:	009a      	lsls	r2, r3, #2
   13456:	18d3      	adds	r3, r2, r3
   13458:	009b      	lsls	r3, r3, #2
   1345a:	4808      	ldr	r0, [pc, #32]	; (1347c <xTaskPriorityDisinherit+0x74>)
   1345c:	18c0      	adds	r0, r0, r3
   1345e:	0029      	movs	r1, r5
   13460:	4b07      	ldr	r3, [pc, #28]	; (13480 <xTaskPriorityDisinherit+0x78>)
   13462:	4798      	blx	r3
   13464:	2001      	movs	r0, #1
   13466:	bd70      	pop	{r4, r5, r6, pc}
   13468:	2000      	movs	r0, #0
   1346a:	e7fc      	b.n	13466 <xTaskPriorityDisinherit+0x5e>
   1346c:	2000      	movs	r0, #0
   1346e:	e7fa      	b.n	13466 <xTaskPriorityDisinherit+0x5e>
   13470:	200029dc 	.word	0x200029dc
   13474:	000122c7 	.word	0x000122c7
   13478:	20002a60 	.word	0x20002a60
   1347c:	200029e8 	.word	0x200029e8
   13480:	00012281 	.word	0x00012281

00013484 <prvInsertTimerInActiveList>:
   13484:	b510      	push	{r4, lr}
   13486:	6041      	str	r1, [r0, #4]
   13488:	6100      	str	r0, [r0, #16]
   1348a:	4291      	cmp	r1, r2
   1348c:	d80b      	bhi.n	134a6 <prvInsertTimerInActiveList+0x22>
   1348e:	1ad2      	subs	r2, r2, r3
   13490:	2401      	movs	r4, #1
   13492:	6983      	ldr	r3, [r0, #24]
   13494:	429a      	cmp	r2, r3
   13496:	d211      	bcs.n	134bc <prvInsertTimerInActiveList+0x38>
   13498:	1d01      	adds	r1, r0, #4
   1349a:	4b09      	ldr	r3, [pc, #36]	; (134c0 <prvInsertTimerInActiveList+0x3c>)
   1349c:	6818      	ldr	r0, [r3, #0]
   1349e:	4b09      	ldr	r3, [pc, #36]	; (134c4 <prvInsertTimerInActiveList+0x40>)
   134a0:	4798      	blx	r3
   134a2:	2400      	movs	r4, #0
   134a4:	e00a      	b.n	134bc <prvInsertTimerInActiveList+0x38>
   134a6:	429a      	cmp	r2, r3
   134a8:	d202      	bcs.n	134b0 <prvInsertTimerInActiveList+0x2c>
   134aa:	2401      	movs	r4, #1
   134ac:	4299      	cmp	r1, r3
   134ae:	d205      	bcs.n	134bc <prvInsertTimerInActiveList+0x38>
   134b0:	1d01      	adds	r1, r0, #4
   134b2:	4b05      	ldr	r3, [pc, #20]	; (134c8 <prvInsertTimerInActiveList+0x44>)
   134b4:	6818      	ldr	r0, [r3, #0]
   134b6:	4b03      	ldr	r3, [pc, #12]	; (134c4 <prvInsertTimerInActiveList+0x40>)
   134b8:	4798      	blx	r3
   134ba:	2400      	movs	r4, #0
   134bc:	0020      	movs	r0, r4
   134be:	bd10      	pop	{r4, pc}
   134c0:	20002ae4 	.word	0x20002ae4
   134c4:	00012299 	.word	0x00012299
   134c8:	20002ae0 	.word	0x20002ae0

000134cc <prvCheckForValidListAndQueue>:
   134cc:	b570      	push	{r4, r5, r6, lr}
   134ce:	4b0e      	ldr	r3, [pc, #56]	; (13508 <prvCheckForValidListAndQueue+0x3c>)
   134d0:	4798      	blx	r3
   134d2:	4b0e      	ldr	r3, [pc, #56]	; (1350c <prvCheckForValidListAndQueue+0x40>)
   134d4:	681b      	ldr	r3, [r3, #0]
   134d6:	2b00      	cmp	r3, #0
   134d8:	d002      	beq.n	134e0 <prvCheckForValidListAndQueue+0x14>
   134da:	4b0d      	ldr	r3, [pc, #52]	; (13510 <prvCheckForValidListAndQueue+0x44>)
   134dc:	4798      	blx	r3
   134de:	bd70      	pop	{r4, r5, r6, pc}
   134e0:	4d0c      	ldr	r5, [pc, #48]	; (13514 <prvCheckForValidListAndQueue+0x48>)
   134e2:	0028      	movs	r0, r5
   134e4:	4e0c      	ldr	r6, [pc, #48]	; (13518 <prvCheckForValidListAndQueue+0x4c>)
   134e6:	47b0      	blx	r6
   134e8:	4c0c      	ldr	r4, [pc, #48]	; (1351c <prvCheckForValidListAndQueue+0x50>)
   134ea:	0020      	movs	r0, r4
   134ec:	47b0      	blx	r6
   134ee:	4b0c      	ldr	r3, [pc, #48]	; (13520 <prvCheckForValidListAndQueue+0x54>)
   134f0:	601d      	str	r5, [r3, #0]
   134f2:	4b0c      	ldr	r3, [pc, #48]	; (13524 <prvCheckForValidListAndQueue+0x58>)
   134f4:	601c      	str	r4, [r3, #0]
   134f6:	2200      	movs	r2, #0
   134f8:	210c      	movs	r1, #12
   134fa:	2002      	movs	r0, #2
   134fc:	4b0a      	ldr	r3, [pc, #40]	; (13528 <prvCheckForValidListAndQueue+0x5c>)
   134fe:	4798      	blx	r3
   13500:	4b02      	ldr	r3, [pc, #8]	; (1350c <prvCheckForValidListAndQueue+0x40>)
   13502:	6018      	str	r0, [r3, #0]
   13504:	e7e9      	b.n	134da <prvCheckForValidListAndQueue+0xe>
   13506:	46c0      	nop			; (mov r8, r8)
   13508:	00012401 	.word	0x00012401
   1350c:	20002b14 	.word	0x20002b14
   13510:	00012419 	.word	0x00012419
   13514:	20002ae8 	.word	0x20002ae8
   13518:	00012265 	.word	0x00012265
   1351c:	20002afc 	.word	0x20002afc
   13520:	20002ae0 	.word	0x20002ae0
   13524:	20002ae4 	.word	0x20002ae4
   13528:	0001279d 	.word	0x0001279d

0001352c <xTimerCreateTimerTask>:
   1352c:	b510      	push	{r4, lr}
   1352e:	b082      	sub	sp, #8
   13530:	4b0a      	ldr	r3, [pc, #40]	; (1355c <xTimerCreateTimerTask+0x30>)
   13532:	4798      	blx	r3
   13534:	4b0a      	ldr	r3, [pc, #40]	; (13560 <xTimerCreateTimerTask+0x34>)
   13536:	681b      	ldr	r3, [r3, #0]
   13538:	2b00      	cmp	r3, #0
   1353a:	d00d      	beq.n	13558 <xTimerCreateTimerTask+0x2c>
   1353c:	4b09      	ldr	r3, [pc, #36]	; (13564 <xTimerCreateTimerTask+0x38>)
   1353e:	9301      	str	r3, [sp, #4]
   13540:	2302      	movs	r3, #2
   13542:	9300      	str	r3, [sp, #0]
   13544:	2300      	movs	r3, #0
   13546:	2280      	movs	r2, #128	; 0x80
   13548:	4907      	ldr	r1, [pc, #28]	; (13568 <xTimerCreateTimerTask+0x3c>)
   1354a:	4808      	ldr	r0, [pc, #32]	; (1356c <xTimerCreateTimerTask+0x40>)
   1354c:	4c08      	ldr	r4, [pc, #32]	; (13570 <xTimerCreateTimerTask+0x44>)
   1354e:	47a0      	blx	r4
   13550:	2800      	cmp	r0, #0
   13552:	d001      	beq.n	13558 <xTimerCreateTimerTask+0x2c>
   13554:	b002      	add	sp, #8
   13556:	bd10      	pop	{r4, pc}
   13558:	b672      	cpsid	i
   1355a:	e7fe      	b.n	1355a <xTimerCreateTimerTask+0x2e>
   1355c:	000134cd 	.word	0x000134cd
   13560:	20002b14 	.word	0x20002b14
   13564:	20002b18 	.word	0x20002b18
   13568:	00019618 	.word	0x00019618
   1356c:	00013699 	.word	0x00013699
   13570:	00012d29 	.word	0x00012d29

00013574 <xTimerGenericCommand>:
   13574:	b530      	push	{r4, r5, lr}
   13576:	b085      	sub	sp, #20
   13578:	0004      	movs	r4, r0
   1357a:	001d      	movs	r5, r3
   1357c:	2800      	cmp	r0, #0
   1357e:	d014      	beq.n	135aa <xTimerGenericCommand+0x36>
   13580:	4b13      	ldr	r3, [pc, #76]	; (135d0 <xTimerGenericCommand+0x5c>)
   13582:	6818      	ldr	r0, [r3, #0]
   13584:	2800      	cmp	r0, #0
   13586:	d021      	beq.n	135cc <xTimerGenericCommand+0x58>
   13588:	9101      	str	r1, [sp, #4]
   1358a:	9202      	str	r2, [sp, #8]
   1358c:	9403      	str	r4, [sp, #12]
   1358e:	2905      	cmp	r1, #5
   13590:	dc15      	bgt.n	135be <xTimerGenericCommand+0x4a>
   13592:	4b10      	ldr	r3, [pc, #64]	; (135d4 <xTimerGenericCommand+0x60>)
   13594:	4798      	blx	r3
   13596:	2802      	cmp	r0, #2
   13598:	d009      	beq.n	135ae <xTimerGenericCommand+0x3a>
   1359a:	4b0d      	ldr	r3, [pc, #52]	; (135d0 <xTimerGenericCommand+0x5c>)
   1359c:	6818      	ldr	r0, [r3, #0]
   1359e:	2300      	movs	r3, #0
   135a0:	2200      	movs	r2, #0
   135a2:	a901      	add	r1, sp, #4
   135a4:	4c0c      	ldr	r4, [pc, #48]	; (135d8 <xTimerGenericCommand+0x64>)
   135a6:	47a0      	blx	r4
   135a8:	e00e      	b.n	135c8 <xTimerGenericCommand+0x54>
   135aa:	b672      	cpsid	i
   135ac:	e7fe      	b.n	135ac <xTimerGenericCommand+0x38>
   135ae:	4b08      	ldr	r3, [pc, #32]	; (135d0 <xTimerGenericCommand+0x5c>)
   135b0:	6818      	ldr	r0, [r3, #0]
   135b2:	2300      	movs	r3, #0
   135b4:	9a08      	ldr	r2, [sp, #32]
   135b6:	a901      	add	r1, sp, #4
   135b8:	4c07      	ldr	r4, [pc, #28]	; (135d8 <xTimerGenericCommand+0x64>)
   135ba:	47a0      	blx	r4
   135bc:	e004      	b.n	135c8 <xTimerGenericCommand+0x54>
   135be:	2300      	movs	r3, #0
   135c0:	002a      	movs	r2, r5
   135c2:	a901      	add	r1, sp, #4
   135c4:	4c05      	ldr	r4, [pc, #20]	; (135dc <xTimerGenericCommand+0x68>)
   135c6:	47a0      	blx	r4
   135c8:	b005      	add	sp, #20
   135ca:	bd30      	pop	{r4, r5, pc}
   135cc:	2000      	movs	r0, #0
   135ce:	e7fb      	b.n	135c8 <xTimerGenericCommand+0x54>
   135d0:	20002b14 	.word	0x20002b14
   135d4:	000133e9 	.word	0x000133e9
   135d8:	000127e5 	.word	0x000127e5
   135dc:	00012971 	.word	0x00012971

000135e0 <prvSampleTimeNow>:
   135e0:	b5f0      	push	{r4, r5, r6, r7, lr}
   135e2:	46d6      	mov	lr, sl
   135e4:	464f      	mov	r7, r9
   135e6:	4646      	mov	r6, r8
   135e8:	b5c0      	push	{r6, r7, lr}
   135ea:	b082      	sub	sp, #8
   135ec:	4680      	mov	r8, r0
   135ee:	4b23      	ldr	r3, [pc, #140]	; (1367c <prvSampleTimeNow+0x9c>)
   135f0:	4798      	blx	r3
   135f2:	4682      	mov	sl, r0
   135f4:	4b22      	ldr	r3, [pc, #136]	; (13680 <prvSampleTimeNow+0xa0>)
   135f6:	681b      	ldr	r3, [r3, #0]
   135f8:	4298      	cmp	r0, r3
   135fa:	d317      	bcc.n	1362c <prvSampleTimeNow+0x4c>
   135fc:	2300      	movs	r3, #0
   135fe:	4642      	mov	r2, r8
   13600:	6013      	str	r3, [r2, #0]
   13602:	4b1f      	ldr	r3, [pc, #124]	; (13680 <prvSampleTimeNow+0xa0>)
   13604:	4652      	mov	r2, sl
   13606:	601a      	str	r2, [r3, #0]
   13608:	4650      	mov	r0, sl
   1360a:	b002      	add	sp, #8
   1360c:	bc1c      	pop	{r2, r3, r4}
   1360e:	4690      	mov	r8, r2
   13610:	4699      	mov	r9, r3
   13612:	46a2      	mov	sl, r4
   13614:	bdf0      	pop	{r4, r5, r6, r7, pc}
   13616:	2300      	movs	r3, #0
   13618:	9300      	str	r3, [sp, #0]
   1361a:	003a      	movs	r2, r7
   1361c:	2100      	movs	r1, #0
   1361e:	0020      	movs	r0, r4
   13620:	4c18      	ldr	r4, [pc, #96]	; (13684 <prvSampleTimeNow+0xa4>)
   13622:	47a0      	blx	r4
   13624:	2800      	cmp	r0, #0
   13626:	d104      	bne.n	13632 <prvSampleTimeNow+0x52>
   13628:	b672      	cpsid	i
   1362a:	e7fe      	b.n	1362a <prvSampleTimeNow+0x4a>
   1362c:	4d16      	ldr	r5, [pc, #88]	; (13688 <prvSampleTimeNow+0xa8>)
   1362e:	4b17      	ldr	r3, [pc, #92]	; (1368c <prvSampleTimeNow+0xac>)
   13630:	4699      	mov	r9, r3
   13632:	682b      	ldr	r3, [r5, #0]
   13634:	681a      	ldr	r2, [r3, #0]
   13636:	2a00      	cmp	r2, #0
   13638:	d017      	beq.n	1366a <prvSampleTimeNow+0x8a>
   1363a:	68db      	ldr	r3, [r3, #12]
   1363c:	681f      	ldr	r7, [r3, #0]
   1363e:	68dc      	ldr	r4, [r3, #12]
   13640:	1d26      	adds	r6, r4, #4
   13642:	0030      	movs	r0, r6
   13644:	47c8      	blx	r9
   13646:	0020      	movs	r0, r4
   13648:	6a63      	ldr	r3, [r4, #36]	; 0x24
   1364a:	4798      	blx	r3
   1364c:	69e3      	ldr	r3, [r4, #28]
   1364e:	2b01      	cmp	r3, #1
   13650:	d1ef      	bne.n	13632 <prvSampleTimeNow+0x52>
   13652:	69a3      	ldr	r3, [r4, #24]
   13654:	18fb      	adds	r3, r7, r3
   13656:	429f      	cmp	r7, r3
   13658:	d2dd      	bcs.n	13616 <prvSampleTimeNow+0x36>
   1365a:	6063      	str	r3, [r4, #4]
   1365c:	6124      	str	r4, [r4, #16]
   1365e:	4b0a      	ldr	r3, [pc, #40]	; (13688 <prvSampleTimeNow+0xa8>)
   13660:	6818      	ldr	r0, [r3, #0]
   13662:	0031      	movs	r1, r6
   13664:	4b0a      	ldr	r3, [pc, #40]	; (13690 <prvSampleTimeNow+0xb0>)
   13666:	4798      	blx	r3
   13668:	e7e3      	b.n	13632 <prvSampleTimeNow+0x52>
   1366a:	4a0a      	ldr	r2, [pc, #40]	; (13694 <prvSampleTimeNow+0xb4>)
   1366c:	4906      	ldr	r1, [pc, #24]	; (13688 <prvSampleTimeNow+0xa8>)
   1366e:	6810      	ldr	r0, [r2, #0]
   13670:	6008      	str	r0, [r1, #0]
   13672:	6013      	str	r3, [r2, #0]
   13674:	2301      	movs	r3, #1
   13676:	4642      	mov	r2, r8
   13678:	6013      	str	r3, [r2, #0]
   1367a:	e7c2      	b.n	13602 <prvSampleTimeNow+0x22>
   1367c:	00012f81 	.word	0x00012f81
   13680:	20002b10 	.word	0x20002b10
   13684:	00013575 	.word	0x00013575
   13688:	20002ae0 	.word	0x20002ae0
   1368c:	000122c7 	.word	0x000122c7
   13690:	00012299 	.word	0x00012299
   13694:	20002ae4 	.word	0x20002ae4

00013698 <prvTimerTask>:
   13698:	b5f0      	push	{r4, r5, r6, r7, lr}
   1369a:	b089      	sub	sp, #36	; 0x24
   1369c:	4b53      	ldr	r3, [pc, #332]	; (137ec <prvTimerTask+0x154>)
   1369e:	4798      	blx	r3
   136a0:	4f53      	ldr	r7, [pc, #332]	; (137f0 <prvTimerTask+0x158>)
   136a2:	4b54      	ldr	r3, [pc, #336]	; (137f4 <prvTimerTask+0x15c>)
   136a4:	681b      	ldr	r3, [r3, #0]
   136a6:	681a      	ldr	r2, [r3, #0]
   136a8:	2a00      	cmp	r2, #0
   136aa:	d00e      	beq.n	136ca <prvTimerTask+0x32>
   136ac:	68db      	ldr	r3, [r3, #12]
   136ae:	681c      	ldr	r4, [r3, #0]
   136b0:	4b51      	ldr	r3, [pc, #324]	; (137f8 <prvTimerTask+0x160>)
   136b2:	4798      	blx	r3
   136b4:	a805      	add	r0, sp, #20
   136b6:	4b51      	ldr	r3, [pc, #324]	; (137fc <prvTimerTask+0x164>)
   136b8:	4798      	blx	r3
   136ba:	0005      	movs	r5, r0
   136bc:	9b05      	ldr	r3, [sp, #20]
   136be:	2b00      	cmp	r3, #0
   136c0:	d15f      	bne.n	13782 <prvTimerTask+0xea>
   136c2:	4284      	cmp	r4, r0
   136c4:	d936      	bls.n	13734 <prvTimerTask+0x9c>
   136c6:	2200      	movs	r2, #0
   136c8:	e00f      	b.n	136ea <prvTimerTask+0x52>
   136ca:	4b4b      	ldr	r3, [pc, #300]	; (137f8 <prvTimerTask+0x160>)
   136cc:	4798      	blx	r3
   136ce:	a805      	add	r0, sp, #20
   136d0:	4b4a      	ldr	r3, [pc, #296]	; (137fc <prvTimerTask+0x164>)
   136d2:	4798      	blx	r3
   136d4:	0005      	movs	r5, r0
   136d6:	9b05      	ldr	r3, [sp, #20]
   136d8:	2b00      	cmp	r3, #0
   136da:	d152      	bne.n	13782 <prvTimerTask+0xea>
   136dc:	4b48      	ldr	r3, [pc, #288]	; (13800 <prvTimerTask+0x168>)
   136de:	681b      	ldr	r3, [r3, #0]
   136e0:	681b      	ldr	r3, [r3, #0]
   136e2:	425a      	negs	r2, r3
   136e4:	415a      	adcs	r2, r3
   136e6:	b2d2      	uxtb	r2, r2
   136e8:	2400      	movs	r4, #0
   136ea:	1b61      	subs	r1, r4, r5
   136ec:	4b45      	ldr	r3, [pc, #276]	; (13804 <prvTimerTask+0x16c>)
   136ee:	6818      	ldr	r0, [r3, #0]
   136f0:	4b45      	ldr	r3, [pc, #276]	; (13808 <prvTimerTask+0x170>)
   136f2:	4798      	blx	r3
   136f4:	4b45      	ldr	r3, [pc, #276]	; (1380c <prvTimerTask+0x174>)
   136f6:	4798      	blx	r3
   136f8:	2800      	cmp	r0, #0
   136fa:	d03f      	beq.n	1377c <prvTimerTask+0xe4>
   136fc:	4d41      	ldr	r5, [pc, #260]	; (13804 <prvTimerTask+0x16c>)
   136fe:	4c44      	ldr	r4, [pc, #272]	; (13810 <prvTimerTask+0x178>)
   13700:	2200      	movs	r2, #0
   13702:	a905      	add	r1, sp, #20
   13704:	6828      	ldr	r0, [r5, #0]
   13706:	47a0      	blx	r4
   13708:	2800      	cmp	r0, #0
   1370a:	d0ca      	beq.n	136a2 <prvTimerTask+0xa>
   1370c:	9b05      	ldr	r3, [sp, #20]
   1370e:	9303      	str	r3, [sp, #12]
   13710:	2b00      	cmp	r3, #0
   13712:	dbf5      	blt.n	13700 <prvTimerTask+0x68>
   13714:	9e07      	ldr	r6, [sp, #28]
   13716:	6973      	ldr	r3, [r6, #20]
   13718:	2b00      	cmp	r3, #0
   1371a:	d001      	beq.n	13720 <prvTimerTask+0x88>
   1371c:	1d30      	adds	r0, r6, #4
   1371e:	47b8      	blx	r7
   13720:	a804      	add	r0, sp, #16
   13722:	4b36      	ldr	r3, [pc, #216]	; (137fc <prvTimerTask+0x164>)
   13724:	4798      	blx	r3
   13726:	9b05      	ldr	r3, [sp, #20]
   13728:	2b09      	cmp	r3, #9
   1372a:	d8e9      	bhi.n	13700 <prvTimerTask+0x68>
   1372c:	009b      	lsls	r3, r3, #2
   1372e:	4a39      	ldr	r2, [pc, #228]	; (13814 <prvTimerTask+0x17c>)
   13730:	58d3      	ldr	r3, [r2, r3]
   13732:	469f      	mov	pc, r3
   13734:	4b35      	ldr	r3, [pc, #212]	; (1380c <prvTimerTask+0x174>)
   13736:	4798      	blx	r3
   13738:	4b2e      	ldr	r3, [pc, #184]	; (137f4 <prvTimerTask+0x15c>)
   1373a:	681b      	ldr	r3, [r3, #0]
   1373c:	68db      	ldr	r3, [r3, #12]
   1373e:	68de      	ldr	r6, [r3, #12]
   13740:	1d30      	adds	r0, r6, #4
   13742:	4b2b      	ldr	r3, [pc, #172]	; (137f0 <prvTimerTask+0x158>)
   13744:	4798      	blx	r3
   13746:	69f3      	ldr	r3, [r6, #28]
   13748:	2b01      	cmp	r3, #1
   1374a:	d003      	beq.n	13754 <prvTimerTask+0xbc>
   1374c:	6a73      	ldr	r3, [r6, #36]	; 0x24
   1374e:	0030      	movs	r0, r6
   13750:	4798      	blx	r3
   13752:	e7d3      	b.n	136fc <prvTimerTask+0x64>
   13754:	69b3      	ldr	r3, [r6, #24]
   13756:	18e1      	adds	r1, r4, r3
   13758:	0023      	movs	r3, r4
   1375a:	002a      	movs	r2, r5
   1375c:	0030      	movs	r0, r6
   1375e:	4d2e      	ldr	r5, [pc, #184]	; (13818 <prvTimerTask+0x180>)
   13760:	47a8      	blx	r5
   13762:	2800      	cmp	r0, #0
   13764:	d0f2      	beq.n	1374c <prvTimerTask+0xb4>
   13766:	2300      	movs	r3, #0
   13768:	9300      	str	r3, [sp, #0]
   1376a:	0022      	movs	r2, r4
   1376c:	2100      	movs	r1, #0
   1376e:	0030      	movs	r0, r6
   13770:	4c2a      	ldr	r4, [pc, #168]	; (1381c <prvTimerTask+0x184>)
   13772:	47a0      	blx	r4
   13774:	2800      	cmp	r0, #0
   13776:	d1e9      	bne.n	1374c <prvTimerTask+0xb4>
   13778:	b672      	cpsid	i
   1377a:	e7fe      	b.n	1377a <prvTimerTask+0xe2>
   1377c:	4b28      	ldr	r3, [pc, #160]	; (13820 <prvTimerTask+0x188>)
   1377e:	4798      	blx	r3
   13780:	e7bc      	b.n	136fc <prvTimerTask+0x64>
   13782:	4b22      	ldr	r3, [pc, #136]	; (1380c <prvTimerTask+0x174>)
   13784:	4798      	blx	r3
   13786:	e7b9      	b.n	136fc <prvTimerTask+0x64>
   13788:	9b06      	ldr	r3, [sp, #24]
   1378a:	69b2      	ldr	r2, [r6, #24]
   1378c:	4694      	mov	ip, r2
   1378e:	4463      	add	r3, ip
   13790:	0019      	movs	r1, r3
   13792:	9b06      	ldr	r3, [sp, #24]
   13794:	0002      	movs	r2, r0
   13796:	0030      	movs	r0, r6
   13798:	4c1f      	ldr	r4, [pc, #124]	; (13818 <prvTimerTask+0x180>)
   1379a:	47a0      	blx	r4
   1379c:	2800      	cmp	r0, #0
   1379e:	d0ae      	beq.n	136fe <prvTimerTask+0x66>
   137a0:	0030      	movs	r0, r6
   137a2:	6a73      	ldr	r3, [r6, #36]	; 0x24
   137a4:	4798      	blx	r3
   137a6:	69f3      	ldr	r3, [r6, #28]
   137a8:	2b01      	cmp	r3, #1
   137aa:	d1a8      	bne.n	136fe <prvTimerTask+0x66>
   137ac:	9b06      	ldr	r3, [sp, #24]
   137ae:	69b1      	ldr	r1, [r6, #24]
   137b0:	468c      	mov	ip, r1
   137b2:	4463      	add	r3, ip
   137b4:	001a      	movs	r2, r3
   137b6:	2300      	movs	r3, #0
   137b8:	9300      	str	r3, [sp, #0]
   137ba:	2100      	movs	r1, #0
   137bc:	0030      	movs	r0, r6
   137be:	4c17      	ldr	r4, [pc, #92]	; (1381c <prvTimerTask+0x184>)
   137c0:	47a0      	blx	r4
   137c2:	2800      	cmp	r0, #0
   137c4:	d19b      	bne.n	136fe <prvTimerTask+0x66>
   137c6:	b672      	cpsid	i
   137c8:	e7fe      	b.n	137c8 <prvTimerTask+0x130>
   137ca:	9906      	ldr	r1, [sp, #24]
   137cc:	61b1      	str	r1, [r6, #24]
   137ce:	2900      	cmp	r1, #0
   137d0:	d006      	beq.n	137e0 <prvTimerTask+0x148>
   137d2:	1841      	adds	r1, r0, r1
   137d4:	0003      	movs	r3, r0
   137d6:	0002      	movs	r2, r0
   137d8:	0030      	movs	r0, r6
   137da:	4c0f      	ldr	r4, [pc, #60]	; (13818 <prvTimerTask+0x180>)
   137dc:	47a0      	blx	r4
   137de:	e78e      	b.n	136fe <prvTimerTask+0x66>
   137e0:	b672      	cpsid	i
   137e2:	e7fe      	b.n	137e2 <prvTimerTask+0x14a>
   137e4:	0030      	movs	r0, r6
   137e6:	4b0f      	ldr	r3, [pc, #60]	; (13824 <prvTimerTask+0x18c>)
   137e8:	4798      	blx	r3
   137ea:	e788      	b.n	136fe <prvTimerTask+0x66>
   137ec:	0001861d 	.word	0x0001861d
   137f0:	000122c7 	.word	0x000122c7
   137f4:	20002ae0 	.word	0x20002ae0
   137f8:	00012f71 	.word	0x00012f71
   137fc:	000135e1 	.word	0x000135e1
   13800:	20002ae4 	.word	0x20002ae4
   13804:	20002b14 	.word	0x20002b14
   13808:	00012b95 	.word	0x00012b95
   1380c:	000130ad 	.word	0x000130ad
   13810:	00012a41 	.word	0x00012a41
   13814:	000195f0 	.word	0x000195f0
   13818:	00013485 	.word	0x00013485
   1381c:	00013575 	.word	0x00013575
   13820:	000123f1 	.word	0x000123f1
   13824:	0001253d 	.word	0x0001253d

00013828 <advance_pointer>:
   13828:	b510      	push	{r4, lr}
   1382a:	0004      	movs	r4, r0
   1382c:	7c03      	ldrb	r3, [r0, #16]
   1382e:	2b00      	cmp	r3, #0
   13830:	d005      	beq.n	1383e <advance_pointer+0x16>
   13832:	6883      	ldr	r3, [r0, #8]
   13834:	1c58      	adds	r0, r3, #1
   13836:	68e1      	ldr	r1, [r4, #12]
   13838:	4b07      	ldr	r3, [pc, #28]	; (13858 <advance_pointer+0x30>)
   1383a:	4798      	blx	r3
   1383c:	60a1      	str	r1, [r4, #8]
   1383e:	6863      	ldr	r3, [r4, #4]
   13840:	1c58      	adds	r0, r3, #1
   13842:	68e1      	ldr	r1, [r4, #12]
   13844:	4b04      	ldr	r3, [pc, #16]	; (13858 <advance_pointer+0x30>)
   13846:	4798      	blx	r3
   13848:	6061      	str	r1, [r4, #4]
   1384a:	68a3      	ldr	r3, [r4, #8]
   1384c:	1a59      	subs	r1, r3, r1
   1384e:	424a      	negs	r2, r1
   13850:	414a      	adcs	r2, r1
   13852:	7422      	strb	r2, [r4, #16]
   13854:	bd10      	pop	{r4, pc}
   13856:	46c0      	nop			; (mov r8, r8)
   13858:	0001895d 	.word	0x0001895d

0001385c <circular_buf_init>:
   1385c:	b570      	push	{r4, r5, r6, lr}
   1385e:	0005      	movs	r5, r0
   13860:	000c      	movs	r4, r1
   13862:	2014      	movs	r0, #20
   13864:	4b04      	ldr	r3, [pc, #16]	; (13878 <circular_buf_init+0x1c>)
   13866:	4798      	blx	r3
   13868:	6005      	str	r5, [r0, #0]
   1386a:	60c4      	str	r4, [r0, #12]
   1386c:	2300      	movs	r3, #0
   1386e:	6043      	str	r3, [r0, #4]
   13870:	6083      	str	r3, [r0, #8]
   13872:	7403      	strb	r3, [r0, #16]
   13874:	bd70      	pop	{r4, r5, r6, pc}
   13876:	46c0      	nop			; (mov r8, r8)
   13878:	00018bd9 	.word	0x00018bd9

0001387c <circular_buf_put>:
   1387c:	b510      	push	{r4, lr}
   1387e:	6803      	ldr	r3, [r0, #0]
   13880:	6842      	ldr	r2, [r0, #4]
   13882:	5499      	strb	r1, [r3, r2]
   13884:	4b01      	ldr	r3, [pc, #4]	; (1388c <circular_buf_put+0x10>)
   13886:	4798      	blx	r3
   13888:	bd10      	pop	{r4, pc}
   1388a:	46c0      	nop			; (mov r8, r8)
   1388c:	00013829 	.word	0x00013829

00013890 <circular_buf_empty>:
   13890:	7c02      	ldrb	r2, [r0, #16]
   13892:	2300      	movs	r3, #0
   13894:	2a00      	cmp	r2, #0
   13896:	d105      	bne.n	138a4 <circular_buf_empty+0x14>
   13898:	6843      	ldr	r3, [r0, #4]
   1389a:	6880      	ldr	r0, [r0, #8]
   1389c:	1a1b      	subs	r3, r3, r0
   1389e:	4258      	negs	r0, r3
   138a0:	4143      	adcs	r3, r0
   138a2:	b2db      	uxtb	r3, r3
   138a4:	0018      	movs	r0, r3
   138a6:	4770      	bx	lr

000138a8 <circular_buf_get>:
   138a8:	b570      	push	{r4, r5, r6, lr}
   138aa:	0004      	movs	r4, r0
   138ac:	000d      	movs	r5, r1
   138ae:	4b0a      	ldr	r3, [pc, #40]	; (138d8 <circular_buf_get+0x30>)
   138b0:	4798      	blx	r3
   138b2:	2800      	cmp	r0, #0
   138b4:	d10d      	bne.n	138d2 <circular_buf_get+0x2a>
   138b6:	6823      	ldr	r3, [r4, #0]
   138b8:	68a2      	ldr	r2, [r4, #8]
   138ba:	5c9b      	ldrb	r3, [r3, r2]
   138bc:	702b      	strb	r3, [r5, #0]
   138be:	2300      	movs	r3, #0
   138c0:	7423      	strb	r3, [r4, #16]
   138c2:	68a3      	ldr	r3, [r4, #8]
   138c4:	1c58      	adds	r0, r3, #1
   138c6:	68e1      	ldr	r1, [r4, #12]
   138c8:	4b04      	ldr	r3, [pc, #16]	; (138dc <circular_buf_get+0x34>)
   138ca:	4798      	blx	r3
   138cc:	60a1      	str	r1, [r4, #8]
   138ce:	2000      	movs	r0, #0
   138d0:	bd70      	pop	{r4, r5, r6, pc}
   138d2:	2001      	movs	r0, #1
   138d4:	4240      	negs	r0, r0
   138d6:	e7fb      	b.n	138d0 <circular_buf_get+0x28>
   138d8:	00013891 	.word	0x00013891
   138dc:	0001895d 	.word	0x0001895d

000138e0 <usart_read_callback>:
   138e0:	b510      	push	{r4, lr}
   138e2:	4c06      	ldr	r4, [pc, #24]	; (138fc <usart_read_callback+0x1c>)
   138e4:	7821      	ldrb	r1, [r4, #0]
   138e6:	4b06      	ldr	r3, [pc, #24]	; (13900 <usart_read_callback+0x20>)
   138e8:	6818      	ldr	r0, [r3, #0]
   138ea:	4b06      	ldr	r3, [pc, #24]	; (13904 <usart_read_callback+0x24>)
   138ec:	4798      	blx	r3
   138ee:	2201      	movs	r2, #1
   138f0:	0021      	movs	r1, r4
   138f2:	4805      	ldr	r0, [pc, #20]	; (13908 <usart_read_callback+0x28>)
   138f4:	4b05      	ldr	r3, [pc, #20]	; (1390c <usart_read_callback+0x2c>)
   138f6:	4798      	blx	r3
   138f8:	bd10      	pop	{r4, pc}
   138fa:	46c0      	nop			; (mov r8, r8)
   138fc:	20002cd4 	.word	0x20002cd4
   13900:	20002cd0 	.word	0x20002cd0
   13904:	0001387d 	.word	0x0001387d
   13908:	20002c9c 	.word	0x20002c9c
   1390c:	00015fc9 	.word	0x00015fc9

00013910 <usart_write_callback>:
   13910:	b510      	push	{r4, lr}
   13912:	4b06      	ldr	r3, [pc, #24]	; (1392c <usart_write_callback+0x1c>)
   13914:	6818      	ldr	r0, [r3, #0]
   13916:	4906      	ldr	r1, [pc, #24]	; (13930 <usart_write_callback+0x20>)
   13918:	4b06      	ldr	r3, [pc, #24]	; (13934 <usart_write_callback+0x24>)
   1391a:	4798      	blx	r3
   1391c:	1c43      	adds	r3, r0, #1
   1391e:	d004      	beq.n	1392a <usart_write_callback+0x1a>
   13920:	2201      	movs	r2, #1
   13922:	4903      	ldr	r1, [pc, #12]	; (13930 <usart_write_callback+0x20>)
   13924:	4804      	ldr	r0, [pc, #16]	; (13938 <usart_write_callback+0x28>)
   13926:	4b05      	ldr	r3, [pc, #20]	; (1393c <usart_write_callback+0x2c>)
   13928:	4798      	blx	r3
   1392a:	bd10      	pop	{r4, pc}
   1392c:	200030dc 	.word	0x200030dc
   13930:	200030d8 	.word	0x200030d8
   13934:	000138a9 	.word	0x000138a9
   13938:	20002c9c 	.word	0x20002c9c
   1393c:	00015fa9 	.word	0x00015fa9

00013940 <InitializeSerialConsole>:
   13940:	b530      	push	{r4, r5, lr}
   13942:	b091      	sub	sp, #68	; 0x44
   13944:	2580      	movs	r5, #128	; 0x80
   13946:	00ad      	lsls	r5, r5, #2
   13948:	0029      	movs	r1, r5
   1394a:	4836      	ldr	r0, [pc, #216]	; (13a24 <InitializeSerialConsole+0xe4>)
   1394c:	4c36      	ldr	r4, [pc, #216]	; (13a28 <InitializeSerialConsole+0xe8>)
   1394e:	47a0      	blx	r4
   13950:	4b36      	ldr	r3, [pc, #216]	; (13a2c <InitializeSerialConsole+0xec>)
   13952:	6018      	str	r0, [r3, #0]
   13954:	0029      	movs	r1, r5
   13956:	4836      	ldr	r0, [pc, #216]	; (13a30 <InitializeSerialConsole+0xf0>)
   13958:	47a0      	blx	r4
   1395a:	4b36      	ldr	r3, [pc, #216]	; (13a34 <InitializeSerialConsole+0xf4>)
   1395c:	6018      	str	r0, [r3, #0]
   1395e:	2380      	movs	r3, #128	; 0x80
   13960:	05db      	lsls	r3, r3, #23
   13962:	9300      	str	r3, [sp, #0]
   13964:	2300      	movs	r3, #0
   13966:	9301      	str	r3, [sp, #4]
   13968:	22ff      	movs	r2, #255	; 0xff
   1396a:	4669      	mov	r1, sp
   1396c:	810a      	strh	r2, [r1, #8]
   1396e:	2200      	movs	r2, #0
   13970:	728b      	strb	r3, [r1, #10]
   13972:	72cb      	strb	r3, [r1, #11]
   13974:	2101      	movs	r1, #1
   13976:	2024      	movs	r0, #36	; 0x24
   13978:	466c      	mov	r4, sp
   1397a:	5421      	strb	r1, [r4, r0]
   1397c:	3001      	adds	r0, #1
   1397e:	5421      	strb	r1, [r4, r0]
   13980:	3125      	adds	r1, #37	; 0x25
   13982:	5463      	strb	r3, [r4, r1]
   13984:	3101      	adds	r1, #1
   13986:	5463      	strb	r3, [r4, r1]
   13988:	930a      	str	r3, [sp, #40]	; 0x28
   1398a:	3105      	adds	r1, #5
   1398c:	5463      	strb	r3, [r4, r1]
   1398e:	3101      	adds	r1, #1
   13990:	5463      	strb	r3, [r4, r1]
   13992:	9305      	str	r3, [sp, #20]
   13994:	8223      	strh	r3, [r4, #16]
   13996:	76e3      	strb	r3, [r4, #27]
   13998:	7622      	strb	r2, [r4, #24]
   1399a:	7722      	strb	r2, [r4, #28]
   1399c:	7662      	strb	r2, [r4, #25]
   1399e:	2313      	movs	r3, #19
   139a0:	76a3      	strb	r3, [r4, #26]
   139a2:	7762      	strb	r2, [r4, #29]
   139a4:	23e1      	movs	r3, #225	; 0xe1
   139a6:	025b      	lsls	r3, r3, #9
   139a8:	9308      	str	r3, [sp, #32]
   139aa:	23c4      	movs	r3, #196	; 0xc4
   139ac:	039b      	lsls	r3, r3, #14
   139ae:	9303      	str	r3, [sp, #12]
   139b0:	2301      	movs	r3, #1
   139b2:	425b      	negs	r3, r3
   139b4:	930c      	str	r3, [sp, #48]	; 0x30
   139b6:	930d      	str	r3, [sp, #52]	; 0x34
   139b8:	4b1f      	ldr	r3, [pc, #124]	; (13a38 <InitializeSerialConsole+0xf8>)
   139ba:	930e      	str	r3, [sp, #56]	; 0x38
   139bc:	4b1f      	ldr	r3, [pc, #124]	; (13a3c <InitializeSerialConsole+0xfc>)
   139be:	930f      	str	r3, [sp, #60]	; 0x3c
   139c0:	4d1f      	ldr	r5, [pc, #124]	; (13a40 <InitializeSerialConsole+0x100>)
   139c2:	4c20      	ldr	r4, [pc, #128]	; (13a44 <InitializeSerialConsole+0x104>)
   139c4:	466a      	mov	r2, sp
   139c6:	4920      	ldr	r1, [pc, #128]	; (13a48 <InitializeSerialConsole+0x108>)
   139c8:	0028      	movs	r0, r5
   139ca:	47a0      	blx	r4
   139cc:	2800      	cmp	r0, #0
   139ce:	d1f9      	bne.n	139c4 <InitializeSerialConsole+0x84>
   139d0:	4d1b      	ldr	r5, [pc, #108]	; (13a40 <InitializeSerialConsole+0x100>)
   139d2:	682c      	ldr	r4, [r5, #0]
   139d4:	0020      	movs	r0, r4
   139d6:	4b1d      	ldr	r3, [pc, #116]	; (13a4c <InitializeSerialConsole+0x10c>)
   139d8:	4798      	blx	r3
   139da:	231f      	movs	r3, #31
   139dc:	4018      	ands	r0, r3
   139de:	3b1e      	subs	r3, #30
   139e0:	4083      	lsls	r3, r0
   139e2:	4a1b      	ldr	r2, [pc, #108]	; (13a50 <InitializeSerialConsole+0x110>)
   139e4:	6013      	str	r3, [r2, #0]
   139e6:	682a      	ldr	r2, [r5, #0]
   139e8:	69d3      	ldr	r3, [r2, #28]
   139ea:	2b00      	cmp	r3, #0
   139ec:	d1fc      	bne.n	139e8 <InitializeSerialConsole+0xa8>
   139ee:	6823      	ldr	r3, [r4, #0]
   139f0:	2202      	movs	r2, #2
   139f2:	4313      	orrs	r3, r2
   139f4:	6023      	str	r3, [r4, #0]
   139f6:	4c12      	ldr	r4, [pc, #72]	; (13a40 <InitializeSerialConsole+0x100>)
   139f8:	2200      	movs	r2, #0
   139fa:	4916      	ldr	r1, [pc, #88]	; (13a54 <InitializeSerialConsole+0x114>)
   139fc:	0020      	movs	r0, r4
   139fe:	4d16      	ldr	r5, [pc, #88]	; (13a58 <InitializeSerialConsole+0x118>)
   13a00:	47a8      	blx	r5
   13a02:	2201      	movs	r2, #1
   13a04:	4915      	ldr	r1, [pc, #84]	; (13a5c <InitializeSerialConsole+0x11c>)
   13a06:	0020      	movs	r0, r4
   13a08:	47a8      	blx	r5
   13a0a:	2231      	movs	r2, #49	; 0x31
   13a0c:	5ca3      	ldrb	r3, [r4, r2]
   13a0e:	2103      	movs	r1, #3
   13a10:	430b      	orrs	r3, r1
   13a12:	54a3      	strb	r3, [r4, r2]
   13a14:	3a30      	subs	r2, #48	; 0x30
   13a16:	4912      	ldr	r1, [pc, #72]	; (13a60 <InitializeSerialConsole+0x120>)
   13a18:	0020      	movs	r0, r4
   13a1a:	4b12      	ldr	r3, [pc, #72]	; (13a64 <InitializeSerialConsole+0x124>)
   13a1c:	4798      	blx	r3
   13a1e:	b011      	add	sp, #68	; 0x44
   13a20:	bd30      	pop	{r4, r5, pc}
   13a22:	46c0      	nop			; (mov r8, r8)
   13a24:	20002ed8 	.word	0x20002ed8
   13a28:	0001385d 	.word	0x0001385d
   13a2c:	20002cd0 	.word	0x20002cd0
   13a30:	20002cd8 	.word	0x20002cd8
   13a34:	200030dc 	.word	0x200030dc
   13a38:	002a0003 	.word	0x002a0003
   13a3c:	002b0003 	.word	0x002b0003
   13a40:	20002c9c 	.word	0x20002c9c
   13a44:	00015bc1 	.word	0x00015bc1
   13a48:	42001800 	.word	0x42001800
   13a4c:	0001543d 	.word	0x0001543d
   13a50:	e000e100 	.word	0xe000e100
   13a54:	00013911 	.word	0x00013911
   13a58:	00015f91 	.word	0x00015f91
   13a5c:	000138e1 	.word	0x000138e1
   13a60:	20002cd4 	.word	0x20002cd4
   13a64:	00015fc9 	.word	0x00015fc9

00013a68 <SerialConsoleWriteString>:
   13a68:	b5f0      	push	{r4, r5, r6, r7, lr}
   13a6a:	46c6      	mov	lr, r8
   13a6c:	b500      	push	{lr}
   13a6e:	0005      	movs	r5, r0
   13a70:	4b14      	ldr	r3, [pc, #80]	; (13ac4 <SerialConsoleWriteString+0x5c>)
   13a72:	4798      	blx	r3
   13a74:	2400      	movs	r4, #0
   13a76:	2d00      	cmp	r5, #0
   13a78:	d012      	beq.n	13aa0 <SerialConsoleWriteString+0x38>
   13a7a:	4e13      	ldr	r6, [pc, #76]	; (13ac8 <SerialConsoleWriteString+0x60>)
   13a7c:	4f13      	ldr	r7, [pc, #76]	; (13acc <SerialConsoleWriteString+0x64>)
   13a7e:	4b14      	ldr	r3, [pc, #80]	; (13ad0 <SerialConsoleWriteString+0x68>)
   13a80:	4698      	mov	r8, r3
   13a82:	e003      	b.n	13a8c <SerialConsoleWriteString+0x24>
   13a84:	5d29      	ldrb	r1, [r5, r4]
   13a86:	6838      	ldr	r0, [r7, #0]
   13a88:	47c0      	blx	r8
   13a8a:	3401      	adds	r4, #1
   13a8c:	0028      	movs	r0, r5
   13a8e:	47b0      	blx	r6
   13a90:	4284      	cmp	r4, r0
   13a92:	d3f7      	bcc.n	13a84 <SerialConsoleWriteString+0x1c>
   13a94:	2101      	movs	r1, #1
   13a96:	480f      	ldr	r0, [pc, #60]	; (13ad4 <SerialConsoleWriteString+0x6c>)
   13a98:	4b0f      	ldr	r3, [pc, #60]	; (13ad8 <SerialConsoleWriteString+0x70>)
   13a9a:	4798      	blx	r3
   13a9c:	2800      	cmp	r0, #0
   13a9e:	d004      	beq.n	13aaa <SerialConsoleWriteString+0x42>
   13aa0:	4b0e      	ldr	r3, [pc, #56]	; (13adc <SerialConsoleWriteString+0x74>)
   13aa2:	4798      	blx	r3
   13aa4:	bc04      	pop	{r2}
   13aa6:	4690      	mov	r8, r2
   13aa8:	bdf0      	pop	{r4, r5, r6, r7, pc}
   13aaa:	4c0d      	ldr	r4, [pc, #52]	; (13ae0 <SerialConsoleWriteString+0x78>)
   13aac:	4b07      	ldr	r3, [pc, #28]	; (13acc <SerialConsoleWriteString+0x64>)
   13aae:	6818      	ldr	r0, [r3, #0]
   13ab0:	0021      	movs	r1, r4
   13ab2:	4b0c      	ldr	r3, [pc, #48]	; (13ae4 <SerialConsoleWriteString+0x7c>)
   13ab4:	4798      	blx	r3
   13ab6:	2201      	movs	r2, #1
   13ab8:	0021      	movs	r1, r4
   13aba:	4806      	ldr	r0, [pc, #24]	; (13ad4 <SerialConsoleWriteString+0x6c>)
   13abc:	4b0a      	ldr	r3, [pc, #40]	; (13ae8 <SerialConsoleWriteString+0x80>)
   13abe:	4798      	blx	r3
   13ac0:	e7ee      	b.n	13aa0 <SerialConsoleWriteString+0x38>
   13ac2:	46c0      	nop			; (mov r8, r8)
   13ac4:	00012f71 	.word	0x00012f71
   13ac8:	00018e0d 	.word	0x00018e0d
   13acc:	200030dc 	.word	0x200030dc
   13ad0:	0001387d 	.word	0x0001387d
   13ad4:	20002c9c 	.word	0x20002c9c
   13ad8:	00015fe9 	.word	0x00015fe9
   13adc:	000130ad 	.word	0x000130ad
   13ae0:	200030d8 	.word	0x200030d8
   13ae4:	000138a9 	.word	0x000138a9
   13ae8:	00015fa9 	.word	0x00015fa9

00013aec <LogMessage>:
   13aec:	b40e      	push	{r1, r2, r3}
   13aee:	b530      	push	{r4, r5, lr}
   13af0:	b082      	sub	sp, #8
   13af2:	4b0a      	ldr	r3, [pc, #40]	; (13b1c <LogMessage+0x30>)
   13af4:	781b      	ldrb	r3, [r3, #0]
   13af6:	4283      	cmp	r3, r0
   13af8:	d904      	bls.n	13b04 <LogMessage+0x18>
   13afa:	b002      	add	sp, #8
   13afc:	bc30      	pop	{r4, r5}
   13afe:	bc08      	pop	{r3}
   13b00:	b003      	add	sp, #12
   13b02:	4718      	bx	r3
   13b04:	ab06      	add	r3, sp, #24
   13b06:	9301      	str	r3, [sp, #4]
   13b08:	4c05      	ldr	r4, [pc, #20]	; (13b20 <LogMessage+0x34>)
   13b0a:	9a05      	ldr	r2, [sp, #20]
   13b0c:	217f      	movs	r1, #127	; 0x7f
   13b0e:	0020      	movs	r0, r4
   13b10:	4d04      	ldr	r5, [pc, #16]	; (13b24 <LogMessage+0x38>)
   13b12:	47a8      	blx	r5
   13b14:	0020      	movs	r0, r4
   13b16:	4b04      	ldr	r3, [pc, #16]	; (13b28 <LogMessage+0x3c>)
   13b18:	4798      	blx	r3
   13b1a:	e7ee      	b.n	13afa <LogMessage+0xe>
   13b1c:	20002b1c 	.word	0x20002b1c
   13b20:	20002c1c 	.word	0x20002c1c
   13b24:	00018e71 	.word	0x00018e71
   13b28:	00013a69 	.word	0x00013a69

00013b2c <sd_mmc_configure_slot>:
   13b2c:	b510      	push	{r4, lr}
   13b2e:	4b06      	ldr	r3, [pc, #24]	; (13b48 <sd_mmc_configure_slot+0x1c>)
   13b30:	6819      	ldr	r1, [r3, #0]
   13b32:	7f8b      	ldrb	r3, [r1, #30]
   13b34:	1e5a      	subs	r2, r3, #1
   13b36:	4193      	sbcs	r3, r2
   13b38:	b2db      	uxtb	r3, r3
   13b3a:	7b4a      	ldrb	r2, [r1, #13]
   13b3c:	6809      	ldr	r1, [r1, #0]
   13b3e:	4803      	ldr	r0, [pc, #12]	; (13b4c <sd_mmc_configure_slot+0x20>)
   13b40:	7800      	ldrb	r0, [r0, #0]
   13b42:	4c03      	ldr	r4, [pc, #12]	; (13b50 <sd_mmc_configure_slot+0x24>)
   13b44:	47a0      	blx	r4
   13b46:	bd10      	pop	{r4, pc}
   13b48:	20002b20 	.word	0x20002b20
   13b4c:	20002b48 	.word	0x20002b48
   13b50:	000147d5 	.word	0x000147d5

00013b54 <sd_mmc_select_slot>:
   13b54:	b510      	push	{r4, lr}
   13b56:	2304      	movs	r3, #4
   13b58:	2800      	cmp	r0, #0
   13b5a:	d001      	beq.n	13b60 <sd_mmc_select_slot+0xc>
   13b5c:	0018      	movs	r0, r3
   13b5e:	bd10      	pop	{r4, pc}
   13b60:	4b0e      	ldr	r3, [pc, #56]	; (13b9c <sd_mmc_select_slot+0x48>)
   13b62:	7a9b      	ldrb	r3, [r3, #10]
   13b64:	3b03      	subs	r3, #3
   13b66:	2b01      	cmp	r3, #1
   13b68:	d90d      	bls.n	13b86 <sd_mmc_select_slot+0x32>
   13b6a:	2200      	movs	r2, #0
   13b6c:	4b0c      	ldr	r3, [pc, #48]	; (13ba0 <sd_mmc_select_slot+0x4c>)
   13b6e:	701a      	strb	r2, [r3, #0]
   13b70:	4c0a      	ldr	r4, [pc, #40]	; (13b9c <sd_mmc_select_slot+0x48>)
   13b72:	4b0c      	ldr	r3, [pc, #48]	; (13ba4 <sd_mmc_select_slot+0x50>)
   13b74:	601c      	str	r4, [r3, #0]
   13b76:	4b0c      	ldr	r3, [pc, #48]	; (13ba8 <sd_mmc_select_slot+0x54>)
   13b78:	4798      	blx	r3
   13b7a:	7aa3      	ldrb	r3, [r4, #10]
   13b7c:	3b02      	subs	r3, #2
   13b7e:	4258      	negs	r0, r3
   13b80:	4143      	adcs	r3, r0
   13b82:	b2db      	uxtb	r3, r3
   13b84:	e7ea      	b.n	13b5c <sd_mmc_select_slot+0x8>
   13b86:	4b05      	ldr	r3, [pc, #20]	; (13b9c <sd_mmc_select_slot+0x48>)
   13b88:	2202      	movs	r2, #2
   13b8a:	729a      	strb	r2, [r3, #10]
   13b8c:	4a07      	ldr	r2, [pc, #28]	; (13bac <sd_mmc_select_slot+0x58>)
   13b8e:	601a      	str	r2, [r3, #0]
   13b90:	2201      	movs	r2, #1
   13b92:	735a      	strb	r2, [r3, #13]
   13b94:	2200      	movs	r2, #0
   13b96:	779a      	strb	r2, [r3, #30]
   13b98:	e7e7      	b.n	13b6a <sd_mmc_select_slot+0x16>
   13b9a:	46c0      	nop			; (mov r8, r8)
   13b9c:	20002b24 	.word	0x20002b24
   13ba0:	20002b48 	.word	0x20002b48
   13ba4:	20002b20 	.word	0x20002b20
   13ba8:	00013b2d 	.word	0x00013b2d
   13bac:	00061a80 	.word	0x00061a80

00013bb0 <sd_mmc_cmd13>:
   13bb0:	b5f8      	push	{r3, r4, r5, r6, r7, lr}
   13bb2:	4d09      	ldr	r5, [pc, #36]	; (13bd8 <sd_mmc_cmd13+0x28>)
   13bb4:	4f09      	ldr	r7, [pc, #36]	; (13bdc <sd_mmc_cmd13+0x2c>)
   13bb6:	4e0a      	ldr	r6, [pc, #40]	; (13be0 <sd_mmc_cmd13+0x30>)
   13bb8:	2100      	movs	r1, #0
   13bba:	480a      	ldr	r0, [pc, #40]	; (13be4 <sd_mmc_cmd13+0x34>)
   13bbc:	47b8      	blx	r7
   13bbe:	1e04      	subs	r4, r0, #0
   13bc0:	d007      	beq.n	13bd2 <sd_mmc_cmd13+0x22>
   13bc2:	47b0      	blx	r6
   13bc4:	23ff      	movs	r3, #255	; 0xff
   13bc6:	4203      	tst	r3, r0
   13bc8:	d003      	beq.n	13bd2 <sd_mmc_cmd13+0x22>
   13bca:	3d01      	subs	r5, #1
   13bcc:	2d00      	cmp	r5, #0
   13bce:	d1f3      	bne.n	13bb8 <sd_mmc_cmd13+0x8>
   13bd0:	2400      	movs	r4, #0
   13bd2:	0020      	movs	r0, r4
   13bd4:	bdf8      	pop	{r3, r4, r5, r6, r7, pc}
   13bd6:	46c0      	nop			; (mov r8, r8)
   13bd8:	00030d41 	.word	0x00030d41
   13bdc:	00014a19 	.word	0x00014a19
   13be0:	00014a31 	.word	0x00014a31
   13be4:	00001b0d 	.word	0x00001b0d

00013be8 <sd_mmc_cmd9_spi>:
   13be8:	b510      	push	{r4, lr}
   13bea:	b082      	sub	sp, #8
   13bec:	4b0c      	ldr	r3, [pc, #48]	; (13c20 <sd_mmc_cmd9_spi+0x38>)
   13bee:	681b      	ldr	r3, [r3, #0]
   13bf0:	8919      	ldrh	r1, [r3, #8]
   13bf2:	0409      	lsls	r1, r1, #16
   13bf4:	2301      	movs	r3, #1
   13bf6:	9300      	str	r3, [sp, #0]
   13bf8:	2210      	movs	r2, #16
   13bfa:	480a      	ldr	r0, [pc, #40]	; (13c24 <sd_mmc_cmd9_spi+0x3c>)
   13bfc:	4c0a      	ldr	r4, [pc, #40]	; (13c28 <sd_mmc_cmd9_spi+0x40>)
   13bfe:	47a0      	blx	r4
   13c00:	2800      	cmp	r0, #0
   13c02:	d101      	bne.n	13c08 <sd_mmc_cmd9_spi+0x20>
   13c04:	b002      	add	sp, #8
   13c06:	bd10      	pop	{r4, pc}
   13c08:	4b05      	ldr	r3, [pc, #20]	; (13c20 <sd_mmc_cmd9_spi+0x38>)
   13c0a:	6818      	ldr	r0, [r3, #0]
   13c0c:	300e      	adds	r0, #14
   13c0e:	2101      	movs	r1, #1
   13c10:	4b06      	ldr	r3, [pc, #24]	; (13c2c <sd_mmc_cmd9_spi+0x44>)
   13c12:	4798      	blx	r3
   13c14:	2800      	cmp	r0, #0
   13c16:	d0f5      	beq.n	13c04 <sd_mmc_cmd9_spi+0x1c>
   13c18:	4b05      	ldr	r3, [pc, #20]	; (13c30 <sd_mmc_cmd9_spi+0x48>)
   13c1a:	4798      	blx	r3
   13c1c:	e7f2      	b.n	13c04 <sd_mmc_cmd9_spi+0x1c>
   13c1e:	46c0      	nop			; (mov r8, r8)
   13c20:	20002b20 	.word	0x20002b20
   13c24:	00081109 	.word	0x00081109
   13c28:	00014889 	.word	0x00014889
   13c2c:	00014ab5 	.word	0x00014ab5
   13c30:	00014b41 	.word	0x00014b41

00013c34 <sd_mmc_deselect_slot>:
   13c34:	b510      	push	{r4, lr}
   13c36:	4b04      	ldr	r3, [pc, #16]	; (13c48 <sd_mmc_deselect_slot+0x14>)
   13c38:	781b      	ldrb	r3, [r3, #0]
   13c3a:	2b00      	cmp	r3, #0
   13c3c:	d000      	beq.n	13c40 <sd_mmc_deselect_slot+0xc>
   13c3e:	bd10      	pop	{r4, pc}
   13c40:	2000      	movs	r0, #0
   13c42:	4b02      	ldr	r3, [pc, #8]	; (13c4c <sd_mmc_deselect_slot+0x18>)
   13c44:	4798      	blx	r3
   13c46:	e7fa      	b.n	13c3e <sd_mmc_deselect_slot+0xa>
   13c48:	20002b48 	.word	0x20002b48
   13c4c:	00014829 	.word	0x00014829

00013c50 <sd_mmc_init>:
   13c50:	b510      	push	{r4, lr}
   13c52:	2204      	movs	r2, #4
   13c54:	4b03      	ldr	r3, [pc, #12]	; (13c64 <sd_mmc_init+0x14>)
   13c56:	729a      	strb	r2, [r3, #10]
   13c58:	32fb      	adds	r2, #251	; 0xfb
   13c5a:	4b03      	ldr	r3, [pc, #12]	; (13c68 <sd_mmc_init+0x18>)
   13c5c:	701a      	strb	r2, [r3, #0]
   13c5e:	4b03      	ldr	r3, [pc, #12]	; (13c6c <sd_mmc_init+0x1c>)
   13c60:	4798      	blx	r3
   13c62:	bd10      	pop	{r4, pc}
   13c64:	20002b24 	.word	0x20002b24
   13c68:	20002b48 	.word	0x20002b48
   13c6c:	000146d5 	.word	0x000146d5

00013c70 <sd_mmc_check>:
   13c70:	b5f0      	push	{r4, r5, r6, r7, lr}
   13c72:	46c6      	mov	lr, r8
   13c74:	b500      	push	{lr}
   13c76:	b088      	sub	sp, #32
   13c78:	4bcb      	ldr	r3, [pc, #812]	; (13fa8 <sd_mmc_check+0x338>)
   13c7a:	4798      	blx	r3
   13c7c:	0004      	movs	r4, r0
   13c7e:	2801      	cmp	r0, #1
   13c80:	d006      	beq.n	13c90 <sd_mmc_check+0x20>
   13c82:	4bca      	ldr	r3, [pc, #808]	; (13fac <sd_mmc_check+0x33c>)
   13c84:	4798      	blx	r3
   13c86:	0020      	movs	r0, r4
   13c88:	b008      	add	sp, #32
   13c8a:	bc04      	pop	{r2}
   13c8c:	4690      	mov	r8, r2
   13c8e:	bdf0      	pop	{r4, r5, r6, r7, pc}
   13c90:	4bc7      	ldr	r3, [pc, #796]	; (13fb0 <sd_mmc_check+0x340>)
   13c92:	681b      	ldr	r3, [r3, #0]
   13c94:	2201      	movs	r2, #1
   13c96:	72da      	strb	r2, [r3, #11]
   13c98:	2200      	movs	r2, #0
   13c9a:	731a      	strb	r2, [r3, #12]
   13c9c:	811a      	strh	r2, [r3, #8]
   13c9e:	4bc5      	ldr	r3, [pc, #788]	; (13fb4 <sd_mmc_check+0x344>)
   13ca0:	4798      	blx	r3
   13ca2:	2100      	movs	r1, #0
   13ca4:	2088      	movs	r0, #136	; 0x88
   13ca6:	0140      	lsls	r0, r0, #5
   13ca8:	4bc3      	ldr	r3, [pc, #780]	; (13fb8 <sd_mmc_check+0x348>)
   13caa:	4798      	blx	r3
   13cac:	2800      	cmp	r0, #0
   13cae:	d107      	bne.n	13cc0 <sd_mmc_check+0x50>
   13cb0:	4bbf      	ldr	r3, [pc, #764]	; (13fb0 <sd_mmc_check+0x340>)
   13cb2:	681b      	ldr	r3, [r3, #0]
   13cb4:	2203      	movs	r2, #3
   13cb6:	729a      	strb	r2, [r3, #10]
   13cb8:	4bbc      	ldr	r3, [pc, #752]	; (13fac <sd_mmc_check+0x33c>)
   13cba:	4798      	blx	r3
   13cbc:	2403      	movs	r4, #3
   13cbe:	e7e2      	b.n	13c86 <sd_mmc_check+0x16>
   13cc0:	21d5      	movs	r1, #213	; 0xd5
   13cc2:	0049      	lsls	r1, r1, #1
   13cc4:	48bd      	ldr	r0, [pc, #756]	; (13fbc <sd_mmc_check+0x34c>)
   13cc6:	4bbc      	ldr	r3, [pc, #752]	; (13fb8 <sd_mmc_check+0x348>)
   13cc8:	4798      	blx	r3
   13cca:	2600      	movs	r6, #0
   13ccc:	2800      	cmp	r0, #0
   13cce:	d125      	bne.n	13d1c <sd_mmc_check+0xac>
   13cd0:	4bb7      	ldr	r3, [pc, #732]	; (13fb0 <sd_mmc_check+0x340>)
   13cd2:	681b      	ldr	r3, [r3, #0]
   13cd4:	7adb      	ldrb	r3, [r3, #11]
   13cd6:	07db      	lsls	r3, r3, #31
   13cd8:	d500      	bpl.n	13cdc <sd_mmc_check+0x6c>
   13cda:	e1eb      	b.n	140b4 <sd_mmc_check+0x444>
   13cdc:	4bb4      	ldr	r3, [pc, #720]	; (13fb0 <sd_mmc_check+0x340>)
   13cde:	681b      	ldr	r3, [r3, #0]
   13ce0:	7ada      	ldrb	r2, [r3, #11]
   13ce2:	2309      	movs	r3, #9
   13ce4:	4013      	ands	r3, r2
   13ce6:	2b01      	cmp	r3, #1
   13ce8:	d10f      	bne.n	13d0a <sd_mmc_check+0x9a>
   13cea:	2180      	movs	r1, #128	; 0x80
   13cec:	0089      	lsls	r1, r1, #2
   13cee:	48b4      	ldr	r0, [pc, #720]	; (13fc0 <sd_mmc_check+0x350>)
   13cf0:	4bb1      	ldr	r3, [pc, #708]	; (13fb8 <sd_mmc_check+0x348>)
   13cf2:	4798      	blx	r3
   13cf4:	2800      	cmp	r0, #0
   13cf6:	d0db      	beq.n	13cb0 <sd_mmc_check+0x40>
   13cf8:	4bad      	ldr	r3, [pc, #692]	; (13fb0 <sd_mmc_check+0x340>)
   13cfa:	681b      	ldr	r3, [r3, #0]
   13cfc:	7adb      	ldrb	r3, [r3, #11]
   13cfe:	07db      	lsls	r3, r3, #31
   13d00:	d503      	bpl.n	13d0a <sd_mmc_check+0x9a>
   13d02:	4bb0      	ldr	r3, [pc, #704]	; (13fc4 <sd_mmc_check+0x354>)
   13d04:	4798      	blx	r3
   13d06:	2800      	cmp	r0, #0
   13d08:	d0d2      	beq.n	13cb0 <sd_mmc_check+0x40>
   13d0a:	4baf      	ldr	r3, [pc, #700]	; (13fc8 <sd_mmc_check+0x358>)
   13d0c:	4798      	blx	r3
   13d0e:	4ba8      	ldr	r3, [pc, #672]	; (13fb0 <sd_mmc_check+0x340>)
   13d10:	681b      	ldr	r3, [r3, #0]
   13d12:	2200      	movs	r2, #0
   13d14:	729a      	strb	r2, [r3, #10]
   13d16:	4ba5      	ldr	r3, [pc, #660]	; (13fac <sd_mmc_check+0x33c>)
   13d18:	4798      	blx	r3
   13d1a:	e7b4      	b.n	13c86 <sd_mmc_check+0x16>
   13d1c:	4bab      	ldr	r3, [pc, #684]	; (13fcc <sd_mmc_check+0x35c>)
   13d1e:	4798      	blx	r3
   13d20:	1c43      	adds	r3, r0, #1
   13d22:	d100      	bne.n	13d26 <sd_mmc_check+0xb6>
   13d24:	e1c4      	b.n	140b0 <sd_mmc_check+0x440>
   13d26:	0500      	lsls	r0, r0, #20
   13d28:	0d00      	lsrs	r0, r0, #20
   13d2a:	23d5      	movs	r3, #213	; 0xd5
   13d2c:	005b      	lsls	r3, r3, #1
   13d2e:	3601      	adds	r6, #1
   13d30:	4298      	cmp	r0, r3
   13d32:	d1bd      	bne.n	13cb0 <sd_mmc_check+0x40>
   13d34:	e7cc      	b.n	13cd0 <sd_mmc_check+0x60>
   13d36:	2100      	movs	r1, #0
   13d38:	48a5      	ldr	r0, [pc, #660]	; (13fd0 <sd_mmc_check+0x360>)
   13d3a:	4b9f      	ldr	r3, [pc, #636]	; (13fb8 <sd_mmc_check+0x348>)
   13d3c:	4798      	blx	r3
   13d3e:	2800      	cmp	r0, #0
   13d40:	d119      	bne.n	13d76 <sd_mmc_check+0x106>
   13d42:	4b9b      	ldr	r3, [pc, #620]	; (13fb0 <sd_mmc_check+0x340>)
   13d44:	681b      	ldr	r3, [r3, #0]
   13d46:	2202      	movs	r2, #2
   13d48:	72da      	strb	r2, [r3, #11]
   13d4a:	2100      	movs	r1, #0
   13d4c:	2088      	movs	r0, #136	; 0x88
   13d4e:	0140      	lsls	r0, r0, #5
   13d50:	4b99      	ldr	r3, [pc, #612]	; (13fb8 <sd_mmc_check+0x348>)
   13d52:	4798      	blx	r3
   13d54:	2800      	cmp	r0, #0
   13d56:	d0ab      	beq.n	13cb0 <sd_mmc_check+0x40>
   13d58:	4d9e      	ldr	r5, [pc, #632]	; (13fd4 <sd_mmc_check+0x364>)
   13d5a:	4f97      	ldr	r7, [pc, #604]	; (13fb8 <sd_mmc_check+0x348>)
   13d5c:	4e9b      	ldr	r6, [pc, #620]	; (13fcc <sd_mmc_check+0x35c>)
   13d5e:	2100      	movs	r1, #0
   13d60:	489d      	ldr	r0, [pc, #628]	; (13fd8 <sd_mmc_check+0x368>)
   13d62:	47b8      	blx	r7
   13d64:	2800      	cmp	r0, #0
   13d66:	d0a3      	beq.n	13cb0 <sd_mmc_check+0x40>
   13d68:	47b0      	blx	r6
   13d6a:	07c3      	lsls	r3, r0, #31
   13d6c:	d57d      	bpl.n	13e6a <sd_mmc_check+0x1fa>
   13d6e:	3d01      	subs	r5, #1
   13d70:	2d00      	cmp	r5, #0
   13d72:	d1f4      	bne.n	13d5e <sd_mmc_check+0xee>
   13d74:	e79c      	b.n	13cb0 <sd_mmc_check+0x40>
   13d76:	4b95      	ldr	r3, [pc, #596]	; (13fcc <sd_mmc_check+0x35c>)
   13d78:	4798      	blx	r3
   13d7a:	0043      	lsls	r3, r0, #1
   13d7c:	d505      	bpl.n	13d8a <sd_mmc_check+0x11a>
   13d7e:	4b8c      	ldr	r3, [pc, #560]	; (13fb0 <sd_mmc_check+0x340>)
   13d80:	681a      	ldr	r2, [r3, #0]
   13d82:	7ad3      	ldrb	r3, [r2, #11]
   13d84:	2108      	movs	r1, #8
   13d86:	430b      	orrs	r3, r1
   13d88:	72d3      	strb	r3, [r2, #11]
   13d8a:	2100      	movs	r1, #0
   13d8c:	4893      	ldr	r0, [pc, #588]	; (13fdc <sd_mmc_check+0x36c>)
   13d8e:	4b8a      	ldr	r3, [pc, #552]	; (13fb8 <sd_mmc_check+0x348>)
   13d90:	4798      	blx	r3
   13d92:	2800      	cmp	r0, #0
   13d94:	d08c      	beq.n	13cb0 <sd_mmc_check+0x40>
   13d96:	4b86      	ldr	r3, [pc, #536]	; (13fb0 <sd_mmc_check+0x340>)
   13d98:	681b      	ldr	r3, [r3, #0]
   13d9a:	7adb      	ldrb	r3, [r3, #11]
   13d9c:	07da      	lsls	r2, r3, #31
   13d9e:	d400      	bmi.n	13da2 <sd_mmc_check+0x132>
   13da0:	e1a4      	b.n	140ec <sd_mmc_check+0x47c>
   13da2:	4b8f      	ldr	r3, [pc, #572]	; (13fe0 <sd_mmc_check+0x370>)
   13da4:	4798      	blx	r3
   13da6:	2800      	cmp	r0, #0
   13da8:	d082      	beq.n	13cb0 <sd_mmc_check+0x40>
   13daa:	4b81      	ldr	r3, [pc, #516]	; (13fb0 <sd_mmc_check+0x340>)
   13dac:	681a      	ldr	r2, [r3, #0]
   13dae:	7c53      	ldrb	r3, [r2, #17]
   13db0:	2107      	movs	r1, #7
   13db2:	4019      	ands	r1, r3
   13db4:	0089      	lsls	r1, r1, #2
   13db6:	488b      	ldr	r0, [pc, #556]	; (13fe4 <sd_mmc_check+0x374>)
   13db8:	5808      	ldr	r0, [r1, r0]
   13dba:	21fa      	movs	r1, #250	; 0xfa
   13dbc:	0089      	lsls	r1, r1, #2
   13dbe:	4341      	muls	r1, r0
   13dc0:	065b      	lsls	r3, r3, #25
   13dc2:	0f1b      	lsrs	r3, r3, #28
   13dc4:	009b      	lsls	r3, r3, #2
   13dc6:	4888      	ldr	r0, [pc, #544]	; (13fe8 <sd_mmc_check+0x378>)
   13dc8:	581b      	ldr	r3, [r3, r0]
   13dca:	434b      	muls	r3, r1
   13dcc:	6013      	str	r3, [r2, #0]
   13dce:	7b93      	ldrb	r3, [r2, #14]
   13dd0:	099b      	lsrs	r3, r3, #6
   13dd2:	d000      	beq.n	13dd6 <sd_mmc_check+0x166>
   13dd4:	e13c      	b.n	14050 <sd_mmc_check+0x3e0>
   13dd6:	7d91      	ldrb	r1, [r2, #22]
   13dd8:	1189      	asrs	r1, r1, #6
   13dda:	7d53      	ldrb	r3, [r2, #21]
   13ddc:	009b      	lsls	r3, r3, #2
   13dde:	7d10      	ldrb	r0, [r2, #20]
   13de0:	0280      	lsls	r0, r0, #10
   13de2:	4303      	orrs	r3, r0
   13de4:	430b      	orrs	r3, r1
   13de6:	7e10      	ldrb	r0, [r2, #24]
   13de8:	11c0      	asrs	r0, r0, #7
   13dea:	7dd1      	ldrb	r1, [r2, #23]
   13dec:	0049      	lsls	r1, r1, #1
   13dee:	4308      	orrs	r0, r1
   13df0:	051b      	lsls	r3, r3, #20
   13df2:	0d1b      	lsrs	r3, r3, #20
   13df4:	3301      	adds	r3, #1
   13df6:	2107      	movs	r1, #7
   13df8:	4001      	ands	r1, r0
   13dfa:	3102      	adds	r1, #2
   13dfc:	408b      	lsls	r3, r1
   13dfe:	7cd0      	ldrb	r0, [r2, #19]
   13e00:	210f      	movs	r1, #15
   13e02:	4001      	ands	r1, r0
   13e04:	408b      	lsls	r3, r1
   13e06:	0a9b      	lsrs	r3, r3, #10
   13e08:	6053      	str	r3, [r2, #4]
   13e0a:	8911      	ldrh	r1, [r2, #8]
   13e0c:	0409      	lsls	r1, r1, #16
   13e0e:	4877      	ldr	r0, [pc, #476]	; (13fec <sd_mmc_check+0x37c>)
   13e10:	4b69      	ldr	r3, [pc, #420]	; (13fb8 <sd_mmc_check+0x348>)
   13e12:	4798      	blx	r3
   13e14:	2800      	cmp	r0, #0
   13e16:	d100      	bne.n	13e1a <sd_mmc_check+0x1aa>
   13e18:	e74a      	b.n	13cb0 <sd_mmc_check+0x40>
   13e1a:	2301      	movs	r3, #1
   13e1c:	9300      	str	r3, [sp, #0]
   13e1e:	2208      	movs	r2, #8
   13e20:	2100      	movs	r1, #0
   13e22:	4873      	ldr	r0, [pc, #460]	; (13ff0 <sd_mmc_check+0x380>)
   13e24:	4d73      	ldr	r5, [pc, #460]	; (13ff4 <sd_mmc_check+0x384>)
   13e26:	47a8      	blx	r5
   13e28:	2800      	cmp	r0, #0
   13e2a:	d100      	bne.n	13e2e <sd_mmc_check+0x1be>
   13e2c:	e740      	b.n	13cb0 <sd_mmc_check+0x40>
   13e2e:	2101      	movs	r1, #1
   13e30:	a806      	add	r0, sp, #24
   13e32:	4b71      	ldr	r3, [pc, #452]	; (13ff8 <sd_mmc_check+0x388>)
   13e34:	4798      	blx	r3
   13e36:	2800      	cmp	r0, #0
   13e38:	d100      	bne.n	13e3c <sd_mmc_check+0x1cc>
   13e3a:	e739      	b.n	13cb0 <sd_mmc_check+0x40>
   13e3c:	4b6f      	ldr	r3, [pc, #444]	; (13ffc <sd_mmc_check+0x38c>)
   13e3e:	4798      	blx	r3
   13e40:	2800      	cmp	r0, #0
   13e42:	d100      	bne.n	13e46 <sd_mmc_check+0x1d6>
   13e44:	e734      	b.n	13cb0 <sd_mmc_check+0x40>
   13e46:	ab06      	add	r3, sp, #24
   13e48:	781b      	ldrb	r3, [r3, #0]
   13e4a:	220f      	movs	r2, #15
   13e4c:	4013      	ands	r3, r2
   13e4e:	2b01      	cmp	r3, #1
   13e50:	d100      	bne.n	13e54 <sd_mmc_check+0x1e4>
   13e52:	e119      	b.n	14088 <sd_mmc_check+0x418>
   13e54:	2b00      	cmp	r3, #0
   13e56:	d100      	bne.n	13e5a <sd_mmc_check+0x1ea>
   13e58:	e109      	b.n	1406e <sd_mmc_check+0x3fe>
   13e5a:	2b02      	cmp	r3, #2
   13e5c:	d100      	bne.n	13e60 <sd_mmc_check+0x1f0>
   13e5e:	e118      	b.n	14092 <sd_mmc_check+0x422>
   13e60:	4b53      	ldr	r3, [pc, #332]	; (13fb0 <sd_mmc_check+0x340>)
   13e62:	681b      	ldr	r3, [r3, #0]
   13e64:	2210      	movs	r2, #16
   13e66:	731a      	strb	r2, [r3, #12]
   13e68:	e105      	b.n	14076 <sd_mmc_check+0x406>
   13e6a:	2100      	movs	r1, #0
   13e6c:	4858      	ldr	r0, [pc, #352]	; (13fd0 <sd_mmc_check+0x360>)
   13e6e:	4b52      	ldr	r3, [pc, #328]	; (13fb8 <sd_mmc_check+0x348>)
   13e70:	4798      	blx	r3
   13e72:	2800      	cmp	r0, #0
   13e74:	d100      	bne.n	13e78 <sd_mmc_check+0x208>
   13e76:	e71b      	b.n	13cb0 <sd_mmc_check+0x40>
   13e78:	4b54      	ldr	r3, [pc, #336]	; (13fcc <sd_mmc_check+0x35c>)
   13e7a:	4798      	blx	r3
   13e7c:	23c0      	movs	r3, #192	; 0xc0
   13e7e:	05db      	lsls	r3, r3, #23
   13e80:	4018      	ands	r0, r3
   13e82:	2380      	movs	r3, #128	; 0x80
   13e84:	05db      	lsls	r3, r3, #23
   13e86:	4298      	cmp	r0, r3
   13e88:	d105      	bne.n	13e96 <sd_mmc_check+0x226>
   13e8a:	4b49      	ldr	r3, [pc, #292]	; (13fb0 <sd_mmc_check+0x340>)
   13e8c:	681a      	ldr	r2, [r3, #0]
   13e8e:	7ad1      	ldrb	r1, [r2, #11]
   13e90:	2308      	movs	r3, #8
   13e92:	430b      	orrs	r3, r1
   13e94:	72d3      	strb	r3, [r2, #11]
   13e96:	2100      	movs	r1, #0
   13e98:	4850      	ldr	r0, [pc, #320]	; (13fdc <sd_mmc_check+0x36c>)
   13e9a:	4b47      	ldr	r3, [pc, #284]	; (13fb8 <sd_mmc_check+0x348>)
   13e9c:	4798      	blx	r3
   13e9e:	2800      	cmp	r0, #0
   13ea0:	d100      	bne.n	13ea4 <sd_mmc_check+0x234>
   13ea2:	e705      	b.n	13cb0 <sd_mmc_check+0x40>
   13ea4:	4b4e      	ldr	r3, [pc, #312]	; (13fe0 <sd_mmc_check+0x370>)
   13ea6:	4798      	blx	r3
   13ea8:	2800      	cmp	r0, #0
   13eaa:	d100      	bne.n	13eae <sd_mmc_check+0x23e>
   13eac:	e700      	b.n	13cb0 <sd_mmc_check+0x40>
   13eae:	4b40      	ldr	r3, [pc, #256]	; (13fb0 <sd_mmc_check+0x340>)
   13eb0:	681a      	ldr	r2, [r3, #0]
   13eb2:	7b93      	ldrb	r3, [r2, #14]
   13eb4:	069b      	lsls	r3, r3, #26
   13eb6:	0f1b      	lsrs	r3, r3, #28
   13eb8:	2b02      	cmp	r3, #2
   13eba:	d100      	bne.n	13ebe <sd_mmc_check+0x24e>
   13ebc:	e0a8      	b.n	14010 <sd_mmc_check+0x3a0>
   13ebe:	d907      	bls.n	13ed0 <sd_mmc_check+0x260>
   13ec0:	2b03      	cmp	r3, #3
   13ec2:	d100      	bne.n	13ec6 <sd_mmc_check+0x256>
   13ec4:	e0a7      	b.n	14016 <sd_mmc_check+0x3a6>
   13ec6:	2b04      	cmp	r3, #4
   13ec8:	d104      	bne.n	13ed4 <sd_mmc_check+0x264>
   13eca:	2340      	movs	r3, #64	; 0x40
   13ecc:	7313      	strb	r3, [r2, #12]
   13ece:	e003      	b.n	13ed8 <sd_mmc_check+0x268>
   13ed0:	2b01      	cmp	r3, #1
   13ed2:	d066      	beq.n	13fa2 <sd_mmc_check+0x332>
   13ed4:	2312      	movs	r3, #18
   13ed6:	7313      	strb	r3, [r2, #12]
   13ed8:	7c53      	ldrb	r3, [r2, #17]
   13eda:	0659      	lsls	r1, r3, #25
   13edc:	0f09      	lsrs	r1, r1, #28
   13ede:	0089      	lsls	r1, r1, #2
   13ee0:	2007      	movs	r0, #7
   13ee2:	4003      	ands	r3, r0
   13ee4:	009b      	lsls	r3, r3, #2
   13ee6:	483f      	ldr	r0, [pc, #252]	; (13fe4 <sd_mmc_check+0x374>)
   13ee8:	5818      	ldr	r0, [r3, r0]
   13eea:	23fa      	movs	r3, #250	; 0xfa
   13eec:	009b      	lsls	r3, r3, #2
   13eee:	4343      	muls	r3, r0
   13ef0:	4843      	ldr	r0, [pc, #268]	; (14000 <sd_mmc_check+0x390>)
   13ef2:	5809      	ldr	r1, [r1, r0]
   13ef4:	434b      	muls	r3, r1
   13ef6:	6013      	str	r3, [r2, #0]
   13ef8:	7d91      	ldrb	r1, [r2, #22]
   13efa:	1189      	asrs	r1, r1, #6
   13efc:	7d53      	ldrb	r3, [r2, #21]
   13efe:	009b      	lsls	r3, r3, #2
   13f00:	7d10      	ldrb	r0, [r2, #20]
   13f02:	0280      	lsls	r0, r0, #10
   13f04:	4303      	orrs	r3, r0
   13f06:	430b      	orrs	r3, r1
   13f08:	051b      	lsls	r3, r3, #20
   13f0a:	0d1b      	lsrs	r3, r3, #20
   13f0c:	493d      	ldr	r1, [pc, #244]	; (14004 <sd_mmc_check+0x394>)
   13f0e:	428b      	cmp	r3, r1
   13f10:	d00f      	beq.n	13f32 <sd_mmc_check+0x2c2>
   13f12:	7e10      	ldrb	r0, [r2, #24]
   13f14:	11c0      	asrs	r0, r0, #7
   13f16:	7dd1      	ldrb	r1, [r2, #23]
   13f18:	0049      	lsls	r1, r1, #1
   13f1a:	4301      	orrs	r1, r0
   13f1c:	3301      	adds	r3, #1
   13f1e:	2007      	movs	r0, #7
   13f20:	4001      	ands	r1, r0
   13f22:	3102      	adds	r1, #2
   13f24:	408b      	lsls	r3, r1
   13f26:	7cd1      	ldrb	r1, [r2, #19]
   13f28:	3008      	adds	r0, #8
   13f2a:	4001      	ands	r1, r0
   13f2c:	408b      	lsls	r3, r1
   13f2e:	0a9b      	lsrs	r3, r3, #10
   13f30:	6053      	str	r3, [r2, #4]
   13f32:	7b13      	ldrb	r3, [r2, #12]
   13f34:	2b3f      	cmp	r3, #63	; 0x3f
   13f36:	d97b      	bls.n	14030 <sd_mmc_check+0x3c0>
   13f38:	2100      	movs	r1, #0
   13f3a:	9100      	str	r1, [sp, #0]
   13f3c:	2301      	movs	r3, #1
   13f3e:	2280      	movs	r2, #128	; 0x80
   13f40:	0092      	lsls	r2, r2, #2
   13f42:	4831      	ldr	r0, [pc, #196]	; (14008 <sd_mmc_check+0x398>)
   13f44:	4d2b      	ldr	r5, [pc, #172]	; (13ff4 <sd_mmc_check+0x384>)
   13f46:	47a8      	blx	r5
   13f48:	2800      	cmp	r0, #0
   13f4a:	d100      	bne.n	13f4e <sd_mmc_check+0x2de>
   13f4c:	e6b0      	b.n	13cb0 <sd_mmc_check+0x40>
   13f4e:	2500      	movs	r5, #0
   13f50:	4e2e      	ldr	r6, [pc, #184]	; (1400c <sd_mmc_check+0x39c>)
   13f52:	a805      	add	r0, sp, #20
   13f54:	47b0      	blx	r6
   13f56:	2800      	cmp	r0, #0
   13f58:	d100      	bne.n	13f5c <sd_mmc_check+0x2ec>
   13f5a:	e6a9      	b.n	13cb0 <sd_mmc_check+0x40>
   13f5c:	3501      	adds	r5, #1
   13f5e:	b2ad      	uxth	r5, r5
   13f60:	2d32      	cmp	r5, #50	; 0x32
   13f62:	d1f6      	bne.n	13f52 <sd_mmc_check+0x2e2>
   13f64:	4b12      	ldr	r3, [pc, #72]	; (13fb0 <sd_mmc_check+0x340>)
   13f66:	6819      	ldr	r1, [r3, #0]
   13f68:	7d8a      	ldrb	r2, [r1, #22]
   13f6a:	1192      	asrs	r2, r2, #6
   13f6c:	7d4b      	ldrb	r3, [r1, #21]
   13f6e:	009b      	lsls	r3, r3, #2
   13f70:	7d09      	ldrb	r1, [r1, #20]
   13f72:	0289      	lsls	r1, r1, #10
   13f74:	430b      	orrs	r3, r1
   13f76:	4313      	orrs	r3, r2
   13f78:	051b      	lsls	r3, r3, #20
   13f7a:	0d1b      	lsrs	r3, r3, #20
   13f7c:	4a21      	ldr	r2, [pc, #132]	; (14004 <sd_mmc_check+0x394>)
   13f7e:	4293      	cmp	r3, r2
   13f80:	d154      	bne.n	1402c <sd_mmc_check+0x3bc>
   13f82:	4e22      	ldr	r6, [pc, #136]	; (1400c <sd_mmc_check+0x39c>)
   13f84:	a806      	add	r0, sp, #24
   13f86:	47b0      	blx	r6
   13f88:	2800      	cmp	r0, #0
   13f8a:	d100      	bne.n	13f8e <sd_mmc_check+0x31e>
   13f8c:	e690      	b.n	13cb0 <sd_mmc_check+0x40>
   13f8e:	3501      	adds	r5, #1
   13f90:	b2ad      	uxth	r5, r5
   13f92:	2d35      	cmp	r5, #53	; 0x35
   13f94:	d9f6      	bls.n	13f84 <sd_mmc_check+0x314>
   13f96:	4b06      	ldr	r3, [pc, #24]	; (13fb0 <sd_mmc_check+0x340>)
   13f98:	681a      	ldr	r2, [r3, #0]
   13f9a:	9b06      	ldr	r3, [sp, #24]
   13f9c:	085b      	lsrs	r3, r3, #1
   13f9e:	6053      	str	r3, [r2, #4]
   13fa0:	e044      	b.n	1402c <sd_mmc_check+0x3bc>
   13fa2:	2314      	movs	r3, #20
   13fa4:	7313      	strb	r3, [r2, #12]
   13fa6:	e797      	b.n	13ed8 <sd_mmc_check+0x268>
   13fa8:	00013b55 	.word	0x00013b55
   13fac:	00013c35 	.word	0x00013c35
   13fb0:	20002b20 	.word	0x20002b20
   13fb4:	00014851 	.word	0x00014851
   13fb8:	00014a19 	.word	0x00014a19
   13fbc:	00005508 	.word	0x00005508
   13fc0:	00001110 	.word	0x00001110
   13fc4:	00013bb1 	.word	0x00013bb1
   13fc8:	00013b2d 	.word	0x00013b2d
   13fcc:	00014a31 	.word	0x00014a31
   13fd0:	0000053a 	.word	0x0000053a
   13fd4:	00001bef 	.word	0x00001bef
   13fd8:	00001101 	.word	0x00001101
   13fdc:	0000113b 	.word	0x0000113b
   13fe0:	00013be9 	.word	0x00013be9
   13fe4:	00019660 	.word	0x00019660
   13fe8:	0001967c 	.word	0x0001967c
   13fec:	00001137 	.word	0x00001137
   13ff0:	00081133 	.word	0x00081133
   13ff4:	00014889 	.word	0x00014889
   13ff8:	00014ab5 	.word	0x00014ab5
   13ffc:	00014b41 	.word	0x00014b41
   14000:	00019620 	.word	0x00019620
   14004:	00000fff 	.word	0x00000fff
   14008:	00081108 	.word	0x00081108
   1400c:	00014a3d 	.word	0x00014a3d
   14010:	2322      	movs	r3, #34	; 0x22
   14012:	7313      	strb	r3, [r2, #12]
   14014:	e760      	b.n	13ed8 <sd_mmc_check+0x268>
   14016:	2330      	movs	r3, #48	; 0x30
   14018:	7313      	strb	r3, [r2, #12]
   1401a:	e75d      	b.n	13ed8 <sd_mmc_check+0x268>
   1401c:	a806      	add	r0, sp, #24
   1401e:	4b36      	ldr	r3, [pc, #216]	; (140f8 <sd_mmc_check+0x488>)
   14020:	4798      	blx	r3
   14022:	2800      	cmp	r0, #0
   14024:	d100      	bne.n	14028 <sd_mmc_check+0x3b8>
   14026:	e643      	b.n	13cb0 <sd_mmc_check+0x40>
   14028:	3501      	adds	r5, #1
   1402a:	b2ad      	uxth	r5, r5
   1402c:	2d7f      	cmp	r5, #127	; 0x7f
   1402e:	d9f5      	bls.n	1401c <sd_mmc_check+0x3ac>
   14030:	2180      	movs	r1, #128	; 0x80
   14032:	0089      	lsls	r1, r1, #2
   14034:	4831      	ldr	r0, [pc, #196]	; (140fc <sd_mmc_check+0x48c>)
   14036:	4b32      	ldr	r3, [pc, #200]	; (14100 <sd_mmc_check+0x490>)
   14038:	4798      	blx	r3
   1403a:	2800      	cmp	r0, #0
   1403c:	d100      	bne.n	14040 <sd_mmc_check+0x3d0>
   1403e:	e637      	b.n	13cb0 <sd_mmc_check+0x40>
   14040:	4b30      	ldr	r3, [pc, #192]	; (14104 <sd_mmc_check+0x494>)
   14042:	4798      	blx	r3
   14044:	2800      	cmp	r0, #0
   14046:	d100      	bne.n	1404a <sd_mmc_check+0x3da>
   14048:	e632      	b.n	13cb0 <sd_mmc_check+0x40>
   1404a:	4b2f      	ldr	r3, [pc, #188]	; (14108 <sd_mmc_check+0x498>)
   1404c:	4798      	blx	r3
   1404e:	e65e      	b.n	13d0e <sd_mmc_check+0x9e>
   14050:	7dd0      	ldrb	r0, [r2, #23]
   14052:	7d93      	ldrb	r3, [r2, #22]
   14054:	021b      	lsls	r3, r3, #8
   14056:	7d51      	ldrb	r1, [r2, #21]
   14058:	0409      	lsls	r1, r1, #16
   1405a:	430b      	orrs	r3, r1
   1405c:	4303      	orrs	r3, r0
   1405e:	029b      	lsls	r3, r3, #10
   14060:	085b      	lsrs	r3, r3, #1
   14062:	2180      	movs	r1, #128	; 0x80
   14064:	0089      	lsls	r1, r1, #2
   14066:	468c      	mov	ip, r1
   14068:	4463      	add	r3, ip
   1406a:	6053      	str	r3, [r2, #4]
   1406c:	e6cd      	b.n	13e0a <sd_mmc_check+0x19a>
   1406e:	4b27      	ldr	r3, [pc, #156]	; (1410c <sd_mmc_check+0x49c>)
   14070:	681b      	ldr	r3, [r3, #0]
   14072:	2210      	movs	r2, #16
   14074:	731a      	strb	r2, [r3, #12]
   14076:	4b25      	ldr	r3, [pc, #148]	; (1410c <sd_mmc_check+0x49c>)
   14078:	681b      	ldr	r3, [r3, #0]
   1407a:	7adb      	ldrb	r3, [r3, #11]
   1407c:	2209      	movs	r2, #9
   1407e:	4013      	ands	r3, r2
   14080:	2b01      	cmp	r3, #1
   14082:	d000      	beq.n	14086 <sd_mmc_check+0x416>
   14084:	e638      	b.n	13cf8 <sd_mmc_check+0x88>
   14086:	e630      	b.n	13cea <sd_mmc_check+0x7a>
   14088:	4b20      	ldr	r3, [pc, #128]	; (1410c <sd_mmc_check+0x49c>)
   1408a:	681b      	ldr	r3, [r3, #0]
   1408c:	221a      	movs	r2, #26
   1408e:	731a      	strb	r2, [r3, #12]
   14090:	e7f1      	b.n	14076 <sd_mmc_check+0x406>
   14092:	ab06      	add	r3, sp, #24
   14094:	789b      	ldrb	r3, [r3, #2]
   14096:	09db      	lsrs	r3, r3, #7
   14098:	2b01      	cmp	r3, #1
   1409a:	d104      	bne.n	140a6 <sd_mmc_check+0x436>
   1409c:	4b1b      	ldr	r3, [pc, #108]	; (1410c <sd_mmc_check+0x49c>)
   1409e:	681b      	ldr	r3, [r3, #0]
   140a0:	2230      	movs	r2, #48	; 0x30
   140a2:	731a      	strb	r2, [r3, #12]
   140a4:	e7e7      	b.n	14076 <sd_mmc_check+0x406>
   140a6:	4b19      	ldr	r3, [pc, #100]	; (1410c <sd_mmc_check+0x49c>)
   140a8:	681b      	ldr	r3, [r3, #0]
   140aa:	2220      	movs	r2, #32
   140ac:	731a      	strb	r2, [r3, #12]
   140ae:	e7e2      	b.n	14076 <sd_mmc_check+0x406>
   140b0:	2600      	movs	r6, #0
   140b2:	e60d      	b.n	13cd0 <sd_mmc_check+0x60>
   140b4:	1e73      	subs	r3, r6, #1
   140b6:	419e      	sbcs	r6, r3
   140b8:	07b3      	lsls	r3, r6, #30
   140ba:	9303      	str	r3, [sp, #12]
   140bc:	4d14      	ldr	r5, [pc, #80]	; (14110 <sd_mmc_check+0x4a0>)
   140be:	4f10      	ldr	r7, [pc, #64]	; (14100 <sd_mmc_check+0x490>)
   140c0:	46b8      	mov	r8, r7
   140c2:	4e14      	ldr	r6, [pc, #80]	; (14114 <sd_mmc_check+0x4a4>)
   140c4:	2100      	movs	r1, #0
   140c6:	4814      	ldr	r0, [pc, #80]	; (14118 <sd_mmc_check+0x4a8>)
   140c8:	47b8      	blx	r7
   140ca:	2800      	cmp	r0, #0
   140cc:	d100      	bne.n	140d0 <sd_mmc_check+0x460>
   140ce:	e638      	b.n	13d42 <sd_mmc_check+0xd2>
   140d0:	9903      	ldr	r1, [sp, #12]
   140d2:	4812      	ldr	r0, [pc, #72]	; (1411c <sd_mmc_check+0x4ac>)
   140d4:	47c0      	blx	r8
   140d6:	2800      	cmp	r0, #0
   140d8:	d100      	bne.n	140dc <sd_mmc_check+0x46c>
   140da:	e632      	b.n	13d42 <sd_mmc_check+0xd2>
   140dc:	47b0      	blx	r6
   140de:	07c3      	lsls	r3, r0, #31
   140e0:	d400      	bmi.n	140e4 <sd_mmc_check+0x474>
   140e2:	e628      	b.n	13d36 <sd_mmc_check+0xc6>
   140e4:	3d01      	subs	r5, #1
   140e6:	2d00      	cmp	r5, #0
   140e8:	d1ec      	bne.n	140c4 <sd_mmc_check+0x454>
   140ea:	e62a      	b.n	13d42 <sd_mmc_check+0xd2>
   140ec:	2209      	movs	r2, #9
   140ee:	4013      	ands	r3, r2
   140f0:	2b01      	cmp	r3, #1
   140f2:	d000      	beq.n	140f6 <sd_mmc_check+0x486>
   140f4:	e609      	b.n	13d0a <sd_mmc_check+0x9a>
   140f6:	e5f8      	b.n	13cea <sd_mmc_check+0x7a>
   140f8:	00014a3d 	.word	0x00014a3d
   140fc:	00001110 	.word	0x00001110
   14100:	00014a19 	.word	0x00014a19
   14104:	00013bb1 	.word	0x00013bb1
   14108:	00013b2d 	.word	0x00013b2d
   1410c:	20002b20 	.word	0x20002b20
   14110:	00001bef 	.word	0x00001bef
   14114:	00014a31 	.word	0x00014a31
   14118:	00001137 	.word	0x00001137
   1411c:	00001129 	.word	0x00001129

00014120 <sd_mmc_get_type>:
   14120:	b510      	push	{r4, lr}
   14122:	4b06      	ldr	r3, [pc, #24]	; (1413c <sd_mmc_get_type+0x1c>)
   14124:	4798      	blx	r3
   14126:	2300      	movs	r3, #0
   14128:	2800      	cmp	r0, #0
   1412a:	d001      	beq.n	14130 <sd_mmc_get_type+0x10>
   1412c:	0018      	movs	r0, r3
   1412e:	bd10      	pop	{r4, pc}
   14130:	4b03      	ldr	r3, [pc, #12]	; (14140 <sd_mmc_get_type+0x20>)
   14132:	4798      	blx	r3
   14134:	4b03      	ldr	r3, [pc, #12]	; (14144 <sd_mmc_get_type+0x24>)
   14136:	681b      	ldr	r3, [r3, #0]
   14138:	7adb      	ldrb	r3, [r3, #11]
   1413a:	e7f7      	b.n	1412c <sd_mmc_get_type+0xc>
   1413c:	00013b55 	.word	0x00013b55
   14140:	00013c35 	.word	0x00013c35
   14144:	20002b20 	.word	0x20002b20

00014148 <sd_mmc_get_capacity>:
   14148:	b510      	push	{r4, lr}
   1414a:	4b06      	ldr	r3, [pc, #24]	; (14164 <sd_mmc_get_capacity+0x1c>)
   1414c:	4798      	blx	r3
   1414e:	2300      	movs	r3, #0
   14150:	2800      	cmp	r0, #0
   14152:	d001      	beq.n	14158 <sd_mmc_get_capacity+0x10>
   14154:	0018      	movs	r0, r3
   14156:	bd10      	pop	{r4, pc}
   14158:	4b03      	ldr	r3, [pc, #12]	; (14168 <sd_mmc_get_capacity+0x20>)
   1415a:	4798      	blx	r3
   1415c:	4b03      	ldr	r3, [pc, #12]	; (1416c <sd_mmc_get_capacity+0x24>)
   1415e:	681b      	ldr	r3, [r3, #0]
   14160:	685b      	ldr	r3, [r3, #4]
   14162:	e7f7      	b.n	14154 <sd_mmc_get_capacity+0xc>
   14164:	00013b55 	.word	0x00013b55
   14168:	00013c35 	.word	0x00013c35
   1416c:	20002b20 	.word	0x20002b20

00014170 <sd_mmc_is_write_protected>:
   14170:	2000      	movs	r0, #0
   14172:	4770      	bx	lr

00014174 <sd_mmc_init_read_blocks>:
   14174:	b570      	push	{r4, r5, r6, lr}
   14176:	b082      	sub	sp, #8
   14178:	000e      	movs	r6, r1
   1417a:	0015      	movs	r5, r2
   1417c:	4b16      	ldr	r3, [pc, #88]	; (141d8 <sd_mmc_init_read_blocks+0x64>)
   1417e:	4798      	blx	r3
   14180:	1e04      	subs	r4, r0, #0
   14182:	d002      	beq.n	1418a <sd_mmc_init_read_blocks+0x16>
   14184:	0020      	movs	r0, r4
   14186:	b002      	add	sp, #8
   14188:	bd70      	pop	{r4, r5, r6, pc}
   1418a:	4b14      	ldr	r3, [pc, #80]	; (141dc <sd_mmc_init_read_blocks+0x68>)
   1418c:	4798      	blx	r3
   1418e:	2800      	cmp	r0, #0
   14190:	d017      	beq.n	141c2 <sd_mmc_init_read_blocks+0x4e>
   14192:	2d01      	cmp	r5, #1
   14194:	d919      	bls.n	141ca <sd_mmc_init_read_blocks+0x56>
   14196:	4812      	ldr	r0, [pc, #72]	; (141e0 <sd_mmc_init_read_blocks+0x6c>)
   14198:	4b12      	ldr	r3, [pc, #72]	; (141e4 <sd_mmc_init_read_blocks+0x70>)
   1419a:	681b      	ldr	r3, [r3, #0]
   1419c:	7adb      	ldrb	r3, [r3, #11]
   1419e:	071b      	lsls	r3, r3, #28
   141a0:	d400      	bmi.n	141a4 <sd_mmc_init_read_blocks+0x30>
   141a2:	0276      	lsls	r6, r6, #9
   141a4:	2301      	movs	r3, #1
   141a6:	9300      	str	r3, [sp, #0]
   141a8:	002b      	movs	r3, r5
   141aa:	2280      	movs	r2, #128	; 0x80
   141ac:	0092      	lsls	r2, r2, #2
   141ae:	0031      	movs	r1, r6
   141b0:	4e0d      	ldr	r6, [pc, #52]	; (141e8 <sd_mmc_init_read_blocks+0x74>)
   141b2:	47b0      	blx	r6
   141b4:	2800      	cmp	r0, #0
   141b6:	d00a      	beq.n	141ce <sd_mmc_init_read_blocks+0x5a>
   141b8:	4b0c      	ldr	r3, [pc, #48]	; (141ec <sd_mmc_init_read_blocks+0x78>)
   141ba:	801d      	strh	r5, [r3, #0]
   141bc:	4b0c      	ldr	r3, [pc, #48]	; (141f0 <sd_mmc_init_read_blocks+0x7c>)
   141be:	801d      	strh	r5, [r3, #0]
   141c0:	e7e0      	b.n	14184 <sd_mmc_init_read_blocks+0x10>
   141c2:	4b0c      	ldr	r3, [pc, #48]	; (141f4 <sd_mmc_init_read_blocks+0x80>)
   141c4:	4798      	blx	r3
   141c6:	3405      	adds	r4, #5
   141c8:	e7dc      	b.n	14184 <sd_mmc_init_read_blocks+0x10>
   141ca:	480b      	ldr	r0, [pc, #44]	; (141f8 <sd_mmc_init_read_blocks+0x84>)
   141cc:	e7e4      	b.n	14198 <sd_mmc_init_read_blocks+0x24>
   141ce:	4b09      	ldr	r3, [pc, #36]	; (141f4 <sd_mmc_init_read_blocks+0x80>)
   141d0:	4798      	blx	r3
   141d2:	2405      	movs	r4, #5
   141d4:	e7d6      	b.n	14184 <sd_mmc_init_read_blocks+0x10>
   141d6:	46c0      	nop			; (mov r8, r8)
   141d8:	00013b55 	.word	0x00013b55
   141dc:	00013bb1 	.word	0x00013bb1
   141e0:	00101112 	.word	0x00101112
   141e4:	20002b20 	.word	0x20002b20
   141e8:	00014889 	.word	0x00014889
   141ec:	20002b44 	.word	0x20002b44
   141f0:	20002b46 	.word	0x20002b46
   141f4:	00013c35 	.word	0x00013c35
   141f8:	00081111 	.word	0x00081111

000141fc <sd_mmc_start_read_blocks>:
   141fc:	b510      	push	{r4, lr}
   141fe:	000c      	movs	r4, r1
   14200:	4b07      	ldr	r3, [pc, #28]	; (14220 <sd_mmc_start_read_blocks+0x24>)
   14202:	4798      	blx	r3
   14204:	2800      	cmp	r0, #0
   14206:	d104      	bne.n	14212 <sd_mmc_start_read_blocks+0x16>
   14208:	2200      	movs	r2, #0
   1420a:	4b06      	ldr	r3, [pc, #24]	; (14224 <sd_mmc_start_read_blocks+0x28>)
   1420c:	801a      	strh	r2, [r3, #0]
   1420e:	3005      	adds	r0, #5
   14210:	bd10      	pop	{r4, pc}
   14212:	4a04      	ldr	r2, [pc, #16]	; (14224 <sd_mmc_start_read_blocks+0x28>)
   14214:	8813      	ldrh	r3, [r2, #0]
   14216:	1b1c      	subs	r4, r3, r4
   14218:	8014      	strh	r4, [r2, #0]
   1421a:	2000      	movs	r0, #0
   1421c:	e7f8      	b.n	14210 <sd_mmc_start_read_blocks+0x14>
   1421e:	46c0      	nop			; (mov r8, r8)
   14220:	00014ab5 	.word	0x00014ab5
   14224:	20002b44 	.word	0x20002b44

00014228 <sd_mmc_wait_end_of_read_blocks>:
   14228:	b510      	push	{r4, lr}
   1422a:	0004      	movs	r4, r0
   1422c:	4b14      	ldr	r3, [pc, #80]	; (14280 <sd_mmc_wait_end_of_read_blocks+0x58>)
   1422e:	4798      	blx	r3
   14230:	2305      	movs	r3, #5
   14232:	2800      	cmp	r0, #0
   14234:	d101      	bne.n	1423a <sd_mmc_wait_end_of_read_blocks+0x12>
   14236:	0018      	movs	r0, r3
   14238:	bd10      	pop	{r4, pc}
   1423a:	2c00      	cmp	r4, #0
   1423c:	d010      	beq.n	14260 <sd_mmc_wait_end_of_read_blocks+0x38>
   1423e:	2200      	movs	r2, #0
   14240:	4b10      	ldr	r3, [pc, #64]	; (14284 <sd_mmc_wait_end_of_read_blocks+0x5c>)
   14242:	801a      	strh	r2, [r3, #0]
   14244:	4b10      	ldr	r3, [pc, #64]	; (14288 <sd_mmc_wait_end_of_read_blocks+0x60>)
   14246:	881b      	ldrh	r3, [r3, #0]
   14248:	2b01      	cmp	r3, #1
   1424a:	d00f      	beq.n	1426c <sd_mmc_wait_end_of_read_blocks+0x44>
   1424c:	2100      	movs	r1, #0
   1424e:	480f      	ldr	r0, [pc, #60]	; (1428c <sd_mmc_wait_end_of_read_blocks+0x64>)
   14250:	4b0f      	ldr	r3, [pc, #60]	; (14290 <sd_mmc_wait_end_of_read_blocks+0x68>)
   14252:	4798      	blx	r3
   14254:	2800      	cmp	r0, #0
   14256:	d00d      	beq.n	14274 <sd_mmc_wait_end_of_read_blocks+0x4c>
   14258:	4b0e      	ldr	r3, [pc, #56]	; (14294 <sd_mmc_wait_end_of_read_blocks+0x6c>)
   1425a:	4798      	blx	r3
   1425c:	2300      	movs	r3, #0
   1425e:	e7ea      	b.n	14236 <sd_mmc_wait_end_of_read_blocks+0xe>
   14260:	4b08      	ldr	r3, [pc, #32]	; (14284 <sd_mmc_wait_end_of_read_blocks+0x5c>)
   14262:	881a      	ldrh	r2, [r3, #0]
   14264:	2300      	movs	r3, #0
   14266:	2a00      	cmp	r2, #0
   14268:	d0ec      	beq.n	14244 <sd_mmc_wait_end_of_read_blocks+0x1c>
   1426a:	e7e4      	b.n	14236 <sd_mmc_wait_end_of_read_blocks+0xe>
   1426c:	4b09      	ldr	r3, [pc, #36]	; (14294 <sd_mmc_wait_end_of_read_blocks+0x6c>)
   1426e:	4798      	blx	r3
   14270:	2300      	movs	r3, #0
   14272:	e7e0      	b.n	14236 <sd_mmc_wait_end_of_read_blocks+0xe>
   14274:	2100      	movs	r1, #0
   14276:	4805      	ldr	r0, [pc, #20]	; (1428c <sd_mmc_wait_end_of_read_blocks+0x64>)
   14278:	4b05      	ldr	r3, [pc, #20]	; (14290 <sd_mmc_wait_end_of_read_blocks+0x68>)
   1427a:	4798      	blx	r3
   1427c:	e7ec      	b.n	14258 <sd_mmc_wait_end_of_read_blocks+0x30>
   1427e:	46c0      	nop			; (mov r8, r8)
   14280:	00014b41 	.word	0x00014b41
   14284:	20002b44 	.word	0x20002b44
   14288:	20002b46 	.word	0x20002b46
   1428c:	0000310c 	.word	0x0000310c
   14290:	00014a19 	.word	0x00014a19
   14294:	00013c35 	.word	0x00013c35

00014298 <sd_mmc_init_write_blocks>:
   14298:	b570      	push	{r4, r5, r6, lr}
   1429a:	b082      	sub	sp, #8
   1429c:	000e      	movs	r6, r1
   1429e:	0015      	movs	r5, r2
   142a0:	4b11      	ldr	r3, [pc, #68]	; (142e8 <sd_mmc_init_write_blocks+0x50>)
   142a2:	4798      	blx	r3
   142a4:	1e04      	subs	r4, r0, #0
   142a6:	d116      	bne.n	142d6 <sd_mmc_init_write_blocks+0x3e>
   142a8:	2d01      	cmp	r5, #1
   142aa:	d917      	bls.n	142dc <sd_mmc_init_write_blocks+0x44>
   142ac:	480f      	ldr	r0, [pc, #60]	; (142ec <sd_mmc_init_write_blocks+0x54>)
   142ae:	4b10      	ldr	r3, [pc, #64]	; (142f0 <sd_mmc_init_write_blocks+0x58>)
   142b0:	681b      	ldr	r3, [r3, #0]
   142b2:	7adb      	ldrb	r3, [r3, #11]
   142b4:	071b      	lsls	r3, r3, #28
   142b6:	d400      	bmi.n	142ba <sd_mmc_init_write_blocks+0x22>
   142b8:	0276      	lsls	r6, r6, #9
   142ba:	2301      	movs	r3, #1
   142bc:	9300      	str	r3, [sp, #0]
   142be:	002b      	movs	r3, r5
   142c0:	2280      	movs	r2, #128	; 0x80
   142c2:	0092      	lsls	r2, r2, #2
   142c4:	0031      	movs	r1, r6
   142c6:	4e0b      	ldr	r6, [pc, #44]	; (142f4 <sd_mmc_init_write_blocks+0x5c>)
   142c8:	47b0      	blx	r6
   142ca:	2800      	cmp	r0, #0
   142cc:	d008      	beq.n	142e0 <sd_mmc_init_write_blocks+0x48>
   142ce:	4b0a      	ldr	r3, [pc, #40]	; (142f8 <sd_mmc_init_write_blocks+0x60>)
   142d0:	801d      	strh	r5, [r3, #0]
   142d2:	4b0a      	ldr	r3, [pc, #40]	; (142fc <sd_mmc_init_write_blocks+0x64>)
   142d4:	801d      	strh	r5, [r3, #0]
   142d6:	0020      	movs	r0, r4
   142d8:	b002      	add	sp, #8
   142da:	bd70      	pop	{r4, r5, r6, pc}
   142dc:	4808      	ldr	r0, [pc, #32]	; (14300 <sd_mmc_init_write_blocks+0x68>)
   142de:	e7e6      	b.n	142ae <sd_mmc_init_write_blocks+0x16>
   142e0:	4b08      	ldr	r3, [pc, #32]	; (14304 <sd_mmc_init_write_blocks+0x6c>)
   142e2:	4798      	blx	r3
   142e4:	2405      	movs	r4, #5
   142e6:	e7f6      	b.n	142d6 <sd_mmc_init_write_blocks+0x3e>
   142e8:	00013b55 	.word	0x00013b55
   142ec:	00109119 	.word	0x00109119
   142f0:	20002b20 	.word	0x20002b20
   142f4:	00014889 	.word	0x00014889
   142f8:	20002b44 	.word	0x20002b44
   142fc:	20002b46 	.word	0x20002b46
   14300:	00089118 	.word	0x00089118
   14304:	00013c35 	.word	0x00013c35

00014308 <sd_mmc_start_write_blocks>:
   14308:	b510      	push	{r4, lr}
   1430a:	000c      	movs	r4, r1
   1430c:	4b07      	ldr	r3, [pc, #28]	; (1432c <sd_mmc_start_write_blocks+0x24>)
   1430e:	4798      	blx	r3
   14310:	2800      	cmp	r0, #0
   14312:	d104      	bne.n	1431e <sd_mmc_start_write_blocks+0x16>
   14314:	2200      	movs	r2, #0
   14316:	4b06      	ldr	r3, [pc, #24]	; (14330 <sd_mmc_start_write_blocks+0x28>)
   14318:	801a      	strh	r2, [r3, #0]
   1431a:	3005      	adds	r0, #5
   1431c:	bd10      	pop	{r4, pc}
   1431e:	4a04      	ldr	r2, [pc, #16]	; (14330 <sd_mmc_start_write_blocks+0x28>)
   14320:	8813      	ldrh	r3, [r2, #0]
   14322:	1b1c      	subs	r4, r3, r4
   14324:	8014      	strh	r4, [r2, #0]
   14326:	2000      	movs	r0, #0
   14328:	e7f8      	b.n	1431c <sd_mmc_start_write_blocks+0x14>
   1432a:	46c0      	nop			; (mov r8, r8)
   1432c:	00014b45 	.word	0x00014b45
   14330:	20002b44 	.word	0x20002b44

00014334 <sd_mmc_wait_end_of_write_blocks>:
   14334:	b510      	push	{r4, lr}
   14336:	0004      	movs	r4, r0
   14338:	4b0e      	ldr	r3, [pc, #56]	; (14374 <sd_mmc_wait_end_of_write_blocks+0x40>)
   1433a:	4798      	blx	r3
   1433c:	2305      	movs	r3, #5
   1433e:	2800      	cmp	r0, #0
   14340:	d101      	bne.n	14346 <sd_mmc_wait_end_of_write_blocks+0x12>
   14342:	0018      	movs	r0, r3
   14344:	bd10      	pop	{r4, pc}
   14346:	2c00      	cmp	r4, #0
   14348:	d00a      	beq.n	14360 <sd_mmc_wait_end_of_write_blocks+0x2c>
   1434a:	2200      	movs	r2, #0
   1434c:	4b0a      	ldr	r3, [pc, #40]	; (14378 <sd_mmc_wait_end_of_write_blocks+0x44>)
   1434e:	801a      	strh	r2, [r3, #0]
   14350:	4b0a      	ldr	r3, [pc, #40]	; (1437c <sd_mmc_wait_end_of_write_blocks+0x48>)
   14352:	881b      	ldrh	r3, [r3, #0]
   14354:	2b01      	cmp	r3, #1
   14356:	d009      	beq.n	1436c <sd_mmc_wait_end_of_write_blocks+0x38>
   14358:	4b09      	ldr	r3, [pc, #36]	; (14380 <sd_mmc_wait_end_of_write_blocks+0x4c>)
   1435a:	4798      	blx	r3
   1435c:	2300      	movs	r3, #0
   1435e:	e7f0      	b.n	14342 <sd_mmc_wait_end_of_write_blocks+0xe>
   14360:	4b05      	ldr	r3, [pc, #20]	; (14378 <sd_mmc_wait_end_of_write_blocks+0x44>)
   14362:	881a      	ldrh	r2, [r3, #0]
   14364:	2300      	movs	r3, #0
   14366:	2a00      	cmp	r2, #0
   14368:	d0f2      	beq.n	14350 <sd_mmc_wait_end_of_write_blocks+0x1c>
   1436a:	e7ea      	b.n	14342 <sd_mmc_wait_end_of_write_blocks+0xe>
   1436c:	4b04      	ldr	r3, [pc, #16]	; (14380 <sd_mmc_wait_end_of_write_blocks+0x4c>)
   1436e:	4798      	blx	r3
   14370:	2300      	movs	r3, #0
   14372:	e7e6      	b.n	14342 <sd_mmc_wait_end_of_write_blocks+0xe>
   14374:	00014bc5 	.word	0x00014bc5
   14378:	20002b44 	.word	0x20002b44
   1437c:	20002b46 	.word	0x20002b46
   14380:	00013c35 	.word	0x00013c35

00014384 <sd_mmc_test_unit_ready>:
   14384:	b510      	push	{r4, lr}
   14386:	0004      	movs	r4, r0
   14388:	4b0f      	ldr	r3, [pc, #60]	; (143c8 <sd_mmc_test_unit_ready+0x44>)
   1438a:	4798      	blx	r3
   1438c:	2801      	cmp	r0, #1
   1438e:	d019      	beq.n	143c4 <sd_mmc_test_unit_ready+0x40>
   14390:	2800      	cmp	r0, #0
   14392:	d003      	beq.n	1439c <sd_mmc_test_unit_ready+0x18>
   14394:	2802      	cmp	r0, #2
   14396:	d010      	beq.n	143ba <sd_mmc_test_unit_ready+0x36>
   14398:	2001      	movs	r0, #1
   1439a:	bd10      	pop	{r4, pc}
   1439c:	4b0b      	ldr	r3, [pc, #44]	; (143cc <sd_mmc_test_unit_ready+0x48>)
   1439e:	5d1b      	ldrb	r3, [r3, r4]
   143a0:	2002      	movs	r0, #2
   143a2:	2b00      	cmp	r3, #0
   143a4:	d1f9      	bne.n	1439a <sd_mmc_test_unit_ready+0x16>
   143a6:	0020      	movs	r0, r4
   143a8:	4b09      	ldr	r3, [pc, #36]	; (143d0 <sd_mmc_test_unit_ready+0x4c>)
   143aa:	4798      	blx	r3
   143ac:	0003      	movs	r3, r0
   143ae:	2003      	movs	r0, #3
   143b0:	4018      	ands	r0, r3
   143b2:	4243      	negs	r3, r0
   143b4:	4158      	adcs	r0, r3
   143b6:	0040      	lsls	r0, r0, #1
   143b8:	e7ef      	b.n	1439a <sd_mmc_test_unit_ready+0x16>
   143ba:	2200      	movs	r2, #0
   143bc:	4b03      	ldr	r3, [pc, #12]	; (143cc <sd_mmc_test_unit_ready+0x48>)
   143be:	551a      	strb	r2, [r3, r4]
   143c0:	2002      	movs	r0, #2
   143c2:	e7ea      	b.n	1439a <sd_mmc_test_unit_ready+0x16>
   143c4:	2003      	movs	r0, #3
   143c6:	e7e8      	b.n	1439a <sd_mmc_test_unit_ready+0x16>
   143c8:	00013c71 	.word	0x00013c71
   143cc:	20002b4c 	.word	0x20002b4c
   143d0:	00014121 	.word	0x00014121

000143d4 <sd_mmc_test_unit_ready_0>:
   143d4:	b510      	push	{r4, lr}
   143d6:	2000      	movs	r0, #0
   143d8:	4b01      	ldr	r3, [pc, #4]	; (143e0 <sd_mmc_test_unit_ready_0+0xc>)
   143da:	4798      	blx	r3
   143dc:	bd10      	pop	{r4, pc}
   143de:	46c0      	nop			; (mov r8, r8)
   143e0:	00014385 	.word	0x00014385

000143e4 <sd_mmc_read_capacity>:
   143e4:	b570      	push	{r4, r5, r6, lr}
   143e6:	0004      	movs	r4, r0
   143e8:	000d      	movs	r5, r1
   143ea:	4b04      	ldr	r3, [pc, #16]	; (143fc <sd_mmc_read_capacity+0x18>)
   143ec:	4798      	blx	r3
   143ee:	0040      	lsls	r0, r0, #1
   143f0:	3801      	subs	r0, #1
   143f2:	6028      	str	r0, [r5, #0]
   143f4:	0020      	movs	r0, r4
   143f6:	4b02      	ldr	r3, [pc, #8]	; (14400 <sd_mmc_read_capacity+0x1c>)
   143f8:	4798      	blx	r3
   143fa:	bd70      	pop	{r4, r5, r6, pc}
   143fc:	00014149 	.word	0x00014149
   14400:	00014385 	.word	0x00014385

00014404 <sd_mmc_read_capacity_0>:
   14404:	b510      	push	{r4, lr}
   14406:	0001      	movs	r1, r0
   14408:	2000      	movs	r0, #0
   1440a:	4b01      	ldr	r3, [pc, #4]	; (14410 <sd_mmc_read_capacity_0+0xc>)
   1440c:	4798      	blx	r3
   1440e:	bd10      	pop	{r4, pc}
   14410:	000143e5 	.word	0x000143e5

00014414 <sd_mmc_wr_protect_0>:
   14414:	b510      	push	{r4, lr}
   14416:	2000      	movs	r0, #0
   14418:	4b01      	ldr	r3, [pc, #4]	; (14420 <sd_mmc_wr_protect_0+0xc>)
   1441a:	4798      	blx	r3
   1441c:	bd10      	pop	{r4, pc}
   1441e:	46c0      	nop			; (mov r8, r8)
   14420:	00014171 	.word	0x00014171

00014424 <sd_mmc_mem_2_ram>:
   14424:	b510      	push	{r4, lr}
   14426:	0014      	movs	r4, r2
   14428:	2201      	movs	r2, #1
   1442a:	4b0c      	ldr	r3, [pc, #48]	; (1445c <sd_mmc_mem_2_ram+0x38>)
   1442c:	4798      	blx	r3
   1442e:	2800      	cmp	r0, #0
   14430:	d004      	beq.n	1443c <sd_mmc_mem_2_ram+0x18>
   14432:	3802      	subs	r0, #2
   14434:	4243      	negs	r3, r0
   14436:	4158      	adcs	r0, r3
   14438:	3001      	adds	r0, #1
   1443a:	bd10      	pop	{r4, pc}
   1443c:	2101      	movs	r1, #1
   1443e:	0020      	movs	r0, r4
   14440:	4b07      	ldr	r3, [pc, #28]	; (14460 <sd_mmc_mem_2_ram+0x3c>)
   14442:	4798      	blx	r3
   14444:	0003      	movs	r3, r0
   14446:	2001      	movs	r0, #1
   14448:	2b00      	cmp	r3, #0
   1444a:	d1f6      	bne.n	1443a <sd_mmc_mem_2_ram+0x16>
   1444c:	2000      	movs	r0, #0
   1444e:	4b05      	ldr	r3, [pc, #20]	; (14464 <sd_mmc_mem_2_ram+0x40>)
   14450:	4798      	blx	r3
   14452:	1e43      	subs	r3, r0, #1
   14454:	4198      	sbcs	r0, r3
   14456:	b2c0      	uxtb	r0, r0
   14458:	e7ef      	b.n	1443a <sd_mmc_mem_2_ram+0x16>
   1445a:	46c0      	nop			; (mov r8, r8)
   1445c:	00014175 	.word	0x00014175
   14460:	000141fd 	.word	0x000141fd
   14464:	00014229 	.word	0x00014229

00014468 <sd_mmc_mem_2_ram_0>:
   14468:	b510      	push	{r4, lr}
   1446a:	000a      	movs	r2, r1
   1446c:	0001      	movs	r1, r0
   1446e:	2000      	movs	r0, #0
   14470:	4b01      	ldr	r3, [pc, #4]	; (14478 <sd_mmc_mem_2_ram_0+0x10>)
   14472:	4798      	blx	r3
   14474:	bd10      	pop	{r4, pc}
   14476:	46c0      	nop			; (mov r8, r8)
   14478:	00014425 	.word	0x00014425

0001447c <sd_mmc_ram_2_mem>:
   1447c:	b510      	push	{r4, lr}
   1447e:	0014      	movs	r4, r2
   14480:	2201      	movs	r2, #1
   14482:	4b0c      	ldr	r3, [pc, #48]	; (144b4 <sd_mmc_ram_2_mem+0x38>)
   14484:	4798      	blx	r3
   14486:	2800      	cmp	r0, #0
   14488:	d004      	beq.n	14494 <sd_mmc_ram_2_mem+0x18>
   1448a:	3802      	subs	r0, #2
   1448c:	4243      	negs	r3, r0
   1448e:	4158      	adcs	r0, r3
   14490:	3001      	adds	r0, #1
   14492:	bd10      	pop	{r4, pc}
   14494:	2101      	movs	r1, #1
   14496:	0020      	movs	r0, r4
   14498:	4b07      	ldr	r3, [pc, #28]	; (144b8 <sd_mmc_ram_2_mem+0x3c>)
   1449a:	4798      	blx	r3
   1449c:	0003      	movs	r3, r0
   1449e:	2001      	movs	r0, #1
   144a0:	2b00      	cmp	r3, #0
   144a2:	d1f6      	bne.n	14492 <sd_mmc_ram_2_mem+0x16>
   144a4:	2000      	movs	r0, #0
   144a6:	4b05      	ldr	r3, [pc, #20]	; (144bc <sd_mmc_ram_2_mem+0x40>)
   144a8:	4798      	blx	r3
   144aa:	1e43      	subs	r3, r0, #1
   144ac:	4198      	sbcs	r0, r3
   144ae:	b2c0      	uxtb	r0, r0
   144b0:	e7ef      	b.n	14492 <sd_mmc_ram_2_mem+0x16>
   144b2:	46c0      	nop			; (mov r8, r8)
   144b4:	00014299 	.word	0x00014299
   144b8:	00014309 	.word	0x00014309
   144bc:	00014335 	.word	0x00014335

000144c0 <sd_mmc_ram_2_mem_0>:
   144c0:	b510      	push	{r4, lr}
   144c2:	000a      	movs	r2, r1
   144c4:	0001      	movs	r1, r0
   144c6:	2000      	movs	r0, #0
   144c8:	4b01      	ldr	r3, [pc, #4]	; (144d0 <sd_mmc_ram_2_mem_0+0x10>)
   144ca:	4798      	blx	r3
   144cc:	bd10      	pop	{r4, pc}
   144ce:	46c0      	nop			; (mov r8, r8)
   144d0:	0001447d 	.word	0x0001447d

000144d4 <sd_mmc_spi_start_write_block>:
   144d4:	b500      	push	{lr}
   144d6:	b083      	sub	sp, #12
   144d8:	466b      	mov	r3, sp
   144da:	1dd9      	adds	r1, r3, #7
   144dc:	23ff      	movs	r3, #255	; 0xff
   144de:	700b      	strb	r3, [r1, #0]
   144e0:	2201      	movs	r2, #1
   144e2:	480b      	ldr	r0, [pc, #44]	; (14510 <sd_mmc_spi_start_write_block+0x3c>)
   144e4:	4b0b      	ldr	r3, [pc, #44]	; (14514 <sd_mmc_spi_start_write_block+0x40>)
   144e6:	4798      	blx	r3
   144e8:	4b0b      	ldr	r3, [pc, #44]	; (14518 <sd_mmc_spi_start_write_block+0x44>)
   144ea:	881b      	ldrh	r3, [r3, #0]
   144ec:	2b01      	cmp	r3, #1
   144ee:	d00a      	beq.n	14506 <sd_mmc_spi_start_write_block+0x32>
   144f0:	22fc      	movs	r2, #252	; 0xfc
   144f2:	466b      	mov	r3, sp
   144f4:	719a      	strb	r2, [r3, #6]
   144f6:	2201      	movs	r2, #1
   144f8:	466b      	mov	r3, sp
   144fa:	1d99      	adds	r1, r3, #6
   144fc:	4804      	ldr	r0, [pc, #16]	; (14510 <sd_mmc_spi_start_write_block+0x3c>)
   144fe:	4b05      	ldr	r3, [pc, #20]	; (14514 <sd_mmc_spi_start_write_block+0x40>)
   14500:	4798      	blx	r3
   14502:	b003      	add	sp, #12
   14504:	bd00      	pop	{pc}
   14506:	22fe      	movs	r2, #254	; 0xfe
   14508:	466b      	mov	r3, sp
   1450a:	719a      	strb	r2, [r3, #6]
   1450c:	e7f3      	b.n	144f6 <sd_mmc_spi_start_write_block+0x22>
   1450e:	46c0      	nop			; (mov r8, r8)
   14510:	20002b50 	.word	0x20002b50
   14514:	00015925 	.word	0x00015925
   14518:	20002b94 	.word	0x20002b94

0001451c <sd_mmc_spi_wait_busy>:
   1451c:	b5f0      	push	{r4, r5, r6, r7, lr}
   1451e:	b083      	sub	sp, #12
   14520:	466b      	mov	r3, sp
   14522:	1ddc      	adds	r4, r3, #7
   14524:	23ff      	movs	r3, #255	; 0xff
   14526:	7023      	strb	r3, [r4, #0]
   14528:	4e12      	ldr	r6, [pc, #72]	; (14574 <sd_mmc_spi_wait_busy+0x58>)
   1452a:	2201      	movs	r2, #1
   1452c:	0021      	movs	r1, r4
   1452e:	0030      	movs	r0, r6
   14530:	4d11      	ldr	r5, [pc, #68]	; (14578 <sd_mmc_spi_wait_busy+0x5c>)
   14532:	47a8      	blx	r5
   14534:	23ff      	movs	r3, #255	; 0xff
   14536:	2201      	movs	r2, #1
   14538:	0021      	movs	r1, r4
   1453a:	0030      	movs	r0, r6
   1453c:	47a8      	blx	r5
   1453e:	23ff      	movs	r3, #255	; 0xff
   14540:	2201      	movs	r2, #1
   14542:	0021      	movs	r1, r4
   14544:	0030      	movs	r0, r6
   14546:	47a8      	blx	r5
   14548:	4c0c      	ldr	r4, [pc, #48]	; (1457c <sd_mmc_spi_wait_busy+0x60>)
   1454a:	466b      	mov	r3, sp
   1454c:	1ddd      	adds	r5, r3, #7
   1454e:	4e09      	ldr	r6, [pc, #36]	; (14574 <sd_mmc_spi_wait_busy+0x58>)
   14550:	4f09      	ldr	r7, [pc, #36]	; (14578 <sd_mmc_spi_wait_busy+0x5c>)
   14552:	782b      	ldrb	r3, [r5, #0]
   14554:	2bff      	cmp	r3, #255	; 0xff
   14556:	d009      	beq.n	1456c <sd_mmc_spi_wait_busy+0x50>
   14558:	23ff      	movs	r3, #255	; 0xff
   1455a:	2201      	movs	r2, #1
   1455c:	0029      	movs	r1, r5
   1455e:	0030      	movs	r0, r6
   14560:	47b8      	blx	r7
   14562:	3c01      	subs	r4, #1
   14564:	2c00      	cmp	r4, #0
   14566:	d1f4      	bne.n	14552 <sd_mmc_spi_wait_busy+0x36>
   14568:	2000      	movs	r0, #0
   1456a:	e000      	b.n	1456e <sd_mmc_spi_wait_busy+0x52>
   1456c:	2001      	movs	r0, #1
   1456e:	b003      	add	sp, #12
   14570:	bdf0      	pop	{r4, r5, r6, r7, pc}
   14572:	46c0      	nop			; (mov r8, r8)
   14574:	20002b50 	.word	0x20002b50
   14578:	0001575d 	.word	0x0001575d
   1457c:	00030d40 	.word	0x00030d40

00014580 <sd_mmc_spi_stop_multiwrite_block>:
   14580:	b570      	push	{r4, r5, r6, lr}
   14582:	b082      	sub	sp, #8
   14584:	4b14      	ldr	r3, [pc, #80]	; (145d8 <sd_mmc_spi_stop_multiwrite_block+0x58>)
   14586:	881c      	ldrh	r4, [r3, #0]
   14588:	2c01      	cmp	r4, #1
   1458a:	d023      	beq.n	145d4 <sd_mmc_spi_stop_multiwrite_block+0x54>
   1458c:	4b13      	ldr	r3, [pc, #76]	; (145dc <sd_mmc_spi_stop_multiwrite_block+0x5c>)
   1458e:	8819      	ldrh	r1, [r3, #0]
   14590:	4b13      	ldr	r3, [pc, #76]	; (145e0 <sd_mmc_spi_stop_multiwrite_block+0x60>)
   14592:	6818      	ldr	r0, [r3, #0]
   14594:	4b13      	ldr	r3, [pc, #76]	; (145e4 <sd_mmc_spi_stop_multiwrite_block+0x64>)
   14596:	4798      	blx	r3
   14598:	2301      	movs	r3, #1
   1459a:	4284      	cmp	r4, r0
   1459c:	d902      	bls.n	145a4 <sd_mmc_spi_stop_multiwrite_block+0x24>
   1459e:	0018      	movs	r0, r3
   145a0:	b002      	add	sp, #8
   145a2:	bd70      	pop	{r4, r5, r6, pc}
   145a4:	466b      	mov	r3, sp
   145a6:	1ddc      	adds	r4, r3, #7
   145a8:	23ff      	movs	r3, #255	; 0xff
   145aa:	7023      	strb	r3, [r4, #0]
   145ac:	4e0e      	ldr	r6, [pc, #56]	; (145e8 <sd_mmc_spi_stop_multiwrite_block+0x68>)
   145ae:	2201      	movs	r2, #1
   145b0:	0021      	movs	r1, r4
   145b2:	0030      	movs	r0, r6
   145b4:	4d0d      	ldr	r5, [pc, #52]	; (145ec <sd_mmc_spi_stop_multiwrite_block+0x6c>)
   145b6:	47a8      	blx	r5
   145b8:	23fd      	movs	r3, #253	; 0xfd
   145ba:	7023      	strb	r3, [r4, #0]
   145bc:	2201      	movs	r2, #1
   145be:	0021      	movs	r1, r4
   145c0:	0030      	movs	r0, r6
   145c2:	47a8      	blx	r5
   145c4:	4b0a      	ldr	r3, [pc, #40]	; (145f0 <sd_mmc_spi_stop_multiwrite_block+0x70>)
   145c6:	4798      	blx	r3
   145c8:	1e03      	subs	r3, r0, #0
   145ca:	d1e8      	bne.n	1459e <sd_mmc_spi_stop_multiwrite_block+0x1e>
   145cc:	2105      	movs	r1, #5
   145ce:	4a09      	ldr	r2, [pc, #36]	; (145f4 <sd_mmc_spi_stop_multiwrite_block+0x74>)
   145d0:	7011      	strb	r1, [r2, #0]
   145d2:	e7e4      	b.n	1459e <sd_mmc_spi_stop_multiwrite_block+0x1e>
   145d4:	2301      	movs	r3, #1
   145d6:	e7e2      	b.n	1459e <sd_mmc_spi_stop_multiwrite_block+0x1e>
   145d8:	20002b94 	.word	0x20002b94
   145dc:	20002b8c 	.word	0x20002b8c
   145e0:	20002b9c 	.word	0x20002b9c
   145e4:	00018851 	.word	0x00018851
   145e8:	20002b50 	.word	0x20002b50
   145ec:	00015925 	.word	0x00015925
   145f0:	0001451d 	.word	0x0001451d
   145f4:	20002b93 	.word	0x20002b93

000145f8 <sd_mmc_spi_start_read_block>:
   145f8:	b5f0      	push	{r4, r5, r6, r7, lr}
   145fa:	b083      	sub	sp, #12
   145fc:	2200      	movs	r2, #0
   145fe:	466b      	mov	r3, sp
   14600:	71da      	strb	r2, [r3, #7]
   14602:	4c14      	ldr	r4, [pc, #80]	; (14654 <sd_mmc_spi_start_read_block+0x5c>)
   14604:	466b      	mov	r3, sp
   14606:	1ddd      	adds	r5, r3, #7
   14608:	4e13      	ldr	r6, [pc, #76]	; (14658 <sd_mmc_spi_start_read_block+0x60>)
   1460a:	4f14      	ldr	r7, [pc, #80]	; (1465c <sd_mmc_spi_start_read_block+0x64>)
   1460c:	23ff      	movs	r3, #255	; 0xff
   1460e:	2201      	movs	r2, #1
   14610:	0029      	movs	r1, r5
   14612:	0030      	movs	r0, r6
   14614:	47b8      	blx	r7
   14616:	782b      	ldrb	r3, [r5, #0]
   14618:	220f      	movs	r2, #15
   1461a:	0019      	movs	r1, r3
   1461c:	4391      	bics	r1, r2
   1461e:	1e0a      	subs	r2, r1, #0
   14620:	d009      	beq.n	14636 <sd_mmc_spi_start_read_block+0x3e>
   14622:	2bfe      	cmp	r3, #254	; 0xfe
   14624:	d013      	beq.n	1464e <sd_mmc_spi_start_read_block+0x56>
   14626:	3c01      	subs	r4, #1
   14628:	2c00      	cmp	r4, #0
   1462a:	d1ef      	bne.n	1460c <sd_mmc_spi_start_read_block+0x14>
   1462c:	2204      	movs	r2, #4
   1462e:	4b0c      	ldr	r3, [pc, #48]	; (14660 <sd_mmc_spi_start_read_block+0x68>)
   14630:	701a      	strb	r2, [r3, #0]
   14632:	2000      	movs	r0, #0
   14634:	e00c      	b.n	14650 <sd_mmc_spi_start_read_block+0x58>
   14636:	075b      	lsls	r3, r3, #29
   14638:	d004      	beq.n	14644 <sd_mmc_spi_start_read_block+0x4c>
   1463a:	3207      	adds	r2, #7
   1463c:	4b08      	ldr	r3, [pc, #32]	; (14660 <sd_mmc_spi_start_read_block+0x68>)
   1463e:	701a      	strb	r2, [r3, #0]
   14640:	2000      	movs	r0, #0
   14642:	e005      	b.n	14650 <sd_mmc_spi_start_read_block+0x58>
   14644:	220b      	movs	r2, #11
   14646:	4b06      	ldr	r3, [pc, #24]	; (14660 <sd_mmc_spi_start_read_block+0x68>)
   14648:	701a      	strb	r2, [r3, #0]
   1464a:	2000      	movs	r0, #0
   1464c:	e000      	b.n	14650 <sd_mmc_spi_start_read_block+0x58>
   1464e:	2001      	movs	r0, #1
   14650:	b003      	add	sp, #12
   14652:	bdf0      	pop	{r4, r5, r6, r7, pc}
   14654:	0007a120 	.word	0x0007a120
   14658:	20002b50 	.word	0x20002b50
   1465c:	0001575d 	.word	0x0001575d
   14660:	20002b93 	.word	0x20002b93

00014664 <sd_mmc_spi_stop_write_block>:
   14664:	b530      	push	{r4, r5, lr}
   14666:	b083      	sub	sp, #12
   14668:	a901      	add	r1, sp, #4
   1466a:	2301      	movs	r3, #1
   1466c:	425b      	negs	r3, r3
   1466e:	800b      	strh	r3, [r1, #0]
   14670:	4d14      	ldr	r5, [pc, #80]	; (146c4 <sd_mmc_spi_stop_write_block+0x60>)
   14672:	2202      	movs	r2, #2
   14674:	0028      	movs	r0, r5
   14676:	4b14      	ldr	r3, [pc, #80]	; (146c8 <sd_mmc_spi_stop_write_block+0x64>)
   14678:	4798      	blx	r3
   1467a:	466b      	mov	r3, sp
   1467c:	1ddc      	adds	r4, r3, #7
   1467e:	23ff      	movs	r3, #255	; 0xff
   14680:	2201      	movs	r2, #1
   14682:	0021      	movs	r1, r4
   14684:	0028      	movs	r0, r5
   14686:	4d11      	ldr	r5, [pc, #68]	; (146cc <sd_mmc_spi_stop_write_block+0x68>)
   14688:	47a8      	blx	r5
   1468a:	7822      	ldrb	r2, [r4, #0]
   1468c:	2311      	movs	r3, #17
   1468e:	4013      	ands	r3, r2
   14690:	2b01      	cmp	r3, #1
   14692:	d005      	beq.n	146a0 <sd_mmc_spi_stop_write_block+0x3c>
   14694:	2201      	movs	r2, #1
   14696:	4b0e      	ldr	r3, [pc, #56]	; (146d0 <sd_mmc_spi_stop_write_block+0x6c>)
   14698:	701a      	strb	r2, [r3, #0]
   1469a:	2000      	movs	r0, #0
   1469c:	b003      	add	sp, #12
   1469e:	bd30      	pop	{r4, r5, pc}
   146a0:	231e      	movs	r3, #30
   146a2:	401a      	ands	r2, r3
   146a4:	2a04      	cmp	r2, #4
   146a6:	d00b      	beq.n	146c0 <sd_mmc_spi_stop_write_block+0x5c>
   146a8:	2a0a      	cmp	r2, #10
   146aa:	d104      	bne.n	146b6 <sd_mmc_spi_stop_write_block+0x52>
   146ac:	3a02      	subs	r2, #2
   146ae:	4b08      	ldr	r3, [pc, #32]	; (146d0 <sd_mmc_spi_stop_write_block+0x6c>)
   146b0:	701a      	strb	r2, [r3, #0]
   146b2:	2000      	movs	r0, #0
   146b4:	e7f2      	b.n	1469c <sd_mmc_spi_stop_write_block+0x38>
   146b6:	220a      	movs	r2, #10
   146b8:	4b05      	ldr	r3, [pc, #20]	; (146d0 <sd_mmc_spi_stop_write_block+0x6c>)
   146ba:	701a      	strb	r2, [r3, #0]
   146bc:	2000      	movs	r0, #0
   146be:	e7ed      	b.n	1469c <sd_mmc_spi_stop_write_block+0x38>
   146c0:	2001      	movs	r0, #1
   146c2:	e7eb      	b.n	1469c <sd_mmc_spi_stop_write_block+0x38>
   146c4:	20002b50 	.word	0x20002b50
   146c8:	00015925 	.word	0x00015925
   146cc:	0001575d 	.word	0x0001575d
   146d0:	20002b93 	.word	0x20002b93

000146d4 <sd_mmc_spi_init>:
   146d4:	b570      	push	{r4, r5, r6, lr}
   146d6:	b090      	sub	sp, #64	; 0x40
   146d8:	2300      	movs	r3, #0
   146da:	4a2d      	ldr	r2, [pc, #180]	; (14790 <sd_mmc_spi_init+0xbc>)
   146dc:	7013      	strb	r3, [r2, #0]
   146de:	ac02      	add	r4, sp, #8
   146e0:	2501      	movs	r5, #1
   146e2:	7025      	strb	r5, [r4, #0]
   146e4:	9303      	str	r3, [sp, #12]
   146e6:	9304      	str	r3, [sp, #16]
   146e8:	7423      	strb	r3, [r4, #16]
   146ea:	7463      	strb	r3, [r4, #17]
   146ec:	74a5      	strb	r5, [r4, #18]
   146ee:	74e5      	strb	r5, [r4, #19]
   146f0:	7523      	strb	r3, [r4, #20]
   146f2:	2224      	movs	r2, #36	; 0x24
   146f4:	54a3      	strb	r3, [r4, r2]
   146f6:	3a18      	subs	r2, #24
   146f8:	2100      	movs	r1, #0
   146fa:	a808      	add	r0, sp, #32
   146fc:	4b25      	ldr	r3, [pc, #148]	; (14794 <sd_mmc_spi_init+0xc0>)
   146fe:	4798      	blx	r3
   14700:	2380      	movs	r3, #128	; 0x80
   14702:	025b      	lsls	r3, r3, #9
   14704:	60e3      	str	r3, [r4, #12]
   14706:	4b24      	ldr	r3, [pc, #144]	; (14798 <sd_mmc_spi_init+0xc4>)
   14708:	62a3      	str	r3, [r4, #40]	; 0x28
   1470a:	4b24      	ldr	r3, [pc, #144]	; (1479c <sd_mmc_spi_init+0xc8>)
   1470c:	62e3      	str	r3, [r4, #44]	; 0x2c
   1470e:	4b24      	ldr	r3, [pc, #144]	; (147a0 <sd_mmc_spi_init+0xcc>)
   14710:	6323      	str	r3, [r4, #48]	; 0x30
   14712:	4b24      	ldr	r3, [pc, #144]	; (147a4 <sd_mmc_spi_init+0xd0>)
   14714:	6363      	str	r3, [r4, #52]	; 0x34
   14716:	4b24      	ldr	r3, [pc, #144]	; (147a8 <sd_mmc_spi_init+0xd4>)
   14718:	61a3      	str	r3, [r4, #24]
   1471a:	4e24      	ldr	r6, [pc, #144]	; (147ac <sd_mmc_spi_init+0xd8>)
   1471c:	0022      	movs	r2, r4
   1471e:	4924      	ldr	r1, [pc, #144]	; (147b0 <sd_mmc_spi_init+0xdc>)
   14720:	0030      	movs	r0, r6
   14722:	4b24      	ldr	r3, [pc, #144]	; (147b4 <sd_mmc_spi_init+0xe0>)
   14724:	4798      	blx	r3
   14726:	6834      	ldr	r4, [r6, #0]
   14728:	0020      	movs	r0, r4
   1472a:	4b23      	ldr	r3, [pc, #140]	; (147b8 <sd_mmc_spi_init+0xe4>)
   1472c:	4798      	blx	r3
   1472e:	231f      	movs	r3, #31
   14730:	4018      	ands	r0, r3
   14732:	4085      	lsls	r5, r0
   14734:	4b21      	ldr	r3, [pc, #132]	; (147bc <sd_mmc_spi_init+0xe8>)
   14736:	601d      	str	r5, [r3, #0]
   14738:	6832      	ldr	r2, [r6, #0]
   1473a:	69d3      	ldr	r3, [r2, #28]
   1473c:	2b00      	cmp	r3, #0
   1473e:	d1fc      	bne.n	1473a <sd_mmc_spi_init+0x66>
   14740:	6823      	ldr	r3, [r4, #0]
   14742:	2202      	movs	r2, #2
   14744:	4313      	orrs	r3, r2
   14746:	6023      	str	r3, [r4, #0]
   14748:	4a1d      	ldr	r2, [pc, #116]	; (147c0 <sd_mmc_spi_init+0xec>)
   1474a:	2300      	movs	r3, #0
   1474c:	7053      	strb	r3, [r2, #1]
   1474e:	7093      	strb	r3, [r2, #2]
   14750:	491c      	ldr	r1, [pc, #112]	; (147c4 <sd_mmc_spi_init+0xf0>)
   14752:	7808      	ldrb	r0, [r1, #0]
   14754:	7010      	strb	r0, [r2, #0]
   14756:	4c1c      	ldr	r4, [pc, #112]	; (147c8 <sd_mmc_spi_init+0xf4>)
   14758:	7020      	strb	r0, [r4, #0]
   1475a:	7063      	strb	r3, [r4, #1]
   1475c:	70a3      	strb	r3, [r4, #2]
   1475e:	a901      	add	r1, sp, #4
   14760:	2201      	movs	r2, #1
   14762:	704a      	strb	r2, [r1, #1]
   14764:	708b      	strb	r3, [r1, #2]
   14766:	700a      	strb	r2, [r1, #0]
   14768:	4b18      	ldr	r3, [pc, #96]	; (147cc <sd_mmc_spi_init+0xf8>)
   1476a:	4798      	blx	r3
   1476c:	7822      	ldrb	r2, [r4, #0]
   1476e:	09d1      	lsrs	r1, r2, #7
   14770:	2300      	movs	r3, #0
   14772:	2900      	cmp	r1, #0
   14774:	d104      	bne.n	14780 <sd_mmc_spi_init+0xac>
   14776:	0953      	lsrs	r3, r2, #5
   14778:	01db      	lsls	r3, r3, #7
   1477a:	4915      	ldr	r1, [pc, #84]	; (147d0 <sd_mmc_spi_init+0xfc>)
   1477c:	468c      	mov	ip, r1
   1477e:	4463      	add	r3, ip
   14780:	211f      	movs	r1, #31
   14782:	4011      	ands	r1, r2
   14784:	2201      	movs	r2, #1
   14786:	408a      	lsls	r2, r1
   14788:	619a      	str	r2, [r3, #24]
   1478a:	b010      	add	sp, #64	; 0x40
   1478c:	bd70      	pop	{r4, r5, r6, pc}
   1478e:	46c0      	nop			; (mov r8, r8)
   14790:	20002b93 	.word	0x20002b93
   14794:	00018c23 	.word	0x00018c23
   14798:	00100002 	.word	0x00100002
   1479c:	00110002 	.word	0x00110002
   147a0:	00120002 	.word	0x00120002
   147a4:	00130002 	.word	0x00130002
   147a8:	00061a80 	.word	0x00061a80
   147ac:	20002b50 	.word	0x20002b50
   147b0:	42000c00 	.word	0x42000c00
   147b4:	00015585 	.word	0x00015585
   147b8:	0001543d 	.word	0x0001543d
   147bc:	e000e100 	.word	0xe000e100
   147c0:	20002ba0 	.word	0x20002ba0
   147c4:	20000004 	.word	0x20000004
   147c8:	20002b90 	.word	0x20002b90
   147cc:	00014e29 	.word	0x00014e29
   147d0:	41004400 	.word	0x41004400

000147d4 <sd_mmc_spi_select_device>:
   147d4:	b5f8      	push	{r3, r4, r5, r6, r7, lr}
   147d6:	0007      	movs	r7, r0
   147d8:	2200      	movs	r2, #0
   147da:	4b0d      	ldr	r3, [pc, #52]	; (14810 <sd_mmc_spi_select_device+0x3c>)
   147dc:	701a      	strb	r2, [r3, #0]
   147de:	000c      	movs	r4, r1
   147e0:	4b0c      	ldr	r3, [pc, #48]	; (14814 <sd_mmc_spi_select_device+0x40>)
   147e2:	4299      	cmp	r1, r3
   147e4:	d900      	bls.n	147e8 <sd_mmc_spi_select_device+0x14>
   147e6:	001c      	movs	r4, r3
   147e8:	4d0b      	ldr	r5, [pc, #44]	; (14818 <sd_mmc_spi_select_device+0x44>)
   147ea:	4e0c      	ldr	r6, [pc, #48]	; (1481c <sd_mmc_spi_select_device+0x48>)
   147ec:	e001      	b.n	147f2 <sd_mmc_spi_select_device+0x1e>
   147ee:	08e3      	lsrs	r3, r4, #3
   147f0:	1ae4      	subs	r4, r4, r3
   147f2:	0021      	movs	r1, r4
   147f4:	0028      	movs	r0, r5
   147f6:	47b0      	blx	r6
   147f8:	2817      	cmp	r0, #23
   147fa:	d0f8      	beq.n	147ee <sd_mmc_spi_select_device+0x1a>
   147fc:	0079      	lsls	r1, r7, #1
   147fe:	19cf      	adds	r7, r1, r7
   14800:	4907      	ldr	r1, [pc, #28]	; (14820 <sd_mmc_spi_select_device+0x4c>)
   14802:	19c9      	adds	r1, r1, r7
   14804:	2201      	movs	r2, #1
   14806:	4804      	ldr	r0, [pc, #16]	; (14818 <sd_mmc_spi_select_device+0x44>)
   14808:	4b06      	ldr	r3, [pc, #24]	; (14824 <sd_mmc_spi_select_device+0x50>)
   1480a:	4798      	blx	r3
   1480c:	bdf8      	pop	{r3, r4, r5, r6, r7, pc}
   1480e:	46c0      	nop			; (mov r8, r8)
   14810:	20002b93 	.word	0x20002b93
   14814:	00989680 	.word	0x00989680
   14818:	20002b50 	.word	0x20002b50
   1481c:	000154cd 	.word	0x000154cd
   14820:	20002b90 	.word	0x20002b90
   14824:	00015831 	.word	0x00015831

00014828 <sd_mmc_spi_deselect_device>:
   14828:	b510      	push	{r4, lr}
   1482a:	2200      	movs	r2, #0
   1482c:	4b04      	ldr	r3, [pc, #16]	; (14840 <sd_mmc_spi_deselect_device+0x18>)
   1482e:	701a      	strb	r2, [r3, #0]
   14830:	0041      	lsls	r1, r0, #1
   14832:	1808      	adds	r0, r1, r0
   14834:	4903      	ldr	r1, [pc, #12]	; (14844 <sd_mmc_spi_deselect_device+0x1c>)
   14836:	1809      	adds	r1, r1, r0
   14838:	4803      	ldr	r0, [pc, #12]	; (14848 <sd_mmc_spi_deselect_device+0x20>)
   1483a:	4b04      	ldr	r3, [pc, #16]	; (1484c <sd_mmc_spi_deselect_device+0x24>)
   1483c:	4798      	blx	r3
   1483e:	bd10      	pop	{r4, pc}
   14840:	20002b93 	.word	0x20002b93
   14844:	20002b90 	.word	0x20002b90
   14848:	20002b50 	.word	0x20002b50
   1484c:	00015831 	.word	0x00015831

00014850 <sd_mmc_spi_send_clock>:
   14850:	b570      	push	{r4, r5, r6, lr}
   14852:	b082      	sub	sp, #8
   14854:	22ff      	movs	r2, #255	; 0xff
   14856:	466b      	mov	r3, sp
   14858:	71da      	strb	r2, [r3, #7]
   1485a:	2200      	movs	r2, #0
   1485c:	4b07      	ldr	r3, [pc, #28]	; (1487c <sd_mmc_spi_send_clock+0x2c>)
   1485e:	701a      	strb	r2, [r3, #0]
   14860:	240a      	movs	r4, #10
   14862:	4e07      	ldr	r6, [pc, #28]	; (14880 <sd_mmc_spi_send_clock+0x30>)
   14864:	4d07      	ldr	r5, [pc, #28]	; (14884 <sd_mmc_spi_send_clock+0x34>)
   14866:	2201      	movs	r2, #1
   14868:	466b      	mov	r3, sp
   1486a:	1dd9      	adds	r1, r3, #7
   1486c:	0030      	movs	r0, r6
   1486e:	47a8      	blx	r5
   14870:	3c01      	subs	r4, #1
   14872:	b2e4      	uxtb	r4, r4
   14874:	2c00      	cmp	r4, #0
   14876:	d1f6      	bne.n	14866 <sd_mmc_spi_send_clock+0x16>
   14878:	b002      	add	sp, #8
   1487a:	bd70      	pop	{r4, r5, r6, pc}
   1487c:	20002b93 	.word	0x20002b93
   14880:	20002b50 	.word	0x20002b50
   14884:	00015925 	.word	0x00015925

00014888 <sd_mmc_spi_adtc_start>:
   14888:	b5f0      	push	{r4, r5, r6, r7, lr}
   1488a:	46c6      	mov	lr, r8
   1488c:	b500      	push	{lr}
   1488e:	b086      	sub	sp, #24
   14890:	4680      	mov	r8, r0
   14892:	9200      	str	r2, [sp, #0]
   14894:	9301      	str	r3, [sp, #4]
   14896:	22ff      	movs	r2, #255	; 0xff
   14898:	230f      	movs	r3, #15
   1489a:	a802      	add	r0, sp, #8
   1489c:	4684      	mov	ip, r0
   1489e:	4463      	add	r3, ip
   148a0:	701a      	strb	r2, [r3, #0]
   148a2:	2200      	movs	r2, #0
   148a4:	4b53      	ldr	r3, [pc, #332]	; (149f4 <sd_mmc_spi_adtc_start+0x16c>)
   148a6:	701a      	strb	r2, [r3, #0]
   148a8:	ab04      	add	r3, sp, #16
   148aa:	323f      	adds	r2, #63	; 0x3f
   148ac:	4640      	mov	r0, r8
   148ae:	4002      	ands	r2, r0
   148b0:	2040      	movs	r0, #64	; 0x40
   148b2:	4302      	orrs	r2, r0
   148b4:	701a      	strb	r2, [r3, #0]
   148b6:	0e0a      	lsrs	r2, r1, #24
   148b8:	705a      	strb	r2, [r3, #1]
   148ba:	0c0a      	lsrs	r2, r1, #16
   148bc:	709a      	strb	r2, [r3, #2]
   148be:	0a0a      	lsrs	r2, r1, #8
   148c0:	70da      	strb	r2, [r3, #3]
   148c2:	7119      	strb	r1, [r3, #4]
   148c4:	2700      	movs	r7, #0
   148c6:	2300      	movs	r3, #0
   148c8:	a904      	add	r1, sp, #16
   148ca:	2208      	movs	r2, #8
   148cc:	2409      	movs	r4, #9
   148ce:	e011      	b.n	148f4 <sd_mmc_spi_adtc_start+0x6c>
   148d0:	0076      	lsls	r6, r6, #1
   148d2:	b2f6      	uxtb	r6, r6
   148d4:	3801      	subs	r0, #1
   148d6:	b2c0      	uxtb	r0, r0
   148d8:	2800      	cmp	r0, #0
   148da:	d008      	beq.n	148ee <sd_mmc_spi_adtc_start+0x66>
   148dc:	005b      	lsls	r3, r3, #1
   148de:	b2db      	uxtb	r3, r3
   148e0:	001d      	movs	r5, r3
   148e2:	4075      	eors	r5, r6
   148e4:	062d      	lsls	r5, r5, #24
   148e6:	d5f3      	bpl.n	148d0 <sd_mmc_spi_adtc_start+0x48>
   148e8:	4063      	eors	r3, r4
   148ea:	b2db      	uxtb	r3, r3
   148ec:	e7f0      	b.n	148d0 <sd_mmc_spi_adtc_start+0x48>
   148ee:	3701      	adds	r7, #1
   148f0:	2f05      	cmp	r7, #5
   148f2:	d002      	beq.n	148fa <sd_mmc_spi_adtc_start+0x72>
   148f4:	5c7e      	ldrb	r6, [r7, r1]
   148f6:	0010      	movs	r0, r2
   148f8:	e7f0      	b.n	148dc <sd_mmc_spi_adtc_start+0x54>
   148fa:	005b      	lsls	r3, r3, #1
   148fc:	2201      	movs	r2, #1
   148fe:	4313      	orrs	r3, r2
   14900:	ac04      	add	r4, sp, #16
   14902:	7163      	strb	r3, [r4, #5]
   14904:	4e3c      	ldr	r6, [pc, #240]	; (149f8 <sd_mmc_spi_adtc_start+0x170>)
   14906:	2201      	movs	r2, #1
   14908:	210f      	movs	r1, #15
   1490a:	ab02      	add	r3, sp, #8
   1490c:	469c      	mov	ip, r3
   1490e:	4461      	add	r1, ip
   14910:	0030      	movs	r0, r6
   14912:	4f3a      	ldr	r7, [pc, #232]	; (149fc <sd_mmc_spi_adtc_start+0x174>)
   14914:	47b8      	blx	r7
   14916:	2206      	movs	r2, #6
   14918:	0021      	movs	r1, r4
   1491a:	0030      	movs	r0, r6
   1491c:	47b8      	blx	r7
   1491e:	ab02      	add	r3, sp, #8
   14920:	1dd9      	adds	r1, r3, #7
   14922:	23ff      	movs	r3, #255	; 0xff
   14924:	700b      	strb	r3, [r1, #0]
   14926:	2201      	movs	r2, #1
   14928:	0030      	movs	r0, r6
   1492a:	4e35      	ldr	r6, [pc, #212]	; (14a00 <sd_mmc_spi_adtc_start+0x178>)
   1492c:	47b0      	blx	r6
   1492e:	2407      	movs	r4, #7
   14930:	ab02      	add	r3, sp, #8
   14932:	1dde      	adds	r6, r3, #7
   14934:	4f30      	ldr	r7, [pc, #192]	; (149f8 <sd_mmc_spi_adtc_start+0x170>)
   14936:	4d32      	ldr	r5, [pc, #200]	; (14a00 <sd_mmc_spi_adtc_start+0x178>)
   14938:	23ff      	movs	r3, #255	; 0xff
   1493a:	2201      	movs	r2, #1
   1493c:	0031      	movs	r1, r6
   1493e:	0038      	movs	r0, r7
   14940:	47a8      	blx	r5
   14942:	7833      	ldrb	r3, [r6, #0]
   14944:	b25a      	sxtb	r2, r3
   14946:	2a00      	cmp	r2, #0
   14948:	da0b      	bge.n	14962 <sd_mmc_spi_adtc_start+0xda>
   1494a:	3c01      	subs	r4, #1
   1494c:	b2e4      	uxtb	r4, r4
   1494e:	2c00      	cmp	r4, #0
   14950:	d1f2      	bne.n	14938 <sd_mmc_spi_adtc_start+0xb0>
   14952:	2202      	movs	r2, #2
   14954:	4b27      	ldr	r3, [pc, #156]	; (149f4 <sd_mmc_spi_adtc_start+0x16c>)
   14956:	701a      	strb	r2, [r3, #0]
   14958:	2000      	movs	r0, #0
   1495a:	b006      	add	sp, #24
   1495c:	bc04      	pop	{r2}
   1495e:	4690      	mov	r8, r2
   14960:	bdf0      	pop	{r4, r5, r6, r7, pc}
   14962:	4a28      	ldr	r2, [pc, #160]	; (14a04 <sd_mmc_spi_adtc_start+0x17c>)
   14964:	6013      	str	r3, [r2, #0]
   14966:	071a      	lsls	r2, r3, #28
   14968:	d41a      	bmi.n	149a0 <sd_mmc_spi_adtc_start+0x118>
   1496a:	075a      	lsls	r2, r3, #29
   1496c:	d41d      	bmi.n	149aa <sd_mmc_spi_adtc_start+0x122>
   1496e:	2201      	movs	r2, #1
   14970:	4393      	bics	r3, r2
   14972:	d11f      	bne.n	149b4 <sd_mmc_spi_adtc_start+0x12c>
   14974:	4643      	mov	r3, r8
   14976:	049b      	lsls	r3, r3, #18
   14978:	d420      	bmi.n	149bc <sd_mmc_spi_adtc_start+0x134>
   1497a:	4643      	mov	r3, r8
   1497c:	059b      	lsls	r3, r3, #22
   1497e:	d425      	bmi.n	149cc <sd_mmc_spi_adtc_start+0x144>
   14980:	4643      	mov	r3, r8
   14982:	055b      	lsls	r3, r3, #21
   14984:	d42b      	bmi.n	149de <sd_mmc_spi_adtc_start+0x156>
   14986:	4b20      	ldr	r3, [pc, #128]	; (14a08 <sd_mmc_spi_adtc_start+0x180>)
   14988:	466a      	mov	r2, sp
   1498a:	8812      	ldrh	r2, [r2, #0]
   1498c:	801a      	strh	r2, [r3, #0]
   1498e:	4b1f      	ldr	r3, [pc, #124]	; (14a0c <sd_mmc_spi_adtc_start+0x184>)
   14990:	466a      	mov	r2, sp
   14992:	8892      	ldrh	r2, [r2, #4]
   14994:	801a      	strh	r2, [r3, #0]
   14996:	2200      	movs	r2, #0
   14998:	4b1d      	ldr	r3, [pc, #116]	; (14a10 <sd_mmc_spi_adtc_start+0x188>)
   1499a:	601a      	str	r2, [r3, #0]
   1499c:	2001      	movs	r0, #1
   1499e:	e7dc      	b.n	1495a <sd_mmc_spi_adtc_start+0xd2>
   149a0:	2206      	movs	r2, #6
   149a2:	4b14      	ldr	r3, [pc, #80]	; (149f4 <sd_mmc_spi_adtc_start+0x16c>)
   149a4:	701a      	strb	r2, [r3, #0]
   149a6:	2000      	movs	r0, #0
   149a8:	e7d7      	b.n	1495a <sd_mmc_spi_adtc_start+0xd2>
   149aa:	2209      	movs	r2, #9
   149ac:	4b11      	ldr	r3, [pc, #68]	; (149f4 <sd_mmc_spi_adtc_start+0x16c>)
   149ae:	701a      	strb	r2, [r3, #0]
   149b0:	2000      	movs	r0, #0
   149b2:	e7d2      	b.n	1495a <sd_mmc_spi_adtc_start+0xd2>
   149b4:	4b0f      	ldr	r3, [pc, #60]	; (149f4 <sd_mmc_spi_adtc_start+0x16c>)
   149b6:	701a      	strb	r2, [r3, #0]
   149b8:	2000      	movs	r0, #0
   149ba:	e7ce      	b.n	1495a <sd_mmc_spi_adtc_start+0xd2>
   149bc:	4b15      	ldr	r3, [pc, #84]	; (14a14 <sd_mmc_spi_adtc_start+0x18c>)
   149be:	4798      	blx	r3
   149c0:	2800      	cmp	r0, #0
   149c2:	d1da      	bne.n	1497a <sd_mmc_spi_adtc_start+0xf2>
   149c4:	2203      	movs	r2, #3
   149c6:	4b0b      	ldr	r3, [pc, #44]	; (149f4 <sd_mmc_spi_adtc_start+0x16c>)
   149c8:	701a      	strb	r2, [r3, #0]
   149ca:	e7c6      	b.n	1495a <sd_mmc_spi_adtc_start+0xd2>
   149cc:	490d      	ldr	r1, [pc, #52]	; (14a04 <sd_mmc_spi_adtc_start+0x17c>)
   149ce:	2300      	movs	r3, #0
   149d0:	600b      	str	r3, [r1, #0]
   149d2:	33ff      	adds	r3, #255	; 0xff
   149d4:	2201      	movs	r2, #1
   149d6:	4808      	ldr	r0, [pc, #32]	; (149f8 <sd_mmc_spi_adtc_start+0x170>)
   149d8:	4e09      	ldr	r6, [pc, #36]	; (14a00 <sd_mmc_spi_adtc_start+0x178>)
   149da:	47b0      	blx	r6
   149dc:	e7d0      	b.n	14980 <sd_mmc_spi_adtc_start+0xf8>
   149de:	4e09      	ldr	r6, [pc, #36]	; (14a04 <sd_mmc_spi_adtc_start+0x17c>)
   149e0:	23ff      	movs	r3, #255	; 0xff
   149e2:	2204      	movs	r2, #4
   149e4:	0031      	movs	r1, r6
   149e6:	4804      	ldr	r0, [pc, #16]	; (149f8 <sd_mmc_spi_adtc_start+0x170>)
   149e8:	4f05      	ldr	r7, [pc, #20]	; (14a00 <sd_mmc_spi_adtc_start+0x178>)
   149ea:	47b8      	blx	r7
   149ec:	6833      	ldr	r3, [r6, #0]
   149ee:	ba1b      	rev	r3, r3
   149f0:	6033      	str	r3, [r6, #0]
   149f2:	e7c8      	b.n	14986 <sd_mmc_spi_adtc_start+0xfe>
   149f4:	20002b93 	.word	0x20002b93
   149f8:	20002b50 	.word	0x20002b50
   149fc:	00015925 	.word	0x00015925
   14a00:	0001575d 	.word	0x0001575d
   14a04:	20002b98 	.word	0x20002b98
   14a08:	20002b8c 	.word	0x20002b8c
   14a0c:	20002b94 	.word	0x20002b94
   14a10:	20002b9c 	.word	0x20002b9c
   14a14:	0001451d 	.word	0x0001451d

00014a18 <sd_mmc_spi_send_cmd>:
   14a18:	b510      	push	{r4, lr}
   14a1a:	b082      	sub	sp, #8
   14a1c:	2300      	movs	r3, #0
   14a1e:	9300      	str	r3, [sp, #0]
   14a20:	2200      	movs	r2, #0
   14a22:	4c02      	ldr	r4, [pc, #8]	; (14a2c <sd_mmc_spi_send_cmd+0x14>)
   14a24:	47a0      	blx	r4
   14a26:	b002      	add	sp, #8
   14a28:	bd10      	pop	{r4, pc}
   14a2a:	46c0      	nop			; (mov r8, r8)
   14a2c:	00014889 	.word	0x00014889

00014a30 <sd_mmc_spi_get_response>:
   14a30:	4b01      	ldr	r3, [pc, #4]	; (14a38 <sd_mmc_spi_get_response+0x8>)
   14a32:	6818      	ldr	r0, [r3, #0]
   14a34:	4770      	bx	lr
   14a36:	46c0      	nop			; (mov r8, r8)
   14a38:	20002b98 	.word	0x20002b98

00014a3c <sd_mmc_spi_read_word>:
   14a3c:	b510      	push	{r4, lr}
   14a3e:	b084      	sub	sp, #16
   14a40:	9001      	str	r0, [sp, #4]
   14a42:	2200      	movs	r2, #0
   14a44:	4b14      	ldr	r3, [pc, #80]	; (14a98 <sd_mmc_spi_read_word+0x5c>)
   14a46:	701a      	strb	r2, [r3, #0]
   14a48:	4b14      	ldr	r3, [pc, #80]	; (14a9c <sd_mmc_spi_read_word+0x60>)
   14a4a:	8819      	ldrh	r1, [r3, #0]
   14a4c:	4b14      	ldr	r3, [pc, #80]	; (14aa0 <sd_mmc_spi_read_word+0x64>)
   14a4e:	6818      	ldr	r0, [r3, #0]
   14a50:	4b14      	ldr	r3, [pc, #80]	; (14aa4 <sd_mmc_spi_read_word+0x68>)
   14a52:	4798      	blx	r3
   14a54:	2900      	cmp	r1, #0
   14a56:	d103      	bne.n	14a60 <sd_mmc_spi_read_word+0x24>
   14a58:	4b13      	ldr	r3, [pc, #76]	; (14aa8 <sd_mmc_spi_read_word+0x6c>)
   14a5a:	4798      	blx	r3
   14a5c:	2800      	cmp	r0, #0
   14a5e:	d010      	beq.n	14a82 <sd_mmc_spi_read_word+0x46>
   14a60:	23ff      	movs	r3, #255	; 0xff
   14a62:	2204      	movs	r2, #4
   14a64:	a901      	add	r1, sp, #4
   14a66:	4811      	ldr	r0, [pc, #68]	; (14aac <sd_mmc_spi_read_word+0x70>)
   14a68:	4c11      	ldr	r4, [pc, #68]	; (14ab0 <sd_mmc_spi_read_word+0x74>)
   14a6a:	47a0      	blx	r4
   14a6c:	4b0c      	ldr	r3, [pc, #48]	; (14aa0 <sd_mmc_spi_read_word+0x64>)
   14a6e:	681a      	ldr	r2, [r3, #0]
   14a70:	1d10      	adds	r0, r2, #4
   14a72:	6018      	str	r0, [r3, #0]
   14a74:	4b09      	ldr	r3, [pc, #36]	; (14a9c <sd_mmc_spi_read_word+0x60>)
   14a76:	8819      	ldrh	r1, [r3, #0]
   14a78:	4b0a      	ldr	r3, [pc, #40]	; (14aa4 <sd_mmc_spi_read_word+0x68>)
   14a7a:	4798      	blx	r3
   14a7c:	2001      	movs	r0, #1
   14a7e:	2900      	cmp	r1, #0
   14a80:	d001      	beq.n	14a86 <sd_mmc_spi_read_word+0x4a>
   14a82:	b004      	add	sp, #16
   14a84:	bd10      	pop	{r4, pc}
   14a86:	23ff      	movs	r3, #255	; 0xff
   14a88:	2202      	movs	r2, #2
   14a8a:	a903      	add	r1, sp, #12
   14a8c:	4807      	ldr	r0, [pc, #28]	; (14aac <sd_mmc_spi_read_word+0x70>)
   14a8e:	4c08      	ldr	r4, [pc, #32]	; (14ab0 <sd_mmc_spi_read_word+0x74>)
   14a90:	47a0      	blx	r4
   14a92:	2001      	movs	r0, #1
   14a94:	e7f5      	b.n	14a82 <sd_mmc_spi_read_word+0x46>
   14a96:	46c0      	nop			; (mov r8, r8)
   14a98:	20002b93 	.word	0x20002b93
   14a9c:	20002b8c 	.word	0x20002b8c
   14aa0:	20002b9c 	.word	0x20002b9c
   14aa4:	0001895d 	.word	0x0001895d
   14aa8:	000145f9 	.word	0x000145f9
   14aac:	20002b50 	.word	0x20002b50
   14ab0:	0001575d 	.word	0x0001575d

00014ab4 <sd_mmc_spi_start_read_blocks>:
   14ab4:	b5f0      	push	{r4, r5, r6, r7, lr}
   14ab6:	46de      	mov	lr, fp
   14ab8:	4657      	mov	r7, sl
   14aba:	4646      	mov	r6, r8
   14abc:	b5c0      	push	{r6, r7, lr}
   14abe:	b082      	sub	sp, #8
   14ac0:	4683      	mov	fp, r0
   14ac2:	2200      	movs	r2, #0
   14ac4:	4b17      	ldr	r3, [pc, #92]	; (14b24 <sd_mmc_spi_start_read_blocks+0x70>)
   14ac6:	701a      	strb	r2, [r3, #0]
   14ac8:	1e4c      	subs	r4, r1, #1
   14aca:	b2a4      	uxth	r4, r4
   14acc:	2900      	cmp	r1, #0
   14ace:	d026      	beq.n	14b1e <sd_mmc_spi_start_read_blocks+0x6a>
   14ad0:	2600      	movs	r6, #0
   14ad2:	4b15      	ldr	r3, [pc, #84]	; (14b28 <sd_mmc_spi_start_read_blocks+0x74>)
   14ad4:	469a      	mov	sl, r3
   14ad6:	4f15      	ldr	r7, [pc, #84]	; (14b2c <sd_mmc_spi_start_read_blocks+0x78>)
   14ad8:	47d0      	blx	sl
   14ada:	4680      	mov	r8, r0
   14adc:	2800      	cmp	r0, #0
   14ade:	d017      	beq.n	14b10 <sd_mmc_spi_start_read_blocks+0x5c>
   14ae0:	883a      	ldrh	r2, [r7, #0]
   14ae2:	465b      	mov	r3, fp
   14ae4:	1999      	adds	r1, r3, r6
   14ae6:	23ff      	movs	r3, #255	; 0xff
   14ae8:	4811      	ldr	r0, [pc, #68]	; (14b30 <sd_mmc_spi_start_read_blocks+0x7c>)
   14aea:	4d12      	ldr	r5, [pc, #72]	; (14b34 <sd_mmc_spi_start_read_blocks+0x80>)
   14aec:	47a8      	blx	r5
   14aee:	883b      	ldrh	r3, [r7, #0]
   14af0:	18f6      	adds	r6, r6, r3
   14af2:	4a11      	ldr	r2, [pc, #68]	; (14b38 <sd_mmc_spi_start_read_blocks+0x84>)
   14af4:	6811      	ldr	r1, [r2, #0]
   14af6:	468c      	mov	ip, r1
   14af8:	4463      	add	r3, ip
   14afa:	6013      	str	r3, [r2, #0]
   14afc:	23ff      	movs	r3, #255	; 0xff
   14afe:	2202      	movs	r2, #2
   14b00:	a901      	add	r1, sp, #4
   14b02:	480b      	ldr	r0, [pc, #44]	; (14b30 <sd_mmc_spi_start_read_blocks+0x7c>)
   14b04:	47a8      	blx	r5
   14b06:	3c01      	subs	r4, #1
   14b08:	b2a4      	uxth	r4, r4
   14b0a:	4b0c      	ldr	r3, [pc, #48]	; (14b3c <sd_mmc_spi_start_read_blocks+0x88>)
   14b0c:	429c      	cmp	r4, r3
   14b0e:	d1e3      	bne.n	14ad8 <sd_mmc_spi_start_read_blocks+0x24>
   14b10:	4640      	mov	r0, r8
   14b12:	b002      	add	sp, #8
   14b14:	bc1c      	pop	{r2, r3, r4}
   14b16:	4690      	mov	r8, r2
   14b18:	469a      	mov	sl, r3
   14b1a:	46a3      	mov	fp, r4
   14b1c:	bdf0      	pop	{r4, r5, r6, r7, pc}
   14b1e:	2301      	movs	r3, #1
   14b20:	4698      	mov	r8, r3
   14b22:	e7f5      	b.n	14b10 <sd_mmc_spi_start_read_blocks+0x5c>
   14b24:	20002b93 	.word	0x20002b93
   14b28:	000145f9 	.word	0x000145f9
   14b2c:	20002b8c 	.word	0x20002b8c
   14b30:	20002b50 	.word	0x20002b50
   14b34:	0001575d 	.word	0x0001575d
   14b38:	20002b9c 	.word	0x20002b9c
   14b3c:	0000ffff 	.word	0x0000ffff

00014b40 <sd_mmc_spi_wait_end_of_read_blocks>:
   14b40:	2001      	movs	r0, #1
   14b42:	4770      	bx	lr

00014b44 <sd_mmc_spi_start_write_blocks>:
   14b44:	b5f0      	push	{r4, r5, r6, r7, lr}
   14b46:	46c6      	mov	lr, r8
   14b48:	b500      	push	{lr}
   14b4a:	4680      	mov	r8, r0
   14b4c:	2200      	movs	r2, #0
   14b4e:	4b15      	ldr	r3, [pc, #84]	; (14ba4 <sd_mmc_spi_start_write_blocks+0x60>)
   14b50:	701a      	strb	r2, [r3, #0]
   14b52:	2500      	movs	r5, #0
   14b54:	4f14      	ldr	r7, [pc, #80]	; (14ba8 <sd_mmc_spi_start_write_blocks+0x64>)
   14b56:	4e15      	ldr	r6, [pc, #84]	; (14bac <sd_mmc_spi_start_write_blocks+0x68>)
   14b58:	e000      	b.n	14b5c <sd_mmc_spi_start_write_blocks+0x18>
   14b5a:	0021      	movs	r1, r4
   14b5c:	1e4c      	subs	r4, r1, #1
   14b5e:	b2a4      	uxth	r4, r4
   14b60:	2900      	cmp	r1, #0
   14b62:	d01b      	beq.n	14b9c <sd_mmc_spi_start_write_blocks+0x58>
   14b64:	47b8      	blx	r7
   14b66:	8832      	ldrh	r2, [r6, #0]
   14b68:	4643      	mov	r3, r8
   14b6a:	1959      	adds	r1, r3, r5
   14b6c:	4810      	ldr	r0, [pc, #64]	; (14bb0 <sd_mmc_spi_start_write_blocks+0x6c>)
   14b6e:	4b11      	ldr	r3, [pc, #68]	; (14bb4 <sd_mmc_spi_start_write_blocks+0x70>)
   14b70:	4798      	blx	r3
   14b72:	8833      	ldrh	r3, [r6, #0]
   14b74:	18ed      	adds	r5, r5, r3
   14b76:	4a10      	ldr	r2, [pc, #64]	; (14bb8 <sd_mmc_spi_start_write_blocks+0x74>)
   14b78:	6811      	ldr	r1, [r2, #0]
   14b7a:	468c      	mov	ip, r1
   14b7c:	4463      	add	r3, ip
   14b7e:	6013      	str	r3, [r2, #0]
   14b80:	4b0e      	ldr	r3, [pc, #56]	; (14bbc <sd_mmc_spi_start_write_blocks+0x78>)
   14b82:	4798      	blx	r3
   14b84:	2800      	cmp	r0, #0
   14b86:	d00a      	beq.n	14b9e <sd_mmc_spi_start_write_blocks+0x5a>
   14b88:	2c00      	cmp	r4, #0
   14b8a:	d0e6      	beq.n	14b5a <sd_mmc_spi_start_write_blocks+0x16>
   14b8c:	4b0c      	ldr	r3, [pc, #48]	; (14bc0 <sd_mmc_spi_start_write_blocks+0x7c>)
   14b8e:	4798      	blx	r3
   14b90:	2800      	cmp	r0, #0
   14b92:	d1e2      	bne.n	14b5a <sd_mmc_spi_start_write_blocks+0x16>
   14b94:	2205      	movs	r2, #5
   14b96:	4b03      	ldr	r3, [pc, #12]	; (14ba4 <sd_mmc_spi_start_write_blocks+0x60>)
   14b98:	701a      	strb	r2, [r3, #0]
   14b9a:	e000      	b.n	14b9e <sd_mmc_spi_start_write_blocks+0x5a>
   14b9c:	2001      	movs	r0, #1
   14b9e:	bc04      	pop	{r2}
   14ba0:	4690      	mov	r8, r2
   14ba2:	bdf0      	pop	{r4, r5, r6, r7, pc}
   14ba4:	20002b93 	.word	0x20002b93
   14ba8:	000144d5 	.word	0x000144d5
   14bac:	20002b8c 	.word	0x20002b8c
   14bb0:	20002b50 	.word	0x20002b50
   14bb4:	00015925 	.word	0x00015925
   14bb8:	20002b9c 	.word	0x20002b9c
   14bbc:	00014665 	.word	0x00014665
   14bc0:	0001451d 	.word	0x0001451d

00014bc4 <sd_mmc_spi_wait_end_of_write_blocks>:
   14bc4:	b510      	push	{r4, lr}
   14bc6:	4b05      	ldr	r3, [pc, #20]	; (14bdc <sd_mmc_spi_wait_end_of_write_blocks+0x18>)
   14bc8:	4798      	blx	r3
   14bca:	2800      	cmp	r0, #0
   14bcc:	d103      	bne.n	14bd6 <sd_mmc_spi_wait_end_of_write_blocks+0x12>
   14bce:	2205      	movs	r2, #5
   14bd0:	4b03      	ldr	r3, [pc, #12]	; (14be0 <sd_mmc_spi_wait_end_of_write_blocks+0x1c>)
   14bd2:	701a      	strb	r2, [r3, #0]
   14bd4:	bd10      	pop	{r4, pc}
   14bd6:	4b03      	ldr	r3, [pc, #12]	; (14be4 <sd_mmc_spi_wait_end_of_write_blocks+0x20>)
   14bd8:	4798      	blx	r3
   14bda:	e7fb      	b.n	14bd4 <sd_mmc_spi_wait_end_of_write_blocks+0x10>
   14bdc:	0001451d 	.word	0x0001451d
   14be0:	20002b93 	.word	0x20002b93
   14be4:	00014581 	.word	0x00014581

00014be8 <delay_cycles_ms>:
   14be8:	b530      	push	{r4, r5, lr}
   14bea:	4b08      	ldr	r3, [pc, #32]	; (14c0c <delay_cycles_ms+0x24>)
   14bec:	681c      	ldr	r4, [r3, #0]
   14bee:	4a08      	ldr	r2, [pc, #32]	; (14c10 <delay_cycles_ms+0x28>)
   14bf0:	2500      	movs	r5, #0
   14bf2:	2180      	movs	r1, #128	; 0x80
   14bf4:	0249      	lsls	r1, r1, #9
   14bf6:	3801      	subs	r0, #1
   14bf8:	d307      	bcc.n	14c0a <delay_cycles_ms+0x22>
   14bfa:	2c00      	cmp	r4, #0
   14bfc:	d0fb      	beq.n	14bf6 <delay_cycles_ms+0xe>
   14bfe:	6054      	str	r4, [r2, #4]
   14c00:	6095      	str	r5, [r2, #8]
   14c02:	6813      	ldr	r3, [r2, #0]
   14c04:	420b      	tst	r3, r1
   14c06:	d0fc      	beq.n	14c02 <delay_cycles_ms+0x1a>
   14c08:	e7f5      	b.n	14bf6 <delay_cycles_ms+0xe>
   14c0a:	bd30      	pop	{r4, r5, pc}
   14c0c:	20000008 	.word	0x20000008
   14c10:	e000e010 	.word	0xe000e010

00014c14 <mem_test_unit_ready>:
   14c14:	b510      	push	{r4, lr}
   14c16:	2301      	movs	r3, #1
   14c18:	2800      	cmp	r0, #0
   14c1a:	d001      	beq.n	14c20 <mem_test_unit_ready+0xc>
   14c1c:	0018      	movs	r0, r3
   14c1e:	bd10      	pop	{r4, pc}
   14c20:	4b01      	ldr	r3, [pc, #4]	; (14c28 <mem_test_unit_ready+0x14>)
   14c22:	4798      	blx	r3
   14c24:	0003      	movs	r3, r0
   14c26:	e7f9      	b.n	14c1c <mem_test_unit_ready+0x8>
   14c28:	000143d5 	.word	0x000143d5

00014c2c <mem_read_capacity>:
   14c2c:	b510      	push	{r4, lr}
   14c2e:	2301      	movs	r3, #1
   14c30:	2800      	cmp	r0, #0
   14c32:	d001      	beq.n	14c38 <mem_read_capacity+0xc>
   14c34:	0018      	movs	r0, r3
   14c36:	bd10      	pop	{r4, pc}
   14c38:	0008      	movs	r0, r1
   14c3a:	4b02      	ldr	r3, [pc, #8]	; (14c44 <mem_read_capacity+0x18>)
   14c3c:	4798      	blx	r3
   14c3e:	0003      	movs	r3, r0
   14c40:	e7f8      	b.n	14c34 <mem_read_capacity+0x8>
   14c42:	46c0      	nop			; (mov r8, r8)
   14c44:	00014405 	.word	0x00014405

00014c48 <mem_sector_size>:
   14c48:	4243      	negs	r3, r0
   14c4a:	4158      	adcs	r0, r3
   14c4c:	b2c0      	uxtb	r0, r0
   14c4e:	4770      	bx	lr

00014c50 <mem_wr_protect>:
   14c50:	b510      	push	{r4, lr}
   14c52:	2301      	movs	r3, #1
   14c54:	2800      	cmp	r0, #0
   14c56:	d001      	beq.n	14c5c <mem_wr_protect+0xc>
   14c58:	0018      	movs	r0, r3
   14c5a:	bd10      	pop	{r4, pc}
   14c5c:	4b01      	ldr	r3, [pc, #4]	; (14c64 <mem_wr_protect+0x14>)
   14c5e:	4798      	blx	r3
   14c60:	0003      	movs	r3, r0
   14c62:	e7f9      	b.n	14c58 <mem_wr_protect+0x8>
   14c64:	00014415 	.word	0x00014415

00014c68 <memory_2_ram>:
   14c68:	b510      	push	{r4, lr}
   14c6a:	000c      	movs	r4, r1
   14c6c:	2301      	movs	r3, #1
   14c6e:	2800      	cmp	r0, #0
   14c70:	d001      	beq.n	14c76 <memory_2_ram+0xe>
   14c72:	0018      	movs	r0, r3
   14c74:	bd10      	pop	{r4, pc}
   14c76:	0011      	movs	r1, r2
   14c78:	0020      	movs	r0, r4
   14c7a:	4b02      	ldr	r3, [pc, #8]	; (14c84 <memory_2_ram+0x1c>)
   14c7c:	4798      	blx	r3
   14c7e:	0003      	movs	r3, r0
   14c80:	e7f7      	b.n	14c72 <memory_2_ram+0xa>
   14c82:	46c0      	nop			; (mov r8, r8)
   14c84:	00014469 	.word	0x00014469

00014c88 <ram_2_memory>:
   14c88:	b510      	push	{r4, lr}
   14c8a:	000c      	movs	r4, r1
   14c8c:	2301      	movs	r3, #1
   14c8e:	2800      	cmp	r0, #0
   14c90:	d001      	beq.n	14c96 <ram_2_memory+0xe>
   14c92:	0018      	movs	r0, r3
   14c94:	bd10      	pop	{r4, pc}
   14c96:	0011      	movs	r1, r2
   14c98:	0020      	movs	r0, r4
   14c9a:	4b02      	ldr	r3, [pc, #8]	; (14ca4 <ram_2_memory+0x1c>)
   14c9c:	4798      	blx	r3
   14c9e:	0003      	movs	r3, r0
   14ca0:	e7f7      	b.n	14c92 <ram_2_memory+0xa>
   14ca2:	46c0      	nop			; (mov r8, r8)
   14ca4:	000144c1 	.word	0x000144c1

00014ca8 <cpu_irq_enter_critical>:
   14ca8:	4b0c      	ldr	r3, [pc, #48]	; (14cdc <cpu_irq_enter_critical+0x34>)
   14caa:	681b      	ldr	r3, [r3, #0]
   14cac:	2b00      	cmp	r3, #0
   14cae:	d106      	bne.n	14cbe <cpu_irq_enter_critical+0x16>
   14cb0:	f3ef 8310 	mrs	r3, PRIMASK
   14cb4:	2b00      	cmp	r3, #0
   14cb6:	d007      	beq.n	14cc8 <cpu_irq_enter_critical+0x20>
   14cb8:	2200      	movs	r2, #0
   14cba:	4b09      	ldr	r3, [pc, #36]	; (14ce0 <cpu_irq_enter_critical+0x38>)
   14cbc:	701a      	strb	r2, [r3, #0]
   14cbe:	4a07      	ldr	r2, [pc, #28]	; (14cdc <cpu_irq_enter_critical+0x34>)
   14cc0:	6813      	ldr	r3, [r2, #0]
   14cc2:	3301      	adds	r3, #1
   14cc4:	6013      	str	r3, [r2, #0]
   14cc6:	4770      	bx	lr
   14cc8:	b672      	cpsid	i
   14cca:	f3bf 8f5f 	dmb	sy
   14cce:	2200      	movs	r2, #0
   14cd0:	4b04      	ldr	r3, [pc, #16]	; (14ce4 <cpu_irq_enter_critical+0x3c>)
   14cd2:	701a      	strb	r2, [r3, #0]
   14cd4:	3201      	adds	r2, #1
   14cd6:	4b02      	ldr	r3, [pc, #8]	; (14ce0 <cpu_irq_enter_critical+0x38>)
   14cd8:	701a      	strb	r2, [r3, #0]
   14cda:	e7f0      	b.n	14cbe <cpu_irq_enter_critical+0x16>
   14cdc:	20002ba4 	.word	0x20002ba4
   14ce0:	20002ba8 	.word	0x20002ba8
   14ce4:	2000000c 	.word	0x2000000c

00014ce8 <cpu_irq_leave_critical>:
   14ce8:	4b08      	ldr	r3, [pc, #32]	; (14d0c <cpu_irq_leave_critical+0x24>)
   14cea:	681a      	ldr	r2, [r3, #0]
   14cec:	3a01      	subs	r2, #1
   14cee:	601a      	str	r2, [r3, #0]
   14cf0:	681b      	ldr	r3, [r3, #0]
   14cf2:	2b00      	cmp	r3, #0
   14cf4:	d109      	bne.n	14d0a <cpu_irq_leave_critical+0x22>
   14cf6:	4b06      	ldr	r3, [pc, #24]	; (14d10 <cpu_irq_leave_critical+0x28>)
   14cf8:	781b      	ldrb	r3, [r3, #0]
   14cfa:	2b00      	cmp	r3, #0
   14cfc:	d005      	beq.n	14d0a <cpu_irq_leave_critical+0x22>
   14cfe:	2201      	movs	r2, #1
   14d00:	4b04      	ldr	r3, [pc, #16]	; (14d14 <cpu_irq_leave_critical+0x2c>)
   14d02:	701a      	strb	r2, [r3, #0]
   14d04:	f3bf 8f5f 	dmb	sy
   14d08:	b662      	cpsie	i
   14d0a:	4770      	bx	lr
   14d0c:	20002ba4 	.word	0x20002ba4
   14d10:	20002ba8 	.word	0x20002ba8
   14d14:	2000000c 	.word	0x2000000c

00014d18 <system_board_init>:
   14d18:	b5f0      	push	{r4, r5, r6, r7, lr}
   14d1a:	b083      	sub	sp, #12
   14d1c:	ac01      	add	r4, sp, #4
   14d1e:	2501      	movs	r5, #1
   14d20:	7065      	strb	r5, [r4, #1]
   14d22:	2700      	movs	r7, #0
   14d24:	70a7      	strb	r7, [r4, #2]
   14d26:	7025      	strb	r5, [r4, #0]
   14d28:	0021      	movs	r1, r4
   14d2a:	2017      	movs	r0, #23
   14d2c:	4e06      	ldr	r6, [pc, #24]	; (14d48 <system_board_init+0x30>)
   14d2e:	47b0      	blx	r6
   14d30:	2280      	movs	r2, #128	; 0x80
   14d32:	0412      	lsls	r2, r2, #16
   14d34:	4b05      	ldr	r3, [pc, #20]	; (14d4c <system_board_init+0x34>)
   14d36:	619a      	str	r2, [r3, #24]
   14d38:	7027      	strb	r7, [r4, #0]
   14d3a:	7065      	strb	r5, [r4, #1]
   14d3c:	0021      	movs	r1, r4
   14d3e:	2037      	movs	r0, #55	; 0x37
   14d40:	47b0      	blx	r6
   14d42:	b003      	add	sp, #12
   14d44:	bdf0      	pop	{r4, r5, r6, r7, pc}
   14d46:	46c0      	nop			; (mov r8, r8)
   14d48:	00014e29 	.word	0x00014e29
   14d4c:	41004400 	.word	0x41004400

00014d50 <EIC_Handler>:
   14d50:	b570      	push	{r4, r5, r6, lr}
   14d52:	2200      	movs	r2, #0
   14d54:	4b10      	ldr	r3, [pc, #64]	; (14d98 <EIC_Handler+0x48>)
   14d56:	701a      	strb	r2, [r3, #0]
   14d58:	2300      	movs	r3, #0
   14d5a:	4910      	ldr	r1, [pc, #64]	; (14d9c <EIC_Handler+0x4c>)
   14d5c:	251f      	movs	r5, #31
   14d5e:	4e10      	ldr	r6, [pc, #64]	; (14da0 <EIC_Handler+0x50>)
   14d60:	4c0d      	ldr	r4, [pc, #52]	; (14d98 <EIC_Handler+0x48>)
   14d62:	e00a      	b.n	14d7a <EIC_Handler+0x2a>
   14d64:	490d      	ldr	r1, [pc, #52]	; (14d9c <EIC_Handler+0x4c>)
   14d66:	e008      	b.n	14d7a <EIC_Handler+0x2a>
   14d68:	7823      	ldrb	r3, [r4, #0]
   14d6a:	3301      	adds	r3, #1
   14d6c:	b2db      	uxtb	r3, r3
   14d6e:	7023      	strb	r3, [r4, #0]
   14d70:	2b0f      	cmp	r3, #15
   14d72:	d810      	bhi.n	14d96 <EIC_Handler+0x46>
   14d74:	2100      	movs	r1, #0
   14d76:	2b1f      	cmp	r3, #31
   14d78:	d9f4      	bls.n	14d64 <EIC_Handler+0x14>
   14d7a:	0028      	movs	r0, r5
   14d7c:	4018      	ands	r0, r3
   14d7e:	2201      	movs	r2, #1
   14d80:	4082      	lsls	r2, r0
   14d82:	6908      	ldr	r0, [r1, #16]
   14d84:	4210      	tst	r0, r2
   14d86:	d0ef      	beq.n	14d68 <EIC_Handler+0x18>
   14d88:	610a      	str	r2, [r1, #16]
   14d8a:	009b      	lsls	r3, r3, #2
   14d8c:	599b      	ldr	r3, [r3, r6]
   14d8e:	2b00      	cmp	r3, #0
   14d90:	d0ea      	beq.n	14d68 <EIC_Handler+0x18>
   14d92:	4798      	blx	r3
   14d94:	e7e8      	b.n	14d68 <EIC_Handler+0x18>
   14d96:	bd70      	pop	{r4, r5, r6, pc}
   14d98:	200030e0 	.word	0x200030e0
   14d9c:	40001800 	.word	0x40001800
   14da0:	200030e4 	.word	0x200030e4

00014da4 <_extint_enable>:
   14da4:	4a04      	ldr	r2, [pc, #16]	; (14db8 <_extint_enable+0x14>)
   14da6:	7813      	ldrb	r3, [r2, #0]
   14da8:	2102      	movs	r1, #2
   14daa:	430b      	orrs	r3, r1
   14dac:	7013      	strb	r3, [r2, #0]
   14dae:	7853      	ldrb	r3, [r2, #1]
   14db0:	b25b      	sxtb	r3, r3
   14db2:	2b00      	cmp	r3, #0
   14db4:	dbfb      	blt.n	14dae <_extint_enable+0xa>
   14db6:	4770      	bx	lr
   14db8:	40001800 	.word	0x40001800

00014dbc <_system_extint_init>:
   14dbc:	b500      	push	{lr}
   14dbe:	b083      	sub	sp, #12
   14dc0:	4a12      	ldr	r2, [pc, #72]	; (14e0c <_system_extint_init+0x50>)
   14dc2:	6993      	ldr	r3, [r2, #24]
   14dc4:	2140      	movs	r1, #64	; 0x40
   14dc6:	430b      	orrs	r3, r1
   14dc8:	6193      	str	r3, [r2, #24]
   14dca:	a901      	add	r1, sp, #4
   14dcc:	2300      	movs	r3, #0
   14dce:	700b      	strb	r3, [r1, #0]
   14dd0:	2005      	movs	r0, #5
   14dd2:	4b0f      	ldr	r3, [pc, #60]	; (14e10 <_system_extint_init+0x54>)
   14dd4:	4798      	blx	r3
   14dd6:	2005      	movs	r0, #5
   14dd8:	4b0e      	ldr	r3, [pc, #56]	; (14e14 <_system_extint_init+0x58>)
   14dda:	4798      	blx	r3
   14ddc:	4a0e      	ldr	r2, [pc, #56]	; (14e18 <_system_extint_init+0x5c>)
   14dde:	7813      	ldrb	r3, [r2, #0]
   14de0:	2101      	movs	r1, #1
   14de2:	430b      	orrs	r3, r1
   14de4:	7013      	strb	r3, [r2, #0]
   14de6:	7853      	ldrb	r3, [r2, #1]
   14de8:	b25b      	sxtb	r3, r3
   14dea:	2b00      	cmp	r3, #0
   14dec:	dbfb      	blt.n	14de6 <_system_extint_init+0x2a>
   14dee:	4b0b      	ldr	r3, [pc, #44]	; (14e1c <_system_extint_init+0x60>)
   14df0:	0019      	movs	r1, r3
   14df2:	3140      	adds	r1, #64	; 0x40
   14df4:	2200      	movs	r2, #0
   14df6:	c304      	stmia	r3!, {r2}
   14df8:	4299      	cmp	r1, r3
   14dfa:	d1fc      	bne.n	14df6 <_system_extint_init+0x3a>
   14dfc:	2210      	movs	r2, #16
   14dfe:	4b08      	ldr	r3, [pc, #32]	; (14e20 <_system_extint_init+0x64>)
   14e00:	601a      	str	r2, [r3, #0]
   14e02:	4b08      	ldr	r3, [pc, #32]	; (14e24 <_system_extint_init+0x68>)
   14e04:	4798      	blx	r3
   14e06:	b003      	add	sp, #12
   14e08:	bd00      	pop	{pc}
   14e0a:	46c0      	nop			; (mov r8, r8)
   14e0c:	40000400 	.word	0x40000400
   14e10:	00016749 	.word	0x00016749
   14e14:	000166bd 	.word	0x000166bd
   14e18:	40001800 	.word	0x40001800
   14e1c:	200030e4 	.word	0x200030e4
   14e20:	e000e100 	.word	0xe000e100
   14e24:	00014da5 	.word	0x00014da5

00014e28 <port_pin_set_config>:
   14e28:	b500      	push	{lr}
   14e2a:	b083      	sub	sp, #12
   14e2c:	ab01      	add	r3, sp, #4
   14e2e:	2280      	movs	r2, #128	; 0x80
   14e30:	701a      	strb	r2, [r3, #0]
   14e32:	780a      	ldrb	r2, [r1, #0]
   14e34:	705a      	strb	r2, [r3, #1]
   14e36:	784a      	ldrb	r2, [r1, #1]
   14e38:	709a      	strb	r2, [r3, #2]
   14e3a:	788a      	ldrb	r2, [r1, #2]
   14e3c:	70da      	strb	r2, [r3, #3]
   14e3e:	0019      	movs	r1, r3
   14e40:	4b01      	ldr	r3, [pc, #4]	; (14e48 <port_pin_set_config+0x20>)
   14e42:	4798      	blx	r3
   14e44:	b003      	add	sp, #12
   14e46:	bd00      	pop	{pc}
   14e48:	00016841 	.word	0x00016841

00014e4c <rtc_calendar_enable>:
   14e4c:	6801      	ldr	r1, [r0, #0]
   14e4e:	2208      	movs	r2, #8
   14e50:	4b05      	ldr	r3, [pc, #20]	; (14e68 <rtc_calendar_enable+0x1c>)
   14e52:	601a      	str	r2, [r3, #0]
   14e54:	6802      	ldr	r2, [r0, #0]
   14e56:	7a93      	ldrb	r3, [r2, #10]
   14e58:	b25b      	sxtb	r3, r3
   14e5a:	2b00      	cmp	r3, #0
   14e5c:	dbfb      	blt.n	14e56 <rtc_calendar_enable+0xa>
   14e5e:	880b      	ldrh	r3, [r1, #0]
   14e60:	2202      	movs	r2, #2
   14e62:	4313      	orrs	r3, r2
   14e64:	800b      	strh	r3, [r1, #0]
   14e66:	4770      	bx	lr
   14e68:	e000e100 	.word	0xe000e100

00014e6c <rtc_calendar_disable>:
   14e6c:	b510      	push	{r4, lr}
   14e6e:	6802      	ldr	r2, [r0, #0]
   14e70:	2408      	movs	r4, #8
   14e72:	2380      	movs	r3, #128	; 0x80
   14e74:	4907      	ldr	r1, [pc, #28]	; (14e94 <rtc_calendar_disable+0x28>)
   14e76:	50cc      	str	r4, [r1, r3]
   14e78:	6801      	ldr	r1, [r0, #0]
   14e7a:	7a8b      	ldrb	r3, [r1, #10]
   14e7c:	b25b      	sxtb	r3, r3
   14e7e:	2b00      	cmp	r3, #0
   14e80:	dbfb      	blt.n	14e7a <rtc_calendar_disable+0xe>
   14e82:	23c1      	movs	r3, #193	; 0xc1
   14e84:	7193      	strb	r3, [r2, #6]
   14e86:	7213      	strb	r3, [r2, #8]
   14e88:	8813      	ldrh	r3, [r2, #0]
   14e8a:	2102      	movs	r1, #2
   14e8c:	438b      	bics	r3, r1
   14e8e:	8013      	strh	r3, [r2, #0]
   14e90:	bd10      	pop	{r4, pc}
   14e92:	46c0      	nop			; (mov r8, r8)
   14e94:	e000e100 	.word	0xe000e100

00014e98 <rtc_calendar_reset>:
   14e98:	b570      	push	{r4, r5, r6, lr}
   14e9a:	0004      	movs	r4, r0
   14e9c:	6805      	ldr	r5, [r0, #0]
   14e9e:	4b07      	ldr	r3, [pc, #28]	; (14ebc <rtc_calendar_reset+0x24>)
   14ea0:	4798      	blx	r3
   14ea2:	2300      	movs	r3, #0
   14ea4:	8223      	strh	r3, [r4, #16]
   14ea6:	8263      	strh	r3, [r4, #18]
   14ea8:	6822      	ldr	r2, [r4, #0]
   14eaa:	7a93      	ldrb	r3, [r2, #10]
   14eac:	b25b      	sxtb	r3, r3
   14eae:	2b00      	cmp	r3, #0
   14eb0:	dbfb      	blt.n	14eaa <rtc_calendar_reset+0x12>
   14eb2:	882b      	ldrh	r3, [r5, #0]
   14eb4:	2201      	movs	r2, #1
   14eb6:	4313      	orrs	r3, r2
   14eb8:	802b      	strh	r3, [r5, #0]
   14eba:	bd70      	pop	{r4, r5, r6, pc}
   14ebc:	00014e6d 	.word	0x00014e6d

00014ec0 <rtc_calendar_time_to_register_value>:
   14ec0:	b510      	push	{r4, lr}
   14ec2:	88cb      	ldrh	r3, [r1, #6]
   14ec4:	88c2      	ldrh	r2, [r0, #6]
   14ec6:	1a9a      	subs	r2, r3, r2
   14ec8:	0692      	lsls	r2, r2, #26
   14eca:	794b      	ldrb	r3, [r1, #5]
   14ecc:	059b      	lsls	r3, r3, #22
   14ece:	790c      	ldrb	r4, [r1, #4]
   14ed0:	0464      	lsls	r4, r4, #17
   14ed2:	4323      	orrs	r3, r4
   14ed4:	788c      	ldrb	r4, [r1, #2]
   14ed6:	0324      	lsls	r4, r4, #12
   14ed8:	4323      	orrs	r3, r4
   14eda:	4313      	orrs	r3, r2
   14edc:	7902      	ldrb	r2, [r0, #4]
   14ede:	2a00      	cmp	r2, #0
   14ee0:	d105      	bne.n	14eee <rtc_calendar_time_to_register_value+0x2e>
   14ee2:	78ca      	ldrb	r2, [r1, #3]
   14ee4:	2a00      	cmp	r2, #0
   14ee6:	d002      	beq.n	14eee <rtc_calendar_time_to_register_value+0x2e>
   14ee8:	2280      	movs	r2, #128	; 0x80
   14eea:	0252      	lsls	r2, r2, #9
   14eec:	4313      	orrs	r3, r2
   14eee:	7848      	ldrb	r0, [r1, #1]
   14ef0:	0180      	lsls	r0, r0, #6
   14ef2:	780a      	ldrb	r2, [r1, #0]
   14ef4:	4310      	orrs	r0, r2
   14ef6:	4318      	orrs	r0, r3
   14ef8:	bd10      	pop	{r4, pc}

00014efa <rtc_calendar_register_value_to_time>:
   14efa:	b510      	push	{r4, lr}
   14efc:	0e8b      	lsrs	r3, r1, #26
   14efe:	88c4      	ldrh	r4, [r0, #6]
   14f00:	191b      	adds	r3, r3, r4
   14f02:	80d3      	strh	r3, [r2, #6]
   14f04:	018b      	lsls	r3, r1, #6
   14f06:	0f1b      	lsrs	r3, r3, #28
   14f08:	7153      	strb	r3, [r2, #5]
   14f0a:	028b      	lsls	r3, r1, #10
   14f0c:	0edb      	lsrs	r3, r3, #27
   14f0e:	7113      	strb	r3, [r2, #4]
   14f10:	7903      	ldrb	r3, [r0, #4]
   14f12:	2b00      	cmp	r3, #0
   14f14:	d10c      	bne.n	14f30 <rtc_calendar_register_value_to_time+0x36>
   14f16:	040b      	lsls	r3, r1, #16
   14f18:	0f1b      	lsrs	r3, r3, #28
   14f1a:	7093      	strb	r3, [r2, #2]
   14f1c:	03cb      	lsls	r3, r1, #15
   14f1e:	0fdb      	lsrs	r3, r3, #31
   14f20:	70d3      	strb	r3, [r2, #3]
   14f22:	0988      	lsrs	r0, r1, #6
   14f24:	233f      	movs	r3, #63	; 0x3f
   14f26:	4018      	ands	r0, r3
   14f28:	7050      	strb	r0, [r2, #1]
   14f2a:	4019      	ands	r1, r3
   14f2c:	7011      	strb	r1, [r2, #0]
   14f2e:	bd10      	pop	{r4, pc}
   14f30:	03cb      	lsls	r3, r1, #15
   14f32:	0edb      	lsrs	r3, r3, #27
   14f34:	7093      	strb	r3, [r2, #2]
   14f36:	e7f4      	b.n	14f22 <rtc_calendar_register_value_to_time+0x28>

00014f38 <rtc_calendar_get_time>:
   14f38:	b510      	push	{r4, lr}
   14f3a:	000a      	movs	r2, r1
   14f3c:	6803      	ldr	r3, [r0, #0]
   14f3e:	7941      	ldrb	r1, [r0, #5]
   14f40:	2900      	cmp	r1, #0
   14f42:	d006      	beq.n	14f52 <rtc_calendar_get_time+0x1a>
   14f44:	8859      	ldrh	r1, [r3, #2]
   14f46:	0449      	lsls	r1, r1, #17
   14f48:	d50b      	bpl.n	14f62 <rtc_calendar_get_time+0x2a>
   14f4a:	6919      	ldr	r1, [r3, #16]
   14f4c:	4b0a      	ldr	r3, [pc, #40]	; (14f78 <rtc_calendar_get_time+0x40>)
   14f4e:	4798      	blx	r3
   14f50:	bd10      	pop	{r4, pc}
   14f52:	490a      	ldr	r1, [pc, #40]	; (14f7c <rtc_calendar_get_time+0x44>)
   14f54:	8059      	strh	r1, [r3, #2]
   14f56:	6804      	ldr	r4, [r0, #0]
   14f58:	7aa1      	ldrb	r1, [r4, #10]
   14f5a:	b249      	sxtb	r1, r1
   14f5c:	2900      	cmp	r1, #0
   14f5e:	dbfb      	blt.n	14f58 <rtc_calendar_get_time+0x20>
   14f60:	e7f3      	b.n	14f4a <rtc_calendar_get_time+0x12>
   14f62:	8859      	ldrh	r1, [r3, #2]
   14f64:	24c0      	movs	r4, #192	; 0xc0
   14f66:	0224      	lsls	r4, r4, #8
   14f68:	4321      	orrs	r1, r4
   14f6a:	8059      	strh	r1, [r3, #2]
   14f6c:	6804      	ldr	r4, [r0, #0]
   14f6e:	7aa1      	ldrb	r1, [r4, #10]
   14f70:	b249      	sxtb	r1, r1
   14f72:	2900      	cmp	r1, #0
   14f74:	dbfb      	blt.n	14f6e <rtc_calendar_get_time+0x36>
   14f76:	e7e8      	b.n	14f4a <rtc_calendar_get_time+0x12>
   14f78:	00014efb 	.word	0x00014efb
   14f7c:	ffff8000 	.word	0xffff8000

00014f80 <rtc_calendar_set_alarm>:
   14f80:	b570      	push	{r4, r5, r6, lr}
   14f82:	000d      	movs	r5, r1
   14f84:	0014      	movs	r4, r2
   14f86:	2317      	movs	r3, #23
   14f88:	2a01      	cmp	r2, #1
   14f8a:	d901      	bls.n	14f90 <rtc_calendar_set_alarm+0x10>
   14f8c:	0018      	movs	r0, r3
   14f8e:	bd70      	pop	{r4, r5, r6, pc}
   14f90:	6806      	ldr	r6, [r0, #0]
   14f92:	4b06      	ldr	r3, [pc, #24]	; (14fac <rtc_calendar_set_alarm+0x2c>)
   14f94:	4798      	blx	r3
   14f96:	7ab3      	ldrb	r3, [r6, #10]
   14f98:	b25b      	sxtb	r3, r3
   14f9a:	2b00      	cmp	r3, #0
   14f9c:	dbfb      	blt.n	14f96 <rtc_calendar_set_alarm+0x16>
   14f9e:	00e4      	lsls	r4, r4, #3
   14fa0:	1934      	adds	r4, r6, r4
   14fa2:	61a0      	str	r0, [r4, #24]
   14fa4:	7a2b      	ldrb	r3, [r5, #8]
   14fa6:	7723      	strb	r3, [r4, #28]
   14fa8:	2300      	movs	r3, #0
   14faa:	e7ef      	b.n	14f8c <rtc_calendar_set_alarm+0xc>
   14fac:	00014ec1 	.word	0x00014ec1

00014fb0 <rtc_calendar_init>:
   14fb0:	b530      	push	{r4, r5, lr}
   14fb2:	b083      	sub	sp, #12
   14fb4:	0005      	movs	r5, r0
   14fb6:	0014      	movs	r4, r2
   14fb8:	6001      	str	r1, [r0, #0]
   14fba:	4a1c      	ldr	r2, [pc, #112]	; (1502c <rtc_calendar_init+0x7c>)
   14fbc:	6993      	ldr	r3, [r2, #24]
   14fbe:	2120      	movs	r1, #32
   14fc0:	430b      	orrs	r3, r1
   14fc2:	6193      	str	r3, [r2, #24]
   14fc4:	a901      	add	r1, sp, #4
   14fc6:	2302      	movs	r3, #2
   14fc8:	700b      	strb	r3, [r1, #0]
   14fca:	2004      	movs	r0, #4
   14fcc:	4b18      	ldr	r3, [pc, #96]	; (15030 <rtc_calendar_init+0x80>)
   14fce:	4798      	blx	r3
   14fd0:	2004      	movs	r0, #4
   14fd2:	4b18      	ldr	r3, [pc, #96]	; (15034 <rtc_calendar_init+0x84>)
   14fd4:	4798      	blx	r3
   14fd6:	0028      	movs	r0, r5
   14fd8:	4b17      	ldr	r3, [pc, #92]	; (15038 <rtc_calendar_init+0x88>)
   14fda:	4798      	blx	r3
   14fdc:	7923      	ldrb	r3, [r4, #4]
   14fde:	712b      	strb	r3, [r5, #4]
   14fe0:	78e3      	ldrb	r3, [r4, #3]
   14fe2:	716b      	strb	r3, [r5, #5]
   14fe4:	88e3      	ldrh	r3, [r4, #6]
   14fe6:	80eb      	strh	r3, [r5, #6]
   14fe8:	4b14      	ldr	r3, [pc, #80]	; (1503c <rtc_calendar_init+0x8c>)
   14fea:	601d      	str	r5, [r3, #0]
   14fec:	682a      	ldr	r2, [r5, #0]
   14fee:	8823      	ldrh	r3, [r4, #0]
   14ff0:	7921      	ldrb	r1, [r4, #4]
   14ff2:	2900      	cmp	r1, #0
   14ff4:	d017      	beq.n	15026 <rtc_calendar_init+0x76>
   14ff6:	2108      	movs	r1, #8
   14ff8:	430b      	orrs	r3, r1
   14ffa:	78a1      	ldrb	r1, [r4, #2]
   14ffc:	2900      	cmp	r1, #0
   14ffe:	d001      	beq.n	15004 <rtc_calendar_init+0x54>
   15000:	2180      	movs	r1, #128	; 0x80
   15002:	430b      	orrs	r3, r1
   15004:	8013      	strh	r3, [r2, #0]
   15006:	78e3      	ldrb	r3, [r4, #3]
   15008:	2b00      	cmp	r3, #0
   1500a:	d004      	beq.n	15016 <rtc_calendar_init+0x66>
   1500c:	8853      	ldrh	r3, [r2, #2]
   1500e:	2180      	movs	r1, #128	; 0x80
   15010:	01c9      	lsls	r1, r1, #7
   15012:	430b      	orrs	r3, r1
   15014:	8053      	strh	r3, [r2, #2]
   15016:	0021      	movs	r1, r4
   15018:	3108      	adds	r1, #8
   1501a:	2200      	movs	r2, #0
   1501c:	0028      	movs	r0, r5
   1501e:	4b08      	ldr	r3, [pc, #32]	; (15040 <rtc_calendar_init+0x90>)
   15020:	4798      	blx	r3
   15022:	b003      	add	sp, #12
   15024:	bd30      	pop	{r4, r5, pc}
   15026:	2148      	movs	r1, #72	; 0x48
   15028:	430b      	orrs	r3, r1
   1502a:	e7e6      	b.n	14ffa <rtc_calendar_init+0x4a>
   1502c:	40000400 	.word	0x40000400
   15030:	00016749 	.word	0x00016749
   15034:	000166bd 	.word	0x000166bd
   15038:	00014e99 	.word	0x00014e99
   1503c:	20003124 	.word	0x20003124
   15040:	00014f81 	.word	0x00014f81

00015044 <RTC_Handler>:
   15044:	b510      	push	{r4, lr}
   15046:	4b0f      	ldr	r3, [pc, #60]	; (15084 <RTC_Handler+0x40>)
   15048:	681a      	ldr	r2, [r3, #0]
   1504a:	6814      	ldr	r4, [r2, #0]
   1504c:	8a51      	ldrh	r1, [r2, #18]
   1504e:	8a13      	ldrh	r3, [r2, #16]
   15050:	4019      	ands	r1, r3
   15052:	7a20      	ldrb	r0, [r4, #8]
   15054:	79e3      	ldrb	r3, [r4, #7]
   15056:	4003      	ands	r3, r0
   15058:	b258      	sxtb	r0, r3
   1505a:	2800      	cmp	r0, #0
   1505c:	db06      	blt.n	1506c <RTC_Handler+0x28>
   1505e:	07db      	lsls	r3, r3, #31
   15060:	d503      	bpl.n	1506a <RTC_Handler+0x26>
   15062:	07cb      	lsls	r3, r1, #31
   15064:	d40a      	bmi.n	1507c <RTC_Handler+0x38>
   15066:	2301      	movs	r3, #1
   15068:	7223      	strb	r3, [r4, #8]
   1506a:	bd10      	pop	{r4, pc}
   1506c:	078b      	lsls	r3, r1, #30
   1506e:	d402      	bmi.n	15076 <RTC_Handler+0x32>
   15070:	2380      	movs	r3, #128	; 0x80
   15072:	7223      	strb	r3, [r4, #8]
   15074:	e7f9      	b.n	1506a <RTC_Handler+0x26>
   15076:	68d3      	ldr	r3, [r2, #12]
   15078:	4798      	blx	r3
   1507a:	e7f9      	b.n	15070 <RTC_Handler+0x2c>
   1507c:	6893      	ldr	r3, [r2, #8]
   1507e:	4798      	blx	r3
   15080:	e7f1      	b.n	15066 <RTC_Handler+0x22>
   15082:	46c0      	nop			; (mov r8, r8)
   15084:	20003124 	.word	0x20003124

00015088 <long_division>:
   15088:	b5f0      	push	{r4, r5, r6, r7, lr}
   1508a:	46de      	mov	lr, fp
   1508c:	4657      	mov	r7, sl
   1508e:	464e      	mov	r6, r9
   15090:	4645      	mov	r5, r8
   15092:	b5e0      	push	{r5, r6, r7, lr}
   15094:	b087      	sub	sp, #28
   15096:	4680      	mov	r8, r0
   15098:	9104      	str	r1, [sp, #16]
   1509a:	0016      	movs	r6, r2
   1509c:	001f      	movs	r7, r3
   1509e:	2200      	movs	r2, #0
   150a0:	2300      	movs	r3, #0
   150a2:	2100      	movs	r1, #0
   150a4:	468b      	mov	fp, r1
   150a6:	243f      	movs	r4, #63	; 0x3f
   150a8:	2001      	movs	r0, #1
   150aa:	0021      	movs	r1, r4
   150ac:	9600      	str	r6, [sp, #0]
   150ae:	9701      	str	r7, [sp, #4]
   150b0:	465c      	mov	r4, fp
   150b2:	9403      	str	r4, [sp, #12]
   150b4:	4644      	mov	r4, r8
   150b6:	9405      	str	r4, [sp, #20]
   150b8:	e013      	b.n	150e2 <long_division+0x5a>
   150ba:	2420      	movs	r4, #32
   150bc:	1a64      	subs	r4, r4, r1
   150be:	0005      	movs	r5, r0
   150c0:	40e5      	lsrs	r5, r4
   150c2:	46a8      	mov	r8, r5
   150c4:	e014      	b.n	150f0 <long_division+0x68>
   150c6:	9c00      	ldr	r4, [sp, #0]
   150c8:	9d01      	ldr	r5, [sp, #4]
   150ca:	1b12      	subs	r2, r2, r4
   150cc:	41ab      	sbcs	r3, r5
   150ce:	465c      	mov	r4, fp
   150d0:	464d      	mov	r5, r9
   150d2:	432c      	orrs	r4, r5
   150d4:	46a3      	mov	fp, r4
   150d6:	9c03      	ldr	r4, [sp, #12]
   150d8:	4645      	mov	r5, r8
   150da:	432c      	orrs	r4, r5
   150dc:	9403      	str	r4, [sp, #12]
   150de:	3901      	subs	r1, #1
   150e0:	d325      	bcc.n	1512e <long_division+0xa6>
   150e2:	2420      	movs	r4, #32
   150e4:	4264      	negs	r4, r4
   150e6:	190c      	adds	r4, r1, r4
   150e8:	d4e7      	bmi.n	150ba <long_division+0x32>
   150ea:	0005      	movs	r5, r0
   150ec:	40a5      	lsls	r5, r4
   150ee:	46a8      	mov	r8, r5
   150f0:	0004      	movs	r4, r0
   150f2:	408c      	lsls	r4, r1
   150f4:	46a1      	mov	r9, r4
   150f6:	1892      	adds	r2, r2, r2
   150f8:	415b      	adcs	r3, r3
   150fa:	0014      	movs	r4, r2
   150fc:	001d      	movs	r5, r3
   150fe:	9e05      	ldr	r6, [sp, #20]
   15100:	464f      	mov	r7, r9
   15102:	403e      	ands	r6, r7
   15104:	46b4      	mov	ip, r6
   15106:	9e04      	ldr	r6, [sp, #16]
   15108:	4647      	mov	r7, r8
   1510a:	403e      	ands	r6, r7
   1510c:	46b2      	mov	sl, r6
   1510e:	4666      	mov	r6, ip
   15110:	4657      	mov	r7, sl
   15112:	433e      	orrs	r6, r7
   15114:	d003      	beq.n	1511e <long_division+0x96>
   15116:	0006      	movs	r6, r0
   15118:	4326      	orrs	r6, r4
   1511a:	0032      	movs	r2, r6
   1511c:	002b      	movs	r3, r5
   1511e:	9c00      	ldr	r4, [sp, #0]
   15120:	9d01      	ldr	r5, [sp, #4]
   15122:	429d      	cmp	r5, r3
   15124:	d8db      	bhi.n	150de <long_division+0x56>
   15126:	d1ce      	bne.n	150c6 <long_division+0x3e>
   15128:	4294      	cmp	r4, r2
   1512a:	d8d8      	bhi.n	150de <long_division+0x56>
   1512c:	e7cb      	b.n	150c6 <long_division+0x3e>
   1512e:	9b03      	ldr	r3, [sp, #12]
   15130:	4658      	mov	r0, fp
   15132:	0019      	movs	r1, r3
   15134:	b007      	add	sp, #28
   15136:	bc3c      	pop	{r2, r3, r4, r5}
   15138:	4690      	mov	r8, r2
   1513a:	4699      	mov	r9, r3
   1513c:	46a2      	mov	sl, r4
   1513e:	46ab      	mov	fp, r5
   15140:	bdf0      	pop	{r4, r5, r6, r7, pc}

00015142 <_sercom_get_sync_baud_val>:
   15142:	b510      	push	{r4, lr}
   15144:	0849      	lsrs	r1, r1, #1
   15146:	2340      	movs	r3, #64	; 0x40
   15148:	2400      	movs	r4, #0
   1514a:	4281      	cmp	r1, r0
   1514c:	d202      	bcs.n	15154 <_sercom_get_sync_baud_val+0x12>
   1514e:	0018      	movs	r0, r3
   15150:	bd10      	pop	{r4, pc}
   15152:	001c      	movs	r4, r3
   15154:	1a09      	subs	r1, r1, r0
   15156:	1c63      	adds	r3, r4, #1
   15158:	b29b      	uxth	r3, r3
   1515a:	4288      	cmp	r0, r1
   1515c:	d9f9      	bls.n	15152 <_sercom_get_sync_baud_val+0x10>
   1515e:	2340      	movs	r3, #64	; 0x40
   15160:	2cff      	cmp	r4, #255	; 0xff
   15162:	d8f4      	bhi.n	1514e <_sercom_get_sync_baud_val+0xc>
   15164:	8014      	strh	r4, [r2, #0]
   15166:	2300      	movs	r3, #0
   15168:	e7f1      	b.n	1514e <_sercom_get_sync_baud_val+0xc>
	...

0001516c <_sercom_get_async_baud_val>:
   1516c:	b5f0      	push	{r4, r5, r6, r7, lr}
   1516e:	b083      	sub	sp, #12
   15170:	000f      	movs	r7, r1
   15172:	0016      	movs	r6, r2
   15174:	aa08      	add	r2, sp, #32
   15176:	7811      	ldrb	r1, [r2, #0]
   15178:	0004      	movs	r4, r0
   1517a:	434c      	muls	r4, r1
   1517c:	2240      	movs	r2, #64	; 0x40
   1517e:	42bc      	cmp	r4, r7
   15180:	d902      	bls.n	15188 <_sercom_get_async_baud_val+0x1c>
   15182:	0010      	movs	r0, r2
   15184:	b003      	add	sp, #12
   15186:	bdf0      	pop	{r4, r5, r6, r7, pc}
   15188:	2b00      	cmp	r3, #0
   1518a:	d114      	bne.n	151b6 <_sercom_get_async_baud_val+0x4a>
   1518c:	0002      	movs	r2, r0
   1518e:	0008      	movs	r0, r1
   15190:	2100      	movs	r1, #0
   15192:	4c19      	ldr	r4, [pc, #100]	; (151f8 <_sercom_get_async_baud_val+0x8c>)
   15194:	47a0      	blx	r4
   15196:	0001      	movs	r1, r0
   15198:	003a      	movs	r2, r7
   1519a:	2300      	movs	r3, #0
   1519c:	2000      	movs	r0, #0
   1519e:	4c17      	ldr	r4, [pc, #92]	; (151fc <_sercom_get_async_baud_val+0x90>)
   151a0:	47a0      	blx	r4
   151a2:	2200      	movs	r2, #0
   151a4:	2301      	movs	r3, #1
   151a6:	1a12      	subs	r2, r2, r0
   151a8:	418b      	sbcs	r3, r1
   151aa:	0c12      	lsrs	r2, r2, #16
   151ac:	041b      	lsls	r3, r3, #16
   151ae:	431a      	orrs	r2, r3
   151b0:	8032      	strh	r2, [r6, #0]
   151b2:	2200      	movs	r2, #0
   151b4:	e7e5      	b.n	15182 <_sercom_get_async_baud_val+0x16>
   151b6:	2200      	movs	r2, #0
   151b8:	2b01      	cmp	r3, #1
   151ba:	d1f9      	bne.n	151b0 <_sercom_get_async_baud_val+0x44>
   151bc:	000a      	movs	r2, r1
   151be:	2300      	movs	r3, #0
   151c0:	2100      	movs	r1, #0
   151c2:	4c0d      	ldr	r4, [pc, #52]	; (151f8 <_sercom_get_async_baud_val+0x8c>)
   151c4:	47a0      	blx	r4
   151c6:	0002      	movs	r2, r0
   151c8:	000b      	movs	r3, r1
   151ca:	9200      	str	r2, [sp, #0]
   151cc:	9301      	str	r3, [sp, #4]
   151ce:	0038      	movs	r0, r7
   151d0:	2100      	movs	r1, #0
   151d2:	4c0a      	ldr	r4, [pc, #40]	; (151fc <_sercom_get_async_baud_val+0x90>)
   151d4:	47a0      	blx	r4
   151d6:	0005      	movs	r5, r0
   151d8:	2380      	movs	r3, #128	; 0x80
   151da:	019b      	lsls	r3, r3, #6
   151dc:	2240      	movs	r2, #64	; 0x40
   151de:	4298      	cmp	r0, r3
   151e0:	d8cf      	bhi.n	15182 <_sercom_get_async_baud_val+0x16>
   151e2:	0f79      	lsrs	r1, r7, #29
   151e4:	00f8      	lsls	r0, r7, #3
   151e6:	9a00      	ldr	r2, [sp, #0]
   151e8:	9b01      	ldr	r3, [sp, #4]
   151ea:	47a0      	blx	r4
   151ec:	00ea      	lsls	r2, r5, #3
   151ee:	1a82      	subs	r2, r0, r2
   151f0:	b2d2      	uxtb	r2, r2
   151f2:	0352      	lsls	r2, r2, #13
   151f4:	432a      	orrs	r2, r5
   151f6:	e7db      	b.n	151b0 <_sercom_get_async_baud_val+0x44>
   151f8:	00018b3d 	.word	0x00018b3d
   151fc:	00015089 	.word	0x00015089

00015200 <sercom_set_gclk_generator>:
   15200:	b510      	push	{r4, lr}
   15202:	b082      	sub	sp, #8
   15204:	0004      	movs	r4, r0
   15206:	4b0e      	ldr	r3, [pc, #56]	; (15240 <sercom_set_gclk_generator+0x40>)
   15208:	781b      	ldrb	r3, [r3, #0]
   1520a:	2b00      	cmp	r3, #0
   1520c:	d007      	beq.n	1521e <sercom_set_gclk_generator+0x1e>
   1520e:	2900      	cmp	r1, #0
   15210:	d105      	bne.n	1521e <sercom_set_gclk_generator+0x1e>
   15212:	4b0b      	ldr	r3, [pc, #44]	; (15240 <sercom_set_gclk_generator+0x40>)
   15214:	785b      	ldrb	r3, [r3, #1]
   15216:	4283      	cmp	r3, r0
   15218:	d010      	beq.n	1523c <sercom_set_gclk_generator+0x3c>
   1521a:	201d      	movs	r0, #29
   1521c:	e00c      	b.n	15238 <sercom_set_gclk_generator+0x38>
   1521e:	a901      	add	r1, sp, #4
   15220:	700c      	strb	r4, [r1, #0]
   15222:	2013      	movs	r0, #19
   15224:	4b07      	ldr	r3, [pc, #28]	; (15244 <sercom_set_gclk_generator+0x44>)
   15226:	4798      	blx	r3
   15228:	2013      	movs	r0, #19
   1522a:	4b07      	ldr	r3, [pc, #28]	; (15248 <sercom_set_gclk_generator+0x48>)
   1522c:	4798      	blx	r3
   1522e:	4b04      	ldr	r3, [pc, #16]	; (15240 <sercom_set_gclk_generator+0x40>)
   15230:	705c      	strb	r4, [r3, #1]
   15232:	2201      	movs	r2, #1
   15234:	701a      	strb	r2, [r3, #0]
   15236:	2000      	movs	r0, #0
   15238:	b002      	add	sp, #8
   1523a:	bd10      	pop	{r4, pc}
   1523c:	2000      	movs	r0, #0
   1523e:	e7fb      	b.n	15238 <sercom_set_gclk_generator+0x38>
   15240:	20002bac 	.word	0x20002bac
   15244:	00016749 	.word	0x00016749
   15248:	000166bd 	.word	0x000166bd

0001524c <_sercom_get_default_pad>:
   1524c:	4b40      	ldr	r3, [pc, #256]	; (15350 <_sercom_get_default_pad+0x104>)
   1524e:	4298      	cmp	r0, r3
   15250:	d031      	beq.n	152b6 <_sercom_get_default_pad+0x6a>
   15252:	d90a      	bls.n	1526a <_sercom_get_default_pad+0x1e>
   15254:	4b3f      	ldr	r3, [pc, #252]	; (15354 <_sercom_get_default_pad+0x108>)
   15256:	4298      	cmp	r0, r3
   15258:	d04d      	beq.n	152f6 <_sercom_get_default_pad+0xaa>
   1525a:	4b3f      	ldr	r3, [pc, #252]	; (15358 <_sercom_get_default_pad+0x10c>)
   1525c:	4298      	cmp	r0, r3
   1525e:	d05a      	beq.n	15316 <_sercom_get_default_pad+0xca>
   15260:	4b3e      	ldr	r3, [pc, #248]	; (1535c <_sercom_get_default_pad+0x110>)
   15262:	4298      	cmp	r0, r3
   15264:	d037      	beq.n	152d6 <_sercom_get_default_pad+0x8a>
   15266:	2000      	movs	r0, #0
   15268:	4770      	bx	lr
   1526a:	4b3d      	ldr	r3, [pc, #244]	; (15360 <_sercom_get_default_pad+0x114>)
   1526c:	4298      	cmp	r0, r3
   1526e:	d00c      	beq.n	1528a <_sercom_get_default_pad+0x3e>
   15270:	4b3c      	ldr	r3, [pc, #240]	; (15364 <_sercom_get_default_pad+0x118>)
   15272:	4298      	cmp	r0, r3
   15274:	d1f7      	bne.n	15266 <_sercom_get_default_pad+0x1a>
   15276:	2901      	cmp	r1, #1
   15278:	d017      	beq.n	152aa <_sercom_get_default_pad+0x5e>
   1527a:	2900      	cmp	r1, #0
   1527c:	d05d      	beq.n	1533a <_sercom_get_default_pad+0xee>
   1527e:	2902      	cmp	r1, #2
   15280:	d015      	beq.n	152ae <_sercom_get_default_pad+0x62>
   15282:	2903      	cmp	r1, #3
   15284:	d015      	beq.n	152b2 <_sercom_get_default_pad+0x66>
   15286:	2000      	movs	r0, #0
   15288:	e7ee      	b.n	15268 <_sercom_get_default_pad+0x1c>
   1528a:	2901      	cmp	r1, #1
   1528c:	d007      	beq.n	1529e <_sercom_get_default_pad+0x52>
   1528e:	2900      	cmp	r1, #0
   15290:	d051      	beq.n	15336 <_sercom_get_default_pad+0xea>
   15292:	2902      	cmp	r1, #2
   15294:	d005      	beq.n	152a2 <_sercom_get_default_pad+0x56>
   15296:	2903      	cmp	r1, #3
   15298:	d005      	beq.n	152a6 <_sercom_get_default_pad+0x5a>
   1529a:	2000      	movs	r0, #0
   1529c:	e7e4      	b.n	15268 <_sercom_get_default_pad+0x1c>
   1529e:	4832      	ldr	r0, [pc, #200]	; (15368 <_sercom_get_default_pad+0x11c>)
   152a0:	e7e2      	b.n	15268 <_sercom_get_default_pad+0x1c>
   152a2:	4832      	ldr	r0, [pc, #200]	; (1536c <_sercom_get_default_pad+0x120>)
   152a4:	e7e0      	b.n	15268 <_sercom_get_default_pad+0x1c>
   152a6:	4832      	ldr	r0, [pc, #200]	; (15370 <_sercom_get_default_pad+0x124>)
   152a8:	e7de      	b.n	15268 <_sercom_get_default_pad+0x1c>
   152aa:	4832      	ldr	r0, [pc, #200]	; (15374 <_sercom_get_default_pad+0x128>)
   152ac:	e7dc      	b.n	15268 <_sercom_get_default_pad+0x1c>
   152ae:	4832      	ldr	r0, [pc, #200]	; (15378 <_sercom_get_default_pad+0x12c>)
   152b0:	e7da      	b.n	15268 <_sercom_get_default_pad+0x1c>
   152b2:	4832      	ldr	r0, [pc, #200]	; (1537c <_sercom_get_default_pad+0x130>)
   152b4:	e7d8      	b.n	15268 <_sercom_get_default_pad+0x1c>
   152b6:	2901      	cmp	r1, #1
   152b8:	d007      	beq.n	152ca <_sercom_get_default_pad+0x7e>
   152ba:	2900      	cmp	r1, #0
   152bc:	d03f      	beq.n	1533e <_sercom_get_default_pad+0xf2>
   152be:	2902      	cmp	r1, #2
   152c0:	d005      	beq.n	152ce <_sercom_get_default_pad+0x82>
   152c2:	2903      	cmp	r1, #3
   152c4:	d005      	beq.n	152d2 <_sercom_get_default_pad+0x86>
   152c6:	2000      	movs	r0, #0
   152c8:	e7ce      	b.n	15268 <_sercom_get_default_pad+0x1c>
   152ca:	482d      	ldr	r0, [pc, #180]	; (15380 <_sercom_get_default_pad+0x134>)
   152cc:	e7cc      	b.n	15268 <_sercom_get_default_pad+0x1c>
   152ce:	482d      	ldr	r0, [pc, #180]	; (15384 <_sercom_get_default_pad+0x138>)
   152d0:	e7ca      	b.n	15268 <_sercom_get_default_pad+0x1c>
   152d2:	482d      	ldr	r0, [pc, #180]	; (15388 <_sercom_get_default_pad+0x13c>)
   152d4:	e7c8      	b.n	15268 <_sercom_get_default_pad+0x1c>
   152d6:	2901      	cmp	r1, #1
   152d8:	d007      	beq.n	152ea <_sercom_get_default_pad+0x9e>
   152da:	2900      	cmp	r1, #0
   152dc:	d031      	beq.n	15342 <_sercom_get_default_pad+0xf6>
   152de:	2902      	cmp	r1, #2
   152e0:	d005      	beq.n	152ee <_sercom_get_default_pad+0xa2>
   152e2:	2903      	cmp	r1, #3
   152e4:	d005      	beq.n	152f2 <_sercom_get_default_pad+0xa6>
   152e6:	2000      	movs	r0, #0
   152e8:	e7be      	b.n	15268 <_sercom_get_default_pad+0x1c>
   152ea:	4828      	ldr	r0, [pc, #160]	; (1538c <_sercom_get_default_pad+0x140>)
   152ec:	e7bc      	b.n	15268 <_sercom_get_default_pad+0x1c>
   152ee:	4828      	ldr	r0, [pc, #160]	; (15390 <_sercom_get_default_pad+0x144>)
   152f0:	e7ba      	b.n	15268 <_sercom_get_default_pad+0x1c>
   152f2:	4828      	ldr	r0, [pc, #160]	; (15394 <_sercom_get_default_pad+0x148>)
   152f4:	e7b8      	b.n	15268 <_sercom_get_default_pad+0x1c>
   152f6:	2901      	cmp	r1, #1
   152f8:	d007      	beq.n	1530a <_sercom_get_default_pad+0xbe>
   152fa:	2900      	cmp	r1, #0
   152fc:	d023      	beq.n	15346 <_sercom_get_default_pad+0xfa>
   152fe:	2902      	cmp	r1, #2
   15300:	d005      	beq.n	1530e <_sercom_get_default_pad+0xc2>
   15302:	2903      	cmp	r1, #3
   15304:	d005      	beq.n	15312 <_sercom_get_default_pad+0xc6>
   15306:	2000      	movs	r0, #0
   15308:	e7ae      	b.n	15268 <_sercom_get_default_pad+0x1c>
   1530a:	4823      	ldr	r0, [pc, #140]	; (15398 <_sercom_get_default_pad+0x14c>)
   1530c:	e7ac      	b.n	15268 <_sercom_get_default_pad+0x1c>
   1530e:	4823      	ldr	r0, [pc, #140]	; (1539c <_sercom_get_default_pad+0x150>)
   15310:	e7aa      	b.n	15268 <_sercom_get_default_pad+0x1c>
   15312:	4823      	ldr	r0, [pc, #140]	; (153a0 <_sercom_get_default_pad+0x154>)
   15314:	e7a8      	b.n	15268 <_sercom_get_default_pad+0x1c>
   15316:	2901      	cmp	r1, #1
   15318:	d007      	beq.n	1532a <_sercom_get_default_pad+0xde>
   1531a:	2900      	cmp	r1, #0
   1531c:	d015      	beq.n	1534a <_sercom_get_default_pad+0xfe>
   1531e:	2902      	cmp	r1, #2
   15320:	d005      	beq.n	1532e <_sercom_get_default_pad+0xe2>
   15322:	2903      	cmp	r1, #3
   15324:	d005      	beq.n	15332 <_sercom_get_default_pad+0xe6>
   15326:	2000      	movs	r0, #0
   15328:	e79e      	b.n	15268 <_sercom_get_default_pad+0x1c>
   1532a:	481e      	ldr	r0, [pc, #120]	; (153a4 <_sercom_get_default_pad+0x158>)
   1532c:	e79c      	b.n	15268 <_sercom_get_default_pad+0x1c>
   1532e:	481e      	ldr	r0, [pc, #120]	; (153a8 <_sercom_get_default_pad+0x15c>)
   15330:	e79a      	b.n	15268 <_sercom_get_default_pad+0x1c>
   15332:	481e      	ldr	r0, [pc, #120]	; (153ac <_sercom_get_default_pad+0x160>)
   15334:	e798      	b.n	15268 <_sercom_get_default_pad+0x1c>
   15336:	481e      	ldr	r0, [pc, #120]	; (153b0 <_sercom_get_default_pad+0x164>)
   15338:	e796      	b.n	15268 <_sercom_get_default_pad+0x1c>
   1533a:	2003      	movs	r0, #3
   1533c:	e794      	b.n	15268 <_sercom_get_default_pad+0x1c>
   1533e:	481d      	ldr	r0, [pc, #116]	; (153b4 <_sercom_get_default_pad+0x168>)
   15340:	e792      	b.n	15268 <_sercom_get_default_pad+0x1c>
   15342:	481d      	ldr	r0, [pc, #116]	; (153b8 <_sercom_get_default_pad+0x16c>)
   15344:	e790      	b.n	15268 <_sercom_get_default_pad+0x1c>
   15346:	481d      	ldr	r0, [pc, #116]	; (153bc <_sercom_get_default_pad+0x170>)
   15348:	e78e      	b.n	15268 <_sercom_get_default_pad+0x1c>
   1534a:	481d      	ldr	r0, [pc, #116]	; (153c0 <_sercom_get_default_pad+0x174>)
   1534c:	e78c      	b.n	15268 <_sercom_get_default_pad+0x1c>
   1534e:	46c0      	nop			; (mov r8, r8)
   15350:	42001000 	.word	0x42001000
   15354:	42001800 	.word	0x42001800
   15358:	42001c00 	.word	0x42001c00
   1535c:	42001400 	.word	0x42001400
   15360:	42000800 	.word	0x42000800
   15364:	42000c00 	.word	0x42000c00
   15368:	00050003 	.word	0x00050003
   1536c:	00060003 	.word	0x00060003
   15370:	00070003 	.word	0x00070003
   15374:	00010003 	.word	0x00010003
   15378:	001e0003 	.word	0x001e0003
   1537c:	001f0003 	.word	0x001f0003
   15380:	00090003 	.word	0x00090003
   15384:	000a0003 	.word	0x000a0003
   15388:	000b0003 	.word	0x000b0003
   1538c:	00110003 	.word	0x00110003
   15390:	00120003 	.word	0x00120003
   15394:	00130003 	.word	0x00130003
   15398:	000d0003 	.word	0x000d0003
   1539c:	000e0003 	.word	0x000e0003
   153a0:	000f0003 	.word	0x000f0003
   153a4:	00170003 	.word	0x00170003
   153a8:	00180003 	.word	0x00180003
   153ac:	00190003 	.word	0x00190003
   153b0:	00040003 	.word	0x00040003
   153b4:	00080003 	.word	0x00080003
   153b8:	00100003 	.word	0x00100003
   153bc:	000c0003 	.word	0x000c0003
   153c0:	00160003 	.word	0x00160003

000153c4 <_sercom_get_sercom_inst_index>:
   153c4:	b530      	push	{r4, r5, lr}
   153c6:	b087      	sub	sp, #28
   153c8:	4b0b      	ldr	r3, [pc, #44]	; (153f8 <_sercom_get_sercom_inst_index+0x34>)
   153ca:	466a      	mov	r2, sp
   153cc:	cb32      	ldmia	r3!, {r1, r4, r5}
   153ce:	c232      	stmia	r2!, {r1, r4, r5}
   153d0:	cb32      	ldmia	r3!, {r1, r4, r5}
   153d2:	c232      	stmia	r2!, {r1, r4, r5}
   153d4:	9b00      	ldr	r3, [sp, #0]
   153d6:	4283      	cmp	r3, r0
   153d8:	d00b      	beq.n	153f2 <_sercom_get_sercom_inst_index+0x2e>
   153da:	2301      	movs	r3, #1
   153dc:	009a      	lsls	r2, r3, #2
   153de:	4669      	mov	r1, sp
   153e0:	5852      	ldr	r2, [r2, r1]
   153e2:	4282      	cmp	r2, r0
   153e4:	d006      	beq.n	153f4 <_sercom_get_sercom_inst_index+0x30>
   153e6:	3301      	adds	r3, #1
   153e8:	2b06      	cmp	r3, #6
   153ea:	d1f7      	bne.n	153dc <_sercom_get_sercom_inst_index+0x18>
   153ec:	2000      	movs	r0, #0
   153ee:	b007      	add	sp, #28
   153f0:	bd30      	pop	{r4, r5, pc}
   153f2:	2300      	movs	r3, #0
   153f4:	b2d8      	uxtb	r0, r3
   153f6:	e7fa      	b.n	153ee <_sercom_get_sercom_inst_index+0x2a>
   153f8:	000196bc 	.word	0x000196bc

000153fc <_sercom_default_handler>:
   153fc:	4770      	bx	lr
	...

00015400 <_sercom_set_handler>:
   15400:	b5f0      	push	{r4, r5, r6, r7, lr}
   15402:	4b0a      	ldr	r3, [pc, #40]	; (1542c <_sercom_set_handler+0x2c>)
   15404:	781b      	ldrb	r3, [r3, #0]
   15406:	2b00      	cmp	r3, #0
   15408:	d10c      	bne.n	15424 <_sercom_set_handler+0x24>
   1540a:	4f09      	ldr	r7, [pc, #36]	; (15430 <_sercom_set_handler+0x30>)
   1540c:	4e09      	ldr	r6, [pc, #36]	; (15434 <_sercom_set_handler+0x34>)
   1540e:	4d0a      	ldr	r5, [pc, #40]	; (15438 <_sercom_set_handler+0x38>)
   15410:	2400      	movs	r4, #0
   15412:	51de      	str	r6, [r3, r7]
   15414:	195a      	adds	r2, r3, r5
   15416:	6014      	str	r4, [r2, #0]
   15418:	3304      	adds	r3, #4
   1541a:	2b18      	cmp	r3, #24
   1541c:	d1f9      	bne.n	15412 <_sercom_set_handler+0x12>
   1541e:	2201      	movs	r2, #1
   15420:	4b02      	ldr	r3, [pc, #8]	; (1542c <_sercom_set_handler+0x2c>)
   15422:	701a      	strb	r2, [r3, #0]
   15424:	0080      	lsls	r0, r0, #2
   15426:	4b02      	ldr	r3, [pc, #8]	; (15430 <_sercom_set_handler+0x30>)
   15428:	50c1      	str	r1, [r0, r3]
   1542a:	bdf0      	pop	{r4, r5, r6, r7, pc}
   1542c:	20002bae 	.word	0x20002bae
   15430:	20002bb0 	.word	0x20002bb0
   15434:	000153fd 	.word	0x000153fd
   15438:	20003128 	.word	0x20003128

0001543c <_sercom_get_interrupt_vector>:
   1543c:	b500      	push	{lr}
   1543e:	b083      	sub	sp, #12
   15440:	2309      	movs	r3, #9
   15442:	466a      	mov	r2, sp
   15444:	7013      	strb	r3, [r2, #0]
   15446:	3301      	adds	r3, #1
   15448:	7053      	strb	r3, [r2, #1]
   1544a:	3301      	adds	r3, #1
   1544c:	7093      	strb	r3, [r2, #2]
   1544e:	3301      	adds	r3, #1
   15450:	70d3      	strb	r3, [r2, #3]
   15452:	3301      	adds	r3, #1
   15454:	7113      	strb	r3, [r2, #4]
   15456:	3301      	adds	r3, #1
   15458:	7153      	strb	r3, [r2, #5]
   1545a:	4b03      	ldr	r3, [pc, #12]	; (15468 <_sercom_get_interrupt_vector+0x2c>)
   1545c:	4798      	blx	r3
   1545e:	466b      	mov	r3, sp
   15460:	5618      	ldrsb	r0, [r3, r0]
   15462:	b003      	add	sp, #12
   15464:	bd00      	pop	{pc}
   15466:	46c0      	nop			; (mov r8, r8)
   15468:	000153c5 	.word	0x000153c5

0001546c <SERCOM0_Handler>:
   1546c:	b510      	push	{r4, lr}
   1546e:	4b02      	ldr	r3, [pc, #8]	; (15478 <SERCOM0_Handler+0xc>)
   15470:	681b      	ldr	r3, [r3, #0]
   15472:	2000      	movs	r0, #0
   15474:	4798      	blx	r3
   15476:	bd10      	pop	{r4, pc}
   15478:	20002bb0 	.word	0x20002bb0

0001547c <SERCOM1_Handler>:
   1547c:	b510      	push	{r4, lr}
   1547e:	4b02      	ldr	r3, [pc, #8]	; (15488 <SERCOM1_Handler+0xc>)
   15480:	685b      	ldr	r3, [r3, #4]
   15482:	2001      	movs	r0, #1
   15484:	4798      	blx	r3
   15486:	bd10      	pop	{r4, pc}
   15488:	20002bb0 	.word	0x20002bb0

0001548c <SERCOM2_Handler>:
   1548c:	b510      	push	{r4, lr}
   1548e:	4b02      	ldr	r3, [pc, #8]	; (15498 <SERCOM2_Handler+0xc>)
   15490:	689b      	ldr	r3, [r3, #8]
   15492:	2002      	movs	r0, #2
   15494:	4798      	blx	r3
   15496:	bd10      	pop	{r4, pc}
   15498:	20002bb0 	.word	0x20002bb0

0001549c <SERCOM3_Handler>:
   1549c:	b510      	push	{r4, lr}
   1549e:	4b02      	ldr	r3, [pc, #8]	; (154a8 <SERCOM3_Handler+0xc>)
   154a0:	68db      	ldr	r3, [r3, #12]
   154a2:	2003      	movs	r0, #3
   154a4:	4798      	blx	r3
   154a6:	bd10      	pop	{r4, pc}
   154a8:	20002bb0 	.word	0x20002bb0

000154ac <SERCOM4_Handler>:
   154ac:	b510      	push	{r4, lr}
   154ae:	4b02      	ldr	r3, [pc, #8]	; (154b8 <SERCOM4_Handler+0xc>)
   154b0:	691b      	ldr	r3, [r3, #16]
   154b2:	2004      	movs	r0, #4
   154b4:	4798      	blx	r3
   154b6:	bd10      	pop	{r4, pc}
   154b8:	20002bb0 	.word	0x20002bb0

000154bc <SERCOM5_Handler>:
   154bc:	b510      	push	{r4, lr}
   154be:	4b02      	ldr	r3, [pc, #8]	; (154c8 <SERCOM5_Handler+0xc>)
   154c0:	695b      	ldr	r3, [r3, #20]
   154c2:	2005      	movs	r0, #5
   154c4:	4798      	blx	r3
   154c6:	bd10      	pop	{r4, pc}
   154c8:	20002bb0 	.word	0x20002bb0

000154cc <spi_set_baudrate>:
   154cc:	b570      	push	{r4, r5, r6, lr}
   154ce:	b082      	sub	sp, #8
   154d0:	0005      	movs	r5, r0
   154d2:	000c      	movs	r4, r1
   154d4:	2200      	movs	r2, #0
   154d6:	466b      	mov	r3, sp
   154d8:	80da      	strh	r2, [r3, #6]
   154da:	6806      	ldr	r6, [r0, #0]
   154dc:	0030      	movs	r0, r6
   154de:	4b24      	ldr	r3, [pc, #144]	; (15570 <spi_set_baudrate+0xa4>)
   154e0:	4798      	blx	r3
   154e2:	231f      	movs	r3, #31
   154e4:	4018      	ands	r0, r3
   154e6:	3b1e      	subs	r3, #30
   154e8:	4083      	lsls	r3, r0
   154ea:	2280      	movs	r2, #128	; 0x80
   154ec:	4921      	ldr	r1, [pc, #132]	; (15574 <spi_set_baudrate+0xa8>)
   154ee:	508b      	str	r3, [r1, r2]
   154f0:	682a      	ldr	r2, [r5, #0]
   154f2:	69d3      	ldr	r3, [r2, #28]
   154f4:	2b00      	cmp	r3, #0
   154f6:	d1fc      	bne.n	154f2 <spi_set_baudrate+0x26>
   154f8:	338f      	adds	r3, #143	; 0x8f
   154fa:	7533      	strb	r3, [r6, #20]
   154fc:	7633      	strb	r3, [r6, #24]
   154fe:	6833      	ldr	r3, [r6, #0]
   15500:	2202      	movs	r2, #2
   15502:	4393      	bics	r3, r2
   15504:	6033      	str	r3, [r6, #0]
   15506:	6828      	ldr	r0, [r5, #0]
   15508:	69c3      	ldr	r3, [r0, #28]
   1550a:	2b00      	cmp	r3, #0
   1550c:	d1fc      	bne.n	15508 <spi_set_baudrate+0x3c>
   1550e:	4b1a      	ldr	r3, [pc, #104]	; (15578 <spi_set_baudrate+0xac>)
   15510:	4798      	blx	r3
   15512:	3014      	adds	r0, #20
   15514:	b2c0      	uxtb	r0, r0
   15516:	4b19      	ldr	r3, [pc, #100]	; (1557c <spi_set_baudrate+0xb0>)
   15518:	4798      	blx	r3
   1551a:	0001      	movs	r1, r0
   1551c:	466b      	mov	r3, sp
   1551e:	1d9a      	adds	r2, r3, #6
   15520:	0020      	movs	r0, r4
   15522:	4b17      	ldr	r3, [pc, #92]	; (15580 <spi_set_baudrate+0xb4>)
   15524:	4798      	blx	r3
   15526:	1e04      	subs	r4, r0, #0
   15528:	d003      	beq.n	15532 <spi_set_baudrate+0x66>
   1552a:	2417      	movs	r4, #23
   1552c:	0020      	movs	r0, r4
   1552e:	b002      	add	sp, #8
   15530:	bd70      	pop	{r4, r5, r6, pc}
   15532:	466b      	mov	r3, sp
   15534:	3306      	adds	r3, #6
   15536:	781b      	ldrb	r3, [r3, #0]
   15538:	7333      	strb	r3, [r6, #12]
   1553a:	682e      	ldr	r6, [r5, #0]
   1553c:	69f3      	ldr	r3, [r6, #28]
   1553e:	2b00      	cmp	r3, #0
   15540:	d1fc      	bne.n	1553c <spi_set_baudrate+0x70>
   15542:	0030      	movs	r0, r6
   15544:	4b0a      	ldr	r3, [pc, #40]	; (15570 <spi_set_baudrate+0xa4>)
   15546:	4798      	blx	r3
   15548:	231f      	movs	r3, #31
   1554a:	4018      	ands	r0, r3
   1554c:	3b1e      	subs	r3, #30
   1554e:	4083      	lsls	r3, r0
   15550:	4a08      	ldr	r2, [pc, #32]	; (15574 <spi_set_baudrate+0xa8>)
   15552:	6013      	str	r3, [r2, #0]
   15554:	682a      	ldr	r2, [r5, #0]
   15556:	69d3      	ldr	r3, [r2, #28]
   15558:	2b00      	cmp	r3, #0
   1555a:	d1fc      	bne.n	15556 <spi_set_baudrate+0x8a>
   1555c:	6833      	ldr	r3, [r6, #0]
   1555e:	2202      	movs	r2, #2
   15560:	4313      	orrs	r3, r2
   15562:	6033      	str	r3, [r6, #0]
   15564:	682a      	ldr	r2, [r5, #0]
   15566:	69d3      	ldr	r3, [r2, #28]
   15568:	2b00      	cmp	r3, #0
   1556a:	d1fc      	bne.n	15566 <spi_set_baudrate+0x9a>
   1556c:	e7de      	b.n	1552c <spi_set_baudrate+0x60>
   1556e:	46c0      	nop			; (mov r8, r8)
   15570:	0001543d 	.word	0x0001543d
   15574:	e000e100 	.word	0xe000e100
   15578:	000153c5 	.word	0x000153c5
   1557c:	00016765 	.word	0x00016765
   15580:	00015143 	.word	0x00015143

00015584 <spi_init>:
   15584:	b5f0      	push	{r4, r5, r6, r7, lr}
   15586:	b08b      	sub	sp, #44	; 0x2c
   15588:	0005      	movs	r5, r0
   1558a:	000c      	movs	r4, r1
   1558c:	0016      	movs	r6, r2
   1558e:	6029      	str	r1, [r5, #0]
   15590:	680b      	ldr	r3, [r1, #0]
   15592:	201c      	movs	r0, #28
   15594:	079b      	lsls	r3, r3, #30
   15596:	d501      	bpl.n	1559c <spi_init+0x18>
   15598:	b00b      	add	sp, #44	; 0x2c
   1559a:	bdf0      	pop	{r4, r5, r6, r7, pc}
   1559c:	680b      	ldr	r3, [r1, #0]
   1559e:	3817      	subs	r0, #23
   155a0:	07db      	lsls	r3, r3, #31
   155a2:	d4f9      	bmi.n	15598 <spi_init+0x14>
   155a4:	0008      	movs	r0, r1
   155a6:	4b60      	ldr	r3, [pc, #384]	; (15728 <spi_init+0x1a4>)
   155a8:	4798      	blx	r3
   155aa:	4a60      	ldr	r2, [pc, #384]	; (1572c <spi_init+0x1a8>)
   155ac:	6a11      	ldr	r1, [r2, #32]
   155ae:	1c87      	adds	r7, r0, #2
   155b0:	2301      	movs	r3, #1
   155b2:	40bb      	lsls	r3, r7
   155b4:	430b      	orrs	r3, r1
   155b6:	6213      	str	r3, [r2, #32]
   155b8:	a909      	add	r1, sp, #36	; 0x24
   155ba:	2724      	movs	r7, #36	; 0x24
   155bc:	5df3      	ldrb	r3, [r6, r7]
   155be:	700b      	strb	r3, [r1, #0]
   155c0:	3014      	adds	r0, #20
   155c2:	b2c3      	uxtb	r3, r0
   155c4:	9301      	str	r3, [sp, #4]
   155c6:	0018      	movs	r0, r3
   155c8:	4b59      	ldr	r3, [pc, #356]	; (15730 <spi_init+0x1ac>)
   155ca:	4798      	blx	r3
   155cc:	9801      	ldr	r0, [sp, #4]
   155ce:	4b59      	ldr	r3, [pc, #356]	; (15734 <spi_init+0x1b0>)
   155d0:	4798      	blx	r3
   155d2:	5df0      	ldrb	r0, [r6, r7]
   155d4:	2100      	movs	r1, #0
   155d6:	4b58      	ldr	r3, [pc, #352]	; (15738 <spi_init+0x1b4>)
   155d8:	4798      	blx	r3
   155da:	7833      	ldrb	r3, [r6, #0]
   155dc:	2b01      	cmp	r3, #1
   155de:	d038      	beq.n	15652 <spi_init+0xce>
   155e0:	002b      	movs	r3, r5
   155e2:	330c      	adds	r3, #12
   155e4:	0029      	movs	r1, r5
   155e6:	3128      	adds	r1, #40	; 0x28
   155e8:	2200      	movs	r2, #0
   155ea:	c304      	stmia	r3!, {r2}
   155ec:	428b      	cmp	r3, r1
   155ee:	d1fc      	bne.n	155ea <spi_init+0x66>
   155f0:	2300      	movs	r3, #0
   155f2:	62eb      	str	r3, [r5, #44]	; 0x2c
   155f4:	62ab      	str	r3, [r5, #40]	; 0x28
   155f6:	2400      	movs	r4, #0
   155f8:	86ab      	strh	r3, [r5, #52]	; 0x34
   155fa:	862b      	strh	r3, [r5, #48]	; 0x30
   155fc:	3336      	adds	r3, #54	; 0x36
   155fe:	54ec      	strb	r4, [r5, r3]
   15600:	3301      	adds	r3, #1
   15602:	54ec      	strb	r4, [r5, r3]
   15604:	3301      	adds	r3, #1
   15606:	54ec      	strb	r4, [r5, r3]
   15608:	3b35      	subs	r3, #53	; 0x35
   1560a:	726b      	strb	r3, [r5, #9]
   1560c:	712c      	strb	r4, [r5, #4]
   1560e:	6828      	ldr	r0, [r5, #0]
   15610:	4b45      	ldr	r3, [pc, #276]	; (15728 <spi_init+0x1a4>)
   15612:	4798      	blx	r3
   15614:	0007      	movs	r7, r0
   15616:	4949      	ldr	r1, [pc, #292]	; (1573c <spi_init+0x1b8>)
   15618:	4b49      	ldr	r3, [pc, #292]	; (15740 <spi_init+0x1bc>)
   1561a:	4798      	blx	r3
   1561c:	00bf      	lsls	r7, r7, #2
   1561e:	4b49      	ldr	r3, [pc, #292]	; (15744 <spi_init+0x1c0>)
   15620:	50fd      	str	r5, [r7, r3]
   15622:	682f      	ldr	r7, [r5, #0]
   15624:	ab04      	add	r3, sp, #16
   15626:	2280      	movs	r2, #128	; 0x80
   15628:	701a      	strb	r2, [r3, #0]
   1562a:	705c      	strb	r4, [r3, #1]
   1562c:	3a7f      	subs	r2, #127	; 0x7f
   1562e:	709a      	strb	r2, [r3, #2]
   15630:	70dc      	strb	r4, [r3, #3]
   15632:	7833      	ldrb	r3, [r6, #0]
   15634:	2b00      	cmp	r3, #0
   15636:	d102      	bne.n	1563e <spi_init+0xba>
   15638:	2200      	movs	r2, #0
   1563a:	ab04      	add	r3, sp, #16
   1563c:	709a      	strb	r2, [r3, #2]
   1563e:	6ab3      	ldr	r3, [r6, #40]	; 0x28
   15640:	9305      	str	r3, [sp, #20]
   15642:	6af3      	ldr	r3, [r6, #44]	; 0x2c
   15644:	9306      	str	r3, [sp, #24]
   15646:	6b33      	ldr	r3, [r6, #48]	; 0x30
   15648:	9307      	str	r3, [sp, #28]
   1564a:	6b73      	ldr	r3, [r6, #52]	; 0x34
   1564c:	9308      	str	r3, [sp, #32]
   1564e:	2400      	movs	r4, #0
   15650:	e00b      	b.n	1566a <spi_init+0xe6>
   15652:	6823      	ldr	r3, [r4, #0]
   15654:	220c      	movs	r2, #12
   15656:	4313      	orrs	r3, r2
   15658:	6023      	str	r3, [r4, #0]
   1565a:	e7c1      	b.n	155e0 <spi_init+0x5c>
   1565c:	0038      	movs	r0, r7
   1565e:	4b3a      	ldr	r3, [pc, #232]	; (15748 <spi_init+0x1c4>)
   15660:	4798      	blx	r3
   15662:	e00a      	b.n	1567a <spi_init+0xf6>
   15664:	3401      	adds	r4, #1
   15666:	2c04      	cmp	r4, #4
   15668:	d010      	beq.n	1568c <spi_init+0x108>
   1566a:	b2e1      	uxtb	r1, r4
   1566c:	00a3      	lsls	r3, r4, #2
   1566e:	aa02      	add	r2, sp, #8
   15670:	200c      	movs	r0, #12
   15672:	1812      	adds	r2, r2, r0
   15674:	58d0      	ldr	r0, [r2, r3]
   15676:	2800      	cmp	r0, #0
   15678:	d0f0      	beq.n	1565c <spi_init+0xd8>
   1567a:	1c43      	adds	r3, r0, #1
   1567c:	d0f2      	beq.n	15664 <spi_init+0xe0>
   1567e:	a904      	add	r1, sp, #16
   15680:	7008      	strb	r0, [r1, #0]
   15682:	0c00      	lsrs	r0, r0, #16
   15684:	b2c0      	uxtb	r0, r0
   15686:	4b31      	ldr	r3, [pc, #196]	; (1574c <spi_init+0x1c8>)
   15688:	4798      	blx	r3
   1568a:	e7eb      	b.n	15664 <spi_init+0xe0>
   1568c:	7833      	ldrb	r3, [r6, #0]
   1568e:	716b      	strb	r3, [r5, #5]
   15690:	7c33      	ldrb	r3, [r6, #16]
   15692:	71ab      	strb	r3, [r5, #6]
   15694:	7cb3      	ldrb	r3, [r6, #18]
   15696:	71eb      	strb	r3, [r5, #7]
   15698:	7d33      	ldrb	r3, [r6, #20]
   1569a:	722b      	strb	r3, [r5, #8]
   1569c:	2200      	movs	r2, #0
   1569e:	ab02      	add	r3, sp, #8
   156a0:	80da      	strh	r2, [r3, #6]
   156a2:	7833      	ldrb	r3, [r6, #0]
   156a4:	2b01      	cmp	r3, #1
   156a6:	d028      	beq.n	156fa <spi_init+0x176>
   156a8:	6873      	ldr	r3, [r6, #4]
   156aa:	68b2      	ldr	r2, [r6, #8]
   156ac:	4313      	orrs	r3, r2
   156ae:	68f2      	ldr	r2, [r6, #12]
   156b0:	4313      	orrs	r3, r2
   156b2:	7c31      	ldrb	r1, [r6, #16]
   156b4:	7c72      	ldrb	r2, [r6, #17]
   156b6:	2a00      	cmp	r2, #0
   156b8:	d103      	bne.n	156c2 <spi_init+0x13e>
   156ba:	4a25      	ldr	r2, [pc, #148]	; (15750 <spi_init+0x1cc>)
   156bc:	7892      	ldrb	r2, [r2, #2]
   156be:	0792      	lsls	r2, r2, #30
   156c0:	d501      	bpl.n	156c6 <spi_init+0x142>
   156c2:	2280      	movs	r2, #128	; 0x80
   156c4:	4313      	orrs	r3, r2
   156c6:	7cb2      	ldrb	r2, [r6, #18]
   156c8:	2a00      	cmp	r2, #0
   156ca:	d002      	beq.n	156d2 <spi_init+0x14e>
   156cc:	2280      	movs	r2, #128	; 0x80
   156ce:	0292      	lsls	r2, r2, #10
   156d0:	4311      	orrs	r1, r2
   156d2:	7cf2      	ldrb	r2, [r6, #19]
   156d4:	2a00      	cmp	r2, #0
   156d6:	d002      	beq.n	156de <spi_init+0x15a>
   156d8:	2280      	movs	r2, #128	; 0x80
   156da:	0092      	lsls	r2, r2, #2
   156dc:	4311      	orrs	r1, r2
   156de:	7d32      	ldrb	r2, [r6, #20]
   156e0:	2a00      	cmp	r2, #0
   156e2:	d002      	beq.n	156ea <spi_init+0x166>
   156e4:	2280      	movs	r2, #128	; 0x80
   156e6:	0192      	lsls	r2, r2, #6
   156e8:	4311      	orrs	r1, r2
   156ea:	683a      	ldr	r2, [r7, #0]
   156ec:	4313      	orrs	r3, r2
   156ee:	603b      	str	r3, [r7, #0]
   156f0:	687b      	ldr	r3, [r7, #4]
   156f2:	430b      	orrs	r3, r1
   156f4:	607b      	str	r3, [r7, #4]
   156f6:	2000      	movs	r0, #0
   156f8:	e74e      	b.n	15598 <spi_init+0x14>
   156fa:	6828      	ldr	r0, [r5, #0]
   156fc:	4b0a      	ldr	r3, [pc, #40]	; (15728 <spi_init+0x1a4>)
   156fe:	4798      	blx	r3
   15700:	3014      	adds	r0, #20
   15702:	b2c0      	uxtb	r0, r0
   15704:	4b13      	ldr	r3, [pc, #76]	; (15754 <spi_init+0x1d0>)
   15706:	4798      	blx	r3
   15708:	0001      	movs	r1, r0
   1570a:	ab02      	add	r3, sp, #8
   1570c:	1d9a      	adds	r2, r3, #6
   1570e:	69b0      	ldr	r0, [r6, #24]
   15710:	4b11      	ldr	r3, [pc, #68]	; (15758 <spi_init+0x1d4>)
   15712:	4798      	blx	r3
   15714:	0003      	movs	r3, r0
   15716:	2017      	movs	r0, #23
   15718:	2b00      	cmp	r3, #0
   1571a:	d000      	beq.n	1571e <spi_init+0x19a>
   1571c:	e73c      	b.n	15598 <spi_init+0x14>
   1571e:	ab02      	add	r3, sp, #8
   15720:	3306      	adds	r3, #6
   15722:	781b      	ldrb	r3, [r3, #0]
   15724:	733b      	strb	r3, [r7, #12]
   15726:	e7bf      	b.n	156a8 <spi_init+0x124>
   15728:	000153c5 	.word	0x000153c5
   1572c:	40000400 	.word	0x40000400
   15730:	00016749 	.word	0x00016749
   15734:	000166bd 	.word	0x000166bd
   15738:	00015201 	.word	0x00015201
   1573c:	000159f1 	.word	0x000159f1
   15740:	00015401 	.word	0x00015401
   15744:	20003128 	.word	0x20003128
   15748:	0001524d 	.word	0x0001524d
   1574c:	00016841 	.word	0x00016841
   15750:	41002000 	.word	0x41002000
   15754:	00016765 	.word	0x00016765
   15758:	00015143 	.word	0x00015143

0001575c <spi_read_buffer_wait>:
   1575c:	b5f0      	push	{r4, r5, r6, r7, lr}
   1575e:	46d6      	mov	lr, sl
   15760:	4647      	mov	r7, r8
   15762:	b580      	push	{r7, lr}
   15764:	b083      	sub	sp, #12
   15766:	2438      	movs	r4, #56	; 0x38
   15768:	5d05      	ldrb	r5, [r0, r4]
   1576a:	3c33      	subs	r4, #51	; 0x33
   1576c:	2d05      	cmp	r5, #5
   1576e:	d002      	beq.n	15776 <spi_read_buffer_wait+0x1a>
   15770:	3412      	adds	r4, #18
   15772:	2a00      	cmp	r2, #0
   15774:	d105      	bne.n	15782 <spi_read_buffer_wait+0x26>
   15776:	0020      	movs	r0, r4
   15778:	b003      	add	sp, #12
   1577a:	bc0c      	pop	{r2, r3}
   1577c:	4690      	mov	r8, r2
   1577e:	469a      	mov	sl, r3
   15780:	bdf0      	pop	{r4, r5, r6, r7, pc}
   15782:	79c4      	ldrb	r4, [r0, #7]
   15784:	2c00      	cmp	r4, #0
   15786:	d144      	bne.n	15812 <spi_read_buffer_wait+0xb6>
   15788:	341c      	adds	r4, #28
   1578a:	e7f4      	b.n	15776 <spi_read_buffer_wait+0x1a>
   1578c:	6805      	ldr	r5, [r0, #0]
   1578e:	7e2c      	ldrb	r4, [r5, #24]
   15790:	423c      	tst	r4, r7
   15792:	d0fc      	beq.n	1578e <spi_read_buffer_wait+0x32>
   15794:	7e2c      	ldrb	r4, [r5, #24]
   15796:	423c      	tst	r4, r7
   15798:	d01a      	beq.n	157d0 <spi_read_buffer_wait+0x74>
   1579a:	4644      	mov	r4, r8
   1579c:	62ac      	str	r4, [r5, #40]	; 0x28
   1579e:	e017      	b.n	157d0 <spi_read_buffer_wait+0x74>
   157a0:	7984      	ldrb	r4, [r0, #6]
   157a2:	2c01      	cmp	r4, #1
   157a4:	d026      	beq.n	157f4 <spi_read_buffer_wait+0x98>
   157a6:	6aad      	ldr	r5, [r5, #40]	; 0x28
   157a8:	b2ec      	uxtb	r4, r5
   157aa:	46a4      	mov	ip, r4
   157ac:	9c01      	ldr	r4, [sp, #4]
   157ae:	2c00      	cmp	r4, #0
   157b0:	d13a      	bne.n	15828 <spi_read_buffer_wait+0xcc>
   157b2:	1c75      	adds	r5, r6, #1
   157b4:	b2ad      	uxth	r5, r5
   157b6:	4664      	mov	r4, ip
   157b8:	558c      	strb	r4, [r1, r6]
   157ba:	7984      	ldrb	r4, [r0, #6]
   157bc:	2c01      	cmp	r4, #1
   157be:	d01e      	beq.n	157fe <spi_read_buffer_wait+0xa2>
   157c0:	002e      	movs	r6, r5
   157c2:	3a01      	subs	r2, #1
   157c4:	b292      	uxth	r2, r2
   157c6:	4552      	cmp	r2, sl
   157c8:	d01f      	beq.n	1580a <spi_read_buffer_wait+0xae>
   157ca:	7944      	ldrb	r4, [r0, #5]
   157cc:	2c01      	cmp	r4, #1
   157ce:	d0dd      	beq.n	1578c <spi_read_buffer_wait+0x30>
   157d0:	6805      	ldr	r5, [r0, #0]
   157d2:	7e2c      	ldrb	r4, [r5, #24]
   157d4:	421c      	tst	r4, r3
   157d6:	d0fc      	beq.n	157d2 <spi_read_buffer_wait+0x76>
   157d8:	7e2c      	ldrb	r4, [r5, #24]
   157da:	421c      	tst	r4, r3
   157dc:	d017      	beq.n	1580e <spi_read_buffer_wait+0xb2>
   157de:	8b6c      	ldrh	r4, [r5, #26]
   157e0:	46a4      	mov	ip, r4
   157e2:	2400      	movs	r4, #0
   157e4:	9401      	str	r4, [sp, #4]
   157e6:	4664      	mov	r4, ip
   157e8:	421c      	tst	r4, r3
   157ea:	d0d9      	beq.n	157a0 <spi_read_buffer_wait+0x44>
   157ec:	836b      	strh	r3, [r5, #26]
   157ee:	241e      	movs	r4, #30
   157f0:	9401      	str	r4, [sp, #4]
   157f2:	e7d5      	b.n	157a0 <spi_read_buffer_wait+0x44>
   157f4:	6aac      	ldr	r4, [r5, #40]	; 0x28
   157f6:	05e4      	lsls	r4, r4, #23
   157f8:	0de4      	lsrs	r4, r4, #23
   157fa:	46a4      	mov	ip, r4
   157fc:	e7d6      	b.n	157ac <spi_read_buffer_wait+0x50>
   157fe:	3602      	adds	r6, #2
   15800:	b2b6      	uxth	r6, r6
   15802:	4664      	mov	r4, ip
   15804:	0a24      	lsrs	r4, r4, #8
   15806:	554c      	strb	r4, [r1, r5]
   15808:	e7db      	b.n	157c2 <spi_read_buffer_wait+0x66>
   1580a:	9c01      	ldr	r4, [sp, #4]
   1580c:	e7b3      	b.n	15776 <spi_read_buffer_wait+0x1a>
   1580e:	2410      	movs	r4, #16
   15810:	e7b1      	b.n	15776 <spi_read_buffer_wait+0x1a>
   15812:	3a01      	subs	r2, #1
   15814:	b292      	uxth	r2, r2
   15816:	2600      	movs	r6, #0
   15818:	2701      	movs	r7, #1
   1581a:	05db      	lsls	r3, r3, #23
   1581c:	0ddb      	lsrs	r3, r3, #23
   1581e:	4698      	mov	r8, r3
   15820:	2304      	movs	r3, #4
   15822:	4c02      	ldr	r4, [pc, #8]	; (1582c <spi_read_buffer_wait+0xd0>)
   15824:	46a2      	mov	sl, r4
   15826:	e7d0      	b.n	157ca <spi_read_buffer_wait+0x6e>
   15828:	9c01      	ldr	r4, [sp, #4]
   1582a:	e7a4      	b.n	15776 <spi_read_buffer_wait+0x1a>
   1582c:	0000ffff 	.word	0x0000ffff

00015830 <spi_select_slave>:
   15830:	b510      	push	{r4, lr}
   15832:	7944      	ldrb	r4, [r0, #5]
   15834:	2315      	movs	r3, #21
   15836:	2c01      	cmp	r4, #1
   15838:	d001      	beq.n	1583e <spi_select_slave+0xe>
   1583a:	0018      	movs	r0, r3
   1583c:	bd10      	pop	{r4, pc}
   1583e:	7a04      	ldrb	r4, [r0, #8]
   15840:	2300      	movs	r3, #0
   15842:	2c00      	cmp	r4, #0
   15844:	d1f9      	bne.n	1583a <spi_select_slave+0xa>
   15846:	2a00      	cmp	r2, #0
   15848:	d058      	beq.n	158fc <spi_select_slave+0xcc>
   1584a:	784b      	ldrb	r3, [r1, #1]
   1584c:	2b00      	cmp	r3, #0
   1584e:	d044      	beq.n	158da <spi_select_slave+0xaa>
   15850:	6803      	ldr	r3, [r0, #0]
   15852:	7e1b      	ldrb	r3, [r3, #24]
   15854:	07db      	lsls	r3, r3, #31
   15856:	d410      	bmi.n	1587a <spi_select_slave+0x4a>
   15858:	780a      	ldrb	r2, [r1, #0]
   1585a:	09d1      	lsrs	r1, r2, #7
   1585c:	2300      	movs	r3, #0
   1585e:	2900      	cmp	r1, #0
   15860:	d104      	bne.n	1586c <spi_select_slave+0x3c>
   15862:	0953      	lsrs	r3, r2, #5
   15864:	01db      	lsls	r3, r3, #7
   15866:	492e      	ldr	r1, [pc, #184]	; (15920 <spi_select_slave+0xf0>)
   15868:	468c      	mov	ip, r1
   1586a:	4463      	add	r3, ip
   1586c:	211f      	movs	r1, #31
   1586e:	4011      	ands	r1, r2
   15870:	2201      	movs	r2, #1
   15872:	408a      	lsls	r2, r1
   15874:	619a      	str	r2, [r3, #24]
   15876:	2305      	movs	r3, #5
   15878:	e7df      	b.n	1583a <spi_select_slave+0xa>
   1587a:	780a      	ldrb	r2, [r1, #0]
   1587c:	09d4      	lsrs	r4, r2, #7
   1587e:	2300      	movs	r3, #0
   15880:	2c00      	cmp	r4, #0
   15882:	d104      	bne.n	1588e <spi_select_slave+0x5e>
   15884:	0953      	lsrs	r3, r2, #5
   15886:	01db      	lsls	r3, r3, #7
   15888:	4c25      	ldr	r4, [pc, #148]	; (15920 <spi_select_slave+0xf0>)
   1588a:	46a4      	mov	ip, r4
   1588c:	4463      	add	r3, ip
   1588e:	241f      	movs	r4, #31
   15890:	4014      	ands	r4, r2
   15892:	2201      	movs	r2, #1
   15894:	40a2      	lsls	r2, r4
   15896:	615a      	str	r2, [r3, #20]
   15898:	6803      	ldr	r3, [r0, #0]
   1589a:	7e1a      	ldrb	r2, [r3, #24]
   1589c:	07d2      	lsls	r2, r2, #31
   1589e:	d501      	bpl.n	158a4 <spi_select_slave+0x74>
   158a0:	788a      	ldrb	r2, [r1, #2]
   158a2:	629a      	str	r2, [r3, #40]	; 0x28
   158a4:	79c2      	ldrb	r2, [r0, #7]
   158a6:	2300      	movs	r3, #0
   158a8:	2a00      	cmp	r2, #0
   158aa:	d1c6      	bne.n	1583a <spi_select_slave+0xa>
   158ac:	6802      	ldr	r2, [r0, #0]
   158ae:	2104      	movs	r1, #4
   158b0:	7e13      	ldrb	r3, [r2, #24]
   158b2:	420b      	tst	r3, r1
   158b4:	d0fc      	beq.n	158b0 <spi_select_slave+0x80>
   158b6:	7e11      	ldrb	r1, [r2, #24]
   158b8:	2300      	movs	r3, #0
   158ba:	0749      	lsls	r1, r1, #29
   158bc:	d5bd      	bpl.n	1583a <spi_select_slave+0xa>
   158be:	8b53      	ldrh	r3, [r2, #26]
   158c0:	075b      	lsls	r3, r3, #29
   158c2:	d501      	bpl.n	158c8 <spi_select_slave+0x98>
   158c4:	2304      	movs	r3, #4
   158c6:	8353      	strh	r3, [r2, #26]
   158c8:	7983      	ldrb	r3, [r0, #6]
   158ca:	2b01      	cmp	r3, #1
   158cc:	d002      	beq.n	158d4 <spi_select_slave+0xa4>
   158ce:	6a93      	ldr	r3, [r2, #40]	; 0x28
   158d0:	2300      	movs	r3, #0
   158d2:	e7b2      	b.n	1583a <spi_select_slave+0xa>
   158d4:	6a93      	ldr	r3, [r2, #40]	; 0x28
   158d6:	2300      	movs	r3, #0
   158d8:	e7af      	b.n	1583a <spi_select_slave+0xa>
   158da:	780a      	ldrb	r2, [r1, #0]
   158dc:	09d1      	lsrs	r1, r2, #7
   158de:	2300      	movs	r3, #0
   158e0:	2900      	cmp	r1, #0
   158e2:	d104      	bne.n	158ee <spi_select_slave+0xbe>
   158e4:	0953      	lsrs	r3, r2, #5
   158e6:	01db      	lsls	r3, r3, #7
   158e8:	490d      	ldr	r1, [pc, #52]	; (15920 <spi_select_slave+0xf0>)
   158ea:	468c      	mov	ip, r1
   158ec:	4463      	add	r3, ip
   158ee:	211f      	movs	r1, #31
   158f0:	4011      	ands	r1, r2
   158f2:	2201      	movs	r2, #1
   158f4:	408a      	lsls	r2, r1
   158f6:	615a      	str	r2, [r3, #20]
   158f8:	2300      	movs	r3, #0
   158fa:	e79e      	b.n	1583a <spi_select_slave+0xa>
   158fc:	780a      	ldrb	r2, [r1, #0]
   158fe:	09d1      	lsrs	r1, r2, #7
   15900:	2300      	movs	r3, #0
   15902:	2900      	cmp	r1, #0
   15904:	d104      	bne.n	15910 <spi_select_slave+0xe0>
   15906:	0953      	lsrs	r3, r2, #5
   15908:	01db      	lsls	r3, r3, #7
   1590a:	4905      	ldr	r1, [pc, #20]	; (15920 <spi_select_slave+0xf0>)
   1590c:	468c      	mov	ip, r1
   1590e:	4463      	add	r3, ip
   15910:	211f      	movs	r1, #31
   15912:	4011      	ands	r1, r2
   15914:	2201      	movs	r2, #1
   15916:	408a      	lsls	r2, r1
   15918:	619a      	str	r2, [r3, #24]
   1591a:	2300      	movs	r3, #0
   1591c:	e78d      	b.n	1583a <spi_select_slave+0xa>
   1591e:	46c0      	nop			; (mov r8, r8)
   15920:	41004400 	.word	0x41004400

00015924 <spi_write_buffer_wait>:
   15924:	b5f0      	push	{r4, r5, r6, r7, lr}
   15926:	46de      	mov	lr, fp
   15928:	4657      	mov	r7, sl
   1592a:	464e      	mov	r6, r9
   1592c:	4645      	mov	r5, r8
   1592e:	b5e0      	push	{r5, r6, r7, lr}
   15930:	b083      	sub	sp, #12
   15932:	468a      	mov	sl, r1
   15934:	2338      	movs	r3, #56	; 0x38
   15936:	5cc4      	ldrb	r4, [r0, r3]
   15938:	3b33      	subs	r3, #51	; 0x33
   1593a:	2c05      	cmp	r4, #5
   1593c:	d002      	beq.n	15944 <spi_write_buffer_wait+0x20>
   1593e:	3312      	adds	r3, #18
   15940:	2a00      	cmp	r2, #0
   15942:	d14b      	bne.n	159dc <spi_write_buffer_wait+0xb8>
   15944:	0018      	movs	r0, r3
   15946:	b003      	add	sp, #12
   15948:	bc3c      	pop	{r2, r3, r4, r5}
   1594a:	4690      	mov	r8, r2
   1594c:	4699      	mov	r9, r3
   1594e:	46a2      	mov	sl, r4
   15950:	46ab      	mov	fp, r5
   15952:	bdf0      	pop	{r4, r5, r6, r7, pc}
   15954:	3702      	adds	r7, #2
   15956:	b2bf      	uxth	r7, r7
   15958:	4641      	mov	r1, r8
   1595a:	4653      	mov	r3, sl
   1595c:	5c59      	ldrb	r1, [r3, r1]
   1595e:	0209      	lsls	r1, r1, #8
   15960:	465b      	mov	r3, fp
   15962:	430b      	orrs	r3, r1
   15964:	e018      	b.n	15998 <spi_write_buffer_wait+0x74>
   15966:	7983      	ldrb	r3, [r0, #6]
   15968:	2b01      	cmp	r3, #1
   1596a:	d02a      	beq.n	159c2 <spi_write_buffer_wait+0x9e>
   1596c:	6a93      	ldr	r3, [r2, #40]	; 0x28
   1596e:	3e01      	subs	r6, #1
   15970:	b2b6      	uxth	r6, r6
   15972:	4566      	cmp	r6, ip
   15974:	d027      	beq.n	159c6 <spi_write_buffer_wait+0xa2>
   15976:	6802      	ldr	r2, [r0, #0]
   15978:	7e13      	ldrb	r3, [r2, #24]
   1597a:	4223      	tst	r3, r4
   1597c:	d0fc      	beq.n	15978 <spi_write_buffer_wait+0x54>
   1597e:	1c7b      	adds	r3, r7, #1
   15980:	b29b      	uxth	r3, r3
   15982:	4698      	mov	r8, r3
   15984:	4653      	mov	r3, sl
   15986:	5ddb      	ldrb	r3, [r3, r7]
   15988:	469b      	mov	fp, r3
   1598a:	7981      	ldrb	r1, [r0, #6]
   1598c:	2901      	cmp	r1, #1
   1598e:	d0e1      	beq.n	15954 <spi_write_buffer_wait+0x30>
   15990:	4669      	mov	r1, sp
   15992:	80cb      	strh	r3, [r1, #6]
   15994:	88cb      	ldrh	r3, [r1, #6]
   15996:	4647      	mov	r7, r8
   15998:	7e11      	ldrb	r1, [r2, #24]
   1599a:	4221      	tst	r1, r4
   1599c:	d002      	beq.n	159a4 <spi_write_buffer_wait+0x80>
   1599e:	05db      	lsls	r3, r3, #23
   159a0:	0ddb      	lsrs	r3, r3, #23
   159a2:	6293      	str	r3, [r2, #40]	; 0x28
   159a4:	79c3      	ldrb	r3, [r0, #7]
   159a6:	2b00      	cmp	r3, #0
   159a8:	d0e1      	beq.n	1596e <spi_write_buffer_wait+0x4a>
   159aa:	6802      	ldr	r2, [r0, #0]
   159ac:	7e13      	ldrb	r3, [r2, #24]
   159ae:	422b      	tst	r3, r5
   159b0:	d0fc      	beq.n	159ac <spi_write_buffer_wait+0x88>
   159b2:	7e13      	ldrb	r3, [r2, #24]
   159b4:	422b      	tst	r3, r5
   159b6:	d0da      	beq.n	1596e <spi_write_buffer_wait+0x4a>
   159b8:	8b53      	ldrh	r3, [r2, #26]
   159ba:	422b      	tst	r3, r5
   159bc:	d0d3      	beq.n	15966 <spi_write_buffer_wait+0x42>
   159be:	8355      	strh	r5, [r2, #26]
   159c0:	e7d1      	b.n	15966 <spi_write_buffer_wait+0x42>
   159c2:	6a93      	ldr	r3, [r2, #40]	; 0x28
   159c4:	e7d3      	b.n	1596e <spi_write_buffer_wait+0x4a>
   159c6:	7942      	ldrb	r2, [r0, #5]
   159c8:	2300      	movs	r3, #0
   159ca:	2a01      	cmp	r2, #1
   159cc:	d1ba      	bne.n	15944 <spi_write_buffer_wait+0x20>
   159ce:	6801      	ldr	r1, [r0, #0]
   159d0:	3201      	adds	r2, #1
   159d2:	7e0b      	ldrb	r3, [r1, #24]
   159d4:	4213      	tst	r3, r2
   159d6:	d0fc      	beq.n	159d2 <spi_write_buffer_wait+0xae>
   159d8:	2300      	movs	r3, #0
   159da:	e7b3      	b.n	15944 <spi_write_buffer_wait+0x20>
   159dc:	3a01      	subs	r2, #1
   159de:	b296      	uxth	r6, r2
   159e0:	2700      	movs	r7, #0
   159e2:	2401      	movs	r4, #1
   159e4:	2504      	movs	r5, #4
   159e6:	4b01      	ldr	r3, [pc, #4]	; (159ec <spi_write_buffer_wait+0xc8>)
   159e8:	469c      	mov	ip, r3
   159ea:	e7c4      	b.n	15976 <spi_write_buffer_wait+0x52>
   159ec:	0000ffff 	.word	0x0000ffff

000159f0 <_spi_interrupt_handler>:
   159f0:	b5f8      	push	{r3, r4, r5, r6, r7, lr}
   159f2:	0080      	lsls	r0, r0, #2
   159f4:	4b70      	ldr	r3, [pc, #448]	; (15bb8 <_spi_interrupt_handler+0x1c8>)
   159f6:	58c4      	ldr	r4, [r0, r3]
   159f8:	6826      	ldr	r6, [r4, #0]
   159fa:	2337      	movs	r3, #55	; 0x37
   159fc:	5ce7      	ldrb	r7, [r4, r3]
   159fe:	2236      	movs	r2, #54	; 0x36
   15a00:	5ca2      	ldrb	r2, [r4, r2]
   15a02:	4017      	ands	r7, r2
   15a04:	7e33      	ldrb	r3, [r6, #24]
   15a06:	7db5      	ldrb	r5, [r6, #22]
   15a08:	401d      	ands	r5, r3
   15a0a:	07eb      	lsls	r3, r5, #31
   15a0c:	d502      	bpl.n	15a14 <_spi_interrupt_handler+0x24>
   15a0e:	7963      	ldrb	r3, [r4, #5]
   15a10:	2b01      	cmp	r3, #1
   15a12:	d01e      	beq.n	15a52 <_spi_interrupt_handler+0x62>
   15a14:	076b      	lsls	r3, r5, #29
   15a16:	d511      	bpl.n	15a3c <_spi_interrupt_handler+0x4c>
   15a18:	8b73      	ldrh	r3, [r6, #26]
   15a1a:	075b      	lsls	r3, r3, #29
   15a1c:	d55a      	bpl.n	15ad4 <_spi_interrupt_handler+0xe4>
   15a1e:	7a63      	ldrb	r3, [r4, #9]
   15a20:	2b01      	cmp	r3, #1
   15a22:	d008      	beq.n	15a36 <_spi_interrupt_handler+0x46>
   15a24:	221e      	movs	r2, #30
   15a26:	2338      	movs	r3, #56	; 0x38
   15a28:	54e2      	strb	r2, [r4, r3]
   15a2a:	3b35      	subs	r3, #53	; 0x35
   15a2c:	7263      	strb	r3, [r4, #9]
   15a2e:	3302      	adds	r3, #2
   15a30:	7533      	strb	r3, [r6, #20]
   15a32:	073b      	lsls	r3, r7, #28
   15a34:	d44a      	bmi.n	15acc <_spi_interrupt_handler+0xdc>
   15a36:	6ab3      	ldr	r3, [r6, #40]	; 0x28
   15a38:	2304      	movs	r3, #4
   15a3a:	8373      	strh	r3, [r6, #26]
   15a3c:	07ab      	lsls	r3, r5, #30
   15a3e:	d503      	bpl.n	15a48 <_spi_interrupt_handler+0x58>
   15a40:	7963      	ldrb	r3, [r4, #5]
   15a42:	2b01      	cmp	r3, #1
   15a44:	d100      	bne.n	15a48 <_spi_interrupt_handler+0x58>
   15a46:	e097      	b.n	15b78 <_spi_interrupt_handler+0x188>
   15a48:	b26d      	sxtb	r5, r5
   15a4a:	2d00      	cmp	r5, #0
   15a4c:	da00      	bge.n	15a50 <_spi_interrupt_handler+0x60>
   15a4e:	e0a9      	b.n	15ba4 <_spi_interrupt_handler+0x1b4>
   15a50:	bdf8      	pop	{r3, r4, r5, r6, r7, pc}
   15a52:	7a63      	ldrb	r3, [r4, #9]
   15a54:	2b00      	cmp	r3, #0
   15a56:	d022      	beq.n	15a9e <_spi_interrupt_handler+0xae>
   15a58:	7a63      	ldrb	r3, [r4, #9]
   15a5a:	2b00      	cmp	r3, #0
   15a5c:	d0da      	beq.n	15a14 <_spi_interrupt_handler+0x24>
   15a5e:	6821      	ldr	r1, [r4, #0]
   15a60:	6ae2      	ldr	r2, [r4, #44]	; 0x2c
   15a62:	7813      	ldrb	r3, [r2, #0]
   15a64:	b2db      	uxtb	r3, r3
   15a66:	1c50      	adds	r0, r2, #1
   15a68:	62e0      	str	r0, [r4, #44]	; 0x2c
   15a6a:	79a0      	ldrb	r0, [r4, #6]
   15a6c:	2801      	cmp	r0, #1
   15a6e:	d027      	beq.n	15ac0 <_spi_interrupt_handler+0xd0>
   15a70:	b29b      	uxth	r3, r3
   15a72:	05db      	lsls	r3, r3, #23
   15a74:	0ddb      	lsrs	r3, r3, #23
   15a76:	628b      	str	r3, [r1, #40]	; 0x28
   15a78:	8ea3      	ldrh	r3, [r4, #52]	; 0x34
   15a7a:	3b01      	subs	r3, #1
   15a7c:	b29b      	uxth	r3, r3
   15a7e:	86a3      	strh	r3, [r4, #52]	; 0x34
   15a80:	8ea3      	ldrh	r3, [r4, #52]	; 0x34
   15a82:	b29b      	uxth	r3, r3
   15a84:	2b00      	cmp	r3, #0
   15a86:	d1c5      	bne.n	15a14 <_spi_interrupt_handler+0x24>
   15a88:	3301      	adds	r3, #1
   15a8a:	7533      	strb	r3, [r6, #20]
   15a8c:	7a63      	ldrb	r3, [r4, #9]
   15a8e:	2b01      	cmp	r3, #1
   15a90:	d1c0      	bne.n	15a14 <_spi_interrupt_handler+0x24>
   15a92:	79e3      	ldrb	r3, [r4, #7]
   15a94:	2b00      	cmp	r3, #0
   15a96:	d1bd      	bne.n	15a14 <_spi_interrupt_handler+0x24>
   15a98:	3302      	adds	r3, #2
   15a9a:	75b3      	strb	r3, [r6, #22]
   15a9c:	e7ba      	b.n	15a14 <_spi_interrupt_handler+0x24>
   15a9e:	4b47      	ldr	r3, [pc, #284]	; (15bbc <_spi_interrupt_handler+0x1cc>)
   15aa0:	881b      	ldrh	r3, [r3, #0]
   15aa2:	62b3      	str	r3, [r6, #40]	; 0x28
   15aa4:	8e63      	ldrh	r3, [r4, #50]	; 0x32
   15aa6:	3b01      	subs	r3, #1
   15aa8:	b29b      	uxth	r3, r3
   15aaa:	8663      	strh	r3, [r4, #50]	; 0x32
   15aac:	8e63      	ldrh	r3, [r4, #50]	; 0x32
   15aae:	b29b      	uxth	r3, r3
   15ab0:	2b00      	cmp	r3, #0
   15ab2:	d101      	bne.n	15ab8 <_spi_interrupt_handler+0xc8>
   15ab4:	3301      	adds	r3, #1
   15ab6:	7533      	strb	r3, [r6, #20]
   15ab8:	7963      	ldrb	r3, [r4, #5]
   15aba:	2b01      	cmp	r3, #1
   15abc:	d0cc      	beq.n	15a58 <_spi_interrupt_handler+0x68>
   15abe:	e7a9      	b.n	15a14 <_spi_interrupt_handler+0x24>
   15ac0:	7850      	ldrb	r0, [r2, #1]
   15ac2:	0200      	lsls	r0, r0, #8
   15ac4:	4303      	orrs	r3, r0
   15ac6:	3202      	adds	r2, #2
   15ac8:	62e2      	str	r2, [r4, #44]	; 0x2c
   15aca:	e7d2      	b.n	15a72 <_spi_interrupt_handler+0x82>
   15acc:	0020      	movs	r0, r4
   15ace:	69a3      	ldr	r3, [r4, #24]
   15ad0:	4798      	blx	r3
   15ad2:	e7b0      	b.n	15a36 <_spi_interrupt_handler+0x46>
   15ad4:	7a63      	ldrb	r3, [r4, #9]
   15ad6:	2b01      	cmp	r3, #1
   15ad8:	d028      	beq.n	15b2c <_spi_interrupt_handler+0x13c>
   15ada:	6823      	ldr	r3, [r4, #0]
   15adc:	6a9b      	ldr	r3, [r3, #40]	; 0x28
   15ade:	05db      	lsls	r3, r3, #23
   15ae0:	0ddb      	lsrs	r3, r3, #23
   15ae2:	b2da      	uxtb	r2, r3
   15ae4:	6aa1      	ldr	r1, [r4, #40]	; 0x28
   15ae6:	700a      	strb	r2, [r1, #0]
   15ae8:	6aa2      	ldr	r2, [r4, #40]	; 0x28
   15aea:	1c51      	adds	r1, r2, #1
   15aec:	62a1      	str	r1, [r4, #40]	; 0x28
   15aee:	79a1      	ldrb	r1, [r4, #6]
   15af0:	2901      	cmp	r1, #1
   15af2:	d034      	beq.n	15b5e <_spi_interrupt_handler+0x16e>
   15af4:	8e23      	ldrh	r3, [r4, #48]	; 0x30
   15af6:	3b01      	subs	r3, #1
   15af8:	b29b      	uxth	r3, r3
   15afa:	8623      	strh	r3, [r4, #48]	; 0x30
   15afc:	8e23      	ldrh	r3, [r4, #48]	; 0x30
   15afe:	b29b      	uxth	r3, r3
   15b00:	2b00      	cmp	r3, #0
   15b02:	d000      	beq.n	15b06 <_spi_interrupt_handler+0x116>
   15b04:	e79a      	b.n	15a3c <_spi_interrupt_handler+0x4c>
   15b06:	2200      	movs	r2, #0
   15b08:	3338      	adds	r3, #56	; 0x38
   15b0a:	54e2      	strb	r2, [r4, r3]
   15b0c:	3b34      	subs	r3, #52	; 0x34
   15b0e:	7533      	strb	r3, [r6, #20]
   15b10:	7a63      	ldrb	r3, [r4, #9]
   15b12:	2b02      	cmp	r3, #2
   15b14:	d029      	beq.n	15b6a <_spi_interrupt_handler+0x17a>
   15b16:	7a63      	ldrb	r3, [r4, #9]
   15b18:	2b00      	cmp	r3, #0
   15b1a:	d000      	beq.n	15b1e <_spi_interrupt_handler+0x12e>
   15b1c:	e78e      	b.n	15a3c <_spi_interrupt_handler+0x4c>
   15b1e:	07bb      	lsls	r3, r7, #30
   15b20:	d400      	bmi.n	15b24 <_spi_interrupt_handler+0x134>
   15b22:	e78b      	b.n	15a3c <_spi_interrupt_handler+0x4c>
   15b24:	0020      	movs	r0, r4
   15b26:	6923      	ldr	r3, [r4, #16]
   15b28:	4798      	blx	r3
   15b2a:	e787      	b.n	15a3c <_spi_interrupt_handler+0x4c>
   15b2c:	6823      	ldr	r3, [r4, #0]
   15b2e:	6a9b      	ldr	r3, [r3, #40]	; 0x28
   15b30:	8e63      	ldrh	r3, [r4, #50]	; 0x32
   15b32:	3b01      	subs	r3, #1
   15b34:	b29b      	uxth	r3, r3
   15b36:	8663      	strh	r3, [r4, #50]	; 0x32
   15b38:	8e63      	ldrh	r3, [r4, #50]	; 0x32
   15b3a:	b29b      	uxth	r3, r3
   15b3c:	2b00      	cmp	r3, #0
   15b3e:	d000      	beq.n	15b42 <_spi_interrupt_handler+0x152>
   15b40:	e77c      	b.n	15a3c <_spi_interrupt_handler+0x4c>
   15b42:	3304      	adds	r3, #4
   15b44:	7533      	strb	r3, [r6, #20]
   15b46:	2200      	movs	r2, #0
   15b48:	3334      	adds	r3, #52	; 0x34
   15b4a:	54e2      	strb	r2, [r4, r3]
   15b4c:	3b35      	subs	r3, #53	; 0x35
   15b4e:	7263      	strb	r3, [r4, #9]
   15b50:	07fb      	lsls	r3, r7, #31
   15b52:	d400      	bmi.n	15b56 <_spi_interrupt_handler+0x166>
   15b54:	e772      	b.n	15a3c <_spi_interrupt_handler+0x4c>
   15b56:	0020      	movs	r0, r4
   15b58:	68e3      	ldr	r3, [r4, #12]
   15b5a:	4798      	blx	r3
   15b5c:	e76e      	b.n	15a3c <_spi_interrupt_handler+0x4c>
   15b5e:	0a1b      	lsrs	r3, r3, #8
   15b60:	7053      	strb	r3, [r2, #1]
   15b62:	6aa3      	ldr	r3, [r4, #40]	; 0x28
   15b64:	3301      	adds	r3, #1
   15b66:	62a3      	str	r3, [r4, #40]	; 0x28
   15b68:	e7c4      	b.n	15af4 <_spi_interrupt_handler+0x104>
   15b6a:	077b      	lsls	r3, r7, #29
   15b6c:	d400      	bmi.n	15b70 <_spi_interrupt_handler+0x180>
   15b6e:	e765      	b.n	15a3c <_spi_interrupt_handler+0x4c>
   15b70:	0020      	movs	r0, r4
   15b72:	6963      	ldr	r3, [r4, #20]
   15b74:	4798      	blx	r3
   15b76:	e761      	b.n	15a3c <_spi_interrupt_handler+0x4c>
   15b78:	7a63      	ldrb	r3, [r4, #9]
   15b7a:	2b01      	cmp	r3, #1
   15b7c:	d000      	beq.n	15b80 <_spi_interrupt_handler+0x190>
   15b7e:	e763      	b.n	15a48 <_spi_interrupt_handler+0x58>
   15b80:	79e3      	ldrb	r3, [r4, #7]
   15b82:	2b00      	cmp	r3, #0
   15b84:	d000      	beq.n	15b88 <_spi_interrupt_handler+0x198>
   15b86:	e75f      	b.n	15a48 <_spi_interrupt_handler+0x58>
   15b88:	3302      	adds	r3, #2
   15b8a:	7533      	strb	r3, [r6, #20]
   15b8c:	3301      	adds	r3, #1
   15b8e:	7263      	strb	r3, [r4, #9]
   15b90:	2200      	movs	r2, #0
   15b92:	3335      	adds	r3, #53	; 0x35
   15b94:	54e2      	strb	r2, [r4, r3]
   15b96:	07fb      	lsls	r3, r7, #31
   15b98:	d400      	bmi.n	15b9c <_spi_interrupt_handler+0x1ac>
   15b9a:	e755      	b.n	15a48 <_spi_interrupt_handler+0x58>
   15b9c:	0020      	movs	r0, r4
   15b9e:	68e3      	ldr	r3, [r4, #12]
   15ba0:	4798      	blx	r3
   15ba2:	e751      	b.n	15a48 <_spi_interrupt_handler+0x58>
   15ba4:	2380      	movs	r3, #128	; 0x80
   15ba6:	7533      	strb	r3, [r6, #20]
   15ba8:	7633      	strb	r3, [r6, #24]
   15baa:	067b      	lsls	r3, r7, #25
   15bac:	d400      	bmi.n	15bb0 <_spi_interrupt_handler+0x1c0>
   15bae:	e74f      	b.n	15a50 <_spi_interrupt_handler+0x60>
   15bb0:	6a63      	ldr	r3, [r4, #36]	; 0x24
   15bb2:	0020      	movs	r0, r4
   15bb4:	4798      	blx	r3
   15bb6:	e74b      	b.n	15a50 <_spi_interrupt_handler+0x60>
   15bb8:	20003128 	.word	0x20003128
   15bbc:	20003140 	.word	0x20003140

00015bc0 <usart_init>:
   15bc0:	b5f0      	push	{r4, r5, r6, r7, lr}
   15bc2:	46de      	mov	lr, fp
   15bc4:	4657      	mov	r7, sl
   15bc6:	464e      	mov	r6, r9
   15bc8:	4645      	mov	r5, r8
   15bca:	b5e0      	push	{r5, r6, r7, lr}
   15bcc:	b091      	sub	sp, #68	; 0x44
   15bce:	0005      	movs	r5, r0
   15bd0:	000c      	movs	r4, r1
   15bd2:	0016      	movs	r6, r2
   15bd4:	6029      	str	r1, [r5, #0]
   15bd6:	0008      	movs	r0, r1
   15bd8:	4bbc      	ldr	r3, [pc, #752]	; (15ecc <usart_init+0x30c>)
   15bda:	4798      	blx	r3
   15bdc:	0002      	movs	r2, r0
   15bde:	6823      	ldr	r3, [r4, #0]
   15be0:	2005      	movs	r0, #5
   15be2:	07db      	lsls	r3, r3, #31
   15be4:	d506      	bpl.n	15bf4 <usart_init+0x34>
   15be6:	b011      	add	sp, #68	; 0x44
   15be8:	bc3c      	pop	{r2, r3, r4, r5}
   15bea:	4690      	mov	r8, r2
   15bec:	4699      	mov	r9, r3
   15bee:	46a2      	mov	sl, r4
   15bf0:	46ab      	mov	fp, r5
   15bf2:	bdf0      	pop	{r4, r5, r6, r7, pc}
   15bf4:	6823      	ldr	r3, [r4, #0]
   15bf6:	3017      	adds	r0, #23
   15bf8:	079b      	lsls	r3, r3, #30
   15bfa:	d4f4      	bmi.n	15be6 <usart_init+0x26>
   15bfc:	49b4      	ldr	r1, [pc, #720]	; (15ed0 <usart_init+0x310>)
   15bfe:	6a08      	ldr	r0, [r1, #32]
   15c00:	1c97      	adds	r7, r2, #2
   15c02:	2301      	movs	r3, #1
   15c04:	40bb      	lsls	r3, r7
   15c06:	4303      	orrs	r3, r0
   15c08:	620b      	str	r3, [r1, #32]
   15c0a:	a90f      	add	r1, sp, #60	; 0x3c
   15c0c:	272d      	movs	r7, #45	; 0x2d
   15c0e:	5df3      	ldrb	r3, [r6, r7]
   15c10:	700b      	strb	r3, [r1, #0]
   15c12:	3214      	adds	r2, #20
   15c14:	b2d3      	uxtb	r3, r2
   15c16:	9302      	str	r3, [sp, #8]
   15c18:	0018      	movs	r0, r3
   15c1a:	4bae      	ldr	r3, [pc, #696]	; (15ed4 <usart_init+0x314>)
   15c1c:	4798      	blx	r3
   15c1e:	9802      	ldr	r0, [sp, #8]
   15c20:	4bad      	ldr	r3, [pc, #692]	; (15ed8 <usart_init+0x318>)
   15c22:	4798      	blx	r3
   15c24:	5df0      	ldrb	r0, [r6, r7]
   15c26:	2100      	movs	r1, #0
   15c28:	4bac      	ldr	r3, [pc, #688]	; (15edc <usart_init+0x31c>)
   15c2a:	4798      	blx	r3
   15c2c:	7af3      	ldrb	r3, [r6, #11]
   15c2e:	716b      	strb	r3, [r5, #5]
   15c30:	2324      	movs	r3, #36	; 0x24
   15c32:	5cf3      	ldrb	r3, [r6, r3]
   15c34:	71ab      	strb	r3, [r5, #6]
   15c36:	2325      	movs	r3, #37	; 0x25
   15c38:	5cf3      	ldrb	r3, [r6, r3]
   15c3a:	71eb      	strb	r3, [r5, #7]
   15c3c:	7ef3      	ldrb	r3, [r6, #27]
   15c3e:	722b      	strb	r3, [r5, #8]
   15c40:	7f33      	ldrb	r3, [r6, #28]
   15c42:	726b      	strb	r3, [r5, #9]
   15c44:	682b      	ldr	r3, [r5, #0]
   15c46:	4698      	mov	r8, r3
   15c48:	0018      	movs	r0, r3
   15c4a:	4ba0      	ldr	r3, [pc, #640]	; (15ecc <usart_init+0x30c>)
   15c4c:	4798      	blx	r3
   15c4e:	3014      	adds	r0, #20
   15c50:	2200      	movs	r2, #0
   15c52:	230e      	movs	r3, #14
   15c54:	a906      	add	r1, sp, #24
   15c56:	468c      	mov	ip, r1
   15c58:	4463      	add	r3, ip
   15c5a:	801a      	strh	r2, [r3, #0]
   15c5c:	8a32      	ldrh	r2, [r6, #16]
   15c5e:	9202      	str	r2, [sp, #8]
   15c60:	2380      	movs	r3, #128	; 0x80
   15c62:	01db      	lsls	r3, r3, #7
   15c64:	429a      	cmp	r2, r3
   15c66:	d100      	bne.n	15c6a <usart_init+0xaa>
   15c68:	e09e      	b.n	15da8 <usart_init+0x1e8>
   15c6a:	d90f      	bls.n	15c8c <usart_init+0xcc>
   15c6c:	23c0      	movs	r3, #192	; 0xc0
   15c6e:	01db      	lsls	r3, r3, #7
   15c70:	9a02      	ldr	r2, [sp, #8]
   15c72:	429a      	cmp	r2, r3
   15c74:	d100      	bne.n	15c78 <usart_init+0xb8>
   15c76:	e092      	b.n	15d9e <usart_init+0x1de>
   15c78:	2380      	movs	r3, #128	; 0x80
   15c7a:	021b      	lsls	r3, r3, #8
   15c7c:	429a      	cmp	r2, r3
   15c7e:	d000      	beq.n	15c82 <usart_init+0xc2>
   15c80:	e11f      	b.n	15ec2 <usart_init+0x302>
   15c82:	2303      	movs	r3, #3
   15c84:	9306      	str	r3, [sp, #24]
   15c86:	2300      	movs	r3, #0
   15c88:	9307      	str	r3, [sp, #28]
   15c8a:	e008      	b.n	15c9e <usart_init+0xde>
   15c8c:	2380      	movs	r3, #128	; 0x80
   15c8e:	019b      	lsls	r3, r3, #6
   15c90:	429a      	cmp	r2, r3
   15c92:	d000      	beq.n	15c96 <usart_init+0xd6>
   15c94:	e115      	b.n	15ec2 <usart_init+0x302>
   15c96:	2310      	movs	r3, #16
   15c98:	9306      	str	r3, [sp, #24]
   15c9a:	3b0f      	subs	r3, #15
   15c9c:	9307      	str	r3, [sp, #28]
   15c9e:	6833      	ldr	r3, [r6, #0]
   15ca0:	9305      	str	r3, [sp, #20]
   15ca2:	68f3      	ldr	r3, [r6, #12]
   15ca4:	9303      	str	r3, [sp, #12]
   15ca6:	6973      	ldr	r3, [r6, #20]
   15ca8:	9304      	str	r3, [sp, #16]
   15caa:	7e33      	ldrb	r3, [r6, #24]
   15cac:	469b      	mov	fp, r3
   15cae:	2326      	movs	r3, #38	; 0x26
   15cb0:	5cf3      	ldrb	r3, [r6, r3]
   15cb2:	469a      	mov	sl, r3
   15cb4:	6873      	ldr	r3, [r6, #4]
   15cb6:	4699      	mov	r9, r3
   15cb8:	2b00      	cmp	r3, #0
   15cba:	d100      	bne.n	15cbe <usart_init+0xfe>
   15cbc:	e0a0      	b.n	15e00 <usart_init+0x240>
   15cbe:	2380      	movs	r3, #128	; 0x80
   15cc0:	055b      	lsls	r3, r3, #21
   15cc2:	4599      	cmp	r9, r3
   15cc4:	d100      	bne.n	15cc8 <usart_init+0x108>
   15cc6:	e084      	b.n	15dd2 <usart_init+0x212>
   15cc8:	7e73      	ldrb	r3, [r6, #25]
   15cca:	2b00      	cmp	r3, #0
   15ccc:	d002      	beq.n	15cd4 <usart_init+0x114>
   15cce:	7eb3      	ldrb	r3, [r6, #26]
   15cd0:	4642      	mov	r2, r8
   15cd2:	7393      	strb	r3, [r2, #14]
   15cd4:	682a      	ldr	r2, [r5, #0]
   15cd6:	9f02      	ldr	r7, [sp, #8]
   15cd8:	69d3      	ldr	r3, [r2, #28]
   15cda:	2b00      	cmp	r3, #0
   15cdc:	d1fc      	bne.n	15cd8 <usart_init+0x118>
   15cde:	330e      	adds	r3, #14
   15ce0:	aa06      	add	r2, sp, #24
   15ce2:	4694      	mov	ip, r2
   15ce4:	4463      	add	r3, ip
   15ce6:	881b      	ldrh	r3, [r3, #0]
   15ce8:	4642      	mov	r2, r8
   15cea:	8193      	strh	r3, [r2, #12]
   15cec:	9b05      	ldr	r3, [sp, #20]
   15cee:	9a03      	ldr	r2, [sp, #12]
   15cf0:	4313      	orrs	r3, r2
   15cf2:	9a04      	ldr	r2, [sp, #16]
   15cf4:	4313      	orrs	r3, r2
   15cf6:	464a      	mov	r2, r9
   15cf8:	4313      	orrs	r3, r2
   15cfa:	431f      	orrs	r7, r3
   15cfc:	465b      	mov	r3, fp
   15cfe:	021b      	lsls	r3, r3, #8
   15d00:	431f      	orrs	r7, r3
   15d02:	4653      	mov	r3, sl
   15d04:	075b      	lsls	r3, r3, #29
   15d06:	431f      	orrs	r7, r3
   15d08:	2327      	movs	r3, #39	; 0x27
   15d0a:	5cf3      	ldrb	r3, [r6, r3]
   15d0c:	2b00      	cmp	r3, #0
   15d0e:	d101      	bne.n	15d14 <usart_init+0x154>
   15d10:	3304      	adds	r3, #4
   15d12:	431f      	orrs	r7, r3
   15d14:	7e73      	ldrb	r3, [r6, #25]
   15d16:	029b      	lsls	r3, r3, #10
   15d18:	7f32      	ldrb	r2, [r6, #28]
   15d1a:	0252      	lsls	r2, r2, #9
   15d1c:	4313      	orrs	r3, r2
   15d1e:	7f72      	ldrb	r2, [r6, #29]
   15d20:	0212      	lsls	r2, r2, #8
   15d22:	4313      	orrs	r3, r2
   15d24:	2224      	movs	r2, #36	; 0x24
   15d26:	5cb2      	ldrb	r2, [r6, r2]
   15d28:	0452      	lsls	r2, r2, #17
   15d2a:	4313      	orrs	r3, r2
   15d2c:	2225      	movs	r2, #37	; 0x25
   15d2e:	5cb2      	ldrb	r2, [r6, r2]
   15d30:	0412      	lsls	r2, r2, #16
   15d32:	4313      	orrs	r3, r2
   15d34:	7ab1      	ldrb	r1, [r6, #10]
   15d36:	7af2      	ldrb	r2, [r6, #11]
   15d38:	4311      	orrs	r1, r2
   15d3a:	4319      	orrs	r1, r3
   15d3c:	8933      	ldrh	r3, [r6, #8]
   15d3e:	2bff      	cmp	r3, #255	; 0xff
   15d40:	d100      	bne.n	15d44 <usart_init+0x184>
   15d42:	e081      	b.n	15e48 <usart_init+0x288>
   15d44:	2280      	movs	r2, #128	; 0x80
   15d46:	0452      	lsls	r2, r2, #17
   15d48:	4317      	orrs	r7, r2
   15d4a:	4319      	orrs	r1, r3
   15d4c:	232c      	movs	r3, #44	; 0x2c
   15d4e:	5cf3      	ldrb	r3, [r6, r3]
   15d50:	2b00      	cmp	r3, #0
   15d52:	d103      	bne.n	15d5c <usart_init+0x19c>
   15d54:	4b62      	ldr	r3, [pc, #392]	; (15ee0 <usart_init+0x320>)
   15d56:	789b      	ldrb	r3, [r3, #2]
   15d58:	079b      	lsls	r3, r3, #30
   15d5a:	d501      	bpl.n	15d60 <usart_init+0x1a0>
   15d5c:	2380      	movs	r3, #128	; 0x80
   15d5e:	431f      	orrs	r7, r3
   15d60:	682a      	ldr	r2, [r5, #0]
   15d62:	69d3      	ldr	r3, [r2, #28]
   15d64:	2b00      	cmp	r3, #0
   15d66:	d1fc      	bne.n	15d62 <usart_init+0x1a2>
   15d68:	4643      	mov	r3, r8
   15d6a:	6059      	str	r1, [r3, #4]
   15d6c:	682a      	ldr	r2, [r5, #0]
   15d6e:	69d3      	ldr	r3, [r2, #28]
   15d70:	2b00      	cmp	r3, #0
   15d72:	d1fc      	bne.n	15d6e <usart_init+0x1ae>
   15d74:	4643      	mov	r3, r8
   15d76:	601f      	str	r7, [r3, #0]
   15d78:	ab0e      	add	r3, sp, #56	; 0x38
   15d7a:	2280      	movs	r2, #128	; 0x80
   15d7c:	701a      	strb	r2, [r3, #0]
   15d7e:	2200      	movs	r2, #0
   15d80:	705a      	strb	r2, [r3, #1]
   15d82:	70da      	strb	r2, [r3, #3]
   15d84:	709a      	strb	r2, [r3, #2]
   15d86:	6b33      	ldr	r3, [r6, #48]	; 0x30
   15d88:	930a      	str	r3, [sp, #40]	; 0x28
   15d8a:	6b73      	ldr	r3, [r6, #52]	; 0x34
   15d8c:	930b      	str	r3, [sp, #44]	; 0x2c
   15d8e:	6bb3      	ldr	r3, [r6, #56]	; 0x38
   15d90:	930c      	str	r3, [sp, #48]	; 0x30
   15d92:	6bf3      	ldr	r3, [r6, #60]	; 0x3c
   15d94:	9302      	str	r3, [sp, #8]
   15d96:	930d      	str	r3, [sp, #52]	; 0x34
   15d98:	2700      	movs	r7, #0
   15d9a:	ae0a      	add	r6, sp, #40	; 0x28
   15d9c:	e063      	b.n	15e66 <usart_init+0x2a6>
   15d9e:	2308      	movs	r3, #8
   15da0:	9306      	str	r3, [sp, #24]
   15da2:	3b07      	subs	r3, #7
   15da4:	9307      	str	r3, [sp, #28]
   15da6:	e77a      	b.n	15c9e <usart_init+0xde>
   15da8:	6833      	ldr	r3, [r6, #0]
   15daa:	9305      	str	r3, [sp, #20]
   15dac:	68f3      	ldr	r3, [r6, #12]
   15dae:	9303      	str	r3, [sp, #12]
   15db0:	6973      	ldr	r3, [r6, #20]
   15db2:	9304      	str	r3, [sp, #16]
   15db4:	7e33      	ldrb	r3, [r6, #24]
   15db6:	469b      	mov	fp, r3
   15db8:	2326      	movs	r3, #38	; 0x26
   15dba:	5cf3      	ldrb	r3, [r6, r3]
   15dbc:	469a      	mov	sl, r3
   15dbe:	6873      	ldr	r3, [r6, #4]
   15dc0:	4699      	mov	r9, r3
   15dc2:	2b00      	cmp	r3, #0
   15dc4:	d018      	beq.n	15df8 <usart_init+0x238>
   15dc6:	2380      	movs	r3, #128	; 0x80
   15dc8:	055b      	lsls	r3, r3, #21
   15dca:	4599      	cmp	r9, r3
   15dcc:	d001      	beq.n	15dd2 <usart_init+0x212>
   15dce:	2000      	movs	r0, #0
   15dd0:	e025      	b.n	15e1e <usart_init+0x25e>
   15dd2:	2327      	movs	r3, #39	; 0x27
   15dd4:	5cf3      	ldrb	r3, [r6, r3]
   15dd6:	2b00      	cmp	r3, #0
   15dd8:	d000      	beq.n	15ddc <usart_init+0x21c>
   15dda:	e775      	b.n	15cc8 <usart_init+0x108>
   15ddc:	6a33      	ldr	r3, [r6, #32]
   15dde:	001f      	movs	r7, r3
   15de0:	b2c0      	uxtb	r0, r0
   15de2:	4b40      	ldr	r3, [pc, #256]	; (15ee4 <usart_init+0x324>)
   15de4:	4798      	blx	r3
   15de6:	0001      	movs	r1, r0
   15de8:	220e      	movs	r2, #14
   15dea:	ab06      	add	r3, sp, #24
   15dec:	469c      	mov	ip, r3
   15dee:	4462      	add	r2, ip
   15df0:	0038      	movs	r0, r7
   15df2:	4b3d      	ldr	r3, [pc, #244]	; (15ee8 <usart_init+0x328>)
   15df4:	4798      	blx	r3
   15df6:	e012      	b.n	15e1e <usart_init+0x25e>
   15df8:	2308      	movs	r3, #8
   15dfa:	9306      	str	r3, [sp, #24]
   15dfc:	2300      	movs	r3, #0
   15dfe:	9307      	str	r3, [sp, #28]
   15e00:	2327      	movs	r3, #39	; 0x27
   15e02:	5cf3      	ldrb	r3, [r6, r3]
   15e04:	2b00      	cmp	r3, #0
   15e06:	d00e      	beq.n	15e26 <usart_init+0x266>
   15e08:	9b06      	ldr	r3, [sp, #24]
   15e0a:	9300      	str	r3, [sp, #0]
   15e0c:	9b07      	ldr	r3, [sp, #28]
   15e0e:	220e      	movs	r2, #14
   15e10:	a906      	add	r1, sp, #24
   15e12:	468c      	mov	ip, r1
   15e14:	4462      	add	r2, ip
   15e16:	6ab1      	ldr	r1, [r6, #40]	; 0x28
   15e18:	6a30      	ldr	r0, [r6, #32]
   15e1a:	4f34      	ldr	r7, [pc, #208]	; (15eec <usart_init+0x32c>)
   15e1c:	47b8      	blx	r7
   15e1e:	2800      	cmp	r0, #0
   15e20:	d000      	beq.n	15e24 <usart_init+0x264>
   15e22:	e6e0      	b.n	15be6 <usart_init+0x26>
   15e24:	e750      	b.n	15cc8 <usart_init+0x108>
   15e26:	6a33      	ldr	r3, [r6, #32]
   15e28:	001f      	movs	r7, r3
   15e2a:	b2c0      	uxtb	r0, r0
   15e2c:	4b2d      	ldr	r3, [pc, #180]	; (15ee4 <usart_init+0x324>)
   15e2e:	4798      	blx	r3
   15e30:	0001      	movs	r1, r0
   15e32:	9b06      	ldr	r3, [sp, #24]
   15e34:	9300      	str	r3, [sp, #0]
   15e36:	9b07      	ldr	r3, [sp, #28]
   15e38:	220e      	movs	r2, #14
   15e3a:	a806      	add	r0, sp, #24
   15e3c:	4684      	mov	ip, r0
   15e3e:	4462      	add	r2, ip
   15e40:	0038      	movs	r0, r7
   15e42:	4f2a      	ldr	r7, [pc, #168]	; (15eec <usart_init+0x32c>)
   15e44:	47b8      	blx	r7
   15e46:	e7ea      	b.n	15e1e <usart_init+0x25e>
   15e48:	7ef3      	ldrb	r3, [r6, #27]
   15e4a:	2b00      	cmp	r3, #0
   15e4c:	d100      	bne.n	15e50 <usart_init+0x290>
   15e4e:	e77d      	b.n	15d4c <usart_init+0x18c>
   15e50:	2380      	movs	r3, #128	; 0x80
   15e52:	04db      	lsls	r3, r3, #19
   15e54:	431f      	orrs	r7, r3
   15e56:	e779      	b.n	15d4c <usart_init+0x18c>
   15e58:	0020      	movs	r0, r4
   15e5a:	4b25      	ldr	r3, [pc, #148]	; (15ef0 <usart_init+0x330>)
   15e5c:	4798      	blx	r3
   15e5e:	e007      	b.n	15e70 <usart_init+0x2b0>
   15e60:	3701      	adds	r7, #1
   15e62:	2f04      	cmp	r7, #4
   15e64:	d00d      	beq.n	15e82 <usart_init+0x2c2>
   15e66:	b2f9      	uxtb	r1, r7
   15e68:	00bb      	lsls	r3, r7, #2
   15e6a:	5998      	ldr	r0, [r3, r6]
   15e6c:	2800      	cmp	r0, #0
   15e6e:	d0f3      	beq.n	15e58 <usart_init+0x298>
   15e70:	1c43      	adds	r3, r0, #1
   15e72:	d0f5      	beq.n	15e60 <usart_init+0x2a0>
   15e74:	a90e      	add	r1, sp, #56	; 0x38
   15e76:	7008      	strb	r0, [r1, #0]
   15e78:	0c00      	lsrs	r0, r0, #16
   15e7a:	b2c0      	uxtb	r0, r0
   15e7c:	4b1d      	ldr	r3, [pc, #116]	; (15ef4 <usart_init+0x334>)
   15e7e:	4798      	blx	r3
   15e80:	e7ee      	b.n	15e60 <usart_init+0x2a0>
   15e82:	2300      	movs	r3, #0
   15e84:	60eb      	str	r3, [r5, #12]
   15e86:	612b      	str	r3, [r5, #16]
   15e88:	616b      	str	r3, [r5, #20]
   15e8a:	61ab      	str	r3, [r5, #24]
   15e8c:	61eb      	str	r3, [r5, #28]
   15e8e:	622b      	str	r3, [r5, #32]
   15e90:	62ab      	str	r3, [r5, #40]	; 0x28
   15e92:	626b      	str	r3, [r5, #36]	; 0x24
   15e94:	2200      	movs	r2, #0
   15e96:	85eb      	strh	r3, [r5, #46]	; 0x2e
   15e98:	85ab      	strh	r3, [r5, #44]	; 0x2c
   15e9a:	3330      	adds	r3, #48	; 0x30
   15e9c:	54ea      	strb	r2, [r5, r3]
   15e9e:	3301      	adds	r3, #1
   15ea0:	54ea      	strb	r2, [r5, r3]
   15ea2:	3301      	adds	r3, #1
   15ea4:	54ea      	strb	r2, [r5, r3]
   15ea6:	3301      	adds	r3, #1
   15ea8:	54ea      	strb	r2, [r5, r3]
   15eaa:	6828      	ldr	r0, [r5, #0]
   15eac:	4b07      	ldr	r3, [pc, #28]	; (15ecc <usart_init+0x30c>)
   15eae:	4798      	blx	r3
   15eb0:	0004      	movs	r4, r0
   15eb2:	4911      	ldr	r1, [pc, #68]	; (15ef8 <usart_init+0x338>)
   15eb4:	4b11      	ldr	r3, [pc, #68]	; (15efc <usart_init+0x33c>)
   15eb6:	4798      	blx	r3
   15eb8:	00a4      	lsls	r4, r4, #2
   15eba:	4b11      	ldr	r3, [pc, #68]	; (15f00 <usart_init+0x340>)
   15ebc:	50e5      	str	r5, [r4, r3]
   15ebe:	2000      	movs	r0, #0
   15ec0:	e691      	b.n	15be6 <usart_init+0x26>
   15ec2:	2310      	movs	r3, #16
   15ec4:	9306      	str	r3, [sp, #24]
   15ec6:	2300      	movs	r3, #0
   15ec8:	9307      	str	r3, [sp, #28]
   15eca:	e6e8      	b.n	15c9e <usart_init+0xde>
   15ecc:	000153c5 	.word	0x000153c5
   15ed0:	40000400 	.word	0x40000400
   15ed4:	00016749 	.word	0x00016749
   15ed8:	000166bd 	.word	0x000166bd
   15edc:	00015201 	.word	0x00015201
   15ee0:	41002000 	.word	0x41002000
   15ee4:	00016765 	.word	0x00016765
   15ee8:	00015143 	.word	0x00015143
   15eec:	0001516d 	.word	0x0001516d
   15ef0:	0001524d 	.word	0x0001524d
   15ef4:	00016841 	.word	0x00016841
   15ef8:	00016005 	.word	0x00016005
   15efc:	00015401 	.word	0x00015401
   15f00:	20003128 	.word	0x20003128

00015f04 <_usart_write_buffer>:
   15f04:	b5f8      	push	{r3, r4, r5, r6, r7, lr}
   15f06:	0006      	movs	r6, r0
   15f08:	000c      	movs	r4, r1
   15f0a:	0015      	movs	r5, r2
   15f0c:	6807      	ldr	r7, [r0, #0]
   15f0e:	4b0a      	ldr	r3, [pc, #40]	; (15f38 <_usart_write_buffer+0x34>)
   15f10:	4798      	blx	r3
   15f12:	8df3      	ldrh	r3, [r6, #46]	; 0x2e
   15f14:	b29b      	uxth	r3, r3
   15f16:	2b00      	cmp	r3, #0
   15f18:	d003      	beq.n	15f22 <_usart_write_buffer+0x1e>
   15f1a:	4b08      	ldr	r3, [pc, #32]	; (15f3c <_usart_write_buffer+0x38>)
   15f1c:	4798      	blx	r3
   15f1e:	2005      	movs	r0, #5
   15f20:	bdf8      	pop	{r3, r4, r5, r6, r7, pc}
   15f22:	85f5      	strh	r5, [r6, #46]	; 0x2e
   15f24:	4b05      	ldr	r3, [pc, #20]	; (15f3c <_usart_write_buffer+0x38>)
   15f26:	4798      	blx	r3
   15f28:	62b4      	str	r4, [r6, #40]	; 0x28
   15f2a:	2205      	movs	r2, #5
   15f2c:	2333      	movs	r3, #51	; 0x33
   15f2e:	54f2      	strb	r2, [r6, r3]
   15f30:	3b32      	subs	r3, #50	; 0x32
   15f32:	75bb      	strb	r3, [r7, #22]
   15f34:	2000      	movs	r0, #0
   15f36:	e7f3      	b.n	15f20 <_usart_write_buffer+0x1c>
   15f38:	00014ca9 	.word	0x00014ca9
   15f3c:	00014ce9 	.word	0x00014ce9

00015f40 <_usart_read_buffer>:
   15f40:	b5f8      	push	{r3, r4, r5, r6, r7, lr}
   15f42:	0004      	movs	r4, r0
   15f44:	000d      	movs	r5, r1
   15f46:	0016      	movs	r6, r2
   15f48:	6807      	ldr	r7, [r0, #0]
   15f4a:	4b0f      	ldr	r3, [pc, #60]	; (15f88 <_usart_read_buffer+0x48>)
   15f4c:	4798      	blx	r3
   15f4e:	8da3      	ldrh	r3, [r4, #44]	; 0x2c
   15f50:	b29b      	uxth	r3, r3
   15f52:	2b00      	cmp	r3, #0
   15f54:	d003      	beq.n	15f5e <_usart_read_buffer+0x1e>
   15f56:	4b0d      	ldr	r3, [pc, #52]	; (15f8c <_usart_read_buffer+0x4c>)
   15f58:	4798      	blx	r3
   15f5a:	2005      	movs	r0, #5
   15f5c:	bdf8      	pop	{r3, r4, r5, r6, r7, pc}
   15f5e:	85a6      	strh	r6, [r4, #44]	; 0x2c
   15f60:	4b0a      	ldr	r3, [pc, #40]	; (15f8c <_usart_read_buffer+0x4c>)
   15f62:	4798      	blx	r3
   15f64:	6265      	str	r5, [r4, #36]	; 0x24
   15f66:	2205      	movs	r2, #5
   15f68:	2332      	movs	r3, #50	; 0x32
   15f6a:	54e2      	strb	r2, [r4, r3]
   15f6c:	3b2e      	subs	r3, #46	; 0x2e
   15f6e:	75bb      	strb	r3, [r7, #22]
   15f70:	7a23      	ldrb	r3, [r4, #8]
   15f72:	2b00      	cmp	r3, #0
   15f74:	d001      	beq.n	15f7a <_usart_read_buffer+0x3a>
   15f76:	2320      	movs	r3, #32
   15f78:	75bb      	strb	r3, [r7, #22]
   15f7a:	7a63      	ldrb	r3, [r4, #9]
   15f7c:	2000      	movs	r0, #0
   15f7e:	2b00      	cmp	r3, #0
   15f80:	d0ec      	beq.n	15f5c <_usart_read_buffer+0x1c>
   15f82:	2308      	movs	r3, #8
   15f84:	75bb      	strb	r3, [r7, #22]
   15f86:	e7e9      	b.n	15f5c <_usart_read_buffer+0x1c>
   15f88:	00014ca9 	.word	0x00014ca9
   15f8c:	00014ce9 	.word	0x00014ce9

00015f90 <usart_register_callback>:
   15f90:	1c93      	adds	r3, r2, #2
   15f92:	009b      	lsls	r3, r3, #2
   15f94:	18c3      	adds	r3, r0, r3
   15f96:	6059      	str	r1, [r3, #4]
   15f98:	2130      	movs	r1, #48	; 0x30
   15f9a:	2301      	movs	r3, #1
   15f9c:	4093      	lsls	r3, r2
   15f9e:	001a      	movs	r2, r3
   15fa0:	5c43      	ldrb	r3, [r0, r1]
   15fa2:	4313      	orrs	r3, r2
   15fa4:	5443      	strb	r3, [r0, r1]
   15fa6:	4770      	bx	lr

00015fa8 <usart_write_buffer_job>:
   15fa8:	b510      	push	{r4, lr}
   15faa:	2317      	movs	r3, #23
   15fac:	2a00      	cmp	r2, #0
   15fae:	d101      	bne.n	15fb4 <usart_write_buffer_job+0xc>
   15fb0:	0018      	movs	r0, r3
   15fb2:	bd10      	pop	{r4, pc}
   15fb4:	79c4      	ldrb	r4, [r0, #7]
   15fb6:	3305      	adds	r3, #5
   15fb8:	2c00      	cmp	r4, #0
   15fba:	d0f9      	beq.n	15fb0 <usart_write_buffer_job+0x8>
   15fbc:	4b01      	ldr	r3, [pc, #4]	; (15fc4 <usart_write_buffer_job+0x1c>)
   15fbe:	4798      	blx	r3
   15fc0:	0003      	movs	r3, r0
   15fc2:	e7f5      	b.n	15fb0 <usart_write_buffer_job+0x8>
   15fc4:	00015f05 	.word	0x00015f05

00015fc8 <usart_read_buffer_job>:
   15fc8:	b510      	push	{r4, lr}
   15fca:	2317      	movs	r3, #23
   15fcc:	2a00      	cmp	r2, #0
   15fce:	d101      	bne.n	15fd4 <usart_read_buffer_job+0xc>
   15fd0:	0018      	movs	r0, r3
   15fd2:	bd10      	pop	{r4, pc}
   15fd4:	7984      	ldrb	r4, [r0, #6]
   15fd6:	3305      	adds	r3, #5
   15fd8:	2c00      	cmp	r4, #0
   15fda:	d0f9      	beq.n	15fd0 <usart_read_buffer_job+0x8>
   15fdc:	4b01      	ldr	r3, [pc, #4]	; (15fe4 <usart_read_buffer_job+0x1c>)
   15fde:	4798      	blx	r3
   15fe0:	0003      	movs	r3, r0
   15fe2:	e7f5      	b.n	15fd0 <usart_read_buffer_job+0x8>
   15fe4:	00015f41 	.word	0x00015f41

00015fe8 <usart_get_job_status>:
   15fe8:	2900      	cmp	r1, #0
   15fea:	d003      	beq.n	15ff4 <usart_get_job_status+0xc>
   15fec:	2901      	cmp	r1, #1
   15fee:	d005      	beq.n	15ffc <usart_get_job_status+0x14>
   15ff0:	2017      	movs	r0, #23
   15ff2:	e002      	b.n	15ffa <usart_get_job_status+0x12>
   15ff4:	2332      	movs	r3, #50	; 0x32
   15ff6:	5cc0      	ldrb	r0, [r0, r3]
   15ff8:	b2c0      	uxtb	r0, r0
   15ffa:	4770      	bx	lr
   15ffc:	2333      	movs	r3, #51	; 0x33
   15ffe:	5cc0      	ldrb	r0, [r0, r3]
   16000:	b2c0      	uxtb	r0, r0
   16002:	e7fa      	b.n	15ffa <usart_get_job_status+0x12>

00016004 <_usart_interrupt_handler>:
   16004:	b5f8      	push	{r3, r4, r5, r6, r7, lr}
   16006:	0080      	lsls	r0, r0, #2
   16008:	4b62      	ldr	r3, [pc, #392]	; (16194 <_usart_interrupt_handler+0x190>)
   1600a:	58c5      	ldr	r5, [r0, r3]
   1600c:	682c      	ldr	r4, [r5, #0]
   1600e:	69e3      	ldr	r3, [r4, #28]
   16010:	2b00      	cmp	r3, #0
   16012:	d1fc      	bne.n	1600e <_usart_interrupt_handler+0xa>
   16014:	7e23      	ldrb	r3, [r4, #24]
   16016:	7da6      	ldrb	r6, [r4, #22]
   16018:	401e      	ands	r6, r3
   1601a:	2330      	movs	r3, #48	; 0x30
   1601c:	5ceb      	ldrb	r3, [r5, r3]
   1601e:	2231      	movs	r2, #49	; 0x31
   16020:	5caf      	ldrb	r7, [r5, r2]
   16022:	401f      	ands	r7, r3
   16024:	07f3      	lsls	r3, r6, #31
   16026:	d522      	bpl.n	1606e <_usart_interrupt_handler+0x6a>
   16028:	8deb      	ldrh	r3, [r5, #46]	; 0x2e
   1602a:	b29b      	uxth	r3, r3
   1602c:	2b00      	cmp	r3, #0
   1602e:	d01c      	beq.n	1606a <_usart_interrupt_handler+0x66>
   16030:	6aaa      	ldr	r2, [r5, #40]	; 0x28
   16032:	7813      	ldrb	r3, [r2, #0]
   16034:	b2db      	uxtb	r3, r3
   16036:	1c51      	adds	r1, r2, #1
   16038:	62a9      	str	r1, [r5, #40]	; 0x28
   1603a:	7969      	ldrb	r1, [r5, #5]
   1603c:	2901      	cmp	r1, #1
   1603e:	d00e      	beq.n	1605e <_usart_interrupt_handler+0x5a>
   16040:	b29b      	uxth	r3, r3
   16042:	05db      	lsls	r3, r3, #23
   16044:	0ddb      	lsrs	r3, r3, #23
   16046:	8523      	strh	r3, [r4, #40]	; 0x28
   16048:	8deb      	ldrh	r3, [r5, #46]	; 0x2e
   1604a:	3b01      	subs	r3, #1
   1604c:	b29b      	uxth	r3, r3
   1604e:	85eb      	strh	r3, [r5, #46]	; 0x2e
   16050:	2b00      	cmp	r3, #0
   16052:	d10c      	bne.n	1606e <_usart_interrupt_handler+0x6a>
   16054:	3301      	adds	r3, #1
   16056:	7523      	strb	r3, [r4, #20]
   16058:	3301      	adds	r3, #1
   1605a:	75a3      	strb	r3, [r4, #22]
   1605c:	e007      	b.n	1606e <_usart_interrupt_handler+0x6a>
   1605e:	7851      	ldrb	r1, [r2, #1]
   16060:	0209      	lsls	r1, r1, #8
   16062:	430b      	orrs	r3, r1
   16064:	3202      	adds	r2, #2
   16066:	62aa      	str	r2, [r5, #40]	; 0x28
   16068:	e7eb      	b.n	16042 <_usart_interrupt_handler+0x3e>
   1606a:	2301      	movs	r3, #1
   1606c:	7523      	strb	r3, [r4, #20]
   1606e:	07b3      	lsls	r3, r6, #30
   16070:	d506      	bpl.n	16080 <_usart_interrupt_handler+0x7c>
   16072:	2302      	movs	r3, #2
   16074:	7523      	strb	r3, [r4, #20]
   16076:	2200      	movs	r2, #0
   16078:	3331      	adds	r3, #49	; 0x31
   1607a:	54ea      	strb	r2, [r5, r3]
   1607c:	07fb      	lsls	r3, r7, #31
   1607e:	d41a      	bmi.n	160b6 <_usart_interrupt_handler+0xb2>
   16080:	0773      	lsls	r3, r6, #29
   16082:	d565      	bpl.n	16150 <_usart_interrupt_handler+0x14c>
   16084:	8dab      	ldrh	r3, [r5, #44]	; 0x2c
   16086:	b29b      	uxth	r3, r3
   16088:	2b00      	cmp	r3, #0
   1608a:	d05f      	beq.n	1614c <_usart_interrupt_handler+0x148>
   1608c:	8b63      	ldrh	r3, [r4, #26]
   1608e:	b2db      	uxtb	r3, r3
   16090:	071a      	lsls	r2, r3, #28
   16092:	d414      	bmi.n	160be <_usart_interrupt_handler+0xba>
   16094:	223f      	movs	r2, #63	; 0x3f
   16096:	4013      	ands	r3, r2
   16098:	2b00      	cmp	r3, #0
   1609a:	d034      	beq.n	16106 <_usart_interrupt_handler+0x102>
   1609c:	079a      	lsls	r2, r3, #30
   1609e:	d511      	bpl.n	160c4 <_usart_interrupt_handler+0xc0>
   160a0:	221a      	movs	r2, #26
   160a2:	2332      	movs	r3, #50	; 0x32
   160a4:	54ea      	strb	r2, [r5, r3]
   160a6:	3b30      	subs	r3, #48	; 0x30
   160a8:	8363      	strh	r3, [r4, #26]
   160aa:	077b      	lsls	r3, r7, #29
   160ac:	d550      	bpl.n	16150 <_usart_interrupt_handler+0x14c>
   160ae:	0028      	movs	r0, r5
   160b0:	696b      	ldr	r3, [r5, #20]
   160b2:	4798      	blx	r3
   160b4:	e04c      	b.n	16150 <_usart_interrupt_handler+0x14c>
   160b6:	0028      	movs	r0, r5
   160b8:	68eb      	ldr	r3, [r5, #12]
   160ba:	4798      	blx	r3
   160bc:	e7e0      	b.n	16080 <_usart_interrupt_handler+0x7c>
   160be:	2237      	movs	r2, #55	; 0x37
   160c0:	4013      	ands	r3, r2
   160c2:	e7e9      	b.n	16098 <_usart_interrupt_handler+0x94>
   160c4:	075a      	lsls	r2, r3, #29
   160c6:	d505      	bpl.n	160d4 <_usart_interrupt_handler+0xd0>
   160c8:	221e      	movs	r2, #30
   160ca:	2332      	movs	r3, #50	; 0x32
   160cc:	54ea      	strb	r2, [r5, r3]
   160ce:	3b2e      	subs	r3, #46	; 0x2e
   160d0:	8363      	strh	r3, [r4, #26]
   160d2:	e7ea      	b.n	160aa <_usart_interrupt_handler+0xa6>
   160d4:	07da      	lsls	r2, r3, #31
   160d6:	d505      	bpl.n	160e4 <_usart_interrupt_handler+0xe0>
   160d8:	2213      	movs	r2, #19
   160da:	2332      	movs	r3, #50	; 0x32
   160dc:	54ea      	strb	r2, [r5, r3]
   160de:	3b31      	subs	r3, #49	; 0x31
   160e0:	8363      	strh	r3, [r4, #26]
   160e2:	e7e2      	b.n	160aa <_usart_interrupt_handler+0xa6>
   160e4:	06da      	lsls	r2, r3, #27
   160e6:	d505      	bpl.n	160f4 <_usart_interrupt_handler+0xf0>
   160e8:	2242      	movs	r2, #66	; 0x42
   160ea:	2332      	movs	r3, #50	; 0x32
   160ec:	54ea      	strb	r2, [r5, r3]
   160ee:	3b22      	subs	r3, #34	; 0x22
   160f0:	8363      	strh	r3, [r4, #26]
   160f2:	e7da      	b.n	160aa <_usart_interrupt_handler+0xa6>
   160f4:	2220      	movs	r2, #32
   160f6:	421a      	tst	r2, r3
   160f8:	d0d7      	beq.n	160aa <_usart_interrupt_handler+0xa6>
   160fa:	3221      	adds	r2, #33	; 0x21
   160fc:	2332      	movs	r3, #50	; 0x32
   160fe:	54ea      	strb	r2, [r5, r3]
   16100:	3b12      	subs	r3, #18
   16102:	8363      	strh	r3, [r4, #26]
   16104:	e7d1      	b.n	160aa <_usart_interrupt_handler+0xa6>
   16106:	8d23      	ldrh	r3, [r4, #40]	; 0x28
   16108:	05db      	lsls	r3, r3, #23
   1610a:	0ddb      	lsrs	r3, r3, #23
   1610c:	b2da      	uxtb	r2, r3
   1610e:	6a69      	ldr	r1, [r5, #36]	; 0x24
   16110:	700a      	strb	r2, [r1, #0]
   16112:	6a6a      	ldr	r2, [r5, #36]	; 0x24
   16114:	1c51      	adds	r1, r2, #1
   16116:	6269      	str	r1, [r5, #36]	; 0x24
   16118:	7969      	ldrb	r1, [r5, #5]
   1611a:	2901      	cmp	r1, #1
   1611c:	d010      	beq.n	16140 <_usart_interrupt_handler+0x13c>
   1611e:	8dab      	ldrh	r3, [r5, #44]	; 0x2c
   16120:	3b01      	subs	r3, #1
   16122:	b29b      	uxth	r3, r3
   16124:	85ab      	strh	r3, [r5, #44]	; 0x2c
   16126:	2b00      	cmp	r3, #0
   16128:	d112      	bne.n	16150 <_usart_interrupt_handler+0x14c>
   1612a:	3304      	adds	r3, #4
   1612c:	7523      	strb	r3, [r4, #20]
   1612e:	2200      	movs	r2, #0
   16130:	332e      	adds	r3, #46	; 0x2e
   16132:	54ea      	strb	r2, [r5, r3]
   16134:	07bb      	lsls	r3, r7, #30
   16136:	d50b      	bpl.n	16150 <_usart_interrupt_handler+0x14c>
   16138:	0028      	movs	r0, r5
   1613a:	692b      	ldr	r3, [r5, #16]
   1613c:	4798      	blx	r3
   1613e:	e007      	b.n	16150 <_usart_interrupt_handler+0x14c>
   16140:	0a1b      	lsrs	r3, r3, #8
   16142:	7053      	strb	r3, [r2, #1]
   16144:	6a6b      	ldr	r3, [r5, #36]	; 0x24
   16146:	3301      	adds	r3, #1
   16148:	626b      	str	r3, [r5, #36]	; 0x24
   1614a:	e7e8      	b.n	1611e <_usart_interrupt_handler+0x11a>
   1614c:	2304      	movs	r3, #4
   1614e:	7523      	strb	r3, [r4, #20]
   16150:	06f3      	lsls	r3, r6, #27
   16152:	d504      	bpl.n	1615e <_usart_interrupt_handler+0x15a>
   16154:	2310      	movs	r3, #16
   16156:	7523      	strb	r3, [r4, #20]
   16158:	7623      	strb	r3, [r4, #24]
   1615a:	06fb      	lsls	r3, r7, #27
   1615c:	d40e      	bmi.n	1617c <_usart_interrupt_handler+0x178>
   1615e:	06b3      	lsls	r3, r6, #26
   16160:	d504      	bpl.n	1616c <_usart_interrupt_handler+0x168>
   16162:	2320      	movs	r3, #32
   16164:	7523      	strb	r3, [r4, #20]
   16166:	7623      	strb	r3, [r4, #24]
   16168:	073b      	lsls	r3, r7, #28
   1616a:	d40b      	bmi.n	16184 <_usart_interrupt_handler+0x180>
   1616c:	0733      	lsls	r3, r6, #28
   1616e:	d504      	bpl.n	1617a <_usart_interrupt_handler+0x176>
   16170:	2308      	movs	r3, #8
   16172:	7523      	strb	r3, [r4, #20]
   16174:	7623      	strb	r3, [r4, #24]
   16176:	06bb      	lsls	r3, r7, #26
   16178:	d408      	bmi.n	1618c <_usart_interrupt_handler+0x188>
   1617a:	bdf8      	pop	{r3, r4, r5, r6, r7, pc}
   1617c:	0028      	movs	r0, r5
   1617e:	69eb      	ldr	r3, [r5, #28]
   16180:	4798      	blx	r3
   16182:	e7ec      	b.n	1615e <_usart_interrupt_handler+0x15a>
   16184:	0028      	movs	r0, r5
   16186:	69ab      	ldr	r3, [r5, #24]
   16188:	4798      	blx	r3
   1618a:	e7ef      	b.n	1616c <_usart_interrupt_handler+0x168>
   1618c:	6a2b      	ldr	r3, [r5, #32]
   1618e:	0028      	movs	r0, r5
   16190:	4798      	blx	r3
   16192:	e7f2      	b.n	1617a <_usart_interrupt_handler+0x176>
   16194:	20003128 	.word	0x20003128

00016198 <system_clock_source_get_hz>:
   16198:	b510      	push	{r4, lr}
   1619a:	2808      	cmp	r0, #8
   1619c:	d803      	bhi.n	161a6 <system_clock_source_get_hz+0xe>
   1619e:	0080      	lsls	r0, r0, #2
   161a0:	4b1c      	ldr	r3, [pc, #112]	; (16214 <system_clock_source_get_hz+0x7c>)
   161a2:	581b      	ldr	r3, [r3, r0]
   161a4:	469f      	mov	pc, r3
   161a6:	2000      	movs	r0, #0
   161a8:	e032      	b.n	16210 <system_clock_source_get_hz+0x78>
   161aa:	4b1b      	ldr	r3, [pc, #108]	; (16218 <system_clock_source_get_hz+0x80>)
   161ac:	6918      	ldr	r0, [r3, #16]
   161ae:	e02f      	b.n	16210 <system_clock_source_get_hz+0x78>
   161b0:	4b1a      	ldr	r3, [pc, #104]	; (1621c <system_clock_source_get_hz+0x84>)
   161b2:	6a1b      	ldr	r3, [r3, #32]
   161b4:	059b      	lsls	r3, r3, #22
   161b6:	0f9b      	lsrs	r3, r3, #30
   161b8:	4819      	ldr	r0, [pc, #100]	; (16220 <system_clock_source_get_hz+0x88>)
   161ba:	40d8      	lsrs	r0, r3
   161bc:	e028      	b.n	16210 <system_clock_source_get_hz+0x78>
   161be:	4b16      	ldr	r3, [pc, #88]	; (16218 <system_clock_source_get_hz+0x80>)
   161c0:	6958      	ldr	r0, [r3, #20]
   161c2:	e025      	b.n	16210 <system_clock_source_get_hz+0x78>
   161c4:	4b14      	ldr	r3, [pc, #80]	; (16218 <system_clock_source_get_hz+0x80>)
   161c6:	681b      	ldr	r3, [r3, #0]
   161c8:	2000      	movs	r0, #0
   161ca:	079b      	lsls	r3, r3, #30
   161cc:	d520      	bpl.n	16210 <system_clock_source_get_hz+0x78>
   161ce:	4913      	ldr	r1, [pc, #76]	; (1621c <system_clock_source_get_hz+0x84>)
   161d0:	2210      	movs	r2, #16
   161d2:	68cb      	ldr	r3, [r1, #12]
   161d4:	421a      	tst	r2, r3
   161d6:	d0fc      	beq.n	161d2 <system_clock_source_get_hz+0x3a>
   161d8:	4b0f      	ldr	r3, [pc, #60]	; (16218 <system_clock_source_get_hz+0x80>)
   161da:	681a      	ldr	r2, [r3, #0]
   161dc:	2324      	movs	r3, #36	; 0x24
   161de:	4013      	ands	r3, r2
   161e0:	2b04      	cmp	r3, #4
   161e2:	d001      	beq.n	161e8 <system_clock_source_get_hz+0x50>
   161e4:	480f      	ldr	r0, [pc, #60]	; (16224 <system_clock_source_get_hz+0x8c>)
   161e6:	e013      	b.n	16210 <system_clock_source_get_hz+0x78>
   161e8:	2000      	movs	r0, #0
   161ea:	4b0f      	ldr	r3, [pc, #60]	; (16228 <system_clock_source_get_hz+0x90>)
   161ec:	4798      	blx	r3
   161ee:	4b0a      	ldr	r3, [pc, #40]	; (16218 <system_clock_source_get_hz+0x80>)
   161f0:	689b      	ldr	r3, [r3, #8]
   161f2:	041b      	lsls	r3, r3, #16
   161f4:	0c1b      	lsrs	r3, r3, #16
   161f6:	4358      	muls	r0, r3
   161f8:	e00a      	b.n	16210 <system_clock_source_get_hz+0x78>
   161fa:	2350      	movs	r3, #80	; 0x50
   161fc:	4a07      	ldr	r2, [pc, #28]	; (1621c <system_clock_source_get_hz+0x84>)
   161fe:	5cd3      	ldrb	r3, [r2, r3]
   16200:	2000      	movs	r0, #0
   16202:	075b      	lsls	r3, r3, #29
   16204:	d504      	bpl.n	16210 <system_clock_source_get_hz+0x78>
   16206:	4b04      	ldr	r3, [pc, #16]	; (16218 <system_clock_source_get_hz+0x80>)
   16208:	68d8      	ldr	r0, [r3, #12]
   1620a:	e001      	b.n	16210 <system_clock_source_get_hz+0x78>
   1620c:	2080      	movs	r0, #128	; 0x80
   1620e:	0200      	lsls	r0, r0, #8
   16210:	bd10      	pop	{r4, pc}
   16212:	46c0      	nop			; (mov r8, r8)
   16214:	000196d4 	.word	0x000196d4
   16218:	20002bc8 	.word	0x20002bc8
   1621c:	40000800 	.word	0x40000800
   16220:	007a1200 	.word	0x007a1200
   16224:	02dc6c00 	.word	0x02dc6c00
   16228:	00016765 	.word	0x00016765

0001622c <system_clock_source_osc8m_set_config>:
   1622c:	b570      	push	{r4, r5, r6, lr}
   1622e:	490c      	ldr	r1, [pc, #48]	; (16260 <system_clock_source_osc8m_set_config+0x34>)
   16230:	6a0b      	ldr	r3, [r1, #32]
   16232:	7804      	ldrb	r4, [r0, #0]
   16234:	7885      	ldrb	r5, [r0, #2]
   16236:	7840      	ldrb	r0, [r0, #1]
   16238:	2201      	movs	r2, #1
   1623a:	4010      	ands	r0, r2
   1623c:	0180      	lsls	r0, r0, #6
   1623e:	2640      	movs	r6, #64	; 0x40
   16240:	43b3      	bics	r3, r6
   16242:	4303      	orrs	r3, r0
   16244:	402a      	ands	r2, r5
   16246:	01d2      	lsls	r2, r2, #7
   16248:	2080      	movs	r0, #128	; 0x80
   1624a:	4383      	bics	r3, r0
   1624c:	4313      	orrs	r3, r2
   1624e:	2203      	movs	r2, #3
   16250:	4022      	ands	r2, r4
   16252:	0212      	lsls	r2, r2, #8
   16254:	4803      	ldr	r0, [pc, #12]	; (16264 <system_clock_source_osc8m_set_config+0x38>)
   16256:	4003      	ands	r3, r0
   16258:	4313      	orrs	r3, r2
   1625a:	620b      	str	r3, [r1, #32]
   1625c:	bd70      	pop	{r4, r5, r6, pc}
   1625e:	46c0      	nop			; (mov r8, r8)
   16260:	40000800 	.word	0x40000800
   16264:	fffffcff 	.word	0xfffffcff

00016268 <system_clock_source_dpll_set_config>:
   16268:	b5f8      	push	{r3, r4, r5, r6, r7, lr}
   1626a:	0005      	movs	r5, r0
   1626c:	68c4      	ldr	r4, [r0, #12]
   1626e:	7d03      	ldrb	r3, [r0, #20]
   16270:	2b01      	cmp	r3, #1
   16272:	d03b      	beq.n	162ec <system_clock_source_dpll_set_config+0x84>
   16274:	68ab      	ldr	r3, [r5, #8]
   16276:	0118      	lsls	r0, r3, #4
   16278:	0021      	movs	r1, r4
   1627a:	4b20      	ldr	r3, [pc, #128]	; (162fc <system_clock_source_dpll_set_config+0x94>)
   1627c:	4798      	blx	r3
   1627e:	220f      	movs	r2, #15
   16280:	4002      	ands	r2, r0
   16282:	0903      	lsrs	r3, r0, #4
   16284:	782e      	ldrb	r6, [r5, #0]
   16286:	01f6      	lsls	r6, r6, #7
   16288:	7869      	ldrb	r1, [r5, #1]
   1628a:	0189      	lsls	r1, r1, #6
   1628c:	430e      	orrs	r6, r1
   1628e:	b2f6      	uxtb	r6, r6
   16290:	491b      	ldr	r1, [pc, #108]	; (16300 <system_clock_source_dpll_set_config+0x98>)
   16292:	2744      	movs	r7, #68	; 0x44
   16294:	55ce      	strb	r6, [r1, r7]
   16296:	0416      	lsls	r6, r2, #16
   16298:	3b01      	subs	r3, #1
   1629a:	051b      	lsls	r3, r3, #20
   1629c:	0d1b      	lsrs	r3, r3, #20
   1629e:	4333      	orrs	r3, r6
   162a0:	648b      	str	r3, [r1, #72]	; 0x48
   162a2:	78ab      	ldrb	r3, [r5, #2]
   162a4:	031b      	lsls	r3, r3, #12
   162a6:	78ee      	ldrb	r6, [r5, #3]
   162a8:	00f6      	lsls	r6, r6, #3
   162aa:	4333      	orrs	r3, r6
   162ac:	792e      	ldrb	r6, [r5, #4]
   162ae:	00b6      	lsls	r6, r6, #2
   162b0:	4333      	orrs	r3, r6
   162b2:	7caf      	ldrb	r7, [r5, #18]
   162b4:	2603      	movs	r6, #3
   162b6:	403e      	ands	r6, r7
   162b8:	4333      	orrs	r3, r6
   162ba:	8a2e      	ldrh	r6, [r5, #16]
   162bc:	0436      	lsls	r6, r6, #16
   162be:	4f11      	ldr	r7, [pc, #68]	; (16304 <system_clock_source_dpll_set_config+0x9c>)
   162c0:	403e      	ands	r6, r7
   162c2:	4333      	orrs	r3, r6
   162c4:	7cee      	ldrb	r6, [r5, #19]
   162c6:	0236      	lsls	r6, r6, #8
   162c8:	27e0      	movs	r7, #224	; 0xe0
   162ca:	00ff      	lsls	r7, r7, #3
   162cc:	403e      	ands	r6, r7
   162ce:	4333      	orrs	r3, r6
   162d0:	7d2e      	ldrb	r6, [r5, #20]
   162d2:	0136      	lsls	r6, r6, #4
   162d4:	2530      	movs	r5, #48	; 0x30
   162d6:	4035      	ands	r5, r6
   162d8:	432b      	orrs	r3, r5
   162da:	64cb      	str	r3, [r1, #76]	; 0x4c
   162dc:	230f      	movs	r3, #15
   162de:	4398      	bics	r0, r3
   162e0:	1880      	adds	r0, r0, r2
   162e2:	4344      	muls	r4, r0
   162e4:	0924      	lsrs	r4, r4, #4
   162e6:	4b08      	ldr	r3, [pc, #32]	; (16308 <system_clock_source_dpll_set_config+0xa0>)
   162e8:	60dc      	str	r4, [r3, #12]
   162ea:	bdf8      	pop	{r3, r4, r5, r6, r7, pc}
   162ec:	8a01      	ldrh	r1, [r0, #16]
   162ee:	3101      	adds	r1, #1
   162f0:	0049      	lsls	r1, r1, #1
   162f2:	0020      	movs	r0, r4
   162f4:	4b01      	ldr	r3, [pc, #4]	; (162fc <system_clock_source_dpll_set_config+0x94>)
   162f6:	4798      	blx	r3
   162f8:	0004      	movs	r4, r0
   162fa:	e7bb      	b.n	16274 <system_clock_source_dpll_set_config+0xc>
   162fc:	00018851 	.word	0x00018851
   16300:	40000800 	.word	0x40000800
   16304:	07ff0000 	.word	0x07ff0000
   16308:	20002bc8 	.word	0x20002bc8

0001630c <system_clock_source_enable>:
   1630c:	2808      	cmp	r0, #8
   1630e:	d803      	bhi.n	16318 <system_clock_source_enable+0xc>
   16310:	0080      	lsls	r0, r0, #2
   16312:	4b25      	ldr	r3, [pc, #148]	; (163a8 <system_clock_source_enable+0x9c>)
   16314:	581b      	ldr	r3, [r3, r0]
   16316:	469f      	mov	pc, r3
   16318:	2017      	movs	r0, #23
   1631a:	e044      	b.n	163a6 <system_clock_source_enable+0x9a>
   1631c:	4a23      	ldr	r2, [pc, #140]	; (163ac <system_clock_source_enable+0xa0>)
   1631e:	6a13      	ldr	r3, [r2, #32]
   16320:	2102      	movs	r1, #2
   16322:	430b      	orrs	r3, r1
   16324:	6213      	str	r3, [r2, #32]
   16326:	2000      	movs	r0, #0
   16328:	e03d      	b.n	163a6 <system_clock_source_enable+0x9a>
   1632a:	4a20      	ldr	r2, [pc, #128]	; (163ac <system_clock_source_enable+0xa0>)
   1632c:	6993      	ldr	r3, [r2, #24]
   1632e:	2102      	movs	r1, #2
   16330:	430b      	orrs	r3, r1
   16332:	6193      	str	r3, [r2, #24]
   16334:	2000      	movs	r0, #0
   16336:	e036      	b.n	163a6 <system_clock_source_enable+0x9a>
   16338:	4a1c      	ldr	r2, [pc, #112]	; (163ac <system_clock_source_enable+0xa0>)
   1633a:	8a13      	ldrh	r3, [r2, #16]
   1633c:	2102      	movs	r1, #2
   1633e:	430b      	orrs	r3, r1
   16340:	8213      	strh	r3, [r2, #16]
   16342:	2000      	movs	r0, #0
   16344:	e02f      	b.n	163a6 <system_clock_source_enable+0x9a>
   16346:	4a19      	ldr	r2, [pc, #100]	; (163ac <system_clock_source_enable+0xa0>)
   16348:	8a93      	ldrh	r3, [r2, #20]
   1634a:	2102      	movs	r1, #2
   1634c:	430b      	orrs	r3, r1
   1634e:	8293      	strh	r3, [r2, #20]
   16350:	2000      	movs	r0, #0
   16352:	e028      	b.n	163a6 <system_clock_source_enable+0x9a>
   16354:	4916      	ldr	r1, [pc, #88]	; (163b0 <system_clock_source_enable+0xa4>)
   16356:	680b      	ldr	r3, [r1, #0]
   16358:	2202      	movs	r2, #2
   1635a:	4313      	orrs	r3, r2
   1635c:	600b      	str	r3, [r1, #0]
   1635e:	4b13      	ldr	r3, [pc, #76]	; (163ac <system_clock_source_enable+0xa0>)
   16360:	849a      	strh	r2, [r3, #36]	; 0x24
   16362:	0019      	movs	r1, r3
   16364:	320e      	adds	r2, #14
   16366:	68cb      	ldr	r3, [r1, #12]
   16368:	421a      	tst	r2, r3
   1636a:	d0fc      	beq.n	16366 <system_clock_source_enable+0x5a>
   1636c:	4a10      	ldr	r2, [pc, #64]	; (163b0 <system_clock_source_enable+0xa4>)
   1636e:	6891      	ldr	r1, [r2, #8]
   16370:	4b0e      	ldr	r3, [pc, #56]	; (163ac <system_clock_source_enable+0xa0>)
   16372:	62d9      	str	r1, [r3, #44]	; 0x2c
   16374:	6852      	ldr	r2, [r2, #4]
   16376:	629a      	str	r2, [r3, #40]	; 0x28
   16378:	2200      	movs	r2, #0
   1637a:	849a      	strh	r2, [r3, #36]	; 0x24
   1637c:	0019      	movs	r1, r3
   1637e:	3210      	adds	r2, #16
   16380:	68cb      	ldr	r3, [r1, #12]
   16382:	421a      	tst	r2, r3
   16384:	d0fc      	beq.n	16380 <system_clock_source_enable+0x74>
   16386:	4b0a      	ldr	r3, [pc, #40]	; (163b0 <system_clock_source_enable+0xa4>)
   16388:	681b      	ldr	r3, [r3, #0]
   1638a:	b29b      	uxth	r3, r3
   1638c:	4a07      	ldr	r2, [pc, #28]	; (163ac <system_clock_source_enable+0xa0>)
   1638e:	8493      	strh	r3, [r2, #36]	; 0x24
   16390:	2000      	movs	r0, #0
   16392:	e008      	b.n	163a6 <system_clock_source_enable+0x9a>
   16394:	4905      	ldr	r1, [pc, #20]	; (163ac <system_clock_source_enable+0xa0>)
   16396:	2244      	movs	r2, #68	; 0x44
   16398:	5c8b      	ldrb	r3, [r1, r2]
   1639a:	2002      	movs	r0, #2
   1639c:	4303      	orrs	r3, r0
   1639e:	548b      	strb	r3, [r1, r2]
   163a0:	2000      	movs	r0, #0
   163a2:	e000      	b.n	163a6 <system_clock_source_enable+0x9a>
   163a4:	2000      	movs	r0, #0
   163a6:	4770      	bx	lr
   163a8:	000196f8 	.word	0x000196f8
   163ac:	40000800 	.word	0x40000800
   163b0:	20002bc8 	.word	0x20002bc8

000163b4 <system_clock_init>:
   163b4:	b5f0      	push	{r4, r5, r6, r7, lr}
   163b6:	46d6      	mov	lr, sl
   163b8:	464f      	mov	r7, r9
   163ba:	4646      	mov	r6, r8
   163bc:	b5c0      	push	{r6, r7, lr}
   163be:	b08c      	sub	sp, #48	; 0x30
   163c0:	22c2      	movs	r2, #194	; 0xc2
   163c2:	00d2      	lsls	r2, r2, #3
   163c4:	4b45      	ldr	r3, [pc, #276]	; (164dc <system_clock_init+0x128>)
   163c6:	609a      	str	r2, [r3, #8]
   163c8:	4a45      	ldr	r2, [pc, #276]	; (164e0 <system_clock_init+0x12c>)
   163ca:	6853      	ldr	r3, [r2, #4]
   163cc:	211e      	movs	r1, #30
   163ce:	438b      	bics	r3, r1
   163d0:	3918      	subs	r1, #24
   163d2:	430b      	orrs	r3, r1
   163d4:	6053      	str	r3, [r2, #4]
   163d6:	2203      	movs	r2, #3
   163d8:	ab01      	add	r3, sp, #4
   163da:	701a      	strb	r2, [r3, #0]
   163dc:	2400      	movs	r4, #0
   163de:	4d41      	ldr	r5, [pc, #260]	; (164e4 <system_clock_init+0x130>)
   163e0:	b2e0      	uxtb	r0, r4
   163e2:	a901      	add	r1, sp, #4
   163e4:	47a8      	blx	r5
   163e6:	3401      	adds	r4, #1
   163e8:	2c25      	cmp	r4, #37	; 0x25
   163ea:	d1f9      	bne.n	163e0 <system_clock_init+0x2c>
   163ec:	a80b      	add	r0, sp, #44	; 0x2c
   163ee:	2500      	movs	r5, #0
   163f0:	7045      	strb	r5, [r0, #1]
   163f2:	2601      	movs	r6, #1
   163f4:	7086      	strb	r6, [r0, #2]
   163f6:	7005      	strb	r5, [r0, #0]
   163f8:	4b3b      	ldr	r3, [pc, #236]	; (164e8 <system_clock_init+0x134>)
   163fa:	4798      	blx	r3
   163fc:	2006      	movs	r0, #6
   163fe:	4b3b      	ldr	r3, [pc, #236]	; (164ec <system_clock_init+0x138>)
   16400:	4699      	mov	r9, r3
   16402:	4798      	blx	r3
   16404:	4b3a      	ldr	r3, [pc, #232]	; (164f0 <system_clock_init+0x13c>)
   16406:	4798      	blx	r3
   16408:	ac01      	add	r4, sp, #4
   1640a:	7065      	strb	r5, [r4, #1]
   1640c:	2306      	movs	r3, #6
   1640e:	7023      	strb	r3, [r4, #0]
   16410:	7225      	strb	r5, [r4, #8]
   16412:	7265      	strb	r5, [r4, #9]
   16414:	3302      	adds	r3, #2
   16416:	6063      	str	r3, [r4, #4]
   16418:	0021      	movs	r1, r4
   1641a:	2001      	movs	r0, #1
   1641c:	4b35      	ldr	r3, [pc, #212]	; (164f4 <system_clock_init+0x140>)
   1641e:	4698      	mov	r8, r3
   16420:	4798      	blx	r3
   16422:	2001      	movs	r0, #1
   16424:	4f34      	ldr	r7, [pc, #208]	; (164f8 <system_clock_init+0x144>)
   16426:	47b8      	blx	r7
   16428:	6066      	str	r6, [r4, #4]
   1642a:	7065      	strb	r5, [r4, #1]
   1642c:	7265      	strb	r5, [r4, #9]
   1642e:	2303      	movs	r3, #3
   16430:	469a      	mov	sl, r3
   16432:	7023      	strb	r3, [r4, #0]
   16434:	7226      	strb	r6, [r4, #8]
   16436:	0021      	movs	r1, r4
   16438:	2002      	movs	r0, #2
   1643a:	47c0      	blx	r8
   1643c:	2002      	movs	r0, #2
   1643e:	47b8      	blx	r7
   16440:	7065      	strb	r5, [r4, #1]
   16442:	7225      	strb	r5, [r4, #8]
   16444:	7265      	strb	r5, [r4, #9]
   16446:	4653      	mov	r3, sl
   16448:	7023      	strb	r3, [r4, #0]
   1644a:	2320      	movs	r3, #32
   1644c:	6063      	str	r3, [r4, #4]
   1644e:	0021      	movs	r1, r4
   16450:	2004      	movs	r0, #4
   16452:	47c0      	blx	r8
   16454:	2004      	movs	r0, #4
   16456:	47b8      	blx	r7
   16458:	a90a      	add	r1, sp, #40	; 0x28
   1645a:	700e      	strb	r6, [r1, #0]
   1645c:	2001      	movs	r0, #1
   1645e:	4b21      	ldr	r3, [pc, #132]	; (164e4 <system_clock_init+0x130>)
   16460:	4798      	blx	r3
   16462:	2001      	movs	r0, #1
   16464:	4b25      	ldr	r3, [pc, #148]	; (164fc <system_clock_init+0x148>)
   16466:	4798      	blx	r3
   16468:	a804      	add	r0, sp, #16
   1646a:	7045      	strb	r5, [r0, #1]
   1646c:	7085      	strb	r5, [r0, #2]
   1646e:	70c5      	strb	r5, [r0, #3]
   16470:	7105      	strb	r5, [r0, #4]
   16472:	4b23      	ldr	r3, [pc, #140]	; (16500 <system_clock_init+0x14c>)
   16474:	6083      	str	r3, [r0, #8]
   16476:	8206      	strh	r6, [r0, #16]
   16478:	74c5      	strb	r5, [r0, #19]
   1647a:	7485      	strb	r5, [r0, #18]
   1647c:	7005      	strb	r5, [r0, #0]
   1647e:	2302      	movs	r3, #2
   16480:	7503      	strb	r3, [r0, #20]
   16482:	4b20      	ldr	r3, [pc, #128]	; (16504 <system_clock_init+0x150>)
   16484:	60c3      	str	r3, [r0, #12]
   16486:	4b20      	ldr	r3, [pc, #128]	; (16508 <system_clock_init+0x154>)
   16488:	4798      	blx	r3
   1648a:	2008      	movs	r0, #8
   1648c:	47c8      	blx	r9
   1648e:	4813      	ldr	r0, [pc, #76]	; (164dc <system_clock_init+0x128>)
   16490:	2150      	movs	r1, #80	; 0x50
   16492:	2203      	movs	r2, #3
   16494:	5c43      	ldrb	r3, [r0, r1]
   16496:	4013      	ands	r3, r2
   16498:	2b03      	cmp	r3, #3
   1649a:	d1fb      	bne.n	16494 <system_clock_init+0xe0>
   1649c:	490f      	ldr	r1, [pc, #60]	; (164dc <system_clock_init+0x128>)
   1649e:	2244      	movs	r2, #68	; 0x44
   164a0:	5c88      	ldrb	r0, [r1, r2]
   164a2:	3b83      	subs	r3, #131	; 0x83
   164a4:	4303      	orrs	r3, r0
   164a6:	548b      	strb	r3, [r1, r2]
   164a8:	4a18      	ldr	r2, [pc, #96]	; (1650c <system_clock_init+0x158>)
   164aa:	2300      	movs	r3, #0
   164ac:	7213      	strb	r3, [r2, #8]
   164ae:	7253      	strb	r3, [r2, #9]
   164b0:	7293      	strb	r3, [r2, #10]
   164b2:	72d3      	strb	r3, [r2, #11]
   164b4:	a901      	add	r1, sp, #4
   164b6:	2201      	movs	r2, #1
   164b8:	604a      	str	r2, [r1, #4]
   164ba:	704b      	strb	r3, [r1, #1]
   164bc:	720b      	strb	r3, [r1, #8]
   164be:	3308      	adds	r3, #8
   164c0:	700b      	strb	r3, [r1, #0]
   164c2:	724a      	strb	r2, [r1, #9]
   164c4:	2000      	movs	r0, #0
   164c6:	4b0b      	ldr	r3, [pc, #44]	; (164f4 <system_clock_init+0x140>)
   164c8:	4798      	blx	r3
   164ca:	2000      	movs	r0, #0
   164cc:	4b0a      	ldr	r3, [pc, #40]	; (164f8 <system_clock_init+0x144>)
   164ce:	4798      	blx	r3
   164d0:	b00c      	add	sp, #48	; 0x30
   164d2:	bc1c      	pop	{r2, r3, r4}
   164d4:	4690      	mov	r8, r2
   164d6:	4699      	mov	r9, r3
   164d8:	46a2      	mov	sl, r4
   164da:	bdf0      	pop	{r4, r5, r6, r7, pc}
   164dc:	40000800 	.word	0x40000800
   164e0:	41004000 	.word	0x41004000
   164e4:	00016749 	.word	0x00016749
   164e8:	0001622d 	.word	0x0001622d
   164ec:	0001630d 	.word	0x0001630d
   164f0:	00016511 	.word	0x00016511
   164f4:	00016535 	.word	0x00016535
   164f8:	000165ed 	.word	0x000165ed
   164fc:	000166bd 	.word	0x000166bd
   16500:	02dc6c00 	.word	0x02dc6c00
   16504:	000f4240 	.word	0x000f4240
   16508:	00016269 	.word	0x00016269
   1650c:	40000400 	.word	0x40000400

00016510 <system_gclk_init>:
   16510:	4a06      	ldr	r2, [pc, #24]	; (1652c <system_gclk_init+0x1c>)
   16512:	6993      	ldr	r3, [r2, #24]
   16514:	2108      	movs	r1, #8
   16516:	430b      	orrs	r3, r1
   16518:	6193      	str	r3, [r2, #24]
   1651a:	2201      	movs	r2, #1
   1651c:	4b04      	ldr	r3, [pc, #16]	; (16530 <system_gclk_init+0x20>)
   1651e:	701a      	strb	r2, [r3, #0]
   16520:	0019      	movs	r1, r3
   16522:	780b      	ldrb	r3, [r1, #0]
   16524:	4213      	tst	r3, r2
   16526:	d1fc      	bne.n	16522 <system_gclk_init+0x12>
   16528:	4770      	bx	lr
   1652a:	46c0      	nop			; (mov r8, r8)
   1652c:	40000400 	.word	0x40000400
   16530:	40000c00 	.word	0x40000c00

00016534 <system_gclk_gen_set_config>:
   16534:	b570      	push	{r4, r5, r6, lr}
   16536:	0006      	movs	r6, r0
   16538:	0004      	movs	r4, r0
   1653a:	780d      	ldrb	r5, [r1, #0]
   1653c:	022d      	lsls	r5, r5, #8
   1653e:	4305      	orrs	r5, r0
   16540:	784b      	ldrb	r3, [r1, #1]
   16542:	2b00      	cmp	r3, #0
   16544:	d002      	beq.n	1654c <system_gclk_gen_set_config+0x18>
   16546:	2380      	movs	r3, #128	; 0x80
   16548:	02db      	lsls	r3, r3, #11
   1654a:	431d      	orrs	r5, r3
   1654c:	7a4b      	ldrb	r3, [r1, #9]
   1654e:	2b00      	cmp	r3, #0
   16550:	d002      	beq.n	16558 <system_gclk_gen_set_config+0x24>
   16552:	2380      	movs	r3, #128	; 0x80
   16554:	031b      	lsls	r3, r3, #12
   16556:	431d      	orrs	r5, r3
   16558:	6848      	ldr	r0, [r1, #4]
   1655a:	2801      	cmp	r0, #1
   1655c:	d910      	bls.n	16580 <system_gclk_gen_set_config+0x4c>
   1655e:	1e43      	subs	r3, r0, #1
   16560:	4218      	tst	r0, r3
   16562:	d134      	bne.n	165ce <system_gclk_gen_set_config+0x9a>
   16564:	2802      	cmp	r0, #2
   16566:	d930      	bls.n	165ca <system_gclk_gen_set_config+0x96>
   16568:	2302      	movs	r3, #2
   1656a:	2200      	movs	r2, #0
   1656c:	3201      	adds	r2, #1
   1656e:	005b      	lsls	r3, r3, #1
   16570:	4298      	cmp	r0, r3
   16572:	d8fb      	bhi.n	1656c <system_gclk_gen_set_config+0x38>
   16574:	0212      	lsls	r2, r2, #8
   16576:	4332      	orrs	r2, r6
   16578:	0014      	movs	r4, r2
   1657a:	2380      	movs	r3, #128	; 0x80
   1657c:	035b      	lsls	r3, r3, #13
   1657e:	431d      	orrs	r5, r3
   16580:	7a0b      	ldrb	r3, [r1, #8]
   16582:	2b00      	cmp	r3, #0
   16584:	d002      	beq.n	1658c <system_gclk_gen_set_config+0x58>
   16586:	2380      	movs	r3, #128	; 0x80
   16588:	039b      	lsls	r3, r3, #14
   1658a:	431d      	orrs	r5, r3
   1658c:	4a13      	ldr	r2, [pc, #76]	; (165dc <system_gclk_gen_set_config+0xa8>)
   1658e:	7853      	ldrb	r3, [r2, #1]
   16590:	b25b      	sxtb	r3, r3
   16592:	2b00      	cmp	r3, #0
   16594:	dbfb      	blt.n	1658e <system_gclk_gen_set_config+0x5a>
   16596:	4b12      	ldr	r3, [pc, #72]	; (165e0 <system_gclk_gen_set_config+0xac>)
   16598:	4798      	blx	r3
   1659a:	4b12      	ldr	r3, [pc, #72]	; (165e4 <system_gclk_gen_set_config+0xb0>)
   1659c:	701e      	strb	r6, [r3, #0]
   1659e:	4a0f      	ldr	r2, [pc, #60]	; (165dc <system_gclk_gen_set_config+0xa8>)
   165a0:	7853      	ldrb	r3, [r2, #1]
   165a2:	b25b      	sxtb	r3, r3
   165a4:	2b00      	cmp	r3, #0
   165a6:	dbfb      	blt.n	165a0 <system_gclk_gen_set_config+0x6c>
   165a8:	4b0c      	ldr	r3, [pc, #48]	; (165dc <system_gclk_gen_set_config+0xa8>)
   165aa:	609c      	str	r4, [r3, #8]
   165ac:	001a      	movs	r2, r3
   165ae:	7853      	ldrb	r3, [r2, #1]
   165b0:	b25b      	sxtb	r3, r3
   165b2:	2b00      	cmp	r3, #0
   165b4:	dbfb      	blt.n	165ae <system_gclk_gen_set_config+0x7a>
   165b6:	4a09      	ldr	r2, [pc, #36]	; (165dc <system_gclk_gen_set_config+0xa8>)
   165b8:	6853      	ldr	r3, [r2, #4]
   165ba:	2180      	movs	r1, #128	; 0x80
   165bc:	0249      	lsls	r1, r1, #9
   165be:	400b      	ands	r3, r1
   165c0:	431d      	orrs	r5, r3
   165c2:	6055      	str	r5, [r2, #4]
   165c4:	4b08      	ldr	r3, [pc, #32]	; (165e8 <system_gclk_gen_set_config+0xb4>)
   165c6:	4798      	blx	r3
   165c8:	bd70      	pop	{r4, r5, r6, pc}
   165ca:	2200      	movs	r2, #0
   165cc:	e7d2      	b.n	16574 <system_gclk_gen_set_config+0x40>
   165ce:	0204      	lsls	r4, r0, #8
   165d0:	4334      	orrs	r4, r6
   165d2:	2380      	movs	r3, #128	; 0x80
   165d4:	029b      	lsls	r3, r3, #10
   165d6:	431d      	orrs	r5, r3
   165d8:	e7d2      	b.n	16580 <system_gclk_gen_set_config+0x4c>
   165da:	46c0      	nop			; (mov r8, r8)
   165dc:	40000c00 	.word	0x40000c00
   165e0:	00014ca9 	.word	0x00014ca9
   165e4:	40000c08 	.word	0x40000c08
   165e8:	00014ce9 	.word	0x00014ce9

000165ec <system_gclk_gen_enable>:
   165ec:	b510      	push	{r4, lr}
   165ee:	0004      	movs	r4, r0
   165f0:	4a0b      	ldr	r2, [pc, #44]	; (16620 <system_gclk_gen_enable+0x34>)
   165f2:	7853      	ldrb	r3, [r2, #1]
   165f4:	b25b      	sxtb	r3, r3
   165f6:	2b00      	cmp	r3, #0
   165f8:	dbfb      	blt.n	165f2 <system_gclk_gen_enable+0x6>
   165fa:	4b0a      	ldr	r3, [pc, #40]	; (16624 <system_gclk_gen_enable+0x38>)
   165fc:	4798      	blx	r3
   165fe:	4b0a      	ldr	r3, [pc, #40]	; (16628 <system_gclk_gen_enable+0x3c>)
   16600:	701c      	strb	r4, [r3, #0]
   16602:	4a07      	ldr	r2, [pc, #28]	; (16620 <system_gclk_gen_enable+0x34>)
   16604:	7853      	ldrb	r3, [r2, #1]
   16606:	b25b      	sxtb	r3, r3
   16608:	2b00      	cmp	r3, #0
   1660a:	dbfb      	blt.n	16604 <system_gclk_gen_enable+0x18>
   1660c:	4a04      	ldr	r2, [pc, #16]	; (16620 <system_gclk_gen_enable+0x34>)
   1660e:	6851      	ldr	r1, [r2, #4]
   16610:	2380      	movs	r3, #128	; 0x80
   16612:	025b      	lsls	r3, r3, #9
   16614:	430b      	orrs	r3, r1
   16616:	6053      	str	r3, [r2, #4]
   16618:	4b04      	ldr	r3, [pc, #16]	; (1662c <system_gclk_gen_enable+0x40>)
   1661a:	4798      	blx	r3
   1661c:	bd10      	pop	{r4, pc}
   1661e:	46c0      	nop			; (mov r8, r8)
   16620:	40000c00 	.word	0x40000c00
   16624:	00014ca9 	.word	0x00014ca9
   16628:	40000c04 	.word	0x40000c04
   1662c:	00014ce9 	.word	0x00014ce9

00016630 <system_gclk_gen_get_hz>:
   16630:	b570      	push	{r4, r5, r6, lr}
   16632:	0004      	movs	r4, r0
   16634:	4a1a      	ldr	r2, [pc, #104]	; (166a0 <system_gclk_gen_get_hz+0x70>)
   16636:	7853      	ldrb	r3, [r2, #1]
   16638:	b25b      	sxtb	r3, r3
   1663a:	2b00      	cmp	r3, #0
   1663c:	dbfb      	blt.n	16636 <system_gclk_gen_get_hz+0x6>
   1663e:	4b19      	ldr	r3, [pc, #100]	; (166a4 <system_gclk_gen_get_hz+0x74>)
   16640:	4798      	blx	r3
   16642:	4b19      	ldr	r3, [pc, #100]	; (166a8 <system_gclk_gen_get_hz+0x78>)
   16644:	701c      	strb	r4, [r3, #0]
   16646:	4a16      	ldr	r2, [pc, #88]	; (166a0 <system_gclk_gen_get_hz+0x70>)
   16648:	7853      	ldrb	r3, [r2, #1]
   1664a:	b25b      	sxtb	r3, r3
   1664c:	2b00      	cmp	r3, #0
   1664e:	dbfb      	blt.n	16648 <system_gclk_gen_get_hz+0x18>
   16650:	4e13      	ldr	r6, [pc, #76]	; (166a0 <system_gclk_gen_get_hz+0x70>)
   16652:	6870      	ldr	r0, [r6, #4]
   16654:	04c0      	lsls	r0, r0, #19
   16656:	0ec0      	lsrs	r0, r0, #27
   16658:	4b14      	ldr	r3, [pc, #80]	; (166ac <system_gclk_gen_get_hz+0x7c>)
   1665a:	4798      	blx	r3
   1665c:	0005      	movs	r5, r0
   1665e:	4b12      	ldr	r3, [pc, #72]	; (166a8 <system_gclk_gen_get_hz+0x78>)
   16660:	701c      	strb	r4, [r3, #0]
   16662:	6876      	ldr	r6, [r6, #4]
   16664:	02f6      	lsls	r6, r6, #11
   16666:	0ff6      	lsrs	r6, r6, #31
   16668:	4b11      	ldr	r3, [pc, #68]	; (166b0 <system_gclk_gen_get_hz+0x80>)
   1666a:	701c      	strb	r4, [r3, #0]
   1666c:	4a0c      	ldr	r2, [pc, #48]	; (166a0 <system_gclk_gen_get_hz+0x70>)
   1666e:	7853      	ldrb	r3, [r2, #1]
   16670:	b25b      	sxtb	r3, r3
   16672:	2b00      	cmp	r3, #0
   16674:	dbfb      	blt.n	1666e <system_gclk_gen_get_hz+0x3e>
   16676:	4b0a      	ldr	r3, [pc, #40]	; (166a0 <system_gclk_gen_get_hz+0x70>)
   16678:	689c      	ldr	r4, [r3, #8]
   1667a:	0224      	lsls	r4, r4, #8
   1667c:	0c24      	lsrs	r4, r4, #16
   1667e:	4b0d      	ldr	r3, [pc, #52]	; (166b4 <system_gclk_gen_get_hz+0x84>)
   16680:	4798      	blx	r3
   16682:	2e00      	cmp	r6, #0
   16684:	d107      	bne.n	16696 <system_gclk_gen_get_hz+0x66>
   16686:	2c01      	cmp	r4, #1
   16688:	d907      	bls.n	1669a <system_gclk_gen_get_hz+0x6a>
   1668a:	0021      	movs	r1, r4
   1668c:	0028      	movs	r0, r5
   1668e:	4b0a      	ldr	r3, [pc, #40]	; (166b8 <system_gclk_gen_get_hz+0x88>)
   16690:	4798      	blx	r3
   16692:	0005      	movs	r5, r0
   16694:	e001      	b.n	1669a <system_gclk_gen_get_hz+0x6a>
   16696:	3401      	adds	r4, #1
   16698:	40e5      	lsrs	r5, r4
   1669a:	0028      	movs	r0, r5
   1669c:	bd70      	pop	{r4, r5, r6, pc}
   1669e:	46c0      	nop			; (mov r8, r8)
   166a0:	40000c00 	.word	0x40000c00
   166a4:	00014ca9 	.word	0x00014ca9
   166a8:	40000c04 	.word	0x40000c04
   166ac:	00016199 	.word	0x00016199
   166b0:	40000c08 	.word	0x40000c08
   166b4:	00014ce9 	.word	0x00014ce9
   166b8:	00018851 	.word	0x00018851

000166bc <system_gclk_chan_enable>:
   166bc:	b510      	push	{r4, lr}
   166be:	0004      	movs	r4, r0
   166c0:	4b06      	ldr	r3, [pc, #24]	; (166dc <system_gclk_chan_enable+0x20>)
   166c2:	4798      	blx	r3
   166c4:	4b06      	ldr	r3, [pc, #24]	; (166e0 <system_gclk_chan_enable+0x24>)
   166c6:	701c      	strb	r4, [r3, #0]
   166c8:	4a06      	ldr	r2, [pc, #24]	; (166e4 <system_gclk_chan_enable+0x28>)
   166ca:	8853      	ldrh	r3, [r2, #2]
   166cc:	2180      	movs	r1, #128	; 0x80
   166ce:	01c9      	lsls	r1, r1, #7
   166d0:	430b      	orrs	r3, r1
   166d2:	8053      	strh	r3, [r2, #2]
   166d4:	4b04      	ldr	r3, [pc, #16]	; (166e8 <system_gclk_chan_enable+0x2c>)
   166d6:	4798      	blx	r3
   166d8:	bd10      	pop	{r4, pc}
   166da:	46c0      	nop			; (mov r8, r8)
   166dc:	00014ca9 	.word	0x00014ca9
   166e0:	40000c02 	.word	0x40000c02
   166e4:	40000c00 	.word	0x40000c00
   166e8:	00014ce9 	.word	0x00014ce9

000166ec <system_gclk_chan_disable>:
   166ec:	b510      	push	{r4, lr}
   166ee:	0004      	movs	r4, r0
   166f0:	4b0f      	ldr	r3, [pc, #60]	; (16730 <system_gclk_chan_disable+0x44>)
   166f2:	4798      	blx	r3
   166f4:	4b0f      	ldr	r3, [pc, #60]	; (16734 <system_gclk_chan_disable+0x48>)
   166f6:	701c      	strb	r4, [r3, #0]
   166f8:	4a0f      	ldr	r2, [pc, #60]	; (16738 <system_gclk_chan_disable+0x4c>)
   166fa:	8853      	ldrh	r3, [r2, #2]
   166fc:	051b      	lsls	r3, r3, #20
   166fe:	0f18      	lsrs	r0, r3, #28
   16700:	8853      	ldrh	r3, [r2, #2]
   16702:	490e      	ldr	r1, [pc, #56]	; (1673c <system_gclk_chan_disable+0x50>)
   16704:	400b      	ands	r3, r1
   16706:	8053      	strh	r3, [r2, #2]
   16708:	8853      	ldrh	r3, [r2, #2]
   1670a:	490d      	ldr	r1, [pc, #52]	; (16740 <system_gclk_chan_disable+0x54>)
   1670c:	400b      	ands	r3, r1
   1670e:	8053      	strh	r3, [r2, #2]
   16710:	0011      	movs	r1, r2
   16712:	2280      	movs	r2, #128	; 0x80
   16714:	01d2      	lsls	r2, r2, #7
   16716:	884b      	ldrh	r3, [r1, #2]
   16718:	4213      	tst	r3, r2
   1671a:	d1fc      	bne.n	16716 <system_gclk_chan_disable+0x2a>
   1671c:	4906      	ldr	r1, [pc, #24]	; (16738 <system_gclk_chan_disable+0x4c>)
   1671e:	884a      	ldrh	r2, [r1, #2]
   16720:	0203      	lsls	r3, r0, #8
   16722:	4806      	ldr	r0, [pc, #24]	; (1673c <system_gclk_chan_disable+0x50>)
   16724:	4002      	ands	r2, r0
   16726:	4313      	orrs	r3, r2
   16728:	804b      	strh	r3, [r1, #2]
   1672a:	4b06      	ldr	r3, [pc, #24]	; (16744 <system_gclk_chan_disable+0x58>)
   1672c:	4798      	blx	r3
   1672e:	bd10      	pop	{r4, pc}
   16730:	00014ca9 	.word	0x00014ca9
   16734:	40000c02 	.word	0x40000c02
   16738:	40000c00 	.word	0x40000c00
   1673c:	fffff0ff 	.word	0xfffff0ff
   16740:	ffffbfff 	.word	0xffffbfff
   16744:	00014ce9 	.word	0x00014ce9

00016748 <system_gclk_chan_set_config>:
   16748:	b510      	push	{r4, lr}
   1674a:	780c      	ldrb	r4, [r1, #0]
   1674c:	0224      	lsls	r4, r4, #8
   1674e:	4304      	orrs	r4, r0
   16750:	4b02      	ldr	r3, [pc, #8]	; (1675c <system_gclk_chan_set_config+0x14>)
   16752:	4798      	blx	r3
   16754:	b2a4      	uxth	r4, r4
   16756:	4b02      	ldr	r3, [pc, #8]	; (16760 <system_gclk_chan_set_config+0x18>)
   16758:	805c      	strh	r4, [r3, #2]
   1675a:	bd10      	pop	{r4, pc}
   1675c:	000166ed 	.word	0x000166ed
   16760:	40000c00 	.word	0x40000c00

00016764 <system_gclk_chan_get_hz>:
   16764:	b510      	push	{r4, lr}
   16766:	0004      	movs	r4, r0
   16768:	4b06      	ldr	r3, [pc, #24]	; (16784 <system_gclk_chan_get_hz+0x20>)
   1676a:	4798      	blx	r3
   1676c:	4b06      	ldr	r3, [pc, #24]	; (16788 <system_gclk_chan_get_hz+0x24>)
   1676e:	701c      	strb	r4, [r3, #0]
   16770:	4b06      	ldr	r3, [pc, #24]	; (1678c <system_gclk_chan_get_hz+0x28>)
   16772:	885c      	ldrh	r4, [r3, #2]
   16774:	0524      	lsls	r4, r4, #20
   16776:	0f24      	lsrs	r4, r4, #28
   16778:	4b05      	ldr	r3, [pc, #20]	; (16790 <system_gclk_chan_get_hz+0x2c>)
   1677a:	4798      	blx	r3
   1677c:	0020      	movs	r0, r4
   1677e:	4b05      	ldr	r3, [pc, #20]	; (16794 <system_gclk_chan_get_hz+0x30>)
   16780:	4798      	blx	r3
   16782:	bd10      	pop	{r4, pc}
   16784:	00014ca9 	.word	0x00014ca9
   16788:	40000c02 	.word	0x40000c02
   1678c:	40000c00 	.word	0x40000c00
   16790:	00014ce9 	.word	0x00014ce9
   16794:	00016631 	.word	0x00016631

00016798 <_system_pinmux_config>:
   16798:	b530      	push	{r4, r5, lr}
   1679a:	78d3      	ldrb	r3, [r2, #3]
   1679c:	2b00      	cmp	r3, #0
   1679e:	d135      	bne.n	1680c <_system_pinmux_config+0x74>
   167a0:	7813      	ldrb	r3, [r2, #0]
   167a2:	2b80      	cmp	r3, #128	; 0x80
   167a4:	d029      	beq.n	167fa <_system_pinmux_config+0x62>
   167a6:	061b      	lsls	r3, r3, #24
   167a8:	2480      	movs	r4, #128	; 0x80
   167aa:	0264      	lsls	r4, r4, #9
   167ac:	4323      	orrs	r3, r4
   167ae:	7854      	ldrb	r4, [r2, #1]
   167b0:	2502      	movs	r5, #2
   167b2:	43ac      	bics	r4, r5
   167b4:	d106      	bne.n	167c4 <_system_pinmux_config+0x2c>
   167b6:	7894      	ldrb	r4, [r2, #2]
   167b8:	2c00      	cmp	r4, #0
   167ba:	d120      	bne.n	167fe <_system_pinmux_config+0x66>
   167bc:	2480      	movs	r4, #128	; 0x80
   167be:	02a4      	lsls	r4, r4, #10
   167c0:	4323      	orrs	r3, r4
   167c2:	6041      	str	r1, [r0, #4]
   167c4:	7854      	ldrb	r4, [r2, #1]
   167c6:	3c01      	subs	r4, #1
   167c8:	2c01      	cmp	r4, #1
   167ca:	d91c      	bls.n	16806 <_system_pinmux_config+0x6e>
   167cc:	040d      	lsls	r5, r1, #16
   167ce:	0c2d      	lsrs	r5, r5, #16
   167d0:	24a0      	movs	r4, #160	; 0xa0
   167d2:	05e4      	lsls	r4, r4, #23
   167d4:	432c      	orrs	r4, r5
   167d6:	431c      	orrs	r4, r3
   167d8:	6284      	str	r4, [r0, #40]	; 0x28
   167da:	0c0d      	lsrs	r5, r1, #16
   167dc:	24d0      	movs	r4, #208	; 0xd0
   167de:	0624      	lsls	r4, r4, #24
   167e0:	432c      	orrs	r4, r5
   167e2:	431c      	orrs	r4, r3
   167e4:	6284      	str	r4, [r0, #40]	; 0x28
   167e6:	78d4      	ldrb	r4, [r2, #3]
   167e8:	2c00      	cmp	r4, #0
   167ea:	d122      	bne.n	16832 <_system_pinmux_config+0x9a>
   167ec:	035b      	lsls	r3, r3, #13
   167ee:	d51c      	bpl.n	1682a <_system_pinmux_config+0x92>
   167f0:	7893      	ldrb	r3, [r2, #2]
   167f2:	2b01      	cmp	r3, #1
   167f4:	d01e      	beq.n	16834 <_system_pinmux_config+0x9c>
   167f6:	6141      	str	r1, [r0, #20]
   167f8:	e017      	b.n	1682a <_system_pinmux_config+0x92>
   167fa:	2300      	movs	r3, #0
   167fc:	e7d7      	b.n	167ae <_system_pinmux_config+0x16>
   167fe:	24c0      	movs	r4, #192	; 0xc0
   16800:	02e4      	lsls	r4, r4, #11
   16802:	4323      	orrs	r3, r4
   16804:	e7dd      	b.n	167c2 <_system_pinmux_config+0x2a>
   16806:	4c0d      	ldr	r4, [pc, #52]	; (1683c <_system_pinmux_config+0xa4>)
   16808:	4023      	ands	r3, r4
   1680a:	e7df      	b.n	167cc <_system_pinmux_config+0x34>
   1680c:	6041      	str	r1, [r0, #4]
   1680e:	040c      	lsls	r4, r1, #16
   16810:	0c24      	lsrs	r4, r4, #16
   16812:	23a0      	movs	r3, #160	; 0xa0
   16814:	05db      	lsls	r3, r3, #23
   16816:	4323      	orrs	r3, r4
   16818:	6283      	str	r3, [r0, #40]	; 0x28
   1681a:	0c0c      	lsrs	r4, r1, #16
   1681c:	23d0      	movs	r3, #208	; 0xd0
   1681e:	061b      	lsls	r3, r3, #24
   16820:	4323      	orrs	r3, r4
   16822:	6283      	str	r3, [r0, #40]	; 0x28
   16824:	78d3      	ldrb	r3, [r2, #3]
   16826:	2b00      	cmp	r3, #0
   16828:	d103      	bne.n	16832 <_system_pinmux_config+0x9a>
   1682a:	7853      	ldrb	r3, [r2, #1]
   1682c:	3b01      	subs	r3, #1
   1682e:	2b01      	cmp	r3, #1
   16830:	d902      	bls.n	16838 <_system_pinmux_config+0xa0>
   16832:	bd30      	pop	{r4, r5, pc}
   16834:	6181      	str	r1, [r0, #24]
   16836:	e7f8      	b.n	1682a <_system_pinmux_config+0x92>
   16838:	6081      	str	r1, [r0, #8]
   1683a:	e7fa      	b.n	16832 <_system_pinmux_config+0x9a>
   1683c:	fffbffff 	.word	0xfffbffff

00016840 <system_pinmux_pin_set_config>:
   16840:	b510      	push	{r4, lr}
   16842:	000a      	movs	r2, r1
   16844:	09c1      	lsrs	r1, r0, #7
   16846:	2300      	movs	r3, #0
   16848:	2900      	cmp	r1, #0
   1684a:	d104      	bne.n	16856 <system_pinmux_pin_set_config+0x16>
   1684c:	0943      	lsrs	r3, r0, #5
   1684e:	01db      	lsls	r3, r3, #7
   16850:	4905      	ldr	r1, [pc, #20]	; (16868 <system_pinmux_pin_set_config+0x28>)
   16852:	468c      	mov	ip, r1
   16854:	4463      	add	r3, ip
   16856:	241f      	movs	r4, #31
   16858:	4020      	ands	r0, r4
   1685a:	2101      	movs	r1, #1
   1685c:	4081      	lsls	r1, r0
   1685e:	0018      	movs	r0, r3
   16860:	4b02      	ldr	r3, [pc, #8]	; (1686c <system_pinmux_pin_set_config+0x2c>)
   16862:	4798      	blx	r3
   16864:	bd10      	pop	{r4, pc}
   16866:	46c0      	nop			; (mov r8, r8)
   16868:	41004400 	.word	0x41004400
   1686c:	00016799 	.word	0x00016799

00016870 <_system_dummy_init>:
   16870:	4770      	bx	lr
	...

00016874 <system_init>:
   16874:	b510      	push	{r4, lr}
   16876:	4b05      	ldr	r3, [pc, #20]	; (1688c <system_init+0x18>)
   16878:	4798      	blx	r3
   1687a:	4b05      	ldr	r3, [pc, #20]	; (16890 <system_init+0x1c>)
   1687c:	4798      	blx	r3
   1687e:	4b05      	ldr	r3, [pc, #20]	; (16894 <system_init+0x20>)
   16880:	4798      	blx	r3
   16882:	4b05      	ldr	r3, [pc, #20]	; (16898 <system_init+0x24>)
   16884:	4798      	blx	r3
   16886:	4b05      	ldr	r3, [pc, #20]	; (1689c <system_init+0x28>)
   16888:	4798      	blx	r3
   1688a:	bd10      	pop	{r4, pc}
   1688c:	000163b5 	.word	0x000163b5
   16890:	00014d19 	.word	0x00014d19
   16894:	00016871 	.word	0x00016871
   16898:	00014dbd 	.word	0x00014dbd
   1689c:	00016871 	.word	0x00016871

000168a0 <_tcc_interrupt_handler>:
   168a0:	b5f0      	push	{r4, r5, r6, r7, lr}
   168a2:	46c6      	mov	lr, r8
   168a4:	b500      	push	{lr}
   168a6:	0080      	lsls	r0, r0, #2
   168a8:	4b0e      	ldr	r3, [pc, #56]	; (168e4 <_tcc_interrupt_handler+0x44>)
   168aa:	58c7      	ldr	r7, [r0, r3]
   168ac:	683b      	ldr	r3, [r7, #0]
   168ae:	6ade      	ldr	r6, [r3, #44]	; 0x2c
   168b0:	6bbb      	ldr	r3, [r7, #56]	; 0x38
   168b2:	6b7a      	ldr	r2, [r7, #52]	; 0x34
   168b4:	4013      	ands	r3, r2
   168b6:	401e      	ands	r6, r3
   168b8:	2400      	movs	r4, #0
   168ba:	4b0b      	ldr	r3, [pc, #44]	; (168e8 <_tcc_interrupt_handler+0x48>)
   168bc:	4698      	mov	r8, r3
   168be:	e002      	b.n	168c6 <_tcc_interrupt_handler+0x26>
   168c0:	3404      	adds	r4, #4
   168c2:	2c30      	cmp	r4, #48	; 0x30
   168c4:	d00a      	beq.n	168dc <_tcc_interrupt_handler+0x3c>
   168c6:	4643      	mov	r3, r8
   168c8:	58e5      	ldr	r5, [r4, r3]
   168ca:	4235      	tst	r5, r6
   168cc:	d0f8      	beq.n	168c0 <_tcc_interrupt_handler+0x20>
   168ce:	193b      	adds	r3, r7, r4
   168d0:	685b      	ldr	r3, [r3, #4]
   168d2:	0038      	movs	r0, r7
   168d4:	4798      	blx	r3
   168d6:	683b      	ldr	r3, [r7, #0]
   168d8:	62dd      	str	r5, [r3, #44]	; 0x2c
   168da:	e7f1      	b.n	168c0 <_tcc_interrupt_handler+0x20>
   168dc:	bc04      	pop	{r2}
   168de:	4690      	mov	r8, r2
   168e0:	bdf0      	pop	{r4, r5, r6, r7, pc}
   168e2:	46c0      	nop			; (mov r8, r8)
   168e4:	20003144 	.word	0x20003144
   168e8:	0001971c 	.word	0x0001971c

000168ec <TCC0_Handler>:
   168ec:	b510      	push	{r4, lr}
   168ee:	2000      	movs	r0, #0
   168f0:	4b01      	ldr	r3, [pc, #4]	; (168f8 <TCC0_Handler+0xc>)
   168f2:	4798      	blx	r3
   168f4:	bd10      	pop	{r4, pc}
   168f6:	46c0      	nop			; (mov r8, r8)
   168f8:	000168a1 	.word	0x000168a1

000168fc <TCC1_Handler>:
   168fc:	b510      	push	{r4, lr}
   168fe:	2001      	movs	r0, #1
   16900:	4b01      	ldr	r3, [pc, #4]	; (16908 <TCC1_Handler+0xc>)
   16902:	4798      	blx	r3
   16904:	bd10      	pop	{r4, pc}
   16906:	46c0      	nop			; (mov r8, r8)
   16908:	000168a1 	.word	0x000168a1

0001690c <TCC2_Handler>:
   1690c:	b510      	push	{r4, lr}
   1690e:	2002      	movs	r0, #2
   16910:	4b01      	ldr	r3, [pc, #4]	; (16918 <TCC2_Handler+0xc>)
   16912:	4798      	blx	r3
   16914:	bd10      	pop	{r4, pc}
   16916:	46c0      	nop			; (mov r8, r8)
   16918:	000168a1 	.word	0x000168a1

0001691c <Dummy_Handler>:
   1691c:	2004      	movs	r0, #4
   1691e:	4671      	mov	r1, lr
   16920:	4208      	tst	r0, r1
   16922:	d002      	beq.n	1692a <_MSP>
   16924:	f3ef 8009 	mrs	r0, PSP
   16928:	e001      	b.n	1692e <_HALT>

0001692a <_MSP>:
   1692a:	f3ef 8008 	mrs	r0, MSP

0001692e <_HALT>:
   1692e:	6941      	ldr	r1, [r0, #20]
   16930:	e074      	b.n	16a1c <HardFault_HandlerC>
   16932:	be00      	bkpt	0x0000
   16934:	4770      	bx	lr
	...

00016938 <Reset_Handler>:
   16938:	b5f8      	push	{r3, r4, r5, r6, r7, lr}
   1693a:	4a2a      	ldr	r2, [pc, #168]	; (169e4 <Reset_Handler+0xac>)
   1693c:	4b2a      	ldr	r3, [pc, #168]	; (169e8 <Reset_Handler+0xb0>)
   1693e:	429a      	cmp	r2, r3
   16940:	d011      	beq.n	16966 <Reset_Handler+0x2e>
   16942:	001a      	movs	r2, r3
   16944:	4b29      	ldr	r3, [pc, #164]	; (169ec <Reset_Handler+0xb4>)
   16946:	429a      	cmp	r2, r3
   16948:	d20d      	bcs.n	16966 <Reset_Handler+0x2e>
   1694a:	4a29      	ldr	r2, [pc, #164]	; (169f0 <Reset_Handler+0xb8>)
   1694c:	3303      	adds	r3, #3
   1694e:	1a9b      	subs	r3, r3, r2
   16950:	089b      	lsrs	r3, r3, #2
   16952:	3301      	adds	r3, #1
   16954:	009b      	lsls	r3, r3, #2
   16956:	2200      	movs	r2, #0
   16958:	4823      	ldr	r0, [pc, #140]	; (169e8 <Reset_Handler+0xb0>)
   1695a:	4922      	ldr	r1, [pc, #136]	; (169e4 <Reset_Handler+0xac>)
   1695c:	588c      	ldr	r4, [r1, r2]
   1695e:	5084      	str	r4, [r0, r2]
   16960:	3204      	adds	r2, #4
   16962:	429a      	cmp	r2, r3
   16964:	d1fa      	bne.n	1695c <Reset_Handler+0x24>
   16966:	4a23      	ldr	r2, [pc, #140]	; (169f4 <Reset_Handler+0xbc>)
   16968:	4b23      	ldr	r3, [pc, #140]	; (169f8 <Reset_Handler+0xc0>)
   1696a:	429a      	cmp	r2, r3
   1696c:	d20a      	bcs.n	16984 <Reset_Handler+0x4c>
   1696e:	43d3      	mvns	r3, r2
   16970:	4921      	ldr	r1, [pc, #132]	; (169f8 <Reset_Handler+0xc0>)
   16972:	185b      	adds	r3, r3, r1
   16974:	2103      	movs	r1, #3
   16976:	438b      	bics	r3, r1
   16978:	3304      	adds	r3, #4
   1697a:	189b      	adds	r3, r3, r2
   1697c:	2100      	movs	r1, #0
   1697e:	c202      	stmia	r2!, {r1}
   16980:	4293      	cmp	r3, r2
   16982:	d1fc      	bne.n	1697e <Reset_Handler+0x46>
   16984:	4a1d      	ldr	r2, [pc, #116]	; (169fc <Reset_Handler+0xc4>)
   16986:	21ff      	movs	r1, #255	; 0xff
   16988:	4b1d      	ldr	r3, [pc, #116]	; (16a00 <Reset_Handler+0xc8>)
   1698a:	438b      	bics	r3, r1
   1698c:	6093      	str	r3, [r2, #8]
   1698e:	39fd      	subs	r1, #253	; 0xfd
   16990:	2390      	movs	r3, #144	; 0x90
   16992:	005b      	lsls	r3, r3, #1
   16994:	4a1b      	ldr	r2, [pc, #108]	; (16a04 <Reset_Handler+0xcc>)
   16996:	50d1      	str	r1, [r2, r3]
   16998:	4a1b      	ldr	r2, [pc, #108]	; (16a08 <Reset_Handler+0xd0>)
   1699a:	78d3      	ldrb	r3, [r2, #3]
   1699c:	2503      	movs	r5, #3
   1699e:	43ab      	bics	r3, r5
   169a0:	2402      	movs	r4, #2
   169a2:	4323      	orrs	r3, r4
   169a4:	70d3      	strb	r3, [r2, #3]
   169a6:	78d3      	ldrb	r3, [r2, #3]
   169a8:	270c      	movs	r7, #12
   169aa:	43bb      	bics	r3, r7
   169ac:	2608      	movs	r6, #8
   169ae:	4333      	orrs	r3, r6
   169b0:	70d3      	strb	r3, [r2, #3]
   169b2:	4b16      	ldr	r3, [pc, #88]	; (16a0c <Reset_Handler+0xd4>)
   169b4:	7b98      	ldrb	r0, [r3, #14]
   169b6:	2230      	movs	r2, #48	; 0x30
   169b8:	4390      	bics	r0, r2
   169ba:	2220      	movs	r2, #32
   169bc:	4310      	orrs	r0, r2
   169be:	7398      	strb	r0, [r3, #14]
   169c0:	7b99      	ldrb	r1, [r3, #14]
   169c2:	43b9      	bics	r1, r7
   169c4:	4331      	orrs	r1, r6
   169c6:	7399      	strb	r1, [r3, #14]
   169c8:	7b9a      	ldrb	r2, [r3, #14]
   169ca:	43aa      	bics	r2, r5
   169cc:	4322      	orrs	r2, r4
   169ce:	739a      	strb	r2, [r3, #14]
   169d0:	4a0f      	ldr	r2, [pc, #60]	; (16a10 <Reset_Handler+0xd8>)
   169d2:	6853      	ldr	r3, [r2, #4]
   169d4:	2180      	movs	r1, #128	; 0x80
   169d6:	430b      	orrs	r3, r1
   169d8:	6053      	str	r3, [r2, #4]
   169da:	4b0e      	ldr	r3, [pc, #56]	; (16a14 <Reset_Handler+0xdc>)
   169dc:	4798      	blx	r3
   169de:	4b0e      	ldr	r3, [pc, #56]	; (16a18 <Reset_Handler+0xe0>)
   169e0:	4798      	blx	r3
   169e2:	e7fe      	b.n	169e2 <Reset_Handler+0xaa>
   169e4:	00019f84 	.word	0x00019f84
   169e8:	20000000 	.word	0x20000000
   169ec:	20000074 	.word	0x20000074
   169f0:	20000004 	.word	0x20000004
   169f4:	20000074 	.word	0x20000074
   169f8:	200031d0 	.word	0x200031d0
   169fc:	e000ed00 	.word	0xe000ed00
   16a00:	00012000 	.word	0x00012000
   16a04:	41007000 	.word	0x41007000
   16a08:	41005000 	.word	0x41005000
   16a0c:	41004800 	.word	0x41004800
   16a10:	41004000 	.word	0x41004000
   16a14:	00018b91 	.word	0x00018b91
   16a18:	000185f1 	.word	0x000185f1

00016a1c <HardFault_HandlerC>:
   16a1c:	b08e      	sub	sp, #56	; 0x38
   16a1e:	6803      	ldr	r3, [r0, #0]
   16a20:	930d      	str	r3, [sp, #52]	; 0x34
   16a22:	6843      	ldr	r3, [r0, #4]
   16a24:	930c      	str	r3, [sp, #48]	; 0x30
   16a26:	6883      	ldr	r3, [r0, #8]
   16a28:	930b      	str	r3, [sp, #44]	; 0x2c
   16a2a:	68c3      	ldr	r3, [r0, #12]
   16a2c:	930a      	str	r3, [sp, #40]	; 0x28
   16a2e:	6903      	ldr	r3, [r0, #16]
   16a30:	9309      	str	r3, [sp, #36]	; 0x24
   16a32:	6943      	ldr	r3, [r0, #20]
   16a34:	9308      	str	r3, [sp, #32]
   16a36:	6983      	ldr	r3, [r0, #24]
   16a38:	9307      	str	r3, [sp, #28]
   16a3a:	69c3      	ldr	r3, [r0, #28]
   16a3c:	9306      	str	r3, [sp, #24]
   16a3e:	4b0a      	ldr	r3, [pc, #40]	; (16a68 <HardFault_HandlerC+0x4c>)
   16a40:	681b      	ldr	r3, [r3, #0]
   16a42:	9305      	str	r3, [sp, #20]
   16a44:	4b09      	ldr	r3, [pc, #36]	; (16a6c <HardFault_HandlerC+0x50>)
   16a46:	681b      	ldr	r3, [r3, #0]
   16a48:	9304      	str	r3, [sp, #16]
   16a4a:	4b09      	ldr	r3, [pc, #36]	; (16a70 <HardFault_HandlerC+0x54>)
   16a4c:	681b      	ldr	r3, [r3, #0]
   16a4e:	9303      	str	r3, [sp, #12]
   16a50:	4b08      	ldr	r3, [pc, #32]	; (16a74 <HardFault_HandlerC+0x58>)
   16a52:	681b      	ldr	r3, [r3, #0]
   16a54:	9302      	str	r3, [sp, #8]
   16a56:	4b08      	ldr	r3, [pc, #32]	; (16a78 <HardFault_HandlerC+0x5c>)
   16a58:	681b      	ldr	r3, [r3, #0]
   16a5a:	9300      	str	r3, [sp, #0]
   16a5c:	4b07      	ldr	r3, [pc, #28]	; (16a7c <HardFault_HandlerC+0x60>)
   16a5e:	681b      	ldr	r3, [r3, #0]
   16a60:	9301      	str	r3, [sp, #4]
   16a62:	be00      	bkpt	0x0000
   16a64:	b00e      	add	sp, #56	; 0x38
   16a66:	4770      	bx	lr
   16a68:	e000ed28 	.word	0xe000ed28
   16a6c:	e000ed2c 	.word	0xe000ed2c
   16a70:	e000ed30 	.word	0xe000ed30
   16a74:	e000ed3c 	.word	0xe000ed3c
   16a78:	e000ed34 	.word	0xe000ed34
   16a7c:	e000ed38 	.word	0xe000ed38

00016a80 <_sbrk>:
   16a80:	0003      	movs	r3, r0
   16a82:	4a06      	ldr	r2, [pc, #24]	; (16a9c <_sbrk+0x1c>)
   16a84:	6812      	ldr	r2, [r2, #0]
   16a86:	2a00      	cmp	r2, #0
   16a88:	d004      	beq.n	16a94 <_sbrk+0x14>
   16a8a:	4a04      	ldr	r2, [pc, #16]	; (16a9c <_sbrk+0x1c>)
   16a8c:	6810      	ldr	r0, [r2, #0]
   16a8e:	18c3      	adds	r3, r0, r3
   16a90:	6013      	str	r3, [r2, #0]
   16a92:	4770      	bx	lr
   16a94:	4902      	ldr	r1, [pc, #8]	; (16aa0 <_sbrk+0x20>)
   16a96:	4a01      	ldr	r2, [pc, #4]	; (16a9c <_sbrk+0x1c>)
   16a98:	6011      	str	r1, [r2, #0]
   16a9a:	e7f6      	b.n	16a8a <_sbrk+0xa>
   16a9c:	20002be0 	.word	0x20002be0
   16aa0:	200051d0 	.word	0x200051d0

00016aa4 <disk_initialize>:
   16aa4:	b530      	push	{r4, r5, lr}
   16aa6:	b087      	sub	sp, #28
   16aa8:	0004      	movs	r4, r0
   16aaa:	aa01      	add	r2, sp, #4
   16aac:	23a0      	movs	r3, #160	; 0xa0
   16aae:	011b      	lsls	r3, r3, #4
   16ab0:	8013      	strh	r3, [r2, #0]
   16ab2:	2300      	movs	r3, #0
   16ab4:	7093      	strb	r3, [r2, #2]
   16ab6:	70d3      	strb	r3, [r2, #3]
   16ab8:	21fa      	movs	r1, #250	; 0xfa
   16aba:	00c9      	lsls	r1, r1, #3
   16abc:	80d1      	strh	r1, [r2, #6]
   16abe:	2101      	movs	r1, #1
   16ac0:	7111      	strb	r1, [r2, #4]
   16ac2:	2004      	movs	r0, #4
   16ac4:	7210      	strb	r0, [r2, #8]
   16ac6:	7253      	strb	r3, [r2, #9]
   16ac8:	7293      	strb	r3, [r2, #10]
   16aca:	72d3      	strb	r3, [r2, #11]
   16acc:	7311      	strb	r1, [r2, #12]
   16ace:	7351      	strb	r1, [r2, #13]
   16ad0:	4b14      	ldr	r3, [pc, #80]	; (16b24 <disk_initialize+0x80>)
   16ad2:	81d3      	strh	r3, [r2, #14]
   16ad4:	2306      	movs	r3, #6
   16ad6:	7413      	strb	r3, [r2, #16]
   16ad8:	4d13      	ldr	r5, [pc, #76]	; (16b28 <disk_initialize+0x84>)
   16ada:	4914      	ldr	r1, [pc, #80]	; (16b2c <disk_initialize+0x88>)
   16adc:	0028      	movs	r0, r5
   16ade:	4b14      	ldr	r3, [pc, #80]	; (16b30 <disk_initialize+0x8c>)
   16ae0:	4798      	blx	r3
   16ae2:	0028      	movs	r0, r5
   16ae4:	4b13      	ldr	r3, [pc, #76]	; (16b34 <disk_initialize+0x90>)
   16ae6:	4798      	blx	r3
   16ae8:	2001      	movs	r0, #1
   16aea:	2c01      	cmp	r4, #1
   16aec:	d901      	bls.n	16af2 <disk_initialize+0x4e>
   16aee:	b007      	add	sp, #28
   16af0:	bd30      	pop	{r4, r5, pc}
   16af2:	0020      	movs	r0, r4
   16af4:	4b10      	ldr	r3, [pc, #64]	; (16b38 <disk_initialize+0x94>)
   16af6:	4798      	blx	r3
   16af8:	0003      	movs	r3, r0
   16afa:	2803      	cmp	r0, #3
   16afc:	d106      	bne.n	16b0c <disk_initialize+0x68>
   16afe:	0020      	movs	r0, r4
   16b00:	4b0d      	ldr	r3, [pc, #52]	; (16b38 <disk_initialize+0x94>)
   16b02:	4798      	blx	r3
   16b04:	0003      	movs	r3, r0
   16b06:	2001      	movs	r0, #1
   16b08:	2b03      	cmp	r3, #3
   16b0a:	d0f0      	beq.n	16aee <disk_initialize+0x4a>
   16b0c:	2b00      	cmp	r3, #0
   16b0e:	d106      	bne.n	16b1e <disk_initialize+0x7a>
   16b10:	0020      	movs	r0, r4
   16b12:	4b0a      	ldr	r3, [pc, #40]	; (16b3c <disk_initialize+0x98>)
   16b14:	4798      	blx	r3
   16b16:	1e43      	subs	r3, r0, #1
   16b18:	4198      	sbcs	r0, r3
   16b1a:	0080      	lsls	r0, r0, #2
   16b1c:	e7e7      	b.n	16aee <disk_initialize+0x4a>
   16b1e:	2001      	movs	r0, #1
   16b20:	e7e5      	b.n	16aee <disk_initialize+0x4a>
   16b22:	46c0      	nop			; (mov r8, r8)
   16b24:	000007de 	.word	0x000007de
   16b28:	20003150 	.word	0x20003150
   16b2c:	40001400 	.word	0x40001400
   16b30:	00014fb1 	.word	0x00014fb1
   16b34:	00014e4d 	.word	0x00014e4d
   16b38:	00014c15 	.word	0x00014c15
   16b3c:	00014c51 	.word	0x00014c51

00016b40 <disk_status>:
   16b40:	b510      	push	{r4, lr}
   16b42:	4b05      	ldr	r3, [pc, #20]	; (16b58 <disk_status+0x18>)
   16b44:	4798      	blx	r3
   16b46:	1e03      	subs	r3, r0, #0
   16b48:	d004      	beq.n	16b54 <disk_status+0x14>
   16b4a:	2003      	movs	r0, #3
   16b4c:	2b02      	cmp	r3, #2
   16b4e:	d000      	beq.n	16b52 <disk_status+0x12>
   16b50:	3802      	subs	r0, #2
   16b52:	bd10      	pop	{r4, pc}
   16b54:	2000      	movs	r0, #0
   16b56:	e7fc      	b.n	16b52 <disk_status+0x12>
   16b58:	00014c15 	.word	0x00014c15

00016b5c <disk_read>:
   16b5c:	b5f0      	push	{r4, r5, r6, r7, lr}
   16b5e:	46de      	mov	lr, fp
   16b60:	464f      	mov	r7, r9
   16b62:	4646      	mov	r6, r8
   16b64:	b5c0      	push	{r6, r7, lr}
   16b66:	b084      	sub	sp, #16
   16b68:	9001      	str	r0, [sp, #4]
   16b6a:	000d      	movs	r5, r1
   16b6c:	0014      	movs	r4, r2
   16b6e:	001f      	movs	r7, r3
   16b70:	4b18      	ldr	r3, [pc, #96]	; (16bd4 <disk_read+0x78>)
   16b72:	4798      	blx	r3
   16b74:	0006      	movs	r6, r0
   16b76:	2001      	movs	r0, #1
   16b78:	2e00      	cmp	r6, #0
   16b7a:	d105      	bne.n	16b88 <disk_read+0x2c>
   16b7c:	b004      	add	sp, #16
   16b7e:	bc1c      	pop	{r2, r3, r4}
   16b80:	4690      	mov	r8, r2
   16b82:	4699      	mov	r9, r3
   16b84:	46a3      	mov	fp, r4
   16b86:	bdf0      	pop	{r4, r5, r6, r7, pc}
   16b88:	a903      	add	r1, sp, #12
   16b8a:	9801      	ldr	r0, [sp, #4]
   16b8c:	4b12      	ldr	r3, [pc, #72]	; (16bd8 <disk_read+0x7c>)
   16b8e:	4798      	blx	r3
   16b90:	46b1      	mov	r9, r6
   16b92:	0032      	movs	r2, r6
   16b94:	437a      	muls	r2, r7
   16b96:	1912      	adds	r2, r2, r4
   16b98:	9b03      	ldr	r3, [sp, #12]
   16b9a:	3301      	adds	r3, #1
   16b9c:	4373      	muls	r3, r6
   16b9e:	2004      	movs	r0, #4
   16ba0:	429a      	cmp	r2, r3
   16ba2:	d8eb      	bhi.n	16b7c <disk_read+0x20>
   16ba4:	2f00      	cmp	r7, #0
   16ba6:	d011      	beq.n	16bcc <disk_read+0x70>
   16ba8:	0273      	lsls	r3, r6, #9
   16baa:	4698      	mov	r8, r3
   16bac:	1c7b      	adds	r3, r7, #1
   16bae:	469b      	mov	fp, r3
   16bb0:	2701      	movs	r7, #1
   16bb2:	4e0a      	ldr	r6, [pc, #40]	; (16bdc <disk_read+0x80>)
   16bb4:	002a      	movs	r2, r5
   16bb6:	0021      	movs	r1, r4
   16bb8:	9801      	ldr	r0, [sp, #4]
   16bba:	47b0      	blx	r6
   16bbc:	2800      	cmp	r0, #0
   16bbe:	d107      	bne.n	16bd0 <disk_read+0x74>
   16bc0:	3701      	adds	r7, #1
   16bc2:	444c      	add	r4, r9
   16bc4:	4445      	add	r5, r8
   16bc6:	455f      	cmp	r7, fp
   16bc8:	d1f4      	bne.n	16bb4 <disk_read+0x58>
   16bca:	e7d7      	b.n	16b7c <disk_read+0x20>
   16bcc:	2000      	movs	r0, #0
   16bce:	e7d5      	b.n	16b7c <disk_read+0x20>
   16bd0:	2001      	movs	r0, #1
   16bd2:	e7d3      	b.n	16b7c <disk_read+0x20>
   16bd4:	00014c49 	.word	0x00014c49
   16bd8:	00014c2d 	.word	0x00014c2d
   16bdc:	00014c69 	.word	0x00014c69

00016be0 <disk_write>:
   16be0:	b5f0      	push	{r4, r5, r6, r7, lr}
   16be2:	46de      	mov	lr, fp
   16be4:	464f      	mov	r7, r9
   16be6:	4646      	mov	r6, r8
   16be8:	b5c0      	push	{r6, r7, lr}
   16bea:	b084      	sub	sp, #16
   16bec:	9001      	str	r0, [sp, #4]
   16bee:	000d      	movs	r5, r1
   16bf0:	0014      	movs	r4, r2
   16bf2:	001f      	movs	r7, r3
   16bf4:	4b18      	ldr	r3, [pc, #96]	; (16c58 <disk_write+0x78>)
   16bf6:	4798      	blx	r3
   16bf8:	0006      	movs	r6, r0
   16bfa:	2001      	movs	r0, #1
   16bfc:	2e00      	cmp	r6, #0
   16bfe:	d105      	bne.n	16c0c <disk_write+0x2c>
   16c00:	b004      	add	sp, #16
   16c02:	bc1c      	pop	{r2, r3, r4}
   16c04:	4690      	mov	r8, r2
   16c06:	4699      	mov	r9, r3
   16c08:	46a3      	mov	fp, r4
   16c0a:	bdf0      	pop	{r4, r5, r6, r7, pc}
   16c0c:	a903      	add	r1, sp, #12
   16c0e:	9801      	ldr	r0, [sp, #4]
   16c10:	4b12      	ldr	r3, [pc, #72]	; (16c5c <disk_write+0x7c>)
   16c12:	4798      	blx	r3
   16c14:	46b1      	mov	r9, r6
   16c16:	0032      	movs	r2, r6
   16c18:	437a      	muls	r2, r7
   16c1a:	1912      	adds	r2, r2, r4
   16c1c:	9b03      	ldr	r3, [sp, #12]
   16c1e:	3301      	adds	r3, #1
   16c20:	4373      	muls	r3, r6
   16c22:	2004      	movs	r0, #4
   16c24:	429a      	cmp	r2, r3
   16c26:	d8eb      	bhi.n	16c00 <disk_write+0x20>
   16c28:	2f00      	cmp	r7, #0
   16c2a:	d011      	beq.n	16c50 <disk_write+0x70>
   16c2c:	0273      	lsls	r3, r6, #9
   16c2e:	4698      	mov	r8, r3
   16c30:	1c7b      	adds	r3, r7, #1
   16c32:	469b      	mov	fp, r3
   16c34:	2701      	movs	r7, #1
   16c36:	4e0a      	ldr	r6, [pc, #40]	; (16c60 <disk_write+0x80>)
   16c38:	002a      	movs	r2, r5
   16c3a:	0021      	movs	r1, r4
   16c3c:	9801      	ldr	r0, [sp, #4]
   16c3e:	47b0      	blx	r6
   16c40:	2800      	cmp	r0, #0
   16c42:	d107      	bne.n	16c54 <disk_write+0x74>
   16c44:	3701      	adds	r7, #1
   16c46:	444c      	add	r4, r9
   16c48:	4445      	add	r5, r8
   16c4a:	455f      	cmp	r7, fp
   16c4c:	d1f4      	bne.n	16c38 <disk_write+0x58>
   16c4e:	e7d7      	b.n	16c00 <disk_write+0x20>
   16c50:	2000      	movs	r0, #0
   16c52:	e7d5      	b.n	16c00 <disk_write+0x20>
   16c54:	2001      	movs	r0, #1
   16c56:	e7d3      	b.n	16c00 <disk_write+0x20>
   16c58:	00014c49 	.word	0x00014c49
   16c5c:	00014c2d 	.word	0x00014c2d
   16c60:	00014c89 	.word	0x00014c89

00016c64 <disk_ioctl>:
   16c64:	b510      	push	{r4, lr}
   16c66:	b082      	sub	sp, #8
   16c68:	0014      	movs	r4, r2
   16c6a:	2901      	cmp	r1, #1
   16c6c:	d00b      	beq.n	16c86 <disk_ioctl+0x22>
   16c6e:	2900      	cmp	r1, #0
   16c70:	d020      	beq.n	16cb4 <disk_ioctl+0x50>
   16c72:	2902      	cmp	r1, #2
   16c74:	d00f      	beq.n	16c96 <disk_ioctl+0x32>
   16c76:	2004      	movs	r0, #4
   16c78:	2903      	cmp	r1, #3
   16c7a:	d102      	bne.n	16c82 <disk_ioctl+0x1e>
   16c7c:	2301      	movs	r3, #1
   16c7e:	6013      	str	r3, [r2, #0]
   16c80:	2000      	movs	r0, #0
   16c82:	b002      	add	sp, #8
   16c84:	bd10      	pop	{r4, pc}
   16c86:	a901      	add	r1, sp, #4
   16c88:	4b0e      	ldr	r3, [pc, #56]	; (16cc4 <disk_ioctl+0x60>)
   16c8a:	4798      	blx	r3
   16c8c:	9b01      	ldr	r3, [sp, #4]
   16c8e:	3301      	adds	r3, #1
   16c90:	6023      	str	r3, [r4, #0]
   16c92:	2000      	movs	r0, #0
   16c94:	e7f5      	b.n	16c82 <disk_ioctl+0x1e>
   16c96:	4b0c      	ldr	r3, [pc, #48]	; (16cc8 <disk_ioctl+0x64>)
   16c98:	4798      	blx	r3
   16c9a:	1e43      	subs	r3, r0, #1
   16c9c:	b2db      	uxtb	r3, r3
   16c9e:	2b01      	cmp	r3, #1
   16ca0:	d904      	bls.n	16cac <disk_ioctl+0x48>
   16ca2:	1f03      	subs	r3, r0, #4
   16ca4:	22fb      	movs	r2, #251	; 0xfb
   16ca6:	2001      	movs	r0, #1
   16ca8:	4213      	tst	r3, r2
   16caa:	d1ea      	bne.n	16c82 <disk_ioctl+0x1e>
   16cac:	2300      	movs	r3, #0
   16cae:	7023      	strb	r3, [r4, #0]
   16cb0:	2000      	movs	r0, #0
   16cb2:	e7e6      	b.n	16c82 <disk_ioctl+0x1e>
   16cb4:	4b05      	ldr	r3, [pc, #20]	; (16ccc <disk_ioctl+0x68>)
   16cb6:	4798      	blx	r3
   16cb8:	2800      	cmp	r0, #0
   16cba:	d001      	beq.n	16cc0 <disk_ioctl+0x5c>
   16cbc:	2003      	movs	r0, #3
   16cbe:	e7e0      	b.n	16c82 <disk_ioctl+0x1e>
   16cc0:	2000      	movs	r0, #0
   16cc2:	e7de      	b.n	16c82 <disk_ioctl+0x1e>
   16cc4:	00014c2d 	.word	0x00014c2d
   16cc8:	00014c49 	.word	0x00014c49
   16ccc:	00014c15 	.word	0x00014c15

00016cd0 <get_fattime>:
   16cd0:	b500      	push	{lr}
   16cd2:	b083      	sub	sp, #12
   16cd4:	4669      	mov	r1, sp
   16cd6:	480f      	ldr	r0, [pc, #60]	; (16d14 <get_fattime+0x44>)
   16cd8:	4b0f      	ldr	r3, [pc, #60]	; (16d18 <get_fattime+0x48>)
   16cda:	4798      	blx	r3
   16cdc:	466b      	mov	r3, sp
   16cde:	7958      	ldrb	r0, [r3, #5]
   16ce0:	0540      	lsls	r0, r0, #21
   16ce2:	791b      	ldrb	r3, [r3, #4]
   16ce4:	041b      	lsls	r3, r3, #16
   16ce6:	4318      	orrs	r0, r3
   16ce8:	466b      	mov	r3, sp
   16cea:	789b      	ldrb	r3, [r3, #2]
   16cec:	02db      	lsls	r3, r3, #11
   16cee:	4318      	orrs	r0, r3
   16cf0:	466b      	mov	r3, sp
   16cf2:	785b      	ldrb	r3, [r3, #1]
   16cf4:	015b      	lsls	r3, r3, #5
   16cf6:	4318      	orrs	r0, r3
   16cf8:	466b      	mov	r3, sp
   16cfa:	781b      	ldrb	r3, [r3, #0]
   16cfc:	085b      	lsrs	r3, r3, #1
   16cfe:	4318      	orrs	r0, r3
   16d00:	466b      	mov	r3, sp
   16d02:	88db      	ldrh	r3, [r3, #6]
   16d04:	4a05      	ldr	r2, [pc, #20]	; (16d1c <get_fattime+0x4c>)
   16d06:	4694      	mov	ip, r2
   16d08:	4463      	add	r3, ip
   16d0a:	065b      	lsls	r3, r3, #25
   16d0c:	4318      	orrs	r0, r3
   16d0e:	b003      	add	sp, #12
   16d10:	bd00      	pop	{pc}
   16d12:	46c0      	nop			; (mov r8, r8)
   16d14:	20003150 	.word	0x20003150
   16d18:	00014f39 	.word	0x00014f39
   16d1c:	fffff844 	.word	0xfffff844

00016d20 <mem_cpy>:
   16d20:	b510      	push	{r4, lr}
   16d22:	2a00      	cmp	r2, #0
   16d24:	d005      	beq.n	16d32 <mem_cpy+0x12>
   16d26:	2300      	movs	r3, #0
   16d28:	5ccc      	ldrb	r4, [r1, r3]
   16d2a:	54c4      	strb	r4, [r0, r3]
   16d2c:	3301      	adds	r3, #1
   16d2e:	4293      	cmp	r3, r2
   16d30:	d1fa      	bne.n	16d28 <mem_cpy+0x8>
   16d32:	bd10      	pop	{r4, pc}

00016d34 <mem_set>:
   16d34:	2a00      	cmp	r2, #0
   16d36:	d005      	beq.n	16d44 <mem_set+0x10>
   16d38:	0003      	movs	r3, r0
   16d3a:	1882      	adds	r2, r0, r2
   16d3c:	7019      	strb	r1, [r3, #0]
   16d3e:	3301      	adds	r3, #1
   16d40:	4293      	cmp	r3, r2
   16d42:	d1fb      	bne.n	16d3c <mem_set+0x8>
   16d44:	4770      	bx	lr

00016d46 <clust2sect>:
   16d46:	0002      	movs	r2, r0
   16d48:	3902      	subs	r1, #2
   16d4a:	6983      	ldr	r3, [r0, #24]
   16d4c:	3b02      	subs	r3, #2
   16d4e:	2000      	movs	r0, #0
   16d50:	4299      	cmp	r1, r3
   16d52:	d203      	bcs.n	16d5c <clust2sect+0x16>
   16d54:	7890      	ldrb	r0, [r2, #2]
   16d56:	4341      	muls	r1, r0
   16d58:	6a90      	ldr	r0, [r2, #40]	; 0x28
   16d5a:	1808      	adds	r0, r1, r0
   16d5c:	4770      	bx	lr

00016d5e <sum_sfn>:
   16d5e:	0002      	movs	r2, r0
   16d60:	0001      	movs	r1, r0
   16d62:	310b      	adds	r1, #11
   16d64:	2000      	movs	r0, #0
   16d66:	0843      	lsrs	r3, r0, #1
   16d68:	01c0      	lsls	r0, r0, #7
   16d6a:	4303      	orrs	r3, r0
   16d6c:	7810      	ldrb	r0, [r2, #0]
   16d6e:	1818      	adds	r0, r3, r0
   16d70:	b2c0      	uxtb	r0, r0
   16d72:	3201      	adds	r2, #1
   16d74:	428a      	cmp	r2, r1
   16d76:	d1f6      	bne.n	16d66 <sum_sfn+0x8>
   16d78:	4770      	bx	lr
	...

00016d7c <validate>:
   16d7c:	b510      	push	{r4, lr}
   16d7e:	2800      	cmp	r0, #0
   16d80:	d010      	beq.n	16da4 <validate+0x28>
   16d82:	7802      	ldrb	r2, [r0, #0]
   16d84:	2309      	movs	r3, #9
   16d86:	2a00      	cmp	r2, #0
   16d88:	d101      	bne.n	16d8e <validate+0x12>
   16d8a:	0018      	movs	r0, r3
   16d8c:	bd10      	pop	{r4, pc}
   16d8e:	88c2      	ldrh	r2, [r0, #6]
   16d90:	428a      	cmp	r2, r1
   16d92:	d1fa      	bne.n	16d8a <validate+0xe>
   16d94:	7840      	ldrb	r0, [r0, #1]
   16d96:	4b04      	ldr	r3, [pc, #16]	; (16da8 <validate+0x2c>)
   16d98:	4798      	blx	r3
   16d9a:	2303      	movs	r3, #3
   16d9c:	07c0      	lsls	r0, r0, #31
   16d9e:	17c0      	asrs	r0, r0, #31
   16da0:	4003      	ands	r3, r0
   16da2:	e7f2      	b.n	16d8a <validate+0xe>
   16da4:	2309      	movs	r3, #9
   16da6:	e7f0      	b.n	16d8a <validate+0xe>
   16da8:	00016b41 	.word	0x00016b41

00016dac <check_fs>:
   16dac:	b570      	push	{r4, r5, r6, lr}
   16dae:	0004      	movs	r4, r0
   16db0:	000a      	movs	r2, r1
   16db2:	0001      	movs	r1, r0
   16db4:	3130      	adds	r1, #48	; 0x30
   16db6:	7840      	ldrb	r0, [r0, #1]
   16db8:	2301      	movs	r3, #1
   16dba:	4d1f      	ldr	r5, [pc, #124]	; (16e38 <check_fs+0x8c>)
   16dbc:	47a8      	blx	r5
   16dbe:	2303      	movs	r3, #3
   16dc0:	2800      	cmp	r0, #0
   16dc2:	d001      	beq.n	16dc8 <check_fs+0x1c>
   16dc4:	0018      	movs	r0, r3
   16dc6:	bd70      	pop	{r4, r5, r6, pc}
   16dc8:	4b1c      	ldr	r3, [pc, #112]	; (16e3c <check_fs+0x90>)
   16dca:	5ce3      	ldrb	r3, [r4, r3]
   16dcc:	021b      	lsls	r3, r3, #8
   16dce:	4a1c      	ldr	r2, [pc, #112]	; (16e40 <check_fs+0x94>)
   16dd0:	5ca2      	ldrb	r2, [r4, r2]
   16dd2:	431a      	orrs	r2, r3
   16dd4:	491b      	ldr	r1, [pc, #108]	; (16e44 <check_fs+0x98>)
   16dd6:	b212      	sxth	r2, r2
   16dd8:	2302      	movs	r3, #2
   16dda:	428a      	cmp	r2, r1
   16ddc:	d1f2      	bne.n	16dc4 <check_fs+0x18>
   16dde:	3367      	adds	r3, #103	; 0x67
   16de0:	5ce3      	ldrb	r3, [r4, r3]
   16de2:	061b      	lsls	r3, r3, #24
   16de4:	2268      	movs	r2, #104	; 0x68
   16de6:	5ca2      	ldrb	r2, [r4, r2]
   16de8:	0412      	lsls	r2, r2, #16
   16dea:	4313      	orrs	r3, r2
   16dec:	2266      	movs	r2, #102	; 0x66
   16dee:	5ca2      	ldrb	r2, [r4, r2]
   16df0:	4313      	orrs	r3, r2
   16df2:	2267      	movs	r2, #103	; 0x67
   16df4:	5ca2      	ldrb	r2, [r4, r2]
   16df6:	0212      	lsls	r2, r2, #8
   16df8:	4313      	orrs	r3, r2
   16dfa:	021b      	lsls	r3, r3, #8
   16dfc:	0a1b      	lsrs	r3, r3, #8
   16dfe:	4a12      	ldr	r2, [pc, #72]	; (16e48 <check_fs+0x9c>)
   16e00:	4293      	cmp	r3, r2
   16e02:	d016      	beq.n	16e32 <check_fs+0x86>
   16e04:	2385      	movs	r3, #133	; 0x85
   16e06:	5ce3      	ldrb	r3, [r4, r3]
   16e08:	061b      	lsls	r3, r3, #24
   16e0a:	2284      	movs	r2, #132	; 0x84
   16e0c:	5ca2      	ldrb	r2, [r4, r2]
   16e0e:	0412      	lsls	r2, r2, #16
   16e10:	4313      	orrs	r3, r2
   16e12:	2282      	movs	r2, #130	; 0x82
   16e14:	5ca2      	ldrb	r2, [r4, r2]
   16e16:	4313      	orrs	r3, r2
   16e18:	2283      	movs	r2, #131	; 0x83
   16e1a:	5ca2      	ldrb	r2, [r4, r2]
   16e1c:	0212      	lsls	r2, r2, #8
   16e1e:	4313      	orrs	r3, r2
   16e20:	021b      	lsls	r3, r3, #8
   16e22:	0a1b      	lsrs	r3, r3, #8
   16e24:	4a09      	ldr	r2, [pc, #36]	; (16e4c <check_fs+0xa0>)
   16e26:	4694      	mov	ip, r2
   16e28:	4463      	add	r3, ip
   16e2a:	1e58      	subs	r0, r3, #1
   16e2c:	4183      	sbcs	r3, r0
   16e2e:	b2db      	uxtb	r3, r3
   16e30:	e7c8      	b.n	16dc4 <check_fs+0x18>
   16e32:	2300      	movs	r3, #0
   16e34:	e7c6      	b.n	16dc4 <check_fs+0x18>
   16e36:	46c0      	nop			; (mov r8, r8)
   16e38:	00016b5d 	.word	0x00016b5d
   16e3c:	0000022f 	.word	0x0000022f
   16e40:	0000022e 	.word	0x0000022e
   16e44:	ffffaa55 	.word	0xffffaa55
   16e48:	00544146 	.word	0x00544146
   16e4c:	ffabbeba 	.word	0xffabbeba

00016e50 <chk_mounted>:
   16e50:	b5f0      	push	{r4, r5, r6, r7, lr}
   16e52:	46d6      	mov	lr, sl
   16e54:	464f      	mov	r7, r9
   16e56:	4646      	mov	r6, r8
   16e58:	b5c0      	push	{r6, r7, lr}
   16e5a:	0015      	movs	r5, r2
   16e5c:	6803      	ldr	r3, [r0, #0]
   16e5e:	781c      	ldrb	r4, [r3, #0]
   16e60:	3c30      	subs	r4, #48	; 0x30
   16e62:	2c09      	cmp	r4, #9
   16e64:	d80e      	bhi.n	16e84 <chk_mounted+0x34>
   16e66:	785a      	ldrb	r2, [r3, #1]
   16e68:	2a3a      	cmp	r2, #58	; 0x3a
   16e6a:	d001      	beq.n	16e70 <chk_mounted+0x20>
   16e6c:	2400      	movs	r4, #0
   16e6e:	e00a      	b.n	16e86 <chk_mounted+0x36>
   16e70:	3302      	adds	r3, #2
   16e72:	6003      	str	r3, [r0, #0]
   16e74:	200b      	movs	r0, #11
   16e76:	2c07      	cmp	r4, #7
   16e78:	d905      	bls.n	16e86 <chk_mounted+0x36>
   16e7a:	bc1c      	pop	{r2, r3, r4}
   16e7c:	4690      	mov	r8, r2
   16e7e:	4699      	mov	r9, r3
   16e80:	46a2      	mov	sl, r4
   16e82:	bdf0      	pop	{r4, r5, r6, r7, pc}
   16e84:	2400      	movs	r4, #0
   16e86:	00a3      	lsls	r3, r4, #2
   16e88:	4ac5      	ldr	r2, [pc, #788]	; (171a0 <chk_mounted+0x350>)
   16e8a:	589e      	ldr	r6, [r3, r2]
   16e8c:	600e      	str	r6, [r1, #0]
   16e8e:	2e00      	cmp	r6, #0
   16e90:	d100      	bne.n	16e94 <chk_mounted+0x44>
   16e92:	e0e8      	b.n	17066 <chk_mounted+0x216>
   16e94:	7833      	ldrb	r3, [r6, #0]
   16e96:	2b00      	cmp	r3, #0
   16e98:	d00d      	beq.n	16eb6 <chk_mounted+0x66>
   16e9a:	7870      	ldrb	r0, [r6, #1]
   16e9c:	4bc1      	ldr	r3, [pc, #772]	; (171a4 <chk_mounted+0x354>)
   16e9e:	4798      	blx	r3
   16ea0:	0003      	movs	r3, r0
   16ea2:	07c2      	lsls	r2, r0, #31
   16ea4:	d407      	bmi.n	16eb6 <chk_mounted+0x66>
   16ea6:	2000      	movs	r0, #0
   16ea8:	2d00      	cmp	r5, #0
   16eaa:	d0e6      	beq.n	16e7a <chk_mounted+0x2a>
   16eac:	075b      	lsls	r3, r3, #29
   16eae:	d400      	bmi.n	16eb2 <chk_mounted+0x62>
   16eb0:	e0db      	b.n	1706a <chk_mounted+0x21a>
   16eb2:	300a      	adds	r0, #10
   16eb4:	e7e1      	b.n	16e7a <chk_mounted+0x2a>
   16eb6:	2300      	movs	r3, #0
   16eb8:	7033      	strb	r3, [r6, #0]
   16eba:	b2e0      	uxtb	r0, r4
   16ebc:	7070      	strb	r0, [r6, #1]
   16ebe:	4bba      	ldr	r3, [pc, #744]	; (171a8 <chk_mounted+0x358>)
   16ec0:	4798      	blx	r3
   16ec2:	0003      	movs	r3, r0
   16ec4:	2003      	movs	r0, #3
   16ec6:	07da      	lsls	r2, r3, #31
   16ec8:	d4d7      	bmi.n	16e7a <chk_mounted+0x2a>
   16eca:	2d00      	cmp	r5, #0
   16ecc:	d002      	beq.n	16ed4 <chk_mounted+0x84>
   16ece:	3007      	adds	r0, #7
   16ed0:	075b      	lsls	r3, r3, #29
   16ed2:	d4d2      	bmi.n	16e7a <chk_mounted+0x2a>
   16ed4:	2100      	movs	r1, #0
   16ed6:	0030      	movs	r0, r6
   16ed8:	4bb4      	ldr	r3, [pc, #720]	; (171ac <chk_mounted+0x35c>)
   16eda:	4798      	blx	r3
   16edc:	0003      	movs	r3, r0
   16ede:	2400      	movs	r4, #0
   16ee0:	2801      	cmp	r0, #1
   16ee2:	d100      	bne.n	16ee6 <chk_mounted+0x96>
   16ee4:	e09a      	b.n	1701c <chk_mounted+0x1cc>
   16ee6:	2b03      	cmp	r3, #3
   16ee8:	d100      	bne.n	16eec <chk_mounted+0x9c>
   16eea:	e0c0      	b.n	1706e <chk_mounted+0x21e>
   16eec:	200d      	movs	r0, #13
   16eee:	2b00      	cmp	r3, #0
   16ef0:	d1c3      	bne.n	16e7a <chk_mounted+0x2a>
   16ef2:	333c      	adds	r3, #60	; 0x3c
   16ef4:	5cf2      	ldrb	r2, [r6, r3]
   16ef6:	0212      	lsls	r2, r2, #8
   16ef8:	3b01      	subs	r3, #1
   16efa:	5cf3      	ldrb	r3, [r6, r3]
   16efc:	4313      	orrs	r3, r2
   16efe:	2280      	movs	r2, #128	; 0x80
   16f00:	0092      	lsls	r2, r2, #2
   16f02:	b21b      	sxth	r3, r3
   16f04:	4293      	cmp	r3, r2
   16f06:	d1b8      	bne.n	16e7a <chk_mounted+0x2a>
   16f08:	2347      	movs	r3, #71	; 0x47
   16f0a:	5cf3      	ldrb	r3, [r6, r3]
   16f0c:	021b      	lsls	r3, r3, #8
   16f0e:	3abb      	subs	r2, #187	; 0xbb
   16f10:	3aff      	subs	r2, #255	; 0xff
   16f12:	5cb5      	ldrb	r5, [r6, r2]
   16f14:	431d      	orrs	r5, r3
   16f16:	d10d      	bne.n	16f34 <chk_mounted+0xe4>
   16f18:	2357      	movs	r3, #87	; 0x57
   16f1a:	5cf5      	ldrb	r5, [r6, r3]
   16f1c:	062d      	lsls	r5, r5, #24
   16f1e:	3b01      	subs	r3, #1
   16f20:	5cf3      	ldrb	r3, [r6, r3]
   16f22:	041b      	lsls	r3, r3, #16
   16f24:	431d      	orrs	r5, r3
   16f26:	2354      	movs	r3, #84	; 0x54
   16f28:	5cf3      	ldrb	r3, [r6, r3]
   16f2a:	431d      	orrs	r5, r3
   16f2c:	2355      	movs	r3, #85	; 0x55
   16f2e:	5cf3      	ldrb	r3, [r6, r3]
   16f30:	021b      	lsls	r3, r3, #8
   16f32:	431d      	orrs	r5, r3
   16f34:	61f5      	str	r5, [r6, #28]
   16f36:	2340      	movs	r3, #64	; 0x40
   16f38:	5cf2      	ldrb	r2, [r6, r3]
   16f3a:	70f2      	strb	r2, [r6, #3]
   16f3c:	1e53      	subs	r3, r2, #1
   16f3e:	200d      	movs	r0, #13
   16f40:	2b01      	cmp	r3, #1
   16f42:	d89a      	bhi.n	16e7a <chk_mounted+0x2a>
   16f44:	233d      	movs	r3, #61	; 0x3d
   16f46:	5cf1      	ldrb	r1, [r6, r3]
   16f48:	70b1      	strb	r1, [r6, #2]
   16f4a:	2900      	cmp	r1, #0
   16f4c:	d095      	beq.n	16e7a <chk_mounted+0x2a>
   16f4e:	1e4b      	subs	r3, r1, #1
   16f50:	4219      	tst	r1, r3
   16f52:	d192      	bne.n	16e7a <chk_mounted+0x2a>
   16f54:	2342      	movs	r3, #66	; 0x42
   16f56:	5cf3      	ldrb	r3, [r6, r3]
   16f58:	021b      	lsls	r3, r3, #8
   16f5a:	3034      	adds	r0, #52	; 0x34
   16f5c:	5c30      	ldrb	r0, [r6, r0]
   16f5e:	4318      	orrs	r0, r3
   16f60:	4680      	mov	r8, r0
   16f62:	8130      	strh	r0, [r6, #8]
   16f64:	200d      	movs	r0, #13
   16f66:	4643      	mov	r3, r8
   16f68:	071b      	lsls	r3, r3, #28
   16f6a:	d000      	beq.n	16f6e <chk_mounted+0x11e>
   16f6c:	e785      	b.n	16e7a <chk_mounted+0x2a>
   16f6e:	2344      	movs	r3, #68	; 0x44
   16f70:	5cf3      	ldrb	r3, [r6, r3]
   16f72:	021b      	lsls	r3, r3, #8
   16f74:	3036      	adds	r0, #54	; 0x36
   16f76:	5c30      	ldrb	r0, [r6, r0]
   16f78:	4303      	orrs	r3, r0
   16f7a:	d10d      	bne.n	16f98 <chk_mounted+0x148>
   16f7c:	3353      	adds	r3, #83	; 0x53
   16f7e:	5cf3      	ldrb	r3, [r6, r3]
   16f80:	061b      	lsls	r3, r3, #24
   16f82:	2052      	movs	r0, #82	; 0x52
   16f84:	5c30      	ldrb	r0, [r6, r0]
   16f86:	0400      	lsls	r0, r0, #16
   16f88:	4303      	orrs	r3, r0
   16f8a:	2050      	movs	r0, #80	; 0x50
   16f8c:	5c30      	ldrb	r0, [r6, r0]
   16f8e:	4303      	orrs	r3, r0
   16f90:	2051      	movs	r0, #81	; 0x51
   16f92:	5c30      	ldrb	r0, [r6, r0]
   16f94:	0200      	lsls	r0, r0, #8
   16f96:	4303      	orrs	r3, r0
   16f98:	203f      	movs	r0, #63	; 0x3f
   16f9a:	5c30      	ldrb	r0, [r6, r0]
   16f9c:	0200      	lsls	r0, r0, #8
   16f9e:	273e      	movs	r7, #62	; 0x3e
   16fa0:	5df7      	ldrb	r7, [r6, r7]
   16fa2:	4307      	orrs	r7, r0
   16fa4:	46ba      	mov	sl, r7
   16fa6:	200d      	movs	r0, #13
   16fa8:	2f00      	cmp	r7, #0
   16faa:	d100      	bne.n	16fae <chk_mounted+0x15e>
   16fac:	e765      	b.n	16e7a <chk_mounted+0x2a>
   16fae:	436a      	muls	r2, r5
   16fb0:	4691      	mov	r9, r2
   16fb2:	4642      	mov	r2, r8
   16fb4:	0917      	lsrs	r7, r2, #4
   16fb6:	4457      	add	r7, sl
   16fb8:	444f      	add	r7, r9
   16fba:	42bb      	cmp	r3, r7
   16fbc:	d200      	bcs.n	16fc0 <chk_mounted+0x170>
   16fbe:	e75c      	b.n	16e7a <chk_mounted+0x2a>
   16fc0:	1bd8      	subs	r0, r3, r7
   16fc2:	4b7b      	ldr	r3, [pc, #492]	; (171b0 <chk_mounted+0x360>)
   16fc4:	4798      	blx	r3
   16fc6:	0003      	movs	r3, r0
   16fc8:	200d      	movs	r0, #13
   16fca:	2b00      	cmp	r3, #0
   16fcc:	d100      	bne.n	16fd0 <chk_mounted+0x180>
   16fce:	e754      	b.n	16e7a <chk_mounted+0x2a>
   16fd0:	4a78      	ldr	r2, [pc, #480]	; (171b4 <chk_mounted+0x364>)
   16fd2:	429a      	cmp	r2, r3
   16fd4:	4192      	sbcs	r2, r2
   16fd6:	4252      	negs	r2, r2
   16fd8:	3201      	adds	r2, #1
   16fda:	4977      	ldr	r1, [pc, #476]	; (171b8 <chk_mounted+0x368>)
   16fdc:	428b      	cmp	r3, r1
   16fde:	d848      	bhi.n	17072 <chk_mounted+0x222>
   16fe0:	3302      	adds	r3, #2
   16fe2:	61b3      	str	r3, [r6, #24]
   16fe4:	19e7      	adds	r7, r4, r7
   16fe6:	62b7      	str	r7, [r6, #40]	; 0x28
   16fe8:	4454      	add	r4, sl
   16fea:	6234      	str	r4, [r6, #32]
   16fec:	200d      	movs	r0, #13
   16fee:	4641      	mov	r1, r8
   16ff0:	2900      	cmp	r1, #0
   16ff2:	d100      	bne.n	16ff6 <chk_mounted+0x1a6>
   16ff4:	e741      	b.n	16e7a <chk_mounted+0x2a>
   16ff6:	444c      	add	r4, r9
   16ff8:	6274      	str	r4, [r6, #36]	; 0x24
   16ffa:	2a02      	cmp	r2, #2
   16ffc:	d12c      	bne.n	17058 <chk_mounted+0x208>
   16ffe:	005b      	lsls	r3, r3, #1
   17000:	496e      	ldr	r1, [pc, #440]	; (171bc <chk_mounted+0x36c>)
   17002:	468c      	mov	ip, r1
   17004:	4463      	add	r3, ip
   17006:	0a5b      	lsrs	r3, r3, #9
   17008:	200d      	movs	r0, #13
   1700a:	429d      	cmp	r5, r3
   1700c:	d200      	bcs.n	17010 <chk_mounted+0x1c0>
   1700e:	e734      	b.n	16e7a <chk_mounted+0x2a>
   17010:	2301      	movs	r3, #1
   17012:	425b      	negs	r3, r3
   17014:	6133      	str	r3, [r6, #16]
   17016:	2300      	movs	r3, #0
   17018:	60f3      	str	r3, [r6, #12]
   1701a:	e0b6      	b.n	1718a <chk_mounted+0x33a>
   1701c:	33f2      	adds	r3, #242	; 0xf2
   1701e:	33ff      	adds	r3, #255	; 0xff
   17020:	5cf3      	ldrb	r3, [r6, r3]
   17022:	200d      	movs	r0, #13
   17024:	2b00      	cmp	r3, #0
   17026:	d100      	bne.n	1702a <chk_mounted+0x1da>
   17028:	e727      	b.n	16e7a <chk_mounted+0x2a>
   1702a:	23fa      	movs	r3, #250	; 0xfa
   1702c:	33ff      	adds	r3, #255	; 0xff
   1702e:	5cf4      	ldrb	r4, [r6, r3]
   17030:	0624      	lsls	r4, r4, #24
   17032:	3b01      	subs	r3, #1
   17034:	5cf3      	ldrb	r3, [r6, r3]
   17036:	041b      	lsls	r3, r3, #16
   17038:	431c      	orrs	r4, r3
   1703a:	23fb      	movs	r3, #251	; 0xfb
   1703c:	005b      	lsls	r3, r3, #1
   1703e:	5cf3      	ldrb	r3, [r6, r3]
   17040:	431c      	orrs	r4, r3
   17042:	23f8      	movs	r3, #248	; 0xf8
   17044:	33ff      	adds	r3, #255	; 0xff
   17046:	5cf2      	ldrb	r2, [r6, r3]
   17048:	0212      	lsls	r2, r2, #8
   1704a:	4314      	orrs	r4, r2
   1704c:	0021      	movs	r1, r4
   1704e:	0030      	movs	r0, r6
   17050:	4b56      	ldr	r3, [pc, #344]	; (171ac <chk_mounted+0x35c>)
   17052:	4798      	blx	r3
   17054:	0003      	movs	r3, r0
   17056:	e746      	b.n	16ee6 <chk_mounted+0x96>
   17058:	2103      	movs	r1, #3
   1705a:	4359      	muls	r1, r3
   1705c:	0849      	lsrs	r1, r1, #1
   1705e:	2001      	movs	r0, #1
   17060:	4003      	ands	r3, r0
   17062:	18cb      	adds	r3, r1, r3
   17064:	e7cc      	b.n	17000 <chk_mounted+0x1b0>
   17066:	200c      	movs	r0, #12
   17068:	e707      	b.n	16e7a <chk_mounted+0x2a>
   1706a:	2000      	movs	r0, #0
   1706c:	e705      	b.n	16e7a <chk_mounted+0x2a>
   1706e:	2001      	movs	r0, #1
   17070:	e703      	b.n	16e7a <chk_mounted+0x2a>
   17072:	3302      	adds	r3, #2
   17074:	61b3      	str	r3, [r6, #24]
   17076:	19e7      	adds	r7, r4, r7
   17078:	62b7      	str	r7, [r6, #40]	; 0x28
   1707a:	4652      	mov	r2, sl
   1707c:	18a2      	adds	r2, r4, r2
   1707e:	6232      	str	r2, [r6, #32]
   17080:	200d      	movs	r0, #13
   17082:	4642      	mov	r2, r8
   17084:	2a00      	cmp	r2, #0
   17086:	d000      	beq.n	1708a <chk_mounted+0x23a>
   17088:	e6f7      	b.n	16e7a <chk_mounted+0x2a>
   1708a:	225f      	movs	r2, #95	; 0x5f
   1708c:	5cb2      	ldrb	r2, [r6, r2]
   1708e:	0612      	lsls	r2, r2, #24
   17090:	215e      	movs	r1, #94	; 0x5e
   17092:	5c71      	ldrb	r1, [r6, r1]
   17094:	0409      	lsls	r1, r1, #16
   17096:	430a      	orrs	r2, r1
   17098:	215c      	movs	r1, #92	; 0x5c
   1709a:	5c71      	ldrb	r1, [r6, r1]
   1709c:	430a      	orrs	r2, r1
   1709e:	215d      	movs	r1, #93	; 0x5d
   170a0:	5c71      	ldrb	r1, [r6, r1]
   170a2:	0209      	lsls	r1, r1, #8
   170a4:	430a      	orrs	r2, r1
   170a6:	6272      	str	r2, [r6, #36]	; 0x24
   170a8:	009b      	lsls	r3, r3, #2
   170aa:	4a44      	ldr	r2, [pc, #272]	; (171bc <chk_mounted+0x36c>)
   170ac:	4694      	mov	ip, r2
   170ae:	4463      	add	r3, ip
   170b0:	0a5b      	lsrs	r3, r3, #9
   170b2:	200d      	movs	r0, #13
   170b4:	429d      	cmp	r5, r3
   170b6:	d200      	bcs.n	170ba <chk_mounted+0x26a>
   170b8:	e6df      	b.n	16e7a <chk_mounted+0x2a>
   170ba:	2301      	movs	r3, #1
   170bc:	425b      	negs	r3, r3
   170be:	6133      	str	r3, [r6, #16]
   170c0:	2300      	movs	r3, #0
   170c2:	60f3      	str	r3, [r6, #12]
   170c4:	7173      	strb	r3, [r6, #5]
   170c6:	3361      	adds	r3, #97	; 0x61
   170c8:	5cf3      	ldrb	r3, [r6, r3]
   170ca:	021b      	lsls	r3, r3, #8
   170cc:	2260      	movs	r2, #96	; 0x60
   170ce:	5cb2      	ldrb	r2, [r6, r2]
   170d0:	431a      	orrs	r2, r3
   170d2:	1912      	adds	r2, r2, r4
   170d4:	6172      	str	r2, [r6, #20]
   170d6:	0031      	movs	r1, r6
   170d8:	3130      	adds	r1, #48	; 0x30
   170da:	7870      	ldrb	r0, [r6, #1]
   170dc:	2301      	movs	r3, #1
   170de:	4c38      	ldr	r4, [pc, #224]	; (171c0 <chk_mounted+0x370>)
   170e0:	47a0      	blx	r4
   170e2:	2203      	movs	r2, #3
   170e4:	2800      	cmp	r0, #0
   170e6:	d150      	bne.n	1718a <chk_mounted+0x33a>
   170e8:	4b36      	ldr	r3, [pc, #216]	; (171c4 <chk_mounted+0x374>)
   170ea:	5cf2      	ldrb	r2, [r6, r3]
   170ec:	0212      	lsls	r2, r2, #8
   170ee:	4b36      	ldr	r3, [pc, #216]	; (171c8 <chk_mounted+0x378>)
   170f0:	5cf3      	ldrb	r3, [r6, r3]
   170f2:	4313      	orrs	r3, r2
   170f4:	4935      	ldr	r1, [pc, #212]	; (171cc <chk_mounted+0x37c>)
   170f6:	b21b      	sxth	r3, r3
   170f8:	2203      	movs	r2, #3
   170fa:	428b      	cmp	r3, r1
   170fc:	d145      	bne.n	1718a <chk_mounted+0x33a>
   170fe:	2333      	movs	r3, #51	; 0x33
   17100:	5cf3      	ldrb	r3, [r6, r3]
   17102:	061b      	lsls	r3, r3, #24
   17104:	322f      	adds	r2, #47	; 0x2f
   17106:	5cb2      	ldrb	r2, [r6, r2]
   17108:	0412      	lsls	r2, r2, #16
   1710a:	4313      	orrs	r3, r2
   1710c:	2230      	movs	r2, #48	; 0x30
   1710e:	5cb2      	ldrb	r2, [r6, r2]
   17110:	4313      	orrs	r3, r2
   17112:	2231      	movs	r2, #49	; 0x31
   17114:	5cb2      	ldrb	r2, [r6, r2]
   17116:	0212      	lsls	r2, r2, #8
   17118:	4313      	orrs	r3, r2
   1711a:	492d      	ldr	r1, [pc, #180]	; (171d0 <chk_mounted+0x380>)
   1711c:	2203      	movs	r2, #3
   1711e:	428b      	cmp	r3, r1
   17120:	d133      	bne.n	1718a <chk_mounted+0x33a>
   17122:	4b2c      	ldr	r3, [pc, #176]	; (171d4 <chk_mounted+0x384>)
   17124:	5cf3      	ldrb	r3, [r6, r3]
   17126:	061b      	lsls	r3, r3, #24
   17128:	4a2b      	ldr	r2, [pc, #172]	; (171d8 <chk_mounted+0x388>)
   1712a:	5cb2      	ldrb	r2, [r6, r2]
   1712c:	0412      	lsls	r2, r2, #16
   1712e:	4313      	orrs	r3, r2
   17130:	2285      	movs	r2, #133	; 0x85
   17132:	0092      	lsls	r2, r2, #2
   17134:	5cb2      	ldrb	r2, [r6, r2]
   17136:	4313      	orrs	r3, r2
   17138:	4a28      	ldr	r2, [pc, #160]	; (171dc <chk_mounted+0x38c>)
   1713a:	5cb2      	ldrb	r2, [r6, r2]
   1713c:	0212      	lsls	r2, r2, #8
   1713e:	4313      	orrs	r3, r2
   17140:	4927      	ldr	r1, [pc, #156]	; (171e0 <chk_mounted+0x390>)
   17142:	2203      	movs	r2, #3
   17144:	428b      	cmp	r3, r1
   17146:	d120      	bne.n	1718a <chk_mounted+0x33a>
   17148:	4b26      	ldr	r3, [pc, #152]	; (171e4 <chk_mounted+0x394>)
   1714a:	5cf3      	ldrb	r3, [r6, r3]
   1714c:	061b      	lsls	r3, r3, #24
   1714e:	4a26      	ldr	r2, [pc, #152]	; (171e8 <chk_mounted+0x398>)
   17150:	5cb2      	ldrb	r2, [r6, r2]
   17152:	0412      	lsls	r2, r2, #16
   17154:	4313      	orrs	r3, r2
   17156:	2287      	movs	r2, #135	; 0x87
   17158:	0092      	lsls	r2, r2, #2
   1715a:	5cb2      	ldrb	r2, [r6, r2]
   1715c:	4313      	orrs	r3, r2
   1715e:	4a23      	ldr	r2, [pc, #140]	; (171ec <chk_mounted+0x39c>)
   17160:	5cb2      	ldrb	r2, [r6, r2]
   17162:	0212      	lsls	r2, r2, #8
   17164:	4313      	orrs	r3, r2
   17166:	60f3      	str	r3, [r6, #12]
   17168:	4b21      	ldr	r3, [pc, #132]	; (171f0 <chk_mounted+0x3a0>)
   1716a:	5cf3      	ldrb	r3, [r6, r3]
   1716c:	061b      	lsls	r3, r3, #24
   1716e:	4a21      	ldr	r2, [pc, #132]	; (171f4 <chk_mounted+0x3a4>)
   17170:	5cb2      	ldrb	r2, [r6, r2]
   17172:	0412      	lsls	r2, r2, #16
   17174:	4313      	orrs	r3, r2
   17176:	2286      	movs	r2, #134	; 0x86
   17178:	0092      	lsls	r2, r2, #2
   1717a:	5cb2      	ldrb	r2, [r6, r2]
   1717c:	4313      	orrs	r3, r2
   1717e:	4a1e      	ldr	r2, [pc, #120]	; (171f8 <chk_mounted+0x3a8>)
   17180:	5cb2      	ldrb	r2, [r6, r2]
   17182:	0212      	lsls	r2, r2, #8
   17184:	4313      	orrs	r3, r2
   17186:	6133      	str	r3, [r6, #16]
   17188:	2203      	movs	r2, #3
   1718a:	7032      	strb	r2, [r6, #0]
   1718c:	4a1b      	ldr	r2, [pc, #108]	; (171fc <chk_mounted+0x3ac>)
   1718e:	8813      	ldrh	r3, [r2, #0]
   17190:	3301      	adds	r3, #1
   17192:	b29b      	uxth	r3, r3
   17194:	8013      	strh	r3, [r2, #0]
   17196:	80f3      	strh	r3, [r6, #6]
   17198:	2000      	movs	r0, #0
   1719a:	62f0      	str	r0, [r6, #44]	; 0x2c
   1719c:	7130      	strb	r0, [r6, #4]
   1719e:	e66c      	b.n	16e7a <chk_mounted+0x2a>
   171a0:	20002be4 	.word	0x20002be4
   171a4:	00016b41 	.word	0x00016b41
   171a8:	00016aa5 	.word	0x00016aa5
   171ac:	00016dad 	.word	0x00016dad
   171b0:	00018851 	.word	0x00018851
   171b4:	00000ff5 	.word	0x00000ff5
   171b8:	0000fff5 	.word	0x0000fff5
   171bc:	000001ff 	.word	0x000001ff
   171c0:	00016b5d 	.word	0x00016b5d
   171c4:	0000022f 	.word	0x0000022f
   171c8:	0000022e 	.word	0x0000022e
   171cc:	ffffaa55 	.word	0xffffaa55
   171d0:	41615252 	.word	0x41615252
   171d4:	00000217 	.word	0x00000217
   171d8:	00000216 	.word	0x00000216
   171dc:	00000215 	.word	0x00000215
   171e0:	61417272 	.word	0x61417272
   171e4:	0000021f 	.word	0x0000021f
   171e8:	0000021e 	.word	0x0000021e
   171ec:	0000021d 	.word	0x0000021d
   171f0:	0000021b 	.word	0x0000021b
   171f4:	0000021a 	.word	0x0000021a
   171f8:	00000219 	.word	0x00000219
   171fc:	20002c04 	.word	0x20002c04

00017200 <move_window>:
   17200:	b5f0      	push	{r4, r5, r6, r7, lr}
   17202:	46ce      	mov	lr, r9
   17204:	b500      	push	{lr}
   17206:	b082      	sub	sp, #8
   17208:	0004      	movs	r4, r0
   1720a:	000f      	movs	r7, r1
   1720c:	6ac5      	ldr	r5, [r0, #44]	; 0x2c
   1720e:	428d      	cmp	r5, r1
   17210:	d03f      	beq.n	17292 <move_window+0x92>
   17212:	7903      	ldrb	r3, [r0, #4]
   17214:	2b00      	cmp	r3, #0
   17216:	d107      	bne.n	17228 <move_window+0x28>
   17218:	2300      	movs	r3, #0
   1721a:	2f00      	cmp	r7, #0
   1721c:	d12c      	bne.n	17278 <move_window+0x78>
   1721e:	0018      	movs	r0, r3
   17220:	b002      	add	sp, #8
   17222:	bc04      	pop	{r2}
   17224:	4691      	mov	r9, r2
   17226:	bdf0      	pop	{r4, r5, r6, r7, pc}
   17228:	2330      	movs	r3, #48	; 0x30
   1722a:	469c      	mov	ip, r3
   1722c:	4484      	add	ip, r0
   1722e:	4663      	mov	r3, ip
   17230:	4661      	mov	r1, ip
   17232:	9301      	str	r3, [sp, #4]
   17234:	7840      	ldrb	r0, [r0, #1]
   17236:	2301      	movs	r3, #1
   17238:	002a      	movs	r2, r5
   1723a:	4e17      	ldr	r6, [pc, #92]	; (17298 <move_window+0x98>)
   1723c:	47b0      	blx	r6
   1723e:	2301      	movs	r3, #1
   17240:	2800      	cmp	r0, #0
   17242:	d1ec      	bne.n	1721e <move_window+0x1e>
   17244:	2300      	movs	r3, #0
   17246:	7123      	strb	r3, [r4, #4]
   17248:	6a23      	ldr	r3, [r4, #32]
   1724a:	69e2      	ldr	r2, [r4, #28]
   1724c:	4694      	mov	ip, r2
   1724e:	4463      	add	r3, ip
   17250:	429d      	cmp	r5, r3
   17252:	d2e1      	bcs.n	17218 <move_window+0x18>
   17254:	78e6      	ldrb	r6, [r4, #3]
   17256:	2e01      	cmp	r6, #1
   17258:	d9de      	bls.n	17218 <move_window+0x18>
   1725a:	4b0f      	ldr	r3, [pc, #60]	; (17298 <move_window+0x98>)
   1725c:	4699      	mov	r9, r3
   1725e:	69e3      	ldr	r3, [r4, #28]
   17260:	469c      	mov	ip, r3
   17262:	4465      	add	r5, ip
   17264:	7860      	ldrb	r0, [r4, #1]
   17266:	2301      	movs	r3, #1
   17268:	002a      	movs	r2, r5
   1726a:	9901      	ldr	r1, [sp, #4]
   1726c:	47c8      	blx	r9
   1726e:	3e01      	subs	r6, #1
   17270:	b2f6      	uxtb	r6, r6
   17272:	2e01      	cmp	r6, #1
   17274:	d1f3      	bne.n	1725e <move_window+0x5e>
   17276:	e7cf      	b.n	17218 <move_window+0x18>
   17278:	0021      	movs	r1, r4
   1727a:	3130      	adds	r1, #48	; 0x30
   1727c:	7860      	ldrb	r0, [r4, #1]
   1727e:	3301      	adds	r3, #1
   17280:	003a      	movs	r2, r7
   17282:	4d06      	ldr	r5, [pc, #24]	; (1729c <move_window+0x9c>)
   17284:	47a8      	blx	r5
   17286:	2301      	movs	r3, #1
   17288:	2800      	cmp	r0, #0
   1728a:	d1c8      	bne.n	1721e <move_window+0x1e>
   1728c:	62e7      	str	r7, [r4, #44]	; 0x2c
   1728e:	2300      	movs	r3, #0
   17290:	e7c5      	b.n	1721e <move_window+0x1e>
   17292:	2300      	movs	r3, #0
   17294:	e7c3      	b.n	1721e <move_window+0x1e>
   17296:	46c0      	nop			; (mov r8, r8)
   17298:	00016be1 	.word	0x00016be1
   1729c:	00016b5d 	.word	0x00016b5d

000172a0 <get_fat>:
   172a0:	b5f8      	push	{r3, r4, r5, r6, r7, lr}
   172a2:	0005      	movs	r5, r0
   172a4:	000c      	movs	r4, r1
   172a6:	2901      	cmp	r1, #1
   172a8:	d974      	bls.n	17394 <get_fat+0xf4>
   172aa:	2001      	movs	r0, #1
   172ac:	69ab      	ldr	r3, [r5, #24]
   172ae:	4299      	cmp	r1, r3
   172b0:	d271      	bcs.n	17396 <get_fat+0xf6>
   172b2:	782b      	ldrb	r3, [r5, #0]
   172b4:	2b02      	cmp	r3, #2
   172b6:	d034      	beq.n	17322 <get_fat+0x82>
   172b8:	2b03      	cmp	r3, #3
   172ba:	d049      	beq.n	17350 <get_fat+0xb0>
   172bc:	2b01      	cmp	r3, #1
   172be:	d002      	beq.n	172c6 <get_fat+0x26>
   172c0:	2001      	movs	r0, #1
   172c2:	4240      	negs	r0, r0
   172c4:	e067      	b.n	17396 <get_fat+0xf6>
   172c6:	084e      	lsrs	r6, r1, #1
   172c8:	1876      	adds	r6, r6, r1
   172ca:	0a71      	lsrs	r1, r6, #9
   172cc:	6a2b      	ldr	r3, [r5, #32]
   172ce:	469c      	mov	ip, r3
   172d0:	4461      	add	r1, ip
   172d2:	0028      	movs	r0, r5
   172d4:	4b30      	ldr	r3, [pc, #192]	; (17398 <get_fat+0xf8>)
   172d6:	4798      	blx	r3
   172d8:	2800      	cmp	r0, #0
   172da:	d002      	beq.n	172e2 <get_fat+0x42>
   172dc:	2001      	movs	r0, #1
   172de:	4240      	negs	r0, r0
   172e0:	e059      	b.n	17396 <get_fat+0xf6>
   172e2:	05f3      	lsls	r3, r6, #23
   172e4:	0ddb      	lsrs	r3, r3, #23
   172e6:	18eb      	adds	r3, r5, r3
   172e8:	3330      	adds	r3, #48	; 0x30
   172ea:	781f      	ldrb	r7, [r3, #0]
   172ec:	3601      	adds	r6, #1
   172ee:	0a71      	lsrs	r1, r6, #9
   172f0:	6a2b      	ldr	r3, [r5, #32]
   172f2:	469c      	mov	ip, r3
   172f4:	4461      	add	r1, ip
   172f6:	0028      	movs	r0, r5
   172f8:	4b27      	ldr	r3, [pc, #156]	; (17398 <get_fat+0xf8>)
   172fa:	4798      	blx	r3
   172fc:	2800      	cmp	r0, #0
   172fe:	d002      	beq.n	17306 <get_fat+0x66>
   17300:	2001      	movs	r0, #1
   17302:	4240      	negs	r0, r0
   17304:	e047      	b.n	17396 <get_fat+0xf6>
   17306:	05f6      	lsls	r6, r6, #23
   17308:	0df6      	lsrs	r6, r6, #23
   1730a:	19ad      	adds	r5, r5, r6
   1730c:	3530      	adds	r5, #48	; 0x30
   1730e:	7828      	ldrb	r0, [r5, #0]
   17310:	0200      	lsls	r0, r0, #8
   17312:	4338      	orrs	r0, r7
   17314:	07e3      	lsls	r3, r4, #31
   17316:	d501      	bpl.n	1731c <get_fat+0x7c>
   17318:	0900      	lsrs	r0, r0, #4
   1731a:	e03c      	b.n	17396 <get_fat+0xf6>
   1731c:	0500      	lsls	r0, r0, #20
   1731e:	0d00      	lsrs	r0, r0, #20
   17320:	e039      	b.n	17396 <get_fat+0xf6>
   17322:	0a09      	lsrs	r1, r1, #8
   17324:	6a2b      	ldr	r3, [r5, #32]
   17326:	469c      	mov	ip, r3
   17328:	4461      	add	r1, ip
   1732a:	0028      	movs	r0, r5
   1732c:	4b1a      	ldr	r3, [pc, #104]	; (17398 <get_fat+0xf8>)
   1732e:	4798      	blx	r3
   17330:	2800      	cmp	r0, #0
   17332:	d002      	beq.n	1733a <get_fat+0x9a>
   17334:	2001      	movs	r0, #1
   17336:	4240      	negs	r0, r0
   17338:	e02d      	b.n	17396 <get_fat+0xf6>
   1733a:	0064      	lsls	r4, r4, #1
   1733c:	23ff      	movs	r3, #255	; 0xff
   1733e:	005b      	lsls	r3, r3, #1
   17340:	401c      	ands	r4, r3
   17342:	192d      	adds	r5, r5, r4
   17344:	3530      	adds	r5, #48	; 0x30
   17346:	786b      	ldrb	r3, [r5, #1]
   17348:	021b      	lsls	r3, r3, #8
   1734a:	7828      	ldrb	r0, [r5, #0]
   1734c:	4318      	orrs	r0, r3
   1734e:	e022      	b.n	17396 <get_fat+0xf6>
   17350:	09c9      	lsrs	r1, r1, #7
   17352:	6a2b      	ldr	r3, [r5, #32]
   17354:	469c      	mov	ip, r3
   17356:	4461      	add	r1, ip
   17358:	0028      	movs	r0, r5
   1735a:	4b0f      	ldr	r3, [pc, #60]	; (17398 <get_fat+0xf8>)
   1735c:	4798      	blx	r3
   1735e:	2800      	cmp	r0, #0
   17360:	d002      	beq.n	17368 <get_fat+0xc8>
   17362:	2001      	movs	r0, #1
   17364:	4240      	negs	r0, r0
   17366:	e016      	b.n	17396 <get_fat+0xf6>
   17368:	00a4      	lsls	r4, r4, #2
   1736a:	23fe      	movs	r3, #254	; 0xfe
   1736c:	005b      	lsls	r3, r3, #1
   1736e:	401c      	ands	r4, r3
   17370:	0023      	movs	r3, r4
   17372:	3330      	adds	r3, #48	; 0x30
   17374:	18eb      	adds	r3, r5, r3
   17376:	78d8      	ldrb	r0, [r3, #3]
   17378:	0600      	lsls	r0, r0, #24
   1737a:	789a      	ldrb	r2, [r3, #2]
   1737c:	0412      	lsls	r2, r2, #16
   1737e:	4310      	orrs	r0, r2
   17380:	192c      	adds	r4, r5, r4
   17382:	3430      	adds	r4, #48	; 0x30
   17384:	7822      	ldrb	r2, [r4, #0]
   17386:	4310      	orrs	r0, r2
   17388:	785b      	ldrb	r3, [r3, #1]
   1738a:	021b      	lsls	r3, r3, #8
   1738c:	4318      	orrs	r0, r3
   1738e:	0100      	lsls	r0, r0, #4
   17390:	0900      	lsrs	r0, r0, #4
   17392:	e000      	b.n	17396 <get_fat+0xf6>
   17394:	2001      	movs	r0, #1
   17396:	bdf8      	pop	{r3, r4, r5, r6, r7, pc}
   17398:	00017201 	.word	0x00017201

0001739c <dir_sdi>:
   1739c:	b5f8      	push	{r3, r4, r5, r6, r7, lr}
   1739e:	0004      	movs	r4, r0
   173a0:	000d      	movs	r5, r1
   173a2:	80e1      	strh	r1, [r4, #6]
   173a4:	6881      	ldr	r1, [r0, #8]
   173a6:	2002      	movs	r0, #2
   173a8:	2901      	cmp	r1, #1
   173aa:	d003      	beq.n	173b4 <dir_sdi+0x18>
   173ac:	6823      	ldr	r3, [r4, #0]
   173ae:	699a      	ldr	r2, [r3, #24]
   173b0:	4291      	cmp	r1, r2
   173b2:	d300      	bcc.n	173b6 <dir_sdi+0x1a>
   173b4:	bdf8      	pop	{r3, r4, r5, r6, r7, pc}
   173b6:	2900      	cmp	r1, #0
   173b8:	d119      	bne.n	173ee <dir_sdi+0x52>
   173ba:	781a      	ldrb	r2, [r3, #0]
   173bc:	2a03      	cmp	r2, #3
   173be:	d013      	beq.n	173e8 <dir_sdi+0x4c>
   173c0:	2200      	movs	r2, #0
   173c2:	60e2      	str	r2, [r4, #12]
   173c4:	891a      	ldrh	r2, [r3, #8]
   173c6:	2002      	movs	r0, #2
   173c8:	42aa      	cmp	r2, r5
   173ca:	d9f3      	bls.n	173b4 <dir_sdi+0x18>
   173cc:	092a      	lsrs	r2, r5, #4
   173ce:	b292      	uxth	r2, r2
   173d0:	6a5b      	ldr	r3, [r3, #36]	; 0x24
   173d2:	189b      	adds	r3, r3, r2
   173d4:	6123      	str	r3, [r4, #16]
   173d6:	6823      	ldr	r3, [r4, #0]
   173d8:	3330      	adds	r3, #48	; 0x30
   173da:	220f      	movs	r2, #15
   173dc:	4015      	ands	r5, r2
   173de:	016d      	lsls	r5, r5, #5
   173e0:	195d      	adds	r5, r3, r5
   173e2:	6165      	str	r5, [r4, #20]
   173e4:	2000      	movs	r0, #0
   173e6:	e7e5      	b.n	173b4 <dir_sdi+0x18>
   173e8:	6a59      	ldr	r1, [r3, #36]	; 0x24
   173ea:	2900      	cmp	r1, #0
   173ec:	d0e8      	beq.n	173c0 <dir_sdi+0x24>
   173ee:	789e      	ldrb	r6, [r3, #2]
   173f0:	0136      	lsls	r6, r6, #4
   173f2:	42b5      	cmp	r5, r6
   173f4:	d313      	bcc.n	1741e <dir_sdi+0x82>
   173f6:	1bad      	subs	r5, r5, r6
   173f8:	b2ad      	uxth	r5, r5
   173fa:	4f10      	ldr	r7, [pc, #64]	; (1743c <dir_sdi+0xa0>)
   173fc:	e000      	b.n	17400 <dir_sdi+0x64>
   173fe:	001d      	movs	r5, r3
   17400:	6820      	ldr	r0, [r4, #0]
   17402:	47b8      	blx	r7
   17404:	0001      	movs	r1, r0
   17406:	1c43      	adds	r3, r0, #1
   17408:	d012      	beq.n	17430 <dir_sdi+0x94>
   1740a:	2801      	cmp	r0, #1
   1740c:	d912      	bls.n	17434 <dir_sdi+0x98>
   1740e:	6823      	ldr	r3, [r4, #0]
   17410:	699b      	ldr	r3, [r3, #24]
   17412:	4298      	cmp	r0, r3
   17414:	d210      	bcs.n	17438 <dir_sdi+0x9c>
   17416:	1bab      	subs	r3, r5, r6
   17418:	b29b      	uxth	r3, r3
   1741a:	42b5      	cmp	r5, r6
   1741c:	d2ef      	bcs.n	173fe <dir_sdi+0x62>
   1741e:	60e1      	str	r1, [r4, #12]
   17420:	6820      	ldr	r0, [r4, #0]
   17422:	4b07      	ldr	r3, [pc, #28]	; (17440 <dir_sdi+0xa4>)
   17424:	4798      	blx	r3
   17426:	092b      	lsrs	r3, r5, #4
   17428:	b29b      	uxth	r3, r3
   1742a:	1818      	adds	r0, r3, r0
   1742c:	6120      	str	r0, [r4, #16]
   1742e:	e7d2      	b.n	173d6 <dir_sdi+0x3a>
   17430:	2001      	movs	r0, #1
   17432:	e7bf      	b.n	173b4 <dir_sdi+0x18>
   17434:	2002      	movs	r0, #2
   17436:	e7bd      	b.n	173b4 <dir_sdi+0x18>
   17438:	2002      	movs	r0, #2
   1743a:	e7bb      	b.n	173b4 <dir_sdi+0x18>
   1743c:	000172a1 	.word	0x000172a1
   17440:	00016d47 	.word	0x00016d47

00017444 <put_fat>:
   17444:	b5f0      	push	{r4, r5, r6, r7, lr}
   17446:	46c6      	mov	lr, r8
   17448:	b500      	push	{lr}
   1744a:	0007      	movs	r7, r0
   1744c:	000c      	movs	r4, r1
   1744e:	0016      	movs	r6, r2
   17450:	2502      	movs	r5, #2
   17452:	2901      	cmp	r1, #1
   17454:	d902      	bls.n	1745c <put_fat+0x18>
   17456:	6983      	ldr	r3, [r0, #24]
   17458:	4299      	cmp	r1, r3
   1745a:	d303      	bcc.n	17464 <put_fat+0x20>
   1745c:	0028      	movs	r0, r5
   1745e:	bc04      	pop	{r2}
   17460:	4690      	mov	r8, r2
   17462:	bdf0      	pop	{r4, r5, r6, r7, pc}
   17464:	7803      	ldrb	r3, [r0, #0]
   17466:	2b02      	cmp	r3, #2
   17468:	d053      	beq.n	17512 <put_fat+0xce>
   1746a:	2b03      	cmp	r3, #3
   1746c:	d063      	beq.n	17536 <put_fat+0xf2>
   1746e:	2502      	movs	r5, #2
   17470:	2b01      	cmp	r3, #1
   17472:	d002      	beq.n	1747a <put_fat+0x36>
   17474:	2301      	movs	r3, #1
   17476:	713b      	strb	r3, [r7, #4]
   17478:	e7f0      	b.n	1745c <put_fat+0x18>
   1747a:	084b      	lsrs	r3, r1, #1
   1747c:	4698      	mov	r8, r3
   1747e:	4488      	add	r8, r1
   17480:	4643      	mov	r3, r8
   17482:	0a59      	lsrs	r1, r3, #9
   17484:	6a03      	ldr	r3, [r0, #32]
   17486:	469c      	mov	ip, r3
   17488:	4461      	add	r1, ip
   1748a:	4b3b      	ldr	r3, [pc, #236]	; (17578 <put_fat+0x134>)
   1748c:	4798      	blx	r3
   1748e:	1e05      	subs	r5, r0, #0
   17490:	d1f0      	bne.n	17474 <put_fat+0x30>
   17492:	4643      	mov	r3, r8
   17494:	05db      	lsls	r3, r3, #23
   17496:	0ddb      	lsrs	r3, r3, #23
   17498:	07e2      	lsls	r2, r4, #31
   1749a:	d51f      	bpl.n	174dc <put_fat+0x98>
   1749c:	18fb      	adds	r3, r7, r3
   1749e:	3330      	adds	r3, #48	; 0x30
   174a0:	7819      	ldrb	r1, [r3, #0]
   174a2:	220f      	movs	r2, #15
   174a4:	400a      	ands	r2, r1
   174a6:	0131      	lsls	r1, r6, #4
   174a8:	20ff      	movs	r0, #255	; 0xff
   174aa:	0100      	lsls	r0, r0, #4
   174ac:	4001      	ands	r1, r0
   174ae:	430a      	orrs	r2, r1
   174b0:	701a      	strb	r2, [r3, #0]
   174b2:	4644      	mov	r4, r8
   174b4:	3401      	adds	r4, #1
   174b6:	2301      	movs	r3, #1
   174b8:	713b      	strb	r3, [r7, #4]
   174ba:	0a61      	lsrs	r1, r4, #9
   174bc:	6a3b      	ldr	r3, [r7, #32]
   174be:	469c      	mov	ip, r3
   174c0:	4461      	add	r1, ip
   174c2:	0038      	movs	r0, r7
   174c4:	4b2c      	ldr	r3, [pc, #176]	; (17578 <put_fat+0x134>)
   174c6:	4798      	blx	r3
   174c8:	2800      	cmp	r0, #0
   174ca:	d151      	bne.n	17570 <put_fat+0x12c>
   174cc:	05e4      	lsls	r4, r4, #23
   174ce:	0de4      	lsrs	r4, r4, #23
   174d0:	0936      	lsrs	r6, r6, #4
   174d2:	b2f6      	uxtb	r6, r6
   174d4:	193c      	adds	r4, r7, r4
   174d6:	3430      	adds	r4, #48	; 0x30
   174d8:	7026      	strb	r6, [r4, #0]
   174da:	e7cb      	b.n	17474 <put_fat+0x30>
   174dc:	18fb      	adds	r3, r7, r3
   174de:	3330      	adds	r3, #48	; 0x30
   174e0:	701e      	strb	r6, [r3, #0]
   174e2:	4644      	mov	r4, r8
   174e4:	3401      	adds	r4, #1
   174e6:	2301      	movs	r3, #1
   174e8:	713b      	strb	r3, [r7, #4]
   174ea:	0a61      	lsrs	r1, r4, #9
   174ec:	6a3b      	ldr	r3, [r7, #32]
   174ee:	469c      	mov	ip, r3
   174f0:	4461      	add	r1, ip
   174f2:	0038      	movs	r0, r7
   174f4:	4b20      	ldr	r3, [pc, #128]	; (17578 <put_fat+0x134>)
   174f6:	4798      	blx	r3
   174f8:	2800      	cmp	r0, #0
   174fa:	d13b      	bne.n	17574 <put_fat+0x130>
   174fc:	05e4      	lsls	r4, r4, #23
   174fe:	0de4      	lsrs	r4, r4, #23
   17500:	193b      	adds	r3, r7, r4
   17502:	3330      	adds	r3, #48	; 0x30
   17504:	781b      	ldrb	r3, [r3, #0]
   17506:	220f      	movs	r2, #15
   17508:	4393      	bics	r3, r2
   1750a:	0536      	lsls	r6, r6, #20
   1750c:	0f36      	lsrs	r6, r6, #28
   1750e:	431e      	orrs	r6, r3
   17510:	e7e0      	b.n	174d4 <put_fat+0x90>
   17512:	0a09      	lsrs	r1, r1, #8
   17514:	6a03      	ldr	r3, [r0, #32]
   17516:	469c      	mov	ip, r3
   17518:	4461      	add	r1, ip
   1751a:	4b17      	ldr	r3, [pc, #92]	; (17578 <put_fat+0x134>)
   1751c:	4798      	blx	r3
   1751e:	1e05      	subs	r5, r0, #0
   17520:	d1a8      	bne.n	17474 <put_fat+0x30>
   17522:	0063      	lsls	r3, r4, #1
   17524:	24ff      	movs	r4, #255	; 0xff
   17526:	0064      	lsls	r4, r4, #1
   17528:	4023      	ands	r3, r4
   1752a:	18fb      	adds	r3, r7, r3
   1752c:	3330      	adds	r3, #48	; 0x30
   1752e:	701e      	strb	r6, [r3, #0]
   17530:	0a36      	lsrs	r6, r6, #8
   17532:	705e      	strb	r6, [r3, #1]
   17534:	e79e      	b.n	17474 <put_fat+0x30>
   17536:	09c9      	lsrs	r1, r1, #7
   17538:	6a03      	ldr	r3, [r0, #32]
   1753a:	469c      	mov	ip, r3
   1753c:	4461      	add	r1, ip
   1753e:	4b0e      	ldr	r3, [pc, #56]	; (17578 <put_fat+0x134>)
   17540:	4798      	blx	r3
   17542:	1e05      	subs	r5, r0, #0
   17544:	d196      	bne.n	17474 <put_fat+0x30>
   17546:	00a4      	lsls	r4, r4, #2
   17548:	23fe      	movs	r3, #254	; 0xfe
   1754a:	005b      	lsls	r3, r3, #1
   1754c:	401c      	ands	r4, r3
   1754e:	0022      	movs	r2, r4
   17550:	3230      	adds	r2, #48	; 0x30
   17552:	18ba      	adds	r2, r7, r2
   17554:	78d3      	ldrb	r3, [r2, #3]
   17556:	193c      	adds	r4, r7, r4
   17558:	3430      	adds	r4, #48	; 0x30
   1755a:	091b      	lsrs	r3, r3, #4
   1755c:	071b      	lsls	r3, r3, #28
   1755e:	431e      	orrs	r6, r3
   17560:	7026      	strb	r6, [r4, #0]
   17562:	0a33      	lsrs	r3, r6, #8
   17564:	7053      	strb	r3, [r2, #1]
   17566:	0c33      	lsrs	r3, r6, #16
   17568:	7093      	strb	r3, [r2, #2]
   1756a:	0e36      	lsrs	r6, r6, #24
   1756c:	70d6      	strb	r6, [r2, #3]
   1756e:	e781      	b.n	17474 <put_fat+0x30>
   17570:	0005      	movs	r5, r0
   17572:	e77f      	b.n	17474 <put_fat+0x30>
   17574:	0005      	movs	r5, r0
   17576:	e77d      	b.n	17474 <put_fat+0x30>
   17578:	00017201 	.word	0x00017201

0001757c <create_chain>:
   1757c:	b5f0      	push	{r4, r5, r6, r7, lr}
   1757e:	46c6      	mov	lr, r8
   17580:	b500      	push	{lr}
   17582:	0005      	movs	r5, r0
   17584:	4688      	mov	r8, r1
   17586:	2900      	cmp	r1, #0
   17588:	d107      	bne.n	1759a <create_chain+0x1e>
   1758a:	68c6      	ldr	r6, [r0, #12]
   1758c:	2e00      	cmp	r6, #0
   1758e:	d00d      	beq.n	175ac <create_chain+0x30>
   17590:	6983      	ldr	r3, [r0, #24]
   17592:	429e      	cmp	r6, r3
   17594:	d30b      	bcc.n	175ae <create_chain+0x32>
   17596:	2601      	movs	r6, #1
   17598:	e009      	b.n	175ae <create_chain+0x32>
   1759a:	4b26      	ldr	r3, [pc, #152]	; (17634 <create_chain+0xb8>)
   1759c:	4798      	blx	r3
   1759e:	2801      	cmp	r0, #1
   175a0:	d93d      	bls.n	1761e <create_chain+0xa2>
   175a2:	69ab      	ldr	r3, [r5, #24]
   175a4:	4646      	mov	r6, r8
   175a6:	4298      	cmp	r0, r3
   175a8:	d201      	bcs.n	175ae <create_chain+0x32>
   175aa:	e03d      	b.n	17628 <create_chain+0xac>
   175ac:	2601      	movs	r6, #1
   175ae:	0034      	movs	r4, r6
   175b0:	4f20      	ldr	r7, [pc, #128]	; (17634 <create_chain+0xb8>)
   175b2:	e00a      	b.n	175ca <create_chain+0x4e>
   175b4:	0021      	movs	r1, r4
   175b6:	0028      	movs	r0, r5
   175b8:	47b8      	blx	r7
   175ba:	2800      	cmp	r0, #0
   175bc:	d00d      	beq.n	175da <create_chain+0x5e>
   175be:	1c43      	adds	r3, r0, #1
   175c0:	d032      	beq.n	17628 <create_chain+0xac>
   175c2:	2801      	cmp	r0, #1
   175c4:	d030      	beq.n	17628 <create_chain+0xac>
   175c6:	42b4      	cmp	r4, r6
   175c8:	d02d      	beq.n	17626 <create_chain+0xaa>
   175ca:	3401      	adds	r4, #1
   175cc:	69ab      	ldr	r3, [r5, #24]
   175ce:	429c      	cmp	r4, r3
   175d0:	d3f0      	bcc.n	175b4 <create_chain+0x38>
   175d2:	2e01      	cmp	r6, #1
   175d4:	d925      	bls.n	17622 <create_chain+0xa6>
   175d6:	2402      	movs	r4, #2
   175d8:	e7ec      	b.n	175b4 <create_chain+0x38>
   175da:	4a17      	ldr	r2, [pc, #92]	; (17638 <create_chain+0xbc>)
   175dc:	0021      	movs	r1, r4
   175de:	0028      	movs	r0, r5
   175e0:	4b16      	ldr	r3, [pc, #88]	; (1763c <create_chain+0xc0>)
   175e2:	4798      	blx	r3
   175e4:	2800      	cmp	r0, #0
   175e6:	d113      	bne.n	17610 <create_chain+0x94>
   175e8:	4643      	mov	r3, r8
   175ea:	2b00      	cmp	r3, #0
   175ec:	d109      	bne.n	17602 <create_chain+0x86>
   175ee:	60ec      	str	r4, [r5, #12]
   175f0:	692b      	ldr	r3, [r5, #16]
   175f2:	1c5a      	adds	r2, r3, #1
   175f4:	d01b      	beq.n	1762e <create_chain+0xb2>
   175f6:	3b01      	subs	r3, #1
   175f8:	612b      	str	r3, [r5, #16]
   175fa:	2301      	movs	r3, #1
   175fc:	716b      	strb	r3, [r5, #5]
   175fe:	0020      	movs	r0, r4
   17600:	e012      	b.n	17628 <create_chain+0xac>
   17602:	0022      	movs	r2, r4
   17604:	4641      	mov	r1, r8
   17606:	0028      	movs	r0, r5
   17608:	4b0c      	ldr	r3, [pc, #48]	; (1763c <create_chain+0xc0>)
   1760a:	4798      	blx	r3
   1760c:	2800      	cmp	r0, #0
   1760e:	d0ee      	beq.n	175ee <create_chain+0x72>
   17610:	3801      	subs	r0, #1
   17612:	4242      	negs	r2, r0
   17614:	4142      	adcs	r2, r0
   17616:	4250      	negs	r0, r2
   17618:	2301      	movs	r3, #1
   1761a:	4318      	orrs	r0, r3
   1761c:	e004      	b.n	17628 <create_chain+0xac>
   1761e:	2001      	movs	r0, #1
   17620:	e002      	b.n	17628 <create_chain+0xac>
   17622:	2000      	movs	r0, #0
   17624:	e000      	b.n	17628 <create_chain+0xac>
   17626:	2000      	movs	r0, #0
   17628:	bc04      	pop	{r2}
   1762a:	4690      	mov	r8, r2
   1762c:	bdf0      	pop	{r4, r5, r6, r7, pc}
   1762e:	0020      	movs	r0, r4
   17630:	e7fa      	b.n	17628 <create_chain+0xac>
   17632:	46c0      	nop			; (mov r8, r8)
   17634:	000172a1 	.word	0x000172a1
   17638:	0fffffff 	.word	0x0fffffff
   1763c:	00017445 	.word	0x00017445

00017640 <remove_chain>:
   17640:	b5f8      	push	{r3, r4, r5, r6, r7, lr}
   17642:	46ce      	mov	lr, r9
   17644:	4647      	mov	r7, r8
   17646:	b580      	push	{r7, lr}
   17648:	0004      	movs	r4, r0
   1764a:	000d      	movs	r5, r1
   1764c:	2002      	movs	r0, #2
   1764e:	2901      	cmp	r1, #1
   17650:	d902      	bls.n	17658 <remove_chain+0x18>
   17652:	69a3      	ldr	r3, [r4, #24]
   17654:	4299      	cmp	r1, r3
   17656:	d303      	bcc.n	17660 <remove_chain+0x20>
   17658:	bc0c      	pop	{r2, r3}
   1765a:	4690      	mov	r8, r2
   1765c:	4699      	mov	r9, r3
   1765e:	bdf8      	pop	{r3, r4, r5, r6, r7, pc}
   17660:	4f13      	ldr	r7, [pc, #76]	; (176b0 <remove_chain+0x70>)
   17662:	4b14      	ldr	r3, [pc, #80]	; (176b4 <remove_chain+0x74>)
   17664:	4698      	mov	r8, r3
   17666:	2301      	movs	r3, #1
   17668:	4699      	mov	r9, r3
   1766a:	e003      	b.n	17674 <remove_chain+0x34>
   1766c:	0035      	movs	r5, r6
   1766e:	69a3      	ldr	r3, [r4, #24]
   17670:	42b3      	cmp	r3, r6
   17672:	d9f1      	bls.n	17658 <remove_chain+0x18>
   17674:	0029      	movs	r1, r5
   17676:	0020      	movs	r0, r4
   17678:	47b8      	blx	r7
   1767a:	1e06      	subs	r6, r0, #0
   1767c:	d011      	beq.n	176a2 <remove_chain+0x62>
   1767e:	2801      	cmp	r0, #1
   17680:	d011      	beq.n	176a6 <remove_chain+0x66>
   17682:	1c43      	adds	r3, r0, #1
   17684:	d011      	beq.n	176aa <remove_chain+0x6a>
   17686:	2200      	movs	r2, #0
   17688:	0029      	movs	r1, r5
   1768a:	0020      	movs	r0, r4
   1768c:	47c0      	blx	r8
   1768e:	2800      	cmp	r0, #0
   17690:	d1e2      	bne.n	17658 <remove_chain+0x18>
   17692:	6923      	ldr	r3, [r4, #16]
   17694:	1c5a      	adds	r2, r3, #1
   17696:	d0e9      	beq.n	1766c <remove_chain+0x2c>
   17698:	3301      	adds	r3, #1
   1769a:	6123      	str	r3, [r4, #16]
   1769c:	464b      	mov	r3, r9
   1769e:	7163      	strb	r3, [r4, #5]
   176a0:	e7e4      	b.n	1766c <remove_chain+0x2c>
   176a2:	2000      	movs	r0, #0
   176a4:	e7d8      	b.n	17658 <remove_chain+0x18>
   176a6:	2002      	movs	r0, #2
   176a8:	e7d6      	b.n	17658 <remove_chain+0x18>
   176aa:	2001      	movs	r0, #1
   176ac:	e7d4      	b.n	17658 <remove_chain+0x18>
   176ae:	46c0      	nop			; (mov r8, r8)
   176b0:	000172a1 	.word	0x000172a1
   176b4:	00017445 	.word	0x00017445

000176b8 <dir_next>:
   176b8:	b5f8      	push	{r3, r4, r5, r6, r7, lr}
   176ba:	46d6      	mov	lr, sl
   176bc:	4647      	mov	r7, r8
   176be:	b580      	push	{r7, lr}
   176c0:	0006      	movs	r6, r0
   176c2:	000d      	movs	r5, r1
   176c4:	88c4      	ldrh	r4, [r0, #6]
   176c6:	3401      	adds	r4, #1
   176c8:	b2a4      	uxth	r4, r4
   176ca:	2004      	movs	r0, #4
   176cc:	2c00      	cmp	r4, #0
   176ce:	d103      	bne.n	176d8 <dir_next+0x20>
   176d0:	bc0c      	pop	{r2, r3}
   176d2:	4690      	mov	r8, r2
   176d4:	469a      	mov	sl, r3
   176d6:	bdf8      	pop	{r3, r4, r5, r6, r7, pc}
   176d8:	6933      	ldr	r3, [r6, #16]
   176da:	2b00      	cmp	r3, #0
   176dc:	d0f8      	beq.n	176d0 <dir_next+0x18>
   176de:	270f      	movs	r7, #15
   176e0:	4027      	ands	r7, r4
   176e2:	d10f      	bne.n	17704 <dir_next+0x4c>
   176e4:	3301      	adds	r3, #1
   176e6:	6133      	str	r3, [r6, #16]
   176e8:	68f1      	ldr	r1, [r6, #12]
   176ea:	2900      	cmp	r1, #0
   176ec:	d104      	bne.n	176f8 <dir_next+0x40>
   176ee:	6833      	ldr	r3, [r6, #0]
   176f0:	891b      	ldrh	r3, [r3, #8]
   176f2:	42a3      	cmp	r3, r4
   176f4:	d9ec      	bls.n	176d0 <dir_next+0x18>
   176f6:	e005      	b.n	17704 <dir_next+0x4c>
   176f8:	6830      	ldr	r0, [r6, #0]
   176fa:	7883      	ldrb	r3, [r0, #2]
   176fc:	3b01      	subs	r3, #1
   176fe:	0922      	lsrs	r2, r4, #4
   17700:	421a      	tst	r2, r3
   17702:	d007      	beq.n	17714 <dir_next+0x5c>
   17704:	80f4      	strh	r4, [r6, #6]
   17706:	6833      	ldr	r3, [r6, #0]
   17708:	3330      	adds	r3, #48	; 0x30
   1770a:	017f      	lsls	r7, r7, #5
   1770c:	19df      	adds	r7, r3, r7
   1770e:	6177      	str	r7, [r6, #20]
   17710:	2000      	movs	r0, #0
   17712:	e7dd      	b.n	176d0 <dir_next+0x18>
   17714:	4b2c      	ldr	r3, [pc, #176]	; (177c8 <dir_next+0x110>)
   17716:	4798      	blx	r3
   17718:	4680      	mov	r8, r0
   1771a:	2002      	movs	r0, #2
   1771c:	4643      	mov	r3, r8
   1771e:	2b01      	cmp	r3, #1
   17720:	d9d6      	bls.n	176d0 <dir_next+0x18>
   17722:	3301      	adds	r3, #1
   17724:	d04b      	beq.n	177be <dir_next+0x106>
   17726:	6833      	ldr	r3, [r6, #0]
   17728:	699a      	ldr	r2, [r3, #24]
   1772a:	4590      	cmp	r8, r2
   1772c:	d33f      	bcc.n	177ae <dir_next+0xf6>
   1772e:	3002      	adds	r0, #2
   17730:	2d00      	cmp	r5, #0
   17732:	d0cd      	beq.n	176d0 <dir_next+0x18>
   17734:	68f1      	ldr	r1, [r6, #12]
   17736:	0018      	movs	r0, r3
   17738:	4b24      	ldr	r3, [pc, #144]	; (177cc <dir_next+0x114>)
   1773a:	4798      	blx	r3
   1773c:	4680      	mov	r8, r0
   1773e:	2007      	movs	r0, #7
   17740:	4643      	mov	r3, r8
   17742:	2b00      	cmp	r3, #0
   17744:	d0c4      	beq.n	176d0 <dir_next+0x18>
   17746:	3805      	subs	r0, #5
   17748:	2b01      	cmp	r3, #1
   1774a:	d0c1      	beq.n	176d0 <dir_next+0x18>
   1774c:	3801      	subs	r0, #1
   1774e:	3301      	adds	r3, #1
   17750:	d0be      	beq.n	176d0 <dir_next+0x18>
   17752:	2100      	movs	r1, #0
   17754:	6830      	ldr	r0, [r6, #0]
   17756:	4b1e      	ldr	r3, [pc, #120]	; (177d0 <dir_next+0x118>)
   17758:	4798      	blx	r3
   1775a:	0003      	movs	r3, r0
   1775c:	2001      	movs	r0, #1
   1775e:	2b00      	cmp	r3, #0
   17760:	d1b6      	bne.n	176d0 <dir_next+0x18>
   17762:	6830      	ldr	r0, [r6, #0]
   17764:	3030      	adds	r0, #48	; 0x30
   17766:	2280      	movs	r2, #128	; 0x80
   17768:	0092      	lsls	r2, r2, #2
   1776a:	2100      	movs	r1, #0
   1776c:	4b19      	ldr	r3, [pc, #100]	; (177d4 <dir_next+0x11c>)
   1776e:	4798      	blx	r3
   17770:	6835      	ldr	r5, [r6, #0]
   17772:	4641      	mov	r1, r8
   17774:	0028      	movs	r0, r5
   17776:	4b18      	ldr	r3, [pc, #96]	; (177d8 <dir_next+0x120>)
   17778:	4798      	blx	r3
   1777a:	62e8      	str	r0, [r5, #44]	; 0x2c
   1777c:	2500      	movs	r5, #0
   1777e:	2301      	movs	r3, #1
   17780:	469a      	mov	sl, r3
   17782:	6833      	ldr	r3, [r6, #0]
   17784:	789a      	ldrb	r2, [r3, #2]
   17786:	42aa      	cmp	r2, r5
   17788:	d90e      	bls.n	177a8 <dir_next+0xf0>
   1778a:	4652      	mov	r2, sl
   1778c:	711a      	strb	r2, [r3, #4]
   1778e:	2100      	movs	r1, #0
   17790:	6830      	ldr	r0, [r6, #0]
   17792:	4b0f      	ldr	r3, [pc, #60]	; (177d0 <dir_next+0x118>)
   17794:	4798      	blx	r3
   17796:	2800      	cmp	r0, #0
   17798:	d113      	bne.n	177c2 <dir_next+0x10a>
   1779a:	6832      	ldr	r2, [r6, #0]
   1779c:	6ad3      	ldr	r3, [r2, #44]	; 0x2c
   1779e:	3301      	adds	r3, #1
   177a0:	62d3      	str	r3, [r2, #44]	; 0x2c
   177a2:	3501      	adds	r5, #1
   177a4:	b2ed      	uxtb	r5, r5
   177a6:	e7ec      	b.n	17782 <dir_next+0xca>
   177a8:	6ada      	ldr	r2, [r3, #44]	; 0x2c
   177aa:	1b52      	subs	r2, r2, r5
   177ac:	62da      	str	r2, [r3, #44]	; 0x2c
   177ae:	4643      	mov	r3, r8
   177b0:	60f3      	str	r3, [r6, #12]
   177b2:	4641      	mov	r1, r8
   177b4:	6830      	ldr	r0, [r6, #0]
   177b6:	4b08      	ldr	r3, [pc, #32]	; (177d8 <dir_next+0x120>)
   177b8:	4798      	blx	r3
   177ba:	6130      	str	r0, [r6, #16]
   177bc:	e7a2      	b.n	17704 <dir_next+0x4c>
   177be:	2001      	movs	r0, #1
   177c0:	e786      	b.n	176d0 <dir_next+0x18>
   177c2:	2001      	movs	r0, #1
   177c4:	e784      	b.n	176d0 <dir_next+0x18>
   177c6:	46c0      	nop			; (mov r8, r8)
   177c8:	000172a1 	.word	0x000172a1
   177cc:	0001757d 	.word	0x0001757d
   177d0:	00017201 	.word	0x00017201
   177d4:	00016d35 	.word	0x00016d35
   177d8:	00016d47 	.word	0x00016d47

000177dc <dir_find>:
   177dc:	b5f0      	push	{r4, r5, r6, r7, lr}
   177de:	46de      	mov	lr, fp
   177e0:	4657      	mov	r7, sl
   177e2:	464e      	mov	r6, r9
   177e4:	4645      	mov	r5, r8
   177e6:	b5e0      	push	{r5, r6, r7, lr}
   177e8:	b083      	sub	sp, #12
   177ea:	0005      	movs	r5, r0
   177ec:	2100      	movs	r1, #0
   177ee:	4b5a      	ldr	r3, [pc, #360]	; (17958 <dir_find+0x17c>)
   177f0:	4798      	blx	r3
   177f2:	1e07      	subs	r7, r0, #0
   177f4:	d000      	beq.n	177f8 <dir_find+0x1c>
   177f6:	e09e      	b.n	17936 <dir_find+0x15a>
   177f8:	23ff      	movs	r3, #255	; 0xff
   177fa:	4699      	mov	r9, r3
   177fc:	469a      	mov	sl, r3
   177fe:	4b57      	ldr	r3, [pc, #348]	; (1795c <dir_find+0x180>)
   17800:	469b      	mov	fp, r3
   17802:	e01b      	b.n	1783c <dir_find+0x60>
   17804:	2b0f      	cmp	r3, #15
   17806:	d030      	beq.n	1786a <dir_find+0x8e>
   17808:	4653      	mov	r3, sl
   1780a:	2b00      	cmp	r3, #0
   1780c:	d105      	bne.n	1781a <dir_find+0x3e>
   1780e:	0020      	movs	r0, r4
   17810:	4b53      	ldr	r3, [pc, #332]	; (17960 <dir_find+0x184>)
   17812:	4798      	blx	r3
   17814:	4581      	cmp	r9, r0
   17816:	d100      	bne.n	1781a <dir_find+0x3e>
   17818:	e08d      	b.n	17936 <dir_find+0x15a>
   1781a:	2301      	movs	r3, #1
   1781c:	425b      	negs	r3, r3
   1781e:	842b      	strh	r3, [r5, #32]
   17820:	69a8      	ldr	r0, [r5, #24]
   17822:	7ac3      	ldrb	r3, [r0, #11]
   17824:	07db      	lsls	r3, r3, #31
   17826:	d400      	bmi.n	1782a <dir_find+0x4e>
   17828:	e07d      	b.n	17926 <dir_find+0x14a>
   1782a:	23ff      	movs	r3, #255	; 0xff
   1782c:	469a      	mov	sl, r3
   1782e:	2100      	movs	r1, #0
   17830:	0028      	movs	r0, r5
   17832:	4b4c      	ldr	r3, [pc, #304]	; (17964 <dir_find+0x188>)
   17834:	4798      	blx	r3
   17836:	1e07      	subs	r7, r0, #0
   17838:	d000      	beq.n	1783c <dir_find+0x60>
   1783a:	e07c      	b.n	17936 <dir_find+0x15a>
   1783c:	6929      	ldr	r1, [r5, #16]
   1783e:	6828      	ldr	r0, [r5, #0]
   17840:	47d8      	blx	fp
   17842:	1e07      	subs	r7, r0, #0
   17844:	d177      	bne.n	17936 <dir_find+0x15a>
   17846:	696c      	ldr	r4, [r5, #20]
   17848:	7826      	ldrb	r6, [r4, #0]
   1784a:	2e00      	cmp	r6, #0
   1784c:	d100      	bne.n	17850 <dir_find+0x74>
   1784e:	e080      	b.n	17952 <dir_find+0x176>
   17850:	7ae2      	ldrb	r2, [r4, #11]
   17852:	233f      	movs	r3, #63	; 0x3f
   17854:	4013      	ands	r3, r2
   17856:	2ee5      	cmp	r6, #229	; 0xe5
   17858:	d100      	bne.n	1785c <dir_find+0x80>
   1785a:	e077      	b.n	1794c <dir_find+0x170>
   1785c:	0712      	lsls	r2, r2, #28
   1785e:	d5d1      	bpl.n	17804 <dir_find+0x28>
   17860:	2b0f      	cmp	r3, #15
   17862:	d002      	beq.n	1786a <dir_find+0x8e>
   17864:	23ff      	movs	r3, #255	; 0xff
   17866:	469a      	mov	sl, r3
   17868:	e7e1      	b.n	1782e <dir_find+0x52>
   1786a:	69ef      	ldr	r7, [r5, #28]
   1786c:	2f00      	cmp	r7, #0
   1786e:	d0de      	beq.n	1782e <dir_find+0x52>
   17870:	0673      	lsls	r3, r6, #25
   17872:	d518      	bpl.n	178a6 <dir_find+0xca>
   17874:	7b63      	ldrb	r3, [r4, #13]
   17876:	4699      	mov	r9, r3
   17878:	2340      	movs	r3, #64	; 0x40
   1787a:	439e      	bics	r6, r3
   1787c:	88eb      	ldrh	r3, [r5, #6]
   1787e:	842b      	strh	r3, [r5, #32]
   17880:	7b63      	ldrb	r3, [r4, #13]
   17882:	9300      	str	r3, [sp, #0]
   17884:	22ff      	movs	r2, #255	; 0xff
   17886:	4692      	mov	sl, r2
   17888:	454b      	cmp	r3, r9
   1788a:	d1d0      	bne.n	1782e <dir_find+0x52>
   1788c:	7823      	ldrb	r3, [r4, #0]
   1788e:	3abf      	subs	r2, #191	; 0xbf
   17890:	4393      	bics	r3, r2
   17892:	3b01      	subs	r3, #1
   17894:	005a      	lsls	r2, r3, #1
   17896:	18d2      	adds	r2, r2, r3
   17898:	0092      	lsls	r2, r2, #2
   1789a:	4692      	mov	sl, r2
   1789c:	449a      	add	sl, r3
   1789e:	2201      	movs	r2, #1
   178a0:	2300      	movs	r3, #0
   178a2:	4699      	mov	r9, r3
   178a4:	e01d      	b.n	178e2 <dir_find+0x106>
   178a6:	45b2      	cmp	sl, r6
   178a8:	d0ea      	beq.n	17880 <dir_find+0xa4>
   178aa:	23ff      	movs	r3, #255	; 0xff
   178ac:	469a      	mov	sl, r3
   178ae:	e7be      	b.n	1782e <dir_find+0x52>
   178b0:	4b2d      	ldr	r3, [pc, #180]	; (17968 <dir_find+0x18c>)
   178b2:	4798      	blx	r3
   178b4:	9001      	str	r0, [sp, #4]
   178b6:	4653      	mov	r3, sl
   178b8:	2bfe      	cmp	r3, #254	; 0xfe
   178ba:	d81f      	bhi.n	178fc <dir_find+0x120>
   178bc:	2301      	movs	r3, #1
   178be:	4453      	add	r3, sl
   178c0:	4698      	mov	r8, r3
   178c2:	4653      	mov	r3, sl
   178c4:	005b      	lsls	r3, r3, #1
   178c6:	5bd8      	ldrh	r0, [r3, r7]
   178c8:	4b27      	ldr	r3, [pc, #156]	; (17968 <dir_find+0x18c>)
   178ca:	4798      	blx	r3
   178cc:	0002      	movs	r2, r0
   178ce:	9b01      	ldr	r3, [sp, #4]
   178d0:	4283      	cmp	r3, r0
   178d2:	d113      	bne.n	178fc <dir_find+0x120>
   178d4:	46c2      	mov	sl, r8
   178d6:	2301      	movs	r3, #1
   178d8:	469c      	mov	ip, r3
   178da:	44e1      	add	r9, ip
   178dc:	464b      	mov	r3, r9
   178de:	2b0d      	cmp	r3, #13
   178e0:	d011      	beq.n	17906 <dir_find+0x12a>
   178e2:	4b22      	ldr	r3, [pc, #136]	; (1796c <dir_find+0x190>)
   178e4:	4649      	mov	r1, r9
   178e6:	5cc9      	ldrb	r1, [r1, r3]
   178e8:	1863      	adds	r3, r4, r1
   178ea:	785b      	ldrb	r3, [r3, #1]
   178ec:	021b      	lsls	r3, r3, #8
   178ee:	5c60      	ldrb	r0, [r4, r1]
   178f0:	4318      	orrs	r0, r3
   178f2:	2a00      	cmp	r2, #0
   178f4:	d1dc      	bne.n	178b0 <dir_find+0xd4>
   178f6:	4b1e      	ldr	r3, [pc, #120]	; (17970 <dir_find+0x194>)
   178f8:	4298      	cmp	r0, r3
   178fa:	d0ec      	beq.n	178d6 <dir_find+0xfa>
   178fc:	9b00      	ldr	r3, [sp, #0]
   178fe:	4699      	mov	r9, r3
   17900:	23ff      	movs	r3, #255	; 0xff
   17902:	469a      	mov	sl, r3
   17904:	e793      	b.n	1782e <dir_find+0x52>
   17906:	7823      	ldrb	r3, [r4, #0]
   17908:	065b      	lsls	r3, r3, #25
   1790a:	d506      	bpl.n	1791a <dir_find+0x13e>
   1790c:	2a00      	cmp	r2, #0
   1790e:	d004      	beq.n	1791a <dir_find+0x13e>
   17910:	4653      	mov	r3, sl
   17912:	005b      	lsls	r3, r3, #1
   17914:	5bdb      	ldrh	r3, [r3, r7]
   17916:	2b00      	cmp	r3, #0
   17918:	d1f0      	bne.n	178fc <dir_find+0x120>
   1791a:	3e01      	subs	r6, #1
   1791c:	b2f3      	uxtb	r3, r6
   1791e:	469a      	mov	sl, r3
   17920:	9b00      	ldr	r3, [sp, #0]
   17922:	4699      	mov	r9, r3
   17924:	e783      	b.n	1782e <dir_find+0x52>
   17926:	2300      	movs	r3, #0
   17928:	5ce1      	ldrb	r1, [r4, r3]
   1792a:	5cc2      	ldrb	r2, [r0, r3]
   1792c:	4291      	cmp	r1, r2
   1792e:	d10a      	bne.n	17946 <dir_find+0x16a>
   17930:	3301      	adds	r3, #1
   17932:	2b0b      	cmp	r3, #11
   17934:	d1f8      	bne.n	17928 <dir_find+0x14c>
   17936:	0038      	movs	r0, r7
   17938:	b003      	add	sp, #12
   1793a:	bc3c      	pop	{r2, r3, r4, r5}
   1793c:	4690      	mov	r8, r2
   1793e:	4699      	mov	r9, r3
   17940:	46a2      	mov	sl, r4
   17942:	46ab      	mov	fp, r5
   17944:	bdf0      	pop	{r4, r5, r6, r7, pc}
   17946:	23ff      	movs	r3, #255	; 0xff
   17948:	469a      	mov	sl, r3
   1794a:	e770      	b.n	1782e <dir_find+0x52>
   1794c:	23ff      	movs	r3, #255	; 0xff
   1794e:	469a      	mov	sl, r3
   17950:	e76d      	b.n	1782e <dir_find+0x52>
   17952:	2704      	movs	r7, #4
   17954:	e7ef      	b.n	17936 <dir_find+0x15a>
   17956:	46c0      	nop			; (mov r8, r8)
   17958:	0001739d 	.word	0x0001739d
   1795c:	00017201 	.word	0x00017201
   17960:	00016d5f 	.word	0x00016d5f
   17964:	000176b9 	.word	0x000176b9
   17968:	000185b5 	.word	0x000185b5
   1796c:	0001974c 	.word	0x0001974c
   17970:	0000ffff 	.word	0x0000ffff

00017974 <dir_register>:
   17974:	b5f0      	push	{r4, r5, r6, r7, lr}
   17976:	46de      	mov	lr, fp
   17978:	4657      	mov	r7, sl
   1797a:	464e      	mov	r6, r9
   1797c:	4645      	mov	r5, r8
   1797e:	b5e0      	push	{r5, r6, r7, lr}
   17980:	b089      	sub	sp, #36	; 0x24
   17982:	0004      	movs	r4, r0
   17984:	6987      	ldr	r7, [r0, #24]
   17986:	69c3      	ldr	r3, [r0, #28]
   17988:	469a      	mov	sl, r3
   1798a:	ad05      	add	r5, sp, #20
   1798c:	220c      	movs	r2, #12
   1798e:	0039      	movs	r1, r7
   17990:	0028      	movs	r0, r5
   17992:	4ba7      	ldr	r3, [pc, #668]	; (17c30 <dir_register+0x2bc>)
   17994:	4798      	blx	r3
   17996:	7aeb      	ldrb	r3, [r5, #11]
   17998:	07db      	lsls	r3, r3, #31
   1799a:	d400      	bmi.n	1799e <dir_register+0x2a>
   1799c:	e070      	b.n	17a80 <dir_register+0x10c>
   1799e:	2300      	movs	r3, #0
   179a0:	72fb      	strb	r3, [r7, #11]
   179a2:	61e3      	str	r3, [r4, #28]
   179a4:	220b      	movs	r2, #11
   179a6:	a905      	add	r1, sp, #20
   179a8:	0038      	movs	r0, r7
   179aa:	4ba1      	ldr	r3, [pc, #644]	; (17c30 <dir_register+0x2bc>)
   179ac:	4798      	blx	r3
   179ae:	2301      	movs	r3, #1
   179b0:	ad03      	add	r5, sp, #12
   179b2:	001e      	movs	r6, r3
   179b4:	46a0      	mov	r8, r4
   179b6:	e049      	b.n	17a4c <dir_register+0xd8>
   179b8:	3801      	subs	r0, #1
   179ba:	1829      	adds	r1, r5, r0
   179bc:	704a      	strb	r2, [r1, #1]
   179be:	091b      	lsrs	r3, r3, #4
   179c0:	b29b      	uxth	r3, r3
   179c2:	2b00      	cmp	r3, #0
   179c4:	d007      	beq.n	179d6 <dir_register+0x62>
   179c6:	0021      	movs	r1, r4
   179c8:	4019      	ands	r1, r3
   179ca:	000a      	movs	r2, r1
   179cc:	3230      	adds	r2, #48	; 0x30
   179ce:	2a39      	cmp	r2, #57	; 0x39
   179d0:	d9f2      	bls.n	179b8 <dir_register+0x44>
   179d2:	3207      	adds	r2, #7
   179d4:	e7f0      	b.n	179b8 <dir_register+0x44>
   179d6:	337e      	adds	r3, #126	; 0x7e
   179d8:	542b      	strb	r3, [r5, r0]
   179da:	2800      	cmp	r0, #0
   179dc:	d00a      	beq.n	179f4 <dir_register+0x80>
   179de:	783b      	ldrb	r3, [r7, #0]
   179e0:	2b20      	cmp	r3, #32
   179e2:	d009      	beq.n	179f8 <dir_register+0x84>
   179e4:	2300      	movs	r3, #0
   179e6:	3301      	adds	r3, #1
   179e8:	4298      	cmp	r0, r3
   179ea:	d007      	beq.n	179fc <dir_register+0x88>
   179ec:	5cfa      	ldrb	r2, [r7, r3]
   179ee:	2a20      	cmp	r2, #32
   179f0:	d1f9      	bne.n	179e6 <dir_register+0x72>
   179f2:	e009      	b.n	17a08 <dir_register+0x94>
   179f4:	0003      	movs	r3, r0
   179f6:	e007      	b.n	17a08 <dir_register+0x94>
   179f8:	2300      	movs	r3, #0
   179fa:	e005      	b.n	17a08 <dir_register+0x94>
   179fc:	0003      	movs	r3, r0
   179fe:	e003      	b.n	17a08 <dir_register+0x94>
   17a00:	54fa      	strb	r2, [r7, r3]
   17a02:	3301      	adds	r3, #1
   17a04:	2b07      	cmp	r3, #7
   17a06:	d805      	bhi.n	17a14 <dir_register+0xa0>
   17a08:	2220      	movs	r2, #32
   17a0a:	2807      	cmp	r0, #7
   17a0c:	d8f8      	bhi.n	17a00 <dir_register+0x8c>
   17a0e:	5c2a      	ldrb	r2, [r5, r0]
   17a10:	3001      	adds	r0, #1
   17a12:	e7f5      	b.n	17a00 <dir_register+0x8c>
   17a14:	4640      	mov	r0, r8
   17a16:	4b87      	ldr	r3, [pc, #540]	; (17c34 <dir_register+0x2c0>)
   17a18:	4798      	blx	r3
   17a1a:	2800      	cmp	r0, #0
   17a1c:	d11c      	bne.n	17a58 <dir_register+0xe4>
   17a1e:	3601      	adds	r6, #1
   17a20:	b2b6      	uxth	r6, r6
   17a22:	2e64      	cmp	r6, #100	; 0x64
   17a24:	d015      	beq.n	17a52 <dir_register+0xde>
   17a26:	220b      	movs	r2, #11
   17a28:	a905      	add	r1, sp, #20
   17a2a:	0038      	movs	r0, r7
   17a2c:	4b80      	ldr	r3, [pc, #512]	; (17c30 <dir_register+0x2bc>)
   17a2e:	4798      	blx	r3
   17a30:	0033      	movs	r3, r6
   17a32:	2e05      	cmp	r6, #5
   17a34:	d90a      	bls.n	17a4c <dir_register+0xd8>
   17a36:	4651      	mov	r1, sl
   17a38:	085a      	lsrs	r2, r3, #1
   17a3a:	03db      	lsls	r3, r3, #15
   17a3c:	4313      	orrs	r3, r2
   17a3e:	880a      	ldrh	r2, [r1, #0]
   17a40:	189b      	adds	r3, r3, r2
   17a42:	b29b      	uxth	r3, r3
   17a44:	3102      	adds	r1, #2
   17a46:	880a      	ldrh	r2, [r1, #0]
   17a48:	2a00      	cmp	r2, #0
   17a4a:	d1f5      	bne.n	17a38 <dir_register+0xc4>
   17a4c:	2007      	movs	r0, #7
   17a4e:	240f      	movs	r4, #15
   17a50:	e7b9      	b.n	179c6 <dir_register+0x52>
   17a52:	2307      	movs	r3, #7
   17a54:	4698      	mov	r8, r3
   17a56:	e006      	b.n	17a66 <dir_register+0xf2>
   17a58:	4644      	mov	r4, r8
   17a5a:	4680      	mov	r8, r0
   17a5c:	2e64      	cmp	r6, #100	; 0x64
   17a5e:	d100      	bne.n	17a62 <dir_register+0xee>
   17a60:	e0a5      	b.n	17bae <dir_register+0x23a>
   17a62:	2804      	cmp	r0, #4
   17a64:	d007      	beq.n	17a76 <dir_register+0x102>
   17a66:	4640      	mov	r0, r8
   17a68:	b009      	add	sp, #36	; 0x24
   17a6a:	bc3c      	pop	{r2, r3, r4, r5}
   17a6c:	4690      	mov	r8, r2
   17a6e:	4699      	mov	r9, r3
   17a70:	46a2      	mov	sl, r4
   17a72:	46ab      	mov	fp, r5
   17a74:	bdf0      	pop	{r4, r5, r6, r7, pc}
   17a76:	ab05      	add	r3, sp, #20
   17a78:	7adb      	ldrb	r3, [r3, #11]
   17a7a:	72fb      	strb	r3, [r7, #11]
   17a7c:	4653      	mov	r3, sl
   17a7e:	61e3      	str	r3, [r4, #28]
   17a80:	ab05      	add	r3, sp, #20
   17a82:	7adb      	ldrb	r3, [r3, #11]
   17a84:	2201      	movs	r2, #1
   17a86:	4693      	mov	fp, r2
   17a88:	079b      	lsls	r3, r3, #30
   17a8a:	d511      	bpl.n	17ab0 <dir_register+0x13c>
   17a8c:	4653      	mov	r3, sl
   17a8e:	881b      	ldrh	r3, [r3, #0]
   17a90:	2b00      	cmp	r3, #0
   17a92:	d01b      	beq.n	17acc <dir_register+0x158>
   17a94:	2000      	movs	r0, #0
   17a96:	4652      	mov	r2, sl
   17a98:	3001      	adds	r0, #1
   17a9a:	b280      	uxth	r0, r0
   17a9c:	0043      	lsls	r3, r0, #1
   17a9e:	5a9b      	ldrh	r3, [r3, r2]
   17aa0:	2b00      	cmp	r3, #0
   17aa2:	d1f9      	bne.n	17a98 <dir_register+0x124>
   17aa4:	3019      	adds	r0, #25
   17aa6:	210d      	movs	r1, #13
   17aa8:	4b63      	ldr	r3, [pc, #396]	; (17c38 <dir_register+0x2c4>)
   17aaa:	4798      	blx	r3
   17aac:	b283      	uxth	r3, r0
   17aae:	469b      	mov	fp, r3
   17ab0:	2100      	movs	r1, #0
   17ab2:	0020      	movs	r0, r4
   17ab4:	4b61      	ldr	r3, [pc, #388]	; (17c3c <dir_register+0x2c8>)
   17ab6:	4798      	blx	r3
   17ab8:	4680      	mov	r8, r0
   17aba:	2800      	cmp	r0, #0
   17abc:	d1d3      	bne.n	17a66 <dir_register+0xf2>
   17abe:	4682      	mov	sl, r0
   17ac0:	2500      	movs	r5, #0
   17ac2:	4f5f      	ldr	r7, [pc, #380]	; (17c40 <dir_register+0x2cc>)
   17ac4:	2600      	movs	r6, #0
   17ac6:	4b5f      	ldr	r3, [pc, #380]	; (17c44 <dir_register+0x2d0>)
   17ac8:	4699      	mov	r9, r3
   17aca:	e00b      	b.n	17ae4 <dir_register+0x170>
   17acc:	2000      	movs	r0, #0
   17ace:	e7e9      	b.n	17aa4 <dir_register+0x130>
   17ad0:	1c6b      	adds	r3, r5, #1
   17ad2:	b29b      	uxth	r3, r3
   17ad4:	459b      	cmp	fp, r3
   17ad6:	d06d      	beq.n	17bb4 <dir_register+0x240>
   17ad8:	001d      	movs	r5, r3
   17ada:	2101      	movs	r1, #1
   17adc:	0020      	movs	r0, r4
   17ade:	47c8      	blx	r9
   17ae0:	2800      	cmp	r0, #0
   17ae2:	d112      	bne.n	17b0a <dir_register+0x196>
   17ae4:	6921      	ldr	r1, [r4, #16]
   17ae6:	6820      	ldr	r0, [r4, #0]
   17ae8:	47b8      	blx	r7
   17aea:	2800      	cmp	r0, #0
   17aec:	d000      	beq.n	17af0 <dir_register+0x17c>
   17aee:	e098      	b.n	17c22 <dir_register+0x2ae>
   17af0:	6963      	ldr	r3, [r4, #20]
   17af2:	781b      	ldrb	r3, [r3, #0]
   17af4:	2be5      	cmp	r3, #229	; 0xe5
   17af6:	d001      	beq.n	17afc <dir_register+0x188>
   17af8:	2b00      	cmp	r3, #0
   17afa:	d104      	bne.n	17b06 <dir_register+0x192>
   17afc:	2d00      	cmp	r5, #0
   17afe:	d1e7      	bne.n	17ad0 <dir_register+0x15c>
   17b00:	88e3      	ldrh	r3, [r4, #6]
   17b02:	469a      	mov	sl, r3
   17b04:	e7e4      	b.n	17ad0 <dir_register+0x15c>
   17b06:	0035      	movs	r5, r6
   17b08:	e7e7      	b.n	17ada <dir_register+0x166>
   17b0a:	4680      	mov	r8, r0
   17b0c:	e7ab      	b.n	17a66 <dir_register+0xf2>
   17b0e:	4651      	mov	r1, sl
   17b10:	0020      	movs	r0, r4
   17b12:	4b4a      	ldr	r3, [pc, #296]	; (17c3c <dir_register+0x2c8>)
   17b14:	4798      	blx	r3
   17b16:	4680      	mov	r8, r0
   17b18:	2800      	cmp	r0, #0
   17b1a:	d1a4      	bne.n	17a66 <dir_register+0xf2>
   17b1c:	69a0      	ldr	r0, [r4, #24]
   17b1e:	4b4a      	ldr	r3, [pc, #296]	; (17c48 <dir_register+0x2d4>)
   17b20:	4798      	blx	r3
   17b22:	9001      	str	r0, [sp, #4]
   17b24:	46a8      	mov	r8, r5
   17b26:	e01f      	b.n	17b68 <dir_register+0x1f4>
   17b28:	0022      	movs	r2, r4
   17b2a:	e067      	b.n	17bfc <dir_register+0x288>
   17b2c:	465e      	mov	r6, fp
   17b2e:	4664      	mov	r4, ip
   17b30:	4946      	ldr	r1, [pc, #280]	; (17c4c <dir_register+0x2d8>)
   17b32:	428b      	cmp	r3, r1
   17b34:	d003      	beq.n	17b3e <dir_register+0x1ca>
   17b36:	0052      	lsls	r2, r2, #1
   17b38:	5b93      	ldrh	r3, [r2, r6]
   17b3a:	2b00      	cmp	r3, #0
   17b3c:	d103      	bne.n	17b46 <dir_register+0x1d2>
   17b3e:	2340      	movs	r3, #64	; 0x40
   17b40:	464a      	mov	r2, r9
   17b42:	431a      	orrs	r2, r3
   17b44:	4691      	mov	r9, r2
   17b46:	464b      	mov	r3, r9
   17b48:	7003      	strb	r3, [r0, #0]
   17b4a:	2301      	movs	r3, #1
   17b4c:	6822      	ldr	r2, [r4, #0]
   17b4e:	7113      	strb	r3, [r2, #4]
   17b50:	2100      	movs	r1, #0
   17b52:	0020      	movs	r0, r4
   17b54:	4b3b      	ldr	r3, [pc, #236]	; (17c44 <dir_register+0x2d0>)
   17b56:	4798      	blx	r3
   17b58:	2800      	cmp	r0, #0
   17b5a:	d166      	bne.n	17c2a <dir_register+0x2b6>
   17b5c:	4645      	mov	r5, r8
   17b5e:	3d01      	subs	r5, #1
   17b60:	b2ab      	uxth	r3, r5
   17b62:	4698      	mov	r8, r3
   17b64:	2b00      	cmp	r3, #0
   17b66:	d027      	beq.n	17bb8 <dir_register+0x244>
   17b68:	6921      	ldr	r1, [r4, #16]
   17b6a:	6820      	ldr	r0, [r4, #0]
   17b6c:	4b34      	ldr	r3, [pc, #208]	; (17c40 <dir_register+0x2cc>)
   17b6e:	4798      	blx	r3
   17b70:	2800      	cmp	r0, #0
   17b72:	d158      	bne.n	17c26 <dir_register+0x2b2>
   17b74:	69e6      	ldr	r6, [r4, #28]
   17b76:	6960      	ldr	r0, [r4, #20]
   17b78:	4643      	mov	r3, r8
   17b7a:	466a      	mov	r2, sp
   17b7c:	70d3      	strb	r3, [r2, #3]
   17b7e:	78d3      	ldrb	r3, [r2, #3]
   17b80:	4699      	mov	r9, r3
   17b82:	7913      	ldrb	r3, [r2, #4]
   17b84:	7343      	strb	r3, [r0, #13]
   17b86:	230f      	movs	r3, #15
   17b88:	72c3      	strb	r3, [r0, #11]
   17b8a:	2300      	movs	r3, #0
   17b8c:	7303      	strb	r3, [r0, #12]
   17b8e:	7683      	strb	r3, [r0, #26]
   17b90:	76c3      	strb	r3, [r0, #27]
   17b92:	464b      	mov	r3, r9
   17b94:	3b01      	subs	r3, #1
   17b96:	005a      	lsls	r2, r3, #1
   17b98:	18d2      	adds	r2, r2, r3
   17b9a:	0092      	lsls	r2, r2, #2
   17b9c:	18d2      	adds	r2, r2, r3
   17b9e:	492c      	ldr	r1, [pc, #176]	; (17c50 <dir_register+0x2dc>)
   17ba0:	000d      	movs	r5, r1
   17ba2:	350d      	adds	r5, #13
   17ba4:	2300      	movs	r3, #0
   17ba6:	4f29      	ldr	r7, [pc, #164]	; (17c4c <dir_register+0x2d8>)
   17ba8:	46b3      	mov	fp, r6
   17baa:	46a4      	mov	ip, r4
   17bac:	e029      	b.n	17c02 <dir_register+0x28e>
   17bae:	2307      	movs	r3, #7
   17bb0:	4698      	mov	r8, r3
   17bb2:	e758      	b.n	17a66 <dir_register+0xf2>
   17bb4:	2b01      	cmp	r3, #1
   17bb6:	d8aa      	bhi.n	17b0e <dir_register+0x19a>
   17bb8:	6921      	ldr	r1, [r4, #16]
   17bba:	6820      	ldr	r0, [r4, #0]
   17bbc:	4b20      	ldr	r3, [pc, #128]	; (17c40 <dir_register+0x2cc>)
   17bbe:	4798      	blx	r3
   17bc0:	4680      	mov	r8, r0
   17bc2:	2800      	cmp	r0, #0
   17bc4:	d000      	beq.n	17bc8 <dir_register+0x254>
   17bc6:	e74e      	b.n	17a66 <dir_register+0xf2>
   17bc8:	6965      	ldr	r5, [r4, #20]
   17bca:	2220      	movs	r2, #32
   17bcc:	2100      	movs	r1, #0
   17bce:	0028      	movs	r0, r5
   17bd0:	4b20      	ldr	r3, [pc, #128]	; (17c54 <dir_register+0x2e0>)
   17bd2:	4798      	blx	r3
   17bd4:	220b      	movs	r2, #11
   17bd6:	69a1      	ldr	r1, [r4, #24]
   17bd8:	0028      	movs	r0, r5
   17bda:	4b15      	ldr	r3, [pc, #84]	; (17c30 <dir_register+0x2bc>)
   17bdc:	4798      	blx	r3
   17bde:	69a3      	ldr	r3, [r4, #24]
   17be0:	7ada      	ldrb	r2, [r3, #11]
   17be2:	2318      	movs	r3, #24
   17be4:	4013      	ands	r3, r2
   17be6:	732b      	strb	r3, [r5, #12]
   17be8:	6823      	ldr	r3, [r4, #0]
   17bea:	2201      	movs	r2, #1
   17bec:	711a      	strb	r2, [r3, #4]
   17bee:	e73a      	b.n	17a66 <dir_register+0xf2>
   17bf0:	780c      	ldrb	r4, [r1, #0]
   17bf2:	26ff      	movs	r6, #255	; 0xff
   17bf4:	5506      	strb	r6, [r0, r4]
   17bf6:	1904      	adds	r4, r0, r4
   17bf8:	26ff      	movs	r6, #255	; 0xff
   17bfa:	7066      	strb	r6, [r4, #1]
   17bfc:	3101      	adds	r1, #1
   17bfe:	42a9      	cmp	r1, r5
   17c00:	d094      	beq.n	17b2c <dir_register+0x1b8>
   17c02:	42bb      	cmp	r3, r7
   17c04:	d0f4      	beq.n	17bf0 <dir_register+0x27c>
   17c06:	1c54      	adds	r4, r2, #1
   17c08:	0052      	lsls	r2, r2, #1
   17c0a:	465b      	mov	r3, fp
   17c0c:	5ad3      	ldrh	r3, [r2, r3]
   17c0e:	780a      	ldrb	r2, [r1, #0]
   17c10:	5483      	strb	r3, [r0, r2]
   17c12:	1882      	adds	r2, r0, r2
   17c14:	0a1e      	lsrs	r6, r3, #8
   17c16:	7056      	strb	r6, [r2, #1]
   17c18:	2b00      	cmp	r3, #0
   17c1a:	d185      	bne.n	17b28 <dir_register+0x1b4>
   17c1c:	0022      	movs	r2, r4
   17c1e:	003b      	movs	r3, r7
   17c20:	e7ec      	b.n	17bfc <dir_register+0x288>
   17c22:	4680      	mov	r8, r0
   17c24:	e71f      	b.n	17a66 <dir_register+0xf2>
   17c26:	4680      	mov	r8, r0
   17c28:	e71d      	b.n	17a66 <dir_register+0xf2>
   17c2a:	4680      	mov	r8, r0
   17c2c:	e71b      	b.n	17a66 <dir_register+0xf2>
   17c2e:	46c0      	nop			; (mov r8, r8)
   17c30:	00016d21 	.word	0x00016d21
   17c34:	000177dd 	.word	0x000177dd
   17c38:	00018965 	.word	0x00018965
   17c3c:	0001739d 	.word	0x0001739d
   17c40:	00017201 	.word	0x00017201
   17c44:	000176b9 	.word	0x000176b9
   17c48:	00016d5f 	.word	0x00016d5f
   17c4c:	0000ffff 	.word	0x0000ffff
   17c50:	0001974c 	.word	0x0001974c
   17c54:	00016d35 	.word	0x00016d35

00017c58 <dir_read>:
   17c58:	b5f0      	push	{r4, r5, r6, r7, lr}
   17c5a:	46de      	mov	lr, fp
   17c5c:	4657      	mov	r7, sl
   17c5e:	464e      	mov	r6, r9
   17c60:	4645      	mov	r5, r8
   17c62:	b5e0      	push	{r5, r6, r7, lr}
   17c64:	b083      	sub	sp, #12
   17c66:	0005      	movs	r5, r0
   17c68:	23ff      	movs	r3, #255	; 0xff
   17c6a:	4699      	mov	r9, r3
   17c6c:	26ff      	movs	r6, #255	; 0xff
   17c6e:	2404      	movs	r4, #4
   17c70:	4f44      	ldr	r7, [pc, #272]	; (17d84 <dir_read+0x12c>)
   17c72:	4b45      	ldr	r3, [pc, #276]	; (17d88 <dir_read+0x130>)
   17c74:	4698      	mov	r8, r3
   17c76:	e05b      	b.n	17d30 <dir_read+0xd8>
   17c78:	2a0f      	cmp	r2, #15
   17c7a:	d147      	bne.n	17d0c <dir_read+0xb4>
   17c7c:	065a      	lsls	r2, r3, #25
   17c7e:	d51a      	bpl.n	17cb6 <dir_read+0x5e>
   17c80:	7b42      	ldrb	r2, [r0, #13]
   17c82:	4691      	mov	r9, r2
   17c84:	2240      	movs	r2, #64	; 0x40
   17c86:	4393      	bics	r3, r2
   17c88:	88ea      	ldrh	r2, [r5, #6]
   17c8a:	842a      	strh	r2, [r5, #32]
   17c8c:	7b42      	ldrb	r2, [r0, #13]
   17c8e:	4694      	mov	ip, r2
   17c90:	26ff      	movs	r6, #255	; 0xff
   17c92:	454a      	cmp	r2, r9
   17c94:	d147      	bne.n	17d26 <dir_read+0xce>
   17c96:	69ea      	ldr	r2, [r5, #28]
   17c98:	4691      	mov	r9, r2
   17c9a:	7802      	ldrb	r2, [r0, #0]
   17c9c:	243f      	movs	r4, #63	; 0x3f
   17c9e:	4022      	ands	r2, r4
   17ca0:	3a01      	subs	r2, #1
   17ca2:	0054      	lsls	r4, r2, #1
   17ca4:	18a4      	adds	r4, r4, r2
   17ca6:	00a4      	lsls	r4, r4, #2
   17ca8:	18a2      	adds	r2, r4, r2
   17caa:	9201      	str	r2, [sp, #4]
   17cac:	3efe      	subs	r6, #254	; 0xfe
   17cae:	2100      	movs	r1, #0
   17cb0:	4a36      	ldr	r2, [pc, #216]	; (17d8c <dir_read+0x134>)
   17cb2:	4692      	mov	sl, r2
   17cb4:	e008      	b.n	17cc8 <dir_read+0x70>
   17cb6:	429e      	cmp	r6, r3
   17cb8:	d0e8      	beq.n	17c8c <dir_read+0x34>
   17cba:	26ff      	movs	r6, #255	; 0xff
   17cbc:	e033      	b.n	17d26 <dir_read+0xce>
   17cbe:	4552      	cmp	r2, sl
   17cc0:	d151      	bne.n	17d66 <dir_read+0x10e>
   17cc2:	3101      	adds	r1, #1
   17cc4:	290d      	cmp	r1, #13
   17cc6:	d013      	beq.n	17cf0 <dir_read+0x98>
   17cc8:	4a31      	ldr	r2, [pc, #196]	; (17d90 <dir_read+0x138>)
   17cca:	5c8a      	ldrb	r2, [r1, r2]
   17ccc:	1884      	adds	r4, r0, r2
   17cce:	7864      	ldrb	r4, [r4, #1]
   17cd0:	0224      	lsls	r4, r4, #8
   17cd2:	5c82      	ldrb	r2, [r0, r2]
   17cd4:	4322      	orrs	r2, r4
   17cd6:	2e00      	cmp	r6, #0
   17cd8:	d0f1      	beq.n	17cbe <dir_read+0x66>
   17cda:	9c01      	ldr	r4, [sp, #4]
   17cdc:	2cfe      	cmp	r4, #254	; 0xfe
   17cde:	d842      	bhi.n	17d66 <dir_read+0x10e>
   17ce0:	0066      	lsls	r6, r4, #1
   17ce2:	464c      	mov	r4, r9
   17ce4:	5332      	strh	r2, [r6, r4]
   17ce6:	0016      	movs	r6, r2
   17ce8:	9c01      	ldr	r4, [sp, #4]
   17cea:	3401      	adds	r4, #1
   17cec:	9401      	str	r4, [sp, #4]
   17cee:	e7e8      	b.n	17cc2 <dir_read+0x6a>
   17cf0:	7802      	ldrb	r2, [r0, #0]
   17cf2:	0652      	lsls	r2, r2, #25
   17cf4:	d506      	bpl.n	17d04 <dir_read+0xac>
   17cf6:	9a01      	ldr	r2, [sp, #4]
   17cf8:	2afe      	cmp	r2, #254	; 0xfe
   17cfa:	d834      	bhi.n	17d66 <dir_read+0x10e>
   17cfc:	0054      	lsls	r4, r2, #1
   17cfe:	2200      	movs	r2, #0
   17d00:	4649      	mov	r1, r9
   17d02:	5262      	strh	r2, [r4, r1]
   17d04:	3b01      	subs	r3, #1
   17d06:	b2de      	uxtb	r6, r3
   17d08:	46e1      	mov	r9, ip
   17d0a:	e00c      	b.n	17d26 <dir_read+0xce>
   17d0c:	2e00      	cmp	r6, #0
   17d0e:	d103      	bne.n	17d18 <dir_read+0xc0>
   17d10:	4b20      	ldr	r3, [pc, #128]	; (17d94 <dir_read+0x13c>)
   17d12:	4798      	blx	r3
   17d14:	4581      	cmp	r9, r0
   17d16:	d02c      	beq.n	17d72 <dir_read+0x11a>
   17d18:	2301      	movs	r3, #1
   17d1a:	425b      	negs	r3, r3
   17d1c:	842b      	strh	r3, [r5, #32]
   17d1e:	e028      	b.n	17d72 <dir_read+0x11a>
   17d20:	26ff      	movs	r6, #255	; 0xff
   17d22:	e000      	b.n	17d26 <dir_read+0xce>
   17d24:	26ff      	movs	r6, #255	; 0xff
   17d26:	2100      	movs	r1, #0
   17d28:	0028      	movs	r0, r5
   17d2a:	47c0      	blx	r8
   17d2c:	1e04      	subs	r4, r0, #0
   17d2e:	d11e      	bne.n	17d6e <dir_read+0x116>
   17d30:	6929      	ldr	r1, [r5, #16]
   17d32:	2900      	cmp	r1, #0
   17d34:	d014      	beq.n	17d60 <dir_read+0x108>
   17d36:	6828      	ldr	r0, [r5, #0]
   17d38:	47b8      	blx	r7
   17d3a:	1e04      	subs	r4, r0, #0
   17d3c:	d117      	bne.n	17d6e <dir_read+0x116>
   17d3e:	6968      	ldr	r0, [r5, #20]
   17d40:	7803      	ldrb	r3, [r0, #0]
   17d42:	2b00      	cmp	r3, #0
   17d44:	d012      	beq.n	17d6c <dir_read+0x114>
   17d46:	2be5      	cmp	r3, #229	; 0xe5
   17d48:	d0ea      	beq.n	17d20 <dir_read+0xc8>
   17d4a:	2b2e      	cmp	r3, #46	; 0x2e
   17d4c:	d0ea      	beq.n	17d24 <dir_read+0xcc>
   17d4e:	7ac1      	ldrb	r1, [r0, #11]
   17d50:	223f      	movs	r2, #63	; 0x3f
   17d52:	400a      	ands	r2, r1
   17d54:	0709      	lsls	r1, r1, #28
   17d56:	d58f      	bpl.n	17c78 <dir_read+0x20>
   17d58:	2a0f      	cmp	r2, #15
   17d5a:	d08f      	beq.n	17c7c <dir_read+0x24>
   17d5c:	26ff      	movs	r6, #255	; 0xff
   17d5e:	e7e2      	b.n	17d26 <dir_read+0xce>
   17d60:	2c00      	cmp	r4, #0
   17d62:	d006      	beq.n	17d72 <dir_read+0x11a>
   17d64:	e003      	b.n	17d6e <dir_read+0x116>
   17d66:	46e1      	mov	r9, ip
   17d68:	26ff      	movs	r6, #255	; 0xff
   17d6a:	e7dc      	b.n	17d26 <dir_read+0xce>
   17d6c:	2404      	movs	r4, #4
   17d6e:	2300      	movs	r3, #0
   17d70:	612b      	str	r3, [r5, #16]
   17d72:	0020      	movs	r0, r4
   17d74:	b003      	add	sp, #12
   17d76:	bc3c      	pop	{r2, r3, r4, r5}
   17d78:	4690      	mov	r8, r2
   17d7a:	4699      	mov	r9, r3
   17d7c:	46a2      	mov	sl, r4
   17d7e:	46ab      	mov	fp, r5
   17d80:	bdf0      	pop	{r4, r5, r6, r7, pc}
   17d82:	46c0      	nop			; (mov r8, r8)
   17d84:	00017201 	.word	0x00017201
   17d88:	000176b9 	.word	0x000176b9
   17d8c:	0000ffff 	.word	0x0000ffff
   17d90:	0001974c 	.word	0x0001974c
   17d94:	00016d5f 	.word	0x00016d5f

00017d98 <dir_remove>:
   17d98:	b5f0      	push	{r4, r5, r6, r7, lr}
   17d9a:	46c6      	mov	lr, r8
   17d9c:	b500      	push	{lr}
   17d9e:	0004      	movs	r4, r0
   17da0:	88c5      	ldrh	r5, [r0, #6]
   17da2:	8c01      	ldrh	r1, [r0, #32]
   17da4:	4b12      	ldr	r3, [pc, #72]	; (17df0 <dir_remove+0x58>)
   17da6:	4299      	cmp	r1, r3
   17da8:	d020      	beq.n	17dec <dir_remove+0x54>
   17daa:	0020      	movs	r0, r4
   17dac:	4b11      	ldr	r3, [pc, #68]	; (17df4 <dir_remove+0x5c>)
   17dae:	4798      	blx	r3
   17db0:	2800      	cmp	r0, #0
   17db2:	d118      	bne.n	17de6 <dir_remove+0x4e>
   17db4:	4e10      	ldr	r6, [pc, #64]	; (17df8 <dir_remove+0x60>)
   17db6:	27e5      	movs	r7, #229	; 0xe5
   17db8:	4b10      	ldr	r3, [pc, #64]	; (17dfc <dir_remove+0x64>)
   17dba:	4698      	mov	r8, r3
   17dbc:	6921      	ldr	r1, [r4, #16]
   17dbe:	6820      	ldr	r0, [r4, #0]
   17dc0:	47b0      	blx	r6
   17dc2:	2800      	cmp	r0, #0
   17dc4:	d10c      	bne.n	17de0 <dir_remove+0x48>
   17dc6:	6963      	ldr	r3, [r4, #20]
   17dc8:	701f      	strb	r7, [r3, #0]
   17dca:	2301      	movs	r3, #1
   17dcc:	6822      	ldr	r2, [r4, #0]
   17dce:	7113      	strb	r3, [r2, #4]
   17dd0:	88e3      	ldrh	r3, [r4, #6]
   17dd2:	42ab      	cmp	r3, r5
   17dd4:	d207      	bcs.n	17de6 <dir_remove+0x4e>
   17dd6:	2100      	movs	r1, #0
   17dd8:	0020      	movs	r0, r4
   17dda:	47c0      	blx	r8
   17ddc:	2800      	cmp	r0, #0
   17dde:	d0ed      	beq.n	17dbc <dir_remove+0x24>
   17de0:	2804      	cmp	r0, #4
   17de2:	d100      	bne.n	17de6 <dir_remove+0x4e>
   17de4:	3802      	subs	r0, #2
   17de6:	bc04      	pop	{r2}
   17de8:	4690      	mov	r8, r2
   17dea:	bdf0      	pop	{r4, r5, r6, r7, pc}
   17dec:	0029      	movs	r1, r5
   17dee:	e7dc      	b.n	17daa <dir_remove+0x12>
   17df0:	0000ffff 	.word	0x0000ffff
   17df4:	0001739d 	.word	0x0001739d
   17df8:	00017201 	.word	0x00017201
   17dfc:	000176b9 	.word	0x000176b9

00017e00 <sync>:
   17e00:	b570      	push	{r4, r5, r6, lr}
   17e02:	0004      	movs	r4, r0
   17e04:	2100      	movs	r1, #0
   17e06:	4b2c      	ldr	r3, [pc, #176]	; (17eb8 <sync+0xb8>)
   17e08:	4798      	blx	r3
   17e0a:	2800      	cmp	r0, #0
   17e0c:	d10a      	bne.n	17e24 <sync+0x24>
   17e0e:	7823      	ldrb	r3, [r4, #0]
   17e10:	2b03      	cmp	r3, #3
   17e12:	d008      	beq.n	17e26 <sync+0x26>
   17e14:	7860      	ldrb	r0, [r4, #1]
   17e16:	2200      	movs	r2, #0
   17e18:	2100      	movs	r1, #0
   17e1a:	4b28      	ldr	r3, [pc, #160]	; (17ebc <sync+0xbc>)
   17e1c:	4798      	blx	r3
   17e1e:	1e43      	subs	r3, r0, #1
   17e20:	4198      	sbcs	r0, r3
   17e22:	b2c0      	uxtb	r0, r0
   17e24:	bd70      	pop	{r4, r5, r6, pc}
   17e26:	7963      	ldrb	r3, [r4, #5]
   17e28:	2b00      	cmp	r3, #0
   17e2a:	d0f3      	beq.n	17e14 <sync+0x14>
   17e2c:	2600      	movs	r6, #0
   17e2e:	62e6      	str	r6, [r4, #44]	; 0x2c
   17e30:	0025      	movs	r5, r4
   17e32:	3530      	adds	r5, #48	; 0x30
   17e34:	2280      	movs	r2, #128	; 0x80
   17e36:	0092      	lsls	r2, r2, #2
   17e38:	2100      	movs	r1, #0
   17e3a:	0028      	movs	r0, r5
   17e3c:	4b20      	ldr	r3, [pc, #128]	; (17ec0 <sync+0xc0>)
   17e3e:	4798      	blx	r3
   17e40:	2255      	movs	r2, #85	; 0x55
   17e42:	4b20      	ldr	r3, [pc, #128]	; (17ec4 <sync+0xc4>)
   17e44:	54e2      	strb	r2, [r4, r3]
   17e46:	3255      	adds	r2, #85	; 0x55
   17e48:	4b1f      	ldr	r3, [pc, #124]	; (17ec8 <sync+0xc8>)
   17e4a:	54e2      	strb	r2, [r4, r3]
   17e4c:	3bde      	subs	r3, #222	; 0xde
   17e4e:	3bff      	subs	r3, #255	; 0xff
   17e50:	3a7a      	subs	r2, #122	; 0x7a
   17e52:	54a3      	strb	r3, [r4, r2]
   17e54:	3201      	adds	r2, #1
   17e56:	54a3      	strb	r3, [r4, r2]
   17e58:	330f      	adds	r3, #15
   17e5a:	3201      	adds	r2, #1
   17e5c:	54a3      	strb	r3, [r4, r2]
   17e5e:	320f      	adds	r2, #15
   17e60:	2133      	movs	r1, #51	; 0x33
   17e62:	5462      	strb	r2, [r4, r1]
   17e64:	313f      	adds	r1, #63	; 0x3f
   17e66:	2085      	movs	r0, #133	; 0x85
   17e68:	0080      	lsls	r0, r0, #2
   17e6a:	5421      	strb	r1, [r4, r0]
   17e6c:	4817      	ldr	r0, [pc, #92]	; (17ecc <sync+0xcc>)
   17e6e:	5421      	strb	r1, [r4, r0]
   17e70:	4917      	ldr	r1, [pc, #92]	; (17ed0 <sync+0xd0>)
   17e72:	5462      	strb	r2, [r4, r1]
   17e74:	4a17      	ldr	r2, [pc, #92]	; (17ed4 <sync+0xd4>)
   17e76:	54a3      	strb	r3, [r4, r2]
   17e78:	6923      	ldr	r3, [r4, #16]
   17e7a:	3201      	adds	r2, #1
   17e7c:	54a3      	strb	r3, [r4, r2]
   17e7e:	0a19      	lsrs	r1, r3, #8
   17e80:	4a15      	ldr	r2, [pc, #84]	; (17ed8 <sync+0xd8>)
   17e82:	54a1      	strb	r1, [r4, r2]
   17e84:	0c19      	lsrs	r1, r3, #16
   17e86:	4a15      	ldr	r2, [pc, #84]	; (17edc <sync+0xdc>)
   17e88:	54a1      	strb	r1, [r4, r2]
   17e8a:	0e1b      	lsrs	r3, r3, #24
   17e8c:	4a14      	ldr	r2, [pc, #80]	; (17ee0 <sync+0xe0>)
   17e8e:	54a3      	strb	r3, [r4, r2]
   17e90:	68e3      	ldr	r3, [r4, #12]
   17e92:	3201      	adds	r2, #1
   17e94:	54a3      	strb	r3, [r4, r2]
   17e96:	0a19      	lsrs	r1, r3, #8
   17e98:	4a12      	ldr	r2, [pc, #72]	; (17ee4 <sync+0xe4>)
   17e9a:	54a1      	strb	r1, [r4, r2]
   17e9c:	0c19      	lsrs	r1, r3, #16
   17e9e:	4a12      	ldr	r2, [pc, #72]	; (17ee8 <sync+0xe8>)
   17ea0:	54a1      	strb	r1, [r4, r2]
   17ea2:	0e1b      	lsrs	r3, r3, #24
   17ea4:	4a11      	ldr	r2, [pc, #68]	; (17eec <sync+0xec>)
   17ea6:	54a3      	strb	r3, [r4, r2]
   17ea8:	7860      	ldrb	r0, [r4, #1]
   17eaa:	2301      	movs	r3, #1
   17eac:	6962      	ldr	r2, [r4, #20]
   17eae:	0029      	movs	r1, r5
   17eb0:	4d0f      	ldr	r5, [pc, #60]	; (17ef0 <sync+0xf0>)
   17eb2:	47a8      	blx	r5
   17eb4:	7166      	strb	r6, [r4, #5]
   17eb6:	e7ad      	b.n	17e14 <sync+0x14>
   17eb8:	00017201 	.word	0x00017201
   17ebc:	00016c65 	.word	0x00016c65
   17ec0:	00016d35 	.word	0x00016d35
   17ec4:	0000022e 	.word	0x0000022e
   17ec8:	0000022f 	.word	0x0000022f
   17ecc:	00000215 	.word	0x00000215
   17ed0:	00000216 	.word	0x00000216
   17ed4:	00000217 	.word	0x00000217
   17ed8:	00000219 	.word	0x00000219
   17edc:	0000021a 	.word	0x0000021a
   17ee0:	0000021b 	.word	0x0000021b
   17ee4:	0000021d 	.word	0x0000021d
   17ee8:	0000021e 	.word	0x0000021e
   17eec:	0000021f 	.word	0x0000021f
   17ef0:	00016be1 	.word	0x00016be1

00017ef4 <follow_path>:
   17ef4:	b5f0      	push	{r4, r5, r6, r7, lr}
   17ef6:	46de      	mov	lr, fp
   17ef8:	4657      	mov	r7, sl
   17efa:	464e      	mov	r6, r9
   17efc:	4645      	mov	r5, r8
   17efe:	b5e0      	push	{r5, r6, r7, lr}
   17f00:	b083      	sub	sp, #12
   17f02:	4682      	mov	sl, r0
   17f04:	000d      	movs	r5, r1
   17f06:	780b      	ldrb	r3, [r1, #0]
   17f08:	2b2f      	cmp	r3, #47	; 0x2f
   17f0a:	d00f      	beq.n	17f2c <follow_path+0x38>
   17f0c:	2b5c      	cmp	r3, #92	; 0x5c
   17f0e:	d00d      	beq.n	17f2c <follow_path+0x38>
   17f10:	2300      	movs	r3, #0
   17f12:	4652      	mov	r2, sl
   17f14:	6093      	str	r3, [r2, #8]
   17f16:	782b      	ldrb	r3, [r5, #0]
   17f18:	4657      	mov	r7, sl
   17f1a:	2b1f      	cmp	r3, #31
   17f1c:	d809      	bhi.n	17f32 <follow_path+0x3e>
   17f1e:	2100      	movs	r1, #0
   17f20:	4650      	mov	r0, sl
   17f22:	4bb2      	ldr	r3, [pc, #712]	; (181ec <follow_path+0x2f8>)
   17f24:	4798      	blx	r3
   17f26:	2300      	movs	r3, #0
   17f28:	617b      	str	r3, [r7, #20]
   17f2a:	e13a      	b.n	181a2 <follow_path+0x2ae>
   17f2c:	3501      	adds	r5, #1
   17f2e:	e7ef      	b.n	17f10 <follow_path+0x1c>
   17f30:	3501      	adds	r5, #1
   17f32:	7828      	ldrb	r0, [r5, #0]
   17f34:	282f      	cmp	r0, #47	; 0x2f
   17f36:	d0fb      	beq.n	17f30 <follow_path+0x3c>
   17f38:	285c      	cmp	r0, #92	; 0x5c
   17f3a:	d0f9      	beq.n	17f30 <follow_path+0x3c>
   17f3c:	69fb      	ldr	r3, [r7, #28]
   17f3e:	469a      	mov	sl, r3
   17f40:	b280      	uxth	r0, r0
   17f42:	281f      	cmp	r0, #31
   17f44:	d800      	bhi.n	17f48 <follow_path+0x54>
   17f46:	e13b      	b.n	181c0 <follow_path+0x2cc>
   17f48:	282f      	cmp	r0, #47	; 0x2f
   17f4a:	d100      	bne.n	17f4e <follow_path+0x5a>
   17f4c:	e13b      	b.n	181c6 <follow_path+0x2d2>
   17f4e:	285c      	cmp	r0, #92	; 0x5c
   17f50:	d100      	bne.n	17f54 <follow_path+0x60>
   17f52:	e13b      	b.n	181cc <follow_path+0x2d8>
   17f54:	1c6e      	adds	r6, r5, #1
   17f56:	2401      	movs	r4, #1
   17f58:	2380      	movs	r3, #128	; 0x80
   17f5a:	005b      	lsls	r3, r3, #1
   17f5c:	4698      	mov	r8, r3
   17f5e:	46bb      	mov	fp, r7
   17f60:	002b      	movs	r3, r5
   17f62:	0025      	movs	r5, r4
   17f64:	0034      	movs	r4, r6
   17f66:	4656      	mov	r6, sl
   17f68:	4699      	mov	r9, r3
   17f6a:	e011      	b.n	17f90 <follow_path+0x9c>
   17f6c:	2b00      	cmp	r3, #0
   17f6e:	d135      	bne.n	17fdc <follow_path+0xe8>
   17f70:	8030      	strh	r0, [r6, #0]
   17f72:	1c6b      	adds	r3, r5, #1
   17f74:	7820      	ldrb	r0, [r4, #0]
   17f76:	281f      	cmp	r0, #31
   17f78:	d91e      	bls.n	17fb8 <follow_path+0xc4>
   17f7a:	282f      	cmp	r0, #47	; 0x2f
   17f7c:	d100      	bne.n	17f80 <follow_path+0x8c>
   17f7e:	e128      	b.n	181d2 <follow_path+0x2de>
   17f80:	285c      	cmp	r0, #92	; 0x5c
   17f82:	d100      	bne.n	17f86 <follow_path+0x92>
   17f84:	e142      	b.n	1820c <follow_path+0x318>
   17f86:	3602      	adds	r6, #2
   17f88:	3401      	adds	r4, #1
   17f8a:	4543      	cmp	r3, r8
   17f8c:	d026      	beq.n	17fdc <follow_path+0xe8>
   17f8e:	001d      	movs	r5, r3
   17f90:	2101      	movs	r1, #1
   17f92:	4b97      	ldr	r3, [pc, #604]	; (181f0 <follow_path+0x2fc>)
   17f94:	4798      	blx	r3
   17f96:	1e01      	subs	r1, r0, #0
   17f98:	d020      	beq.n	17fdc <follow_path+0xe8>
   17f9a:	287f      	cmp	r0, #127	; 0x7f
   17f9c:	d8e8      	bhi.n	17f70 <follow_path+0x7c>
   17f9e:	2822      	cmp	r0, #34	; 0x22
   17fa0:	d100      	bne.n	17fa4 <follow_path+0xb0>
   17fa2:	e0fd      	b.n	181a0 <follow_path+0x2ac>
   17fa4:	232a      	movs	r3, #42	; 0x2a
   17fa6:	4a93      	ldr	r2, [pc, #588]	; (181f4 <follow_path+0x300>)
   17fa8:	b29f      	uxth	r7, r3
   17faa:	428f      	cmp	r7, r1
   17fac:	d0de      	beq.n	17f6c <follow_path+0x78>
   17fae:	3201      	adds	r2, #1
   17fb0:	7813      	ldrb	r3, [r2, #0]
   17fb2:	2b00      	cmp	r3, #0
   17fb4:	d1f8      	bne.n	17fa8 <follow_path+0xb4>
   17fb6:	e7db      	b.n	17f70 <follow_path+0x7c>
   17fb8:	002c      	movs	r4, r5
   17fba:	465f      	mov	r7, fp
   17fbc:	464d      	mov	r5, r9
   17fbe:	18ed      	adds	r5, r5, r3
   17fc0:	2604      	movs	r6, #4
   17fc2:	e10b      	b.n	181dc <follow_path+0x2e8>
   17fc4:	3c01      	subs	r4, #1
   17fc6:	3b02      	subs	r3, #2
   17fc8:	2c00      	cmp	r4, #0
   17fca:	d100      	bne.n	17fce <follow_path+0xda>
   17fcc:	e0e8      	b.n	181a0 <follow_path+0x2ac>
   17fce:	881a      	ldrh	r2, [r3, #0]
   17fd0:	2a20      	cmp	r2, #32
   17fd2:	d0f7      	beq.n	17fc4 <follow_path+0xd0>
   17fd4:	2a2e      	cmp	r2, #46	; 0x2e
   17fd6:	d0f5      	beq.n	17fc4 <follow_path+0xd0>
   17fd8:	2c00      	cmp	r4, #0
   17fda:	d101      	bne.n	17fe0 <follow_path+0xec>
   17fdc:	2006      	movs	r0, #6
   17fde:	e0e0      	b.n	181a2 <follow_path+0x2ae>
   17fe0:	0063      	lsls	r3, r4, #1
   17fe2:	4698      	mov	r8, r3
   17fe4:	2300      	movs	r3, #0
   17fe6:	4652      	mov	r2, sl
   17fe8:	4641      	mov	r1, r8
   17fea:	5253      	strh	r3, [r2, r1]
   17fec:	220b      	movs	r2, #11
   17fee:	2120      	movs	r1, #32
   17ff0:	69b8      	ldr	r0, [r7, #24]
   17ff2:	4b81      	ldr	r3, [pc, #516]	; (181f8 <follow_path+0x304>)
   17ff4:	4798      	blx	r3
   17ff6:	4652      	mov	r2, sl
   17ff8:	2300      	movs	r3, #0
   17ffa:	e001      	b.n	18000 <follow_path+0x10c>
   17ffc:	3301      	adds	r3, #1
   17ffe:	3202      	adds	r2, #2
   18000:	8811      	ldrh	r1, [r2, #0]
   18002:	2920      	cmp	r1, #32
   18004:	d0fa      	beq.n	17ffc <follow_path+0x108>
   18006:	292e      	cmp	r1, #46	; 0x2e
   18008:	d0f8      	beq.n	17ffc <follow_path+0x108>
   1800a:	2b00      	cmp	r3, #0
   1800c:	d001      	beq.n	18012 <follow_path+0x11e>
   1800e:	2203      	movs	r2, #3
   18010:	4316      	orrs	r6, r2
   18012:	4652      	mov	r2, sl
   18014:	4442      	add	r2, r8
   18016:	3a02      	subs	r2, #2
   18018:	8812      	ldrh	r2, [r2, #0]
   1801a:	2a2e      	cmp	r2, #46	; 0x2e
   1801c:	d009      	beq.n	18032 <follow_path+0x13e>
   1801e:	4642      	mov	r2, r8
   18020:	3a04      	subs	r2, #4
   18022:	4452      	add	r2, sl
   18024:	3c01      	subs	r4, #1
   18026:	2c00      	cmp	r4, #0
   18028:	d003      	beq.n	18032 <follow_path+0x13e>
   1802a:	3a02      	subs	r2, #2
   1802c:	8851      	ldrh	r1, [r2, #2]
   1802e:	292e      	cmp	r1, #46	; 0x2e
   18030:	d1f8      	bne.n	18024 <follow_path+0x130>
   18032:	2208      	movs	r2, #8
   18034:	9201      	str	r2, [sp, #4]
   18036:	2200      	movs	r2, #0
   18038:	4693      	mov	fp, r2
   1803a:	4691      	mov	r9, r2
   1803c:	46a0      	mov	r8, r4
   1803e:	e006      	b.n	1804e <follow_path+0x15a>
   18040:	4544      	cmp	r4, r8
   18042:	d100      	bne.n	18046 <follow_path+0x152>
   18044:	e0e6      	b.n	18214 <follow_path+0x320>
   18046:	2303      	movs	r3, #3
   18048:	431e      	orrs	r6, r3
   1804a:	b2f6      	uxtb	r6, r6
   1804c:	0023      	movs	r3, r4
   1804e:	1c5c      	adds	r4, r3, #1
   18050:	005b      	lsls	r3, r3, #1
   18052:	4652      	mov	r2, sl
   18054:	5a98      	ldrh	r0, [r3, r2]
   18056:	2800      	cmp	r0, #0
   18058:	d02c      	beq.n	180b4 <follow_path+0x1c0>
   1805a:	2820      	cmp	r0, #32
   1805c:	d0f3      	beq.n	18046 <follow_path+0x152>
   1805e:	282e      	cmp	r0, #46	; 0x2e
   18060:	d0ee      	beq.n	18040 <follow_path+0x14c>
   18062:	9b01      	ldr	r3, [sp, #4]
   18064:	459b      	cmp	fp, r3
   18066:	d219      	bcs.n	1809c <follow_path+0x1a8>
   18068:	4544      	cmp	r4, r8
   1806a:	d100      	bne.n	1806e <follow_path+0x17a>
   1806c:	e0d2      	b.n	18214 <follow_path+0x320>
   1806e:	287f      	cmp	r0, #127	; 0x7f
   18070:	d85e      	bhi.n	18130 <follow_path+0x23c>
   18072:	282b      	cmp	r0, #43	; 0x2b
   18074:	d06e      	beq.n	18154 <follow_path+0x260>
   18076:	232c      	movs	r3, #44	; 0x2c
   18078:	4a60      	ldr	r2, [pc, #384]	; (181fc <follow_path+0x308>)
   1807a:	b299      	uxth	r1, r3
   1807c:	4281      	cmp	r1, r0
   1807e:	d067      	beq.n	18150 <follow_path+0x25c>
   18080:	3201      	adds	r2, #1
   18082:	7813      	ldrb	r3, [r2, #0]
   18084:	2b00      	cmp	r3, #0
   18086:	d1f8      	bne.n	1807a <follow_path+0x186>
   18088:	0003      	movs	r3, r0
   1808a:	3b41      	subs	r3, #65	; 0x41
   1808c:	b29b      	uxth	r3, r3
   1808e:	2b19      	cmp	r3, #25
   18090:	d86c      	bhi.n	1816c <follow_path+0x278>
   18092:	2302      	movs	r3, #2
   18094:	464a      	mov	r2, r9
   18096:	431a      	orrs	r2, r3
   18098:	4691      	mov	r9, r2
   1809a:	e05f      	b.n	1815c <follow_path+0x268>
   1809c:	9b01      	ldr	r3, [sp, #4]
   1809e:	2b0b      	cmp	r3, #11
   180a0:	d03b      	beq.n	1811a <follow_path+0x226>
   180a2:	4544      	cmp	r4, r8
   180a4:	d100      	bne.n	180a8 <follow_path+0x1b4>
   180a6:	e0b9      	b.n	1821c <follow_path+0x328>
   180a8:	2303      	movs	r3, #3
   180aa:	431e      	orrs	r6, r3
   180ac:	b2f6      	uxtb	r6, r6
   180ae:	4544      	cmp	r4, r8
   180b0:	d800      	bhi.n	180b4 <follow_path+0x1c0>
   180b2:	e0b3      	b.n	1821c <follow_path+0x328>
   180b4:	69bb      	ldr	r3, [r7, #24]
   180b6:	781a      	ldrb	r2, [r3, #0]
   180b8:	2ae5      	cmp	r2, #229	; 0xe5
   180ba:	d036      	beq.n	1812a <follow_path+0x236>
   180bc:	9b01      	ldr	r3, [sp, #4]
   180be:	2b08      	cmp	r3, #8
   180c0:	d060      	beq.n	18184 <follow_path+0x290>
   180c2:	230c      	movs	r3, #12
   180c4:	464a      	mov	r2, r9
   180c6:	4013      	ands	r3, r2
   180c8:	2b0c      	cmp	r3, #12
   180ca:	d060      	beq.n	1818e <follow_path+0x29a>
   180cc:	43d2      	mvns	r2, r2
   180ce:	0792      	lsls	r2, r2, #30
   180d0:	d05d      	beq.n	1818e <follow_path+0x29a>
   180d2:	07b2      	lsls	r2, r6, #30
   180d4:	d406      	bmi.n	180e4 <follow_path+0x1f0>
   180d6:	2203      	movs	r2, #3
   180d8:	4649      	mov	r1, r9
   180da:	400a      	ands	r2, r1
   180dc:	2a01      	cmp	r2, #1
   180de:	d059      	beq.n	18194 <follow_path+0x2a0>
   180e0:	2b04      	cmp	r3, #4
   180e2:	d05a      	beq.n	1819a <follow_path+0x2a6>
   180e4:	69bb      	ldr	r3, [r7, #24]
   180e6:	72de      	strb	r6, [r3, #11]
   180e8:	0038      	movs	r0, r7
   180ea:	4b45      	ldr	r3, [pc, #276]	; (18200 <follow_path+0x30c>)
   180ec:	4798      	blx	r3
   180ee:	69bb      	ldr	r3, [r7, #24]
   180f0:	7adb      	ldrb	r3, [r3, #11]
   180f2:	2800      	cmp	r0, #0
   180f4:	d15c      	bne.n	181b0 <follow_path+0x2bc>
   180f6:	075b      	lsls	r3, r3, #29
   180f8:	d453      	bmi.n	181a2 <follow_path+0x2ae>
   180fa:	697a      	ldr	r2, [r7, #20]
   180fc:	7ad3      	ldrb	r3, [r2, #11]
   180fe:	06db      	lsls	r3, r3, #27
   18100:	d55c      	bpl.n	181bc <follow_path+0x2c8>
   18102:	7d51      	ldrb	r1, [r2, #21]
   18104:	0209      	lsls	r1, r1, #8
   18106:	7d13      	ldrb	r3, [r2, #20]
   18108:	430b      	orrs	r3, r1
   1810a:	041b      	lsls	r3, r3, #16
   1810c:	7ed1      	ldrb	r1, [r2, #27]
   1810e:	0209      	lsls	r1, r1, #8
   18110:	7e92      	ldrb	r2, [r2, #26]
   18112:	430a      	orrs	r2, r1
   18114:	4313      	orrs	r3, r2
   18116:	60bb      	str	r3, [r7, #8]
   18118:	e70b      	b.n	17f32 <follow_path+0x3e>
   1811a:	2303      	movs	r3, #3
   1811c:	431e      	orrs	r6, r3
   1811e:	69bb      	ldr	r3, [r7, #24]
   18120:	781a      	ldrb	r2, [r3, #0]
   18122:	2ae5      	cmp	r2, #229	; 0xe5
   18124:	d1cd      	bne.n	180c2 <follow_path+0x1ce>
   18126:	220b      	movs	r2, #11
   18128:	9201      	str	r2, [sp, #4]
   1812a:	2205      	movs	r2, #5
   1812c:	701a      	strb	r2, [r3, #0]
   1812e:	e7c5      	b.n	180bc <follow_path+0x1c8>
   18130:	2100      	movs	r1, #0
   18132:	4b2f      	ldr	r3, [pc, #188]	; (181f0 <follow_path+0x2fc>)
   18134:	4798      	blx	r3
   18136:	2800      	cmp	r0, #0
   18138:	d100      	bne.n	1813c <follow_path+0x248>
   1813a:	e079      	b.n	18230 <follow_path+0x33c>
   1813c:	4b31      	ldr	r3, [pc, #196]	; (18204 <follow_path+0x310>)
   1813e:	469c      	mov	ip, r3
   18140:	4460      	add	r0, ip
   18142:	3880      	subs	r0, #128	; 0x80
   18144:	7800      	ldrb	r0, [r0, #0]
   18146:	2302      	movs	r3, #2
   18148:	431e      	orrs	r6, r3
   1814a:	2800      	cmp	r0, #0
   1814c:	d002      	beq.n	18154 <follow_path+0x260>
   1814e:	e790      	b.n	18072 <follow_path+0x17e>
   18150:	2b00      	cmp	r3, #0
   18152:	d099      	beq.n	18088 <follow_path+0x194>
   18154:	2303      	movs	r3, #3
   18156:	431e      	orrs	r6, r3
   18158:	b2f6      	uxtb	r6, r6
   1815a:	205f      	movs	r0, #95	; 0x5f
   1815c:	69bb      	ldr	r3, [r7, #24]
   1815e:	465a      	mov	r2, fp
   18160:	5498      	strb	r0, [r3, r2]
   18162:	0023      	movs	r3, r4
   18164:	2201      	movs	r2, #1
   18166:	4694      	mov	ip, r2
   18168:	44e3      	add	fp, ip
   1816a:	e770      	b.n	1804e <follow_path+0x15a>
   1816c:	0003      	movs	r3, r0
   1816e:	3b61      	subs	r3, #97	; 0x61
   18170:	b29b      	uxth	r3, r3
   18172:	2b19      	cmp	r3, #25
   18174:	d8f2      	bhi.n	1815c <follow_path+0x268>
   18176:	2301      	movs	r3, #1
   18178:	464a      	mov	r2, r9
   1817a:	431a      	orrs	r2, r3
   1817c:	4691      	mov	r9, r2
   1817e:	3820      	subs	r0, #32
   18180:	b280      	uxth	r0, r0
   18182:	e7eb      	b.n	1815c <follow_path+0x268>
   18184:	464b      	mov	r3, r9
   18186:	009b      	lsls	r3, r3, #2
   18188:	b2db      	uxtb	r3, r3
   1818a:	4699      	mov	r9, r3
   1818c:	e799      	b.n	180c2 <follow_path+0x1ce>
   1818e:	2202      	movs	r2, #2
   18190:	4316      	orrs	r6, r2
   18192:	e79e      	b.n	180d2 <follow_path+0x1de>
   18194:	320f      	adds	r2, #15
   18196:	4316      	orrs	r6, r2
   18198:	e7a2      	b.n	180e0 <follow_path+0x1ec>
   1819a:	3304      	adds	r3, #4
   1819c:	431e      	orrs	r6, r3
   1819e:	e7a1      	b.n	180e4 <follow_path+0x1f0>
   181a0:	2006      	movs	r0, #6
   181a2:	b003      	add	sp, #12
   181a4:	bc3c      	pop	{r2, r3, r4, r5}
   181a6:	4690      	mov	r8, r2
   181a8:	4699      	mov	r9, r3
   181aa:	46a2      	mov	sl, r4
   181ac:	46ab      	mov	fp, r5
   181ae:	bdf0      	pop	{r4, r5, r6, r7, pc}
   181b0:	2804      	cmp	r0, #4
   181b2:	d1f6      	bne.n	181a2 <follow_path+0x2ae>
   181b4:	075b      	lsls	r3, r3, #29
   181b6:	d4f4      	bmi.n	181a2 <follow_path+0x2ae>
   181b8:	3001      	adds	r0, #1
   181ba:	e7f2      	b.n	181a2 <follow_path+0x2ae>
   181bc:	2005      	movs	r0, #5
   181be:	e7f0      	b.n	181a2 <follow_path+0x2ae>
   181c0:	2301      	movs	r3, #1
   181c2:	2400      	movs	r4, #0
   181c4:	e6fb      	b.n	17fbe <follow_path+0xca>
   181c6:	2301      	movs	r3, #1
   181c8:	2400      	movs	r4, #0
   181ca:	e005      	b.n	181d8 <follow_path+0x2e4>
   181cc:	2301      	movs	r3, #1
   181ce:	2400      	movs	r4, #0
   181d0:	e002      	b.n	181d8 <follow_path+0x2e4>
   181d2:	002c      	movs	r4, r5
   181d4:	465f      	mov	r7, fp
   181d6:	464d      	mov	r5, r9
   181d8:	18ed      	adds	r5, r5, r3
   181da:	2600      	movs	r6, #0
   181dc:	2c00      	cmp	r4, #0
   181de:	d0df      	beq.n	181a0 <follow_path+0x2ac>
   181e0:	4b09      	ldr	r3, [pc, #36]	; (18208 <follow_path+0x314>)
   181e2:	18e3      	adds	r3, r4, r3
   181e4:	005b      	lsls	r3, r3, #1
   181e6:	4453      	add	r3, sl
   181e8:	e6f1      	b.n	17fce <follow_path+0xda>
   181ea:	46c0      	nop			; (mov r8, r8)
   181ec:	0001739d 	.word	0x0001739d
   181f0:	0001856d 	.word	0x0001856d
   181f4:	000197dd 	.word	0x000197dd
   181f8:	00016d35 	.word	0x00016d35
   181fc:	000197e9 	.word	0x000197e9
   18200:	000177dd 	.word	0x000177dd
   18204:	0001975c 	.word	0x0001975c
   18208:	7fffffff 	.word	0x7fffffff
   1820c:	002c      	movs	r4, r5
   1820e:	465f      	mov	r7, fp
   18210:	464d      	mov	r5, r9
   18212:	e7e1      	b.n	181d8 <follow_path+0x2e4>
   18214:	9b01      	ldr	r3, [sp, #4]
   18216:	2b0b      	cmp	r3, #11
   18218:	d100      	bne.n	1821c <follow_path+0x328>
   1821a:	e77e      	b.n	1811a <follow_path+0x226>
   1821c:	464b      	mov	r3, r9
   1821e:	009b      	lsls	r3, r3, #2
   18220:	b2db      	uxtb	r3, r3
   18222:	4699      	mov	r9, r3
   18224:	4643      	mov	r3, r8
   18226:	220b      	movs	r2, #11
   18228:	9201      	str	r2, [sp, #4]
   1822a:	3a03      	subs	r2, #3
   1822c:	4693      	mov	fp, r2
   1822e:	e70e      	b.n	1804e <follow_path+0x15a>
   18230:	2302      	movs	r3, #2
   18232:	431e      	orrs	r6, r3
   18234:	e78e      	b.n	18154 <follow_path+0x260>
   18236:	46c0      	nop			; (mov r8, r8)

00018238 <f_mount>:
   18238:	230b      	movs	r3, #11
   1823a:	2807      	cmp	r0, #7
   1823c:	d901      	bls.n	18242 <f_mount+0xa>
   1823e:	0018      	movs	r0, r3
   18240:	4770      	bx	lr
   18242:	0083      	lsls	r3, r0, #2
   18244:	4a07      	ldr	r2, [pc, #28]	; (18264 <f_mount+0x2c>)
   18246:	589b      	ldr	r3, [r3, r2]
   18248:	2b00      	cmp	r3, #0
   1824a:	d001      	beq.n	18250 <f_mount+0x18>
   1824c:	2200      	movs	r2, #0
   1824e:	701a      	strb	r2, [r3, #0]
   18250:	2900      	cmp	r1, #0
   18252:	d001      	beq.n	18258 <f_mount+0x20>
   18254:	2300      	movs	r3, #0
   18256:	700b      	strb	r3, [r1, #0]
   18258:	0080      	lsls	r0, r0, #2
   1825a:	4b02      	ldr	r3, [pc, #8]	; (18264 <f_mount+0x2c>)
   1825c:	50c1      	str	r1, [r0, r3]
   1825e:	2300      	movs	r3, #0
   18260:	e7ed      	b.n	1823e <f_mount+0x6>
   18262:	46c0      	nop			; (mov r8, r8)
   18264:	20002be4 	.word	0x20002be4

00018268 <f_open>:
   18268:	b5f0      	push	{r4, r5, r6, r7, lr}
   1826a:	46c6      	mov	lr, r8
   1826c:	b500      	push	{lr}
   1826e:	4c59      	ldr	r4, [pc, #356]	; (183d4 <f_open+0x16c>)
   18270:	44a5      	add	sp, r4
   18272:	0005      	movs	r5, r0
   18274:	9101      	str	r1, [sp, #4]
   18276:	0017      	movs	r7, r2
   18278:	2300      	movs	r3, #0
   1827a:	6003      	str	r3, [r0, #0]
   1827c:	261f      	movs	r6, #31
   1827e:	4016      	ands	r6, r2
   18280:	221e      	movs	r2, #30
   18282:	403a      	ands	r2, r7
   18284:	a985      	add	r1, sp, #532	; 0x214
   18286:	a801      	add	r0, sp, #4
   18288:	4b53      	ldr	r3, [pc, #332]	; (183d8 <f_open+0x170>)
   1828a:	4798      	blx	r3
   1828c:	ab82      	add	r3, sp, #520	; 0x208
   1828e:	938b      	str	r3, [sp, #556]	; 0x22c
   18290:	ab02      	add	r3, sp, #8
   18292:	938c      	str	r3, [sp, #560]	; 0x230
   18294:	2800      	cmp	r0, #0
   18296:	d006      	beq.n	182a6 <f_open+0x3e>
   18298:	9c8a      	ldr	r4, [sp, #552]	; 0x228
   1829a:	231c      	movs	r3, #28
   1829c:	423b      	tst	r3, r7
   1829e:	d145      	bne.n	1832c <f_open+0xc4>
   182a0:	2800      	cmp	r0, #0
   182a2:	d13d      	bne.n	18320 <f_open+0xb8>
   182a4:	e00c      	b.n	182c0 <f_open+0x58>
   182a6:	9901      	ldr	r1, [sp, #4]
   182a8:	a885      	add	r0, sp, #532	; 0x214
   182aa:	4b4c      	ldr	r3, [pc, #304]	; (183dc <f_open+0x174>)
   182ac:	4798      	blx	r3
   182ae:	9c8a      	ldr	r4, [sp, #552]	; 0x228
   182b0:	2800      	cmp	r0, #0
   182b2:	d1f2      	bne.n	1829a <f_open+0x32>
   182b4:	2c00      	cmp	r4, #0
   182b6:	d100      	bne.n	182ba <f_open+0x52>
   182b8:	e086      	b.n	183c8 <f_open+0x160>
   182ba:	231c      	movs	r3, #28
   182bc:	423b      	tst	r3, r7
   182be:	d146      	bne.n	1834e <f_open+0xe6>
   182c0:	7ae3      	ldrb	r3, [r4, #11]
   182c2:	2004      	movs	r0, #4
   182c4:	06da      	lsls	r2, r3, #27
   182c6:	d42b      	bmi.n	18320 <f_open+0xb8>
   182c8:	07ba      	lsls	r2, r7, #30
   182ca:	d502      	bpl.n	182d2 <f_open+0x6a>
   182cc:	3003      	adds	r0, #3
   182ce:	07db      	lsls	r3, r3, #31
   182d0:	d426      	bmi.n	18320 <f_open+0xb8>
   182d2:	073b      	lsls	r3, r7, #28
   182d4:	d501      	bpl.n	182da <f_open+0x72>
   182d6:	2320      	movs	r3, #32
   182d8:	431e      	orrs	r6, r3
   182da:	9b85      	ldr	r3, [sp, #532]	; 0x214
   182dc:	6adb      	ldr	r3, [r3, #44]	; 0x2c
   182de:	61eb      	str	r3, [r5, #28]
   182e0:	622c      	str	r4, [r5, #32]
   182e2:	71ae      	strb	r6, [r5, #6]
   182e4:	7d62      	ldrb	r2, [r4, #21]
   182e6:	0212      	lsls	r2, r2, #8
   182e8:	7d23      	ldrb	r3, [r4, #20]
   182ea:	4313      	orrs	r3, r2
   182ec:	041b      	lsls	r3, r3, #16
   182ee:	7ee1      	ldrb	r1, [r4, #27]
   182f0:	0209      	lsls	r1, r1, #8
   182f2:	7ea2      	ldrb	r2, [r4, #26]
   182f4:	430a      	orrs	r2, r1
   182f6:	4313      	orrs	r3, r2
   182f8:	612b      	str	r3, [r5, #16]
   182fa:	7fe3      	ldrb	r3, [r4, #31]
   182fc:	061b      	lsls	r3, r3, #24
   182fe:	7fa2      	ldrb	r2, [r4, #30]
   18300:	0412      	lsls	r2, r2, #16
   18302:	4313      	orrs	r3, r2
   18304:	7f22      	ldrb	r2, [r4, #28]
   18306:	4313      	orrs	r3, r2
   18308:	7f62      	ldrb	r2, [r4, #29]
   1830a:	0212      	lsls	r2, r2, #8
   1830c:	4313      	orrs	r3, r2
   1830e:	60eb      	str	r3, [r5, #12]
   18310:	2300      	movs	r3, #0
   18312:	60ab      	str	r3, [r5, #8]
   18314:	61ab      	str	r3, [r5, #24]
   18316:	9b85      	ldr	r3, [sp, #532]	; 0x214
   18318:	602b      	str	r3, [r5, #0]
   1831a:	88db      	ldrh	r3, [r3, #6]
   1831c:	80ab      	strh	r3, [r5, #4]
   1831e:	2000      	movs	r0, #0
   18320:	238e      	movs	r3, #142	; 0x8e
   18322:	009b      	lsls	r3, r3, #2
   18324:	449d      	add	sp, r3
   18326:	bc04      	pop	{r2}
   18328:	4690      	mov	r8, r2
   1832a:	bdf0      	pop	{r4, r5, r6, r7, pc}
   1832c:	2804      	cmp	r0, #4
   1832e:	d005      	beq.n	1833c <f_open+0xd4>
   18330:	2308      	movs	r3, #8
   18332:	431e      	orrs	r6, r3
   18334:	9c8a      	ldr	r4, [sp, #552]	; 0x228
   18336:	2800      	cmp	r0, #0
   18338:	d0d3      	beq.n	182e2 <f_open+0x7a>
   1833a:	e7f1      	b.n	18320 <f_open+0xb8>
   1833c:	a885      	add	r0, sp, #532	; 0x214
   1833e:	4b28      	ldr	r3, [pc, #160]	; (183e0 <f_open+0x178>)
   18340:	4798      	blx	r3
   18342:	2308      	movs	r3, #8
   18344:	431e      	orrs	r6, r3
   18346:	9c8a      	ldr	r4, [sp, #552]	; 0x228
   18348:	2800      	cmp	r0, #0
   1834a:	d008      	beq.n	1835e <f_open+0xf6>
   1834c:	e7e8      	b.n	18320 <f_open+0xb8>
   1834e:	7ae3      	ldrb	r3, [r4, #11]
   18350:	2211      	movs	r2, #17
   18352:	2007      	movs	r0, #7
   18354:	421a      	tst	r2, r3
   18356:	d1e3      	bne.n	18320 <f_open+0xb8>
   18358:	3001      	adds	r0, #1
   1835a:	077b      	lsls	r3, r7, #29
   1835c:	d4e0      	bmi.n	18320 <f_open+0xb8>
   1835e:	0733      	lsls	r3, r6, #28
   18360:	d5bb      	bpl.n	182da <f_open+0x72>
   18362:	4b20      	ldr	r3, [pc, #128]	; (183e4 <f_open+0x17c>)
   18364:	4798      	blx	r3
   18366:	73a0      	strb	r0, [r4, #14]
   18368:	0a03      	lsrs	r3, r0, #8
   1836a:	73e3      	strb	r3, [r4, #15]
   1836c:	0c03      	lsrs	r3, r0, #16
   1836e:	7423      	strb	r3, [r4, #16]
   18370:	0e00      	lsrs	r0, r0, #24
   18372:	7460      	strb	r0, [r4, #17]
   18374:	2300      	movs	r3, #0
   18376:	72e3      	strb	r3, [r4, #11]
   18378:	7723      	strb	r3, [r4, #28]
   1837a:	7763      	strb	r3, [r4, #29]
   1837c:	77a3      	strb	r3, [r4, #30]
   1837e:	77e3      	strb	r3, [r4, #31]
   18380:	7d62      	ldrb	r2, [r4, #21]
   18382:	0212      	lsls	r2, r2, #8
   18384:	7d27      	ldrb	r7, [r4, #20]
   18386:	4317      	orrs	r7, r2
   18388:	043f      	lsls	r7, r7, #16
   1838a:	7ee1      	ldrb	r1, [r4, #27]
   1838c:	0209      	lsls	r1, r1, #8
   1838e:	7ea2      	ldrb	r2, [r4, #26]
   18390:	430a      	orrs	r2, r1
   18392:	4317      	orrs	r7, r2
   18394:	76a3      	strb	r3, [r4, #26]
   18396:	76e3      	strb	r3, [r4, #27]
   18398:	7523      	strb	r3, [r4, #20]
   1839a:	7563      	strb	r3, [r4, #21]
   1839c:	9885      	ldr	r0, [sp, #532]	; 0x214
   1839e:	3301      	adds	r3, #1
   183a0:	7103      	strb	r3, [r0, #4]
   183a2:	2f00      	cmp	r7, #0
   183a4:	d097      	beq.n	182d6 <f_open+0x6e>
   183a6:	6ac3      	ldr	r3, [r0, #44]	; 0x2c
   183a8:	4698      	mov	r8, r3
   183aa:	0039      	movs	r1, r7
   183ac:	4b0e      	ldr	r3, [pc, #56]	; (183e8 <f_open+0x180>)
   183ae:	4798      	blx	r3
   183b0:	2800      	cmp	r0, #0
   183b2:	d1b5      	bne.n	18320 <f_open+0xb8>
   183b4:	9885      	ldr	r0, [sp, #532]	; 0x214
   183b6:	3f01      	subs	r7, #1
   183b8:	60c7      	str	r7, [r0, #12]
   183ba:	4641      	mov	r1, r8
   183bc:	4b0b      	ldr	r3, [pc, #44]	; (183ec <f_open+0x184>)
   183be:	4798      	blx	r3
   183c0:	2800      	cmp	r0, #0
   183c2:	d100      	bne.n	183c6 <f_open+0x15e>
   183c4:	e787      	b.n	182d6 <f_open+0x6e>
   183c6:	e7ab      	b.n	18320 <f_open+0xb8>
   183c8:	231c      	movs	r3, #28
   183ca:	2006      	movs	r0, #6
   183cc:	423b      	tst	r3, r7
   183ce:	d0b2      	beq.n	18336 <f_open+0xce>
   183d0:	2006      	movs	r0, #6
   183d2:	e7ad      	b.n	18330 <f_open+0xc8>
   183d4:	fffffdc8 	.word	0xfffffdc8
   183d8:	00016e51 	.word	0x00016e51
   183dc:	00017ef5 	.word	0x00017ef5
   183e0:	00017975 	.word	0x00017975
   183e4:	00016cd1 	.word	0x00016cd1
   183e8:	00017641 	.word	0x00017641
   183ec:	00017201 	.word	0x00017201

000183f0 <f_sync>:
   183f0:	b570      	push	{r4, r5, r6, lr}
   183f2:	0004      	movs	r4, r0
   183f4:	8881      	ldrh	r1, [r0, #4]
   183f6:	6800      	ldr	r0, [r0, #0]
   183f8:	4b1c      	ldr	r3, [pc, #112]	; (1846c <f_sync+0x7c>)
   183fa:	4798      	blx	r3
   183fc:	2800      	cmp	r0, #0
   183fe:	d102      	bne.n	18406 <f_sync+0x16>
   18400:	79a3      	ldrb	r3, [r4, #6]
   18402:	069b      	lsls	r3, r3, #26
   18404:	d400      	bmi.n	18408 <f_sync+0x18>
   18406:	bd70      	pop	{r4, r5, r6, pc}
   18408:	69e1      	ldr	r1, [r4, #28]
   1840a:	6820      	ldr	r0, [r4, #0]
   1840c:	4b18      	ldr	r3, [pc, #96]	; (18470 <f_sync+0x80>)
   1840e:	4798      	blx	r3
   18410:	2800      	cmp	r0, #0
   18412:	d1f8      	bne.n	18406 <f_sync+0x16>
   18414:	6a25      	ldr	r5, [r4, #32]
   18416:	7aeb      	ldrb	r3, [r5, #11]
   18418:	2220      	movs	r2, #32
   1841a:	4313      	orrs	r3, r2
   1841c:	72eb      	strb	r3, [r5, #11]
   1841e:	7b23      	ldrb	r3, [r4, #12]
   18420:	772b      	strb	r3, [r5, #28]
   18422:	89a3      	ldrh	r3, [r4, #12]
   18424:	0a1b      	lsrs	r3, r3, #8
   18426:	776b      	strb	r3, [r5, #29]
   18428:	89e3      	ldrh	r3, [r4, #14]
   1842a:	77ab      	strb	r3, [r5, #30]
   1842c:	7be3      	ldrb	r3, [r4, #15]
   1842e:	77eb      	strb	r3, [r5, #31]
   18430:	7c23      	ldrb	r3, [r4, #16]
   18432:	76ab      	strb	r3, [r5, #26]
   18434:	8a23      	ldrh	r3, [r4, #16]
   18436:	0a1b      	lsrs	r3, r3, #8
   18438:	76eb      	strb	r3, [r5, #27]
   1843a:	8a63      	ldrh	r3, [r4, #18]
   1843c:	752b      	strb	r3, [r5, #20]
   1843e:	8a63      	ldrh	r3, [r4, #18]
   18440:	0a1b      	lsrs	r3, r3, #8
   18442:	756b      	strb	r3, [r5, #21]
   18444:	4b0b      	ldr	r3, [pc, #44]	; (18474 <f_sync+0x84>)
   18446:	4798      	blx	r3
   18448:	75a8      	strb	r0, [r5, #22]
   1844a:	0a03      	lsrs	r3, r0, #8
   1844c:	75eb      	strb	r3, [r5, #23]
   1844e:	0c03      	lsrs	r3, r0, #16
   18450:	762b      	strb	r3, [r5, #24]
   18452:	0e00      	lsrs	r0, r0, #24
   18454:	7668      	strb	r0, [r5, #25]
   18456:	79a3      	ldrb	r3, [r4, #6]
   18458:	2220      	movs	r2, #32
   1845a:	4393      	bics	r3, r2
   1845c:	71a3      	strb	r3, [r4, #6]
   1845e:	2301      	movs	r3, #1
   18460:	6822      	ldr	r2, [r4, #0]
   18462:	7113      	strb	r3, [r2, #4]
   18464:	6820      	ldr	r0, [r4, #0]
   18466:	4b04      	ldr	r3, [pc, #16]	; (18478 <f_sync+0x88>)
   18468:	4798      	blx	r3
   1846a:	e7cc      	b.n	18406 <f_sync+0x16>
   1846c:	00016d7d 	.word	0x00016d7d
   18470:	00017201 	.word	0x00017201
   18474:	00016cd1 	.word	0x00016cd1
   18478:	00017e01 	.word	0x00017e01

0001847c <f_close>:
   1847c:	b510      	push	{r4, lr}
   1847e:	0004      	movs	r4, r0
   18480:	4b03      	ldr	r3, [pc, #12]	; (18490 <f_close+0x14>)
   18482:	4798      	blx	r3
   18484:	2800      	cmp	r0, #0
   18486:	d101      	bne.n	1848c <f_close+0x10>
   18488:	2300      	movs	r3, #0
   1848a:	6023      	str	r3, [r4, #0]
   1848c:	bd10      	pop	{r4, pc}
   1848e:	46c0      	nop			; (mov r8, r8)
   18490:	000183f1 	.word	0x000183f1

00018494 <f_unlink>:
   18494:	b510      	push	{r4, lr}
   18496:	4c2c      	ldr	r4, [pc, #176]	; (18548 <f_unlink+0xb4>)
   18498:	44a5      	add	sp, r4
   1849a:	9001      	str	r0, [sp, #4]
   1849c:	2201      	movs	r2, #1
   1849e:	a98f      	add	r1, sp, #572	; 0x23c
   184a0:	a801      	add	r0, sp, #4
   184a2:	4b2a      	ldr	r3, [pc, #168]	; (1854c <f_unlink+0xb8>)
   184a4:	4798      	blx	r3
   184a6:	2800      	cmp	r0, #0
   184a8:	d003      	beq.n	184b2 <f_unlink+0x1e>
   184aa:	2398      	movs	r3, #152	; 0x98
   184ac:	009b      	lsls	r3, r3, #2
   184ae:	449d      	add	sp, r3
   184b0:	bd10      	pop	{r4, pc}
   184b2:	ab83      	add	r3, sp, #524	; 0x20c
   184b4:	9395      	str	r3, [sp, #596]	; 0x254
   184b6:	ab03      	add	r3, sp, #12
   184b8:	9396      	str	r3, [sp, #600]	; 0x258
   184ba:	9901      	ldr	r1, [sp, #4]
   184bc:	a88f      	add	r0, sp, #572	; 0x23c
   184be:	4b24      	ldr	r3, [pc, #144]	; (18550 <f_unlink+0xbc>)
   184c0:	4798      	blx	r3
   184c2:	2800      	cmp	r0, #0
   184c4:	d1f1      	bne.n	184aa <f_unlink+0x16>
   184c6:	9b94      	ldr	r3, [sp, #592]	; 0x250
   184c8:	2b00      	cmp	r3, #0
   184ca:	d039      	beq.n	18540 <f_unlink+0xac>
   184cc:	7ada      	ldrb	r2, [r3, #11]
   184ce:	3007      	adds	r0, #7
   184d0:	07d2      	lsls	r2, r2, #31
   184d2:	d4ea      	bmi.n	184aa <f_unlink+0x16>
   184d4:	7d5a      	ldrb	r2, [r3, #21]
   184d6:	0212      	lsls	r2, r2, #8
   184d8:	7d1c      	ldrb	r4, [r3, #20]
   184da:	4314      	orrs	r4, r2
   184dc:	0424      	lsls	r4, r4, #16
   184de:	7ed9      	ldrb	r1, [r3, #27]
   184e0:	0209      	lsls	r1, r1, #8
   184e2:	7e9a      	ldrb	r2, [r3, #26]
   184e4:	430a      	orrs	r2, r1
   184e6:	4314      	orrs	r4, r2
   184e8:	7adb      	ldrb	r3, [r3, #11]
   184ea:	06db      	lsls	r3, r3, #27
   184ec:	d40a      	bmi.n	18504 <f_unlink+0x70>
   184ee:	a88f      	add	r0, sp, #572	; 0x23c
   184f0:	4b18      	ldr	r3, [pc, #96]	; (18554 <f_unlink+0xc0>)
   184f2:	4798      	blx	r3
   184f4:	2800      	cmp	r0, #0
   184f6:	d1d8      	bne.n	184aa <f_unlink+0x16>
   184f8:	2c00      	cmp	r4, #0
   184fa:	d11a      	bne.n	18532 <f_unlink+0x9e>
   184fc:	988f      	ldr	r0, [sp, #572]	; 0x23c
   184fe:	4b16      	ldr	r3, [pc, #88]	; (18558 <f_unlink+0xc4>)
   18500:	4798      	blx	r3
   18502:	e7d2      	b.n	184aa <f_unlink+0x16>
   18504:	2002      	movs	r0, #2
   18506:	2c01      	cmp	r4, #1
   18508:	d9cf      	bls.n	184aa <f_unlink+0x16>
   1850a:	2224      	movs	r2, #36	; 0x24
   1850c:	a98f      	add	r1, sp, #572	; 0x23c
   1850e:	a886      	add	r0, sp, #536	; 0x218
   18510:	4b12      	ldr	r3, [pc, #72]	; (1855c <f_unlink+0xc8>)
   18512:	4798      	blx	r3
   18514:	9488      	str	r4, [sp, #544]	; 0x220
   18516:	2102      	movs	r1, #2
   18518:	a886      	add	r0, sp, #536	; 0x218
   1851a:	4b11      	ldr	r3, [pc, #68]	; (18560 <f_unlink+0xcc>)
   1851c:	4798      	blx	r3
   1851e:	2800      	cmp	r0, #0
   18520:	d1c3      	bne.n	184aa <f_unlink+0x16>
   18522:	a886      	add	r0, sp, #536	; 0x218
   18524:	4b0f      	ldr	r3, [pc, #60]	; (18564 <f_unlink+0xd0>)
   18526:	4798      	blx	r3
   18528:	2800      	cmp	r0, #0
   1852a:	d00b      	beq.n	18544 <f_unlink+0xb0>
   1852c:	2804      	cmp	r0, #4
   1852e:	d0de      	beq.n	184ee <f_unlink+0x5a>
   18530:	e7bb      	b.n	184aa <f_unlink+0x16>
   18532:	0021      	movs	r1, r4
   18534:	988f      	ldr	r0, [sp, #572]	; 0x23c
   18536:	4b0c      	ldr	r3, [pc, #48]	; (18568 <f_unlink+0xd4>)
   18538:	4798      	blx	r3
   1853a:	2800      	cmp	r0, #0
   1853c:	d1b5      	bne.n	184aa <f_unlink+0x16>
   1853e:	e7dd      	b.n	184fc <f_unlink+0x68>
   18540:	2006      	movs	r0, #6
   18542:	e7b2      	b.n	184aa <f_unlink+0x16>
   18544:	2007      	movs	r0, #7
   18546:	e7b0      	b.n	184aa <f_unlink+0x16>
   18548:	fffffda0 	.word	0xfffffda0
   1854c:	00016e51 	.word	0x00016e51
   18550:	00017ef5 	.word	0x00017ef5
   18554:	00017d99 	.word	0x00017d99
   18558:	00017e01 	.word	0x00017e01
   1855c:	00016d21 	.word	0x00016d21
   18560:	0001739d 	.word	0x0001739d
   18564:	00017c59 	.word	0x00017c59
   18568:	00017641 	.word	0x00017641

0001856c <ff_convert>:
   1856c:	0003      	movs	r3, r0
   1856e:	287f      	cmp	r0, #127	; 0x7f
   18570:	d911      	bls.n	18596 <ff_convert+0x2a>
   18572:	2900      	cmp	r1, #0
   18574:	d111      	bne.n	1859a <ff_convert+0x2e>
   18576:	28c7      	cmp	r0, #199	; 0xc7
   18578:	d017      	beq.n	185aa <ff_convert+0x3e>
   1857a:	4a0d      	ldr	r2, [pc, #52]	; (185b0 <ff_convert+0x44>)
   1857c:	3202      	adds	r2, #2
   1857e:	2301      	movs	r3, #1
   18580:	8811      	ldrh	r1, [r2, #0]
   18582:	4281      	cmp	r1, r0
   18584:	d004      	beq.n	18590 <ff_convert+0x24>
   18586:	3301      	adds	r3, #1
   18588:	b29b      	uxth	r3, r3
   1858a:	3202      	adds	r2, #2
   1858c:	2b80      	cmp	r3, #128	; 0x80
   1858e:	d1f7      	bne.n	18580 <ff_convert+0x14>
   18590:	3380      	adds	r3, #128	; 0x80
   18592:	20ff      	movs	r0, #255	; 0xff
   18594:	4003      	ands	r3, r0
   18596:	0018      	movs	r0, r3
   18598:	4770      	bx	lr
   1859a:	2300      	movs	r3, #0
   1859c:	28ff      	cmp	r0, #255	; 0xff
   1859e:	d8fa      	bhi.n	18596 <ff_convert+0x2a>
   185a0:	3880      	subs	r0, #128	; 0x80
   185a2:	0040      	lsls	r0, r0, #1
   185a4:	4b02      	ldr	r3, [pc, #8]	; (185b0 <ff_convert+0x44>)
   185a6:	5ac3      	ldrh	r3, [r0, r3]
   185a8:	e7f5      	b.n	18596 <ff_convert+0x2a>
   185aa:	2300      	movs	r3, #0
   185ac:	e7f0      	b.n	18590 <ff_convert+0x24>
   185ae:	46c0      	nop			; (mov r8, r8)
   185b0:	000197f0 	.word	0x000197f0

000185b4 <ff_wtoupper>:
   185b4:	2861      	cmp	r0, #97	; 0x61
   185b6:	d014      	beq.n	185e2 <ff_wtoupper+0x2e>
   185b8:	4b0b      	ldr	r3, [pc, #44]	; (185e8 <ff_wtoupper+0x34>)
   185ba:	3304      	adds	r3, #4
   185bc:	2101      	movs	r1, #1
   185be:	2262      	movs	r2, #98	; 0x62
   185c0:	4290      	cmp	r0, r2
   185c2:	d007      	beq.n	185d4 <ff_wtoupper+0x20>
   185c4:	3101      	adds	r1, #1
   185c6:	3302      	adds	r3, #2
   185c8:	1e9a      	subs	r2, r3, #2
   185ca:	8812      	ldrh	r2, [r2, #0]
   185cc:	2a00      	cmp	r2, #0
   185ce:	d1f7      	bne.n	185c0 <ff_wtoupper+0xc>
   185d0:	0003      	movs	r3, r0
   185d2:	e004      	b.n	185de <ff_wtoupper+0x2a>
   185d4:	1e03      	subs	r3, r0, #0
   185d6:	d002      	beq.n	185de <ff_wtoupper+0x2a>
   185d8:	0049      	lsls	r1, r1, #1
   185da:	4b04      	ldr	r3, [pc, #16]	; (185ec <ff_wtoupper+0x38>)
   185dc:	5acb      	ldrh	r3, [r1, r3]
   185de:	0018      	movs	r0, r3
   185e0:	4770      	bx	lr
   185e2:	2100      	movs	r1, #0
   185e4:	e7f8      	b.n	185d8 <ff_wtoupper+0x24>
   185e6:	46c0      	nop			; (mov r8, r8)
   185e8:	000198f0 	.word	0x000198f0
   185ec:	00019ad0 	.word	0x00019ad0

000185f0 <main>:
 * Application entry point.
 *
 * \return program return value.
 */
int main(void)
{
   185f0:	b510      	push	{r4, lr}


	/* Initialize the board. */
	system_init();
   185f2:	4b05      	ldr	r3, [pc, #20]	; (18608 <main+0x18>)
   185f4:	4798      	blx	r3

	/* Initialize the UART console. */
	InitializeSerialConsole();
   185f6:	4b05      	ldr	r3, [pc, #20]	; (1860c <main+0x1c>)
   185f8:	4798      	blx	r3
	SerialConsoleWriteString("we are now in MAIN\r\n");
   185fa:	4805      	ldr	r0, [pc, #20]	; (18610 <main+0x20>)
   185fc:	4b05      	ldr	r3, [pc, #20]	; (18614 <main+0x24>)
   185fe:	4798      	blx	r3
    // Start FreeRTOS scheduler
    vTaskStartScheduler();
   18600:	4b05      	ldr	r3, [pc, #20]	; (18618 <main+0x28>)
   18602:	4798      	blx	r3


	return 0;
}
   18604:	2000      	movs	r0, #0
   18606:	bd10      	pop	{r4, pc}
   18608:	00016875 	.word	0x00016875
   1860c:	00013941 	.word	0x00013941
   18610:	00019cb0 	.word	0x00019cb0
   18614:	00013a69 	.word	0x00013a69
   18618:	00012f01 	.word	0x00012f01

0001861c <vApplicationDaemonTaskStartupHook>:
* @param[in]        None
* @return           None
*****************************************************************************/

void vApplicationDaemonTaskStartupHook(void)
{
   1861c:	b5f0      	push	{r4, r5, r6, r7, lr}
   1861e:	46ce      	mov	lr, r9
   18620:	4647      	mov	r7, r8
   18622:	b580      	push	{r7, lr}
   18624:	b09d      	sub	sp, #116	; 0x74
#ifdef BOOT_TEST	
	init_storage();
   18626:	4b64      	ldr	r3, [pc, #400]	; (187b8 <vApplicationDaemonTaskStartupHook+0x19c>)
   18628:	4798      	blx	r3
	FIL file_object; //FILE OBJECT used on main for the SD Card Test
	char testA_file_name[] = "0:FlagA.txt";
   1862a:	a910      	add	r1, sp, #64	; 0x40
   1862c:	4b63      	ldr	r3, [pc, #396]	; (187bc <vApplicationDaemonTaskStartupHook+0x1a0>)
   1862e:	000a      	movs	r2, r1
   18630:	cb31      	ldmia	r3!, {r0, r4, r5}
   18632:	c231      	stmia	r2!, {r0, r4, r5}
	testA_file_name[0] = LUN_ID_SD_MMC_0_MEM + '0';
	FRESULT restxt = f_open(&file_object, (char const *)testA_file_name, FA_READ);
   18634:	2201      	movs	r2, #1
   18636:	a813      	add	r0, sp, #76	; 0x4c
   18638:	4b61      	ldr	r3, [pc, #388]	; (187c0 <vApplicationDaemonTaskStartupHook+0x1a4>)
   1863a:	4798      	blx	r3
   1863c:	0004      	movs	r4, r0
	snprintf(bufferPrint, 64, "restxt is %i\r\n", restxt);
   1863e:	4d61      	ldr	r5, [pc, #388]	; (187c4 <vApplicationDaemonTaskStartupHook+0x1a8>)
   18640:	0003      	movs	r3, r0
   18642:	4a61      	ldr	r2, [pc, #388]	; (187c8 <vApplicationDaemonTaskStartupHook+0x1ac>)
   18644:	2140      	movs	r1, #64	; 0x40
   18646:	0028      	movs	r0, r5
   18648:	4e60      	ldr	r6, [pc, #384]	; (187cc <vApplicationDaemonTaskStartupHook+0x1b0>)
   1864a:	47b0      	blx	r6
	SerialConsoleWriteString(bufferPrint);
   1864c:	0028      	movs	r0, r5
   1864e:	4b60      	ldr	r3, [pc, #384]	; (187d0 <vApplicationDaemonTaskStartupHook+0x1b4>)
   18650:	4798      	blx	r3
	if (restxt == FR_OK) {
   18652:	2c00      	cmp	r4, #0
   18654:	d159      	bne.n	1870a <vApplicationDaemonTaskStartupHook+0xee>
		taskAflag = true;
   18656:	2201      	movs	r2, #1
   18658:	4b5e      	ldr	r3, [pc, #376]	; (187d4 <vApplicationDaemonTaskStartupHook+0x1b8>)
   1865a:	701a      	strb	r2, [r3, #0]
		SerialConsoleWriteString("flagA.txt is in SD card, do testA \r\n");
   1865c:	485e      	ldr	r0, [pc, #376]	; (187d8 <vApplicationDaemonTaskStartupHook+0x1bc>)
   1865e:	4c5c      	ldr	r4, [pc, #368]	; (187d0 <vApplicationDaemonTaskStartupHook+0x1b4>)
   18660:	47a0      	blx	r4
	init_storage();
   18662:	4b55      	ldr	r3, [pc, #340]	; (187b8 <vApplicationDaemonTaskStartupHook+0x19c>)
   18664:	4798      	blx	r3
	SerialConsoleWriteString("Test Program A - LED Toggles every 500ms\r\n");
   18666:	485d      	ldr	r0, [pc, #372]	; (187dc <vApplicationDaemonTaskStartupHook+0x1c0>)
   18668:	47a0      	blx	r4
	char test_file_name[] = "0:FlagB.txt";
   1866a:	a901      	add	r1, sp, #4
   1866c:	4b5c      	ldr	r3, [pc, #368]	; (187e0 <vApplicationDaemonTaskStartupHook+0x1c4>)
   1866e:	000a      	movs	r2, r1
   18670:	cb31      	ldmia	r3!, {r0, r4, r5}
   18672:	c231      	stmia	r2!, {r0, r4, r5}
	FRESULT res = f_open(&file_object,
   18674:	220a      	movs	r2, #10
   18676:	a807      	add	r0, sp, #28
   18678:	4b51      	ldr	r3, [pc, #324]	; (187c0 <vApplicationDaemonTaskStartupHook+0x1a4>)
   1867a:	4798      	blx	r3
   1867c:	1e02      	subs	r2, r0, #0
	if (res != FR_OK)
   1867e:	d03c      	beq.n	186fa <vApplicationDaemonTaskStartupHook+0xde>
		LogMessage(LOG_INFO_LVL ,"[FAIL] res %d\r\n", res);
   18680:	4958      	ldr	r1, [pc, #352]	; (187e4 <vApplicationDaemonTaskStartupHook+0x1c8>)
   18682:	2000      	movs	r0, #0
   18684:	4b58      	ldr	r3, [pc, #352]	; (187e8 <vApplicationDaemonTaskStartupHook+0x1cc>)
   18686:	4798      	blx	r3
	f_close(&file_object); //Close file
   18688:	a807      	add	r0, sp, #28
   1868a:	4b58      	ldr	r3, [pc, #352]	; (187ec <vApplicationDaemonTaskStartupHook+0x1d0>)
   1868c:	4798      	blx	r3
	PortGroup *const port_base = port_get_group_from_gpio_pin(gpio_pin);
	uint32_t pin_mask  = (1UL << (gpio_pin % 32));

	/* Set the pin to high or low atomically based on the requested level */
	if (level) {
		port_base->OUTSET.reg = pin_mask;
   1868e:	2680      	movs	r6, #128	; 0x80
   18690:	0436      	lsls	r6, r6, #16
   18692:	46b1      	mov	r9, r6
	return (port_base->IN.reg & pin_mask);
   18694:	4b56      	ldr	r3, [pc, #344]	; (187f0 <vApplicationDaemonTaskStartupHook+0x1d4>)
   18696:	4698      	mov	r8, r3
		port_base->OUTSET.reg = pin_mask;
   18698:	4f56      	ldr	r7, [pc, #344]	; (187f4 <vApplicationDaemonTaskStartupHook+0x1d8>)
   1869a:	464b      	mov	r3, r9
   1869c:	61bb      	str	r3, [r7, #24]
		delay_s(1);
   1869e:	25fa      	movs	r5, #250	; 0xfa
   186a0:	00ad      	lsls	r5, r5, #2
   186a2:	0028      	movs	r0, r5
   186a4:	4c54      	ldr	r4, [pc, #336]	; (187f8 <vApplicationDaemonTaskStartupHook+0x1dc>)
   186a6:	47a0      	blx	r4
	} else {
		port_base->OUTCLR.reg = pin_mask;
   186a8:	617e      	str	r6, [r7, #20]
		delay_s(1);
   186aa:	0028      	movs	r0, r5
   186ac:	47a0      	blx	r4
	return (port_base->IN.reg & pin_mask);
   186ae:	4643      	mov	r3, r8
   186b0:	6a1b      	ldr	r3, [r3, #32]
		if(port_pin_get_input_level(BUTTON_0_PIN) == false)
   186b2:	4233      	tst	r3, r6
   186b4:	d1f1      	bne.n	1869a <vApplicationDaemonTaskStartupHook+0x7e>
			delay_ms(1000);
   186b6:	0028      	movs	r0, r5
   186b8:	4b4f      	ldr	r3, [pc, #316]	; (187f8 <vApplicationDaemonTaskStartupHook+0x1dc>)
   186ba:	4798      	blx	r3
   186bc:	4643      	mov	r3, r8
   186be:	6a1b      	ldr	r3, [r3, #32]
			if(port_pin_get_input_level(BUTTON_0_PIN) == false)
   186c0:	4233      	tst	r3, r6
   186c2:	d1e9      	bne.n	18698 <vApplicationDaemonTaskStartupHook+0x7c>
				taskAflag = false;
   186c4:	2200      	movs	r2, #0
   186c6:	4b43      	ldr	r3, [pc, #268]	; (187d4 <vApplicationDaemonTaskStartupHook+0x1b8>)
   186c8:	701a      	strb	r2, [r3, #0]
				char delete_name[] = "0:FlagA.txt";
   186ca:	a804      	add	r0, sp, #16
   186cc:	4b3b      	ldr	r3, [pc, #236]	; (187bc <vApplicationDaemonTaskStartupHook+0x1a0>)
   186ce:	0002      	movs	r2, r0
   186d0:	cb32      	ldmia	r3!, {r1, r4, r5}
   186d2:	c232      	stmia	r2!, {r1, r4, r5}
				FRESULT resdel = f_unlink((char const *)delete_name);
   186d4:	4b49      	ldr	r3, [pc, #292]	; (187fc <vApplicationDaemonTaskStartupHook+0x1e0>)
   186d6:	4798      	blx	r3
				if (resdel != FR_OK) {
   186d8:	2800      	cmp	r0, #0
   186da:	d012      	beq.n	18702 <vApplicationDaemonTaskStartupHook+0xe6>
					SerialConsoleWriteString("Failed at deleting flagA\r\n");
   186dc:	4848      	ldr	r0, [pc, #288]	; (18800 <vApplicationDaemonTaskStartupHook+0x1e4>)
   186de:	4b3c      	ldr	r3, [pc, #240]	; (187d0 <vApplicationDaemonTaskStartupHook+0x1b4>)
   186e0:	4798      	blx	r3
				delay_ms(1000);
   186e2:	20fa      	movs	r0, #250	; 0xfa
   186e4:	0080      	lsls	r0, r0, #2
   186e6:	4b44      	ldr	r3, [pc, #272]	; (187f8 <vApplicationDaemonTaskStartupHook+0x1dc>)
   186e8:	4798      	blx	r3
    This function acts as a special kind of Data Memory Barrier.
    It completes when all explicit memory accesses before this instruction complete.
 */
__attribute__( ( always_inline ) ) __STATIC_INLINE void __DSB(void)
{
  __ASM volatile ("dsb");
   186ea:	f3bf 8f4f 	dsb	sy
 */
__STATIC_INLINE void NVIC_SystemReset(void)
{
  __DSB();                                                     /* Ensure all outstanding memory accesses included
                                                                  buffered write are completed before reset */
  SCB->AIRCR  = ((0x5FA << SCB_AIRCR_VECTKEY_Pos)      |
   186ee:	4a45      	ldr	r2, [pc, #276]	; (18804 <vApplicationDaemonTaskStartupHook+0x1e8>)
   186f0:	4b45      	ldr	r3, [pc, #276]	; (18808 <vApplicationDaemonTaskStartupHook+0x1ec>)
   186f2:	60da      	str	r2, [r3, #12]
   186f4:	f3bf 8f4f 	dsb	sy
   186f8:	e7fe      	b.n	186f8 <vApplicationDaemonTaskStartupHook+0xdc>
	SerialConsoleWriteString("FlagB.txt added! Hold button pressed to reset device!\r\n");
   186fa:	4844      	ldr	r0, [pc, #272]	; (1880c <vApplicationDaemonTaskStartupHook+0x1f0>)
   186fc:	4b34      	ldr	r3, [pc, #208]	; (187d0 <vApplicationDaemonTaskStartupHook+0x1b4>)
   186fe:	4798      	blx	r3
   18700:	e7c2      	b.n	18688 <vApplicationDaemonTaskStartupHook+0x6c>
					SerialConsoleWriteString("deleted flagA\r\n");
   18702:	4843      	ldr	r0, [pc, #268]	; (18810 <vApplicationDaemonTaskStartupHook+0x1f4>)
   18704:	4b32      	ldr	r3, [pc, #200]	; (187d0 <vApplicationDaemonTaskStartupHook+0x1b4>)
   18706:	4798      	blx	r3
   18708:	e7eb      	b.n	186e2 <vApplicationDaemonTaskStartupHook+0xc6>
		//SerialConsoleWriteString("run testA\r\n");
		TestA(); //run taskA if taskAflag is true
	}
	else {
		taskAflag = false;
   1870a:	2200      	movs	r2, #0
   1870c:	4b31      	ldr	r3, [pc, #196]	; (187d4 <vApplicationDaemonTaskStartupHook+0x1b8>)
   1870e:	701a      	strb	r2, [r3, #0]
		SerialConsoleWriteString("flagA.txt is not in SD card, do testB \r\n");
   18710:	4840      	ldr	r0, [pc, #256]	; (18814 <vApplicationDaemonTaskStartupHook+0x1f8>)
   18712:	4c2f      	ldr	r4, [pc, #188]	; (187d0 <vApplicationDaemonTaskStartupHook+0x1b4>)
   18714:	47a0      	blx	r4
	init_storage();
   18716:	4b28      	ldr	r3, [pc, #160]	; (187b8 <vApplicationDaemonTaskStartupHook+0x19c>)
   18718:	4798      	blx	r3
	SerialConsoleWriteString("Test Program B - LED Toggles every 100 ms second\r\n");
   1871a:	483f      	ldr	r0, [pc, #252]	; (18818 <vApplicationDaemonTaskStartupHook+0x1fc>)
   1871c:	47a0      	blx	r4
	char test_file_name[] = "0:FlagA.txt";
   1871e:	a901      	add	r1, sp, #4
   18720:	4b26      	ldr	r3, [pc, #152]	; (187bc <vApplicationDaemonTaskStartupHook+0x1a0>)
   18722:	000a      	movs	r2, r1
   18724:	cb31      	ldmia	r3!, {r0, r4, r5}
   18726:	c231      	stmia	r2!, {r0, r4, r5}
	FRESULT res = f_open(&file_object,
   18728:	220a      	movs	r2, #10
   1872a:	a807      	add	r0, sp, #28
   1872c:	4b24      	ldr	r3, [pc, #144]	; (187c0 <vApplicationDaemonTaskStartupHook+0x1a4>)
   1872e:	4798      	blx	r3
   18730:	1e02      	subs	r2, r0, #0
	if (res != FR_OK)
   18732:	d038      	beq.n	187a6 <vApplicationDaemonTaskStartupHook+0x18a>
		LogMessage(LOG_INFO_LVL ,"[FAIL] res %d\r\n", res);
   18734:	492b      	ldr	r1, [pc, #172]	; (187e4 <vApplicationDaemonTaskStartupHook+0x1c8>)
   18736:	2000      	movs	r0, #0
   18738:	4b2b      	ldr	r3, [pc, #172]	; (187e8 <vApplicationDaemonTaskStartupHook+0x1cc>)
   1873a:	4798      	blx	r3
	f_close(&file_object); //Close file
   1873c:	a807      	add	r0, sp, #28
   1873e:	4b2b      	ldr	r3, [pc, #172]	; (187ec <vApplicationDaemonTaskStartupHook+0x1d0>)
   18740:	4798      	blx	r3
		port_base->OUTSET.reg = pin_mask;
   18742:	2580      	movs	r5, #128	; 0x80
   18744:	042d      	lsls	r5, r5, #16
   18746:	46a8      	mov	r8, r5
	return (port_base->IN.reg & pin_mask);
   18748:	4f29      	ldr	r7, [pc, #164]	; (187f0 <vApplicationDaemonTaskStartupHook+0x1d4>)
		port_base->OUTSET.reg = pin_mask;
   1874a:	4e2a      	ldr	r6, [pc, #168]	; (187f4 <vApplicationDaemonTaskStartupHook+0x1d8>)
   1874c:	4643      	mov	r3, r8
   1874e:	61b3      	str	r3, [r6, #24]
		delay_ms(200);
   18750:	20c8      	movs	r0, #200	; 0xc8
   18752:	4c29      	ldr	r4, [pc, #164]	; (187f8 <vApplicationDaemonTaskStartupHook+0x1dc>)
   18754:	47a0      	blx	r4
		port_base->OUTCLR.reg = pin_mask;
   18756:	6175      	str	r5, [r6, #20]
		delay_ms(200);
   18758:	20c8      	movs	r0, #200	; 0xc8
   1875a:	47a0      	blx	r4
	return (port_base->IN.reg & pin_mask);
   1875c:	6a3b      	ldr	r3, [r7, #32]
		if(port_pin_get_input_level(BUTTON_0_PIN) == false)
   1875e:	422b      	tst	r3, r5
   18760:	d1f4      	bne.n	1874c <vApplicationDaemonTaskStartupHook+0x130>
			delay_ms(1000);
   18762:	20fa      	movs	r0, #250	; 0xfa
   18764:	0080      	lsls	r0, r0, #2
   18766:	4b24      	ldr	r3, [pc, #144]	; (187f8 <vApplicationDaemonTaskStartupHook+0x1dc>)
   18768:	4798      	blx	r3
   1876a:	6a3b      	ldr	r3, [r7, #32]
			if(port_pin_get_input_level(BUTTON_0_PIN) == false)
   1876c:	422b      	tst	r3, r5
   1876e:	d1ec      	bne.n	1874a <vApplicationDaemonTaskStartupHook+0x12e>
				taskAflag = true;
   18770:	2201      	movs	r2, #1
   18772:	4b18      	ldr	r3, [pc, #96]	; (187d4 <vApplicationDaemonTaskStartupHook+0x1b8>)
   18774:	701a      	strb	r2, [r3, #0]
				char delete_name[] = "0:FlagB.txt";
   18776:	a804      	add	r0, sp, #16
   18778:	4b19      	ldr	r3, [pc, #100]	; (187e0 <vApplicationDaemonTaskStartupHook+0x1c4>)
   1877a:	0002      	movs	r2, r0
   1877c:	cb32      	ldmia	r3!, {r1, r4, r5}
   1877e:	c232      	stmia	r2!, {r1, r4, r5}
				FRESULT resdel = f_unlink((char const *)delete_name);
   18780:	4b1e      	ldr	r3, [pc, #120]	; (187fc <vApplicationDaemonTaskStartupHook+0x1e0>)
   18782:	4798      	blx	r3
				if (resdel != FR_OK) {
   18784:	2800      	cmp	r0, #0
   18786:	d012      	beq.n	187ae <vApplicationDaemonTaskStartupHook+0x192>
					SerialConsoleWriteString("Failed at deleting flagB\r\n");
   18788:	4824      	ldr	r0, [pc, #144]	; (1881c <vApplicationDaemonTaskStartupHook+0x200>)
   1878a:	4b11      	ldr	r3, [pc, #68]	; (187d0 <vApplicationDaemonTaskStartupHook+0x1b4>)
   1878c:	4798      	blx	r3
				delay_ms(1000);
   1878e:	20fa      	movs	r0, #250	; 0xfa
   18790:	0080      	lsls	r0, r0, #2
   18792:	4b19      	ldr	r3, [pc, #100]	; (187f8 <vApplicationDaemonTaskStartupHook+0x1dc>)
   18794:	4798      	blx	r3
   18796:	f3bf 8f4f 	dsb	sy
   1879a:	4a1a      	ldr	r2, [pc, #104]	; (18804 <vApplicationDaemonTaskStartupHook+0x1e8>)
   1879c:	4b1a      	ldr	r3, [pc, #104]	; (18808 <vApplicationDaemonTaskStartupHook+0x1ec>)
   1879e:	60da      	str	r2, [r3, #12]
   187a0:	f3bf 8f4f 	dsb	sy
   187a4:	e7fe      	b.n	187a4 <vApplicationDaemonTaskStartupHook+0x188>
		SerialConsoleWriteString("FlagA.txt added! Hold button pressed to reset device!\r\n");
   187a6:	481e      	ldr	r0, [pc, #120]	; (18820 <vApplicationDaemonTaskStartupHook+0x204>)
   187a8:	4b09      	ldr	r3, [pc, #36]	; (187d0 <vApplicationDaemonTaskStartupHook+0x1b4>)
   187aa:	4798      	blx	r3
   187ac:	e7c6      	b.n	1873c <vApplicationDaemonTaskStartupHook+0x120>
					SerialConsoleWriteString("deleted flagB\r\n");
   187ae:	481d      	ldr	r0, [pc, #116]	; (18824 <vApplicationDaemonTaskStartupHook+0x208>)
   187b0:	4b07      	ldr	r3, [pc, #28]	; (187d0 <vApplicationDaemonTaskStartupHook+0x1b4>)
   187b2:	4798      	blx	r3
   187b4:	e7eb      	b.n	1878e <vApplicationDaemonTaskStartupHook+0x172>
   187b6:	46c0      	nop			; (mov r8, r8)
   187b8:	00012125 	.word	0x00012125
   187bc:	00019e64 	.word	0x00019e64
   187c0:	00018269 	.word	0x00018269
   187c4:	2000318c 	.word	0x2000318c
   187c8:	00019cc8 	.word	0x00019cc8
   187cc:	00018da9 	.word	0x00018da9
   187d0:	00013a69 	.word	0x00013a69
   187d4:	20003188 	.word	0x20003188
   187d8:	00019cd8 	.word	0x00019cd8
   187dc:	00019d00 	.word	0x00019d00
   187e0:	00019e70 	.word	0x00019e70
   187e4:	00019d2c 	.word	0x00019d2c
   187e8:	00013aed 	.word	0x00013aed
   187ec:	0001847d 	.word	0x0001847d
   187f0:	41004480 	.word	0x41004480
   187f4:	41004400 	.word	0x41004400
   187f8:	00014be9 	.word	0x00014be9
   187fc:	00018495 	.word	0x00018495
   18800:	00019d74 	.word	0x00019d74
   18804:	05fa0004 	.word	0x05fa0004
   18808:	e000ed00 	.word	0xe000ed00
   1880c:	00019d3c 	.word	0x00019d3c
   18810:	00019d90 	.word	0x00019d90
   18814:	00019da0 	.word	0x00019da0
   18818:	00019dcc 	.word	0x00019dcc
   1881c:	00019e38 	.word	0x00019e38
   18820:	00019e00 	.word	0x00019e00
   18824:	00019e54 	.word	0x00019e54

00018828 <vApplicationMallocFailedHook>:




void vApplicationMallocFailedHook(void)
{
   18828:	b510      	push	{r4, lr}
SerialConsoleWriteString("Error on memory allocation on FREERTOS!\r\n");
   1882a:	4802      	ldr	r0, [pc, #8]	; (18834 <vApplicationMallocFailedHook+0xc>)
   1882c:	4b02      	ldr	r3, [pc, #8]	; (18838 <vApplicationMallocFailedHook+0x10>)
   1882e:	4798      	blx	r3
   18830:	e7fe      	b.n	18830 <vApplicationMallocFailedHook+0x8>
   18832:	46c0      	nop			; (mov r8, r8)
   18834:	00019e7c 	.word	0x00019e7c
   18838:	00013a69 	.word	0x00013a69

0001883c <vApplicationStackOverflowHook>:
while(1);
}

void vApplicationStackOverflowHook(void)
{
   1883c:	b510      	push	{r4, lr}
SerialConsoleWriteString("Error on stack overflow on FREERTOS!\r\n");
   1883e:	4802      	ldr	r0, [pc, #8]	; (18848 <vApplicationStackOverflowHook+0xc>)
   18840:	4b02      	ldr	r3, [pc, #8]	; (1884c <vApplicationStackOverflowHook+0x10>)
   18842:	4798      	blx	r3
   18844:	e7fe      	b.n	18844 <vApplicationStackOverflowHook+0x8>
   18846:	46c0      	nop			; (mov r8, r8)
   18848:	00019ea8 	.word	0x00019ea8
   1884c:	00013a69 	.word	0x00013a69

00018850 <__udivsi3>:
   18850:	2200      	movs	r2, #0
   18852:	0843      	lsrs	r3, r0, #1
   18854:	428b      	cmp	r3, r1
   18856:	d374      	bcc.n	18942 <__udivsi3+0xf2>
   18858:	0903      	lsrs	r3, r0, #4
   1885a:	428b      	cmp	r3, r1
   1885c:	d35f      	bcc.n	1891e <__udivsi3+0xce>
   1885e:	0a03      	lsrs	r3, r0, #8
   18860:	428b      	cmp	r3, r1
   18862:	d344      	bcc.n	188ee <__udivsi3+0x9e>
   18864:	0b03      	lsrs	r3, r0, #12
   18866:	428b      	cmp	r3, r1
   18868:	d328      	bcc.n	188bc <__udivsi3+0x6c>
   1886a:	0c03      	lsrs	r3, r0, #16
   1886c:	428b      	cmp	r3, r1
   1886e:	d30d      	bcc.n	1888c <__udivsi3+0x3c>
   18870:	22ff      	movs	r2, #255	; 0xff
   18872:	0209      	lsls	r1, r1, #8
   18874:	ba12      	rev	r2, r2
   18876:	0c03      	lsrs	r3, r0, #16
   18878:	428b      	cmp	r3, r1
   1887a:	d302      	bcc.n	18882 <__udivsi3+0x32>
   1887c:	1212      	asrs	r2, r2, #8
   1887e:	0209      	lsls	r1, r1, #8
   18880:	d065      	beq.n	1894e <__udivsi3+0xfe>
   18882:	0b03      	lsrs	r3, r0, #12
   18884:	428b      	cmp	r3, r1
   18886:	d319      	bcc.n	188bc <__udivsi3+0x6c>
   18888:	e000      	b.n	1888c <__udivsi3+0x3c>
   1888a:	0a09      	lsrs	r1, r1, #8
   1888c:	0bc3      	lsrs	r3, r0, #15
   1888e:	428b      	cmp	r3, r1
   18890:	d301      	bcc.n	18896 <__udivsi3+0x46>
   18892:	03cb      	lsls	r3, r1, #15
   18894:	1ac0      	subs	r0, r0, r3
   18896:	4152      	adcs	r2, r2
   18898:	0b83      	lsrs	r3, r0, #14
   1889a:	428b      	cmp	r3, r1
   1889c:	d301      	bcc.n	188a2 <__udivsi3+0x52>
   1889e:	038b      	lsls	r3, r1, #14
   188a0:	1ac0      	subs	r0, r0, r3
   188a2:	4152      	adcs	r2, r2
   188a4:	0b43      	lsrs	r3, r0, #13
   188a6:	428b      	cmp	r3, r1
   188a8:	d301      	bcc.n	188ae <__udivsi3+0x5e>
   188aa:	034b      	lsls	r3, r1, #13
   188ac:	1ac0      	subs	r0, r0, r3
   188ae:	4152      	adcs	r2, r2
   188b0:	0b03      	lsrs	r3, r0, #12
   188b2:	428b      	cmp	r3, r1
   188b4:	d301      	bcc.n	188ba <__udivsi3+0x6a>
   188b6:	030b      	lsls	r3, r1, #12
   188b8:	1ac0      	subs	r0, r0, r3
   188ba:	4152      	adcs	r2, r2
   188bc:	0ac3      	lsrs	r3, r0, #11
   188be:	428b      	cmp	r3, r1
   188c0:	d301      	bcc.n	188c6 <__udivsi3+0x76>
   188c2:	02cb      	lsls	r3, r1, #11
   188c4:	1ac0      	subs	r0, r0, r3
   188c6:	4152      	adcs	r2, r2
   188c8:	0a83      	lsrs	r3, r0, #10
   188ca:	428b      	cmp	r3, r1
   188cc:	d301      	bcc.n	188d2 <__udivsi3+0x82>
   188ce:	028b      	lsls	r3, r1, #10
   188d0:	1ac0      	subs	r0, r0, r3
   188d2:	4152      	adcs	r2, r2
   188d4:	0a43      	lsrs	r3, r0, #9
   188d6:	428b      	cmp	r3, r1
   188d8:	d301      	bcc.n	188de <__udivsi3+0x8e>
   188da:	024b      	lsls	r3, r1, #9
   188dc:	1ac0      	subs	r0, r0, r3
   188de:	4152      	adcs	r2, r2
   188e0:	0a03      	lsrs	r3, r0, #8
   188e2:	428b      	cmp	r3, r1
   188e4:	d301      	bcc.n	188ea <__udivsi3+0x9a>
   188e6:	020b      	lsls	r3, r1, #8
   188e8:	1ac0      	subs	r0, r0, r3
   188ea:	4152      	adcs	r2, r2
   188ec:	d2cd      	bcs.n	1888a <__udivsi3+0x3a>
   188ee:	09c3      	lsrs	r3, r0, #7
   188f0:	428b      	cmp	r3, r1
   188f2:	d301      	bcc.n	188f8 <__udivsi3+0xa8>
   188f4:	01cb      	lsls	r3, r1, #7
   188f6:	1ac0      	subs	r0, r0, r3
   188f8:	4152      	adcs	r2, r2
   188fa:	0983      	lsrs	r3, r0, #6
   188fc:	428b      	cmp	r3, r1
   188fe:	d301      	bcc.n	18904 <__udivsi3+0xb4>
   18900:	018b      	lsls	r3, r1, #6
   18902:	1ac0      	subs	r0, r0, r3
   18904:	4152      	adcs	r2, r2
   18906:	0943      	lsrs	r3, r0, #5
   18908:	428b      	cmp	r3, r1
   1890a:	d301      	bcc.n	18910 <__udivsi3+0xc0>
   1890c:	014b      	lsls	r3, r1, #5
   1890e:	1ac0      	subs	r0, r0, r3
   18910:	4152      	adcs	r2, r2
   18912:	0903      	lsrs	r3, r0, #4
   18914:	428b      	cmp	r3, r1
   18916:	d301      	bcc.n	1891c <__udivsi3+0xcc>
   18918:	010b      	lsls	r3, r1, #4
   1891a:	1ac0      	subs	r0, r0, r3
   1891c:	4152      	adcs	r2, r2
   1891e:	08c3      	lsrs	r3, r0, #3
   18920:	428b      	cmp	r3, r1
   18922:	d301      	bcc.n	18928 <__udivsi3+0xd8>
   18924:	00cb      	lsls	r3, r1, #3
   18926:	1ac0      	subs	r0, r0, r3
   18928:	4152      	adcs	r2, r2
   1892a:	0883      	lsrs	r3, r0, #2
   1892c:	428b      	cmp	r3, r1
   1892e:	d301      	bcc.n	18934 <__udivsi3+0xe4>
   18930:	008b      	lsls	r3, r1, #2
   18932:	1ac0      	subs	r0, r0, r3
   18934:	4152      	adcs	r2, r2
   18936:	0843      	lsrs	r3, r0, #1
   18938:	428b      	cmp	r3, r1
   1893a:	d301      	bcc.n	18940 <__udivsi3+0xf0>
   1893c:	004b      	lsls	r3, r1, #1
   1893e:	1ac0      	subs	r0, r0, r3
   18940:	4152      	adcs	r2, r2
   18942:	1a41      	subs	r1, r0, r1
   18944:	d200      	bcs.n	18948 <__udivsi3+0xf8>
   18946:	4601      	mov	r1, r0
   18948:	4152      	adcs	r2, r2
   1894a:	4610      	mov	r0, r2
   1894c:	4770      	bx	lr
   1894e:	e7ff      	b.n	18950 <__udivsi3+0x100>
   18950:	b501      	push	{r0, lr}
   18952:	2000      	movs	r0, #0
   18954:	f000 f8f0 	bl	18b38 <__aeabi_idiv0>
   18958:	bd02      	pop	{r1, pc}
   1895a:	46c0      	nop			; (mov r8, r8)

0001895c <__aeabi_uidivmod>:
   1895c:	2900      	cmp	r1, #0
   1895e:	d0f7      	beq.n	18950 <__udivsi3+0x100>
   18960:	e776      	b.n	18850 <__udivsi3>
   18962:	4770      	bx	lr

00018964 <__divsi3>:
   18964:	4603      	mov	r3, r0
   18966:	430b      	orrs	r3, r1
   18968:	d47f      	bmi.n	18a6a <__divsi3+0x106>
   1896a:	2200      	movs	r2, #0
   1896c:	0843      	lsrs	r3, r0, #1
   1896e:	428b      	cmp	r3, r1
   18970:	d374      	bcc.n	18a5c <__divsi3+0xf8>
   18972:	0903      	lsrs	r3, r0, #4
   18974:	428b      	cmp	r3, r1
   18976:	d35f      	bcc.n	18a38 <__divsi3+0xd4>
   18978:	0a03      	lsrs	r3, r0, #8
   1897a:	428b      	cmp	r3, r1
   1897c:	d344      	bcc.n	18a08 <__divsi3+0xa4>
   1897e:	0b03      	lsrs	r3, r0, #12
   18980:	428b      	cmp	r3, r1
   18982:	d328      	bcc.n	189d6 <__divsi3+0x72>
   18984:	0c03      	lsrs	r3, r0, #16
   18986:	428b      	cmp	r3, r1
   18988:	d30d      	bcc.n	189a6 <__divsi3+0x42>
   1898a:	22ff      	movs	r2, #255	; 0xff
   1898c:	0209      	lsls	r1, r1, #8
   1898e:	ba12      	rev	r2, r2
   18990:	0c03      	lsrs	r3, r0, #16
   18992:	428b      	cmp	r3, r1
   18994:	d302      	bcc.n	1899c <__divsi3+0x38>
   18996:	1212      	asrs	r2, r2, #8
   18998:	0209      	lsls	r1, r1, #8
   1899a:	d065      	beq.n	18a68 <__divsi3+0x104>
   1899c:	0b03      	lsrs	r3, r0, #12
   1899e:	428b      	cmp	r3, r1
   189a0:	d319      	bcc.n	189d6 <__divsi3+0x72>
   189a2:	e000      	b.n	189a6 <__divsi3+0x42>
   189a4:	0a09      	lsrs	r1, r1, #8
   189a6:	0bc3      	lsrs	r3, r0, #15
   189a8:	428b      	cmp	r3, r1
   189aa:	d301      	bcc.n	189b0 <__divsi3+0x4c>
   189ac:	03cb      	lsls	r3, r1, #15
   189ae:	1ac0      	subs	r0, r0, r3
   189b0:	4152      	adcs	r2, r2
   189b2:	0b83      	lsrs	r3, r0, #14
   189b4:	428b      	cmp	r3, r1
   189b6:	d301      	bcc.n	189bc <__divsi3+0x58>
   189b8:	038b      	lsls	r3, r1, #14
   189ba:	1ac0      	subs	r0, r0, r3
   189bc:	4152      	adcs	r2, r2
   189be:	0b43      	lsrs	r3, r0, #13
   189c0:	428b      	cmp	r3, r1
   189c2:	d301      	bcc.n	189c8 <__divsi3+0x64>
   189c4:	034b      	lsls	r3, r1, #13
   189c6:	1ac0      	subs	r0, r0, r3
   189c8:	4152      	adcs	r2, r2
   189ca:	0b03      	lsrs	r3, r0, #12
   189cc:	428b      	cmp	r3, r1
   189ce:	d301      	bcc.n	189d4 <__divsi3+0x70>
   189d0:	030b      	lsls	r3, r1, #12
   189d2:	1ac0      	subs	r0, r0, r3
   189d4:	4152      	adcs	r2, r2
   189d6:	0ac3      	lsrs	r3, r0, #11
   189d8:	428b      	cmp	r3, r1
   189da:	d301      	bcc.n	189e0 <__divsi3+0x7c>
   189dc:	02cb      	lsls	r3, r1, #11
   189de:	1ac0      	subs	r0, r0, r3
   189e0:	4152      	adcs	r2, r2
   189e2:	0a83      	lsrs	r3, r0, #10
   189e4:	428b      	cmp	r3, r1
   189e6:	d301      	bcc.n	189ec <__divsi3+0x88>
   189e8:	028b      	lsls	r3, r1, #10
   189ea:	1ac0      	subs	r0, r0, r3
   189ec:	4152      	adcs	r2, r2
   189ee:	0a43      	lsrs	r3, r0, #9
   189f0:	428b      	cmp	r3, r1
   189f2:	d301      	bcc.n	189f8 <__divsi3+0x94>
   189f4:	024b      	lsls	r3, r1, #9
   189f6:	1ac0      	subs	r0, r0, r3
   189f8:	4152      	adcs	r2, r2
   189fa:	0a03      	lsrs	r3, r0, #8
   189fc:	428b      	cmp	r3, r1
   189fe:	d301      	bcc.n	18a04 <__divsi3+0xa0>
   18a00:	020b      	lsls	r3, r1, #8
   18a02:	1ac0      	subs	r0, r0, r3
   18a04:	4152      	adcs	r2, r2
   18a06:	d2cd      	bcs.n	189a4 <__divsi3+0x40>
   18a08:	09c3      	lsrs	r3, r0, #7
   18a0a:	428b      	cmp	r3, r1
   18a0c:	d301      	bcc.n	18a12 <__divsi3+0xae>
   18a0e:	01cb      	lsls	r3, r1, #7
   18a10:	1ac0      	subs	r0, r0, r3
   18a12:	4152      	adcs	r2, r2
   18a14:	0983      	lsrs	r3, r0, #6
   18a16:	428b      	cmp	r3, r1
   18a18:	d301      	bcc.n	18a1e <__divsi3+0xba>
   18a1a:	018b      	lsls	r3, r1, #6
   18a1c:	1ac0      	subs	r0, r0, r3
   18a1e:	4152      	adcs	r2, r2
   18a20:	0943      	lsrs	r3, r0, #5
   18a22:	428b      	cmp	r3, r1
   18a24:	d301      	bcc.n	18a2a <__divsi3+0xc6>
   18a26:	014b      	lsls	r3, r1, #5
   18a28:	1ac0      	subs	r0, r0, r3
   18a2a:	4152      	adcs	r2, r2
   18a2c:	0903      	lsrs	r3, r0, #4
   18a2e:	428b      	cmp	r3, r1
   18a30:	d301      	bcc.n	18a36 <__divsi3+0xd2>
   18a32:	010b      	lsls	r3, r1, #4
   18a34:	1ac0      	subs	r0, r0, r3
   18a36:	4152      	adcs	r2, r2
   18a38:	08c3      	lsrs	r3, r0, #3
   18a3a:	428b      	cmp	r3, r1
   18a3c:	d301      	bcc.n	18a42 <__divsi3+0xde>
   18a3e:	00cb      	lsls	r3, r1, #3
   18a40:	1ac0      	subs	r0, r0, r3
   18a42:	4152      	adcs	r2, r2
   18a44:	0883      	lsrs	r3, r0, #2
   18a46:	428b      	cmp	r3, r1
   18a48:	d301      	bcc.n	18a4e <__divsi3+0xea>
   18a4a:	008b      	lsls	r3, r1, #2
   18a4c:	1ac0      	subs	r0, r0, r3
   18a4e:	4152      	adcs	r2, r2
   18a50:	0843      	lsrs	r3, r0, #1
   18a52:	428b      	cmp	r3, r1
   18a54:	d301      	bcc.n	18a5a <__divsi3+0xf6>
   18a56:	004b      	lsls	r3, r1, #1
   18a58:	1ac0      	subs	r0, r0, r3
   18a5a:	4152      	adcs	r2, r2
   18a5c:	1a41      	subs	r1, r0, r1
   18a5e:	d200      	bcs.n	18a62 <__divsi3+0xfe>
   18a60:	4601      	mov	r1, r0
   18a62:	4152      	adcs	r2, r2
   18a64:	4610      	mov	r0, r2
   18a66:	4770      	bx	lr
   18a68:	e05d      	b.n	18b26 <__divsi3+0x1c2>
   18a6a:	0fca      	lsrs	r2, r1, #31
   18a6c:	d000      	beq.n	18a70 <__divsi3+0x10c>
   18a6e:	4249      	negs	r1, r1
   18a70:	1003      	asrs	r3, r0, #32
   18a72:	d300      	bcc.n	18a76 <__divsi3+0x112>
   18a74:	4240      	negs	r0, r0
   18a76:	4053      	eors	r3, r2
   18a78:	2200      	movs	r2, #0
   18a7a:	469c      	mov	ip, r3
   18a7c:	0903      	lsrs	r3, r0, #4
   18a7e:	428b      	cmp	r3, r1
   18a80:	d32d      	bcc.n	18ade <__divsi3+0x17a>
   18a82:	0a03      	lsrs	r3, r0, #8
   18a84:	428b      	cmp	r3, r1
   18a86:	d312      	bcc.n	18aae <__divsi3+0x14a>
   18a88:	22fc      	movs	r2, #252	; 0xfc
   18a8a:	0189      	lsls	r1, r1, #6
   18a8c:	ba12      	rev	r2, r2
   18a8e:	0a03      	lsrs	r3, r0, #8
   18a90:	428b      	cmp	r3, r1
   18a92:	d30c      	bcc.n	18aae <__divsi3+0x14a>
   18a94:	0189      	lsls	r1, r1, #6
   18a96:	1192      	asrs	r2, r2, #6
   18a98:	428b      	cmp	r3, r1
   18a9a:	d308      	bcc.n	18aae <__divsi3+0x14a>
   18a9c:	0189      	lsls	r1, r1, #6
   18a9e:	1192      	asrs	r2, r2, #6
   18aa0:	428b      	cmp	r3, r1
   18aa2:	d304      	bcc.n	18aae <__divsi3+0x14a>
   18aa4:	0189      	lsls	r1, r1, #6
   18aa6:	d03a      	beq.n	18b1e <__divsi3+0x1ba>
   18aa8:	1192      	asrs	r2, r2, #6
   18aaa:	e000      	b.n	18aae <__divsi3+0x14a>
   18aac:	0989      	lsrs	r1, r1, #6
   18aae:	09c3      	lsrs	r3, r0, #7
   18ab0:	428b      	cmp	r3, r1
   18ab2:	d301      	bcc.n	18ab8 <__divsi3+0x154>
   18ab4:	01cb      	lsls	r3, r1, #7
   18ab6:	1ac0      	subs	r0, r0, r3
   18ab8:	4152      	adcs	r2, r2
   18aba:	0983      	lsrs	r3, r0, #6
   18abc:	428b      	cmp	r3, r1
   18abe:	d301      	bcc.n	18ac4 <__divsi3+0x160>
   18ac0:	018b      	lsls	r3, r1, #6
   18ac2:	1ac0      	subs	r0, r0, r3
   18ac4:	4152      	adcs	r2, r2
   18ac6:	0943      	lsrs	r3, r0, #5
   18ac8:	428b      	cmp	r3, r1
   18aca:	d301      	bcc.n	18ad0 <__divsi3+0x16c>
   18acc:	014b      	lsls	r3, r1, #5
   18ace:	1ac0      	subs	r0, r0, r3
   18ad0:	4152      	adcs	r2, r2
   18ad2:	0903      	lsrs	r3, r0, #4
   18ad4:	428b      	cmp	r3, r1
   18ad6:	d301      	bcc.n	18adc <__divsi3+0x178>
   18ad8:	010b      	lsls	r3, r1, #4
   18ada:	1ac0      	subs	r0, r0, r3
   18adc:	4152      	adcs	r2, r2
   18ade:	08c3      	lsrs	r3, r0, #3
   18ae0:	428b      	cmp	r3, r1
   18ae2:	d301      	bcc.n	18ae8 <__divsi3+0x184>
   18ae4:	00cb      	lsls	r3, r1, #3
   18ae6:	1ac0      	subs	r0, r0, r3
   18ae8:	4152      	adcs	r2, r2
   18aea:	0883      	lsrs	r3, r0, #2
   18aec:	428b      	cmp	r3, r1
   18aee:	d301      	bcc.n	18af4 <__divsi3+0x190>
   18af0:	008b      	lsls	r3, r1, #2
   18af2:	1ac0      	subs	r0, r0, r3
   18af4:	4152      	adcs	r2, r2
   18af6:	d2d9      	bcs.n	18aac <__divsi3+0x148>
   18af8:	0843      	lsrs	r3, r0, #1
   18afa:	428b      	cmp	r3, r1
   18afc:	d301      	bcc.n	18b02 <__divsi3+0x19e>
   18afe:	004b      	lsls	r3, r1, #1
   18b00:	1ac0      	subs	r0, r0, r3
   18b02:	4152      	adcs	r2, r2
   18b04:	1a41      	subs	r1, r0, r1
   18b06:	d200      	bcs.n	18b0a <__divsi3+0x1a6>
   18b08:	4601      	mov	r1, r0
   18b0a:	4663      	mov	r3, ip
   18b0c:	4152      	adcs	r2, r2
   18b0e:	105b      	asrs	r3, r3, #1
   18b10:	4610      	mov	r0, r2
   18b12:	d301      	bcc.n	18b18 <__divsi3+0x1b4>
   18b14:	4240      	negs	r0, r0
   18b16:	2b00      	cmp	r3, #0
   18b18:	d500      	bpl.n	18b1c <__divsi3+0x1b8>
   18b1a:	4249      	negs	r1, r1
   18b1c:	4770      	bx	lr
   18b1e:	4663      	mov	r3, ip
   18b20:	105b      	asrs	r3, r3, #1
   18b22:	d300      	bcc.n	18b26 <__divsi3+0x1c2>
   18b24:	4240      	negs	r0, r0
   18b26:	b501      	push	{r0, lr}
   18b28:	2000      	movs	r0, #0
   18b2a:	f000 f805 	bl	18b38 <__aeabi_idiv0>
   18b2e:	bd02      	pop	{r1, pc}

00018b30 <__aeabi_idivmod>:
   18b30:	2900      	cmp	r1, #0
   18b32:	d0f8      	beq.n	18b26 <__divsi3+0x1c2>
   18b34:	e716      	b.n	18964 <__divsi3>
   18b36:	4770      	bx	lr

00018b38 <__aeabi_idiv0>:
   18b38:	4770      	bx	lr
   18b3a:	46c0      	nop			; (mov r8, r8)

00018b3c <__aeabi_lmul>:
   18b3c:	b5f0      	push	{r4, r5, r6, r7, lr}
   18b3e:	46ce      	mov	lr, r9
   18b40:	4647      	mov	r7, r8
   18b42:	0415      	lsls	r5, r2, #16
   18b44:	0c2d      	lsrs	r5, r5, #16
   18b46:	002e      	movs	r6, r5
   18b48:	b580      	push	{r7, lr}
   18b4a:	0407      	lsls	r7, r0, #16
   18b4c:	0c14      	lsrs	r4, r2, #16
   18b4e:	0c3f      	lsrs	r7, r7, #16
   18b50:	4699      	mov	r9, r3
   18b52:	0c03      	lsrs	r3, r0, #16
   18b54:	437e      	muls	r6, r7
   18b56:	435d      	muls	r5, r3
   18b58:	4367      	muls	r7, r4
   18b5a:	4363      	muls	r3, r4
   18b5c:	197f      	adds	r7, r7, r5
   18b5e:	0c34      	lsrs	r4, r6, #16
   18b60:	19e4      	adds	r4, r4, r7
   18b62:	469c      	mov	ip, r3
   18b64:	42a5      	cmp	r5, r4
   18b66:	d903      	bls.n	18b70 <__aeabi_lmul+0x34>
   18b68:	2380      	movs	r3, #128	; 0x80
   18b6a:	025b      	lsls	r3, r3, #9
   18b6c:	4698      	mov	r8, r3
   18b6e:	44c4      	add	ip, r8
   18b70:	464b      	mov	r3, r9
   18b72:	4351      	muls	r1, r2
   18b74:	4343      	muls	r3, r0
   18b76:	0436      	lsls	r6, r6, #16
   18b78:	0c36      	lsrs	r6, r6, #16
   18b7a:	0c25      	lsrs	r5, r4, #16
   18b7c:	0424      	lsls	r4, r4, #16
   18b7e:	4465      	add	r5, ip
   18b80:	19a4      	adds	r4, r4, r6
   18b82:	1859      	adds	r1, r3, r1
   18b84:	1949      	adds	r1, r1, r5
   18b86:	0020      	movs	r0, r4
   18b88:	bc0c      	pop	{r2, r3}
   18b8a:	4690      	mov	r8, r2
   18b8c:	4699      	mov	r9, r3
   18b8e:	bdf0      	pop	{r4, r5, r6, r7, pc}

00018b90 <__libc_init_array>:
   18b90:	b570      	push	{r4, r5, r6, lr}
   18b92:	2600      	movs	r6, #0
   18b94:	4d0c      	ldr	r5, [pc, #48]	; (18bc8 <__libc_init_array+0x38>)
   18b96:	4c0d      	ldr	r4, [pc, #52]	; (18bcc <__libc_init_array+0x3c>)
   18b98:	1b64      	subs	r4, r4, r5
   18b9a:	10a4      	asrs	r4, r4, #2
   18b9c:	42a6      	cmp	r6, r4
   18b9e:	d109      	bne.n	18bb4 <__libc_init_array+0x24>
   18ba0:	2600      	movs	r6, #0
   18ba2:	f001 f9df 	bl	19f64 <_init>
   18ba6:	4d0a      	ldr	r5, [pc, #40]	; (18bd0 <__libc_init_array+0x40>)
   18ba8:	4c0a      	ldr	r4, [pc, #40]	; (18bd4 <__libc_init_array+0x44>)
   18baa:	1b64      	subs	r4, r4, r5
   18bac:	10a4      	asrs	r4, r4, #2
   18bae:	42a6      	cmp	r6, r4
   18bb0:	d105      	bne.n	18bbe <__libc_init_array+0x2e>
   18bb2:	bd70      	pop	{r4, r5, r6, pc}
   18bb4:	00b3      	lsls	r3, r6, #2
   18bb6:	58eb      	ldr	r3, [r5, r3]
   18bb8:	4798      	blx	r3
   18bba:	3601      	adds	r6, #1
   18bbc:	e7ee      	b.n	18b9c <__libc_init_array+0xc>
   18bbe:	00b3      	lsls	r3, r6, #2
   18bc0:	58eb      	ldr	r3, [r5, r3]
   18bc2:	4798      	blx	r3
   18bc4:	3601      	adds	r6, #1
   18bc6:	e7f2      	b.n	18bae <__libc_init_array+0x1e>
   18bc8:	00019f70 	.word	0x00019f70
   18bcc:	00019f70 	.word	0x00019f70
   18bd0:	00019f70 	.word	0x00019f70
   18bd4:	00019f74 	.word	0x00019f74

00018bd8 <malloc>:
   18bd8:	b510      	push	{r4, lr}
   18bda:	4b03      	ldr	r3, [pc, #12]	; (18be8 <malloc+0x10>)
   18bdc:	0001      	movs	r1, r0
   18bde:	6818      	ldr	r0, [r3, #0]
   18be0:	f000 f872 	bl	18cc8 <_malloc_r>
   18be4:	bd10      	pop	{r4, pc}
   18be6:	46c0      	nop			; (mov r8, r8)
   18be8:	20000010 	.word	0x20000010

00018bec <memcpy>:
   18bec:	2300      	movs	r3, #0
   18bee:	b510      	push	{r4, lr}
   18bf0:	429a      	cmp	r2, r3
   18bf2:	d100      	bne.n	18bf6 <memcpy+0xa>
   18bf4:	bd10      	pop	{r4, pc}
   18bf6:	5ccc      	ldrb	r4, [r1, r3]
   18bf8:	54c4      	strb	r4, [r0, r3]
   18bfa:	3301      	adds	r3, #1
   18bfc:	e7f8      	b.n	18bf0 <memcpy+0x4>

00018bfe <memmove>:
   18bfe:	b510      	push	{r4, lr}
   18c00:	4288      	cmp	r0, r1
   18c02:	d902      	bls.n	18c0a <memmove+0xc>
   18c04:	188b      	adds	r3, r1, r2
   18c06:	4298      	cmp	r0, r3
   18c08:	d308      	bcc.n	18c1c <memmove+0x1e>
   18c0a:	2300      	movs	r3, #0
   18c0c:	429a      	cmp	r2, r3
   18c0e:	d007      	beq.n	18c20 <memmove+0x22>
   18c10:	5ccc      	ldrb	r4, [r1, r3]
   18c12:	54c4      	strb	r4, [r0, r3]
   18c14:	3301      	adds	r3, #1
   18c16:	e7f9      	b.n	18c0c <memmove+0xe>
   18c18:	5c8b      	ldrb	r3, [r1, r2]
   18c1a:	5483      	strb	r3, [r0, r2]
   18c1c:	3a01      	subs	r2, #1
   18c1e:	d2fb      	bcs.n	18c18 <memmove+0x1a>
   18c20:	bd10      	pop	{r4, pc}

00018c22 <memset>:
   18c22:	0003      	movs	r3, r0
   18c24:	1882      	adds	r2, r0, r2
   18c26:	4293      	cmp	r3, r2
   18c28:	d100      	bne.n	18c2c <memset+0xa>
   18c2a:	4770      	bx	lr
   18c2c:	7019      	strb	r1, [r3, #0]
   18c2e:	3301      	adds	r3, #1
   18c30:	e7f9      	b.n	18c26 <memset+0x4>
	...

00018c34 <_free_r>:
   18c34:	b570      	push	{r4, r5, r6, lr}
   18c36:	0005      	movs	r5, r0
   18c38:	2900      	cmp	r1, #0
   18c3a:	d010      	beq.n	18c5e <_free_r+0x2a>
   18c3c:	1f0c      	subs	r4, r1, #4
   18c3e:	6823      	ldr	r3, [r4, #0]
   18c40:	2b00      	cmp	r3, #0
   18c42:	da00      	bge.n	18c46 <_free_r+0x12>
   18c44:	18e4      	adds	r4, r4, r3
   18c46:	0028      	movs	r0, r5
   18c48:	f000 f91e 	bl	18e88 <__malloc_lock>
   18c4c:	4a1d      	ldr	r2, [pc, #116]	; (18cc4 <_free_r+0x90>)
   18c4e:	6813      	ldr	r3, [r2, #0]
   18c50:	2b00      	cmp	r3, #0
   18c52:	d105      	bne.n	18c60 <_free_r+0x2c>
   18c54:	6063      	str	r3, [r4, #4]
   18c56:	6014      	str	r4, [r2, #0]
   18c58:	0028      	movs	r0, r5
   18c5a:	f000 f916 	bl	18e8a <__malloc_unlock>
   18c5e:	bd70      	pop	{r4, r5, r6, pc}
   18c60:	42a3      	cmp	r3, r4
   18c62:	d909      	bls.n	18c78 <_free_r+0x44>
   18c64:	6821      	ldr	r1, [r4, #0]
   18c66:	1860      	adds	r0, r4, r1
   18c68:	4283      	cmp	r3, r0
   18c6a:	d1f3      	bne.n	18c54 <_free_r+0x20>
   18c6c:	6818      	ldr	r0, [r3, #0]
   18c6e:	685b      	ldr	r3, [r3, #4]
   18c70:	1841      	adds	r1, r0, r1
   18c72:	6021      	str	r1, [r4, #0]
   18c74:	e7ee      	b.n	18c54 <_free_r+0x20>
   18c76:	0013      	movs	r3, r2
   18c78:	685a      	ldr	r2, [r3, #4]
   18c7a:	2a00      	cmp	r2, #0
   18c7c:	d001      	beq.n	18c82 <_free_r+0x4e>
   18c7e:	42a2      	cmp	r2, r4
   18c80:	d9f9      	bls.n	18c76 <_free_r+0x42>
   18c82:	6819      	ldr	r1, [r3, #0]
   18c84:	1858      	adds	r0, r3, r1
   18c86:	42a0      	cmp	r0, r4
   18c88:	d10b      	bne.n	18ca2 <_free_r+0x6e>
   18c8a:	6820      	ldr	r0, [r4, #0]
   18c8c:	1809      	adds	r1, r1, r0
   18c8e:	1858      	adds	r0, r3, r1
   18c90:	6019      	str	r1, [r3, #0]
   18c92:	4282      	cmp	r2, r0
   18c94:	d1e0      	bne.n	18c58 <_free_r+0x24>
   18c96:	6810      	ldr	r0, [r2, #0]
   18c98:	6852      	ldr	r2, [r2, #4]
   18c9a:	1841      	adds	r1, r0, r1
   18c9c:	6019      	str	r1, [r3, #0]
   18c9e:	605a      	str	r2, [r3, #4]
   18ca0:	e7da      	b.n	18c58 <_free_r+0x24>
   18ca2:	42a0      	cmp	r0, r4
   18ca4:	d902      	bls.n	18cac <_free_r+0x78>
   18ca6:	230c      	movs	r3, #12
   18ca8:	602b      	str	r3, [r5, #0]
   18caa:	e7d5      	b.n	18c58 <_free_r+0x24>
   18cac:	6821      	ldr	r1, [r4, #0]
   18cae:	1860      	adds	r0, r4, r1
   18cb0:	4282      	cmp	r2, r0
   18cb2:	d103      	bne.n	18cbc <_free_r+0x88>
   18cb4:	6810      	ldr	r0, [r2, #0]
   18cb6:	6852      	ldr	r2, [r2, #4]
   18cb8:	1841      	adds	r1, r0, r1
   18cba:	6021      	str	r1, [r4, #0]
   18cbc:	6062      	str	r2, [r4, #4]
   18cbe:	605c      	str	r4, [r3, #4]
   18cc0:	e7ca      	b.n	18c58 <_free_r+0x24>
   18cc2:	46c0      	nop			; (mov r8, r8)
   18cc4:	20002c08 	.word	0x20002c08

00018cc8 <_malloc_r>:
   18cc8:	2303      	movs	r3, #3
   18cca:	b570      	push	{r4, r5, r6, lr}
   18ccc:	1ccd      	adds	r5, r1, #3
   18cce:	439d      	bics	r5, r3
   18cd0:	3508      	adds	r5, #8
   18cd2:	0006      	movs	r6, r0
   18cd4:	2d0c      	cmp	r5, #12
   18cd6:	d21e      	bcs.n	18d16 <_malloc_r+0x4e>
   18cd8:	250c      	movs	r5, #12
   18cda:	42a9      	cmp	r1, r5
   18cdc:	d81d      	bhi.n	18d1a <_malloc_r+0x52>
   18cde:	0030      	movs	r0, r6
   18ce0:	f000 f8d2 	bl	18e88 <__malloc_lock>
   18ce4:	4a25      	ldr	r2, [pc, #148]	; (18d7c <_malloc_r+0xb4>)
   18ce6:	6814      	ldr	r4, [r2, #0]
   18ce8:	0021      	movs	r1, r4
   18cea:	2900      	cmp	r1, #0
   18cec:	d119      	bne.n	18d22 <_malloc_r+0x5a>
   18cee:	4c24      	ldr	r4, [pc, #144]	; (18d80 <_malloc_r+0xb8>)
   18cf0:	6823      	ldr	r3, [r4, #0]
   18cf2:	2b00      	cmp	r3, #0
   18cf4:	d103      	bne.n	18cfe <_malloc_r+0x36>
   18cf6:	0030      	movs	r0, r6
   18cf8:	f000 f844 	bl	18d84 <_sbrk_r>
   18cfc:	6020      	str	r0, [r4, #0]
   18cfe:	0029      	movs	r1, r5
   18d00:	0030      	movs	r0, r6
   18d02:	f000 f83f 	bl	18d84 <_sbrk_r>
   18d06:	1c43      	adds	r3, r0, #1
   18d08:	d12c      	bne.n	18d64 <_malloc_r+0x9c>
   18d0a:	230c      	movs	r3, #12
   18d0c:	0030      	movs	r0, r6
   18d0e:	6033      	str	r3, [r6, #0]
   18d10:	f000 f8bb 	bl	18e8a <__malloc_unlock>
   18d14:	e003      	b.n	18d1e <_malloc_r+0x56>
   18d16:	2d00      	cmp	r5, #0
   18d18:	dadf      	bge.n	18cda <_malloc_r+0x12>
   18d1a:	230c      	movs	r3, #12
   18d1c:	6033      	str	r3, [r6, #0]
   18d1e:	2000      	movs	r0, #0
   18d20:	bd70      	pop	{r4, r5, r6, pc}
   18d22:	680b      	ldr	r3, [r1, #0]
   18d24:	1b5b      	subs	r3, r3, r5
   18d26:	d41a      	bmi.n	18d5e <_malloc_r+0x96>
   18d28:	2b0b      	cmp	r3, #11
   18d2a:	d903      	bls.n	18d34 <_malloc_r+0x6c>
   18d2c:	600b      	str	r3, [r1, #0]
   18d2e:	18cc      	adds	r4, r1, r3
   18d30:	6025      	str	r5, [r4, #0]
   18d32:	e003      	b.n	18d3c <_malloc_r+0x74>
   18d34:	428c      	cmp	r4, r1
   18d36:	d10e      	bne.n	18d56 <_malloc_r+0x8e>
   18d38:	6863      	ldr	r3, [r4, #4]
   18d3a:	6013      	str	r3, [r2, #0]
   18d3c:	0030      	movs	r0, r6
   18d3e:	f000 f8a4 	bl	18e8a <__malloc_unlock>
   18d42:	0020      	movs	r0, r4
   18d44:	2207      	movs	r2, #7
   18d46:	300b      	adds	r0, #11
   18d48:	1d23      	adds	r3, r4, #4
   18d4a:	4390      	bics	r0, r2
   18d4c:	1ac3      	subs	r3, r0, r3
   18d4e:	d0e7      	beq.n	18d20 <_malloc_r+0x58>
   18d50:	425a      	negs	r2, r3
   18d52:	50e2      	str	r2, [r4, r3]
   18d54:	e7e4      	b.n	18d20 <_malloc_r+0x58>
   18d56:	684b      	ldr	r3, [r1, #4]
   18d58:	6063      	str	r3, [r4, #4]
   18d5a:	000c      	movs	r4, r1
   18d5c:	e7ee      	b.n	18d3c <_malloc_r+0x74>
   18d5e:	000c      	movs	r4, r1
   18d60:	6849      	ldr	r1, [r1, #4]
   18d62:	e7c2      	b.n	18cea <_malloc_r+0x22>
   18d64:	2303      	movs	r3, #3
   18d66:	1cc4      	adds	r4, r0, #3
   18d68:	439c      	bics	r4, r3
   18d6a:	42a0      	cmp	r0, r4
   18d6c:	d0e0      	beq.n	18d30 <_malloc_r+0x68>
   18d6e:	1a21      	subs	r1, r4, r0
   18d70:	0030      	movs	r0, r6
   18d72:	f000 f807 	bl	18d84 <_sbrk_r>
   18d76:	1c43      	adds	r3, r0, #1
   18d78:	d1da      	bne.n	18d30 <_malloc_r+0x68>
   18d7a:	e7c6      	b.n	18d0a <_malloc_r+0x42>
   18d7c:	20002c08 	.word	0x20002c08
   18d80:	20002c0c 	.word	0x20002c0c

00018d84 <_sbrk_r>:
   18d84:	2300      	movs	r3, #0
   18d86:	b570      	push	{r4, r5, r6, lr}
   18d88:	4c06      	ldr	r4, [pc, #24]	; (18da4 <_sbrk_r+0x20>)
   18d8a:	0005      	movs	r5, r0
   18d8c:	0008      	movs	r0, r1
   18d8e:	6023      	str	r3, [r4, #0]
   18d90:	f7fd fe76 	bl	16a80 <_sbrk>
   18d94:	1c43      	adds	r3, r0, #1
   18d96:	d103      	bne.n	18da0 <_sbrk_r+0x1c>
   18d98:	6823      	ldr	r3, [r4, #0]
   18d9a:	2b00      	cmp	r3, #0
   18d9c:	d000      	beq.n	18da0 <_sbrk_r+0x1c>
   18d9e:	602b      	str	r3, [r5, #0]
   18da0:	bd70      	pop	{r4, r5, r6, pc}
   18da2:	46c0      	nop			; (mov r8, r8)
   18da4:	200031cc 	.word	0x200031cc

00018da8 <sniprintf>:
   18da8:	b40c      	push	{r2, r3}
   18daa:	b530      	push	{r4, r5, lr}
   18dac:	4b16      	ldr	r3, [pc, #88]	; (18e08 <sniprintf+0x60>)
   18dae:	b09d      	sub	sp, #116	; 0x74
   18db0:	1e0c      	subs	r4, r1, #0
   18db2:	681d      	ldr	r5, [r3, #0]
   18db4:	da08      	bge.n	18dc8 <sniprintf+0x20>
   18db6:	238b      	movs	r3, #139	; 0x8b
   18db8:	2001      	movs	r0, #1
   18dba:	602b      	str	r3, [r5, #0]
   18dbc:	4240      	negs	r0, r0
   18dbe:	b01d      	add	sp, #116	; 0x74
   18dc0:	bc30      	pop	{r4, r5}
   18dc2:	bc08      	pop	{r3}
   18dc4:	b002      	add	sp, #8
   18dc6:	4718      	bx	r3
   18dc8:	2382      	movs	r3, #130	; 0x82
   18dca:	a902      	add	r1, sp, #8
   18dcc:	009b      	lsls	r3, r3, #2
   18dce:	818b      	strh	r3, [r1, #12]
   18dd0:	2300      	movs	r3, #0
   18dd2:	9002      	str	r0, [sp, #8]
   18dd4:	6108      	str	r0, [r1, #16]
   18dd6:	429c      	cmp	r4, r3
   18dd8:	d000      	beq.n	18ddc <sniprintf+0x34>
   18dda:	1e63      	subs	r3, r4, #1
   18ddc:	608b      	str	r3, [r1, #8]
   18dde:	614b      	str	r3, [r1, #20]
   18de0:	2301      	movs	r3, #1
   18de2:	425b      	negs	r3, r3
   18de4:	81cb      	strh	r3, [r1, #14]
   18de6:	9a20      	ldr	r2, [sp, #128]	; 0x80
   18de8:	ab21      	add	r3, sp, #132	; 0x84
   18dea:	0028      	movs	r0, r5
   18dec:	9301      	str	r3, [sp, #4]
   18dee:	f000 f8af 	bl	18f50 <_svfiprintf_r>
   18df2:	1c43      	adds	r3, r0, #1
   18df4:	da01      	bge.n	18dfa <sniprintf+0x52>
   18df6:	238b      	movs	r3, #139	; 0x8b
   18df8:	602b      	str	r3, [r5, #0]
   18dfa:	2c00      	cmp	r4, #0
   18dfc:	d0df      	beq.n	18dbe <sniprintf+0x16>
   18dfe:	2300      	movs	r3, #0
   18e00:	9a02      	ldr	r2, [sp, #8]
   18e02:	7013      	strb	r3, [r2, #0]
   18e04:	e7db      	b.n	18dbe <sniprintf+0x16>
   18e06:	46c0      	nop			; (mov r8, r8)
   18e08:	20000010 	.word	0x20000010

00018e0c <strlen>:
   18e0c:	2300      	movs	r3, #0
   18e0e:	5cc2      	ldrb	r2, [r0, r3]
   18e10:	3301      	adds	r3, #1
   18e12:	2a00      	cmp	r2, #0
   18e14:	d1fb      	bne.n	18e0e <strlen+0x2>
   18e16:	1e58      	subs	r0, r3, #1
   18e18:	4770      	bx	lr

00018e1a <_vsniprintf_r>:
   18e1a:	b530      	push	{r4, r5, lr}
   18e1c:	0014      	movs	r4, r2
   18e1e:	b09b      	sub	sp, #108	; 0x6c
   18e20:	0005      	movs	r5, r0
   18e22:	001a      	movs	r2, r3
   18e24:	2c00      	cmp	r4, #0
   18e26:	da05      	bge.n	18e34 <_vsniprintf_r+0x1a>
   18e28:	238b      	movs	r3, #139	; 0x8b
   18e2a:	6003      	str	r3, [r0, #0]
   18e2c:	2001      	movs	r0, #1
   18e2e:	4240      	negs	r0, r0
   18e30:	b01b      	add	sp, #108	; 0x6c
   18e32:	bd30      	pop	{r4, r5, pc}
   18e34:	2382      	movs	r3, #130	; 0x82
   18e36:	4668      	mov	r0, sp
   18e38:	009b      	lsls	r3, r3, #2
   18e3a:	8183      	strh	r3, [r0, #12]
   18e3c:	2300      	movs	r3, #0
   18e3e:	9100      	str	r1, [sp, #0]
   18e40:	9104      	str	r1, [sp, #16]
   18e42:	429c      	cmp	r4, r3
   18e44:	d000      	beq.n	18e48 <_vsniprintf_r+0x2e>
   18e46:	1e63      	subs	r3, r4, #1
   18e48:	9302      	str	r3, [sp, #8]
   18e4a:	9305      	str	r3, [sp, #20]
   18e4c:	2301      	movs	r3, #1
   18e4e:	4669      	mov	r1, sp
   18e50:	425b      	negs	r3, r3
   18e52:	81cb      	strh	r3, [r1, #14]
   18e54:	0028      	movs	r0, r5
   18e56:	9b1e      	ldr	r3, [sp, #120]	; 0x78
   18e58:	f000 f87a 	bl	18f50 <_svfiprintf_r>
   18e5c:	1c43      	adds	r3, r0, #1
   18e5e:	da01      	bge.n	18e64 <_vsniprintf_r+0x4a>
   18e60:	238b      	movs	r3, #139	; 0x8b
   18e62:	602b      	str	r3, [r5, #0]
   18e64:	2c00      	cmp	r4, #0
   18e66:	d0e3      	beq.n	18e30 <_vsniprintf_r+0x16>
   18e68:	2300      	movs	r3, #0
   18e6a:	9a00      	ldr	r2, [sp, #0]
   18e6c:	7013      	strb	r3, [r2, #0]
   18e6e:	e7df      	b.n	18e30 <_vsniprintf_r+0x16>

00018e70 <vsniprintf>:
   18e70:	b507      	push	{r0, r1, r2, lr}
   18e72:	9300      	str	r3, [sp, #0]
   18e74:	0013      	movs	r3, r2
   18e76:	000a      	movs	r2, r1
   18e78:	0001      	movs	r1, r0
   18e7a:	4802      	ldr	r0, [pc, #8]	; (18e84 <vsniprintf+0x14>)
   18e7c:	6800      	ldr	r0, [r0, #0]
   18e7e:	f7ff ffcc 	bl	18e1a <_vsniprintf_r>
   18e82:	bd0e      	pop	{r1, r2, r3, pc}
   18e84:	20000010 	.word	0x20000010

00018e88 <__malloc_lock>:
   18e88:	4770      	bx	lr

00018e8a <__malloc_unlock>:
   18e8a:	4770      	bx	lr

00018e8c <__ssputs_r>:
   18e8c:	b5f0      	push	{r4, r5, r6, r7, lr}
   18e8e:	688e      	ldr	r6, [r1, #8]
   18e90:	b085      	sub	sp, #20
   18e92:	0007      	movs	r7, r0
   18e94:	000c      	movs	r4, r1
   18e96:	9203      	str	r2, [sp, #12]
   18e98:	9301      	str	r3, [sp, #4]
   18e9a:	429e      	cmp	r6, r3
   18e9c:	d839      	bhi.n	18f12 <__ssputs_r+0x86>
   18e9e:	2390      	movs	r3, #144	; 0x90
   18ea0:	898a      	ldrh	r2, [r1, #12]
   18ea2:	00db      	lsls	r3, r3, #3
   18ea4:	421a      	tst	r2, r3
   18ea6:	d034      	beq.n	18f12 <__ssputs_r+0x86>
   18ea8:	2503      	movs	r5, #3
   18eaa:	6909      	ldr	r1, [r1, #16]
   18eac:	6823      	ldr	r3, [r4, #0]
   18eae:	1a5b      	subs	r3, r3, r1
   18eb0:	9302      	str	r3, [sp, #8]
   18eb2:	6963      	ldr	r3, [r4, #20]
   18eb4:	9802      	ldr	r0, [sp, #8]
   18eb6:	435d      	muls	r5, r3
   18eb8:	0feb      	lsrs	r3, r5, #31
   18eba:	195d      	adds	r5, r3, r5
   18ebc:	9b01      	ldr	r3, [sp, #4]
   18ebe:	106d      	asrs	r5, r5, #1
   18ec0:	3301      	adds	r3, #1
   18ec2:	181b      	adds	r3, r3, r0
   18ec4:	42ab      	cmp	r3, r5
   18ec6:	d900      	bls.n	18eca <__ssputs_r+0x3e>
   18ec8:	001d      	movs	r5, r3
   18eca:	0553      	lsls	r3, r2, #21
   18ecc:	d532      	bpl.n	18f34 <__ssputs_r+0xa8>
   18ece:	0029      	movs	r1, r5
   18ed0:	0038      	movs	r0, r7
   18ed2:	f7ff fef9 	bl	18cc8 <_malloc_r>
   18ed6:	1e06      	subs	r6, r0, #0
   18ed8:	d109      	bne.n	18eee <__ssputs_r+0x62>
   18eda:	230c      	movs	r3, #12
   18edc:	603b      	str	r3, [r7, #0]
   18ede:	2340      	movs	r3, #64	; 0x40
   18ee0:	2001      	movs	r0, #1
   18ee2:	89a2      	ldrh	r2, [r4, #12]
   18ee4:	4240      	negs	r0, r0
   18ee6:	4313      	orrs	r3, r2
   18ee8:	81a3      	strh	r3, [r4, #12]
   18eea:	b005      	add	sp, #20
   18eec:	bdf0      	pop	{r4, r5, r6, r7, pc}
   18eee:	9a02      	ldr	r2, [sp, #8]
   18ef0:	6921      	ldr	r1, [r4, #16]
   18ef2:	f7ff fe7b 	bl	18bec <memcpy>
   18ef6:	89a3      	ldrh	r3, [r4, #12]
   18ef8:	4a14      	ldr	r2, [pc, #80]	; (18f4c <__ssputs_r+0xc0>)
   18efa:	401a      	ands	r2, r3
   18efc:	2380      	movs	r3, #128	; 0x80
   18efe:	4313      	orrs	r3, r2
   18f00:	81a3      	strh	r3, [r4, #12]
   18f02:	9b02      	ldr	r3, [sp, #8]
   18f04:	6126      	str	r6, [r4, #16]
   18f06:	18f6      	adds	r6, r6, r3
   18f08:	6026      	str	r6, [r4, #0]
   18f0a:	6165      	str	r5, [r4, #20]
   18f0c:	9e01      	ldr	r6, [sp, #4]
   18f0e:	1aed      	subs	r5, r5, r3
   18f10:	60a5      	str	r5, [r4, #8]
   18f12:	9b01      	ldr	r3, [sp, #4]
   18f14:	42b3      	cmp	r3, r6
   18f16:	d200      	bcs.n	18f1a <__ssputs_r+0x8e>
   18f18:	001e      	movs	r6, r3
   18f1a:	0032      	movs	r2, r6
   18f1c:	9903      	ldr	r1, [sp, #12]
   18f1e:	6820      	ldr	r0, [r4, #0]
   18f20:	f7ff fe6d 	bl	18bfe <memmove>
   18f24:	68a3      	ldr	r3, [r4, #8]
   18f26:	2000      	movs	r0, #0
   18f28:	1b9b      	subs	r3, r3, r6
   18f2a:	60a3      	str	r3, [r4, #8]
   18f2c:	6823      	ldr	r3, [r4, #0]
   18f2e:	199e      	adds	r6, r3, r6
   18f30:	6026      	str	r6, [r4, #0]
   18f32:	e7da      	b.n	18eea <__ssputs_r+0x5e>
   18f34:	002a      	movs	r2, r5
   18f36:	0038      	movs	r0, r7
   18f38:	f000 faa1 	bl	1947e <_realloc_r>
   18f3c:	1e06      	subs	r6, r0, #0
   18f3e:	d1e0      	bne.n	18f02 <__ssputs_r+0x76>
   18f40:	6921      	ldr	r1, [r4, #16]
   18f42:	0038      	movs	r0, r7
   18f44:	f7ff fe76 	bl	18c34 <_free_r>
   18f48:	e7c7      	b.n	18eda <__ssputs_r+0x4e>
   18f4a:	46c0      	nop			; (mov r8, r8)
   18f4c:	fffffb7f 	.word	0xfffffb7f

00018f50 <_svfiprintf_r>:
   18f50:	b5f0      	push	{r4, r5, r6, r7, lr}
   18f52:	b09f      	sub	sp, #124	; 0x7c
   18f54:	9002      	str	r0, [sp, #8]
   18f56:	9305      	str	r3, [sp, #20]
   18f58:	898b      	ldrh	r3, [r1, #12]
   18f5a:	000f      	movs	r7, r1
   18f5c:	0016      	movs	r6, r2
   18f5e:	061b      	lsls	r3, r3, #24
   18f60:	d511      	bpl.n	18f86 <_svfiprintf_r+0x36>
   18f62:	690b      	ldr	r3, [r1, #16]
   18f64:	2b00      	cmp	r3, #0
   18f66:	d10e      	bne.n	18f86 <_svfiprintf_r+0x36>
   18f68:	2140      	movs	r1, #64	; 0x40
   18f6a:	f7ff fead 	bl	18cc8 <_malloc_r>
   18f6e:	6038      	str	r0, [r7, #0]
   18f70:	6138      	str	r0, [r7, #16]
   18f72:	2800      	cmp	r0, #0
   18f74:	d105      	bne.n	18f82 <_svfiprintf_r+0x32>
   18f76:	230c      	movs	r3, #12
   18f78:	9a02      	ldr	r2, [sp, #8]
   18f7a:	3801      	subs	r0, #1
   18f7c:	6013      	str	r3, [r2, #0]
   18f7e:	b01f      	add	sp, #124	; 0x7c
   18f80:	bdf0      	pop	{r4, r5, r6, r7, pc}
   18f82:	2340      	movs	r3, #64	; 0x40
   18f84:	617b      	str	r3, [r7, #20]
   18f86:	2300      	movs	r3, #0
   18f88:	ad06      	add	r5, sp, #24
   18f8a:	616b      	str	r3, [r5, #20]
   18f8c:	3320      	adds	r3, #32
   18f8e:	766b      	strb	r3, [r5, #25]
   18f90:	3310      	adds	r3, #16
   18f92:	76ab      	strb	r3, [r5, #26]
   18f94:	0034      	movs	r4, r6
   18f96:	7823      	ldrb	r3, [r4, #0]
   18f98:	2b00      	cmp	r3, #0
   18f9a:	d147      	bne.n	1902c <_svfiprintf_r+0xdc>
   18f9c:	1ba3      	subs	r3, r4, r6
   18f9e:	9304      	str	r3, [sp, #16]
   18fa0:	d00d      	beq.n	18fbe <_svfiprintf_r+0x6e>
   18fa2:	1ba3      	subs	r3, r4, r6
   18fa4:	0032      	movs	r2, r6
   18fa6:	0039      	movs	r1, r7
   18fa8:	9802      	ldr	r0, [sp, #8]
   18faa:	f7ff ff6f 	bl	18e8c <__ssputs_r>
   18fae:	1c43      	adds	r3, r0, #1
   18fb0:	d100      	bne.n	18fb4 <_svfiprintf_r+0x64>
   18fb2:	e0b5      	b.n	19120 <_svfiprintf_r+0x1d0>
   18fb4:	696a      	ldr	r2, [r5, #20]
   18fb6:	9b04      	ldr	r3, [sp, #16]
   18fb8:	4694      	mov	ip, r2
   18fba:	4463      	add	r3, ip
   18fbc:	616b      	str	r3, [r5, #20]
   18fbe:	7823      	ldrb	r3, [r4, #0]
   18fc0:	2b00      	cmp	r3, #0
   18fc2:	d100      	bne.n	18fc6 <_svfiprintf_r+0x76>
   18fc4:	e0ac      	b.n	19120 <_svfiprintf_r+0x1d0>
   18fc6:	2201      	movs	r2, #1
   18fc8:	2300      	movs	r3, #0
   18fca:	4252      	negs	r2, r2
   18fcc:	606a      	str	r2, [r5, #4]
   18fce:	a902      	add	r1, sp, #8
   18fd0:	3254      	adds	r2, #84	; 0x54
   18fd2:	1852      	adds	r2, r2, r1
   18fd4:	3401      	adds	r4, #1
   18fd6:	602b      	str	r3, [r5, #0]
   18fd8:	60eb      	str	r3, [r5, #12]
   18fda:	60ab      	str	r3, [r5, #8]
   18fdc:	7013      	strb	r3, [r2, #0]
   18fde:	65ab      	str	r3, [r5, #88]	; 0x58
   18fe0:	4e58      	ldr	r6, [pc, #352]	; (19144 <_svfiprintf_r+0x1f4>)
   18fe2:	2205      	movs	r2, #5
   18fe4:	7821      	ldrb	r1, [r4, #0]
   18fe6:	0030      	movs	r0, r6
   18fe8:	f000 fa3e 	bl	19468 <memchr>
   18fec:	1c62      	adds	r2, r4, #1
   18fee:	2800      	cmp	r0, #0
   18ff0:	d120      	bne.n	19034 <_svfiprintf_r+0xe4>
   18ff2:	6829      	ldr	r1, [r5, #0]
   18ff4:	06cb      	lsls	r3, r1, #27
   18ff6:	d504      	bpl.n	19002 <_svfiprintf_r+0xb2>
   18ff8:	2353      	movs	r3, #83	; 0x53
   18ffa:	ae02      	add	r6, sp, #8
   18ffc:	3020      	adds	r0, #32
   18ffe:	199b      	adds	r3, r3, r6
   19000:	7018      	strb	r0, [r3, #0]
   19002:	070b      	lsls	r3, r1, #28
   19004:	d504      	bpl.n	19010 <_svfiprintf_r+0xc0>
   19006:	2353      	movs	r3, #83	; 0x53
   19008:	202b      	movs	r0, #43	; 0x2b
   1900a:	ae02      	add	r6, sp, #8
   1900c:	199b      	adds	r3, r3, r6
   1900e:	7018      	strb	r0, [r3, #0]
   19010:	7823      	ldrb	r3, [r4, #0]
   19012:	2b2a      	cmp	r3, #42	; 0x2a
   19014:	d016      	beq.n	19044 <_svfiprintf_r+0xf4>
   19016:	2000      	movs	r0, #0
   19018:	210a      	movs	r1, #10
   1901a:	9b09      	ldr	r3, [sp, #36]	; 0x24
   1901c:	7822      	ldrb	r2, [r4, #0]
   1901e:	3a30      	subs	r2, #48	; 0x30
   19020:	2a09      	cmp	r2, #9
   19022:	d955      	bls.n	190d0 <_svfiprintf_r+0x180>
   19024:	2800      	cmp	r0, #0
   19026:	d015      	beq.n	19054 <_svfiprintf_r+0x104>
   19028:	9309      	str	r3, [sp, #36]	; 0x24
   1902a:	e013      	b.n	19054 <_svfiprintf_r+0x104>
   1902c:	2b25      	cmp	r3, #37	; 0x25
   1902e:	d0b5      	beq.n	18f9c <_svfiprintf_r+0x4c>
   19030:	3401      	adds	r4, #1
   19032:	e7b0      	b.n	18f96 <_svfiprintf_r+0x46>
   19034:	2301      	movs	r3, #1
   19036:	1b80      	subs	r0, r0, r6
   19038:	4083      	lsls	r3, r0
   1903a:	6829      	ldr	r1, [r5, #0]
   1903c:	0014      	movs	r4, r2
   1903e:	430b      	orrs	r3, r1
   19040:	602b      	str	r3, [r5, #0]
   19042:	e7cd      	b.n	18fe0 <_svfiprintf_r+0x90>
   19044:	9b05      	ldr	r3, [sp, #20]
   19046:	1d18      	adds	r0, r3, #4
   19048:	681b      	ldr	r3, [r3, #0]
   1904a:	9005      	str	r0, [sp, #20]
   1904c:	2b00      	cmp	r3, #0
   1904e:	db39      	blt.n	190c4 <_svfiprintf_r+0x174>
   19050:	9309      	str	r3, [sp, #36]	; 0x24
   19052:	0014      	movs	r4, r2
   19054:	7823      	ldrb	r3, [r4, #0]
   19056:	2b2e      	cmp	r3, #46	; 0x2e
   19058:	d10b      	bne.n	19072 <_svfiprintf_r+0x122>
   1905a:	7863      	ldrb	r3, [r4, #1]
   1905c:	1c62      	adds	r2, r4, #1
   1905e:	2b2a      	cmp	r3, #42	; 0x2a
   19060:	d13e      	bne.n	190e0 <_svfiprintf_r+0x190>
   19062:	9b05      	ldr	r3, [sp, #20]
   19064:	3402      	adds	r4, #2
   19066:	1d1a      	adds	r2, r3, #4
   19068:	681b      	ldr	r3, [r3, #0]
   1906a:	9205      	str	r2, [sp, #20]
   1906c:	2b00      	cmp	r3, #0
   1906e:	db34      	blt.n	190da <_svfiprintf_r+0x18a>
   19070:	9307      	str	r3, [sp, #28]
   19072:	4e35      	ldr	r6, [pc, #212]	; (19148 <_svfiprintf_r+0x1f8>)
   19074:	7821      	ldrb	r1, [r4, #0]
   19076:	2203      	movs	r2, #3
   19078:	0030      	movs	r0, r6
   1907a:	f000 f9f5 	bl	19468 <memchr>
   1907e:	2800      	cmp	r0, #0
   19080:	d006      	beq.n	19090 <_svfiprintf_r+0x140>
   19082:	2340      	movs	r3, #64	; 0x40
   19084:	1b80      	subs	r0, r0, r6
   19086:	4083      	lsls	r3, r0
   19088:	682a      	ldr	r2, [r5, #0]
   1908a:	3401      	adds	r4, #1
   1908c:	4313      	orrs	r3, r2
   1908e:	602b      	str	r3, [r5, #0]
   19090:	7821      	ldrb	r1, [r4, #0]
   19092:	2206      	movs	r2, #6
   19094:	482d      	ldr	r0, [pc, #180]	; (1914c <_svfiprintf_r+0x1fc>)
   19096:	1c66      	adds	r6, r4, #1
   19098:	7629      	strb	r1, [r5, #24]
   1909a:	f000 f9e5 	bl	19468 <memchr>
   1909e:	2800      	cmp	r0, #0
   190a0:	d046      	beq.n	19130 <_svfiprintf_r+0x1e0>
   190a2:	4b2b      	ldr	r3, [pc, #172]	; (19150 <_svfiprintf_r+0x200>)
   190a4:	2b00      	cmp	r3, #0
   190a6:	d12f      	bne.n	19108 <_svfiprintf_r+0x1b8>
   190a8:	6829      	ldr	r1, [r5, #0]
   190aa:	9b05      	ldr	r3, [sp, #20]
   190ac:	2207      	movs	r2, #7
   190ae:	05c9      	lsls	r1, r1, #23
   190b0:	d528      	bpl.n	19104 <_svfiprintf_r+0x1b4>
   190b2:	189b      	adds	r3, r3, r2
   190b4:	4393      	bics	r3, r2
   190b6:	3308      	adds	r3, #8
   190b8:	9305      	str	r3, [sp, #20]
   190ba:	696b      	ldr	r3, [r5, #20]
   190bc:	9a03      	ldr	r2, [sp, #12]
   190be:	189b      	adds	r3, r3, r2
   190c0:	616b      	str	r3, [r5, #20]
   190c2:	e767      	b.n	18f94 <_svfiprintf_r+0x44>
   190c4:	425b      	negs	r3, r3
   190c6:	60eb      	str	r3, [r5, #12]
   190c8:	2302      	movs	r3, #2
   190ca:	430b      	orrs	r3, r1
   190cc:	602b      	str	r3, [r5, #0]
   190ce:	e7c0      	b.n	19052 <_svfiprintf_r+0x102>
   190d0:	434b      	muls	r3, r1
   190d2:	3401      	adds	r4, #1
   190d4:	189b      	adds	r3, r3, r2
   190d6:	2001      	movs	r0, #1
   190d8:	e7a0      	b.n	1901c <_svfiprintf_r+0xcc>
   190da:	2301      	movs	r3, #1
   190dc:	425b      	negs	r3, r3
   190de:	e7c7      	b.n	19070 <_svfiprintf_r+0x120>
   190e0:	2300      	movs	r3, #0
   190e2:	0014      	movs	r4, r2
   190e4:	200a      	movs	r0, #10
   190e6:	001a      	movs	r2, r3
   190e8:	606b      	str	r3, [r5, #4]
   190ea:	7821      	ldrb	r1, [r4, #0]
   190ec:	3930      	subs	r1, #48	; 0x30
   190ee:	2909      	cmp	r1, #9
   190f0:	d903      	bls.n	190fa <_svfiprintf_r+0x1aa>
   190f2:	2b00      	cmp	r3, #0
   190f4:	d0bd      	beq.n	19072 <_svfiprintf_r+0x122>
   190f6:	9207      	str	r2, [sp, #28]
   190f8:	e7bb      	b.n	19072 <_svfiprintf_r+0x122>
   190fa:	4342      	muls	r2, r0
   190fc:	3401      	adds	r4, #1
   190fe:	1852      	adds	r2, r2, r1
   19100:	2301      	movs	r3, #1
   19102:	e7f2      	b.n	190ea <_svfiprintf_r+0x19a>
   19104:	3307      	adds	r3, #7
   19106:	e7d5      	b.n	190b4 <_svfiprintf_r+0x164>
   19108:	ab05      	add	r3, sp, #20
   1910a:	9300      	str	r3, [sp, #0]
   1910c:	003a      	movs	r2, r7
   1910e:	4b11      	ldr	r3, [pc, #68]	; (19154 <_svfiprintf_r+0x204>)
   19110:	0029      	movs	r1, r5
   19112:	9802      	ldr	r0, [sp, #8]
   19114:	e000      	b.n	19118 <_svfiprintf_r+0x1c8>
   19116:	bf00      	nop
   19118:	9003      	str	r0, [sp, #12]
   1911a:	9b03      	ldr	r3, [sp, #12]
   1911c:	3301      	adds	r3, #1
   1911e:	d1cc      	bne.n	190ba <_svfiprintf_r+0x16a>
   19120:	89bb      	ldrh	r3, [r7, #12]
   19122:	980b      	ldr	r0, [sp, #44]	; 0x2c
   19124:	065b      	lsls	r3, r3, #25
   19126:	d400      	bmi.n	1912a <_svfiprintf_r+0x1da>
   19128:	e729      	b.n	18f7e <_svfiprintf_r+0x2e>
   1912a:	2001      	movs	r0, #1
   1912c:	4240      	negs	r0, r0
   1912e:	e726      	b.n	18f7e <_svfiprintf_r+0x2e>
   19130:	ab05      	add	r3, sp, #20
   19132:	9300      	str	r3, [sp, #0]
   19134:	003a      	movs	r2, r7
   19136:	4b07      	ldr	r3, [pc, #28]	; (19154 <_svfiprintf_r+0x204>)
   19138:	0029      	movs	r1, r5
   1913a:	9802      	ldr	r0, [sp, #8]
   1913c:	f000 f87a 	bl	19234 <_printf_i>
   19140:	e7ea      	b.n	19118 <_svfiprintf_r+0x1c8>
   19142:	46c0      	nop			; (mov r8, r8)
   19144:	00019f30 	.word	0x00019f30
   19148:	00019f36 	.word	0x00019f36
   1914c:	00019f3a 	.word	0x00019f3a
   19150:	00000000 	.word	0x00000000
   19154:	00018e8d 	.word	0x00018e8d

00019158 <_printf_common>:
   19158:	b5f7      	push	{r0, r1, r2, r4, r5, r6, r7, lr}
   1915a:	0015      	movs	r5, r2
   1915c:	9301      	str	r3, [sp, #4]
   1915e:	688a      	ldr	r2, [r1, #8]
   19160:	690b      	ldr	r3, [r1, #16]
   19162:	9000      	str	r0, [sp, #0]
   19164:	000c      	movs	r4, r1
   19166:	4293      	cmp	r3, r2
   19168:	da00      	bge.n	1916c <_printf_common+0x14>
   1916a:	0013      	movs	r3, r2
   1916c:	0022      	movs	r2, r4
   1916e:	602b      	str	r3, [r5, #0]
   19170:	3243      	adds	r2, #67	; 0x43
   19172:	7812      	ldrb	r2, [r2, #0]
   19174:	2a00      	cmp	r2, #0
   19176:	d001      	beq.n	1917c <_printf_common+0x24>
   19178:	3301      	adds	r3, #1
   1917a:	602b      	str	r3, [r5, #0]
   1917c:	6823      	ldr	r3, [r4, #0]
   1917e:	069b      	lsls	r3, r3, #26
   19180:	d502      	bpl.n	19188 <_printf_common+0x30>
   19182:	682b      	ldr	r3, [r5, #0]
   19184:	3302      	adds	r3, #2
   19186:	602b      	str	r3, [r5, #0]
   19188:	2706      	movs	r7, #6
   1918a:	6823      	ldr	r3, [r4, #0]
   1918c:	401f      	ands	r7, r3
   1918e:	d027      	beq.n	191e0 <_printf_common+0x88>
   19190:	0023      	movs	r3, r4
   19192:	3343      	adds	r3, #67	; 0x43
   19194:	781b      	ldrb	r3, [r3, #0]
   19196:	1e5a      	subs	r2, r3, #1
   19198:	4193      	sbcs	r3, r2
   1919a:	6822      	ldr	r2, [r4, #0]
   1919c:	0692      	lsls	r2, r2, #26
   1919e:	d430      	bmi.n	19202 <_printf_common+0xaa>
   191a0:	0022      	movs	r2, r4
   191a2:	9901      	ldr	r1, [sp, #4]
   191a4:	3243      	adds	r2, #67	; 0x43
   191a6:	9800      	ldr	r0, [sp, #0]
   191a8:	9e08      	ldr	r6, [sp, #32]
   191aa:	47b0      	blx	r6
   191ac:	1c43      	adds	r3, r0, #1
   191ae:	d025      	beq.n	191fc <_printf_common+0xa4>
   191b0:	2306      	movs	r3, #6
   191b2:	6820      	ldr	r0, [r4, #0]
   191b4:	682a      	ldr	r2, [r5, #0]
   191b6:	68e1      	ldr	r1, [r4, #12]
   191b8:	4003      	ands	r3, r0
   191ba:	2500      	movs	r5, #0
   191bc:	2b04      	cmp	r3, #4
   191be:	d103      	bne.n	191c8 <_printf_common+0x70>
   191c0:	1a8d      	subs	r5, r1, r2
   191c2:	43eb      	mvns	r3, r5
   191c4:	17db      	asrs	r3, r3, #31
   191c6:	401d      	ands	r5, r3
   191c8:	68a3      	ldr	r3, [r4, #8]
   191ca:	6922      	ldr	r2, [r4, #16]
   191cc:	4293      	cmp	r3, r2
   191ce:	dd01      	ble.n	191d4 <_printf_common+0x7c>
   191d0:	1a9b      	subs	r3, r3, r2
   191d2:	18ed      	adds	r5, r5, r3
   191d4:	2700      	movs	r7, #0
   191d6:	42bd      	cmp	r5, r7
   191d8:	d120      	bne.n	1921c <_printf_common+0xc4>
   191da:	2000      	movs	r0, #0
   191dc:	e010      	b.n	19200 <_printf_common+0xa8>
   191de:	3701      	adds	r7, #1
   191e0:	68e3      	ldr	r3, [r4, #12]
   191e2:	682a      	ldr	r2, [r5, #0]
   191e4:	1a9b      	subs	r3, r3, r2
   191e6:	429f      	cmp	r7, r3
   191e8:	dad2      	bge.n	19190 <_printf_common+0x38>
   191ea:	0022      	movs	r2, r4
   191ec:	2301      	movs	r3, #1
   191ee:	3219      	adds	r2, #25
   191f0:	9901      	ldr	r1, [sp, #4]
   191f2:	9800      	ldr	r0, [sp, #0]
   191f4:	9e08      	ldr	r6, [sp, #32]
   191f6:	47b0      	blx	r6
   191f8:	1c43      	adds	r3, r0, #1
   191fa:	d1f0      	bne.n	191de <_printf_common+0x86>
   191fc:	2001      	movs	r0, #1
   191fe:	4240      	negs	r0, r0
   19200:	bdfe      	pop	{r1, r2, r3, r4, r5, r6, r7, pc}
   19202:	2030      	movs	r0, #48	; 0x30
   19204:	18e1      	adds	r1, r4, r3
   19206:	3143      	adds	r1, #67	; 0x43
   19208:	7008      	strb	r0, [r1, #0]
   1920a:	0021      	movs	r1, r4
   1920c:	1c5a      	adds	r2, r3, #1
   1920e:	3145      	adds	r1, #69	; 0x45
   19210:	7809      	ldrb	r1, [r1, #0]
   19212:	18a2      	adds	r2, r4, r2
   19214:	3243      	adds	r2, #67	; 0x43
   19216:	3302      	adds	r3, #2
   19218:	7011      	strb	r1, [r2, #0]
   1921a:	e7c1      	b.n	191a0 <_printf_common+0x48>
   1921c:	0022      	movs	r2, r4
   1921e:	2301      	movs	r3, #1
   19220:	321a      	adds	r2, #26
   19222:	9901      	ldr	r1, [sp, #4]
   19224:	9800      	ldr	r0, [sp, #0]
   19226:	9e08      	ldr	r6, [sp, #32]
   19228:	47b0      	blx	r6
   1922a:	1c43      	adds	r3, r0, #1
   1922c:	d0e6      	beq.n	191fc <_printf_common+0xa4>
   1922e:	3701      	adds	r7, #1
   19230:	e7d1      	b.n	191d6 <_printf_common+0x7e>
	...

00019234 <_printf_i>:
   19234:	b5f0      	push	{r4, r5, r6, r7, lr}
   19236:	b08b      	sub	sp, #44	; 0x2c
   19238:	9206      	str	r2, [sp, #24]
   1923a:	000a      	movs	r2, r1
   1923c:	3243      	adds	r2, #67	; 0x43
   1923e:	9307      	str	r3, [sp, #28]
   19240:	9005      	str	r0, [sp, #20]
   19242:	9204      	str	r2, [sp, #16]
   19244:	7e0a      	ldrb	r2, [r1, #24]
   19246:	000c      	movs	r4, r1
   19248:	9b10      	ldr	r3, [sp, #64]	; 0x40
   1924a:	2a6e      	cmp	r2, #110	; 0x6e
   1924c:	d100      	bne.n	19250 <_printf_i+0x1c>
   1924e:	e08f      	b.n	19370 <_printf_i+0x13c>
   19250:	d817      	bhi.n	19282 <_printf_i+0x4e>
   19252:	2a63      	cmp	r2, #99	; 0x63
   19254:	d02c      	beq.n	192b0 <_printf_i+0x7c>
   19256:	d808      	bhi.n	1926a <_printf_i+0x36>
   19258:	2a00      	cmp	r2, #0
   1925a:	d100      	bne.n	1925e <_printf_i+0x2a>
   1925c:	e099      	b.n	19392 <_printf_i+0x15e>
   1925e:	2a58      	cmp	r2, #88	; 0x58
   19260:	d054      	beq.n	1930c <_printf_i+0xd8>
   19262:	0026      	movs	r6, r4
   19264:	3642      	adds	r6, #66	; 0x42
   19266:	7032      	strb	r2, [r6, #0]
   19268:	e029      	b.n	192be <_printf_i+0x8a>
   1926a:	2a64      	cmp	r2, #100	; 0x64
   1926c:	d001      	beq.n	19272 <_printf_i+0x3e>
   1926e:	2a69      	cmp	r2, #105	; 0x69
   19270:	d1f7      	bne.n	19262 <_printf_i+0x2e>
   19272:	6821      	ldr	r1, [r4, #0]
   19274:	681a      	ldr	r2, [r3, #0]
   19276:	0608      	lsls	r0, r1, #24
   19278:	d523      	bpl.n	192c2 <_printf_i+0x8e>
   1927a:	1d11      	adds	r1, r2, #4
   1927c:	6019      	str	r1, [r3, #0]
   1927e:	6815      	ldr	r5, [r2, #0]
   19280:	e025      	b.n	192ce <_printf_i+0x9a>
   19282:	2a73      	cmp	r2, #115	; 0x73
   19284:	d100      	bne.n	19288 <_printf_i+0x54>
   19286:	e088      	b.n	1939a <_printf_i+0x166>
   19288:	d808      	bhi.n	1929c <_printf_i+0x68>
   1928a:	2a6f      	cmp	r2, #111	; 0x6f
   1928c:	d029      	beq.n	192e2 <_printf_i+0xae>
   1928e:	2a70      	cmp	r2, #112	; 0x70
   19290:	d1e7      	bne.n	19262 <_printf_i+0x2e>
   19292:	2220      	movs	r2, #32
   19294:	6809      	ldr	r1, [r1, #0]
   19296:	430a      	orrs	r2, r1
   19298:	6022      	str	r2, [r4, #0]
   1929a:	e003      	b.n	192a4 <_printf_i+0x70>
   1929c:	2a75      	cmp	r2, #117	; 0x75
   1929e:	d020      	beq.n	192e2 <_printf_i+0xae>
   192a0:	2a78      	cmp	r2, #120	; 0x78
   192a2:	d1de      	bne.n	19262 <_printf_i+0x2e>
   192a4:	0022      	movs	r2, r4
   192a6:	2178      	movs	r1, #120	; 0x78
   192a8:	3245      	adds	r2, #69	; 0x45
   192aa:	7011      	strb	r1, [r2, #0]
   192ac:	4a6c      	ldr	r2, [pc, #432]	; (19460 <_printf_i+0x22c>)
   192ae:	e030      	b.n	19312 <_printf_i+0xde>
   192b0:	000e      	movs	r6, r1
   192b2:	681a      	ldr	r2, [r3, #0]
   192b4:	3642      	adds	r6, #66	; 0x42
   192b6:	1d11      	adds	r1, r2, #4
   192b8:	6019      	str	r1, [r3, #0]
   192ba:	6813      	ldr	r3, [r2, #0]
   192bc:	7033      	strb	r3, [r6, #0]
   192be:	2301      	movs	r3, #1
   192c0:	e079      	b.n	193b6 <_printf_i+0x182>
   192c2:	0649      	lsls	r1, r1, #25
   192c4:	d5d9      	bpl.n	1927a <_printf_i+0x46>
   192c6:	1d11      	adds	r1, r2, #4
   192c8:	6019      	str	r1, [r3, #0]
   192ca:	2300      	movs	r3, #0
   192cc:	5ed5      	ldrsh	r5, [r2, r3]
   192ce:	2d00      	cmp	r5, #0
   192d0:	da03      	bge.n	192da <_printf_i+0xa6>
   192d2:	232d      	movs	r3, #45	; 0x2d
   192d4:	9a04      	ldr	r2, [sp, #16]
   192d6:	426d      	negs	r5, r5
   192d8:	7013      	strb	r3, [r2, #0]
   192da:	4b62      	ldr	r3, [pc, #392]	; (19464 <_printf_i+0x230>)
   192dc:	270a      	movs	r7, #10
   192de:	9303      	str	r3, [sp, #12]
   192e0:	e02f      	b.n	19342 <_printf_i+0x10e>
   192e2:	6820      	ldr	r0, [r4, #0]
   192e4:	6819      	ldr	r1, [r3, #0]
   192e6:	0605      	lsls	r5, r0, #24
   192e8:	d503      	bpl.n	192f2 <_printf_i+0xbe>
   192ea:	1d08      	adds	r0, r1, #4
   192ec:	6018      	str	r0, [r3, #0]
   192ee:	680d      	ldr	r5, [r1, #0]
   192f0:	e005      	b.n	192fe <_printf_i+0xca>
   192f2:	0640      	lsls	r0, r0, #25
   192f4:	d5f9      	bpl.n	192ea <_printf_i+0xb6>
   192f6:	680d      	ldr	r5, [r1, #0]
   192f8:	1d08      	adds	r0, r1, #4
   192fa:	6018      	str	r0, [r3, #0]
   192fc:	b2ad      	uxth	r5, r5
   192fe:	4b59      	ldr	r3, [pc, #356]	; (19464 <_printf_i+0x230>)
   19300:	2708      	movs	r7, #8
   19302:	9303      	str	r3, [sp, #12]
   19304:	2a6f      	cmp	r2, #111	; 0x6f
   19306:	d018      	beq.n	1933a <_printf_i+0x106>
   19308:	270a      	movs	r7, #10
   1930a:	e016      	b.n	1933a <_printf_i+0x106>
   1930c:	3145      	adds	r1, #69	; 0x45
   1930e:	700a      	strb	r2, [r1, #0]
   19310:	4a54      	ldr	r2, [pc, #336]	; (19464 <_printf_i+0x230>)
   19312:	9203      	str	r2, [sp, #12]
   19314:	681a      	ldr	r2, [r3, #0]
   19316:	6821      	ldr	r1, [r4, #0]
   19318:	1d10      	adds	r0, r2, #4
   1931a:	6018      	str	r0, [r3, #0]
   1931c:	6815      	ldr	r5, [r2, #0]
   1931e:	0608      	lsls	r0, r1, #24
   19320:	d522      	bpl.n	19368 <_printf_i+0x134>
   19322:	07cb      	lsls	r3, r1, #31
   19324:	d502      	bpl.n	1932c <_printf_i+0xf8>
   19326:	2320      	movs	r3, #32
   19328:	4319      	orrs	r1, r3
   1932a:	6021      	str	r1, [r4, #0]
   1932c:	2710      	movs	r7, #16
   1932e:	2d00      	cmp	r5, #0
   19330:	d103      	bne.n	1933a <_printf_i+0x106>
   19332:	2320      	movs	r3, #32
   19334:	6822      	ldr	r2, [r4, #0]
   19336:	439a      	bics	r2, r3
   19338:	6022      	str	r2, [r4, #0]
   1933a:	0023      	movs	r3, r4
   1933c:	2200      	movs	r2, #0
   1933e:	3343      	adds	r3, #67	; 0x43
   19340:	701a      	strb	r2, [r3, #0]
   19342:	6863      	ldr	r3, [r4, #4]
   19344:	60a3      	str	r3, [r4, #8]
   19346:	2b00      	cmp	r3, #0
   19348:	db5c      	blt.n	19404 <_printf_i+0x1d0>
   1934a:	2204      	movs	r2, #4
   1934c:	6821      	ldr	r1, [r4, #0]
   1934e:	4391      	bics	r1, r2
   19350:	6021      	str	r1, [r4, #0]
   19352:	2d00      	cmp	r5, #0
   19354:	d158      	bne.n	19408 <_printf_i+0x1d4>
   19356:	9e04      	ldr	r6, [sp, #16]
   19358:	2b00      	cmp	r3, #0
   1935a:	d064      	beq.n	19426 <_printf_i+0x1f2>
   1935c:	0026      	movs	r6, r4
   1935e:	9b03      	ldr	r3, [sp, #12]
   19360:	3642      	adds	r6, #66	; 0x42
   19362:	781b      	ldrb	r3, [r3, #0]
   19364:	7033      	strb	r3, [r6, #0]
   19366:	e05e      	b.n	19426 <_printf_i+0x1f2>
   19368:	0648      	lsls	r0, r1, #25
   1936a:	d5da      	bpl.n	19322 <_printf_i+0xee>
   1936c:	b2ad      	uxth	r5, r5
   1936e:	e7d8      	b.n	19322 <_printf_i+0xee>
   19370:	6809      	ldr	r1, [r1, #0]
   19372:	681a      	ldr	r2, [r3, #0]
   19374:	0608      	lsls	r0, r1, #24
   19376:	d505      	bpl.n	19384 <_printf_i+0x150>
   19378:	1d11      	adds	r1, r2, #4
   1937a:	6019      	str	r1, [r3, #0]
   1937c:	6813      	ldr	r3, [r2, #0]
   1937e:	6962      	ldr	r2, [r4, #20]
   19380:	601a      	str	r2, [r3, #0]
   19382:	e006      	b.n	19392 <_printf_i+0x15e>
   19384:	0649      	lsls	r1, r1, #25
   19386:	d5f7      	bpl.n	19378 <_printf_i+0x144>
   19388:	1d11      	adds	r1, r2, #4
   1938a:	6019      	str	r1, [r3, #0]
   1938c:	6813      	ldr	r3, [r2, #0]
   1938e:	8aa2      	ldrh	r2, [r4, #20]
   19390:	801a      	strh	r2, [r3, #0]
   19392:	2300      	movs	r3, #0
   19394:	9e04      	ldr	r6, [sp, #16]
   19396:	6123      	str	r3, [r4, #16]
   19398:	e054      	b.n	19444 <_printf_i+0x210>
   1939a:	681a      	ldr	r2, [r3, #0]
   1939c:	1d11      	adds	r1, r2, #4
   1939e:	6019      	str	r1, [r3, #0]
   193a0:	6816      	ldr	r6, [r2, #0]
   193a2:	2100      	movs	r1, #0
   193a4:	6862      	ldr	r2, [r4, #4]
   193a6:	0030      	movs	r0, r6
   193a8:	f000 f85e 	bl	19468 <memchr>
   193ac:	2800      	cmp	r0, #0
   193ae:	d001      	beq.n	193b4 <_printf_i+0x180>
   193b0:	1b80      	subs	r0, r0, r6
   193b2:	6060      	str	r0, [r4, #4]
   193b4:	6863      	ldr	r3, [r4, #4]
   193b6:	6123      	str	r3, [r4, #16]
   193b8:	2300      	movs	r3, #0
   193ba:	9a04      	ldr	r2, [sp, #16]
   193bc:	7013      	strb	r3, [r2, #0]
   193be:	e041      	b.n	19444 <_printf_i+0x210>
   193c0:	6923      	ldr	r3, [r4, #16]
   193c2:	0032      	movs	r2, r6
   193c4:	9906      	ldr	r1, [sp, #24]
   193c6:	9805      	ldr	r0, [sp, #20]
   193c8:	9d07      	ldr	r5, [sp, #28]
   193ca:	47a8      	blx	r5
   193cc:	1c43      	adds	r3, r0, #1
   193ce:	d043      	beq.n	19458 <_printf_i+0x224>
   193d0:	6823      	ldr	r3, [r4, #0]
   193d2:	2500      	movs	r5, #0
   193d4:	079b      	lsls	r3, r3, #30
   193d6:	d40f      	bmi.n	193f8 <_printf_i+0x1c4>
   193d8:	9b09      	ldr	r3, [sp, #36]	; 0x24
   193da:	68e0      	ldr	r0, [r4, #12]
   193dc:	4298      	cmp	r0, r3
   193de:	da3d      	bge.n	1945c <_printf_i+0x228>
   193e0:	0018      	movs	r0, r3
   193e2:	e03b      	b.n	1945c <_printf_i+0x228>
   193e4:	0022      	movs	r2, r4
   193e6:	2301      	movs	r3, #1
   193e8:	3219      	adds	r2, #25
   193ea:	9906      	ldr	r1, [sp, #24]
   193ec:	9805      	ldr	r0, [sp, #20]
   193ee:	9e07      	ldr	r6, [sp, #28]
   193f0:	47b0      	blx	r6
   193f2:	1c43      	adds	r3, r0, #1
   193f4:	d030      	beq.n	19458 <_printf_i+0x224>
   193f6:	3501      	adds	r5, #1
   193f8:	68e3      	ldr	r3, [r4, #12]
   193fa:	9a09      	ldr	r2, [sp, #36]	; 0x24
   193fc:	1a9b      	subs	r3, r3, r2
   193fe:	429d      	cmp	r5, r3
   19400:	dbf0      	blt.n	193e4 <_printf_i+0x1b0>
   19402:	e7e9      	b.n	193d8 <_printf_i+0x1a4>
   19404:	2d00      	cmp	r5, #0
   19406:	d0a9      	beq.n	1935c <_printf_i+0x128>
   19408:	9e04      	ldr	r6, [sp, #16]
   1940a:	0028      	movs	r0, r5
   1940c:	0039      	movs	r1, r7
   1940e:	f7ff faa5 	bl	1895c <__aeabi_uidivmod>
   19412:	9b03      	ldr	r3, [sp, #12]
   19414:	3e01      	subs	r6, #1
   19416:	5c5b      	ldrb	r3, [r3, r1]
   19418:	0028      	movs	r0, r5
   1941a:	7033      	strb	r3, [r6, #0]
   1941c:	0039      	movs	r1, r7
   1941e:	f7ff fa17 	bl	18850 <__udivsi3>
   19422:	1e05      	subs	r5, r0, #0
   19424:	d1f1      	bne.n	1940a <_printf_i+0x1d6>
   19426:	2f08      	cmp	r7, #8
   19428:	d109      	bne.n	1943e <_printf_i+0x20a>
   1942a:	6823      	ldr	r3, [r4, #0]
   1942c:	07db      	lsls	r3, r3, #31
   1942e:	d506      	bpl.n	1943e <_printf_i+0x20a>
   19430:	6863      	ldr	r3, [r4, #4]
   19432:	6922      	ldr	r2, [r4, #16]
   19434:	4293      	cmp	r3, r2
   19436:	dc02      	bgt.n	1943e <_printf_i+0x20a>
   19438:	2330      	movs	r3, #48	; 0x30
   1943a:	3e01      	subs	r6, #1
   1943c:	7033      	strb	r3, [r6, #0]
   1943e:	9b04      	ldr	r3, [sp, #16]
   19440:	1b9b      	subs	r3, r3, r6
   19442:	6123      	str	r3, [r4, #16]
   19444:	9b07      	ldr	r3, [sp, #28]
   19446:	aa09      	add	r2, sp, #36	; 0x24
   19448:	9300      	str	r3, [sp, #0]
   1944a:	0021      	movs	r1, r4
   1944c:	9b06      	ldr	r3, [sp, #24]
   1944e:	9805      	ldr	r0, [sp, #20]
   19450:	f7ff fe82 	bl	19158 <_printf_common>
   19454:	1c43      	adds	r3, r0, #1
   19456:	d1b3      	bne.n	193c0 <_printf_i+0x18c>
   19458:	2001      	movs	r0, #1
   1945a:	4240      	negs	r0, r0
   1945c:	b00b      	add	sp, #44	; 0x2c
   1945e:	bdf0      	pop	{r4, r5, r6, r7, pc}
   19460:	00019f52 	.word	0x00019f52
   19464:	00019f41 	.word	0x00019f41

00019468 <memchr>:
   19468:	b2c9      	uxtb	r1, r1
   1946a:	1882      	adds	r2, r0, r2
   1946c:	4290      	cmp	r0, r2
   1946e:	d101      	bne.n	19474 <memchr+0xc>
   19470:	2000      	movs	r0, #0
   19472:	4770      	bx	lr
   19474:	7803      	ldrb	r3, [r0, #0]
   19476:	428b      	cmp	r3, r1
   19478:	d0fb      	beq.n	19472 <memchr+0xa>
   1947a:	3001      	adds	r0, #1
   1947c:	e7f6      	b.n	1946c <memchr+0x4>

0001947e <_realloc_r>:
   1947e:	b5f8      	push	{r3, r4, r5, r6, r7, lr}
   19480:	0007      	movs	r7, r0
   19482:	000d      	movs	r5, r1
   19484:	0016      	movs	r6, r2
   19486:	2900      	cmp	r1, #0
   19488:	d105      	bne.n	19496 <_realloc_r+0x18>
   1948a:	0011      	movs	r1, r2
   1948c:	f7ff fc1c 	bl	18cc8 <_malloc_r>
   19490:	0004      	movs	r4, r0
   19492:	0020      	movs	r0, r4
   19494:	bdf8      	pop	{r3, r4, r5, r6, r7, pc}
   19496:	2a00      	cmp	r2, #0
   19498:	d103      	bne.n	194a2 <_realloc_r+0x24>
   1949a:	f7ff fbcb 	bl	18c34 <_free_r>
   1949e:	0034      	movs	r4, r6
   194a0:	e7f7      	b.n	19492 <_realloc_r+0x14>
   194a2:	f000 f812 	bl	194ca <_malloc_usable_size_r>
   194a6:	002c      	movs	r4, r5
   194a8:	4286      	cmp	r6, r0
   194aa:	d9f2      	bls.n	19492 <_realloc_r+0x14>
   194ac:	0031      	movs	r1, r6
   194ae:	0038      	movs	r0, r7
   194b0:	f7ff fc0a 	bl	18cc8 <_malloc_r>
   194b4:	1e04      	subs	r4, r0, #0
   194b6:	d0ec      	beq.n	19492 <_realloc_r+0x14>
   194b8:	0029      	movs	r1, r5
   194ba:	0032      	movs	r2, r6
   194bc:	f7ff fb96 	bl	18bec <memcpy>
   194c0:	0029      	movs	r1, r5
   194c2:	0038      	movs	r0, r7
   194c4:	f7ff fbb6 	bl	18c34 <_free_r>
   194c8:	e7e3      	b.n	19492 <_realloc_r+0x14>

000194ca <_malloc_usable_size_r>:
   194ca:	1f0b      	subs	r3, r1, #4
   194cc:	681b      	ldr	r3, [r3, #0]
   194ce:	1f18      	subs	r0, r3, #4
   194d0:	2b00      	cmp	r3, #0
   194d2:	da01      	bge.n	194d8 <_malloc_usable_size_r+0xe>
   194d4:	580b      	ldr	r3, [r1, r0]
   194d6:	18c0      	adds	r0, r0, r3
   194d8:	4770      	bx	lr
   194da:	0000      	movs	r0, r0
   194dc:	74696e69 	.word	0x74696e69
   194e0:	6f74735f 	.word	0x6f74735f
   194e4:	65676172 	.word	0x65676172
   194e8:	6c70203a 	.word	0x6c70203a
   194ec:	65736165 	.word	0x65736165
   194f0:	756c7020 	.word	0x756c7020
   194f4:	6e612067 	.word	0x6e612067
   194f8:	2f445320 	.word	0x2f445320
   194fc:	20434d4d 	.word	0x20434d4d
   19500:	64726163 	.word	0x64726163
   19504:	206e6920 	.word	0x206e6920
   19508:	746f6c73 	.word	0x746f6c73
   1950c:	0d2e2e2e 	.word	0x0d2e2e2e
   19510:	0000000a 	.word	0x0000000a
   19514:	74696e69 	.word	0x74696e69
   19518:	6f74735f 	.word	0x6f74735f
   1951c:	65676172 	.word	0x65676172
   19520:	4453203a 	.word	0x4453203a
   19524:	72614320 	.word	0x72614320
   19528:	6e692064 	.word	0x6e692064
   1952c:	6c617473 	.word	0x6c617473
   19530:	6166206c 	.word	0x6166206c
   19534:	64656c69 	.word	0x64656c69
   19538:	000a0d2e 	.word	0x000a0d2e
   1953c:	74696e69 	.word	0x74696e69
   19540:	6f74735f 	.word	0x6f74735f
   19544:	65676172 	.word	0x65676172
   19548:	7274203a 	.word	0x7274203a
   1954c:	6e752079 	.word	0x6e752079
   19550:	67756c70 	.word	0x67756c70
   19554:	646e6120 	.word	0x646e6120
   19558:	2d657220 	.word	0x2d657220
   1955c:	67756c70 	.word	0x67756c70
   19560:	65687420 	.word	0x65687420
   19564:	72616320 	.word	0x72616320
   19568:	0a0d2e64 	.word	0x0a0d2e64
   1956c:	00000000 	.word	0x00000000
   19570:	74696e69 	.word	0x74696e69
   19574:	6f74735f 	.word	0x6f74735f
   19578:	65676172 	.word	0x65676172
   1957c:	6f6d203a 	.word	0x6f6d203a
   19580:	69746e75 	.word	0x69746e75
   19584:	5320676e 	.word	0x5320676e
   19588:	61632044 	.word	0x61632044
   1958c:	2e2e6472 	.word	0x2e2e6472
   19590:	000a0d2e 	.word	0x000a0d2e
   19594:	74696e69 	.word	0x74696e69
   19598:	6f74735f 	.word	0x6f74735f
   1959c:	65676172 	.word	0x65676172
   195a0:	4453203a 	.word	0x4453203a
   195a4:	72616320 	.word	0x72616320
   195a8:	6f6d2064 	.word	0x6f6d2064
   195ac:	20746e75 	.word	0x20746e75
   195b0:	6c696166 	.word	0x6c696166
   195b4:	20216465 	.word	0x20216465
   195b8:	73657228 	.word	0x73657228
   195bc:	29642520 	.word	0x29642520
   195c0:	00000a0d 	.word	0x00000a0d
   195c4:	74696e69 	.word	0x74696e69
   195c8:	6f74735f 	.word	0x6f74735f
   195cc:	65676172 	.word	0x65676172
   195d0:	4453203a 	.word	0x4453203a
   195d4:	72616320 	.word	0x72616320
   195d8:	6f6d2064 	.word	0x6f6d2064
   195dc:	20746e75 	.word	0x20746e75
   195e0:	0d2e4b4f 	.word	0x0d2e4b4f
   195e4:	0000000a 	.word	0x0000000a
   195e8:	454c4449 	.word	0x454c4449
   195ec:	00000000 	.word	0x00000000
   195f0:	00013788 	.word	0x00013788
   195f4:	00013788 	.word	0x00013788
   195f8:	00013788 	.word	0x00013788
   195fc:	00013700 	.word	0x00013700
   19600:	000137ca 	.word	0x000137ca
   19604:	000137e4 	.word	0x000137e4
   19608:	00013788 	.word	0x00013788
   1960c:	00013788 	.word	0x00013788
   19610:	00013700 	.word	0x00013700
   19614:	000137ca 	.word	0x000137ca
   19618:	20726d54 	.word	0x20726d54
   1961c:	00637653 	.word	0x00637653

00019620 <mmc_trans_multipliers>:
   19620:	00000000 0000000a 0000000c 0000000d     ................
   19630:	0000000f 00000014 0000001a 0000001e     ................
   19640:	00000023 00000028 0000002d 00000034     #...(...-...4...
   19650:	00000037 0000003c 00000046 00000050     7...<...F...P...

00019660 <sd_mmc_trans_units>:
   19660:	0000000a 00000064 000003e8 00002710     ....d........'..
	...

0001967c <sd_trans_multipliers>:
   1967c:	00000000 0000000a 0000000c 0000000d     ................
   1968c:	0000000f 00000014 00000019 0000001e     ................
   1969c:	00000023 00000028 0000002d 00000032     #...(...-...2...
   196ac:	00000037 0000003c 00000046 00000050     7...<...F...P...
   196bc:	42000800 42000c00 42001000 42001400     ...B...B...B...B
   196cc:	42001800 42001c00 000161aa 000161a6     ...B...B.a...a..
   196dc:	000161a6 0001620c 0001620c 000161be     .a...b...b...a..
   196ec:	000161b0 000161c4 000161fa 00016338     .a...a...a..8c..
   196fc:	00016318 00016318 000163a4 0001632a     .c...c...c..*c..
   1970c:	00016346 0001631c 00016354 00016394     Fc...c..Tc...c..

0001971c <_tcc_intflag>:
   1971c:	00000001 00000002 00000004 00000008     ................
   1972c:	00001000 00002000 00004000 00008000     ..... ...@......
   1973c:	00010000 00020000 00040000 00080000     ................

0001974c <LfnOfs>:
   1974c:	07050301 12100e09 1c181614 0000001e     ................

0001975c <excvt.4558>:
   1975c:	b6909a80 808fb78e d8d4d3d2 8f8eded7     ................
   1976c:	e2929290 ebeae399 9d9a9959 9f9e9d9c     ........Y.......
   1977c:	e9e0d6b5 a7a6a5a5 abaaa9a8 afae21ac     .............!..
   1978c:	b3b2b1b0 b7b6b5b4 bbbab9b8 bfbebdbc     ................
   1979c:	c3c2c1c0 c7c7c5c4 cbcac9c8 cfcecdcc     ................
   197ac:	d3d2d1d0 d7d6d5d4 dbdad9d8 dfdedddc     ................
   197bc:	e3e2e1e0 e7e6e5e5 ebeae9e7 efeeeded     ................
   197cc:	f3f2f1f0 f7f6f5f4 fbfaf9f8 fffefdfc     ................
   197dc:	3c3a2a22 7f7c3f3e 00000000 3d3b2c2b     "*:<>?|.....+,;=
   197ec:	00005d5b                                []..

000197f0 <Tbl>:
   197f0:	00fc00c7 00e200e9 00e000e4 00e700e5     ................
   19800:	00eb00ea 00ef00e8 00ec00ee 00c500c4     ................
   19810:	00e600c9 00f400c6 00f200f6 00f900fb     ................
   19820:	00d600ff 00f800dc 00d800a3 019200d7     ................
   19830:	00ed00e1 00fa00f3 00d100f1 00ba00aa     ................
   19840:	00ae00bf 00bd00ac 00a100bc 00bb00ab     ................
   19850:	25922591 25022593 00c12524 00c000c2     .%.%.%.%$%......
   19860:	256300a9 25572551 00a2255d 251000a5     ..c%Q%W%]%.....%
   19870:	25342514 251c252c 253c2500 00c300e3     .%4%,%.%.%<%....
   19880:	2554255a 25662569 25502560 00a4256c     Z%T%i%f%`%P%l%..
   19890:	00d000f0 00cb00ca 013100c8 00ce00cd     ..........1.....
   198a0:	251800cf 2588250c 00a62584 258000cc     ...%.%.%.%.....%
   198b0:	00df00d3 00d200d4 00d500f5 00fe00b5     ................
   198c0:	00da00de 00d900db 00dd00fd 00b400af     ................
   198d0:	00b100ad 00be2017 00a700b6 00b800f7     ..... ..........
   198e0:	00a800b0 00b900b7 00b200b3 00a025a0     .............%..

000198f0 <tbl_lower.4308>:
   198f0:	00620061 00640063 00660065 00680067     a.b.c.d.e.f.g.h.
   19900:	006a0069 006c006b 006e006d 0070006f     i.j.k.l.m.n.o.p.
   19910:	00720071 00740073 00760075 00780077     q.r.s.t.u.v.w.x.
   19920:	007a0079 00a200a1 00a500a3 00af00ac     y.z.............
   19930:	00e100e0 00e300e2 00e500e4 00e700e6     ................
   19940:	00e900e8 00eb00ea 00ed00ec 00ef00ee     ................
   19950:	00f100f0 00f300f2 00f500f4 00f800f6     ................
   19960:	00fa00f9 00fc00fb 00fe00fd 010100ff     ................
   19970:	01050103 01090107 010d010b 0111010f     ................
   19980:	01150113 01190117 011d011b 0121011f     ..............!.
   19990:	01250123 01290127 012d012b 0131012f     #.%.'.).+.-./.1.
   199a0:	01350133 013a0137 013e013c 01420140     3.5.7.:.<.>.@.B.
   199b0:	01460144 014b0148 014f014d 01530151     D.F.H.K.M.O.Q.S.
   199c0:	01570155 015b0159 015f015d 01630161     U.W.Y.[.]._.a.c.
   199d0:	01670165 016b0169 016f016d 01730171     e.g.i.k.m.o.q.s.
   199e0:	01770175 017c017a 0192017e 03b203b1     u.w.z.|.~.......
   199f0:	03b403b3 03b603b5 03b803b7 03ba03b9     ................
   19a00:	03bc03bb 03be03bd 03c003bf 03c303c1     ................
   19a10:	03c503c4 03c703c6 03c903c8 043003ca     ..............0.
   19a20:	04320431 04340433 04360435 04380437     1.2.3.4.5.6.7.8.
   19a30:	043a0439 043c043b 043e043d 0440043f     9.:.;.<.=.>.?.@.
   19a40:	04420441 04440443 04460445 04480447     A.B.C.D.E.F.G.H.
   19a50:	044a0449 044c044b 044e044d 0451044f     I.J.K.L.M.N.O.Q.
   19a60:	04530452 04550454 04570456 04590458     R.S.T.U.V.W.X.Y.
   19a70:	045b045a 045e045c 2170045f 21722171     Z.[.\.^._.p!q!r!
   19a80:	21742173 21762175 21782177 217a2179     s!t!u!v!w!x!y!z!
   19a90:	217c217b 217e217d ff41217f ff43ff42     {!|!}!~!.!A.B.C.
   19aa0:	ff45ff44 ff47ff46 ff49ff48 ff4bff4a     D.E.F.G.H.I.J.K.
   19ab0:	ff4dff4c ff4fff4e ff51ff50 ff53ff52     L.M.N.O.P.Q.R.S.
   19ac0:	ff55ff54 ff57ff56 ff59ff58 0000ff5a     T.U.V.W.X.Y.Z...

00019ad0 <tbl_upper.4309>:
   19ad0:	00420041 00440043 00460045 00480047     A.B.C.D.E.F.G.H.
   19ae0:	004a0049 004c004b 004e004d 0050004f     I.J.K.L.M.N.O.P.
   19af0:	00520051 00540053 00560055 00580057     Q.R.S.T.U.V.W.X.
   19b00:	005a0059 ffe00021 ffe5ffe1 ffe3ffe2     Y.Z.!...........
   19b10:	00c100c0 00c300c2 00c500c4 00c700c6     ................
   19b20:	00c900c8 00cb00ca 00cd00cc 00cf00ce     ................
   19b30:	00d100d0 00d300d2 00d500d4 00d800d6     ................
   19b40:	00da00d9 00dc00db 00de00dd 01000178     ............x...
   19b50:	01040102 01080106 010c010a 0110010e     ................
   19b60:	01140112 01180116 011c011a 0120011e     .............. .
   19b70:	01240122 01280126 012c012a 0130012e     ".$.&.(.*.,...0.
   19b80:	01340132 01390136 013d013b 0141013f     2.4.6.9.;.=.?.A.
   19b90:	01450143 014a0147 014e014c 01520150     C.E.G.J.L.N.P.R.
   19ba0:	01560154 015a0158 015e015c 01620160     T.V.X.Z.\.^.`.b.
   19bb0:	01660164 016a0168 016e016c 01720170     d.f.h.j.l.n.p.r.
   19bc0:	01760174 017b0179 0191017d 03920391     t.v.y.{.}.......
   19bd0:	03940393 03960395 03980397 039a0399     ................
   19be0:	039c039b 039e039d 03a0039f 03a303a1     ................
   19bf0:	03a503a4 03a703a6 03a903a8 041003aa     ................
   19c00:	04120411 04140413 04160415 04180417     ................
   19c10:	041a0419 041c041b 041e041d 0420041f     .............. .
   19c20:	04220421 04240423 04260425 04280427     !.".#.$.%.&.'.(.
   19c30:	042a0429 042c042b 042e042d 0401042f     ).*.+.,.-.../...
   19c40:	04030402 04050404 04070406 04090408     ................
   19c50:	040b040a 040e040c 2160040f 21622161     ..........`!a!b!
   19c60:	21642163 21662165 21682167 216a2169     c!d!e!f!g!h!i!j!
   19c70:	216c216b 216e216d ff21216f ff23ff22     k!l!m!n!o!!.".#.
   19c80:	ff25ff24 ff27ff26 ff29ff28 ff2bff2a     $.%.&.'.(.).*.+.
   19c90:	ff2dff2c ff2fff2e ff31ff30 ff33ff32     ,.-.../.0.1.2.3.
   19ca0:	ff35ff34 ff37ff36 ff39ff38 0000ff3a     4.5.6.7.8.9.:...
   19cb0:	61206577 6e206572 6920776f 414d206e     we are now in MA
   19cc0:	0a0d4e49 00000000 74736572 69207478     IN......restxt i
   19cd0:	69252073 00000a0d 67616c66 78742e41     s %i....flagA.tx
   19ce0:	73692074 206e6920 63204453 2c647261     t is in SD card,
   19cf0:	206f6420 74736574 0a0d2041 00000000      do testA ......
   19d00:	74736554 6f725020 6d617267 2d204120     Test Program A -
   19d10:	44454c20 676f5420 73656c67 65766520      LED Toggles eve
   19d20:	35207972 736d3030 00000a0d 4941465b     ry 500ms....[FAI
   19d30:	72205d4c 25207365 000a0d64 67616c46     L] res %d...Flag
   19d40:	78742e42 64612074 21646564 6c6f4820     B.txt added! Hol
   19d50:	75622064 6e6f7474 65727020 64657373     d button pressed
   19d60:	206f7420 65736572 65642074 65636976      to reset device
   19d70:	000a0d21 6c696146 61206465 65642074     !...Failed at de
   19d80:	6974656c 6620676e 4167616c 00000a0d     leting flagA....
   19d90:	656c6564 20646574 67616c66 000a0d41     deleted flagA...
   19da0:	67616c66 78742e41 73692074 746f6e20     flagA.txt is not
   19db0:	206e6920 63204453 2c647261 206f6420      in SD card, do 
   19dc0:	74736574 0a0d2042 00000000 74736554     testB ......Test
   19dd0:	6f725020 6d617267 2d204220 44454c20      Program B - LED
   19de0:	676f5420 73656c67 65766520 31207972      Toggles every 1
   19df0:	6d203030 65732073 646e6f63 00000a0d     00 ms second....
   19e00:	67616c46 78742e41 64612074 21646564     FlagA.txt added!
   19e10:	6c6f4820 75622064 6e6f7474 65727020      Hold button pre
   19e20:	64657373 206f7420 65736572 65642074     ssed to reset de
   19e30:	65636976 000a0d21 6c696146 61206465     vice!...Failed a
   19e40:	65642074 6974656c 6620676e 4267616c     t deleting flagB
   19e50:	00000a0d 656c6564 20646574 67616c66     ....deleted flag
   19e60:	000a0d42 6c463a30 2e416761 00747874     B...0:FlagA.txt.
   19e70:	6c463a30 2e426761 00747874 6f727245     0:FlagB.txt.Erro
   19e80:	6e6f2072 6d656d20 2079726f 6f6c6c61     r on memory allo
   19e90:	69746163 6f206e6f 5246206e 54524545     cation on FREERT
   19ea0:	0d21534f 0000000a 6f727245 6e6f2072     OS!.....Error on
   19eb0:	61747320 6f206b63 66726576 20776f6c      stack overflow 
   19ec0:	46206e6f 52454552 21534f54 00000a0d     on FREERTOS!....

00019ed0 <__sf_fake_stderr>:
	...

00019ef0 <__sf_fake_stdin>:
	...

00019f10 <__sf_fake_stdout>:
	...
   19f30:	2b302d23 6c680020 6665004c 47464567     #-0+ .hlL.efgEFG
   19f40:	32313000 36353433 41393837 45444342     .0123456789ABCDE
   19f50:	31300046 35343332 39383736 64636261     F.0123456789abcd
   19f60:	00006665                                ef..

00019f64 <_init>:
   19f64:	b5f8      	push	{r3, r4, r5, r6, r7, lr}
   19f66:	46c0      	nop			; (mov r8, r8)
   19f68:	bcf8      	pop	{r3, r4, r5, r6, r7}
   19f6a:	bc08      	pop	{r3}
   19f6c:	469e      	mov	lr, r3
   19f6e:	4770      	bx	lr

00019f70 <__init_array_start>:
   19f70:	000120dd 	.word	0x000120dd

00019f74 <_fini>:
   19f74:	b5f8      	push	{r3, r4, r5, r6, r7, lr}
   19f76:	46c0      	nop			; (mov r8, r8)
   19f78:	bcf8      	pop	{r3, r4, r5, r6, r7}
   19f7a:	bc08      	pop	{r3}
   19f7c:	469e      	mov	lr, r3
   19f7e:	4770      	bx	lr

00019f80 <__fini_array_start>:
   19f80:	000120b5 	.word	0x000120b5
