
ESE516 BOOTLOADER.elf:     file format elf32-littlearm

Sections:
Idx Name          Size      VMA       LMA       File off  Algn
  0 .text         0000794c  00000000  00000000  00010000  2**2
                  CONTENTS, ALLOC, LOAD, READONLY, CODE
  1 .relocate     000000b8  20000000  0000794c  00020000  2**2
                  CONTENTS, ALLOC, LOAD, DATA
  2 .bss          00000c20  200000b8  00007a04  000200b8  2**2
                  ALLOC
  3 .stack        00002000  20000cd8  00008624  000200b8  2**0
                  ALLOC
  4 .ARM.attributes 00000028  00000000  00000000  000200b8  2**0
                  CONTENTS, READONLY
  5 .comment      00000059  00000000  00000000  000200e0  2**0
                  CONTENTS, READONLY
  6 .debug_info   0004af37  00000000  00000000  00020139  2**0
                  CONTENTS, READONLY, DEBUGGING
  7 .debug_abbrev 000071e5  00000000  00000000  0006b070  2**0
                  CONTENTS, READONLY, DEBUGGING
  8 .debug_loc    00010dba  00000000  00000000  00072255  2**0
                  CONTENTS, READONLY, DEBUGGING
  9 .debug_aranges 00000bd0  00000000  00000000  0008300f  2**0
                  CONTENTS, READONLY, DEBUGGING
 10 .debug_ranges 00001150  00000000  00000000  00083bdf  2**0
                  CONTENTS, READONLY, DEBUGGING
 11 .debug_macro  000218f7  00000000  00000000  00084d2f  2**0
                  CONTENTS, READONLY, DEBUGGING
 12 .debug_line   000191b9  00000000  00000000  000a6626  2**0
                  CONTENTS, READONLY, DEBUGGING
 13 .debug_str    00093c69  00000000  00000000  000bf7df  2**0
                  CONTENTS, READONLY, DEBUGGING
 14 .debug_frame  00002650  00000000  00000000  00153448  2**2
                  CONTENTS, READONLY, DEBUGGING

Disassembly of section .text:

00000000 <exception_table>:
       0:	d8 2c 00 20 01 37 00 00 fd 36 00 00 fd 36 00 00     .,. .7...6...6..
	...
      2c:	fd 36 00 00 00 00 00 00 00 00 00 00 fd 36 00 00     .6...........6..
      3c:	8d 01 00 00 fd 36 00 00 fd 36 00 00 fd 36 00 00     .....6...6...6..
      4c:	fd 36 00 00 fd 36 00 00 fd 36 00 00 fd 36 00 00     .6...6...6...6..
      5c:	fd 36 00 00 fd 36 00 00 55 21 00 00 65 21 00 00     .6...6..U!..e!..
      6c:	75 21 00 00 85 21 00 00 95 21 00 00 a5 21 00 00     u!...!...!...!..
      7c:	fd 36 00 00 fd 36 00 00 fd 36 00 00 fd 36 00 00     .6...6...6...6..
      8c:	fd 36 00 00 fd 36 00 00 00 00 00 00 00 00 00 00     .6...6..........
      9c:	fd 36 00 00 fd 36 00 00 fd 36 00 00 fd 36 00 00     .6...6...6...6..
      ac:	fd 36 00 00 00 00 00 00                             .6......

000000b4 <__do_global_dtors_aux>:
      b4:	b510      	push	{r4, lr}
      b6:	4c06      	ldr	r4, [pc, #24]	; (d0 <__do_global_dtors_aux+0x1c>)
      b8:	7823      	ldrb	r3, [r4, #0]
      ba:	2b00      	cmp	r3, #0
      bc:	d107      	bne.n	ce <__do_global_dtors_aux+0x1a>
      be:	4b05      	ldr	r3, [pc, #20]	; (d4 <__do_global_dtors_aux+0x20>)
      c0:	2b00      	cmp	r3, #0
      c2:	d002      	beq.n	ca <__do_global_dtors_aux+0x16>
      c4:	4804      	ldr	r0, [pc, #16]	; (d8 <__do_global_dtors_aux+0x24>)
      c6:	e000      	b.n	ca <__do_global_dtors_aux+0x16>
      c8:	bf00      	nop
      ca:	2301      	movs	r3, #1
      cc:	7023      	strb	r3, [r4, #0]
      ce:	bd10      	pop	{r4, pc}
      d0:	200000b8 	.word	0x200000b8
      d4:	00000000 	.word	0x00000000
      d8:	0000794c 	.word	0x0000794c

000000dc <frame_dummy>:
      dc:	4b08      	ldr	r3, [pc, #32]	; (100 <frame_dummy+0x24>)
      de:	b510      	push	{r4, lr}
      e0:	2b00      	cmp	r3, #0
      e2:	d003      	beq.n	ec <frame_dummy+0x10>
      e4:	4907      	ldr	r1, [pc, #28]	; (104 <frame_dummy+0x28>)
      e6:	4808      	ldr	r0, [pc, #32]	; (108 <frame_dummy+0x2c>)
      e8:	e000      	b.n	ec <frame_dummy+0x10>
      ea:	bf00      	nop
      ec:	4807      	ldr	r0, [pc, #28]	; (10c <frame_dummy+0x30>)
      ee:	6803      	ldr	r3, [r0, #0]
      f0:	2b00      	cmp	r3, #0
      f2:	d100      	bne.n	f6 <frame_dummy+0x1a>
      f4:	bd10      	pop	{r4, pc}
      f6:	4b06      	ldr	r3, [pc, #24]	; (110 <frame_dummy+0x34>)
      f8:	2b00      	cmp	r3, #0
      fa:	d0fb      	beq.n	f4 <frame_dummy+0x18>
      fc:	4798      	blx	r3
      fe:	e7f9      	b.n	f4 <frame_dummy+0x18>
     100:	00000000 	.word	0x00000000
     104:	200000bc 	.word	0x200000bc
     108:	0000794c 	.word	0x0000794c
     10c:	0000794c 	.word	0x0000794c
     110:	00000000 	.word	0x00000000

00000114 <delay_init>:
     114:	b570      	push	{r4, r5, r6, lr}
     116:	2000      	movs	r0, #0
     118:	4b08      	ldr	r3, [pc, #32]	; (13c <delay_init+0x28>)
     11a:	4798      	blx	r3
     11c:	0005      	movs	r5, r0
     11e:	4c08      	ldr	r4, [pc, #32]	; (140 <delay_init+0x2c>)
     120:	21fa      	movs	r1, #250	; 0xfa
     122:	0089      	lsls	r1, r1, #2
     124:	47a0      	blx	r4
     126:	4b07      	ldr	r3, [pc, #28]	; (144 <delay_init+0x30>)
     128:	6018      	str	r0, [r3, #0]
     12a:	4907      	ldr	r1, [pc, #28]	; (148 <delay_init+0x34>)
     12c:	0028      	movs	r0, r5
     12e:	47a0      	blx	r4
     130:	4b06      	ldr	r3, [pc, #24]	; (14c <delay_init+0x38>)
     132:	6018      	str	r0, [r3, #0]
     134:	2205      	movs	r2, #5
     136:	4b06      	ldr	r3, [pc, #24]	; (150 <delay_init+0x3c>)
     138:	601a      	str	r2, [r3, #0]
     13a:	bd70      	pop	{r4, r5, r6, pc}
     13c:	0000348d 	.word	0x0000348d
     140:	00005ac9 	.word	0x00005ac9
     144:	20000000 	.word	0x20000000
     148:	000f4240 	.word	0x000f4240
     14c:	20000004 	.word	0x20000004
     150:	e000e010 	.word	0xe000e010

00000154 <delay_cycles_ms>:
     154:	b530      	push	{r4, r5, lr}
     156:	4b08      	ldr	r3, [pc, #32]	; (178 <delay_cycles_ms+0x24>)
     158:	681c      	ldr	r4, [r3, #0]
     15a:	4a08      	ldr	r2, [pc, #32]	; (17c <delay_cycles_ms+0x28>)
     15c:	2500      	movs	r5, #0
     15e:	2180      	movs	r1, #128	; 0x80
     160:	0249      	lsls	r1, r1, #9
     162:	3801      	subs	r0, #1
     164:	d307      	bcc.n	176 <delay_cycles_ms+0x22>
     166:	2c00      	cmp	r4, #0
     168:	d0fb      	beq.n	162 <delay_cycles_ms+0xe>
     16a:	6054      	str	r4, [r2, #4]
     16c:	6095      	str	r5, [r2, #8]
     16e:	6813      	ldr	r3, [r2, #0]
     170:	420b      	tst	r3, r1
     172:	d0fc      	beq.n	16e <delay_cycles_ms+0x1a>
     174:	e7f5      	b.n	162 <delay_cycles_ms+0xe>
     176:	bd30      	pop	{r4, r5, pc}
     178:	20000000 	.word	0x20000000
     17c:	e000e010 	.word	0xe000e010

00000180 <GetSystick>:
     180:	4b01      	ldr	r3, [pc, #4]	; (188 <GetSystick+0x8>)
     182:	6818      	ldr	r0, [r3, #0]
     184:	4770      	bx	lr
     186:	46c0      	nop			; (mov r8, r8)
     188:	200000d4 	.word	0x200000d4

0000018c <SysTick_Handler>:
     18c:	4a02      	ldr	r2, [pc, #8]	; (198 <SysTick_Handler+0xc>)
     18e:	6813      	ldr	r3, [r2, #0]
     190:	3301      	adds	r3, #1
     192:	6013      	str	r3, [r2, #0]
     194:	4770      	bx	lr
     196:	46c0      	nop			; (mov r8, r8)
     198:	200000d4 	.word	0x200000d4

0000019c <system_board_init>:
     19c:	b5f0      	push	{r4, r5, r6, r7, lr}
     19e:	b083      	sub	sp, #12
     1a0:	ac01      	add	r4, sp, #4
     1a2:	2501      	movs	r5, #1
     1a4:	7065      	strb	r5, [r4, #1]
     1a6:	2700      	movs	r7, #0
     1a8:	70a7      	strb	r7, [r4, #2]
     1aa:	7025      	strb	r5, [r4, #0]
     1ac:	0021      	movs	r1, r4
     1ae:	2017      	movs	r0, #23
     1b0:	4e06      	ldr	r6, [pc, #24]	; (1cc <system_board_init+0x30>)
     1b2:	47b0      	blx	r6
     1b4:	2280      	movs	r2, #128	; 0x80
     1b6:	0412      	lsls	r2, r2, #16
     1b8:	4b05      	ldr	r3, [pc, #20]	; (1d0 <system_board_init+0x34>)
     1ba:	619a      	str	r2, [r3, #24]
     1bc:	7027      	strb	r7, [r4, #0]
     1be:	7065      	strb	r5, [r4, #1]
     1c0:	0021      	movs	r1, r4
     1c2:	2037      	movs	r0, #55	; 0x37
     1c4:	47b0      	blx	r6
     1c6:	b003      	add	sp, #12
     1c8:	bdf0      	pop	{r4, r5, r6, r7, pc}
     1ca:	46c0      	nop			; (mov r8, r8)
     1cc:	00001b75 	.word	0x00001b75
     1d0:	41004400 	.word	0x41004400

000001d4 <dsu_crc32_cal>:
     1d4:	b570      	push	{r4, r5, r6, lr}
     1d6:	0004      	movs	r4, r0
     1d8:	000e      	movs	r6, r1
     1da:	0015      	movs	r5, r2
     1dc:	2018      	movs	r0, #24
     1de:	07a3      	lsls	r3, r4, #30
     1e0:	d000      	beq.n	1e4 <dsu_crc32_cal+0x10>
     1e2:	bd70      	pop	{r4, r5, r6, pc}
     1e4:	b672      	cpsid	i
     1e6:	f3bf 8f5f 	dmb	sy
     1ea:	2200      	movs	r2, #0
     1ec:	4b1b      	ldr	r3, [pc, #108]	; (25c <dsu_crc32_cal+0x88>)
     1ee:	701a      	strb	r2, [r3, #0]
     1f0:	2122      	movs	r1, #34	; 0x22
     1f2:	4249      	negs	r1, r1
     1f4:	3009      	adds	r0, #9
     1f6:	4b1a      	ldr	r3, [pc, #104]	; (260 <dsu_crc32_cal+0x8c>)
     1f8:	4798      	blx	r3
     1fa:	4b1a      	ldr	r3, [pc, #104]	; (264 <dsu_crc32_cal+0x90>)
     1fc:	682a      	ldr	r2, [r5, #0]
     1fe:	60da      	str	r2, [r3, #12]
     200:	605c      	str	r4, [r3, #4]
     202:	609e      	str	r6, [r3, #8]
     204:	781a      	ldrb	r2, [r3, #0]
     206:	2104      	movs	r1, #4
     208:	430a      	orrs	r2, r1
     20a:	701a      	strb	r2, [r3, #0]
     20c:	0019      	movs	r1, r3
     20e:	2201      	movs	r2, #1
     210:	784b      	ldrb	r3, [r1, #1]
     212:	4213      	tst	r3, r2
     214:	d0fc      	beq.n	210 <dsu_crc32_cal+0x3c>
     216:	4b13      	ldr	r3, [pc, #76]	; (264 <dsu_crc32_cal+0x90>)
     218:	785b      	ldrb	r3, [r3, #1]
     21a:	075b      	lsls	r3, r3, #29
     21c:	d50c      	bpl.n	238 <dsu_crc32_cal+0x64>
     21e:	2122      	movs	r1, #34	; 0x22
     220:	4249      	negs	r1, r1
     222:	2021      	movs	r0, #33	; 0x21
     224:	4b10      	ldr	r3, [pc, #64]	; (268 <dsu_crc32_cal+0x94>)
     226:	4798      	blx	r3
     228:	2201      	movs	r2, #1
     22a:	4b0c      	ldr	r3, [pc, #48]	; (25c <dsu_crc32_cal+0x88>)
     22c:	701a      	strb	r2, [r3, #0]
     22e:	f3bf 8f5f 	dmb	sy
     232:	b662      	cpsie	i
     234:	2010      	movs	r0, #16
     236:	e7d4      	b.n	1e2 <dsu_crc32_cal+0xe>
     238:	4b0a      	ldr	r3, [pc, #40]	; (264 <dsu_crc32_cal+0x90>)
     23a:	68da      	ldr	r2, [r3, #12]
     23c:	602a      	str	r2, [r5, #0]
     23e:	2401      	movs	r4, #1
     240:	705c      	strb	r4, [r3, #1]
     242:	2122      	movs	r1, #34	; 0x22
     244:	4249      	negs	r1, r1
     246:	2021      	movs	r0, #33	; 0x21
     248:	4b07      	ldr	r3, [pc, #28]	; (268 <dsu_crc32_cal+0x94>)
     24a:	4798      	blx	r3
     24c:	4b03      	ldr	r3, [pc, #12]	; (25c <dsu_crc32_cal+0x88>)
     24e:	701c      	strb	r4, [r3, #0]
     250:	f3bf 8f5f 	dmb	sy
     254:	b662      	cpsie	i
     256:	2000      	movs	r0, #0
     258:	e7c3      	b.n	1e2 <dsu_crc32_cal+0xe>
     25a:	46c0      	nop			; (mov r8, r8)
     25c:	20000009 	.word	0x20000009
     260:	00000551 	.word	0x00000551
     264:	41002000 	.word	0x41002000
     268:	000004f1 	.word	0x000004f1

0000026c <nvm_set_config>:
     26c:	b510      	push	{r4, lr}
     26e:	4a1e      	ldr	r2, [pc, #120]	; (2e8 <nvm_set_config+0x7c>)
     270:	69d3      	ldr	r3, [r2, #28]
     272:	2104      	movs	r1, #4
     274:	430b      	orrs	r3, r1
     276:	61d3      	str	r3, [r2, #28]
     278:	4b1c      	ldr	r3, [pc, #112]	; (2ec <nvm_set_config+0x80>)
     27a:	2220      	movs	r2, #32
     27c:	32ff      	adds	r2, #255	; 0xff
     27e:	831a      	strh	r2, [r3, #24]
     280:	7d1a      	ldrb	r2, [r3, #20]
     282:	2305      	movs	r3, #5
     284:	07d2      	lsls	r2, r2, #31
     286:	d401      	bmi.n	28c <nvm_set_config+0x20>
     288:	0018      	movs	r0, r3
     28a:	bd10      	pop	{r4, pc}
     28c:	7803      	ldrb	r3, [r0, #0]
     28e:	021b      	lsls	r3, r3, #8
     290:	22c0      	movs	r2, #192	; 0xc0
     292:	0092      	lsls	r2, r2, #2
     294:	4013      	ands	r3, r2
     296:	7841      	ldrb	r1, [r0, #1]
     298:	01c9      	lsls	r1, r1, #7
     29a:	22ff      	movs	r2, #255	; 0xff
     29c:	400a      	ands	r2, r1
     29e:	4313      	orrs	r3, r2
     2a0:	7881      	ldrb	r1, [r0, #2]
     2a2:	0049      	lsls	r1, r1, #1
     2a4:	221e      	movs	r2, #30
     2a6:	400a      	ands	r2, r1
     2a8:	4313      	orrs	r3, r2
     2aa:	78c2      	ldrb	r2, [r0, #3]
     2ac:	0492      	lsls	r2, r2, #18
     2ae:	2180      	movs	r1, #128	; 0x80
     2b0:	02c9      	lsls	r1, r1, #11
     2b2:	400a      	ands	r2, r1
     2b4:	4313      	orrs	r3, r2
     2b6:	7902      	ldrb	r2, [r0, #4]
     2b8:	0412      	lsls	r2, r2, #16
     2ba:	21c0      	movs	r1, #192	; 0xc0
     2bc:	0289      	lsls	r1, r1, #10
     2be:	400a      	ands	r2, r1
     2c0:	4313      	orrs	r3, r2
     2c2:	4a0a      	ldr	r2, [pc, #40]	; (2ec <nvm_set_config+0x80>)
     2c4:	6053      	str	r3, [r2, #4]
     2c6:	6893      	ldr	r3, [r2, #8]
     2c8:	035b      	lsls	r3, r3, #13
     2ca:	0f5b      	lsrs	r3, r3, #29
     2cc:	4908      	ldr	r1, [pc, #32]	; (2f0 <nvm_set_config+0x84>)
     2ce:	2408      	movs	r4, #8
     2d0:	409c      	lsls	r4, r3
     2d2:	800c      	strh	r4, [r1, #0]
     2d4:	6893      	ldr	r3, [r2, #8]
     2d6:	804b      	strh	r3, [r1, #2]
     2d8:	7843      	ldrb	r3, [r0, #1]
     2da:	710b      	strb	r3, [r1, #4]
     2dc:	8b13      	ldrh	r3, [r2, #24]
     2de:	05db      	lsls	r3, r3, #23
     2e0:	0fdb      	lsrs	r3, r3, #31
     2e2:	011b      	lsls	r3, r3, #4
     2e4:	e7d0      	b.n	288 <nvm_set_config+0x1c>
     2e6:	46c0      	nop			; (mov r8, r8)
     2e8:	40000400 	.word	0x40000400
     2ec:	41004000 	.word	0x41004000
     2f0:	200000d8 	.word	0x200000d8

000002f4 <nvm_execute_command>:
     2f4:	b530      	push	{r4, r5, lr}
     2f6:	0004      	movs	r4, r0
     2f8:	4a22      	ldr	r2, [pc, #136]	; (384 <nvm_execute_command+0x90>)
     2fa:	8810      	ldrh	r0, [r2, #0]
     2fc:	8853      	ldrh	r3, [r2, #2]
     2fe:	4343      	muls	r3, r0
     300:	428b      	cmp	r3, r1
     302:	d206      	bcs.n	312 <nvm_execute_command+0x1e>
     304:	2280      	movs	r2, #128	; 0x80
     306:	0192      	lsls	r2, r2, #6
     308:	2018      	movs	r0, #24
     30a:	4b1f      	ldr	r3, [pc, #124]	; (388 <nvm_execute_command+0x94>)
     30c:	18cb      	adds	r3, r1, r3
     30e:	4293      	cmp	r3, r2
     310:	d80e      	bhi.n	330 <nvm_execute_command+0x3c>
     312:	4b1e      	ldr	r3, [pc, #120]	; (38c <nvm_execute_command+0x98>)
     314:	685d      	ldr	r5, [r3, #4]
     316:	2280      	movs	r2, #128	; 0x80
     318:	02d2      	lsls	r2, r2, #11
     31a:	432a      	orrs	r2, r5
     31c:	605a      	str	r2, [r3, #4]
     31e:	2220      	movs	r2, #32
     320:	32ff      	adds	r2, #255	; 0xff
     322:	831a      	strh	r2, [r3, #24]
     324:	7d1b      	ldrb	r3, [r3, #20]
     326:	07db      	lsls	r3, r3, #31
     328:	d403      	bmi.n	332 <nvm_execute_command+0x3e>
     32a:	4b18      	ldr	r3, [pc, #96]	; (38c <nvm_execute_command+0x98>)
     32c:	605d      	str	r5, [r3, #4]
     32e:	2005      	movs	r0, #5
     330:	bd30      	pop	{r4, r5, pc}
     332:	2c45      	cmp	r4, #69	; 0x45
     334:	d822      	bhi.n	37c <nvm_execute_command+0x88>
     336:	00a3      	lsls	r3, r4, #2
     338:	4a15      	ldr	r2, [pc, #84]	; (390 <nvm_execute_command+0x9c>)
     33a:	58d3      	ldr	r3, [r2, r3]
     33c:	469f      	mov	pc, r3
     33e:	4b13      	ldr	r3, [pc, #76]	; (38c <nvm_execute_command+0x98>)
     340:	8b1b      	ldrh	r3, [r3, #24]
     342:	05db      	lsls	r3, r3, #23
     344:	d503      	bpl.n	34e <nvm_execute_command+0x5a>
     346:	4b11      	ldr	r3, [pc, #68]	; (38c <nvm_execute_command+0x98>)
     348:	605d      	str	r5, [r3, #4]
     34a:	2010      	movs	r0, #16
     34c:	e7f0      	b.n	330 <nvm_execute_command+0x3c>
     34e:	0889      	lsrs	r1, r1, #2
     350:	0049      	lsls	r1, r1, #1
     352:	4b0e      	ldr	r3, [pc, #56]	; (38c <nvm_execute_command+0x98>)
     354:	61d9      	str	r1, [r3, #28]
     356:	e003      	b.n	360 <nvm_execute_command+0x6c>
     358:	0889      	lsrs	r1, r1, #2
     35a:	0049      	lsls	r1, r1, #1
     35c:	4b0b      	ldr	r3, [pc, #44]	; (38c <nvm_execute_command+0x98>)
     35e:	61d9      	str	r1, [r3, #28]
     360:	20a5      	movs	r0, #165	; 0xa5
     362:	0200      	lsls	r0, r0, #8
     364:	4304      	orrs	r4, r0
     366:	4b09      	ldr	r3, [pc, #36]	; (38c <nvm_execute_command+0x98>)
     368:	801c      	strh	r4, [r3, #0]
     36a:	0019      	movs	r1, r3
     36c:	2201      	movs	r2, #1
     36e:	7d0b      	ldrb	r3, [r1, #20]
     370:	4213      	tst	r3, r2
     372:	d0fc      	beq.n	36e <nvm_execute_command+0x7a>
     374:	4b05      	ldr	r3, [pc, #20]	; (38c <nvm_execute_command+0x98>)
     376:	605d      	str	r5, [r3, #4]
     378:	2000      	movs	r0, #0
     37a:	e7d9      	b.n	330 <nvm_execute_command+0x3c>
     37c:	4b03      	ldr	r3, [pc, #12]	; (38c <nvm_execute_command+0x98>)
     37e:	605d      	str	r5, [r3, #4]
     380:	2017      	movs	r0, #23
     382:	e7d5      	b.n	330 <nvm_execute_command+0x3c>
     384:	200000d8 	.word	0x200000d8
     388:	ff7fc000 	.word	0xff7fc000
     38c:	41004000 	.word	0x41004000
     390:	00006d14 	.word	0x00006d14

00000394 <nvm_write_buffer>:
     394:	b5f8      	push	{r3, r4, r5, r6, r7, lr}
     396:	4b25      	ldr	r3, [pc, #148]	; (42c <nvm_write_buffer+0x98>)
     398:	881d      	ldrh	r5, [r3, #0]
     39a:	885b      	ldrh	r3, [r3, #2]
     39c:	436b      	muls	r3, r5
     39e:	2418      	movs	r4, #24
     3a0:	4283      	cmp	r3, r0
     3a2:	d201      	bcs.n	3a8 <nvm_write_buffer+0x14>
     3a4:	0020      	movs	r0, r4
     3a6:	bdf8      	pop	{r3, r4, r5, r6, r7, pc}
     3a8:	1e6b      	subs	r3, r5, #1
     3aa:	4218      	tst	r0, r3
     3ac:	d1fa      	bne.n	3a4 <nvm_write_buffer+0x10>
     3ae:	3c01      	subs	r4, #1
     3b0:	4295      	cmp	r5, r2
     3b2:	d3f7      	bcc.n	3a4 <nvm_write_buffer+0x10>
     3b4:	4b1e      	ldr	r3, [pc, #120]	; (430 <nvm_write_buffer+0x9c>)
     3b6:	7d1b      	ldrb	r3, [r3, #20]
     3b8:	3c12      	subs	r4, #18
     3ba:	07db      	lsls	r3, r3, #31
     3bc:	d5f2      	bpl.n	3a4 <nvm_write_buffer+0x10>
     3be:	4c1d      	ldr	r4, [pc, #116]	; (434 <nvm_write_buffer+0xa0>)
     3c0:	4b1b      	ldr	r3, [pc, #108]	; (430 <nvm_write_buffer+0x9c>)
     3c2:	801c      	strh	r4, [r3, #0]
     3c4:	001d      	movs	r5, r3
     3c6:	2401      	movs	r4, #1
     3c8:	7d2b      	ldrb	r3, [r5, #20]
     3ca:	4223      	tst	r3, r4
     3cc:	d0fc      	beq.n	3c8 <nvm_write_buffer+0x34>
     3ce:	2420      	movs	r4, #32
     3d0:	34ff      	adds	r4, #255	; 0xff
     3d2:	4b17      	ldr	r3, [pc, #92]	; (430 <nvm_write_buffer+0x9c>)
     3d4:	831c      	strh	r4, [r3, #24]
     3d6:	2a00      	cmp	r2, #0
     3d8:	d022      	beq.n	420 <nvm_write_buffer+0x8c>
     3da:	2301      	movs	r3, #1
     3dc:	0005      	movs	r5, r0
     3de:	439d      	bics	r5, r3
     3e0:	2300      	movs	r3, #0
     3e2:	1e57      	subs	r7, r2, #1
     3e4:	e009      	b.n	3fa <nvm_write_buffer+0x66>
     3e6:	18ce      	adds	r6, r1, r3
     3e8:	7876      	ldrb	r6, [r6, #1]
     3ea:	0236      	lsls	r6, r6, #8
     3ec:	4334      	orrs	r4, r6
     3ee:	802c      	strh	r4, [r5, #0]
     3f0:	3302      	adds	r3, #2
     3f2:	b29b      	uxth	r3, r3
     3f4:	3502      	adds	r5, #2
     3f6:	429a      	cmp	r2, r3
     3f8:	d904      	bls.n	404 <nvm_write_buffer+0x70>
     3fa:	5ccc      	ldrb	r4, [r1, r3]
     3fc:	42bb      	cmp	r3, r7
     3fe:	dbf2      	blt.n	3e6 <nvm_write_buffer+0x52>
     400:	b2a4      	uxth	r4, r4
     402:	e7f4      	b.n	3ee <nvm_write_buffer+0x5a>
     404:	4b09      	ldr	r3, [pc, #36]	; (42c <nvm_write_buffer+0x98>)
     406:	791b      	ldrb	r3, [r3, #4]
     408:	2400      	movs	r4, #0
     40a:	2b00      	cmp	r3, #0
     40c:	d1ca      	bne.n	3a4 <nvm_write_buffer+0x10>
     40e:	2a3f      	cmp	r2, #63	; 0x3f
     410:	d8c8      	bhi.n	3a4 <nvm_write_buffer+0x10>
     412:	2200      	movs	r2, #0
     414:	0001      	movs	r1, r0
     416:	2004      	movs	r0, #4
     418:	4b07      	ldr	r3, [pc, #28]	; (438 <nvm_write_buffer+0xa4>)
     41a:	4798      	blx	r3
     41c:	0004      	movs	r4, r0
     41e:	e7c1      	b.n	3a4 <nvm_write_buffer+0x10>
     420:	4b02      	ldr	r3, [pc, #8]	; (42c <nvm_write_buffer+0x98>)
     422:	791b      	ldrb	r3, [r3, #4]
     424:	2400      	movs	r4, #0
     426:	2b00      	cmp	r3, #0
     428:	d0f3      	beq.n	412 <nvm_write_buffer+0x7e>
     42a:	e7bb      	b.n	3a4 <nvm_write_buffer+0x10>
     42c:	200000d8 	.word	0x200000d8
     430:	41004000 	.word	0x41004000
     434:	ffffa544 	.word	0xffffa544
     438:	000002f5 	.word	0x000002f5

0000043c <nvm_erase_row>:
     43c:	4b13      	ldr	r3, [pc, #76]	; (48c <nvm_erase_row+0x50>)
     43e:	881a      	ldrh	r2, [r3, #0]
     440:	885b      	ldrh	r3, [r3, #2]
     442:	4353      	muls	r3, r2
     444:	2118      	movs	r1, #24
     446:	4283      	cmp	r3, r0
     448:	d201      	bcs.n	44e <nvm_erase_row+0x12>
     44a:	0008      	movs	r0, r1
     44c:	4770      	bx	lr
     44e:	0092      	lsls	r2, r2, #2
     450:	3a01      	subs	r2, #1
     452:	4210      	tst	r0, r2
     454:	d1f9      	bne.n	44a <nvm_erase_row+0xe>
     456:	4b0e      	ldr	r3, [pc, #56]	; (490 <nvm_erase_row+0x54>)
     458:	7d1b      	ldrb	r3, [r3, #20]
     45a:	3913      	subs	r1, #19
     45c:	07db      	lsls	r3, r3, #31
     45e:	d5f4      	bpl.n	44a <nvm_erase_row+0xe>
     460:	4b0b      	ldr	r3, [pc, #44]	; (490 <nvm_erase_row+0x54>)
     462:	2220      	movs	r2, #32
     464:	32ff      	adds	r2, #255	; 0xff
     466:	831a      	strh	r2, [r3, #24]
     468:	0880      	lsrs	r0, r0, #2
     46a:	0040      	lsls	r0, r0, #1
     46c:	61d8      	str	r0, [r3, #28]
     46e:	4a09      	ldr	r2, [pc, #36]	; (494 <nvm_erase_row+0x58>)
     470:	801a      	strh	r2, [r3, #0]
     472:	0019      	movs	r1, r3
     474:	2201      	movs	r2, #1
     476:	7d0b      	ldrb	r3, [r1, #20]
     478:	4213      	tst	r3, r2
     47a:	d0fc      	beq.n	476 <nvm_erase_row+0x3a>
     47c:	4b04      	ldr	r3, [pc, #16]	; (490 <nvm_erase_row+0x54>)
     47e:	8b19      	ldrh	r1, [r3, #24]
     480:	201c      	movs	r0, #28
     482:	4001      	ands	r1, r0
     484:	1e48      	subs	r0, r1, #1
     486:	4181      	sbcs	r1, r0
     488:	0089      	lsls	r1, r1, #2
     48a:	e7de      	b.n	44a <nvm_erase_row+0xe>
     48c:	200000d8 	.word	0x200000d8
     490:	41004000 	.word	0x41004000
     494:	ffffa502 	.word	0xffffa502

00000498 <nvm_get_parameters>:
     498:	4b13      	ldr	r3, [pc, #76]	; (4e8 <nvm_get_parameters+0x50>)
     49a:	2220      	movs	r2, #32
     49c:	32ff      	adds	r2, #255	; 0xff
     49e:	831a      	strh	r2, [r3, #24]
     4a0:	6899      	ldr	r1, [r3, #8]
     4a2:	034a      	lsls	r2, r1, #13
     4a4:	0f52      	lsrs	r2, r2, #29
     4a6:	2308      	movs	r3, #8
     4a8:	4093      	lsls	r3, r2
     4aa:	7003      	strb	r3, [r0, #0]
     4ac:	8041      	strh	r1, [r0, #2]
     4ae:	4b0f      	ldr	r3, [pc, #60]	; (4ec <nvm_get_parameters+0x54>)
     4b0:	881b      	ldrh	r3, [r3, #0]
     4b2:	065b      	lsls	r3, r3, #25
     4b4:	0f5b      	lsrs	r3, r3, #29
     4b6:	2b07      	cmp	r3, #7
     4b8:	d010      	beq.n	4dc <nvm_get_parameters+0x44>
     4ba:	2206      	movs	r2, #6
     4bc:	1ad2      	subs	r2, r2, r3
     4be:	2304      	movs	r3, #4
     4c0:	4093      	lsls	r3, r2
     4c2:	6043      	str	r3, [r0, #4]
     4c4:	4b09      	ldr	r3, [pc, #36]	; (4ec <nvm_get_parameters+0x54>)
     4c6:	881b      	ldrh	r3, [r3, #0]
     4c8:	2207      	movs	r2, #7
     4ca:	4013      	ands	r3, r2
     4cc:	2b07      	cmp	r3, #7
     4ce:	d008      	beq.n	4e2 <nvm_get_parameters+0x4a>
     4d0:	2207      	movs	r2, #7
     4d2:	1ad2      	subs	r2, r2, r3
     4d4:	2304      	movs	r3, #4
     4d6:	4093      	lsls	r3, r2
     4d8:	6083      	str	r3, [r0, #8]
     4da:	4770      	bx	lr
     4dc:	2300      	movs	r3, #0
     4de:	6043      	str	r3, [r0, #4]
     4e0:	e7f0      	b.n	4c4 <nvm_get_parameters+0x2c>
     4e2:	2300      	movs	r3, #0
     4e4:	6083      	str	r3, [r0, #8]
     4e6:	e7f8      	b.n	4da <nvm_get_parameters+0x42>
     4e8:	41004000 	.word	0x41004000
     4ec:	00804000 	.word	0x00804000

000004f0 <system_peripheral_lock>:
     4f0:	43c2      	mvns	r2, r0
     4f2:	2317      	movs	r3, #23
     4f4:	428a      	cmp	r2, r1
     4f6:	d001      	beq.n	4fc <system_peripheral_lock+0xc>
     4f8:	0018      	movs	r0, r3
     4fa:	4770      	bx	lr
     4fc:	3308      	adds	r3, #8
     4fe:	4003      	ands	r3, r0
     500:	04c0      	lsls	r0, r0, #19
     502:	0e00      	lsrs	r0, r0, #24
     504:	2801      	cmp	r0, #1
     506:	d00d      	beq.n	524 <system_peripheral_lock+0x34>
     508:	2800      	cmp	r0, #0
     50a:	d003      	beq.n	514 <system_peripheral_lock+0x24>
     50c:	2802      	cmp	r0, #2
     50e:	d011      	beq.n	534 <system_peripheral_lock+0x44>
     510:	2317      	movs	r3, #23
     512:	e7f1      	b.n	4f8 <system_peripheral_lock+0x8>
     514:	2201      	movs	r2, #1
     516:	409a      	lsls	r2, r3
     518:	0013      	movs	r3, r2
     51a:	2280      	movs	r2, #128	; 0x80
     51c:	05d2      	lsls	r2, r2, #23
     51e:	6053      	str	r3, [r2, #4]
     520:	2300      	movs	r3, #0
     522:	e7e9      	b.n	4f8 <system_peripheral_lock+0x8>
     524:	2201      	movs	r2, #1
     526:	409a      	lsls	r2, r3
     528:	0013      	movs	r3, r2
     52a:	2282      	movs	r2, #130	; 0x82
     52c:	05d2      	lsls	r2, r2, #23
     52e:	6053      	str	r3, [r2, #4]
     530:	2300      	movs	r3, #0
     532:	e7e1      	b.n	4f8 <system_peripheral_lock+0x8>
     534:	4805      	ldr	r0, [pc, #20]	; (54c <system_peripheral_lock+0x5c>)
     536:	6a01      	ldr	r1, [r0, #32]
     538:	2201      	movs	r2, #1
     53a:	4311      	orrs	r1, r2
     53c:	6201      	str	r1, [r0, #32]
     53e:	409a      	lsls	r2, r3
     540:	2384      	movs	r3, #132	; 0x84
     542:	05db      	lsls	r3, r3, #23
     544:	605a      	str	r2, [r3, #4]
     546:	2300      	movs	r3, #0
     548:	e7d6      	b.n	4f8 <system_peripheral_lock+0x8>
     54a:	46c0      	nop			; (mov r8, r8)
     54c:	40000400 	.word	0x40000400

00000550 <system_peripheral_unlock>:
     550:	43c2      	mvns	r2, r0
     552:	2317      	movs	r3, #23
     554:	428a      	cmp	r2, r1
     556:	d001      	beq.n	55c <system_peripheral_unlock+0xc>
     558:	0018      	movs	r0, r3
     55a:	4770      	bx	lr
     55c:	3308      	adds	r3, #8
     55e:	4003      	ands	r3, r0
     560:	04c0      	lsls	r0, r0, #19
     562:	0e00      	lsrs	r0, r0, #24
     564:	2801      	cmp	r0, #1
     566:	d00d      	beq.n	584 <system_peripheral_unlock+0x34>
     568:	2800      	cmp	r0, #0
     56a:	d003      	beq.n	574 <system_peripheral_unlock+0x24>
     56c:	2802      	cmp	r0, #2
     56e:	d011      	beq.n	594 <system_peripheral_unlock+0x44>
     570:	2317      	movs	r3, #23
     572:	e7f1      	b.n	558 <system_peripheral_unlock+0x8>
     574:	2201      	movs	r2, #1
     576:	409a      	lsls	r2, r3
     578:	0013      	movs	r3, r2
     57a:	2280      	movs	r2, #128	; 0x80
     57c:	05d2      	lsls	r2, r2, #23
     57e:	6013      	str	r3, [r2, #0]
     580:	2300      	movs	r3, #0
     582:	e7e9      	b.n	558 <system_peripheral_unlock+0x8>
     584:	2201      	movs	r2, #1
     586:	409a      	lsls	r2, r3
     588:	0013      	movs	r3, r2
     58a:	2282      	movs	r2, #130	; 0x82
     58c:	05d2      	lsls	r2, r2, #23
     58e:	6013      	str	r3, [r2, #0]
     590:	2300      	movs	r3, #0
     592:	e7e1      	b.n	558 <system_peripheral_unlock+0x8>
     594:	4805      	ldr	r0, [pc, #20]	; (5ac <system_peripheral_unlock+0x5c>)
     596:	6a01      	ldr	r1, [r0, #32]
     598:	2201      	movs	r2, #1
     59a:	4311      	orrs	r1, r2
     59c:	6201      	str	r1, [r0, #32]
     59e:	409a      	lsls	r2, r3
     5a0:	2384      	movs	r3, #132	; 0x84
     5a2:	05db      	lsls	r3, r3, #23
     5a4:	601a      	str	r2, [r3, #0]
     5a6:	2300      	movs	r3, #0
     5a8:	e7d6      	b.n	558 <system_peripheral_unlock+0x8>
     5aa:	46c0      	nop			; (mov r8, r8)
     5ac:	40000400 	.word	0x40000400

000005b0 <SdCard_Initiate>:
     5b0:	b5f8      	push	{r3, r4, r5, r6, r7, lr}
     5b2:	4b11      	ldr	r3, [pc, #68]	; (5f8 <SdCard_Initiate+0x48>)
     5b4:	4798      	blx	r3
     5b6:	0006      	movs	r6, r0
     5b8:	4f10      	ldr	r7, [pc, #64]	; (5fc <SdCard_Initiate+0x4c>)
     5ba:	4d11      	ldr	r5, [pc, #68]	; (600 <SdCard_Initiate+0x50>)
     5bc:	e00a      	b.n	5d4 <SdCard_Initiate+0x24>
     5be:	2000      	movs	r0, #0
     5c0:	47a8      	blx	r5
     5c2:	2802      	cmp	r0, #2
     5c4:	d1fb      	bne.n	5be <SdCard_Initiate+0xe>
     5c6:	4b0c      	ldr	r3, [pc, #48]	; (5f8 <SdCard_Initiate+0x48>)
     5c8:	4798      	blx	r3
     5ca:	1b80      	subs	r0, r0, r6
     5cc:	23fa      	movs	r3, #250	; 0xfa
     5ce:	005b      	lsls	r3, r3, #1
     5d0:	4298      	cmp	r0, r3
     5d2:	d80d      	bhi.n	5f0 <SdCard_Initiate+0x40>
     5d4:	2000      	movs	r0, #0
     5d6:	47b8      	blx	r7
     5d8:	0004      	movs	r4, r0
     5da:	2801      	cmp	r0, #1
     5dc:	d0ef      	beq.n	5be <SdCard_Initiate+0xe>
     5de:	4b06      	ldr	r3, [pc, #24]	; (5f8 <SdCard_Initiate+0x48>)
     5e0:	4798      	blx	r3
     5e2:	1b80      	subs	r0, r0, r6
     5e4:	23fa      	movs	r3, #250	; 0xfa
     5e6:	005b      	lsls	r3, r3, #1
     5e8:	4298      	cmp	r0, r3
     5ea:	d803      	bhi.n	5f4 <SdCard_Initiate+0x44>
     5ec:	2c00      	cmp	r4, #0
     5ee:	d1f1      	bne.n	5d4 <SdCard_Initiate+0x24>
     5f0:	0020      	movs	r0, r4
     5f2:	bdf8      	pop	{r3, r4, r5, r6, r7, pc}
     5f4:	2401      	movs	r4, #1
     5f6:	e7fb      	b.n	5f0 <SdCard_Initiate+0x40>
     5f8:	00000181 	.word	0x00000181
     5fc:	000011f9 	.word	0x000011f9
     600:	00000ae5 	.word	0x00000ae5

00000604 <advance_pointer>:
     604:	b510      	push	{r4, lr}
     606:	0004      	movs	r4, r0
     608:	7c03      	ldrb	r3, [r0, #16]
     60a:	2b00      	cmp	r3, #0
     60c:	d005      	beq.n	61a <advance_pointer+0x16>
     60e:	6883      	ldr	r3, [r0, #8]
     610:	1c58      	adds	r0, r3, #1
     612:	68e1      	ldr	r1, [r4, #12]
     614:	4b07      	ldr	r3, [pc, #28]	; (634 <advance_pointer+0x30>)
     616:	4798      	blx	r3
     618:	60a1      	str	r1, [r4, #8]
     61a:	6863      	ldr	r3, [r4, #4]
     61c:	1c58      	adds	r0, r3, #1
     61e:	68e1      	ldr	r1, [r4, #12]
     620:	4b04      	ldr	r3, [pc, #16]	; (634 <advance_pointer+0x30>)
     622:	4798      	blx	r3
     624:	6061      	str	r1, [r4, #4]
     626:	68a3      	ldr	r3, [r4, #8]
     628:	1a59      	subs	r1, r3, r1
     62a:	424a      	negs	r2, r1
     62c:	414a      	adcs	r2, r1
     62e:	7422      	strb	r2, [r4, #16]
     630:	bd10      	pop	{r4, pc}
     632:	46c0      	nop			; (mov r8, r8)
     634:	00005bd5 	.word	0x00005bd5

00000638 <circular_buf_init>:
     638:	b570      	push	{r4, r5, r6, lr}
     63a:	0005      	movs	r5, r0
     63c:	000c      	movs	r4, r1
     63e:	2014      	movs	r0, #20
     640:	4b04      	ldr	r3, [pc, #16]	; (654 <circular_buf_init+0x1c>)
     642:	4798      	blx	r3
     644:	6005      	str	r5, [r0, #0]
     646:	60c4      	str	r4, [r0, #12]
     648:	2300      	movs	r3, #0
     64a:	6043      	str	r3, [r0, #4]
     64c:	6083      	str	r3, [r0, #8]
     64e:	7403      	strb	r3, [r0, #16]
     650:	bd70      	pop	{r4, r5, r6, pc}
     652:	46c0      	nop			; (mov r8, r8)
     654:	00005e51 	.word	0x00005e51

00000658 <circular_buf_put>:
     658:	b510      	push	{r4, lr}
     65a:	6803      	ldr	r3, [r0, #0]
     65c:	6842      	ldr	r2, [r0, #4]
     65e:	5499      	strb	r1, [r3, r2]
     660:	4b01      	ldr	r3, [pc, #4]	; (668 <circular_buf_put+0x10>)
     662:	4798      	blx	r3
     664:	bd10      	pop	{r4, pc}
     666:	46c0      	nop			; (mov r8, r8)
     668:	00000605 	.word	0x00000605

0000066c <circular_buf_empty>:
     66c:	7c02      	ldrb	r2, [r0, #16]
     66e:	2300      	movs	r3, #0
     670:	2a00      	cmp	r2, #0
     672:	d105      	bne.n	680 <circular_buf_empty+0x14>
     674:	6843      	ldr	r3, [r0, #4]
     676:	6880      	ldr	r0, [r0, #8]
     678:	1a1b      	subs	r3, r3, r0
     67a:	4258      	negs	r0, r3
     67c:	4143      	adcs	r3, r0
     67e:	b2db      	uxtb	r3, r3
     680:	0018      	movs	r0, r3
     682:	4770      	bx	lr

00000684 <circular_buf_get>:
     684:	b570      	push	{r4, r5, r6, lr}
     686:	0004      	movs	r4, r0
     688:	000d      	movs	r5, r1
     68a:	4b0a      	ldr	r3, [pc, #40]	; (6b4 <circular_buf_get+0x30>)
     68c:	4798      	blx	r3
     68e:	2800      	cmp	r0, #0
     690:	d10d      	bne.n	6ae <circular_buf_get+0x2a>
     692:	6823      	ldr	r3, [r4, #0]
     694:	68a2      	ldr	r2, [r4, #8]
     696:	5c9b      	ldrb	r3, [r3, r2]
     698:	702b      	strb	r3, [r5, #0]
     69a:	2300      	movs	r3, #0
     69c:	7423      	strb	r3, [r4, #16]
     69e:	68a3      	ldr	r3, [r4, #8]
     6a0:	1c58      	adds	r0, r3, #1
     6a2:	68e1      	ldr	r1, [r4, #12]
     6a4:	4b04      	ldr	r3, [pc, #16]	; (6b8 <circular_buf_get+0x34>)
     6a6:	4798      	blx	r3
     6a8:	60a1      	str	r1, [r4, #8]
     6aa:	2000      	movs	r0, #0
     6ac:	bd70      	pop	{r4, r5, r6, pc}
     6ae:	2001      	movs	r0, #1
     6b0:	4240      	negs	r0, r0
     6b2:	e7fb      	b.n	6ac <circular_buf_get+0x28>
     6b4:	0000066d 	.word	0x0000066d
     6b8:	00005bd5 	.word	0x00005bd5

000006bc <usart_serial_getchar>:
     6bc:	b570      	push	{r4, r5, r6, lr}
     6be:	b082      	sub	sp, #8
     6c0:	0005      	movs	r5, r0
     6c2:	000e      	movs	r6, r1
     6c4:	2200      	movs	r2, #0
     6c6:	466b      	mov	r3, sp
     6c8:	80da      	strh	r2, [r3, #6]
     6ca:	4c06      	ldr	r4, [pc, #24]	; (6e4 <usart_serial_getchar+0x28>)
     6cc:	466b      	mov	r3, sp
     6ce:	1d99      	adds	r1, r3, #6
     6d0:	0028      	movs	r0, r5
     6d2:	47a0      	blx	r4
     6d4:	2800      	cmp	r0, #0
     6d6:	d1f9      	bne.n	6cc <usart_serial_getchar+0x10>
     6d8:	466b      	mov	r3, sp
     6da:	3306      	adds	r3, #6
     6dc:	881b      	ldrh	r3, [r3, #0]
     6de:	7033      	strb	r3, [r6, #0]
     6e0:	b002      	add	sp, #8
     6e2:	bd70      	pop	{r4, r5, r6, pc}
     6e4:	00002c65 	.word	0x00002c65

000006e8 <usart_serial_putchar>:
     6e8:	b570      	push	{r4, r5, r6, lr}
     6ea:	0005      	movs	r5, r0
     6ec:	b28c      	uxth	r4, r1
     6ee:	4e03      	ldr	r6, [pc, #12]	; (6fc <usart_serial_putchar+0x14>)
     6f0:	0021      	movs	r1, r4
     6f2:	0028      	movs	r0, r5
     6f4:	47b0      	blx	r6
     6f6:	2800      	cmp	r0, #0
     6f8:	d1fa      	bne.n	6f0 <usart_serial_putchar+0x8>
     6fa:	bd70      	pop	{r4, r5, r6, pc}
     6fc:	00002c39 	.word	0x00002c39

00000700 <usart_write_callback>:
     700:	b510      	push	{r4, lr}
     702:	4b06      	ldr	r3, [pc, #24]	; (71c <usart_write_callback+0x1c>)
     704:	6818      	ldr	r0, [r3, #0]
     706:	4906      	ldr	r1, [pc, #24]	; (720 <usart_write_callback+0x20>)
     708:	4b06      	ldr	r3, [pc, #24]	; (724 <usart_write_callback+0x24>)
     70a:	4798      	blx	r3
     70c:	1c43      	adds	r3, r0, #1
     70e:	d004      	beq.n	71a <usart_write_callback+0x1a>
     710:	2201      	movs	r2, #1
     712:	4903      	ldr	r1, [pc, #12]	; (720 <usart_write_callback+0x20>)
     714:	4804      	ldr	r0, [pc, #16]	; (728 <usart_write_callback+0x28>)
     716:	4b05      	ldr	r3, [pc, #20]	; (72c <usart_write_callback+0x2c>)
     718:	4798      	blx	r3
     71a:	bd10      	pop	{r4, pc}
     71c:	20000a10 	.word	0x20000a10
     720:	20000a0c 	.word	0x20000a0c
     724:	00000685 	.word	0x00000685
     728:	200001d0 	.word	0x200001d0
     72c:	00002d79 	.word	0x00002d79

00000730 <InitializeSerialConsole>:
     730:	b570      	push	{r4, r5, r6, lr}
     732:	b090      	sub	sp, #64	; 0x40
     734:	2580      	movs	r5, #128	; 0x80
     736:	00ed      	lsls	r5, r5, #3
     738:	0029      	movs	r1, r5
     73a:	483f      	ldr	r0, [pc, #252]	; (838 <InitializeSerialConsole+0x108>)
     73c:	4c3f      	ldr	r4, [pc, #252]	; (83c <InitializeSerialConsole+0x10c>)
     73e:	47a0      	blx	r4
     740:	4b3f      	ldr	r3, [pc, #252]	; (840 <InitializeSerialConsole+0x110>)
     742:	6018      	str	r0, [r3, #0]
     744:	0029      	movs	r1, r5
     746:	483f      	ldr	r0, [pc, #252]	; (844 <InitializeSerialConsole+0x114>)
     748:	47a0      	blx	r4
     74a:	4b3f      	ldr	r3, [pc, #252]	; (848 <InitializeSerialConsole+0x118>)
     74c:	6018      	str	r0, [r3, #0]
     74e:	2380      	movs	r3, #128	; 0x80
     750:	05db      	lsls	r3, r3, #23
     752:	9300      	str	r3, [sp, #0]
     754:	2300      	movs	r3, #0
     756:	9301      	str	r3, [sp, #4]
     758:	22ff      	movs	r2, #255	; 0xff
     75a:	4669      	mov	r1, sp
     75c:	810a      	strh	r2, [r1, #8]
     75e:	2200      	movs	r2, #0
     760:	728b      	strb	r3, [r1, #10]
     762:	72cb      	strb	r3, [r1, #11]
     764:	2101      	movs	r1, #1
     766:	2024      	movs	r0, #36	; 0x24
     768:	466c      	mov	r4, sp
     76a:	5421      	strb	r1, [r4, r0]
     76c:	3001      	adds	r0, #1
     76e:	5421      	strb	r1, [r4, r0]
     770:	3125      	adds	r1, #37	; 0x25
     772:	5463      	strb	r3, [r4, r1]
     774:	3101      	adds	r1, #1
     776:	5463      	strb	r3, [r4, r1]
     778:	930a      	str	r3, [sp, #40]	; 0x28
     77a:	3105      	adds	r1, #5
     77c:	5463      	strb	r3, [r4, r1]
     77e:	3101      	adds	r1, #1
     780:	5463      	strb	r3, [r4, r1]
     782:	9305      	str	r3, [sp, #20]
     784:	8223      	strh	r3, [r4, #16]
     786:	76e3      	strb	r3, [r4, #27]
     788:	7622      	strb	r2, [r4, #24]
     78a:	7722      	strb	r2, [r4, #28]
     78c:	7662      	strb	r2, [r4, #25]
     78e:	2313      	movs	r3, #19
     790:	76a3      	strb	r3, [r4, #26]
     792:	7762      	strb	r2, [r4, #29]
     794:	23e1      	movs	r3, #225	; 0xe1
     796:	025b      	lsls	r3, r3, #9
     798:	9308      	str	r3, [sp, #32]
     79a:	23c4      	movs	r3, #196	; 0xc4
     79c:	039b      	lsls	r3, r3, #14
     79e:	9303      	str	r3, [sp, #12]
     7a0:	2301      	movs	r3, #1
     7a2:	425b      	negs	r3, r3
     7a4:	930c      	str	r3, [sp, #48]	; 0x30
     7a6:	930d      	str	r3, [sp, #52]	; 0x34
     7a8:	4b28      	ldr	r3, [pc, #160]	; (84c <InitializeSerialConsole+0x11c>)
     7aa:	930e      	str	r3, [sp, #56]	; 0x38
     7ac:	4b28      	ldr	r3, [pc, #160]	; (850 <InitializeSerialConsole+0x120>)
     7ae:	930f      	str	r3, [sp, #60]	; 0x3c
     7b0:	4d28      	ldr	r5, [pc, #160]	; (854 <InitializeSerialConsole+0x124>)
     7b2:	4c29      	ldr	r4, [pc, #164]	; (858 <InitializeSerialConsole+0x128>)
     7b4:	466a      	mov	r2, sp
     7b6:	4929      	ldr	r1, [pc, #164]	; (85c <InitializeSerialConsole+0x12c>)
     7b8:	0028      	movs	r0, r5
     7ba:	47a0      	blx	r4
     7bc:	2800      	cmp	r0, #0
     7be:	d1f9      	bne.n	7b4 <InitializeSerialConsole+0x84>
     7c0:	4d24      	ldr	r5, [pc, #144]	; (854 <InitializeSerialConsole+0x124>)
     7c2:	4b27      	ldr	r3, [pc, #156]	; (860 <InitializeSerialConsole+0x130>)
     7c4:	601d      	str	r5, [r3, #0]
     7c6:	4a27      	ldr	r2, [pc, #156]	; (864 <InitializeSerialConsole+0x134>)
     7c8:	4b27      	ldr	r3, [pc, #156]	; (868 <InitializeSerialConsole+0x138>)
     7ca:	601a      	str	r2, [r3, #0]
     7cc:	4a27      	ldr	r2, [pc, #156]	; (86c <InitializeSerialConsole+0x13c>)
     7ce:	4b28      	ldr	r3, [pc, #160]	; (870 <InitializeSerialConsole+0x140>)
     7d0:	601a      	str	r2, [r3, #0]
     7d2:	4e28      	ldr	r6, [pc, #160]	; (874 <InitializeSerialConsole+0x144>)
     7d4:	6833      	ldr	r3, [r6, #0]
     7d6:	6898      	ldr	r0, [r3, #8]
     7d8:	2100      	movs	r1, #0
     7da:	4c27      	ldr	r4, [pc, #156]	; (878 <InitializeSerialConsole+0x148>)
     7dc:	47a0      	blx	r4
     7de:	6833      	ldr	r3, [r6, #0]
     7e0:	6858      	ldr	r0, [r3, #4]
     7e2:	2100      	movs	r1, #0
     7e4:	47a0      	blx	r4
     7e6:	682c      	ldr	r4, [r5, #0]
     7e8:	0020      	movs	r0, r4
     7ea:	4b24      	ldr	r3, [pc, #144]	; (87c <InitializeSerialConsole+0x14c>)
     7ec:	4798      	blx	r3
     7ee:	231f      	movs	r3, #31
     7f0:	4018      	ands	r0, r3
     7f2:	3b1e      	subs	r3, #30
     7f4:	4083      	lsls	r3, r0
     7f6:	4a22      	ldr	r2, [pc, #136]	; (880 <InitializeSerialConsole+0x150>)
     7f8:	6013      	str	r3, [r2, #0]
     7fa:	682a      	ldr	r2, [r5, #0]
     7fc:	69d3      	ldr	r3, [r2, #28]
     7fe:	2b00      	cmp	r3, #0
     800:	d1fc      	bne.n	7fc <InitializeSerialConsole+0xcc>
     802:	6823      	ldr	r3, [r4, #0]
     804:	2202      	movs	r2, #2
     806:	4313      	orrs	r3, r2
     808:	6023      	str	r3, [r4, #0]
     80a:	4c12      	ldr	r4, [pc, #72]	; (854 <InitializeSerialConsole+0x124>)
     80c:	2200      	movs	r2, #0
     80e:	491d      	ldr	r1, [pc, #116]	; (884 <InitializeSerialConsole+0x154>)
     810:	0020      	movs	r0, r4
     812:	4d1d      	ldr	r5, [pc, #116]	; (888 <InitializeSerialConsole+0x158>)
     814:	47a8      	blx	r5
     816:	2201      	movs	r2, #1
     818:	491c      	ldr	r1, [pc, #112]	; (88c <InitializeSerialConsole+0x15c>)
     81a:	0020      	movs	r0, r4
     81c:	47a8      	blx	r5
     81e:	2231      	movs	r2, #49	; 0x31
     820:	5ca3      	ldrb	r3, [r4, r2]
     822:	2103      	movs	r1, #3
     824:	430b      	orrs	r3, r1
     826:	54a3      	strb	r3, [r4, r2]
     828:	3a30      	subs	r2, #48	; 0x30
     82a:	4919      	ldr	r1, [pc, #100]	; (890 <InitializeSerialConsole+0x160>)
     82c:	0020      	movs	r0, r4
     82e:	4b19      	ldr	r3, [pc, #100]	; (894 <InitializeSerialConsole+0x164>)
     830:	4798      	blx	r3
     832:	b010      	add	sp, #64	; 0x40
     834:	bd70      	pop	{r4, r5, r6, pc}
     836:	46c0      	nop			; (mov r8, r8)
     838:	2000060c 	.word	0x2000060c
     83c:	00000639 	.word	0x00000639
     840:	20000204 	.word	0x20000204
     844:	2000020c 	.word	0x2000020c
     848:	20000a10 	.word	0x20000a10
     84c:	002a0003 	.word	0x002a0003
     850:	002b0003 	.word	0x002b0003
     854:	200001d0 	.word	0x200001d0
     858:	000028f5 	.word	0x000028f5
     85c:	42001800 	.word	0x42001800
     860:	20000a3c 	.word	0x20000a3c
     864:	000006e9 	.word	0x000006e9
     868:	20000a38 	.word	0x20000a38
     86c:	000006bd 	.word	0x000006bd
     870:	20000a34 	.word	0x20000a34
     874:	20000054 	.word	0x20000054
     878:	00005fe9 	.word	0x00005fe9
     87c:	00002125 	.word	0x00002125
     880:	e000e100 	.word	0xe000e100
     884:	00000701 	.word	0x00000701
     888:	00002d61 	.word	0x00002d61
     88c:	00000945 	.word	0x00000945
     890:	20000208 	.word	0x20000208
     894:	00002d99 	.word	0x00002d99

00000898 <DeinitializeSerialConsole>:
     898:	b570      	push	{r4, r5, r6, lr}
     89a:	4d0a      	ldr	r5, [pc, #40]	; (8c4 <DeinitializeSerialConsole+0x2c>)
     89c:	682c      	ldr	r4, [r5, #0]
     89e:	0020      	movs	r0, r4
     8a0:	4b09      	ldr	r3, [pc, #36]	; (8c8 <DeinitializeSerialConsole+0x30>)
     8a2:	4798      	blx	r3
     8a4:	231f      	movs	r3, #31
     8a6:	4018      	ands	r0, r3
     8a8:	3b1e      	subs	r3, #30
     8aa:	4083      	lsls	r3, r0
     8ac:	2280      	movs	r2, #128	; 0x80
     8ae:	4907      	ldr	r1, [pc, #28]	; (8cc <DeinitializeSerialConsole+0x34>)
     8b0:	508b      	str	r3, [r1, r2]
     8b2:	682a      	ldr	r2, [r5, #0]
     8b4:	69d3      	ldr	r3, [r2, #28]
     8b6:	2b00      	cmp	r3, #0
     8b8:	d1fc      	bne.n	8b4 <DeinitializeSerialConsole+0x1c>
     8ba:	6823      	ldr	r3, [r4, #0]
     8bc:	2202      	movs	r2, #2
     8be:	4393      	bics	r3, r2
     8c0:	6023      	str	r3, [r4, #0]
     8c2:	bd70      	pop	{r4, r5, r6, pc}
     8c4:	200001d0 	.word	0x200001d0
     8c8:	00002125 	.word	0x00002125
     8cc:	e000e100 	.word	0xe000e100

000008d0 <SerialConsoleWriteString>:
     8d0:	b5f0      	push	{r4, r5, r6, r7, lr}
     8d2:	46c6      	mov	lr, r8
     8d4:	b500      	push	{lr}
     8d6:	0005      	movs	r5, r0
     8d8:	2400      	movs	r4, #0
     8da:	2800      	cmp	r0, #0
     8dc:	d012      	beq.n	904 <SerialConsoleWriteString+0x34>
     8de:	4e11      	ldr	r6, [pc, #68]	; (924 <SerialConsoleWriteString+0x54>)
     8e0:	4f11      	ldr	r7, [pc, #68]	; (928 <SerialConsoleWriteString+0x58>)
     8e2:	4b12      	ldr	r3, [pc, #72]	; (92c <SerialConsoleWriteString+0x5c>)
     8e4:	4698      	mov	r8, r3
     8e6:	e003      	b.n	8f0 <SerialConsoleWriteString+0x20>
     8e8:	5d29      	ldrb	r1, [r5, r4]
     8ea:	6838      	ldr	r0, [r7, #0]
     8ec:	47c0      	blx	r8
     8ee:	3401      	adds	r4, #1
     8f0:	0028      	movs	r0, r5
     8f2:	47b0      	blx	r6
     8f4:	4284      	cmp	r4, r0
     8f6:	d3f7      	bcc.n	8e8 <SerialConsoleWriteString+0x18>
     8f8:	2101      	movs	r1, #1
     8fa:	480d      	ldr	r0, [pc, #52]	; (930 <SerialConsoleWriteString+0x60>)
     8fc:	4b0d      	ldr	r3, [pc, #52]	; (934 <SerialConsoleWriteString+0x64>)
     8fe:	4798      	blx	r3
     900:	2800      	cmp	r0, #0
     902:	d002      	beq.n	90a <SerialConsoleWriteString+0x3a>
     904:	bc04      	pop	{r2}
     906:	4690      	mov	r8, r2
     908:	bdf0      	pop	{r4, r5, r6, r7, pc}
     90a:	4c0b      	ldr	r4, [pc, #44]	; (938 <SerialConsoleWriteString+0x68>)
     90c:	4b06      	ldr	r3, [pc, #24]	; (928 <SerialConsoleWriteString+0x58>)
     90e:	6818      	ldr	r0, [r3, #0]
     910:	0021      	movs	r1, r4
     912:	4b0a      	ldr	r3, [pc, #40]	; (93c <SerialConsoleWriteString+0x6c>)
     914:	4798      	blx	r3
     916:	2201      	movs	r2, #1
     918:	0021      	movs	r1, r4
     91a:	4805      	ldr	r0, [pc, #20]	; (930 <SerialConsoleWriteString+0x60>)
     91c:	4b08      	ldr	r3, [pc, #32]	; (940 <SerialConsoleWriteString+0x70>)
     91e:	4798      	blx	r3
     920:	e7f0      	b.n	904 <SerialConsoleWriteString+0x34>
     922:	46c0      	nop			; (mov r8, r8)
     924:	000061b9 	.word	0x000061b9
     928:	20000a10 	.word	0x20000a10
     92c:	00000659 	.word	0x00000659
     930:	200001d0 	.word	0x200001d0
     934:	00002db9 	.word	0x00002db9
     938:	20000a0c 	.word	0x20000a0c
     93c:	00000685 	.word	0x00000685
     940:	00002d79 	.word	0x00002d79

00000944 <usart_read_callback>:
     944:	b510      	push	{r4, lr}
     946:	b082      	sub	sp, #8
     948:	4c0d      	ldr	r4, [pc, #52]	; (980 <usart_read_callback+0x3c>)
     94a:	0020      	movs	r0, r4
     94c:	4b0d      	ldr	r3, [pc, #52]	; (984 <usart_read_callback+0x40>)
     94e:	4798      	blx	r3
     950:	7823      	ldrb	r3, [r4, #0]
     952:	2b08      	cmp	r3, #8
     954:	d00c      	beq.n	970 <usart_read_callback+0x2c>
     956:	4c0a      	ldr	r4, [pc, #40]	; (980 <usart_read_callback+0x3c>)
     958:	7821      	ldrb	r1, [r4, #0]
     95a:	4b0b      	ldr	r3, [pc, #44]	; (988 <usart_read_callback+0x44>)
     95c:	6818      	ldr	r0, [r3, #0]
     95e:	4b0b      	ldr	r3, [pc, #44]	; (98c <usart_read_callback+0x48>)
     960:	4798      	blx	r3
     962:	2201      	movs	r2, #1
     964:	0021      	movs	r1, r4
     966:	480a      	ldr	r0, [pc, #40]	; (990 <usart_read_callback+0x4c>)
     968:	4b0a      	ldr	r3, [pc, #40]	; (994 <usart_read_callback+0x50>)
     96a:	4798      	blx	r3
     96c:	b002      	add	sp, #8
     96e:	bd10      	pop	{r4, pc}
     970:	a801      	add	r0, sp, #4
     972:	3318      	adds	r3, #24
     974:	7003      	strb	r3, [r0, #0]
     976:	3b18      	subs	r3, #24
     978:	7043      	strb	r3, [r0, #1]
     97a:	4b02      	ldr	r3, [pc, #8]	; (984 <usart_read_callback+0x40>)
     97c:	4798      	blx	r3
     97e:	e7ea      	b.n	956 <usart_read_callback+0x12>
     980:	20000208 	.word	0x20000208
     984:	000008d1 	.word	0x000008d1
     988:	20000204 	.word	0x20000204
     98c:	00000659 	.word	0x00000659
     990:	200001d0 	.word	0x200001d0
     994:	00002d99 	.word	0x00002d99

00000998 <LogMessage>:
     998:	b40e      	push	{r1, r2, r3}
     99a:	b003      	add	sp, #12
     99c:	4770      	bx	lr
	...

000009a0 <sd_mmc_configure_slot>:
     9a0:	b510      	push	{r4, lr}
     9a2:	4b06      	ldr	r3, [pc, #24]	; (9bc <sd_mmc_configure_slot+0x1c>)
     9a4:	6819      	ldr	r1, [r3, #0]
     9a6:	7f8b      	ldrb	r3, [r1, #30]
     9a8:	1e5a      	subs	r2, r3, #1
     9aa:	4193      	sbcs	r3, r2
     9ac:	b2db      	uxtb	r3, r3
     9ae:	7b4a      	ldrb	r2, [r1, #13]
     9b0:	6809      	ldr	r1, [r1, #0]
     9b2:	4803      	ldr	r0, [pc, #12]	; (9c0 <sd_mmc_configure_slot+0x20>)
     9b4:	7800      	ldrb	r0, [r0, #0]
     9b6:	4c03      	ldr	r4, [pc, #12]	; (9c4 <sd_mmc_configure_slot+0x24>)
     9b8:	47a0      	blx	r4
     9ba:	bd10      	pop	{r4, pc}
     9bc:	200000e0 	.word	0x200000e0
     9c0:	20000108 	.word	0x20000108
     9c4:	0000165d 	.word	0x0000165d

000009c8 <sd_mmc_select_slot>:
     9c8:	b510      	push	{r4, lr}
     9ca:	2304      	movs	r3, #4
     9cc:	2800      	cmp	r0, #0
     9ce:	d001      	beq.n	9d4 <sd_mmc_select_slot+0xc>
     9d0:	0018      	movs	r0, r3
     9d2:	bd10      	pop	{r4, pc}
     9d4:	4b0e      	ldr	r3, [pc, #56]	; (a10 <sd_mmc_select_slot+0x48>)
     9d6:	7a9b      	ldrb	r3, [r3, #10]
     9d8:	3b03      	subs	r3, #3
     9da:	2b01      	cmp	r3, #1
     9dc:	d90d      	bls.n	9fa <sd_mmc_select_slot+0x32>
     9de:	2200      	movs	r2, #0
     9e0:	4b0c      	ldr	r3, [pc, #48]	; (a14 <sd_mmc_select_slot+0x4c>)
     9e2:	701a      	strb	r2, [r3, #0]
     9e4:	4c0a      	ldr	r4, [pc, #40]	; (a10 <sd_mmc_select_slot+0x48>)
     9e6:	4b0c      	ldr	r3, [pc, #48]	; (a18 <sd_mmc_select_slot+0x50>)
     9e8:	601c      	str	r4, [r3, #0]
     9ea:	4b0c      	ldr	r3, [pc, #48]	; (a1c <sd_mmc_select_slot+0x54>)
     9ec:	4798      	blx	r3
     9ee:	7aa3      	ldrb	r3, [r4, #10]
     9f0:	3b02      	subs	r3, #2
     9f2:	4258      	negs	r0, r3
     9f4:	4143      	adcs	r3, r0
     9f6:	b2db      	uxtb	r3, r3
     9f8:	e7ea      	b.n	9d0 <sd_mmc_select_slot+0x8>
     9fa:	4b05      	ldr	r3, [pc, #20]	; (a10 <sd_mmc_select_slot+0x48>)
     9fc:	2202      	movs	r2, #2
     9fe:	729a      	strb	r2, [r3, #10]
     a00:	4a07      	ldr	r2, [pc, #28]	; (a20 <sd_mmc_select_slot+0x58>)
     a02:	601a      	str	r2, [r3, #0]
     a04:	2201      	movs	r2, #1
     a06:	735a      	strb	r2, [r3, #13]
     a08:	2200      	movs	r2, #0
     a0a:	779a      	strb	r2, [r3, #30]
     a0c:	e7e7      	b.n	9de <sd_mmc_select_slot+0x16>
     a0e:	46c0      	nop			; (mov r8, r8)
     a10:	200000e4 	.word	0x200000e4
     a14:	20000108 	.word	0x20000108
     a18:	200000e0 	.word	0x200000e0
     a1c:	000009a1 	.word	0x000009a1
     a20:	00061a80 	.word	0x00061a80

00000a24 <sd_mmc_cmd13>:
     a24:	b5f8      	push	{r3, r4, r5, r6, r7, lr}
     a26:	4d09      	ldr	r5, [pc, #36]	; (a4c <sd_mmc_cmd13+0x28>)
     a28:	4f09      	ldr	r7, [pc, #36]	; (a50 <sd_mmc_cmd13+0x2c>)
     a2a:	4e0a      	ldr	r6, [pc, #40]	; (a54 <sd_mmc_cmd13+0x30>)
     a2c:	2100      	movs	r1, #0
     a2e:	480a      	ldr	r0, [pc, #40]	; (a58 <sd_mmc_cmd13+0x34>)
     a30:	47b8      	blx	r7
     a32:	1e04      	subs	r4, r0, #0
     a34:	d007      	beq.n	a46 <sd_mmc_cmd13+0x22>
     a36:	47b0      	blx	r6
     a38:	23ff      	movs	r3, #255	; 0xff
     a3a:	4203      	tst	r3, r0
     a3c:	d003      	beq.n	a46 <sd_mmc_cmd13+0x22>
     a3e:	3d01      	subs	r5, #1
     a40:	2d00      	cmp	r5, #0
     a42:	d1f3      	bne.n	a2c <sd_mmc_cmd13+0x8>
     a44:	2400      	movs	r4, #0
     a46:	0020      	movs	r0, r4
     a48:	bdf8      	pop	{r3, r4, r5, r6, r7, pc}
     a4a:	46c0      	nop			; (mov r8, r8)
     a4c:	00030d41 	.word	0x00030d41
     a50:	000018a1 	.word	0x000018a1
     a54:	000018b9 	.word	0x000018b9
     a58:	00001b0d 	.word	0x00001b0d

00000a5c <sd_mmc_cmd9_spi>:
     a5c:	b510      	push	{r4, lr}
     a5e:	b082      	sub	sp, #8
     a60:	4b0c      	ldr	r3, [pc, #48]	; (a94 <sd_mmc_cmd9_spi+0x38>)
     a62:	681b      	ldr	r3, [r3, #0]
     a64:	8919      	ldrh	r1, [r3, #8]
     a66:	0409      	lsls	r1, r1, #16
     a68:	2301      	movs	r3, #1
     a6a:	9300      	str	r3, [sp, #0]
     a6c:	2210      	movs	r2, #16
     a6e:	480a      	ldr	r0, [pc, #40]	; (a98 <sd_mmc_cmd9_spi+0x3c>)
     a70:	4c0a      	ldr	r4, [pc, #40]	; (a9c <sd_mmc_cmd9_spi+0x40>)
     a72:	47a0      	blx	r4
     a74:	2800      	cmp	r0, #0
     a76:	d101      	bne.n	a7c <sd_mmc_cmd9_spi+0x20>
     a78:	b002      	add	sp, #8
     a7a:	bd10      	pop	{r4, pc}
     a7c:	4b05      	ldr	r3, [pc, #20]	; (a94 <sd_mmc_cmd9_spi+0x38>)
     a7e:	6818      	ldr	r0, [r3, #0]
     a80:	300e      	adds	r0, #14
     a82:	2101      	movs	r1, #1
     a84:	4b06      	ldr	r3, [pc, #24]	; (aa0 <sd_mmc_cmd9_spi+0x44>)
     a86:	4798      	blx	r3
     a88:	2800      	cmp	r0, #0
     a8a:	d0f5      	beq.n	a78 <sd_mmc_cmd9_spi+0x1c>
     a8c:	4b05      	ldr	r3, [pc, #20]	; (aa4 <sd_mmc_cmd9_spi+0x48>)
     a8e:	4798      	blx	r3
     a90:	e7f2      	b.n	a78 <sd_mmc_cmd9_spi+0x1c>
     a92:	46c0      	nop			; (mov r8, r8)
     a94:	200000e0 	.word	0x200000e0
     a98:	00081109 	.word	0x00081109
     a9c:	00001711 	.word	0x00001711
     aa0:	0000193d 	.word	0x0000193d
     aa4:	000019c9 	.word	0x000019c9

00000aa8 <sd_mmc_deselect_slot>:
     aa8:	b510      	push	{r4, lr}
     aaa:	4b04      	ldr	r3, [pc, #16]	; (abc <sd_mmc_deselect_slot+0x14>)
     aac:	781b      	ldrb	r3, [r3, #0]
     aae:	2b00      	cmp	r3, #0
     ab0:	d000      	beq.n	ab4 <sd_mmc_deselect_slot+0xc>
     ab2:	bd10      	pop	{r4, pc}
     ab4:	2000      	movs	r0, #0
     ab6:	4b02      	ldr	r3, [pc, #8]	; (ac0 <sd_mmc_deselect_slot+0x18>)
     ab8:	4798      	blx	r3
     aba:	e7fa      	b.n	ab2 <sd_mmc_deselect_slot+0xa>
     abc:	20000108 	.word	0x20000108
     ac0:	000016b1 	.word	0x000016b1

00000ac4 <sd_mmc_init>:
     ac4:	b510      	push	{r4, lr}
     ac6:	2204      	movs	r2, #4
     ac8:	4b03      	ldr	r3, [pc, #12]	; (ad8 <sd_mmc_init+0x14>)
     aca:	729a      	strb	r2, [r3, #10]
     acc:	32fb      	adds	r2, #251	; 0xfb
     ace:	4b03      	ldr	r3, [pc, #12]	; (adc <sd_mmc_init+0x18>)
     ad0:	701a      	strb	r2, [r3, #0]
     ad2:	4b03      	ldr	r3, [pc, #12]	; (ae0 <sd_mmc_init+0x1c>)
     ad4:	4798      	blx	r3
     ad6:	bd10      	pop	{r4, pc}
     ad8:	200000e4 	.word	0x200000e4
     adc:	20000108 	.word	0x20000108
     ae0:	0000155d 	.word	0x0000155d

00000ae4 <sd_mmc_check>:
     ae4:	b5f0      	push	{r4, r5, r6, r7, lr}
     ae6:	46c6      	mov	lr, r8
     ae8:	b500      	push	{lr}
     aea:	b088      	sub	sp, #32
     aec:	4bcb      	ldr	r3, [pc, #812]	; (e1c <sd_mmc_check+0x338>)
     aee:	4798      	blx	r3
     af0:	0004      	movs	r4, r0
     af2:	2801      	cmp	r0, #1
     af4:	d006      	beq.n	b04 <sd_mmc_check+0x20>
     af6:	4bca      	ldr	r3, [pc, #808]	; (e20 <sd_mmc_check+0x33c>)
     af8:	4798      	blx	r3
     afa:	0020      	movs	r0, r4
     afc:	b008      	add	sp, #32
     afe:	bc04      	pop	{r2}
     b00:	4690      	mov	r8, r2
     b02:	bdf0      	pop	{r4, r5, r6, r7, pc}
     b04:	4bc7      	ldr	r3, [pc, #796]	; (e24 <sd_mmc_check+0x340>)
     b06:	681b      	ldr	r3, [r3, #0]
     b08:	2201      	movs	r2, #1
     b0a:	72da      	strb	r2, [r3, #11]
     b0c:	2200      	movs	r2, #0
     b0e:	731a      	strb	r2, [r3, #12]
     b10:	811a      	strh	r2, [r3, #8]
     b12:	4bc5      	ldr	r3, [pc, #788]	; (e28 <sd_mmc_check+0x344>)
     b14:	4798      	blx	r3
     b16:	2100      	movs	r1, #0
     b18:	2088      	movs	r0, #136	; 0x88
     b1a:	0140      	lsls	r0, r0, #5
     b1c:	4bc3      	ldr	r3, [pc, #780]	; (e2c <sd_mmc_check+0x348>)
     b1e:	4798      	blx	r3
     b20:	2800      	cmp	r0, #0
     b22:	d107      	bne.n	b34 <sd_mmc_check+0x50>
     b24:	4bbf      	ldr	r3, [pc, #764]	; (e24 <sd_mmc_check+0x340>)
     b26:	681b      	ldr	r3, [r3, #0]
     b28:	2203      	movs	r2, #3
     b2a:	729a      	strb	r2, [r3, #10]
     b2c:	4bbc      	ldr	r3, [pc, #752]	; (e20 <sd_mmc_check+0x33c>)
     b2e:	4798      	blx	r3
     b30:	2403      	movs	r4, #3
     b32:	e7e2      	b.n	afa <sd_mmc_check+0x16>
     b34:	21d5      	movs	r1, #213	; 0xd5
     b36:	0049      	lsls	r1, r1, #1
     b38:	48bd      	ldr	r0, [pc, #756]	; (e30 <sd_mmc_check+0x34c>)
     b3a:	4bbc      	ldr	r3, [pc, #752]	; (e2c <sd_mmc_check+0x348>)
     b3c:	4798      	blx	r3
     b3e:	2600      	movs	r6, #0
     b40:	2800      	cmp	r0, #0
     b42:	d125      	bne.n	b90 <sd_mmc_check+0xac>
     b44:	4bb7      	ldr	r3, [pc, #732]	; (e24 <sd_mmc_check+0x340>)
     b46:	681b      	ldr	r3, [r3, #0]
     b48:	7adb      	ldrb	r3, [r3, #11]
     b4a:	07db      	lsls	r3, r3, #31
     b4c:	d500      	bpl.n	b50 <sd_mmc_check+0x6c>
     b4e:	e1eb      	b.n	f28 <sd_mmc_check+0x444>
     b50:	4bb4      	ldr	r3, [pc, #720]	; (e24 <sd_mmc_check+0x340>)
     b52:	681b      	ldr	r3, [r3, #0]
     b54:	7ada      	ldrb	r2, [r3, #11]
     b56:	2309      	movs	r3, #9
     b58:	4013      	ands	r3, r2
     b5a:	2b01      	cmp	r3, #1
     b5c:	d10f      	bne.n	b7e <sd_mmc_check+0x9a>
     b5e:	2180      	movs	r1, #128	; 0x80
     b60:	0089      	lsls	r1, r1, #2
     b62:	48b4      	ldr	r0, [pc, #720]	; (e34 <sd_mmc_check+0x350>)
     b64:	4bb1      	ldr	r3, [pc, #708]	; (e2c <sd_mmc_check+0x348>)
     b66:	4798      	blx	r3
     b68:	2800      	cmp	r0, #0
     b6a:	d0db      	beq.n	b24 <sd_mmc_check+0x40>
     b6c:	4bad      	ldr	r3, [pc, #692]	; (e24 <sd_mmc_check+0x340>)
     b6e:	681b      	ldr	r3, [r3, #0]
     b70:	7adb      	ldrb	r3, [r3, #11]
     b72:	07db      	lsls	r3, r3, #31
     b74:	d503      	bpl.n	b7e <sd_mmc_check+0x9a>
     b76:	4bb0      	ldr	r3, [pc, #704]	; (e38 <sd_mmc_check+0x354>)
     b78:	4798      	blx	r3
     b7a:	2800      	cmp	r0, #0
     b7c:	d0d2      	beq.n	b24 <sd_mmc_check+0x40>
     b7e:	4baf      	ldr	r3, [pc, #700]	; (e3c <sd_mmc_check+0x358>)
     b80:	4798      	blx	r3
     b82:	4ba8      	ldr	r3, [pc, #672]	; (e24 <sd_mmc_check+0x340>)
     b84:	681b      	ldr	r3, [r3, #0]
     b86:	2200      	movs	r2, #0
     b88:	729a      	strb	r2, [r3, #10]
     b8a:	4ba5      	ldr	r3, [pc, #660]	; (e20 <sd_mmc_check+0x33c>)
     b8c:	4798      	blx	r3
     b8e:	e7b4      	b.n	afa <sd_mmc_check+0x16>
     b90:	4bab      	ldr	r3, [pc, #684]	; (e40 <sd_mmc_check+0x35c>)
     b92:	4798      	blx	r3
     b94:	1c43      	adds	r3, r0, #1
     b96:	d100      	bne.n	b9a <sd_mmc_check+0xb6>
     b98:	e1c4      	b.n	f24 <sd_mmc_check+0x440>
     b9a:	0500      	lsls	r0, r0, #20
     b9c:	0d00      	lsrs	r0, r0, #20
     b9e:	23d5      	movs	r3, #213	; 0xd5
     ba0:	005b      	lsls	r3, r3, #1
     ba2:	3601      	adds	r6, #1
     ba4:	4298      	cmp	r0, r3
     ba6:	d1bd      	bne.n	b24 <sd_mmc_check+0x40>
     ba8:	e7cc      	b.n	b44 <sd_mmc_check+0x60>
     baa:	2100      	movs	r1, #0
     bac:	48a5      	ldr	r0, [pc, #660]	; (e44 <sd_mmc_check+0x360>)
     bae:	4b9f      	ldr	r3, [pc, #636]	; (e2c <sd_mmc_check+0x348>)
     bb0:	4798      	blx	r3
     bb2:	2800      	cmp	r0, #0
     bb4:	d119      	bne.n	bea <sd_mmc_check+0x106>
     bb6:	4b9b      	ldr	r3, [pc, #620]	; (e24 <sd_mmc_check+0x340>)
     bb8:	681b      	ldr	r3, [r3, #0]
     bba:	2202      	movs	r2, #2
     bbc:	72da      	strb	r2, [r3, #11]
     bbe:	2100      	movs	r1, #0
     bc0:	2088      	movs	r0, #136	; 0x88
     bc2:	0140      	lsls	r0, r0, #5
     bc4:	4b99      	ldr	r3, [pc, #612]	; (e2c <sd_mmc_check+0x348>)
     bc6:	4798      	blx	r3
     bc8:	2800      	cmp	r0, #0
     bca:	d0ab      	beq.n	b24 <sd_mmc_check+0x40>
     bcc:	4d9e      	ldr	r5, [pc, #632]	; (e48 <sd_mmc_check+0x364>)
     bce:	4f97      	ldr	r7, [pc, #604]	; (e2c <sd_mmc_check+0x348>)
     bd0:	4e9b      	ldr	r6, [pc, #620]	; (e40 <sd_mmc_check+0x35c>)
     bd2:	2100      	movs	r1, #0
     bd4:	489d      	ldr	r0, [pc, #628]	; (e4c <sd_mmc_check+0x368>)
     bd6:	47b8      	blx	r7
     bd8:	2800      	cmp	r0, #0
     bda:	d0a3      	beq.n	b24 <sd_mmc_check+0x40>
     bdc:	47b0      	blx	r6
     bde:	07c3      	lsls	r3, r0, #31
     be0:	d57d      	bpl.n	cde <sd_mmc_check+0x1fa>
     be2:	3d01      	subs	r5, #1
     be4:	2d00      	cmp	r5, #0
     be6:	d1f4      	bne.n	bd2 <sd_mmc_check+0xee>
     be8:	e79c      	b.n	b24 <sd_mmc_check+0x40>
     bea:	4b95      	ldr	r3, [pc, #596]	; (e40 <sd_mmc_check+0x35c>)
     bec:	4798      	blx	r3
     bee:	0043      	lsls	r3, r0, #1
     bf0:	d505      	bpl.n	bfe <sd_mmc_check+0x11a>
     bf2:	4b8c      	ldr	r3, [pc, #560]	; (e24 <sd_mmc_check+0x340>)
     bf4:	681a      	ldr	r2, [r3, #0]
     bf6:	7ad3      	ldrb	r3, [r2, #11]
     bf8:	2108      	movs	r1, #8
     bfa:	430b      	orrs	r3, r1
     bfc:	72d3      	strb	r3, [r2, #11]
     bfe:	2100      	movs	r1, #0
     c00:	4893      	ldr	r0, [pc, #588]	; (e50 <sd_mmc_check+0x36c>)
     c02:	4b8a      	ldr	r3, [pc, #552]	; (e2c <sd_mmc_check+0x348>)
     c04:	4798      	blx	r3
     c06:	2800      	cmp	r0, #0
     c08:	d08c      	beq.n	b24 <sd_mmc_check+0x40>
     c0a:	4b86      	ldr	r3, [pc, #536]	; (e24 <sd_mmc_check+0x340>)
     c0c:	681b      	ldr	r3, [r3, #0]
     c0e:	7adb      	ldrb	r3, [r3, #11]
     c10:	07da      	lsls	r2, r3, #31
     c12:	d400      	bmi.n	c16 <sd_mmc_check+0x132>
     c14:	e1a4      	b.n	f60 <sd_mmc_check+0x47c>
     c16:	4b8f      	ldr	r3, [pc, #572]	; (e54 <sd_mmc_check+0x370>)
     c18:	4798      	blx	r3
     c1a:	2800      	cmp	r0, #0
     c1c:	d082      	beq.n	b24 <sd_mmc_check+0x40>
     c1e:	4b81      	ldr	r3, [pc, #516]	; (e24 <sd_mmc_check+0x340>)
     c20:	681a      	ldr	r2, [r3, #0]
     c22:	7c53      	ldrb	r3, [r2, #17]
     c24:	2107      	movs	r1, #7
     c26:	4019      	ands	r1, r3
     c28:	0089      	lsls	r1, r1, #2
     c2a:	488b      	ldr	r0, [pc, #556]	; (e58 <sd_mmc_check+0x374>)
     c2c:	5808      	ldr	r0, [r1, r0]
     c2e:	21fa      	movs	r1, #250	; 0xfa
     c30:	0089      	lsls	r1, r1, #2
     c32:	4341      	muls	r1, r0
     c34:	065b      	lsls	r3, r3, #25
     c36:	0f1b      	lsrs	r3, r3, #28
     c38:	009b      	lsls	r3, r3, #2
     c3a:	4888      	ldr	r0, [pc, #544]	; (e5c <sd_mmc_check+0x378>)
     c3c:	581b      	ldr	r3, [r3, r0]
     c3e:	434b      	muls	r3, r1
     c40:	6013      	str	r3, [r2, #0]
     c42:	7b93      	ldrb	r3, [r2, #14]
     c44:	099b      	lsrs	r3, r3, #6
     c46:	d000      	beq.n	c4a <sd_mmc_check+0x166>
     c48:	e13c      	b.n	ec4 <sd_mmc_check+0x3e0>
     c4a:	7d91      	ldrb	r1, [r2, #22]
     c4c:	1189      	asrs	r1, r1, #6
     c4e:	7d53      	ldrb	r3, [r2, #21]
     c50:	009b      	lsls	r3, r3, #2
     c52:	7d10      	ldrb	r0, [r2, #20]
     c54:	0280      	lsls	r0, r0, #10
     c56:	4303      	orrs	r3, r0
     c58:	430b      	orrs	r3, r1
     c5a:	7e10      	ldrb	r0, [r2, #24]
     c5c:	11c0      	asrs	r0, r0, #7
     c5e:	7dd1      	ldrb	r1, [r2, #23]
     c60:	0049      	lsls	r1, r1, #1
     c62:	4308      	orrs	r0, r1
     c64:	051b      	lsls	r3, r3, #20
     c66:	0d1b      	lsrs	r3, r3, #20
     c68:	3301      	adds	r3, #1
     c6a:	2107      	movs	r1, #7
     c6c:	4001      	ands	r1, r0
     c6e:	3102      	adds	r1, #2
     c70:	408b      	lsls	r3, r1
     c72:	7cd0      	ldrb	r0, [r2, #19]
     c74:	210f      	movs	r1, #15
     c76:	4001      	ands	r1, r0
     c78:	408b      	lsls	r3, r1
     c7a:	0a9b      	lsrs	r3, r3, #10
     c7c:	6053      	str	r3, [r2, #4]
     c7e:	8911      	ldrh	r1, [r2, #8]
     c80:	0409      	lsls	r1, r1, #16
     c82:	4877      	ldr	r0, [pc, #476]	; (e60 <sd_mmc_check+0x37c>)
     c84:	4b69      	ldr	r3, [pc, #420]	; (e2c <sd_mmc_check+0x348>)
     c86:	4798      	blx	r3
     c88:	2800      	cmp	r0, #0
     c8a:	d100      	bne.n	c8e <sd_mmc_check+0x1aa>
     c8c:	e74a      	b.n	b24 <sd_mmc_check+0x40>
     c8e:	2301      	movs	r3, #1
     c90:	9300      	str	r3, [sp, #0]
     c92:	2208      	movs	r2, #8
     c94:	2100      	movs	r1, #0
     c96:	4873      	ldr	r0, [pc, #460]	; (e64 <sd_mmc_check+0x380>)
     c98:	4d73      	ldr	r5, [pc, #460]	; (e68 <sd_mmc_check+0x384>)
     c9a:	47a8      	blx	r5
     c9c:	2800      	cmp	r0, #0
     c9e:	d100      	bne.n	ca2 <sd_mmc_check+0x1be>
     ca0:	e740      	b.n	b24 <sd_mmc_check+0x40>
     ca2:	2101      	movs	r1, #1
     ca4:	a806      	add	r0, sp, #24
     ca6:	4b71      	ldr	r3, [pc, #452]	; (e6c <sd_mmc_check+0x388>)
     ca8:	4798      	blx	r3
     caa:	2800      	cmp	r0, #0
     cac:	d100      	bne.n	cb0 <sd_mmc_check+0x1cc>
     cae:	e739      	b.n	b24 <sd_mmc_check+0x40>
     cb0:	4b6f      	ldr	r3, [pc, #444]	; (e70 <sd_mmc_check+0x38c>)
     cb2:	4798      	blx	r3
     cb4:	2800      	cmp	r0, #0
     cb6:	d100      	bne.n	cba <sd_mmc_check+0x1d6>
     cb8:	e734      	b.n	b24 <sd_mmc_check+0x40>
     cba:	ab06      	add	r3, sp, #24
     cbc:	781b      	ldrb	r3, [r3, #0]
     cbe:	220f      	movs	r2, #15
     cc0:	4013      	ands	r3, r2
     cc2:	2b01      	cmp	r3, #1
     cc4:	d100      	bne.n	cc8 <sd_mmc_check+0x1e4>
     cc6:	e119      	b.n	efc <sd_mmc_check+0x418>
     cc8:	2b00      	cmp	r3, #0
     cca:	d100      	bne.n	cce <sd_mmc_check+0x1ea>
     ccc:	e109      	b.n	ee2 <sd_mmc_check+0x3fe>
     cce:	2b02      	cmp	r3, #2
     cd0:	d100      	bne.n	cd4 <sd_mmc_check+0x1f0>
     cd2:	e118      	b.n	f06 <sd_mmc_check+0x422>
     cd4:	4b53      	ldr	r3, [pc, #332]	; (e24 <sd_mmc_check+0x340>)
     cd6:	681b      	ldr	r3, [r3, #0]
     cd8:	2210      	movs	r2, #16
     cda:	731a      	strb	r2, [r3, #12]
     cdc:	e105      	b.n	eea <sd_mmc_check+0x406>
     cde:	2100      	movs	r1, #0
     ce0:	4858      	ldr	r0, [pc, #352]	; (e44 <sd_mmc_check+0x360>)
     ce2:	4b52      	ldr	r3, [pc, #328]	; (e2c <sd_mmc_check+0x348>)
     ce4:	4798      	blx	r3
     ce6:	2800      	cmp	r0, #0
     ce8:	d100      	bne.n	cec <sd_mmc_check+0x208>
     cea:	e71b      	b.n	b24 <sd_mmc_check+0x40>
     cec:	4b54      	ldr	r3, [pc, #336]	; (e40 <sd_mmc_check+0x35c>)
     cee:	4798      	blx	r3
     cf0:	23c0      	movs	r3, #192	; 0xc0
     cf2:	05db      	lsls	r3, r3, #23
     cf4:	4018      	ands	r0, r3
     cf6:	2380      	movs	r3, #128	; 0x80
     cf8:	05db      	lsls	r3, r3, #23
     cfa:	4298      	cmp	r0, r3
     cfc:	d105      	bne.n	d0a <sd_mmc_check+0x226>
     cfe:	4b49      	ldr	r3, [pc, #292]	; (e24 <sd_mmc_check+0x340>)
     d00:	681a      	ldr	r2, [r3, #0]
     d02:	7ad1      	ldrb	r1, [r2, #11]
     d04:	2308      	movs	r3, #8
     d06:	430b      	orrs	r3, r1
     d08:	72d3      	strb	r3, [r2, #11]
     d0a:	2100      	movs	r1, #0
     d0c:	4850      	ldr	r0, [pc, #320]	; (e50 <sd_mmc_check+0x36c>)
     d0e:	4b47      	ldr	r3, [pc, #284]	; (e2c <sd_mmc_check+0x348>)
     d10:	4798      	blx	r3
     d12:	2800      	cmp	r0, #0
     d14:	d100      	bne.n	d18 <sd_mmc_check+0x234>
     d16:	e705      	b.n	b24 <sd_mmc_check+0x40>
     d18:	4b4e      	ldr	r3, [pc, #312]	; (e54 <sd_mmc_check+0x370>)
     d1a:	4798      	blx	r3
     d1c:	2800      	cmp	r0, #0
     d1e:	d100      	bne.n	d22 <sd_mmc_check+0x23e>
     d20:	e700      	b.n	b24 <sd_mmc_check+0x40>
     d22:	4b40      	ldr	r3, [pc, #256]	; (e24 <sd_mmc_check+0x340>)
     d24:	681a      	ldr	r2, [r3, #0]
     d26:	7b93      	ldrb	r3, [r2, #14]
     d28:	069b      	lsls	r3, r3, #26
     d2a:	0f1b      	lsrs	r3, r3, #28
     d2c:	2b02      	cmp	r3, #2
     d2e:	d100      	bne.n	d32 <sd_mmc_check+0x24e>
     d30:	e0a8      	b.n	e84 <sd_mmc_check+0x3a0>
     d32:	d907      	bls.n	d44 <sd_mmc_check+0x260>
     d34:	2b03      	cmp	r3, #3
     d36:	d100      	bne.n	d3a <sd_mmc_check+0x256>
     d38:	e0a7      	b.n	e8a <sd_mmc_check+0x3a6>
     d3a:	2b04      	cmp	r3, #4
     d3c:	d104      	bne.n	d48 <sd_mmc_check+0x264>
     d3e:	2340      	movs	r3, #64	; 0x40
     d40:	7313      	strb	r3, [r2, #12]
     d42:	e003      	b.n	d4c <sd_mmc_check+0x268>
     d44:	2b01      	cmp	r3, #1
     d46:	d066      	beq.n	e16 <sd_mmc_check+0x332>
     d48:	2312      	movs	r3, #18
     d4a:	7313      	strb	r3, [r2, #12]
     d4c:	7c53      	ldrb	r3, [r2, #17]
     d4e:	0659      	lsls	r1, r3, #25
     d50:	0f09      	lsrs	r1, r1, #28
     d52:	0089      	lsls	r1, r1, #2
     d54:	2007      	movs	r0, #7
     d56:	4003      	ands	r3, r0
     d58:	009b      	lsls	r3, r3, #2
     d5a:	483f      	ldr	r0, [pc, #252]	; (e58 <sd_mmc_check+0x374>)
     d5c:	5818      	ldr	r0, [r3, r0]
     d5e:	23fa      	movs	r3, #250	; 0xfa
     d60:	009b      	lsls	r3, r3, #2
     d62:	4343      	muls	r3, r0
     d64:	4843      	ldr	r0, [pc, #268]	; (e74 <sd_mmc_check+0x390>)
     d66:	5809      	ldr	r1, [r1, r0]
     d68:	434b      	muls	r3, r1
     d6a:	6013      	str	r3, [r2, #0]
     d6c:	7d91      	ldrb	r1, [r2, #22]
     d6e:	1189      	asrs	r1, r1, #6
     d70:	7d53      	ldrb	r3, [r2, #21]
     d72:	009b      	lsls	r3, r3, #2
     d74:	7d10      	ldrb	r0, [r2, #20]
     d76:	0280      	lsls	r0, r0, #10
     d78:	4303      	orrs	r3, r0
     d7a:	430b      	orrs	r3, r1
     d7c:	051b      	lsls	r3, r3, #20
     d7e:	0d1b      	lsrs	r3, r3, #20
     d80:	493d      	ldr	r1, [pc, #244]	; (e78 <sd_mmc_check+0x394>)
     d82:	428b      	cmp	r3, r1
     d84:	d00f      	beq.n	da6 <sd_mmc_check+0x2c2>
     d86:	7e10      	ldrb	r0, [r2, #24]
     d88:	11c0      	asrs	r0, r0, #7
     d8a:	7dd1      	ldrb	r1, [r2, #23]
     d8c:	0049      	lsls	r1, r1, #1
     d8e:	4301      	orrs	r1, r0
     d90:	3301      	adds	r3, #1
     d92:	2007      	movs	r0, #7
     d94:	4001      	ands	r1, r0
     d96:	3102      	adds	r1, #2
     d98:	408b      	lsls	r3, r1
     d9a:	7cd1      	ldrb	r1, [r2, #19]
     d9c:	3008      	adds	r0, #8
     d9e:	4001      	ands	r1, r0
     da0:	408b      	lsls	r3, r1
     da2:	0a9b      	lsrs	r3, r3, #10
     da4:	6053      	str	r3, [r2, #4]
     da6:	7b13      	ldrb	r3, [r2, #12]
     da8:	2b3f      	cmp	r3, #63	; 0x3f
     daa:	d97b      	bls.n	ea4 <sd_mmc_check+0x3c0>
     dac:	2100      	movs	r1, #0
     dae:	9100      	str	r1, [sp, #0]
     db0:	2301      	movs	r3, #1
     db2:	2280      	movs	r2, #128	; 0x80
     db4:	0092      	lsls	r2, r2, #2
     db6:	4831      	ldr	r0, [pc, #196]	; (e7c <sd_mmc_check+0x398>)
     db8:	4d2b      	ldr	r5, [pc, #172]	; (e68 <sd_mmc_check+0x384>)
     dba:	47a8      	blx	r5
     dbc:	2800      	cmp	r0, #0
     dbe:	d100      	bne.n	dc2 <sd_mmc_check+0x2de>
     dc0:	e6b0      	b.n	b24 <sd_mmc_check+0x40>
     dc2:	2500      	movs	r5, #0
     dc4:	4e2e      	ldr	r6, [pc, #184]	; (e80 <sd_mmc_check+0x39c>)
     dc6:	a805      	add	r0, sp, #20
     dc8:	47b0      	blx	r6
     dca:	2800      	cmp	r0, #0
     dcc:	d100      	bne.n	dd0 <sd_mmc_check+0x2ec>
     dce:	e6a9      	b.n	b24 <sd_mmc_check+0x40>
     dd0:	3501      	adds	r5, #1
     dd2:	b2ad      	uxth	r5, r5
     dd4:	2d32      	cmp	r5, #50	; 0x32
     dd6:	d1f6      	bne.n	dc6 <sd_mmc_check+0x2e2>
     dd8:	4b12      	ldr	r3, [pc, #72]	; (e24 <sd_mmc_check+0x340>)
     dda:	6819      	ldr	r1, [r3, #0]
     ddc:	7d8a      	ldrb	r2, [r1, #22]
     dde:	1192      	asrs	r2, r2, #6
     de0:	7d4b      	ldrb	r3, [r1, #21]
     de2:	009b      	lsls	r3, r3, #2
     de4:	7d09      	ldrb	r1, [r1, #20]
     de6:	0289      	lsls	r1, r1, #10
     de8:	430b      	orrs	r3, r1
     dea:	4313      	orrs	r3, r2
     dec:	051b      	lsls	r3, r3, #20
     dee:	0d1b      	lsrs	r3, r3, #20
     df0:	4a21      	ldr	r2, [pc, #132]	; (e78 <sd_mmc_check+0x394>)
     df2:	4293      	cmp	r3, r2
     df4:	d154      	bne.n	ea0 <sd_mmc_check+0x3bc>
     df6:	4e22      	ldr	r6, [pc, #136]	; (e80 <sd_mmc_check+0x39c>)
     df8:	a806      	add	r0, sp, #24
     dfa:	47b0      	blx	r6
     dfc:	2800      	cmp	r0, #0
     dfe:	d100      	bne.n	e02 <sd_mmc_check+0x31e>
     e00:	e690      	b.n	b24 <sd_mmc_check+0x40>
     e02:	3501      	adds	r5, #1
     e04:	b2ad      	uxth	r5, r5
     e06:	2d35      	cmp	r5, #53	; 0x35
     e08:	d9f6      	bls.n	df8 <sd_mmc_check+0x314>
     e0a:	4b06      	ldr	r3, [pc, #24]	; (e24 <sd_mmc_check+0x340>)
     e0c:	681a      	ldr	r2, [r3, #0]
     e0e:	9b06      	ldr	r3, [sp, #24]
     e10:	085b      	lsrs	r3, r3, #1
     e12:	6053      	str	r3, [r2, #4]
     e14:	e044      	b.n	ea0 <sd_mmc_check+0x3bc>
     e16:	2314      	movs	r3, #20
     e18:	7313      	strb	r3, [r2, #12]
     e1a:	e797      	b.n	d4c <sd_mmc_check+0x268>
     e1c:	000009c9 	.word	0x000009c9
     e20:	00000aa9 	.word	0x00000aa9
     e24:	200000e0 	.word	0x200000e0
     e28:	000016d9 	.word	0x000016d9
     e2c:	000018a1 	.word	0x000018a1
     e30:	00005508 	.word	0x00005508
     e34:	00001110 	.word	0x00001110
     e38:	00000a25 	.word	0x00000a25
     e3c:	000009a1 	.word	0x000009a1
     e40:	000018b9 	.word	0x000018b9
     e44:	0000053a 	.word	0x0000053a
     e48:	00001bef 	.word	0x00001bef
     e4c:	00001101 	.word	0x00001101
     e50:	0000113b 	.word	0x0000113b
     e54:	00000a5d 	.word	0x00000a5d
     e58:	00006e6c 	.word	0x00006e6c
     e5c:	00006e88 	.word	0x00006e88
     e60:	00001137 	.word	0x00001137
     e64:	00081133 	.word	0x00081133
     e68:	00001711 	.word	0x00001711
     e6c:	0000193d 	.word	0x0000193d
     e70:	000019c9 	.word	0x000019c9
     e74:	00006e2c 	.word	0x00006e2c
     e78:	00000fff 	.word	0x00000fff
     e7c:	00081108 	.word	0x00081108
     e80:	000018c5 	.word	0x000018c5
     e84:	2322      	movs	r3, #34	; 0x22
     e86:	7313      	strb	r3, [r2, #12]
     e88:	e760      	b.n	d4c <sd_mmc_check+0x268>
     e8a:	2330      	movs	r3, #48	; 0x30
     e8c:	7313      	strb	r3, [r2, #12]
     e8e:	e75d      	b.n	d4c <sd_mmc_check+0x268>
     e90:	a806      	add	r0, sp, #24
     e92:	4b36      	ldr	r3, [pc, #216]	; (f6c <sd_mmc_check+0x488>)
     e94:	4798      	blx	r3
     e96:	2800      	cmp	r0, #0
     e98:	d100      	bne.n	e9c <sd_mmc_check+0x3b8>
     e9a:	e643      	b.n	b24 <sd_mmc_check+0x40>
     e9c:	3501      	adds	r5, #1
     e9e:	b2ad      	uxth	r5, r5
     ea0:	2d7f      	cmp	r5, #127	; 0x7f
     ea2:	d9f5      	bls.n	e90 <sd_mmc_check+0x3ac>
     ea4:	2180      	movs	r1, #128	; 0x80
     ea6:	0089      	lsls	r1, r1, #2
     ea8:	4831      	ldr	r0, [pc, #196]	; (f70 <sd_mmc_check+0x48c>)
     eaa:	4b32      	ldr	r3, [pc, #200]	; (f74 <sd_mmc_check+0x490>)
     eac:	4798      	blx	r3
     eae:	2800      	cmp	r0, #0
     eb0:	d100      	bne.n	eb4 <sd_mmc_check+0x3d0>
     eb2:	e637      	b.n	b24 <sd_mmc_check+0x40>
     eb4:	4b30      	ldr	r3, [pc, #192]	; (f78 <sd_mmc_check+0x494>)
     eb6:	4798      	blx	r3
     eb8:	2800      	cmp	r0, #0
     eba:	d100      	bne.n	ebe <sd_mmc_check+0x3da>
     ebc:	e632      	b.n	b24 <sd_mmc_check+0x40>
     ebe:	4b2f      	ldr	r3, [pc, #188]	; (f7c <sd_mmc_check+0x498>)
     ec0:	4798      	blx	r3
     ec2:	e65e      	b.n	b82 <sd_mmc_check+0x9e>
     ec4:	7dd0      	ldrb	r0, [r2, #23]
     ec6:	7d93      	ldrb	r3, [r2, #22]
     ec8:	021b      	lsls	r3, r3, #8
     eca:	7d51      	ldrb	r1, [r2, #21]
     ecc:	0409      	lsls	r1, r1, #16
     ece:	430b      	orrs	r3, r1
     ed0:	4303      	orrs	r3, r0
     ed2:	029b      	lsls	r3, r3, #10
     ed4:	085b      	lsrs	r3, r3, #1
     ed6:	2180      	movs	r1, #128	; 0x80
     ed8:	0089      	lsls	r1, r1, #2
     eda:	468c      	mov	ip, r1
     edc:	4463      	add	r3, ip
     ede:	6053      	str	r3, [r2, #4]
     ee0:	e6cd      	b.n	c7e <sd_mmc_check+0x19a>
     ee2:	4b27      	ldr	r3, [pc, #156]	; (f80 <sd_mmc_check+0x49c>)
     ee4:	681b      	ldr	r3, [r3, #0]
     ee6:	2210      	movs	r2, #16
     ee8:	731a      	strb	r2, [r3, #12]
     eea:	4b25      	ldr	r3, [pc, #148]	; (f80 <sd_mmc_check+0x49c>)
     eec:	681b      	ldr	r3, [r3, #0]
     eee:	7adb      	ldrb	r3, [r3, #11]
     ef0:	2209      	movs	r2, #9
     ef2:	4013      	ands	r3, r2
     ef4:	2b01      	cmp	r3, #1
     ef6:	d000      	beq.n	efa <sd_mmc_check+0x416>
     ef8:	e638      	b.n	b6c <sd_mmc_check+0x88>
     efa:	e630      	b.n	b5e <sd_mmc_check+0x7a>
     efc:	4b20      	ldr	r3, [pc, #128]	; (f80 <sd_mmc_check+0x49c>)
     efe:	681b      	ldr	r3, [r3, #0]
     f00:	221a      	movs	r2, #26
     f02:	731a      	strb	r2, [r3, #12]
     f04:	e7f1      	b.n	eea <sd_mmc_check+0x406>
     f06:	ab06      	add	r3, sp, #24
     f08:	789b      	ldrb	r3, [r3, #2]
     f0a:	09db      	lsrs	r3, r3, #7
     f0c:	2b01      	cmp	r3, #1
     f0e:	d104      	bne.n	f1a <sd_mmc_check+0x436>
     f10:	4b1b      	ldr	r3, [pc, #108]	; (f80 <sd_mmc_check+0x49c>)
     f12:	681b      	ldr	r3, [r3, #0]
     f14:	2230      	movs	r2, #48	; 0x30
     f16:	731a      	strb	r2, [r3, #12]
     f18:	e7e7      	b.n	eea <sd_mmc_check+0x406>
     f1a:	4b19      	ldr	r3, [pc, #100]	; (f80 <sd_mmc_check+0x49c>)
     f1c:	681b      	ldr	r3, [r3, #0]
     f1e:	2220      	movs	r2, #32
     f20:	731a      	strb	r2, [r3, #12]
     f22:	e7e2      	b.n	eea <sd_mmc_check+0x406>
     f24:	2600      	movs	r6, #0
     f26:	e60d      	b.n	b44 <sd_mmc_check+0x60>
     f28:	1e73      	subs	r3, r6, #1
     f2a:	419e      	sbcs	r6, r3
     f2c:	07b3      	lsls	r3, r6, #30
     f2e:	9303      	str	r3, [sp, #12]
     f30:	4d14      	ldr	r5, [pc, #80]	; (f84 <sd_mmc_check+0x4a0>)
     f32:	4f10      	ldr	r7, [pc, #64]	; (f74 <sd_mmc_check+0x490>)
     f34:	46b8      	mov	r8, r7
     f36:	4e14      	ldr	r6, [pc, #80]	; (f88 <sd_mmc_check+0x4a4>)
     f38:	2100      	movs	r1, #0
     f3a:	4814      	ldr	r0, [pc, #80]	; (f8c <sd_mmc_check+0x4a8>)
     f3c:	47b8      	blx	r7
     f3e:	2800      	cmp	r0, #0
     f40:	d100      	bne.n	f44 <sd_mmc_check+0x460>
     f42:	e638      	b.n	bb6 <sd_mmc_check+0xd2>
     f44:	9903      	ldr	r1, [sp, #12]
     f46:	4812      	ldr	r0, [pc, #72]	; (f90 <sd_mmc_check+0x4ac>)
     f48:	47c0      	blx	r8
     f4a:	2800      	cmp	r0, #0
     f4c:	d100      	bne.n	f50 <sd_mmc_check+0x46c>
     f4e:	e632      	b.n	bb6 <sd_mmc_check+0xd2>
     f50:	47b0      	blx	r6
     f52:	07c3      	lsls	r3, r0, #31
     f54:	d400      	bmi.n	f58 <sd_mmc_check+0x474>
     f56:	e628      	b.n	baa <sd_mmc_check+0xc6>
     f58:	3d01      	subs	r5, #1
     f5a:	2d00      	cmp	r5, #0
     f5c:	d1ec      	bne.n	f38 <sd_mmc_check+0x454>
     f5e:	e62a      	b.n	bb6 <sd_mmc_check+0xd2>
     f60:	2209      	movs	r2, #9
     f62:	4013      	ands	r3, r2
     f64:	2b01      	cmp	r3, #1
     f66:	d000      	beq.n	f6a <sd_mmc_check+0x486>
     f68:	e609      	b.n	b7e <sd_mmc_check+0x9a>
     f6a:	e5f8      	b.n	b5e <sd_mmc_check+0x7a>
     f6c:	000018c5 	.word	0x000018c5
     f70:	00001110 	.word	0x00001110
     f74:	000018a1 	.word	0x000018a1
     f78:	00000a25 	.word	0x00000a25
     f7c:	000009a1 	.word	0x000009a1
     f80:	200000e0 	.word	0x200000e0
     f84:	00001bef 	.word	0x00001bef
     f88:	000018b9 	.word	0x000018b9
     f8c:	00001137 	.word	0x00001137
     f90:	00001129 	.word	0x00001129

00000f94 <sd_mmc_get_type>:
     f94:	b510      	push	{r4, lr}
     f96:	4b06      	ldr	r3, [pc, #24]	; (fb0 <sd_mmc_get_type+0x1c>)
     f98:	4798      	blx	r3
     f9a:	2300      	movs	r3, #0
     f9c:	2800      	cmp	r0, #0
     f9e:	d001      	beq.n	fa4 <sd_mmc_get_type+0x10>
     fa0:	0018      	movs	r0, r3
     fa2:	bd10      	pop	{r4, pc}
     fa4:	4b03      	ldr	r3, [pc, #12]	; (fb4 <sd_mmc_get_type+0x20>)
     fa6:	4798      	blx	r3
     fa8:	4b03      	ldr	r3, [pc, #12]	; (fb8 <sd_mmc_get_type+0x24>)
     faa:	681b      	ldr	r3, [r3, #0]
     fac:	7adb      	ldrb	r3, [r3, #11]
     fae:	e7f7      	b.n	fa0 <sd_mmc_get_type+0xc>
     fb0:	000009c9 	.word	0x000009c9
     fb4:	00000aa9 	.word	0x00000aa9
     fb8:	200000e0 	.word	0x200000e0

00000fbc <sd_mmc_get_capacity>:
     fbc:	b510      	push	{r4, lr}
     fbe:	4b06      	ldr	r3, [pc, #24]	; (fd8 <sd_mmc_get_capacity+0x1c>)
     fc0:	4798      	blx	r3
     fc2:	2300      	movs	r3, #0
     fc4:	2800      	cmp	r0, #0
     fc6:	d001      	beq.n	fcc <sd_mmc_get_capacity+0x10>
     fc8:	0018      	movs	r0, r3
     fca:	bd10      	pop	{r4, pc}
     fcc:	4b03      	ldr	r3, [pc, #12]	; (fdc <sd_mmc_get_capacity+0x20>)
     fce:	4798      	blx	r3
     fd0:	4b03      	ldr	r3, [pc, #12]	; (fe0 <sd_mmc_get_capacity+0x24>)
     fd2:	681b      	ldr	r3, [r3, #0]
     fd4:	685b      	ldr	r3, [r3, #4]
     fd6:	e7f7      	b.n	fc8 <sd_mmc_get_capacity+0xc>
     fd8:	000009c9 	.word	0x000009c9
     fdc:	00000aa9 	.word	0x00000aa9
     fe0:	200000e0 	.word	0x200000e0

00000fe4 <sd_mmc_is_write_protected>:
     fe4:	2000      	movs	r0, #0
     fe6:	4770      	bx	lr

00000fe8 <sd_mmc_init_read_blocks>:
     fe8:	b570      	push	{r4, r5, r6, lr}
     fea:	b082      	sub	sp, #8
     fec:	000e      	movs	r6, r1
     fee:	0015      	movs	r5, r2
     ff0:	4b16      	ldr	r3, [pc, #88]	; (104c <sd_mmc_init_read_blocks+0x64>)
     ff2:	4798      	blx	r3
     ff4:	1e04      	subs	r4, r0, #0
     ff6:	d002      	beq.n	ffe <sd_mmc_init_read_blocks+0x16>
     ff8:	0020      	movs	r0, r4
     ffa:	b002      	add	sp, #8
     ffc:	bd70      	pop	{r4, r5, r6, pc}
     ffe:	4b14      	ldr	r3, [pc, #80]	; (1050 <sd_mmc_init_read_blocks+0x68>)
    1000:	4798      	blx	r3
    1002:	2800      	cmp	r0, #0
    1004:	d017      	beq.n	1036 <sd_mmc_init_read_blocks+0x4e>
    1006:	2d01      	cmp	r5, #1
    1008:	d919      	bls.n	103e <sd_mmc_init_read_blocks+0x56>
    100a:	4812      	ldr	r0, [pc, #72]	; (1054 <sd_mmc_init_read_blocks+0x6c>)
    100c:	4b12      	ldr	r3, [pc, #72]	; (1058 <sd_mmc_init_read_blocks+0x70>)
    100e:	681b      	ldr	r3, [r3, #0]
    1010:	7adb      	ldrb	r3, [r3, #11]
    1012:	071b      	lsls	r3, r3, #28
    1014:	d400      	bmi.n	1018 <sd_mmc_init_read_blocks+0x30>
    1016:	0276      	lsls	r6, r6, #9
    1018:	2301      	movs	r3, #1
    101a:	9300      	str	r3, [sp, #0]
    101c:	002b      	movs	r3, r5
    101e:	2280      	movs	r2, #128	; 0x80
    1020:	0092      	lsls	r2, r2, #2
    1022:	0031      	movs	r1, r6
    1024:	4e0d      	ldr	r6, [pc, #52]	; (105c <sd_mmc_init_read_blocks+0x74>)
    1026:	47b0      	blx	r6
    1028:	2800      	cmp	r0, #0
    102a:	d00a      	beq.n	1042 <sd_mmc_init_read_blocks+0x5a>
    102c:	4b0c      	ldr	r3, [pc, #48]	; (1060 <sd_mmc_init_read_blocks+0x78>)
    102e:	801d      	strh	r5, [r3, #0]
    1030:	4b0c      	ldr	r3, [pc, #48]	; (1064 <sd_mmc_init_read_blocks+0x7c>)
    1032:	801d      	strh	r5, [r3, #0]
    1034:	e7e0      	b.n	ff8 <sd_mmc_init_read_blocks+0x10>
    1036:	4b0c      	ldr	r3, [pc, #48]	; (1068 <sd_mmc_init_read_blocks+0x80>)
    1038:	4798      	blx	r3
    103a:	3405      	adds	r4, #5
    103c:	e7dc      	b.n	ff8 <sd_mmc_init_read_blocks+0x10>
    103e:	480b      	ldr	r0, [pc, #44]	; (106c <sd_mmc_init_read_blocks+0x84>)
    1040:	e7e4      	b.n	100c <sd_mmc_init_read_blocks+0x24>
    1042:	4b09      	ldr	r3, [pc, #36]	; (1068 <sd_mmc_init_read_blocks+0x80>)
    1044:	4798      	blx	r3
    1046:	2405      	movs	r4, #5
    1048:	e7d6      	b.n	ff8 <sd_mmc_init_read_blocks+0x10>
    104a:	46c0      	nop			; (mov r8, r8)
    104c:	000009c9 	.word	0x000009c9
    1050:	00000a25 	.word	0x00000a25
    1054:	00101112 	.word	0x00101112
    1058:	200000e0 	.word	0x200000e0
    105c:	00001711 	.word	0x00001711
    1060:	20000104 	.word	0x20000104
    1064:	20000106 	.word	0x20000106
    1068:	00000aa9 	.word	0x00000aa9
    106c:	00081111 	.word	0x00081111

00001070 <sd_mmc_start_read_blocks>:
    1070:	b510      	push	{r4, lr}
    1072:	000c      	movs	r4, r1
    1074:	4b07      	ldr	r3, [pc, #28]	; (1094 <sd_mmc_start_read_blocks+0x24>)
    1076:	4798      	blx	r3
    1078:	2800      	cmp	r0, #0
    107a:	d104      	bne.n	1086 <sd_mmc_start_read_blocks+0x16>
    107c:	2200      	movs	r2, #0
    107e:	4b06      	ldr	r3, [pc, #24]	; (1098 <sd_mmc_start_read_blocks+0x28>)
    1080:	801a      	strh	r2, [r3, #0]
    1082:	3005      	adds	r0, #5
    1084:	bd10      	pop	{r4, pc}
    1086:	4a04      	ldr	r2, [pc, #16]	; (1098 <sd_mmc_start_read_blocks+0x28>)
    1088:	8813      	ldrh	r3, [r2, #0]
    108a:	1b1c      	subs	r4, r3, r4
    108c:	8014      	strh	r4, [r2, #0]
    108e:	2000      	movs	r0, #0
    1090:	e7f8      	b.n	1084 <sd_mmc_start_read_blocks+0x14>
    1092:	46c0      	nop			; (mov r8, r8)
    1094:	0000193d 	.word	0x0000193d
    1098:	20000104 	.word	0x20000104

0000109c <sd_mmc_wait_end_of_read_blocks>:
    109c:	b510      	push	{r4, lr}
    109e:	0004      	movs	r4, r0
    10a0:	4b14      	ldr	r3, [pc, #80]	; (10f4 <sd_mmc_wait_end_of_read_blocks+0x58>)
    10a2:	4798      	blx	r3
    10a4:	2305      	movs	r3, #5
    10a6:	2800      	cmp	r0, #0
    10a8:	d101      	bne.n	10ae <sd_mmc_wait_end_of_read_blocks+0x12>
    10aa:	0018      	movs	r0, r3
    10ac:	bd10      	pop	{r4, pc}
    10ae:	2c00      	cmp	r4, #0
    10b0:	d010      	beq.n	10d4 <sd_mmc_wait_end_of_read_blocks+0x38>
    10b2:	2200      	movs	r2, #0
    10b4:	4b10      	ldr	r3, [pc, #64]	; (10f8 <sd_mmc_wait_end_of_read_blocks+0x5c>)
    10b6:	801a      	strh	r2, [r3, #0]
    10b8:	4b10      	ldr	r3, [pc, #64]	; (10fc <sd_mmc_wait_end_of_read_blocks+0x60>)
    10ba:	881b      	ldrh	r3, [r3, #0]
    10bc:	2b01      	cmp	r3, #1
    10be:	d00f      	beq.n	10e0 <sd_mmc_wait_end_of_read_blocks+0x44>
    10c0:	2100      	movs	r1, #0
    10c2:	480f      	ldr	r0, [pc, #60]	; (1100 <sd_mmc_wait_end_of_read_blocks+0x64>)
    10c4:	4b0f      	ldr	r3, [pc, #60]	; (1104 <sd_mmc_wait_end_of_read_blocks+0x68>)
    10c6:	4798      	blx	r3
    10c8:	2800      	cmp	r0, #0
    10ca:	d00d      	beq.n	10e8 <sd_mmc_wait_end_of_read_blocks+0x4c>
    10cc:	4b0e      	ldr	r3, [pc, #56]	; (1108 <sd_mmc_wait_end_of_read_blocks+0x6c>)
    10ce:	4798      	blx	r3
    10d0:	2300      	movs	r3, #0
    10d2:	e7ea      	b.n	10aa <sd_mmc_wait_end_of_read_blocks+0xe>
    10d4:	4b08      	ldr	r3, [pc, #32]	; (10f8 <sd_mmc_wait_end_of_read_blocks+0x5c>)
    10d6:	881a      	ldrh	r2, [r3, #0]
    10d8:	2300      	movs	r3, #0
    10da:	2a00      	cmp	r2, #0
    10dc:	d0ec      	beq.n	10b8 <sd_mmc_wait_end_of_read_blocks+0x1c>
    10de:	e7e4      	b.n	10aa <sd_mmc_wait_end_of_read_blocks+0xe>
    10e0:	4b09      	ldr	r3, [pc, #36]	; (1108 <sd_mmc_wait_end_of_read_blocks+0x6c>)
    10e2:	4798      	blx	r3
    10e4:	2300      	movs	r3, #0
    10e6:	e7e0      	b.n	10aa <sd_mmc_wait_end_of_read_blocks+0xe>
    10e8:	2100      	movs	r1, #0
    10ea:	4805      	ldr	r0, [pc, #20]	; (1100 <sd_mmc_wait_end_of_read_blocks+0x64>)
    10ec:	4b05      	ldr	r3, [pc, #20]	; (1104 <sd_mmc_wait_end_of_read_blocks+0x68>)
    10ee:	4798      	blx	r3
    10f0:	e7ec      	b.n	10cc <sd_mmc_wait_end_of_read_blocks+0x30>
    10f2:	46c0      	nop			; (mov r8, r8)
    10f4:	000019c9 	.word	0x000019c9
    10f8:	20000104 	.word	0x20000104
    10fc:	20000106 	.word	0x20000106
    1100:	0000310c 	.word	0x0000310c
    1104:	000018a1 	.word	0x000018a1
    1108:	00000aa9 	.word	0x00000aa9

0000110c <sd_mmc_init_write_blocks>:
    110c:	b570      	push	{r4, r5, r6, lr}
    110e:	b082      	sub	sp, #8
    1110:	000e      	movs	r6, r1
    1112:	0015      	movs	r5, r2
    1114:	4b11      	ldr	r3, [pc, #68]	; (115c <sd_mmc_init_write_blocks+0x50>)
    1116:	4798      	blx	r3
    1118:	1e04      	subs	r4, r0, #0
    111a:	d116      	bne.n	114a <sd_mmc_init_write_blocks+0x3e>
    111c:	2d01      	cmp	r5, #1
    111e:	d917      	bls.n	1150 <sd_mmc_init_write_blocks+0x44>
    1120:	480f      	ldr	r0, [pc, #60]	; (1160 <sd_mmc_init_write_blocks+0x54>)
    1122:	4b10      	ldr	r3, [pc, #64]	; (1164 <sd_mmc_init_write_blocks+0x58>)
    1124:	681b      	ldr	r3, [r3, #0]
    1126:	7adb      	ldrb	r3, [r3, #11]
    1128:	071b      	lsls	r3, r3, #28
    112a:	d400      	bmi.n	112e <sd_mmc_init_write_blocks+0x22>
    112c:	0276      	lsls	r6, r6, #9
    112e:	2301      	movs	r3, #1
    1130:	9300      	str	r3, [sp, #0]
    1132:	002b      	movs	r3, r5
    1134:	2280      	movs	r2, #128	; 0x80
    1136:	0092      	lsls	r2, r2, #2
    1138:	0031      	movs	r1, r6
    113a:	4e0b      	ldr	r6, [pc, #44]	; (1168 <sd_mmc_init_write_blocks+0x5c>)
    113c:	47b0      	blx	r6
    113e:	2800      	cmp	r0, #0
    1140:	d008      	beq.n	1154 <sd_mmc_init_write_blocks+0x48>
    1142:	4b0a      	ldr	r3, [pc, #40]	; (116c <sd_mmc_init_write_blocks+0x60>)
    1144:	801d      	strh	r5, [r3, #0]
    1146:	4b0a      	ldr	r3, [pc, #40]	; (1170 <sd_mmc_init_write_blocks+0x64>)
    1148:	801d      	strh	r5, [r3, #0]
    114a:	0020      	movs	r0, r4
    114c:	b002      	add	sp, #8
    114e:	bd70      	pop	{r4, r5, r6, pc}
    1150:	4808      	ldr	r0, [pc, #32]	; (1174 <sd_mmc_init_write_blocks+0x68>)
    1152:	e7e6      	b.n	1122 <sd_mmc_init_write_blocks+0x16>
    1154:	4b08      	ldr	r3, [pc, #32]	; (1178 <sd_mmc_init_write_blocks+0x6c>)
    1156:	4798      	blx	r3
    1158:	2405      	movs	r4, #5
    115a:	e7f6      	b.n	114a <sd_mmc_init_write_blocks+0x3e>
    115c:	000009c9 	.word	0x000009c9
    1160:	00109119 	.word	0x00109119
    1164:	200000e0 	.word	0x200000e0
    1168:	00001711 	.word	0x00001711
    116c:	20000104 	.word	0x20000104
    1170:	20000106 	.word	0x20000106
    1174:	00089118 	.word	0x00089118
    1178:	00000aa9 	.word	0x00000aa9

0000117c <sd_mmc_start_write_blocks>:
    117c:	b510      	push	{r4, lr}
    117e:	000c      	movs	r4, r1
    1180:	4b07      	ldr	r3, [pc, #28]	; (11a0 <sd_mmc_start_write_blocks+0x24>)
    1182:	4798      	blx	r3
    1184:	2800      	cmp	r0, #0
    1186:	d104      	bne.n	1192 <sd_mmc_start_write_blocks+0x16>
    1188:	2200      	movs	r2, #0
    118a:	4b06      	ldr	r3, [pc, #24]	; (11a4 <sd_mmc_start_write_blocks+0x28>)
    118c:	801a      	strh	r2, [r3, #0]
    118e:	3005      	adds	r0, #5
    1190:	bd10      	pop	{r4, pc}
    1192:	4a04      	ldr	r2, [pc, #16]	; (11a4 <sd_mmc_start_write_blocks+0x28>)
    1194:	8813      	ldrh	r3, [r2, #0]
    1196:	1b1c      	subs	r4, r3, r4
    1198:	8014      	strh	r4, [r2, #0]
    119a:	2000      	movs	r0, #0
    119c:	e7f8      	b.n	1190 <sd_mmc_start_write_blocks+0x14>
    119e:	46c0      	nop			; (mov r8, r8)
    11a0:	000019cd 	.word	0x000019cd
    11a4:	20000104 	.word	0x20000104

000011a8 <sd_mmc_wait_end_of_write_blocks>:
    11a8:	b510      	push	{r4, lr}
    11aa:	0004      	movs	r4, r0
    11ac:	4b0e      	ldr	r3, [pc, #56]	; (11e8 <sd_mmc_wait_end_of_write_blocks+0x40>)
    11ae:	4798      	blx	r3
    11b0:	2305      	movs	r3, #5
    11b2:	2800      	cmp	r0, #0
    11b4:	d101      	bne.n	11ba <sd_mmc_wait_end_of_write_blocks+0x12>
    11b6:	0018      	movs	r0, r3
    11b8:	bd10      	pop	{r4, pc}
    11ba:	2c00      	cmp	r4, #0
    11bc:	d00a      	beq.n	11d4 <sd_mmc_wait_end_of_write_blocks+0x2c>
    11be:	2200      	movs	r2, #0
    11c0:	4b0a      	ldr	r3, [pc, #40]	; (11ec <sd_mmc_wait_end_of_write_blocks+0x44>)
    11c2:	801a      	strh	r2, [r3, #0]
    11c4:	4b0a      	ldr	r3, [pc, #40]	; (11f0 <sd_mmc_wait_end_of_write_blocks+0x48>)
    11c6:	881b      	ldrh	r3, [r3, #0]
    11c8:	2b01      	cmp	r3, #1
    11ca:	d009      	beq.n	11e0 <sd_mmc_wait_end_of_write_blocks+0x38>
    11cc:	4b09      	ldr	r3, [pc, #36]	; (11f4 <sd_mmc_wait_end_of_write_blocks+0x4c>)
    11ce:	4798      	blx	r3
    11d0:	2300      	movs	r3, #0
    11d2:	e7f0      	b.n	11b6 <sd_mmc_wait_end_of_write_blocks+0xe>
    11d4:	4b05      	ldr	r3, [pc, #20]	; (11ec <sd_mmc_wait_end_of_write_blocks+0x44>)
    11d6:	881a      	ldrh	r2, [r3, #0]
    11d8:	2300      	movs	r3, #0
    11da:	2a00      	cmp	r2, #0
    11dc:	d0f2      	beq.n	11c4 <sd_mmc_wait_end_of_write_blocks+0x1c>
    11de:	e7ea      	b.n	11b6 <sd_mmc_wait_end_of_write_blocks+0xe>
    11e0:	4b04      	ldr	r3, [pc, #16]	; (11f4 <sd_mmc_wait_end_of_write_blocks+0x4c>)
    11e2:	4798      	blx	r3
    11e4:	2300      	movs	r3, #0
    11e6:	e7e6      	b.n	11b6 <sd_mmc_wait_end_of_write_blocks+0xe>
    11e8:	00001a4d 	.word	0x00001a4d
    11ec:	20000104 	.word	0x20000104
    11f0:	20000106 	.word	0x20000106
    11f4:	00000aa9 	.word	0x00000aa9

000011f8 <sd_mmc_test_unit_ready>:
    11f8:	b510      	push	{r4, lr}
    11fa:	0004      	movs	r4, r0
    11fc:	4b0f      	ldr	r3, [pc, #60]	; (123c <sd_mmc_test_unit_ready+0x44>)
    11fe:	4798      	blx	r3
    1200:	2801      	cmp	r0, #1
    1202:	d019      	beq.n	1238 <sd_mmc_test_unit_ready+0x40>
    1204:	2800      	cmp	r0, #0
    1206:	d003      	beq.n	1210 <sd_mmc_test_unit_ready+0x18>
    1208:	2802      	cmp	r0, #2
    120a:	d010      	beq.n	122e <sd_mmc_test_unit_ready+0x36>
    120c:	2001      	movs	r0, #1
    120e:	bd10      	pop	{r4, pc}
    1210:	4b0b      	ldr	r3, [pc, #44]	; (1240 <sd_mmc_test_unit_ready+0x48>)
    1212:	5d1b      	ldrb	r3, [r3, r4]
    1214:	2002      	movs	r0, #2
    1216:	2b00      	cmp	r3, #0
    1218:	d1f9      	bne.n	120e <sd_mmc_test_unit_ready+0x16>
    121a:	0020      	movs	r0, r4
    121c:	4b09      	ldr	r3, [pc, #36]	; (1244 <sd_mmc_test_unit_ready+0x4c>)
    121e:	4798      	blx	r3
    1220:	0003      	movs	r3, r0
    1222:	2003      	movs	r0, #3
    1224:	4018      	ands	r0, r3
    1226:	4243      	negs	r3, r0
    1228:	4158      	adcs	r0, r3
    122a:	0040      	lsls	r0, r0, #1
    122c:	e7ef      	b.n	120e <sd_mmc_test_unit_ready+0x16>
    122e:	2200      	movs	r2, #0
    1230:	4b03      	ldr	r3, [pc, #12]	; (1240 <sd_mmc_test_unit_ready+0x48>)
    1232:	551a      	strb	r2, [r3, r4]
    1234:	2002      	movs	r0, #2
    1236:	e7ea      	b.n	120e <sd_mmc_test_unit_ready+0x16>
    1238:	2003      	movs	r0, #3
    123a:	e7e8      	b.n	120e <sd_mmc_test_unit_ready+0x16>
    123c:	00000ae5 	.word	0x00000ae5
    1240:	2000010c 	.word	0x2000010c
    1244:	00000f95 	.word	0x00000f95

00001248 <sd_mmc_test_unit_ready_0>:
    1248:	b510      	push	{r4, lr}
    124a:	2000      	movs	r0, #0
    124c:	4b01      	ldr	r3, [pc, #4]	; (1254 <sd_mmc_test_unit_ready_0+0xc>)
    124e:	4798      	blx	r3
    1250:	bd10      	pop	{r4, pc}
    1252:	46c0      	nop			; (mov r8, r8)
    1254:	000011f9 	.word	0x000011f9

00001258 <sd_mmc_read_capacity>:
    1258:	b570      	push	{r4, r5, r6, lr}
    125a:	0004      	movs	r4, r0
    125c:	000d      	movs	r5, r1
    125e:	4b04      	ldr	r3, [pc, #16]	; (1270 <sd_mmc_read_capacity+0x18>)
    1260:	4798      	blx	r3
    1262:	0040      	lsls	r0, r0, #1
    1264:	3801      	subs	r0, #1
    1266:	6028      	str	r0, [r5, #0]
    1268:	0020      	movs	r0, r4
    126a:	4b02      	ldr	r3, [pc, #8]	; (1274 <sd_mmc_read_capacity+0x1c>)
    126c:	4798      	blx	r3
    126e:	bd70      	pop	{r4, r5, r6, pc}
    1270:	00000fbd 	.word	0x00000fbd
    1274:	000011f9 	.word	0x000011f9

00001278 <sd_mmc_read_capacity_0>:
    1278:	b510      	push	{r4, lr}
    127a:	0001      	movs	r1, r0
    127c:	2000      	movs	r0, #0
    127e:	4b01      	ldr	r3, [pc, #4]	; (1284 <sd_mmc_read_capacity_0+0xc>)
    1280:	4798      	blx	r3
    1282:	bd10      	pop	{r4, pc}
    1284:	00001259 	.word	0x00001259

00001288 <sd_mmc_wr_protect_0>:
    1288:	b510      	push	{r4, lr}
    128a:	2000      	movs	r0, #0
    128c:	4b01      	ldr	r3, [pc, #4]	; (1294 <sd_mmc_wr_protect_0+0xc>)
    128e:	4798      	blx	r3
    1290:	bd10      	pop	{r4, pc}
    1292:	46c0      	nop			; (mov r8, r8)
    1294:	00000fe5 	.word	0x00000fe5

00001298 <sd_mmc_mem_2_ram>:
    1298:	b510      	push	{r4, lr}
    129a:	0014      	movs	r4, r2
    129c:	2201      	movs	r2, #1
    129e:	4b0c      	ldr	r3, [pc, #48]	; (12d0 <sd_mmc_mem_2_ram+0x38>)
    12a0:	4798      	blx	r3
    12a2:	2800      	cmp	r0, #0
    12a4:	d004      	beq.n	12b0 <sd_mmc_mem_2_ram+0x18>
    12a6:	3802      	subs	r0, #2
    12a8:	4243      	negs	r3, r0
    12aa:	4158      	adcs	r0, r3
    12ac:	3001      	adds	r0, #1
    12ae:	bd10      	pop	{r4, pc}
    12b0:	2101      	movs	r1, #1
    12b2:	0020      	movs	r0, r4
    12b4:	4b07      	ldr	r3, [pc, #28]	; (12d4 <sd_mmc_mem_2_ram+0x3c>)
    12b6:	4798      	blx	r3
    12b8:	0003      	movs	r3, r0
    12ba:	2001      	movs	r0, #1
    12bc:	2b00      	cmp	r3, #0
    12be:	d1f6      	bne.n	12ae <sd_mmc_mem_2_ram+0x16>
    12c0:	2000      	movs	r0, #0
    12c2:	4b05      	ldr	r3, [pc, #20]	; (12d8 <sd_mmc_mem_2_ram+0x40>)
    12c4:	4798      	blx	r3
    12c6:	1e43      	subs	r3, r0, #1
    12c8:	4198      	sbcs	r0, r3
    12ca:	b2c0      	uxtb	r0, r0
    12cc:	e7ef      	b.n	12ae <sd_mmc_mem_2_ram+0x16>
    12ce:	46c0      	nop			; (mov r8, r8)
    12d0:	00000fe9 	.word	0x00000fe9
    12d4:	00001071 	.word	0x00001071
    12d8:	0000109d 	.word	0x0000109d

000012dc <sd_mmc_mem_2_ram_0>:
    12dc:	b510      	push	{r4, lr}
    12de:	000a      	movs	r2, r1
    12e0:	0001      	movs	r1, r0
    12e2:	2000      	movs	r0, #0
    12e4:	4b01      	ldr	r3, [pc, #4]	; (12ec <sd_mmc_mem_2_ram_0+0x10>)
    12e6:	4798      	blx	r3
    12e8:	bd10      	pop	{r4, pc}
    12ea:	46c0      	nop			; (mov r8, r8)
    12ec:	00001299 	.word	0x00001299

000012f0 <sd_mmc_ram_2_mem>:
    12f0:	b510      	push	{r4, lr}
    12f2:	0014      	movs	r4, r2
    12f4:	2201      	movs	r2, #1
    12f6:	4b0c      	ldr	r3, [pc, #48]	; (1328 <sd_mmc_ram_2_mem+0x38>)
    12f8:	4798      	blx	r3
    12fa:	2800      	cmp	r0, #0
    12fc:	d004      	beq.n	1308 <sd_mmc_ram_2_mem+0x18>
    12fe:	3802      	subs	r0, #2
    1300:	4243      	negs	r3, r0
    1302:	4158      	adcs	r0, r3
    1304:	3001      	adds	r0, #1
    1306:	bd10      	pop	{r4, pc}
    1308:	2101      	movs	r1, #1
    130a:	0020      	movs	r0, r4
    130c:	4b07      	ldr	r3, [pc, #28]	; (132c <sd_mmc_ram_2_mem+0x3c>)
    130e:	4798      	blx	r3
    1310:	0003      	movs	r3, r0
    1312:	2001      	movs	r0, #1
    1314:	2b00      	cmp	r3, #0
    1316:	d1f6      	bne.n	1306 <sd_mmc_ram_2_mem+0x16>
    1318:	2000      	movs	r0, #0
    131a:	4b05      	ldr	r3, [pc, #20]	; (1330 <sd_mmc_ram_2_mem+0x40>)
    131c:	4798      	blx	r3
    131e:	1e43      	subs	r3, r0, #1
    1320:	4198      	sbcs	r0, r3
    1322:	b2c0      	uxtb	r0, r0
    1324:	e7ef      	b.n	1306 <sd_mmc_ram_2_mem+0x16>
    1326:	46c0      	nop			; (mov r8, r8)
    1328:	0000110d 	.word	0x0000110d
    132c:	0000117d 	.word	0x0000117d
    1330:	000011a9 	.word	0x000011a9

00001334 <sd_mmc_ram_2_mem_0>:
    1334:	b510      	push	{r4, lr}
    1336:	000a      	movs	r2, r1
    1338:	0001      	movs	r1, r0
    133a:	2000      	movs	r0, #0
    133c:	4b01      	ldr	r3, [pc, #4]	; (1344 <sd_mmc_ram_2_mem_0+0x10>)
    133e:	4798      	blx	r3
    1340:	bd10      	pop	{r4, pc}
    1342:	46c0      	nop			; (mov r8, r8)
    1344:	000012f1 	.word	0x000012f1

00001348 <sd_mmc_spi_start_write_block>:
    1348:	b500      	push	{lr}
    134a:	b083      	sub	sp, #12
    134c:	466b      	mov	r3, sp
    134e:	1dd9      	adds	r1, r3, #7
    1350:	23ff      	movs	r3, #255	; 0xff
    1352:	700b      	strb	r3, [r1, #0]
    1354:	2201      	movs	r2, #1
    1356:	480b      	ldr	r0, [pc, #44]	; (1384 <sd_mmc_spi_start_write_block+0x3c>)
    1358:	4b0b      	ldr	r3, [pc, #44]	; (1388 <sd_mmc_spi_start_write_block+0x40>)
    135a:	4798      	blx	r3
    135c:	4b0b      	ldr	r3, [pc, #44]	; (138c <sd_mmc_spi_start_write_block+0x44>)
    135e:	881b      	ldrh	r3, [r3, #0]
    1360:	2b01      	cmp	r3, #1
    1362:	d00a      	beq.n	137a <sd_mmc_spi_start_write_block+0x32>
    1364:	22fc      	movs	r2, #252	; 0xfc
    1366:	466b      	mov	r3, sp
    1368:	719a      	strb	r2, [r3, #6]
    136a:	2201      	movs	r2, #1
    136c:	466b      	mov	r3, sp
    136e:	1d99      	adds	r1, r3, #6
    1370:	4804      	ldr	r0, [pc, #16]	; (1384 <sd_mmc_spi_start_write_block+0x3c>)
    1372:	4b05      	ldr	r3, [pc, #20]	; (1388 <sd_mmc_spi_start_write_block+0x40>)
    1374:	4798      	blx	r3
    1376:	b003      	add	sp, #12
    1378:	bd00      	pop	{pc}
    137a:	22fe      	movs	r2, #254	; 0xfe
    137c:	466b      	mov	r3, sp
    137e:	719a      	strb	r2, [r3, #6]
    1380:	e7f3      	b.n	136a <sd_mmc_spi_start_write_block+0x22>
    1382:	46c0      	nop			; (mov r8, r8)
    1384:	20000110 	.word	0x20000110
    1388:	00002659 	.word	0x00002659
    138c:	20000154 	.word	0x20000154

00001390 <sd_mmc_spi_wait_busy>:
    1390:	b5f0      	push	{r4, r5, r6, r7, lr}
    1392:	b083      	sub	sp, #12
    1394:	466b      	mov	r3, sp
    1396:	1ddc      	adds	r4, r3, #7
    1398:	23ff      	movs	r3, #255	; 0xff
    139a:	7023      	strb	r3, [r4, #0]
    139c:	4e12      	ldr	r6, [pc, #72]	; (13e8 <sd_mmc_spi_wait_busy+0x58>)
    139e:	2201      	movs	r2, #1
    13a0:	0021      	movs	r1, r4
    13a2:	0030      	movs	r0, r6
    13a4:	4d11      	ldr	r5, [pc, #68]	; (13ec <sd_mmc_spi_wait_busy+0x5c>)
    13a6:	47a8      	blx	r5
    13a8:	23ff      	movs	r3, #255	; 0xff
    13aa:	2201      	movs	r2, #1
    13ac:	0021      	movs	r1, r4
    13ae:	0030      	movs	r0, r6
    13b0:	47a8      	blx	r5
    13b2:	23ff      	movs	r3, #255	; 0xff
    13b4:	2201      	movs	r2, #1
    13b6:	0021      	movs	r1, r4
    13b8:	0030      	movs	r0, r6
    13ba:	47a8      	blx	r5
    13bc:	4c0c      	ldr	r4, [pc, #48]	; (13f0 <sd_mmc_spi_wait_busy+0x60>)
    13be:	466b      	mov	r3, sp
    13c0:	1ddd      	adds	r5, r3, #7
    13c2:	4e09      	ldr	r6, [pc, #36]	; (13e8 <sd_mmc_spi_wait_busy+0x58>)
    13c4:	4f09      	ldr	r7, [pc, #36]	; (13ec <sd_mmc_spi_wait_busy+0x5c>)
    13c6:	782b      	ldrb	r3, [r5, #0]
    13c8:	2bff      	cmp	r3, #255	; 0xff
    13ca:	d009      	beq.n	13e0 <sd_mmc_spi_wait_busy+0x50>
    13cc:	23ff      	movs	r3, #255	; 0xff
    13ce:	2201      	movs	r2, #1
    13d0:	0029      	movs	r1, r5
    13d2:	0030      	movs	r0, r6
    13d4:	47b8      	blx	r7
    13d6:	3c01      	subs	r4, #1
    13d8:	2c00      	cmp	r4, #0
    13da:	d1f4      	bne.n	13c6 <sd_mmc_spi_wait_busy+0x36>
    13dc:	2000      	movs	r0, #0
    13de:	e000      	b.n	13e2 <sd_mmc_spi_wait_busy+0x52>
    13e0:	2001      	movs	r0, #1
    13e2:	b003      	add	sp, #12
    13e4:	bdf0      	pop	{r4, r5, r6, r7, pc}
    13e6:	46c0      	nop			; (mov r8, r8)
    13e8:	20000110 	.word	0x20000110
    13ec:	00002491 	.word	0x00002491
    13f0:	00030d40 	.word	0x00030d40

000013f4 <sd_mmc_spi_stop_multiwrite_block>:
    13f4:	b570      	push	{r4, r5, r6, lr}
    13f6:	b082      	sub	sp, #8
    13f8:	4b14      	ldr	r3, [pc, #80]	; (144c <sd_mmc_spi_stop_multiwrite_block+0x58>)
    13fa:	881c      	ldrh	r4, [r3, #0]
    13fc:	2c01      	cmp	r4, #1
    13fe:	d023      	beq.n	1448 <sd_mmc_spi_stop_multiwrite_block+0x54>
    1400:	4b13      	ldr	r3, [pc, #76]	; (1450 <sd_mmc_spi_stop_multiwrite_block+0x5c>)
    1402:	8819      	ldrh	r1, [r3, #0]
    1404:	4b13      	ldr	r3, [pc, #76]	; (1454 <sd_mmc_spi_stop_multiwrite_block+0x60>)
    1406:	6818      	ldr	r0, [r3, #0]
    1408:	4b13      	ldr	r3, [pc, #76]	; (1458 <sd_mmc_spi_stop_multiwrite_block+0x64>)
    140a:	4798      	blx	r3
    140c:	2301      	movs	r3, #1
    140e:	4284      	cmp	r4, r0
    1410:	d902      	bls.n	1418 <sd_mmc_spi_stop_multiwrite_block+0x24>
    1412:	0018      	movs	r0, r3
    1414:	b002      	add	sp, #8
    1416:	bd70      	pop	{r4, r5, r6, pc}
    1418:	466b      	mov	r3, sp
    141a:	1ddc      	adds	r4, r3, #7
    141c:	23ff      	movs	r3, #255	; 0xff
    141e:	7023      	strb	r3, [r4, #0]
    1420:	4e0e      	ldr	r6, [pc, #56]	; (145c <sd_mmc_spi_stop_multiwrite_block+0x68>)
    1422:	2201      	movs	r2, #1
    1424:	0021      	movs	r1, r4
    1426:	0030      	movs	r0, r6
    1428:	4d0d      	ldr	r5, [pc, #52]	; (1460 <sd_mmc_spi_stop_multiwrite_block+0x6c>)
    142a:	47a8      	blx	r5
    142c:	23fd      	movs	r3, #253	; 0xfd
    142e:	7023      	strb	r3, [r4, #0]
    1430:	2201      	movs	r2, #1
    1432:	0021      	movs	r1, r4
    1434:	0030      	movs	r0, r6
    1436:	47a8      	blx	r5
    1438:	4b0a      	ldr	r3, [pc, #40]	; (1464 <sd_mmc_spi_stop_multiwrite_block+0x70>)
    143a:	4798      	blx	r3
    143c:	1e03      	subs	r3, r0, #0
    143e:	d1e8      	bne.n	1412 <sd_mmc_spi_stop_multiwrite_block+0x1e>
    1440:	2105      	movs	r1, #5
    1442:	4a09      	ldr	r2, [pc, #36]	; (1468 <sd_mmc_spi_stop_multiwrite_block+0x74>)
    1444:	7011      	strb	r1, [r2, #0]
    1446:	e7e4      	b.n	1412 <sd_mmc_spi_stop_multiwrite_block+0x1e>
    1448:	2301      	movs	r3, #1
    144a:	e7e2      	b.n	1412 <sd_mmc_spi_stop_multiwrite_block+0x1e>
    144c:	20000154 	.word	0x20000154
    1450:	2000014c 	.word	0x2000014c
    1454:	2000015c 	.word	0x2000015c
    1458:	00005ac9 	.word	0x00005ac9
    145c:	20000110 	.word	0x20000110
    1460:	00002659 	.word	0x00002659
    1464:	00001391 	.word	0x00001391
    1468:	20000153 	.word	0x20000153

0000146c <sd_mmc_spi_start_read_block>:
    146c:	b5f0      	push	{r4, r5, r6, r7, lr}
    146e:	b083      	sub	sp, #12
    1470:	2200      	movs	r2, #0
    1472:	466b      	mov	r3, sp
    1474:	71da      	strb	r2, [r3, #7]
    1476:	4c14      	ldr	r4, [pc, #80]	; (14c8 <sd_mmc_spi_start_read_block+0x5c>)
    1478:	466b      	mov	r3, sp
    147a:	1ddd      	adds	r5, r3, #7
    147c:	4e13      	ldr	r6, [pc, #76]	; (14cc <sd_mmc_spi_start_read_block+0x60>)
    147e:	4f14      	ldr	r7, [pc, #80]	; (14d0 <sd_mmc_spi_start_read_block+0x64>)
    1480:	23ff      	movs	r3, #255	; 0xff
    1482:	2201      	movs	r2, #1
    1484:	0029      	movs	r1, r5
    1486:	0030      	movs	r0, r6
    1488:	47b8      	blx	r7
    148a:	782b      	ldrb	r3, [r5, #0]
    148c:	220f      	movs	r2, #15
    148e:	0019      	movs	r1, r3
    1490:	4391      	bics	r1, r2
    1492:	1e0a      	subs	r2, r1, #0
    1494:	d009      	beq.n	14aa <sd_mmc_spi_start_read_block+0x3e>
    1496:	2bfe      	cmp	r3, #254	; 0xfe
    1498:	d013      	beq.n	14c2 <sd_mmc_spi_start_read_block+0x56>
    149a:	3c01      	subs	r4, #1
    149c:	2c00      	cmp	r4, #0
    149e:	d1ef      	bne.n	1480 <sd_mmc_spi_start_read_block+0x14>
    14a0:	2204      	movs	r2, #4
    14a2:	4b0c      	ldr	r3, [pc, #48]	; (14d4 <sd_mmc_spi_start_read_block+0x68>)
    14a4:	701a      	strb	r2, [r3, #0]
    14a6:	2000      	movs	r0, #0
    14a8:	e00c      	b.n	14c4 <sd_mmc_spi_start_read_block+0x58>
    14aa:	075b      	lsls	r3, r3, #29
    14ac:	d004      	beq.n	14b8 <sd_mmc_spi_start_read_block+0x4c>
    14ae:	3207      	adds	r2, #7
    14b0:	4b08      	ldr	r3, [pc, #32]	; (14d4 <sd_mmc_spi_start_read_block+0x68>)
    14b2:	701a      	strb	r2, [r3, #0]
    14b4:	2000      	movs	r0, #0
    14b6:	e005      	b.n	14c4 <sd_mmc_spi_start_read_block+0x58>
    14b8:	220b      	movs	r2, #11
    14ba:	4b06      	ldr	r3, [pc, #24]	; (14d4 <sd_mmc_spi_start_read_block+0x68>)
    14bc:	701a      	strb	r2, [r3, #0]
    14be:	2000      	movs	r0, #0
    14c0:	e000      	b.n	14c4 <sd_mmc_spi_start_read_block+0x58>
    14c2:	2001      	movs	r0, #1
    14c4:	b003      	add	sp, #12
    14c6:	bdf0      	pop	{r4, r5, r6, r7, pc}
    14c8:	0007a120 	.word	0x0007a120
    14cc:	20000110 	.word	0x20000110
    14d0:	00002491 	.word	0x00002491
    14d4:	20000153 	.word	0x20000153

000014d8 <sd_mmc_spi_stop_write_block>:
    14d8:	b530      	push	{r4, r5, lr}
    14da:	b083      	sub	sp, #12
    14dc:	a901      	add	r1, sp, #4
    14de:	2301      	movs	r3, #1
    14e0:	425b      	negs	r3, r3
    14e2:	800b      	strh	r3, [r1, #0]
    14e4:	4d14      	ldr	r5, [pc, #80]	; (1538 <sd_mmc_spi_stop_write_block+0x60>)
    14e6:	2202      	movs	r2, #2
    14e8:	0028      	movs	r0, r5
    14ea:	4b14      	ldr	r3, [pc, #80]	; (153c <sd_mmc_spi_stop_write_block+0x64>)
    14ec:	4798      	blx	r3
    14ee:	466b      	mov	r3, sp
    14f0:	1ddc      	adds	r4, r3, #7
    14f2:	23ff      	movs	r3, #255	; 0xff
    14f4:	2201      	movs	r2, #1
    14f6:	0021      	movs	r1, r4
    14f8:	0028      	movs	r0, r5
    14fa:	4d11      	ldr	r5, [pc, #68]	; (1540 <sd_mmc_spi_stop_write_block+0x68>)
    14fc:	47a8      	blx	r5
    14fe:	7822      	ldrb	r2, [r4, #0]
    1500:	2311      	movs	r3, #17
    1502:	4013      	ands	r3, r2
    1504:	2b01      	cmp	r3, #1
    1506:	d005      	beq.n	1514 <sd_mmc_spi_stop_write_block+0x3c>
    1508:	2201      	movs	r2, #1
    150a:	4b0e      	ldr	r3, [pc, #56]	; (1544 <sd_mmc_spi_stop_write_block+0x6c>)
    150c:	701a      	strb	r2, [r3, #0]
    150e:	2000      	movs	r0, #0
    1510:	b003      	add	sp, #12
    1512:	bd30      	pop	{r4, r5, pc}
    1514:	231e      	movs	r3, #30
    1516:	401a      	ands	r2, r3
    1518:	2a04      	cmp	r2, #4
    151a:	d00b      	beq.n	1534 <sd_mmc_spi_stop_write_block+0x5c>
    151c:	2a0a      	cmp	r2, #10
    151e:	d104      	bne.n	152a <sd_mmc_spi_stop_write_block+0x52>
    1520:	3a02      	subs	r2, #2
    1522:	4b08      	ldr	r3, [pc, #32]	; (1544 <sd_mmc_spi_stop_write_block+0x6c>)
    1524:	701a      	strb	r2, [r3, #0]
    1526:	2000      	movs	r0, #0
    1528:	e7f2      	b.n	1510 <sd_mmc_spi_stop_write_block+0x38>
    152a:	220a      	movs	r2, #10
    152c:	4b05      	ldr	r3, [pc, #20]	; (1544 <sd_mmc_spi_stop_write_block+0x6c>)
    152e:	701a      	strb	r2, [r3, #0]
    1530:	2000      	movs	r0, #0
    1532:	e7ed      	b.n	1510 <sd_mmc_spi_stop_write_block+0x38>
    1534:	2001      	movs	r0, #1
    1536:	e7eb      	b.n	1510 <sd_mmc_spi_stop_write_block+0x38>
    1538:	20000110 	.word	0x20000110
    153c:	00002659 	.word	0x00002659
    1540:	00002491 	.word	0x00002491
    1544:	20000153 	.word	0x20000153

00001548 <sd_mmc_deinit>:
    1548:	b510      	push	{r4, lr}
    154a:	4802      	ldr	r0, [pc, #8]	; (1554 <sd_mmc_deinit+0xc>)
    154c:	4b02      	ldr	r3, [pc, #8]	; (1558 <sd_mmc_deinit+0x10>)
    154e:	4798      	blx	r3
    1550:	bd10      	pop	{r4, pc}
    1552:	46c0      	nop			; (mov r8, r8)
    1554:	20000110 	.word	0x20000110
    1558:	000021b5 	.word	0x000021b5

0000155c <sd_mmc_spi_init>:
    155c:	b570      	push	{r4, r5, r6, lr}
    155e:	b090      	sub	sp, #64	; 0x40
    1560:	2300      	movs	r3, #0
    1562:	4a2d      	ldr	r2, [pc, #180]	; (1618 <sd_mmc_spi_init+0xbc>)
    1564:	7013      	strb	r3, [r2, #0]
    1566:	ac02      	add	r4, sp, #8
    1568:	2501      	movs	r5, #1
    156a:	7025      	strb	r5, [r4, #0]
    156c:	9303      	str	r3, [sp, #12]
    156e:	9304      	str	r3, [sp, #16]
    1570:	7423      	strb	r3, [r4, #16]
    1572:	7463      	strb	r3, [r4, #17]
    1574:	74a5      	strb	r5, [r4, #18]
    1576:	74e5      	strb	r5, [r4, #19]
    1578:	7523      	strb	r3, [r4, #20]
    157a:	2224      	movs	r2, #36	; 0x24
    157c:	54a3      	strb	r3, [r4, r2]
    157e:	3a18      	subs	r2, #24
    1580:	2100      	movs	r1, #0
    1582:	a808      	add	r0, sp, #32
    1584:	4b25      	ldr	r3, [pc, #148]	; (161c <sd_mmc_spi_init+0xc0>)
    1586:	4798      	blx	r3
    1588:	2380      	movs	r3, #128	; 0x80
    158a:	025b      	lsls	r3, r3, #9
    158c:	60e3      	str	r3, [r4, #12]
    158e:	4b24      	ldr	r3, [pc, #144]	; (1620 <sd_mmc_spi_init+0xc4>)
    1590:	62a3      	str	r3, [r4, #40]	; 0x28
    1592:	4b24      	ldr	r3, [pc, #144]	; (1624 <sd_mmc_spi_init+0xc8>)
    1594:	62e3      	str	r3, [r4, #44]	; 0x2c
    1596:	4b24      	ldr	r3, [pc, #144]	; (1628 <sd_mmc_spi_init+0xcc>)
    1598:	6323      	str	r3, [r4, #48]	; 0x30
    159a:	4b24      	ldr	r3, [pc, #144]	; (162c <sd_mmc_spi_init+0xd0>)
    159c:	6363      	str	r3, [r4, #52]	; 0x34
    159e:	4b24      	ldr	r3, [pc, #144]	; (1630 <sd_mmc_spi_init+0xd4>)
    15a0:	61a3      	str	r3, [r4, #24]
    15a2:	4e24      	ldr	r6, [pc, #144]	; (1634 <sd_mmc_spi_init+0xd8>)
    15a4:	0022      	movs	r2, r4
    15a6:	4924      	ldr	r1, [pc, #144]	; (1638 <sd_mmc_spi_init+0xdc>)
    15a8:	0030      	movs	r0, r6
    15aa:	4b24      	ldr	r3, [pc, #144]	; (163c <sd_mmc_spi_init+0xe0>)
    15ac:	4798      	blx	r3
    15ae:	6834      	ldr	r4, [r6, #0]
    15b0:	0020      	movs	r0, r4
    15b2:	4b23      	ldr	r3, [pc, #140]	; (1640 <sd_mmc_spi_init+0xe4>)
    15b4:	4798      	blx	r3
    15b6:	231f      	movs	r3, #31
    15b8:	4018      	ands	r0, r3
    15ba:	4085      	lsls	r5, r0
    15bc:	4b21      	ldr	r3, [pc, #132]	; (1644 <sd_mmc_spi_init+0xe8>)
    15be:	601d      	str	r5, [r3, #0]
    15c0:	6832      	ldr	r2, [r6, #0]
    15c2:	69d3      	ldr	r3, [r2, #28]
    15c4:	2b00      	cmp	r3, #0
    15c6:	d1fc      	bne.n	15c2 <sd_mmc_spi_init+0x66>
    15c8:	6823      	ldr	r3, [r4, #0]
    15ca:	2202      	movs	r2, #2
    15cc:	4313      	orrs	r3, r2
    15ce:	6023      	str	r3, [r4, #0]
    15d0:	4a1d      	ldr	r2, [pc, #116]	; (1648 <sd_mmc_spi_init+0xec>)
    15d2:	2300      	movs	r3, #0
    15d4:	7053      	strb	r3, [r2, #1]
    15d6:	7093      	strb	r3, [r2, #2]
    15d8:	491c      	ldr	r1, [pc, #112]	; (164c <sd_mmc_spi_init+0xf0>)
    15da:	7808      	ldrb	r0, [r1, #0]
    15dc:	7010      	strb	r0, [r2, #0]
    15de:	4c1c      	ldr	r4, [pc, #112]	; (1650 <sd_mmc_spi_init+0xf4>)
    15e0:	7020      	strb	r0, [r4, #0]
    15e2:	7063      	strb	r3, [r4, #1]
    15e4:	70a3      	strb	r3, [r4, #2]
    15e6:	a901      	add	r1, sp, #4
    15e8:	2201      	movs	r2, #1
    15ea:	704a      	strb	r2, [r1, #1]
    15ec:	708b      	strb	r3, [r1, #2]
    15ee:	700a      	strb	r2, [r1, #0]
    15f0:	4b18      	ldr	r3, [pc, #96]	; (1654 <sd_mmc_spi_init+0xf8>)
    15f2:	4798      	blx	r3
    15f4:	7822      	ldrb	r2, [r4, #0]
    15f6:	09d1      	lsrs	r1, r2, #7
    15f8:	2300      	movs	r3, #0
    15fa:	2900      	cmp	r1, #0
    15fc:	d104      	bne.n	1608 <sd_mmc_spi_init+0xac>
    15fe:	0953      	lsrs	r3, r2, #5
    1600:	01db      	lsls	r3, r3, #7
    1602:	4915      	ldr	r1, [pc, #84]	; (1658 <sd_mmc_spi_init+0xfc>)
    1604:	468c      	mov	ip, r1
    1606:	4463      	add	r3, ip
    1608:	211f      	movs	r1, #31
    160a:	4011      	ands	r1, r2
    160c:	2201      	movs	r2, #1
    160e:	408a      	lsls	r2, r1
    1610:	619a      	str	r2, [r3, #24]
    1612:	b010      	add	sp, #64	; 0x40
    1614:	bd70      	pop	{r4, r5, r6, pc}
    1616:	46c0      	nop			; (mov r8, r8)
    1618:	20000153 	.word	0x20000153
    161c:	00005e65 	.word	0x00005e65
    1620:	00100002 	.word	0x00100002
    1624:	00110002 	.word	0x00110002
    1628:	00120002 	.word	0x00120002
    162c:	00130002 	.word	0x00130002
    1630:	00061a80 	.word	0x00061a80
    1634:	20000110 	.word	0x20000110
    1638:	42000c00 	.word	0x42000c00
    163c:	000022b9 	.word	0x000022b9
    1640:	00002125 	.word	0x00002125
    1644:	e000e100 	.word	0xe000e100
    1648:	20000160 	.word	0x20000160
    164c:	20000008 	.word	0x20000008
    1650:	20000150 	.word	0x20000150
    1654:	00001b75 	.word	0x00001b75
    1658:	41004400 	.word	0x41004400

0000165c <sd_mmc_spi_select_device>:
    165c:	b5f8      	push	{r3, r4, r5, r6, r7, lr}
    165e:	0007      	movs	r7, r0
    1660:	2200      	movs	r2, #0
    1662:	4b0d      	ldr	r3, [pc, #52]	; (1698 <sd_mmc_spi_select_device+0x3c>)
    1664:	701a      	strb	r2, [r3, #0]
    1666:	000c      	movs	r4, r1
    1668:	4b0c      	ldr	r3, [pc, #48]	; (169c <sd_mmc_spi_select_device+0x40>)
    166a:	4299      	cmp	r1, r3
    166c:	d900      	bls.n	1670 <sd_mmc_spi_select_device+0x14>
    166e:	001c      	movs	r4, r3
    1670:	4d0b      	ldr	r5, [pc, #44]	; (16a0 <sd_mmc_spi_select_device+0x44>)
    1672:	4e0c      	ldr	r6, [pc, #48]	; (16a4 <sd_mmc_spi_select_device+0x48>)
    1674:	e001      	b.n	167a <sd_mmc_spi_select_device+0x1e>
    1676:	08e3      	lsrs	r3, r4, #3
    1678:	1ae4      	subs	r4, r4, r3
    167a:	0021      	movs	r1, r4
    167c:	0028      	movs	r0, r5
    167e:	47b0      	blx	r6
    1680:	2817      	cmp	r0, #23
    1682:	d0f8      	beq.n	1676 <sd_mmc_spi_select_device+0x1a>
    1684:	0079      	lsls	r1, r7, #1
    1686:	19cf      	adds	r7, r1, r7
    1688:	4907      	ldr	r1, [pc, #28]	; (16a8 <sd_mmc_spi_select_device+0x4c>)
    168a:	19c9      	adds	r1, r1, r7
    168c:	2201      	movs	r2, #1
    168e:	4804      	ldr	r0, [pc, #16]	; (16a0 <sd_mmc_spi_select_device+0x44>)
    1690:	4b06      	ldr	r3, [pc, #24]	; (16ac <sd_mmc_spi_select_device+0x50>)
    1692:	4798      	blx	r3
    1694:	bdf8      	pop	{r3, r4, r5, r6, r7, pc}
    1696:	46c0      	nop			; (mov r8, r8)
    1698:	20000153 	.word	0x20000153
    169c:	00989680 	.word	0x00989680
    16a0:	20000110 	.word	0x20000110
    16a4:	00002201 	.word	0x00002201
    16a8:	20000150 	.word	0x20000150
    16ac:	00002565 	.word	0x00002565

000016b0 <sd_mmc_spi_deselect_device>:
    16b0:	b510      	push	{r4, lr}
    16b2:	2200      	movs	r2, #0
    16b4:	4b04      	ldr	r3, [pc, #16]	; (16c8 <sd_mmc_spi_deselect_device+0x18>)
    16b6:	701a      	strb	r2, [r3, #0]
    16b8:	0041      	lsls	r1, r0, #1
    16ba:	1808      	adds	r0, r1, r0
    16bc:	4903      	ldr	r1, [pc, #12]	; (16cc <sd_mmc_spi_deselect_device+0x1c>)
    16be:	1809      	adds	r1, r1, r0
    16c0:	4803      	ldr	r0, [pc, #12]	; (16d0 <sd_mmc_spi_deselect_device+0x20>)
    16c2:	4b04      	ldr	r3, [pc, #16]	; (16d4 <sd_mmc_spi_deselect_device+0x24>)
    16c4:	4798      	blx	r3
    16c6:	bd10      	pop	{r4, pc}
    16c8:	20000153 	.word	0x20000153
    16cc:	20000150 	.word	0x20000150
    16d0:	20000110 	.word	0x20000110
    16d4:	00002565 	.word	0x00002565

000016d8 <sd_mmc_spi_send_clock>:
    16d8:	b570      	push	{r4, r5, r6, lr}
    16da:	b082      	sub	sp, #8
    16dc:	22ff      	movs	r2, #255	; 0xff
    16de:	466b      	mov	r3, sp
    16e0:	71da      	strb	r2, [r3, #7]
    16e2:	2200      	movs	r2, #0
    16e4:	4b07      	ldr	r3, [pc, #28]	; (1704 <sd_mmc_spi_send_clock+0x2c>)
    16e6:	701a      	strb	r2, [r3, #0]
    16e8:	240a      	movs	r4, #10
    16ea:	4e07      	ldr	r6, [pc, #28]	; (1708 <sd_mmc_spi_send_clock+0x30>)
    16ec:	4d07      	ldr	r5, [pc, #28]	; (170c <sd_mmc_spi_send_clock+0x34>)
    16ee:	2201      	movs	r2, #1
    16f0:	466b      	mov	r3, sp
    16f2:	1dd9      	adds	r1, r3, #7
    16f4:	0030      	movs	r0, r6
    16f6:	47a8      	blx	r5
    16f8:	3c01      	subs	r4, #1
    16fa:	b2e4      	uxtb	r4, r4
    16fc:	2c00      	cmp	r4, #0
    16fe:	d1f6      	bne.n	16ee <sd_mmc_spi_send_clock+0x16>
    1700:	b002      	add	sp, #8
    1702:	bd70      	pop	{r4, r5, r6, pc}
    1704:	20000153 	.word	0x20000153
    1708:	20000110 	.word	0x20000110
    170c:	00002659 	.word	0x00002659

00001710 <sd_mmc_spi_adtc_start>:
    1710:	b5f0      	push	{r4, r5, r6, r7, lr}
    1712:	46c6      	mov	lr, r8
    1714:	b500      	push	{lr}
    1716:	b086      	sub	sp, #24
    1718:	4680      	mov	r8, r0
    171a:	9200      	str	r2, [sp, #0]
    171c:	9301      	str	r3, [sp, #4]
    171e:	22ff      	movs	r2, #255	; 0xff
    1720:	230f      	movs	r3, #15
    1722:	a802      	add	r0, sp, #8
    1724:	4684      	mov	ip, r0
    1726:	4463      	add	r3, ip
    1728:	701a      	strb	r2, [r3, #0]
    172a:	2200      	movs	r2, #0
    172c:	4b53      	ldr	r3, [pc, #332]	; (187c <sd_mmc_spi_adtc_start+0x16c>)
    172e:	701a      	strb	r2, [r3, #0]
    1730:	ab04      	add	r3, sp, #16
    1732:	323f      	adds	r2, #63	; 0x3f
    1734:	4640      	mov	r0, r8
    1736:	4002      	ands	r2, r0
    1738:	2040      	movs	r0, #64	; 0x40
    173a:	4302      	orrs	r2, r0
    173c:	701a      	strb	r2, [r3, #0]
    173e:	0e0a      	lsrs	r2, r1, #24
    1740:	705a      	strb	r2, [r3, #1]
    1742:	0c0a      	lsrs	r2, r1, #16
    1744:	709a      	strb	r2, [r3, #2]
    1746:	0a0a      	lsrs	r2, r1, #8
    1748:	70da      	strb	r2, [r3, #3]
    174a:	7119      	strb	r1, [r3, #4]
    174c:	2700      	movs	r7, #0
    174e:	2300      	movs	r3, #0
    1750:	a904      	add	r1, sp, #16
    1752:	2208      	movs	r2, #8
    1754:	2409      	movs	r4, #9
    1756:	e011      	b.n	177c <sd_mmc_spi_adtc_start+0x6c>
    1758:	0076      	lsls	r6, r6, #1
    175a:	b2f6      	uxtb	r6, r6
    175c:	3801      	subs	r0, #1
    175e:	b2c0      	uxtb	r0, r0
    1760:	2800      	cmp	r0, #0
    1762:	d008      	beq.n	1776 <sd_mmc_spi_adtc_start+0x66>
    1764:	005b      	lsls	r3, r3, #1
    1766:	b2db      	uxtb	r3, r3
    1768:	001d      	movs	r5, r3
    176a:	4075      	eors	r5, r6
    176c:	062d      	lsls	r5, r5, #24
    176e:	d5f3      	bpl.n	1758 <sd_mmc_spi_adtc_start+0x48>
    1770:	4063      	eors	r3, r4
    1772:	b2db      	uxtb	r3, r3
    1774:	e7f0      	b.n	1758 <sd_mmc_spi_adtc_start+0x48>
    1776:	3701      	adds	r7, #1
    1778:	2f05      	cmp	r7, #5
    177a:	d002      	beq.n	1782 <sd_mmc_spi_adtc_start+0x72>
    177c:	5c7e      	ldrb	r6, [r7, r1]
    177e:	0010      	movs	r0, r2
    1780:	e7f0      	b.n	1764 <sd_mmc_spi_adtc_start+0x54>
    1782:	005b      	lsls	r3, r3, #1
    1784:	2201      	movs	r2, #1
    1786:	4313      	orrs	r3, r2
    1788:	ac04      	add	r4, sp, #16
    178a:	7163      	strb	r3, [r4, #5]
    178c:	4e3c      	ldr	r6, [pc, #240]	; (1880 <sd_mmc_spi_adtc_start+0x170>)
    178e:	2201      	movs	r2, #1
    1790:	210f      	movs	r1, #15
    1792:	ab02      	add	r3, sp, #8
    1794:	469c      	mov	ip, r3
    1796:	4461      	add	r1, ip
    1798:	0030      	movs	r0, r6
    179a:	4f3a      	ldr	r7, [pc, #232]	; (1884 <sd_mmc_spi_adtc_start+0x174>)
    179c:	47b8      	blx	r7
    179e:	2206      	movs	r2, #6
    17a0:	0021      	movs	r1, r4
    17a2:	0030      	movs	r0, r6
    17a4:	47b8      	blx	r7
    17a6:	ab02      	add	r3, sp, #8
    17a8:	1dd9      	adds	r1, r3, #7
    17aa:	23ff      	movs	r3, #255	; 0xff
    17ac:	700b      	strb	r3, [r1, #0]
    17ae:	2201      	movs	r2, #1
    17b0:	0030      	movs	r0, r6
    17b2:	4e35      	ldr	r6, [pc, #212]	; (1888 <sd_mmc_spi_adtc_start+0x178>)
    17b4:	47b0      	blx	r6
    17b6:	2407      	movs	r4, #7
    17b8:	ab02      	add	r3, sp, #8
    17ba:	1dde      	adds	r6, r3, #7
    17bc:	4f30      	ldr	r7, [pc, #192]	; (1880 <sd_mmc_spi_adtc_start+0x170>)
    17be:	4d32      	ldr	r5, [pc, #200]	; (1888 <sd_mmc_spi_adtc_start+0x178>)
    17c0:	23ff      	movs	r3, #255	; 0xff
    17c2:	2201      	movs	r2, #1
    17c4:	0031      	movs	r1, r6
    17c6:	0038      	movs	r0, r7
    17c8:	47a8      	blx	r5
    17ca:	7833      	ldrb	r3, [r6, #0]
    17cc:	b25a      	sxtb	r2, r3
    17ce:	2a00      	cmp	r2, #0
    17d0:	da0b      	bge.n	17ea <sd_mmc_spi_adtc_start+0xda>
    17d2:	3c01      	subs	r4, #1
    17d4:	b2e4      	uxtb	r4, r4
    17d6:	2c00      	cmp	r4, #0
    17d8:	d1f2      	bne.n	17c0 <sd_mmc_spi_adtc_start+0xb0>
    17da:	2202      	movs	r2, #2
    17dc:	4b27      	ldr	r3, [pc, #156]	; (187c <sd_mmc_spi_adtc_start+0x16c>)
    17de:	701a      	strb	r2, [r3, #0]
    17e0:	2000      	movs	r0, #0
    17e2:	b006      	add	sp, #24
    17e4:	bc04      	pop	{r2}
    17e6:	4690      	mov	r8, r2
    17e8:	bdf0      	pop	{r4, r5, r6, r7, pc}
    17ea:	4a28      	ldr	r2, [pc, #160]	; (188c <sd_mmc_spi_adtc_start+0x17c>)
    17ec:	6013      	str	r3, [r2, #0]
    17ee:	071a      	lsls	r2, r3, #28
    17f0:	d41a      	bmi.n	1828 <sd_mmc_spi_adtc_start+0x118>
    17f2:	075a      	lsls	r2, r3, #29
    17f4:	d41d      	bmi.n	1832 <sd_mmc_spi_adtc_start+0x122>
    17f6:	2201      	movs	r2, #1
    17f8:	4393      	bics	r3, r2
    17fa:	d11f      	bne.n	183c <sd_mmc_spi_adtc_start+0x12c>
    17fc:	4643      	mov	r3, r8
    17fe:	049b      	lsls	r3, r3, #18
    1800:	d420      	bmi.n	1844 <sd_mmc_spi_adtc_start+0x134>
    1802:	4643      	mov	r3, r8
    1804:	059b      	lsls	r3, r3, #22
    1806:	d425      	bmi.n	1854 <sd_mmc_spi_adtc_start+0x144>
    1808:	4643      	mov	r3, r8
    180a:	055b      	lsls	r3, r3, #21
    180c:	d42b      	bmi.n	1866 <sd_mmc_spi_adtc_start+0x156>
    180e:	4b20      	ldr	r3, [pc, #128]	; (1890 <sd_mmc_spi_adtc_start+0x180>)
    1810:	466a      	mov	r2, sp
    1812:	8812      	ldrh	r2, [r2, #0]
    1814:	801a      	strh	r2, [r3, #0]
    1816:	4b1f      	ldr	r3, [pc, #124]	; (1894 <sd_mmc_spi_adtc_start+0x184>)
    1818:	466a      	mov	r2, sp
    181a:	8892      	ldrh	r2, [r2, #4]
    181c:	801a      	strh	r2, [r3, #0]
    181e:	2200      	movs	r2, #0
    1820:	4b1d      	ldr	r3, [pc, #116]	; (1898 <sd_mmc_spi_adtc_start+0x188>)
    1822:	601a      	str	r2, [r3, #0]
    1824:	2001      	movs	r0, #1
    1826:	e7dc      	b.n	17e2 <sd_mmc_spi_adtc_start+0xd2>
    1828:	2206      	movs	r2, #6
    182a:	4b14      	ldr	r3, [pc, #80]	; (187c <sd_mmc_spi_adtc_start+0x16c>)
    182c:	701a      	strb	r2, [r3, #0]
    182e:	2000      	movs	r0, #0
    1830:	e7d7      	b.n	17e2 <sd_mmc_spi_adtc_start+0xd2>
    1832:	2209      	movs	r2, #9
    1834:	4b11      	ldr	r3, [pc, #68]	; (187c <sd_mmc_spi_adtc_start+0x16c>)
    1836:	701a      	strb	r2, [r3, #0]
    1838:	2000      	movs	r0, #0
    183a:	e7d2      	b.n	17e2 <sd_mmc_spi_adtc_start+0xd2>
    183c:	4b0f      	ldr	r3, [pc, #60]	; (187c <sd_mmc_spi_adtc_start+0x16c>)
    183e:	701a      	strb	r2, [r3, #0]
    1840:	2000      	movs	r0, #0
    1842:	e7ce      	b.n	17e2 <sd_mmc_spi_adtc_start+0xd2>
    1844:	4b15      	ldr	r3, [pc, #84]	; (189c <sd_mmc_spi_adtc_start+0x18c>)
    1846:	4798      	blx	r3
    1848:	2800      	cmp	r0, #0
    184a:	d1da      	bne.n	1802 <sd_mmc_spi_adtc_start+0xf2>
    184c:	2203      	movs	r2, #3
    184e:	4b0b      	ldr	r3, [pc, #44]	; (187c <sd_mmc_spi_adtc_start+0x16c>)
    1850:	701a      	strb	r2, [r3, #0]
    1852:	e7c6      	b.n	17e2 <sd_mmc_spi_adtc_start+0xd2>
    1854:	490d      	ldr	r1, [pc, #52]	; (188c <sd_mmc_spi_adtc_start+0x17c>)
    1856:	2300      	movs	r3, #0
    1858:	600b      	str	r3, [r1, #0]
    185a:	33ff      	adds	r3, #255	; 0xff
    185c:	2201      	movs	r2, #1
    185e:	4808      	ldr	r0, [pc, #32]	; (1880 <sd_mmc_spi_adtc_start+0x170>)
    1860:	4e09      	ldr	r6, [pc, #36]	; (1888 <sd_mmc_spi_adtc_start+0x178>)
    1862:	47b0      	blx	r6
    1864:	e7d0      	b.n	1808 <sd_mmc_spi_adtc_start+0xf8>
    1866:	4e09      	ldr	r6, [pc, #36]	; (188c <sd_mmc_spi_adtc_start+0x17c>)
    1868:	23ff      	movs	r3, #255	; 0xff
    186a:	2204      	movs	r2, #4
    186c:	0031      	movs	r1, r6
    186e:	4804      	ldr	r0, [pc, #16]	; (1880 <sd_mmc_spi_adtc_start+0x170>)
    1870:	4f05      	ldr	r7, [pc, #20]	; (1888 <sd_mmc_spi_adtc_start+0x178>)
    1872:	47b8      	blx	r7
    1874:	6833      	ldr	r3, [r6, #0]
    1876:	ba1b      	rev	r3, r3
    1878:	6033      	str	r3, [r6, #0]
    187a:	e7c8      	b.n	180e <sd_mmc_spi_adtc_start+0xfe>
    187c:	20000153 	.word	0x20000153
    1880:	20000110 	.word	0x20000110
    1884:	00002659 	.word	0x00002659
    1888:	00002491 	.word	0x00002491
    188c:	20000158 	.word	0x20000158
    1890:	2000014c 	.word	0x2000014c
    1894:	20000154 	.word	0x20000154
    1898:	2000015c 	.word	0x2000015c
    189c:	00001391 	.word	0x00001391

000018a0 <sd_mmc_spi_send_cmd>:
    18a0:	b510      	push	{r4, lr}
    18a2:	b082      	sub	sp, #8
    18a4:	2300      	movs	r3, #0
    18a6:	9300      	str	r3, [sp, #0]
    18a8:	2200      	movs	r2, #0
    18aa:	4c02      	ldr	r4, [pc, #8]	; (18b4 <sd_mmc_spi_send_cmd+0x14>)
    18ac:	47a0      	blx	r4
    18ae:	b002      	add	sp, #8
    18b0:	bd10      	pop	{r4, pc}
    18b2:	46c0      	nop			; (mov r8, r8)
    18b4:	00001711 	.word	0x00001711

000018b8 <sd_mmc_spi_get_response>:
    18b8:	4b01      	ldr	r3, [pc, #4]	; (18c0 <sd_mmc_spi_get_response+0x8>)
    18ba:	6818      	ldr	r0, [r3, #0]
    18bc:	4770      	bx	lr
    18be:	46c0      	nop			; (mov r8, r8)
    18c0:	20000158 	.word	0x20000158

000018c4 <sd_mmc_spi_read_word>:
    18c4:	b510      	push	{r4, lr}
    18c6:	b084      	sub	sp, #16
    18c8:	9001      	str	r0, [sp, #4]
    18ca:	2200      	movs	r2, #0
    18cc:	4b14      	ldr	r3, [pc, #80]	; (1920 <sd_mmc_spi_read_word+0x5c>)
    18ce:	701a      	strb	r2, [r3, #0]
    18d0:	4b14      	ldr	r3, [pc, #80]	; (1924 <sd_mmc_spi_read_word+0x60>)
    18d2:	8819      	ldrh	r1, [r3, #0]
    18d4:	4b14      	ldr	r3, [pc, #80]	; (1928 <sd_mmc_spi_read_word+0x64>)
    18d6:	6818      	ldr	r0, [r3, #0]
    18d8:	4b14      	ldr	r3, [pc, #80]	; (192c <sd_mmc_spi_read_word+0x68>)
    18da:	4798      	blx	r3
    18dc:	2900      	cmp	r1, #0
    18de:	d103      	bne.n	18e8 <sd_mmc_spi_read_word+0x24>
    18e0:	4b13      	ldr	r3, [pc, #76]	; (1930 <sd_mmc_spi_read_word+0x6c>)
    18e2:	4798      	blx	r3
    18e4:	2800      	cmp	r0, #0
    18e6:	d010      	beq.n	190a <sd_mmc_spi_read_word+0x46>
    18e8:	23ff      	movs	r3, #255	; 0xff
    18ea:	2204      	movs	r2, #4
    18ec:	a901      	add	r1, sp, #4
    18ee:	4811      	ldr	r0, [pc, #68]	; (1934 <sd_mmc_spi_read_word+0x70>)
    18f0:	4c11      	ldr	r4, [pc, #68]	; (1938 <sd_mmc_spi_read_word+0x74>)
    18f2:	47a0      	blx	r4
    18f4:	4b0c      	ldr	r3, [pc, #48]	; (1928 <sd_mmc_spi_read_word+0x64>)
    18f6:	681a      	ldr	r2, [r3, #0]
    18f8:	1d10      	adds	r0, r2, #4
    18fa:	6018      	str	r0, [r3, #0]
    18fc:	4b09      	ldr	r3, [pc, #36]	; (1924 <sd_mmc_spi_read_word+0x60>)
    18fe:	8819      	ldrh	r1, [r3, #0]
    1900:	4b0a      	ldr	r3, [pc, #40]	; (192c <sd_mmc_spi_read_word+0x68>)
    1902:	4798      	blx	r3
    1904:	2001      	movs	r0, #1
    1906:	2900      	cmp	r1, #0
    1908:	d001      	beq.n	190e <sd_mmc_spi_read_word+0x4a>
    190a:	b004      	add	sp, #16
    190c:	bd10      	pop	{r4, pc}
    190e:	23ff      	movs	r3, #255	; 0xff
    1910:	2202      	movs	r2, #2
    1912:	a903      	add	r1, sp, #12
    1914:	4807      	ldr	r0, [pc, #28]	; (1934 <sd_mmc_spi_read_word+0x70>)
    1916:	4c08      	ldr	r4, [pc, #32]	; (1938 <sd_mmc_spi_read_word+0x74>)
    1918:	47a0      	blx	r4
    191a:	2001      	movs	r0, #1
    191c:	e7f5      	b.n	190a <sd_mmc_spi_read_word+0x46>
    191e:	46c0      	nop			; (mov r8, r8)
    1920:	20000153 	.word	0x20000153
    1924:	2000014c 	.word	0x2000014c
    1928:	2000015c 	.word	0x2000015c
    192c:	00005bd5 	.word	0x00005bd5
    1930:	0000146d 	.word	0x0000146d
    1934:	20000110 	.word	0x20000110
    1938:	00002491 	.word	0x00002491

0000193c <sd_mmc_spi_start_read_blocks>:
    193c:	b5f0      	push	{r4, r5, r6, r7, lr}
    193e:	46de      	mov	lr, fp
    1940:	4657      	mov	r7, sl
    1942:	4646      	mov	r6, r8
    1944:	b5c0      	push	{r6, r7, lr}
    1946:	b082      	sub	sp, #8
    1948:	4683      	mov	fp, r0
    194a:	2200      	movs	r2, #0
    194c:	4b17      	ldr	r3, [pc, #92]	; (19ac <sd_mmc_spi_start_read_blocks+0x70>)
    194e:	701a      	strb	r2, [r3, #0]
    1950:	1e4c      	subs	r4, r1, #1
    1952:	b2a4      	uxth	r4, r4
    1954:	2900      	cmp	r1, #0
    1956:	d026      	beq.n	19a6 <sd_mmc_spi_start_read_blocks+0x6a>
    1958:	2600      	movs	r6, #0
    195a:	4b15      	ldr	r3, [pc, #84]	; (19b0 <sd_mmc_spi_start_read_blocks+0x74>)
    195c:	469a      	mov	sl, r3
    195e:	4f15      	ldr	r7, [pc, #84]	; (19b4 <sd_mmc_spi_start_read_blocks+0x78>)
    1960:	47d0      	blx	sl
    1962:	4680      	mov	r8, r0
    1964:	2800      	cmp	r0, #0
    1966:	d017      	beq.n	1998 <sd_mmc_spi_start_read_blocks+0x5c>
    1968:	883a      	ldrh	r2, [r7, #0]
    196a:	465b      	mov	r3, fp
    196c:	1999      	adds	r1, r3, r6
    196e:	23ff      	movs	r3, #255	; 0xff
    1970:	4811      	ldr	r0, [pc, #68]	; (19b8 <sd_mmc_spi_start_read_blocks+0x7c>)
    1972:	4d12      	ldr	r5, [pc, #72]	; (19bc <sd_mmc_spi_start_read_blocks+0x80>)
    1974:	47a8      	blx	r5
    1976:	883b      	ldrh	r3, [r7, #0]
    1978:	18f6      	adds	r6, r6, r3
    197a:	4a11      	ldr	r2, [pc, #68]	; (19c0 <sd_mmc_spi_start_read_blocks+0x84>)
    197c:	6811      	ldr	r1, [r2, #0]
    197e:	468c      	mov	ip, r1
    1980:	4463      	add	r3, ip
    1982:	6013      	str	r3, [r2, #0]
    1984:	23ff      	movs	r3, #255	; 0xff
    1986:	2202      	movs	r2, #2
    1988:	a901      	add	r1, sp, #4
    198a:	480b      	ldr	r0, [pc, #44]	; (19b8 <sd_mmc_spi_start_read_blocks+0x7c>)
    198c:	47a8      	blx	r5
    198e:	3c01      	subs	r4, #1
    1990:	b2a4      	uxth	r4, r4
    1992:	4b0c      	ldr	r3, [pc, #48]	; (19c4 <sd_mmc_spi_start_read_blocks+0x88>)
    1994:	429c      	cmp	r4, r3
    1996:	d1e3      	bne.n	1960 <sd_mmc_spi_start_read_blocks+0x24>
    1998:	4640      	mov	r0, r8
    199a:	b002      	add	sp, #8
    199c:	bc1c      	pop	{r2, r3, r4}
    199e:	4690      	mov	r8, r2
    19a0:	469a      	mov	sl, r3
    19a2:	46a3      	mov	fp, r4
    19a4:	bdf0      	pop	{r4, r5, r6, r7, pc}
    19a6:	2301      	movs	r3, #1
    19a8:	4698      	mov	r8, r3
    19aa:	e7f5      	b.n	1998 <sd_mmc_spi_start_read_blocks+0x5c>
    19ac:	20000153 	.word	0x20000153
    19b0:	0000146d 	.word	0x0000146d
    19b4:	2000014c 	.word	0x2000014c
    19b8:	20000110 	.word	0x20000110
    19bc:	00002491 	.word	0x00002491
    19c0:	2000015c 	.word	0x2000015c
    19c4:	0000ffff 	.word	0x0000ffff

000019c8 <sd_mmc_spi_wait_end_of_read_blocks>:
    19c8:	2001      	movs	r0, #1
    19ca:	4770      	bx	lr

000019cc <sd_mmc_spi_start_write_blocks>:
    19cc:	b5f0      	push	{r4, r5, r6, r7, lr}
    19ce:	46c6      	mov	lr, r8
    19d0:	b500      	push	{lr}
    19d2:	4680      	mov	r8, r0
    19d4:	2200      	movs	r2, #0
    19d6:	4b15      	ldr	r3, [pc, #84]	; (1a2c <sd_mmc_spi_start_write_blocks+0x60>)
    19d8:	701a      	strb	r2, [r3, #0]
    19da:	2500      	movs	r5, #0
    19dc:	4f14      	ldr	r7, [pc, #80]	; (1a30 <sd_mmc_spi_start_write_blocks+0x64>)
    19de:	4e15      	ldr	r6, [pc, #84]	; (1a34 <sd_mmc_spi_start_write_blocks+0x68>)
    19e0:	e000      	b.n	19e4 <sd_mmc_spi_start_write_blocks+0x18>
    19e2:	0021      	movs	r1, r4
    19e4:	1e4c      	subs	r4, r1, #1
    19e6:	b2a4      	uxth	r4, r4
    19e8:	2900      	cmp	r1, #0
    19ea:	d01b      	beq.n	1a24 <sd_mmc_spi_start_write_blocks+0x58>
    19ec:	47b8      	blx	r7
    19ee:	8832      	ldrh	r2, [r6, #0]
    19f0:	4643      	mov	r3, r8
    19f2:	1959      	adds	r1, r3, r5
    19f4:	4810      	ldr	r0, [pc, #64]	; (1a38 <sd_mmc_spi_start_write_blocks+0x6c>)
    19f6:	4b11      	ldr	r3, [pc, #68]	; (1a3c <sd_mmc_spi_start_write_blocks+0x70>)
    19f8:	4798      	blx	r3
    19fa:	8833      	ldrh	r3, [r6, #0]
    19fc:	18ed      	adds	r5, r5, r3
    19fe:	4a10      	ldr	r2, [pc, #64]	; (1a40 <sd_mmc_spi_start_write_blocks+0x74>)
    1a00:	6811      	ldr	r1, [r2, #0]
    1a02:	468c      	mov	ip, r1
    1a04:	4463      	add	r3, ip
    1a06:	6013      	str	r3, [r2, #0]
    1a08:	4b0e      	ldr	r3, [pc, #56]	; (1a44 <sd_mmc_spi_start_write_blocks+0x78>)
    1a0a:	4798      	blx	r3
    1a0c:	2800      	cmp	r0, #0
    1a0e:	d00a      	beq.n	1a26 <sd_mmc_spi_start_write_blocks+0x5a>
    1a10:	2c00      	cmp	r4, #0
    1a12:	d0e6      	beq.n	19e2 <sd_mmc_spi_start_write_blocks+0x16>
    1a14:	4b0c      	ldr	r3, [pc, #48]	; (1a48 <sd_mmc_spi_start_write_blocks+0x7c>)
    1a16:	4798      	blx	r3
    1a18:	2800      	cmp	r0, #0
    1a1a:	d1e2      	bne.n	19e2 <sd_mmc_spi_start_write_blocks+0x16>
    1a1c:	2205      	movs	r2, #5
    1a1e:	4b03      	ldr	r3, [pc, #12]	; (1a2c <sd_mmc_spi_start_write_blocks+0x60>)
    1a20:	701a      	strb	r2, [r3, #0]
    1a22:	e000      	b.n	1a26 <sd_mmc_spi_start_write_blocks+0x5a>
    1a24:	2001      	movs	r0, #1
    1a26:	bc04      	pop	{r2}
    1a28:	4690      	mov	r8, r2
    1a2a:	bdf0      	pop	{r4, r5, r6, r7, pc}
    1a2c:	20000153 	.word	0x20000153
    1a30:	00001349 	.word	0x00001349
    1a34:	2000014c 	.word	0x2000014c
    1a38:	20000110 	.word	0x20000110
    1a3c:	00002659 	.word	0x00002659
    1a40:	2000015c 	.word	0x2000015c
    1a44:	000014d9 	.word	0x000014d9
    1a48:	00001391 	.word	0x00001391

00001a4c <sd_mmc_spi_wait_end_of_write_blocks>:
    1a4c:	b510      	push	{r4, lr}
    1a4e:	4b05      	ldr	r3, [pc, #20]	; (1a64 <sd_mmc_spi_wait_end_of_write_blocks+0x18>)
    1a50:	4798      	blx	r3
    1a52:	2800      	cmp	r0, #0
    1a54:	d103      	bne.n	1a5e <sd_mmc_spi_wait_end_of_write_blocks+0x12>
    1a56:	2205      	movs	r2, #5
    1a58:	4b03      	ldr	r3, [pc, #12]	; (1a68 <sd_mmc_spi_wait_end_of_write_blocks+0x1c>)
    1a5a:	701a      	strb	r2, [r3, #0]
    1a5c:	bd10      	pop	{r4, pc}
    1a5e:	4b03      	ldr	r3, [pc, #12]	; (1a6c <sd_mmc_spi_wait_end_of_write_blocks+0x20>)
    1a60:	4798      	blx	r3
    1a62:	e7fb      	b.n	1a5c <sd_mmc_spi_wait_end_of_write_blocks+0x10>
    1a64:	00001391 	.word	0x00001391
    1a68:	20000153 	.word	0x20000153
    1a6c:	000013f5 	.word	0x000013f5

00001a70 <mem_test_unit_ready>:
    1a70:	b510      	push	{r4, lr}
    1a72:	2301      	movs	r3, #1
    1a74:	2800      	cmp	r0, #0
    1a76:	d001      	beq.n	1a7c <mem_test_unit_ready+0xc>
    1a78:	0018      	movs	r0, r3
    1a7a:	bd10      	pop	{r4, pc}
    1a7c:	4b01      	ldr	r3, [pc, #4]	; (1a84 <mem_test_unit_ready+0x14>)
    1a7e:	4798      	blx	r3
    1a80:	0003      	movs	r3, r0
    1a82:	e7f9      	b.n	1a78 <mem_test_unit_ready+0x8>
    1a84:	00001249 	.word	0x00001249

00001a88 <mem_read_capacity>:
    1a88:	b510      	push	{r4, lr}
    1a8a:	2301      	movs	r3, #1
    1a8c:	2800      	cmp	r0, #0
    1a8e:	d001      	beq.n	1a94 <mem_read_capacity+0xc>
    1a90:	0018      	movs	r0, r3
    1a92:	bd10      	pop	{r4, pc}
    1a94:	0008      	movs	r0, r1
    1a96:	4b02      	ldr	r3, [pc, #8]	; (1aa0 <mem_read_capacity+0x18>)
    1a98:	4798      	blx	r3
    1a9a:	0003      	movs	r3, r0
    1a9c:	e7f8      	b.n	1a90 <mem_read_capacity+0x8>
    1a9e:	46c0      	nop			; (mov r8, r8)
    1aa0:	00001279 	.word	0x00001279

00001aa4 <mem_sector_size>:
    1aa4:	4243      	negs	r3, r0
    1aa6:	4158      	adcs	r0, r3
    1aa8:	b2c0      	uxtb	r0, r0
    1aaa:	4770      	bx	lr

00001aac <mem_wr_protect>:
    1aac:	b510      	push	{r4, lr}
    1aae:	2301      	movs	r3, #1
    1ab0:	2800      	cmp	r0, #0
    1ab2:	d001      	beq.n	1ab8 <mem_wr_protect+0xc>
    1ab4:	0018      	movs	r0, r3
    1ab6:	bd10      	pop	{r4, pc}
    1ab8:	4b01      	ldr	r3, [pc, #4]	; (1ac0 <mem_wr_protect+0x14>)
    1aba:	4798      	blx	r3
    1abc:	0003      	movs	r3, r0
    1abe:	e7f9      	b.n	1ab4 <mem_wr_protect+0x8>
    1ac0:	00001289 	.word	0x00001289

00001ac4 <memory_2_ram>:
    1ac4:	b510      	push	{r4, lr}
    1ac6:	000c      	movs	r4, r1
    1ac8:	2301      	movs	r3, #1
    1aca:	2800      	cmp	r0, #0
    1acc:	d001      	beq.n	1ad2 <memory_2_ram+0xe>
    1ace:	0018      	movs	r0, r3
    1ad0:	bd10      	pop	{r4, pc}
    1ad2:	0011      	movs	r1, r2
    1ad4:	0020      	movs	r0, r4
    1ad6:	4b02      	ldr	r3, [pc, #8]	; (1ae0 <memory_2_ram+0x1c>)
    1ad8:	4798      	blx	r3
    1ada:	0003      	movs	r3, r0
    1adc:	e7f7      	b.n	1ace <memory_2_ram+0xa>
    1ade:	46c0      	nop			; (mov r8, r8)
    1ae0:	000012dd 	.word	0x000012dd

00001ae4 <ram_2_memory>:
    1ae4:	b510      	push	{r4, lr}
    1ae6:	000c      	movs	r4, r1
    1ae8:	2301      	movs	r3, #1
    1aea:	2800      	cmp	r0, #0
    1aec:	d001      	beq.n	1af2 <ram_2_memory+0xe>
    1aee:	0018      	movs	r0, r3
    1af0:	bd10      	pop	{r4, pc}
    1af2:	0011      	movs	r1, r2
    1af4:	0020      	movs	r0, r4
    1af6:	4b02      	ldr	r3, [pc, #8]	; (1b00 <ram_2_memory+0x1c>)
    1af8:	4798      	blx	r3
    1afa:	0003      	movs	r3, r0
    1afc:	e7f7      	b.n	1aee <ram_2_memory+0xa>
    1afe:	46c0      	nop			; (mov r8, r8)
    1b00:	00001335 	.word	0x00001335

00001b04 <cpu_irq_enter_critical>:
    1b04:	4b0c      	ldr	r3, [pc, #48]	; (1b38 <cpu_irq_enter_critical+0x34>)
    1b06:	681b      	ldr	r3, [r3, #0]
    1b08:	2b00      	cmp	r3, #0
    1b0a:	d106      	bne.n	1b1a <cpu_irq_enter_critical+0x16>
    1b0c:	f3ef 8310 	mrs	r3, PRIMASK
    1b10:	2b00      	cmp	r3, #0
    1b12:	d007      	beq.n	1b24 <cpu_irq_enter_critical+0x20>
    1b14:	2200      	movs	r2, #0
    1b16:	4b09      	ldr	r3, [pc, #36]	; (1b3c <cpu_irq_enter_critical+0x38>)
    1b18:	701a      	strb	r2, [r3, #0]
    1b1a:	4a07      	ldr	r2, [pc, #28]	; (1b38 <cpu_irq_enter_critical+0x34>)
    1b1c:	6813      	ldr	r3, [r2, #0]
    1b1e:	3301      	adds	r3, #1
    1b20:	6013      	str	r3, [r2, #0]
    1b22:	4770      	bx	lr
    1b24:	b672      	cpsid	i
    1b26:	f3bf 8f5f 	dmb	sy
    1b2a:	2200      	movs	r2, #0
    1b2c:	4b04      	ldr	r3, [pc, #16]	; (1b40 <cpu_irq_enter_critical+0x3c>)
    1b2e:	701a      	strb	r2, [r3, #0]
    1b30:	3201      	adds	r2, #1
    1b32:	4b02      	ldr	r3, [pc, #8]	; (1b3c <cpu_irq_enter_critical+0x38>)
    1b34:	701a      	strb	r2, [r3, #0]
    1b36:	e7f0      	b.n	1b1a <cpu_irq_enter_critical+0x16>
    1b38:	20000164 	.word	0x20000164
    1b3c:	20000168 	.word	0x20000168
    1b40:	20000009 	.word	0x20000009

00001b44 <cpu_irq_leave_critical>:
    1b44:	4b08      	ldr	r3, [pc, #32]	; (1b68 <cpu_irq_leave_critical+0x24>)
    1b46:	681a      	ldr	r2, [r3, #0]
    1b48:	3a01      	subs	r2, #1
    1b4a:	601a      	str	r2, [r3, #0]
    1b4c:	681b      	ldr	r3, [r3, #0]
    1b4e:	2b00      	cmp	r3, #0
    1b50:	d109      	bne.n	1b66 <cpu_irq_leave_critical+0x22>
    1b52:	4b06      	ldr	r3, [pc, #24]	; (1b6c <cpu_irq_leave_critical+0x28>)
    1b54:	781b      	ldrb	r3, [r3, #0]
    1b56:	2b00      	cmp	r3, #0
    1b58:	d005      	beq.n	1b66 <cpu_irq_leave_critical+0x22>
    1b5a:	2201      	movs	r2, #1
    1b5c:	4b04      	ldr	r3, [pc, #16]	; (1b70 <cpu_irq_leave_critical+0x2c>)
    1b5e:	701a      	strb	r2, [r3, #0]
    1b60:	f3bf 8f5f 	dmb	sy
    1b64:	b662      	cpsie	i
    1b66:	4770      	bx	lr
    1b68:	20000164 	.word	0x20000164
    1b6c:	20000168 	.word	0x20000168
    1b70:	20000009 	.word	0x20000009

00001b74 <port_pin_set_config>:
    1b74:	b500      	push	{lr}
    1b76:	b083      	sub	sp, #12
    1b78:	ab01      	add	r3, sp, #4
    1b7a:	2280      	movs	r2, #128	; 0x80
    1b7c:	701a      	strb	r2, [r3, #0]
    1b7e:	780a      	ldrb	r2, [r1, #0]
    1b80:	705a      	strb	r2, [r3, #1]
    1b82:	784a      	ldrb	r2, [r1, #1]
    1b84:	709a      	strb	r2, [r3, #2]
    1b86:	788a      	ldrb	r2, [r1, #2]
    1b88:	70da      	strb	r2, [r3, #3]
    1b8a:	0019      	movs	r1, r3
    1b8c:	4b01      	ldr	r3, [pc, #4]	; (1b94 <port_pin_set_config+0x20>)
    1b8e:	4798      	blx	r3
    1b90:	b003      	add	sp, #12
    1b92:	bd00      	pop	{pc}
    1b94:	0000369d 	.word	0x0000369d

00001b98 <rtc_calendar_enable>:
    1b98:	6802      	ldr	r2, [r0, #0]
    1b9a:	7a93      	ldrb	r3, [r2, #10]
    1b9c:	b25b      	sxtb	r3, r3
    1b9e:	2b00      	cmp	r3, #0
    1ba0:	dbfb      	blt.n	1b9a <rtc_calendar_enable+0x2>
    1ba2:	8813      	ldrh	r3, [r2, #0]
    1ba4:	2102      	movs	r1, #2
    1ba6:	430b      	orrs	r3, r1
    1ba8:	8013      	strh	r3, [r2, #0]
    1baa:	4770      	bx	lr

00001bac <rtc_calendar_disable>:
    1bac:	6802      	ldr	r2, [r0, #0]
    1bae:	7a93      	ldrb	r3, [r2, #10]
    1bb0:	b25b      	sxtb	r3, r3
    1bb2:	2b00      	cmp	r3, #0
    1bb4:	dbfb      	blt.n	1bae <rtc_calendar_disable+0x2>
    1bb6:	23c1      	movs	r3, #193	; 0xc1
    1bb8:	7193      	strb	r3, [r2, #6]
    1bba:	7213      	strb	r3, [r2, #8]
    1bbc:	8813      	ldrh	r3, [r2, #0]
    1bbe:	2102      	movs	r1, #2
    1bc0:	438b      	bics	r3, r1
    1bc2:	8013      	strh	r3, [r2, #0]
    1bc4:	4770      	bx	lr
	...

00001bc8 <rtc_calendar_reset>:
    1bc8:	b570      	push	{r4, r5, r6, lr}
    1bca:	0004      	movs	r4, r0
    1bcc:	6805      	ldr	r5, [r0, #0]
    1bce:	4b06      	ldr	r3, [pc, #24]	; (1be8 <rtc_calendar_reset+0x20>)
    1bd0:	4798      	blx	r3
    1bd2:	6822      	ldr	r2, [r4, #0]
    1bd4:	7a93      	ldrb	r3, [r2, #10]
    1bd6:	b25b      	sxtb	r3, r3
    1bd8:	2b00      	cmp	r3, #0
    1bda:	dbfb      	blt.n	1bd4 <rtc_calendar_reset+0xc>
    1bdc:	882b      	ldrh	r3, [r5, #0]
    1bde:	2201      	movs	r2, #1
    1be0:	4313      	orrs	r3, r2
    1be2:	802b      	strh	r3, [r5, #0]
    1be4:	bd70      	pop	{r4, r5, r6, pc}
    1be6:	46c0      	nop			; (mov r8, r8)
    1be8:	00001bad 	.word	0x00001bad

00001bec <rtc_calendar_time_to_register_value>:
    1bec:	b510      	push	{r4, lr}
    1bee:	88cb      	ldrh	r3, [r1, #6]
    1bf0:	88c2      	ldrh	r2, [r0, #6]
    1bf2:	1a9a      	subs	r2, r3, r2
    1bf4:	0692      	lsls	r2, r2, #26
    1bf6:	794b      	ldrb	r3, [r1, #5]
    1bf8:	059b      	lsls	r3, r3, #22
    1bfa:	790c      	ldrb	r4, [r1, #4]
    1bfc:	0464      	lsls	r4, r4, #17
    1bfe:	4323      	orrs	r3, r4
    1c00:	788c      	ldrb	r4, [r1, #2]
    1c02:	0324      	lsls	r4, r4, #12
    1c04:	4323      	orrs	r3, r4
    1c06:	4313      	orrs	r3, r2
    1c08:	7902      	ldrb	r2, [r0, #4]
    1c0a:	2a00      	cmp	r2, #0
    1c0c:	d105      	bne.n	1c1a <rtc_calendar_time_to_register_value+0x2e>
    1c0e:	78ca      	ldrb	r2, [r1, #3]
    1c10:	2a00      	cmp	r2, #0
    1c12:	d002      	beq.n	1c1a <rtc_calendar_time_to_register_value+0x2e>
    1c14:	2280      	movs	r2, #128	; 0x80
    1c16:	0252      	lsls	r2, r2, #9
    1c18:	4313      	orrs	r3, r2
    1c1a:	7848      	ldrb	r0, [r1, #1]
    1c1c:	0180      	lsls	r0, r0, #6
    1c1e:	780a      	ldrb	r2, [r1, #0]
    1c20:	4310      	orrs	r0, r2
    1c22:	4318      	orrs	r0, r3
    1c24:	bd10      	pop	{r4, pc}

00001c26 <rtc_calendar_register_value_to_time>:
    1c26:	b510      	push	{r4, lr}
    1c28:	0e8b      	lsrs	r3, r1, #26
    1c2a:	88c4      	ldrh	r4, [r0, #6]
    1c2c:	191b      	adds	r3, r3, r4
    1c2e:	80d3      	strh	r3, [r2, #6]
    1c30:	018b      	lsls	r3, r1, #6
    1c32:	0f1b      	lsrs	r3, r3, #28
    1c34:	7153      	strb	r3, [r2, #5]
    1c36:	028b      	lsls	r3, r1, #10
    1c38:	0edb      	lsrs	r3, r3, #27
    1c3a:	7113      	strb	r3, [r2, #4]
    1c3c:	7903      	ldrb	r3, [r0, #4]
    1c3e:	2b00      	cmp	r3, #0
    1c40:	d10c      	bne.n	1c5c <rtc_calendar_register_value_to_time+0x36>
    1c42:	040b      	lsls	r3, r1, #16
    1c44:	0f1b      	lsrs	r3, r3, #28
    1c46:	7093      	strb	r3, [r2, #2]
    1c48:	03cb      	lsls	r3, r1, #15
    1c4a:	0fdb      	lsrs	r3, r3, #31
    1c4c:	70d3      	strb	r3, [r2, #3]
    1c4e:	0988      	lsrs	r0, r1, #6
    1c50:	233f      	movs	r3, #63	; 0x3f
    1c52:	4018      	ands	r0, r3
    1c54:	7050      	strb	r0, [r2, #1]
    1c56:	4019      	ands	r1, r3
    1c58:	7011      	strb	r1, [r2, #0]
    1c5a:	bd10      	pop	{r4, pc}
    1c5c:	03cb      	lsls	r3, r1, #15
    1c5e:	0edb      	lsrs	r3, r3, #27
    1c60:	7093      	strb	r3, [r2, #2]
    1c62:	e7f4      	b.n	1c4e <rtc_calendar_register_value_to_time+0x28>

00001c64 <rtc_calendar_get_time>:
    1c64:	b510      	push	{r4, lr}
    1c66:	000a      	movs	r2, r1
    1c68:	6803      	ldr	r3, [r0, #0]
    1c6a:	7941      	ldrb	r1, [r0, #5]
    1c6c:	2900      	cmp	r1, #0
    1c6e:	d006      	beq.n	1c7e <rtc_calendar_get_time+0x1a>
    1c70:	8859      	ldrh	r1, [r3, #2]
    1c72:	0449      	lsls	r1, r1, #17
    1c74:	d50b      	bpl.n	1c8e <rtc_calendar_get_time+0x2a>
    1c76:	6919      	ldr	r1, [r3, #16]
    1c78:	4b0a      	ldr	r3, [pc, #40]	; (1ca4 <rtc_calendar_get_time+0x40>)
    1c7a:	4798      	blx	r3
    1c7c:	bd10      	pop	{r4, pc}
    1c7e:	490a      	ldr	r1, [pc, #40]	; (1ca8 <rtc_calendar_get_time+0x44>)
    1c80:	8059      	strh	r1, [r3, #2]
    1c82:	6804      	ldr	r4, [r0, #0]
    1c84:	7aa1      	ldrb	r1, [r4, #10]
    1c86:	b249      	sxtb	r1, r1
    1c88:	2900      	cmp	r1, #0
    1c8a:	dbfb      	blt.n	1c84 <rtc_calendar_get_time+0x20>
    1c8c:	e7f3      	b.n	1c76 <rtc_calendar_get_time+0x12>
    1c8e:	8859      	ldrh	r1, [r3, #2]
    1c90:	24c0      	movs	r4, #192	; 0xc0
    1c92:	0224      	lsls	r4, r4, #8
    1c94:	4321      	orrs	r1, r4
    1c96:	8059      	strh	r1, [r3, #2]
    1c98:	6804      	ldr	r4, [r0, #0]
    1c9a:	7aa1      	ldrb	r1, [r4, #10]
    1c9c:	b249      	sxtb	r1, r1
    1c9e:	2900      	cmp	r1, #0
    1ca0:	dbfb      	blt.n	1c9a <rtc_calendar_get_time+0x36>
    1ca2:	e7e8      	b.n	1c76 <rtc_calendar_get_time+0x12>
    1ca4:	00001c27 	.word	0x00001c27
    1ca8:	ffff8000 	.word	0xffff8000

00001cac <rtc_calendar_set_alarm>:
    1cac:	b570      	push	{r4, r5, r6, lr}
    1cae:	000d      	movs	r5, r1
    1cb0:	0014      	movs	r4, r2
    1cb2:	2317      	movs	r3, #23
    1cb4:	2a01      	cmp	r2, #1
    1cb6:	d901      	bls.n	1cbc <rtc_calendar_set_alarm+0x10>
    1cb8:	0018      	movs	r0, r3
    1cba:	bd70      	pop	{r4, r5, r6, pc}
    1cbc:	6806      	ldr	r6, [r0, #0]
    1cbe:	4b06      	ldr	r3, [pc, #24]	; (1cd8 <rtc_calendar_set_alarm+0x2c>)
    1cc0:	4798      	blx	r3
    1cc2:	7ab3      	ldrb	r3, [r6, #10]
    1cc4:	b25b      	sxtb	r3, r3
    1cc6:	2b00      	cmp	r3, #0
    1cc8:	dbfb      	blt.n	1cc2 <rtc_calendar_set_alarm+0x16>
    1cca:	00e4      	lsls	r4, r4, #3
    1ccc:	1934      	adds	r4, r6, r4
    1cce:	61a0      	str	r0, [r4, #24]
    1cd0:	7a2b      	ldrb	r3, [r5, #8]
    1cd2:	7723      	strb	r3, [r4, #28]
    1cd4:	2300      	movs	r3, #0
    1cd6:	e7ef      	b.n	1cb8 <rtc_calendar_set_alarm+0xc>
    1cd8:	00001bed 	.word	0x00001bed

00001cdc <rtc_calendar_init>:
    1cdc:	b530      	push	{r4, r5, lr}
    1cde:	b083      	sub	sp, #12
    1ce0:	0005      	movs	r5, r0
    1ce2:	0014      	movs	r4, r2
    1ce4:	6001      	str	r1, [r0, #0]
    1ce6:	4a1c      	ldr	r2, [pc, #112]	; (1d58 <rtc_calendar_init+0x7c>)
    1ce8:	6993      	ldr	r3, [r2, #24]
    1cea:	2120      	movs	r1, #32
    1cec:	430b      	orrs	r3, r1
    1cee:	6193      	str	r3, [r2, #24]
    1cf0:	a901      	add	r1, sp, #4
    1cf2:	2302      	movs	r3, #2
    1cf4:	700b      	strb	r3, [r1, #0]
    1cf6:	2004      	movs	r0, #4
    1cf8:	4b18      	ldr	r3, [pc, #96]	; (1d5c <rtc_calendar_init+0x80>)
    1cfa:	4798      	blx	r3
    1cfc:	2004      	movs	r0, #4
    1cfe:	4b18      	ldr	r3, [pc, #96]	; (1d60 <rtc_calendar_init+0x84>)
    1d00:	4798      	blx	r3
    1d02:	0028      	movs	r0, r5
    1d04:	4b17      	ldr	r3, [pc, #92]	; (1d64 <rtc_calendar_init+0x88>)
    1d06:	4798      	blx	r3
    1d08:	7923      	ldrb	r3, [r4, #4]
    1d0a:	712b      	strb	r3, [r5, #4]
    1d0c:	78e3      	ldrb	r3, [r4, #3]
    1d0e:	716b      	strb	r3, [r5, #5]
    1d10:	88e3      	ldrh	r3, [r4, #6]
    1d12:	80eb      	strh	r3, [r5, #6]
    1d14:	4b14      	ldr	r3, [pc, #80]	; (1d68 <rtc_calendar_init+0x8c>)
    1d16:	601d      	str	r5, [r3, #0]
    1d18:	682a      	ldr	r2, [r5, #0]
    1d1a:	8823      	ldrh	r3, [r4, #0]
    1d1c:	7921      	ldrb	r1, [r4, #4]
    1d1e:	2900      	cmp	r1, #0
    1d20:	d017      	beq.n	1d52 <rtc_calendar_init+0x76>
    1d22:	2108      	movs	r1, #8
    1d24:	430b      	orrs	r3, r1
    1d26:	78a1      	ldrb	r1, [r4, #2]
    1d28:	2900      	cmp	r1, #0
    1d2a:	d001      	beq.n	1d30 <rtc_calendar_init+0x54>
    1d2c:	2180      	movs	r1, #128	; 0x80
    1d2e:	430b      	orrs	r3, r1
    1d30:	8013      	strh	r3, [r2, #0]
    1d32:	78e3      	ldrb	r3, [r4, #3]
    1d34:	2b00      	cmp	r3, #0
    1d36:	d004      	beq.n	1d42 <rtc_calendar_init+0x66>
    1d38:	8853      	ldrh	r3, [r2, #2]
    1d3a:	2180      	movs	r1, #128	; 0x80
    1d3c:	01c9      	lsls	r1, r1, #7
    1d3e:	430b      	orrs	r3, r1
    1d40:	8053      	strh	r3, [r2, #2]
    1d42:	0021      	movs	r1, r4
    1d44:	3108      	adds	r1, #8
    1d46:	2200      	movs	r2, #0
    1d48:	0028      	movs	r0, r5
    1d4a:	4b08      	ldr	r3, [pc, #32]	; (1d6c <rtc_calendar_init+0x90>)
    1d4c:	4798      	blx	r3
    1d4e:	b003      	add	sp, #12
    1d50:	bd30      	pop	{r4, r5, pc}
    1d52:	2148      	movs	r1, #72	; 0x48
    1d54:	430b      	orrs	r3, r1
    1d56:	e7e6      	b.n	1d26 <rtc_calendar_init+0x4a>
    1d58:	40000400 	.word	0x40000400
    1d5c:	000035a5 	.word	0x000035a5
    1d60:	00003519 	.word	0x00003519
    1d64:	00001bc9 	.word	0x00001bc9
    1d68:	20000a14 	.word	0x20000a14
    1d6c:	00001cad 	.word	0x00001cad

00001d70 <long_division>:
    1d70:	b5f0      	push	{r4, r5, r6, r7, lr}
    1d72:	46de      	mov	lr, fp
    1d74:	4657      	mov	r7, sl
    1d76:	464e      	mov	r6, r9
    1d78:	4645      	mov	r5, r8
    1d7a:	b5e0      	push	{r5, r6, r7, lr}
    1d7c:	b087      	sub	sp, #28
    1d7e:	4680      	mov	r8, r0
    1d80:	9104      	str	r1, [sp, #16]
    1d82:	0016      	movs	r6, r2
    1d84:	001f      	movs	r7, r3
    1d86:	2200      	movs	r2, #0
    1d88:	2300      	movs	r3, #0
    1d8a:	2100      	movs	r1, #0
    1d8c:	468b      	mov	fp, r1
    1d8e:	243f      	movs	r4, #63	; 0x3f
    1d90:	2001      	movs	r0, #1
    1d92:	0021      	movs	r1, r4
    1d94:	9600      	str	r6, [sp, #0]
    1d96:	9701      	str	r7, [sp, #4]
    1d98:	465c      	mov	r4, fp
    1d9a:	9403      	str	r4, [sp, #12]
    1d9c:	4644      	mov	r4, r8
    1d9e:	9405      	str	r4, [sp, #20]
    1da0:	e013      	b.n	1dca <long_division+0x5a>
    1da2:	2420      	movs	r4, #32
    1da4:	1a64      	subs	r4, r4, r1
    1da6:	0005      	movs	r5, r0
    1da8:	40e5      	lsrs	r5, r4
    1daa:	46a8      	mov	r8, r5
    1dac:	e014      	b.n	1dd8 <long_division+0x68>
    1dae:	9c00      	ldr	r4, [sp, #0]
    1db0:	9d01      	ldr	r5, [sp, #4]
    1db2:	1b12      	subs	r2, r2, r4
    1db4:	41ab      	sbcs	r3, r5
    1db6:	465c      	mov	r4, fp
    1db8:	464d      	mov	r5, r9
    1dba:	432c      	orrs	r4, r5
    1dbc:	46a3      	mov	fp, r4
    1dbe:	9c03      	ldr	r4, [sp, #12]
    1dc0:	4645      	mov	r5, r8
    1dc2:	432c      	orrs	r4, r5
    1dc4:	9403      	str	r4, [sp, #12]
    1dc6:	3901      	subs	r1, #1
    1dc8:	d325      	bcc.n	1e16 <long_division+0xa6>
    1dca:	2420      	movs	r4, #32
    1dcc:	4264      	negs	r4, r4
    1dce:	190c      	adds	r4, r1, r4
    1dd0:	d4e7      	bmi.n	1da2 <long_division+0x32>
    1dd2:	0005      	movs	r5, r0
    1dd4:	40a5      	lsls	r5, r4
    1dd6:	46a8      	mov	r8, r5
    1dd8:	0004      	movs	r4, r0
    1dda:	408c      	lsls	r4, r1
    1ddc:	46a1      	mov	r9, r4
    1dde:	1892      	adds	r2, r2, r2
    1de0:	415b      	adcs	r3, r3
    1de2:	0014      	movs	r4, r2
    1de4:	001d      	movs	r5, r3
    1de6:	9e05      	ldr	r6, [sp, #20]
    1de8:	464f      	mov	r7, r9
    1dea:	403e      	ands	r6, r7
    1dec:	46b4      	mov	ip, r6
    1dee:	9e04      	ldr	r6, [sp, #16]
    1df0:	4647      	mov	r7, r8
    1df2:	403e      	ands	r6, r7
    1df4:	46b2      	mov	sl, r6
    1df6:	4666      	mov	r6, ip
    1df8:	4657      	mov	r7, sl
    1dfa:	433e      	orrs	r6, r7
    1dfc:	d003      	beq.n	1e06 <long_division+0x96>
    1dfe:	0006      	movs	r6, r0
    1e00:	4326      	orrs	r6, r4
    1e02:	0032      	movs	r2, r6
    1e04:	002b      	movs	r3, r5
    1e06:	9c00      	ldr	r4, [sp, #0]
    1e08:	9d01      	ldr	r5, [sp, #4]
    1e0a:	429d      	cmp	r5, r3
    1e0c:	d8db      	bhi.n	1dc6 <long_division+0x56>
    1e0e:	d1ce      	bne.n	1dae <long_division+0x3e>
    1e10:	4294      	cmp	r4, r2
    1e12:	d8d8      	bhi.n	1dc6 <long_division+0x56>
    1e14:	e7cb      	b.n	1dae <long_division+0x3e>
    1e16:	9b03      	ldr	r3, [sp, #12]
    1e18:	4658      	mov	r0, fp
    1e1a:	0019      	movs	r1, r3
    1e1c:	b007      	add	sp, #28
    1e1e:	bc3c      	pop	{r2, r3, r4, r5}
    1e20:	4690      	mov	r8, r2
    1e22:	4699      	mov	r9, r3
    1e24:	46a2      	mov	sl, r4
    1e26:	46ab      	mov	fp, r5
    1e28:	bdf0      	pop	{r4, r5, r6, r7, pc}

00001e2a <_sercom_get_sync_baud_val>:
    1e2a:	b510      	push	{r4, lr}
    1e2c:	0849      	lsrs	r1, r1, #1
    1e2e:	2340      	movs	r3, #64	; 0x40
    1e30:	2400      	movs	r4, #0
    1e32:	4281      	cmp	r1, r0
    1e34:	d202      	bcs.n	1e3c <_sercom_get_sync_baud_val+0x12>
    1e36:	0018      	movs	r0, r3
    1e38:	bd10      	pop	{r4, pc}
    1e3a:	001c      	movs	r4, r3
    1e3c:	1a09      	subs	r1, r1, r0
    1e3e:	1c63      	adds	r3, r4, #1
    1e40:	b29b      	uxth	r3, r3
    1e42:	4288      	cmp	r0, r1
    1e44:	d9f9      	bls.n	1e3a <_sercom_get_sync_baud_val+0x10>
    1e46:	2340      	movs	r3, #64	; 0x40
    1e48:	2cff      	cmp	r4, #255	; 0xff
    1e4a:	d8f4      	bhi.n	1e36 <_sercom_get_sync_baud_val+0xc>
    1e4c:	8014      	strh	r4, [r2, #0]
    1e4e:	2300      	movs	r3, #0
    1e50:	e7f1      	b.n	1e36 <_sercom_get_sync_baud_val+0xc>
	...

00001e54 <_sercom_get_async_baud_val>:
    1e54:	b5f0      	push	{r4, r5, r6, r7, lr}
    1e56:	b083      	sub	sp, #12
    1e58:	000f      	movs	r7, r1
    1e5a:	0016      	movs	r6, r2
    1e5c:	aa08      	add	r2, sp, #32
    1e5e:	7811      	ldrb	r1, [r2, #0]
    1e60:	0004      	movs	r4, r0
    1e62:	434c      	muls	r4, r1
    1e64:	2240      	movs	r2, #64	; 0x40
    1e66:	42bc      	cmp	r4, r7
    1e68:	d902      	bls.n	1e70 <_sercom_get_async_baud_val+0x1c>
    1e6a:	0010      	movs	r0, r2
    1e6c:	b003      	add	sp, #12
    1e6e:	bdf0      	pop	{r4, r5, r6, r7, pc}
    1e70:	2b00      	cmp	r3, #0
    1e72:	d114      	bne.n	1e9e <_sercom_get_async_baud_val+0x4a>
    1e74:	0002      	movs	r2, r0
    1e76:	0008      	movs	r0, r1
    1e78:	2100      	movs	r1, #0
    1e7a:	4c19      	ldr	r4, [pc, #100]	; (1ee0 <_sercom_get_async_baud_val+0x8c>)
    1e7c:	47a0      	blx	r4
    1e7e:	0001      	movs	r1, r0
    1e80:	003a      	movs	r2, r7
    1e82:	2300      	movs	r3, #0
    1e84:	2000      	movs	r0, #0
    1e86:	4c17      	ldr	r4, [pc, #92]	; (1ee4 <_sercom_get_async_baud_val+0x90>)
    1e88:	47a0      	blx	r4
    1e8a:	2200      	movs	r2, #0
    1e8c:	2301      	movs	r3, #1
    1e8e:	1a12      	subs	r2, r2, r0
    1e90:	418b      	sbcs	r3, r1
    1e92:	0c12      	lsrs	r2, r2, #16
    1e94:	041b      	lsls	r3, r3, #16
    1e96:	431a      	orrs	r2, r3
    1e98:	8032      	strh	r2, [r6, #0]
    1e9a:	2200      	movs	r2, #0
    1e9c:	e7e5      	b.n	1e6a <_sercom_get_async_baud_val+0x16>
    1e9e:	2200      	movs	r2, #0
    1ea0:	2b01      	cmp	r3, #1
    1ea2:	d1f9      	bne.n	1e98 <_sercom_get_async_baud_val+0x44>
    1ea4:	000a      	movs	r2, r1
    1ea6:	2300      	movs	r3, #0
    1ea8:	2100      	movs	r1, #0
    1eaa:	4c0d      	ldr	r4, [pc, #52]	; (1ee0 <_sercom_get_async_baud_val+0x8c>)
    1eac:	47a0      	blx	r4
    1eae:	0002      	movs	r2, r0
    1eb0:	000b      	movs	r3, r1
    1eb2:	9200      	str	r2, [sp, #0]
    1eb4:	9301      	str	r3, [sp, #4]
    1eb6:	0038      	movs	r0, r7
    1eb8:	2100      	movs	r1, #0
    1eba:	4c0a      	ldr	r4, [pc, #40]	; (1ee4 <_sercom_get_async_baud_val+0x90>)
    1ebc:	47a0      	blx	r4
    1ebe:	0005      	movs	r5, r0
    1ec0:	2380      	movs	r3, #128	; 0x80
    1ec2:	019b      	lsls	r3, r3, #6
    1ec4:	2240      	movs	r2, #64	; 0x40
    1ec6:	4298      	cmp	r0, r3
    1ec8:	d8cf      	bhi.n	1e6a <_sercom_get_async_baud_val+0x16>
    1eca:	0f79      	lsrs	r1, r7, #29
    1ecc:	00f8      	lsls	r0, r7, #3
    1ece:	9a00      	ldr	r2, [sp, #0]
    1ed0:	9b01      	ldr	r3, [sp, #4]
    1ed2:	47a0      	blx	r4
    1ed4:	00ea      	lsls	r2, r5, #3
    1ed6:	1a82      	subs	r2, r0, r2
    1ed8:	b2d2      	uxtb	r2, r2
    1eda:	0352      	lsls	r2, r2, #13
    1edc:	432a      	orrs	r2, r5
    1ede:	e7db      	b.n	1e98 <_sercom_get_async_baud_val+0x44>
    1ee0:	00005db5 	.word	0x00005db5
    1ee4:	00001d71 	.word	0x00001d71

00001ee8 <sercom_set_gclk_generator>:
    1ee8:	b510      	push	{r4, lr}
    1eea:	b082      	sub	sp, #8
    1eec:	0004      	movs	r4, r0
    1eee:	4b0e      	ldr	r3, [pc, #56]	; (1f28 <sercom_set_gclk_generator+0x40>)
    1ef0:	781b      	ldrb	r3, [r3, #0]
    1ef2:	2b00      	cmp	r3, #0
    1ef4:	d007      	beq.n	1f06 <sercom_set_gclk_generator+0x1e>
    1ef6:	2900      	cmp	r1, #0
    1ef8:	d105      	bne.n	1f06 <sercom_set_gclk_generator+0x1e>
    1efa:	4b0b      	ldr	r3, [pc, #44]	; (1f28 <sercom_set_gclk_generator+0x40>)
    1efc:	785b      	ldrb	r3, [r3, #1]
    1efe:	4283      	cmp	r3, r0
    1f00:	d010      	beq.n	1f24 <sercom_set_gclk_generator+0x3c>
    1f02:	201d      	movs	r0, #29
    1f04:	e00c      	b.n	1f20 <sercom_set_gclk_generator+0x38>
    1f06:	a901      	add	r1, sp, #4
    1f08:	700c      	strb	r4, [r1, #0]
    1f0a:	2013      	movs	r0, #19
    1f0c:	4b07      	ldr	r3, [pc, #28]	; (1f2c <sercom_set_gclk_generator+0x44>)
    1f0e:	4798      	blx	r3
    1f10:	2013      	movs	r0, #19
    1f12:	4b07      	ldr	r3, [pc, #28]	; (1f30 <sercom_set_gclk_generator+0x48>)
    1f14:	4798      	blx	r3
    1f16:	4b04      	ldr	r3, [pc, #16]	; (1f28 <sercom_set_gclk_generator+0x40>)
    1f18:	705c      	strb	r4, [r3, #1]
    1f1a:	2201      	movs	r2, #1
    1f1c:	701a      	strb	r2, [r3, #0]
    1f1e:	2000      	movs	r0, #0
    1f20:	b002      	add	sp, #8
    1f22:	bd10      	pop	{r4, pc}
    1f24:	2000      	movs	r0, #0
    1f26:	e7fb      	b.n	1f20 <sercom_set_gclk_generator+0x38>
    1f28:	2000016c 	.word	0x2000016c
    1f2c:	000035a5 	.word	0x000035a5
    1f30:	00003519 	.word	0x00003519

00001f34 <_sercom_get_default_pad>:
    1f34:	4b40      	ldr	r3, [pc, #256]	; (2038 <STACK_SIZE+0x38>)
    1f36:	4298      	cmp	r0, r3
    1f38:	d031      	beq.n	1f9e <_sercom_get_default_pad+0x6a>
    1f3a:	d90a      	bls.n	1f52 <_sercom_get_default_pad+0x1e>
    1f3c:	4b3f      	ldr	r3, [pc, #252]	; (203c <STACK_SIZE+0x3c>)
    1f3e:	4298      	cmp	r0, r3
    1f40:	d04d      	beq.n	1fde <_sercom_get_default_pad+0xaa>
    1f42:	4b3f      	ldr	r3, [pc, #252]	; (2040 <STACK_SIZE+0x40>)
    1f44:	4298      	cmp	r0, r3
    1f46:	d05a      	beq.n	1ffe <_sercom_get_default_pad+0xca>
    1f48:	4b3e      	ldr	r3, [pc, #248]	; (2044 <STACK_SIZE+0x44>)
    1f4a:	4298      	cmp	r0, r3
    1f4c:	d037      	beq.n	1fbe <_sercom_get_default_pad+0x8a>
    1f4e:	2000      	movs	r0, #0
    1f50:	4770      	bx	lr
    1f52:	4b3d      	ldr	r3, [pc, #244]	; (2048 <STACK_SIZE+0x48>)
    1f54:	4298      	cmp	r0, r3
    1f56:	d00c      	beq.n	1f72 <_sercom_get_default_pad+0x3e>
    1f58:	4b3c      	ldr	r3, [pc, #240]	; (204c <STACK_SIZE+0x4c>)
    1f5a:	4298      	cmp	r0, r3
    1f5c:	d1f7      	bne.n	1f4e <_sercom_get_default_pad+0x1a>
    1f5e:	2901      	cmp	r1, #1
    1f60:	d017      	beq.n	1f92 <_sercom_get_default_pad+0x5e>
    1f62:	2900      	cmp	r1, #0
    1f64:	d05d      	beq.n	2022 <STACK_SIZE+0x22>
    1f66:	2902      	cmp	r1, #2
    1f68:	d015      	beq.n	1f96 <_sercom_get_default_pad+0x62>
    1f6a:	2903      	cmp	r1, #3
    1f6c:	d015      	beq.n	1f9a <_sercom_get_default_pad+0x66>
    1f6e:	2000      	movs	r0, #0
    1f70:	e7ee      	b.n	1f50 <_sercom_get_default_pad+0x1c>
    1f72:	2901      	cmp	r1, #1
    1f74:	d007      	beq.n	1f86 <_sercom_get_default_pad+0x52>
    1f76:	2900      	cmp	r1, #0
    1f78:	d051      	beq.n	201e <STACK_SIZE+0x1e>
    1f7a:	2902      	cmp	r1, #2
    1f7c:	d005      	beq.n	1f8a <_sercom_get_default_pad+0x56>
    1f7e:	2903      	cmp	r1, #3
    1f80:	d005      	beq.n	1f8e <_sercom_get_default_pad+0x5a>
    1f82:	2000      	movs	r0, #0
    1f84:	e7e4      	b.n	1f50 <_sercom_get_default_pad+0x1c>
    1f86:	4832      	ldr	r0, [pc, #200]	; (2050 <STACK_SIZE+0x50>)
    1f88:	e7e2      	b.n	1f50 <_sercom_get_default_pad+0x1c>
    1f8a:	4832      	ldr	r0, [pc, #200]	; (2054 <STACK_SIZE+0x54>)
    1f8c:	e7e0      	b.n	1f50 <_sercom_get_default_pad+0x1c>
    1f8e:	4832      	ldr	r0, [pc, #200]	; (2058 <STACK_SIZE+0x58>)
    1f90:	e7de      	b.n	1f50 <_sercom_get_default_pad+0x1c>
    1f92:	4832      	ldr	r0, [pc, #200]	; (205c <STACK_SIZE+0x5c>)
    1f94:	e7dc      	b.n	1f50 <_sercom_get_default_pad+0x1c>
    1f96:	4832      	ldr	r0, [pc, #200]	; (2060 <STACK_SIZE+0x60>)
    1f98:	e7da      	b.n	1f50 <_sercom_get_default_pad+0x1c>
    1f9a:	4832      	ldr	r0, [pc, #200]	; (2064 <STACK_SIZE+0x64>)
    1f9c:	e7d8      	b.n	1f50 <_sercom_get_default_pad+0x1c>
    1f9e:	2901      	cmp	r1, #1
    1fa0:	d007      	beq.n	1fb2 <_sercom_get_default_pad+0x7e>
    1fa2:	2900      	cmp	r1, #0
    1fa4:	d03f      	beq.n	2026 <STACK_SIZE+0x26>
    1fa6:	2902      	cmp	r1, #2
    1fa8:	d005      	beq.n	1fb6 <_sercom_get_default_pad+0x82>
    1faa:	2903      	cmp	r1, #3
    1fac:	d005      	beq.n	1fba <_sercom_get_default_pad+0x86>
    1fae:	2000      	movs	r0, #0
    1fb0:	e7ce      	b.n	1f50 <_sercom_get_default_pad+0x1c>
    1fb2:	482d      	ldr	r0, [pc, #180]	; (2068 <STACK_SIZE+0x68>)
    1fb4:	e7cc      	b.n	1f50 <_sercom_get_default_pad+0x1c>
    1fb6:	482d      	ldr	r0, [pc, #180]	; (206c <STACK_SIZE+0x6c>)
    1fb8:	e7ca      	b.n	1f50 <_sercom_get_default_pad+0x1c>
    1fba:	482d      	ldr	r0, [pc, #180]	; (2070 <STACK_SIZE+0x70>)
    1fbc:	e7c8      	b.n	1f50 <_sercom_get_default_pad+0x1c>
    1fbe:	2901      	cmp	r1, #1
    1fc0:	d007      	beq.n	1fd2 <_sercom_get_default_pad+0x9e>
    1fc2:	2900      	cmp	r1, #0
    1fc4:	d031      	beq.n	202a <STACK_SIZE+0x2a>
    1fc6:	2902      	cmp	r1, #2
    1fc8:	d005      	beq.n	1fd6 <_sercom_get_default_pad+0xa2>
    1fca:	2903      	cmp	r1, #3
    1fcc:	d005      	beq.n	1fda <_sercom_get_default_pad+0xa6>
    1fce:	2000      	movs	r0, #0
    1fd0:	e7be      	b.n	1f50 <_sercom_get_default_pad+0x1c>
    1fd2:	4828      	ldr	r0, [pc, #160]	; (2074 <STACK_SIZE+0x74>)
    1fd4:	e7bc      	b.n	1f50 <_sercom_get_default_pad+0x1c>
    1fd6:	4828      	ldr	r0, [pc, #160]	; (2078 <STACK_SIZE+0x78>)
    1fd8:	e7ba      	b.n	1f50 <_sercom_get_default_pad+0x1c>
    1fda:	4828      	ldr	r0, [pc, #160]	; (207c <STACK_SIZE+0x7c>)
    1fdc:	e7b8      	b.n	1f50 <_sercom_get_default_pad+0x1c>
    1fde:	2901      	cmp	r1, #1
    1fe0:	d007      	beq.n	1ff2 <_sercom_get_default_pad+0xbe>
    1fe2:	2900      	cmp	r1, #0
    1fe4:	d023      	beq.n	202e <STACK_SIZE+0x2e>
    1fe6:	2902      	cmp	r1, #2
    1fe8:	d005      	beq.n	1ff6 <_sercom_get_default_pad+0xc2>
    1fea:	2903      	cmp	r1, #3
    1fec:	d005      	beq.n	1ffa <_sercom_get_default_pad+0xc6>
    1fee:	2000      	movs	r0, #0
    1ff0:	e7ae      	b.n	1f50 <_sercom_get_default_pad+0x1c>
    1ff2:	4823      	ldr	r0, [pc, #140]	; (2080 <STACK_SIZE+0x80>)
    1ff4:	e7ac      	b.n	1f50 <_sercom_get_default_pad+0x1c>
    1ff6:	4823      	ldr	r0, [pc, #140]	; (2084 <STACK_SIZE+0x84>)
    1ff8:	e7aa      	b.n	1f50 <_sercom_get_default_pad+0x1c>
    1ffa:	4823      	ldr	r0, [pc, #140]	; (2088 <STACK_SIZE+0x88>)
    1ffc:	e7a8      	b.n	1f50 <_sercom_get_default_pad+0x1c>
    1ffe:	2901      	cmp	r1, #1
    2000:	d007      	beq.n	2012 <STACK_SIZE+0x12>
    2002:	2900      	cmp	r1, #0
    2004:	d015      	beq.n	2032 <STACK_SIZE+0x32>
    2006:	2902      	cmp	r1, #2
    2008:	d005      	beq.n	2016 <STACK_SIZE+0x16>
    200a:	2903      	cmp	r1, #3
    200c:	d005      	beq.n	201a <STACK_SIZE+0x1a>
    200e:	2000      	movs	r0, #0
    2010:	e79e      	b.n	1f50 <_sercom_get_default_pad+0x1c>
    2012:	481e      	ldr	r0, [pc, #120]	; (208c <STACK_SIZE+0x8c>)
    2014:	e79c      	b.n	1f50 <_sercom_get_default_pad+0x1c>
    2016:	481e      	ldr	r0, [pc, #120]	; (2090 <STACK_SIZE+0x90>)
    2018:	e79a      	b.n	1f50 <_sercom_get_default_pad+0x1c>
    201a:	481e      	ldr	r0, [pc, #120]	; (2094 <STACK_SIZE+0x94>)
    201c:	e798      	b.n	1f50 <_sercom_get_default_pad+0x1c>
    201e:	481e      	ldr	r0, [pc, #120]	; (2098 <STACK_SIZE+0x98>)
    2020:	e796      	b.n	1f50 <_sercom_get_default_pad+0x1c>
    2022:	2003      	movs	r0, #3
    2024:	e794      	b.n	1f50 <_sercom_get_default_pad+0x1c>
    2026:	481d      	ldr	r0, [pc, #116]	; (209c <STACK_SIZE+0x9c>)
    2028:	e792      	b.n	1f50 <_sercom_get_default_pad+0x1c>
    202a:	481d      	ldr	r0, [pc, #116]	; (20a0 <STACK_SIZE+0xa0>)
    202c:	e790      	b.n	1f50 <_sercom_get_default_pad+0x1c>
    202e:	481d      	ldr	r0, [pc, #116]	; (20a4 <STACK_SIZE+0xa4>)
    2030:	e78e      	b.n	1f50 <_sercom_get_default_pad+0x1c>
    2032:	481d      	ldr	r0, [pc, #116]	; (20a8 <STACK_SIZE+0xa8>)
    2034:	e78c      	b.n	1f50 <_sercom_get_default_pad+0x1c>
    2036:	46c0      	nop			; (mov r8, r8)
    2038:	42001000 	.word	0x42001000
    203c:	42001800 	.word	0x42001800
    2040:	42001c00 	.word	0x42001c00
    2044:	42001400 	.word	0x42001400
    2048:	42000800 	.word	0x42000800
    204c:	42000c00 	.word	0x42000c00
    2050:	00050003 	.word	0x00050003
    2054:	00060003 	.word	0x00060003
    2058:	00070003 	.word	0x00070003
    205c:	00010003 	.word	0x00010003
    2060:	001e0003 	.word	0x001e0003
    2064:	001f0003 	.word	0x001f0003
    2068:	00090003 	.word	0x00090003
    206c:	000a0003 	.word	0x000a0003
    2070:	000b0003 	.word	0x000b0003
    2074:	00110003 	.word	0x00110003
    2078:	00120003 	.word	0x00120003
    207c:	00130003 	.word	0x00130003
    2080:	000d0003 	.word	0x000d0003
    2084:	000e0003 	.word	0x000e0003
    2088:	000f0003 	.word	0x000f0003
    208c:	00170003 	.word	0x00170003
    2090:	00180003 	.word	0x00180003
    2094:	00190003 	.word	0x00190003
    2098:	00040003 	.word	0x00040003
    209c:	00080003 	.word	0x00080003
    20a0:	00100003 	.word	0x00100003
    20a4:	000c0003 	.word	0x000c0003
    20a8:	00160003 	.word	0x00160003

000020ac <_sercom_get_sercom_inst_index>:
    20ac:	b530      	push	{r4, r5, lr}
    20ae:	b087      	sub	sp, #28
    20b0:	4b0b      	ldr	r3, [pc, #44]	; (20e0 <_sercom_get_sercom_inst_index+0x34>)
    20b2:	466a      	mov	r2, sp
    20b4:	cb32      	ldmia	r3!, {r1, r4, r5}
    20b6:	c232      	stmia	r2!, {r1, r4, r5}
    20b8:	cb32      	ldmia	r3!, {r1, r4, r5}
    20ba:	c232      	stmia	r2!, {r1, r4, r5}
    20bc:	9b00      	ldr	r3, [sp, #0]
    20be:	4283      	cmp	r3, r0
    20c0:	d00b      	beq.n	20da <_sercom_get_sercom_inst_index+0x2e>
    20c2:	2301      	movs	r3, #1
    20c4:	009a      	lsls	r2, r3, #2
    20c6:	4669      	mov	r1, sp
    20c8:	5852      	ldr	r2, [r2, r1]
    20ca:	4282      	cmp	r2, r0
    20cc:	d006      	beq.n	20dc <_sercom_get_sercom_inst_index+0x30>
    20ce:	3301      	adds	r3, #1
    20d0:	2b06      	cmp	r3, #6
    20d2:	d1f7      	bne.n	20c4 <_sercom_get_sercom_inst_index+0x18>
    20d4:	2000      	movs	r0, #0
    20d6:	b007      	add	sp, #28
    20d8:	bd30      	pop	{r4, r5, pc}
    20da:	2300      	movs	r3, #0
    20dc:	b2d8      	uxtb	r0, r3
    20de:	e7fa      	b.n	20d6 <_sercom_get_sercom_inst_index+0x2a>
    20e0:	00006ec8 	.word	0x00006ec8

000020e4 <_sercom_default_handler>:
    20e4:	4770      	bx	lr
	...

000020e8 <_sercom_set_handler>:
    20e8:	b5f0      	push	{r4, r5, r6, r7, lr}
    20ea:	4b0a      	ldr	r3, [pc, #40]	; (2114 <_sercom_set_handler+0x2c>)
    20ec:	781b      	ldrb	r3, [r3, #0]
    20ee:	2b00      	cmp	r3, #0
    20f0:	d10c      	bne.n	210c <_sercom_set_handler+0x24>
    20f2:	4f09      	ldr	r7, [pc, #36]	; (2118 <_sercom_set_handler+0x30>)
    20f4:	4e09      	ldr	r6, [pc, #36]	; (211c <_sercom_set_handler+0x34>)
    20f6:	4d0a      	ldr	r5, [pc, #40]	; (2120 <_sercom_set_handler+0x38>)
    20f8:	2400      	movs	r4, #0
    20fa:	51de      	str	r6, [r3, r7]
    20fc:	195a      	adds	r2, r3, r5
    20fe:	6014      	str	r4, [r2, #0]
    2100:	3304      	adds	r3, #4
    2102:	2b18      	cmp	r3, #24
    2104:	d1f9      	bne.n	20fa <_sercom_set_handler+0x12>
    2106:	2201      	movs	r2, #1
    2108:	4b02      	ldr	r3, [pc, #8]	; (2114 <_sercom_set_handler+0x2c>)
    210a:	701a      	strb	r2, [r3, #0]
    210c:	0080      	lsls	r0, r0, #2
    210e:	4b02      	ldr	r3, [pc, #8]	; (2118 <_sercom_set_handler+0x30>)
    2110:	50c1      	str	r1, [r0, r3]
    2112:	bdf0      	pop	{r4, r5, r6, r7, pc}
    2114:	2000016e 	.word	0x2000016e
    2118:	20000170 	.word	0x20000170
    211c:	000020e5 	.word	0x000020e5
    2120:	20000a18 	.word	0x20000a18

00002124 <_sercom_get_interrupt_vector>:
    2124:	b500      	push	{lr}
    2126:	b083      	sub	sp, #12
    2128:	2309      	movs	r3, #9
    212a:	466a      	mov	r2, sp
    212c:	7013      	strb	r3, [r2, #0]
    212e:	3301      	adds	r3, #1
    2130:	7053      	strb	r3, [r2, #1]
    2132:	3301      	adds	r3, #1
    2134:	7093      	strb	r3, [r2, #2]
    2136:	3301      	adds	r3, #1
    2138:	70d3      	strb	r3, [r2, #3]
    213a:	3301      	adds	r3, #1
    213c:	7113      	strb	r3, [r2, #4]
    213e:	3301      	adds	r3, #1
    2140:	7153      	strb	r3, [r2, #5]
    2142:	4b03      	ldr	r3, [pc, #12]	; (2150 <_sercom_get_interrupt_vector+0x2c>)
    2144:	4798      	blx	r3
    2146:	466b      	mov	r3, sp
    2148:	5618      	ldrsb	r0, [r3, r0]
    214a:	b003      	add	sp, #12
    214c:	bd00      	pop	{pc}
    214e:	46c0      	nop			; (mov r8, r8)
    2150:	000020ad 	.word	0x000020ad

00002154 <SERCOM0_Handler>:
    2154:	b510      	push	{r4, lr}
    2156:	4b02      	ldr	r3, [pc, #8]	; (2160 <SERCOM0_Handler+0xc>)
    2158:	681b      	ldr	r3, [r3, #0]
    215a:	2000      	movs	r0, #0
    215c:	4798      	blx	r3
    215e:	bd10      	pop	{r4, pc}
    2160:	20000170 	.word	0x20000170

00002164 <SERCOM1_Handler>:
    2164:	b510      	push	{r4, lr}
    2166:	4b02      	ldr	r3, [pc, #8]	; (2170 <SERCOM1_Handler+0xc>)
    2168:	685b      	ldr	r3, [r3, #4]
    216a:	2001      	movs	r0, #1
    216c:	4798      	blx	r3
    216e:	bd10      	pop	{r4, pc}
    2170:	20000170 	.word	0x20000170

00002174 <SERCOM2_Handler>:
    2174:	b510      	push	{r4, lr}
    2176:	4b02      	ldr	r3, [pc, #8]	; (2180 <SERCOM2_Handler+0xc>)
    2178:	689b      	ldr	r3, [r3, #8]
    217a:	2002      	movs	r0, #2
    217c:	4798      	blx	r3
    217e:	bd10      	pop	{r4, pc}
    2180:	20000170 	.word	0x20000170

00002184 <SERCOM3_Handler>:
    2184:	b510      	push	{r4, lr}
    2186:	4b02      	ldr	r3, [pc, #8]	; (2190 <SERCOM3_Handler+0xc>)
    2188:	68db      	ldr	r3, [r3, #12]
    218a:	2003      	movs	r0, #3
    218c:	4798      	blx	r3
    218e:	bd10      	pop	{r4, pc}
    2190:	20000170 	.word	0x20000170

00002194 <SERCOM4_Handler>:
    2194:	b510      	push	{r4, lr}
    2196:	4b02      	ldr	r3, [pc, #8]	; (21a0 <SERCOM4_Handler+0xc>)
    2198:	691b      	ldr	r3, [r3, #16]
    219a:	2004      	movs	r0, #4
    219c:	4798      	blx	r3
    219e:	bd10      	pop	{r4, pc}
    21a0:	20000170 	.word	0x20000170

000021a4 <SERCOM5_Handler>:
    21a4:	b510      	push	{r4, lr}
    21a6:	4b02      	ldr	r3, [pc, #8]	; (21b0 <SERCOM5_Handler+0xc>)
    21a8:	695b      	ldr	r3, [r3, #20]
    21aa:	2005      	movs	r0, #5
    21ac:	4798      	blx	r3
    21ae:	bd10      	pop	{r4, pc}
    21b0:	20000170 	.word	0x20000170

000021b4 <spi_reset>:
    21b4:	b570      	push	{r4, r5, r6, lr}
    21b6:	0005      	movs	r5, r0
    21b8:	6804      	ldr	r4, [r0, #0]
    21ba:	0020      	movs	r0, r4
    21bc:	4b0e      	ldr	r3, [pc, #56]	; (21f8 <spi_reset+0x44>)
    21be:	4798      	blx	r3
    21c0:	231f      	movs	r3, #31
    21c2:	4018      	ands	r0, r3
    21c4:	3b1e      	subs	r3, #30
    21c6:	4083      	lsls	r3, r0
    21c8:	2280      	movs	r2, #128	; 0x80
    21ca:	490c      	ldr	r1, [pc, #48]	; (21fc <spi_reset+0x48>)
    21cc:	508b      	str	r3, [r1, r2]
    21ce:	682a      	ldr	r2, [r5, #0]
    21d0:	69d3      	ldr	r3, [r2, #28]
    21d2:	2b00      	cmp	r3, #0
    21d4:	d1fc      	bne.n	21d0 <spi_reset+0x1c>
    21d6:	338f      	adds	r3, #143	; 0x8f
    21d8:	7523      	strb	r3, [r4, #20]
    21da:	7623      	strb	r3, [r4, #24]
    21dc:	6823      	ldr	r3, [r4, #0]
    21de:	2202      	movs	r2, #2
    21e0:	4393      	bics	r3, r2
    21e2:	6023      	str	r3, [r4, #0]
    21e4:	682a      	ldr	r2, [r5, #0]
    21e6:	69d3      	ldr	r3, [r2, #28]
    21e8:	2b00      	cmp	r3, #0
    21ea:	d1fc      	bne.n	21e6 <spi_reset+0x32>
    21ec:	6823      	ldr	r3, [r4, #0]
    21ee:	2201      	movs	r2, #1
    21f0:	4313      	orrs	r3, r2
    21f2:	6023      	str	r3, [r4, #0]
    21f4:	bd70      	pop	{r4, r5, r6, pc}
    21f6:	46c0      	nop			; (mov r8, r8)
    21f8:	00002125 	.word	0x00002125
    21fc:	e000e100 	.word	0xe000e100

00002200 <spi_set_baudrate>:
    2200:	b570      	push	{r4, r5, r6, lr}
    2202:	b082      	sub	sp, #8
    2204:	0005      	movs	r5, r0
    2206:	000c      	movs	r4, r1
    2208:	2200      	movs	r2, #0
    220a:	466b      	mov	r3, sp
    220c:	80da      	strh	r2, [r3, #6]
    220e:	6806      	ldr	r6, [r0, #0]
    2210:	0030      	movs	r0, r6
    2212:	4b24      	ldr	r3, [pc, #144]	; (22a4 <spi_set_baudrate+0xa4>)
    2214:	4798      	blx	r3
    2216:	231f      	movs	r3, #31
    2218:	4018      	ands	r0, r3
    221a:	3b1e      	subs	r3, #30
    221c:	4083      	lsls	r3, r0
    221e:	2280      	movs	r2, #128	; 0x80
    2220:	4921      	ldr	r1, [pc, #132]	; (22a8 <spi_set_baudrate+0xa8>)
    2222:	508b      	str	r3, [r1, r2]
    2224:	682a      	ldr	r2, [r5, #0]
    2226:	69d3      	ldr	r3, [r2, #28]
    2228:	2b00      	cmp	r3, #0
    222a:	d1fc      	bne.n	2226 <spi_set_baudrate+0x26>
    222c:	338f      	adds	r3, #143	; 0x8f
    222e:	7533      	strb	r3, [r6, #20]
    2230:	7633      	strb	r3, [r6, #24]
    2232:	6833      	ldr	r3, [r6, #0]
    2234:	2202      	movs	r2, #2
    2236:	4393      	bics	r3, r2
    2238:	6033      	str	r3, [r6, #0]
    223a:	6828      	ldr	r0, [r5, #0]
    223c:	69c3      	ldr	r3, [r0, #28]
    223e:	2b00      	cmp	r3, #0
    2240:	d1fc      	bne.n	223c <spi_set_baudrate+0x3c>
    2242:	4b1a      	ldr	r3, [pc, #104]	; (22ac <spi_set_baudrate+0xac>)
    2244:	4798      	blx	r3
    2246:	3014      	adds	r0, #20
    2248:	b2c0      	uxtb	r0, r0
    224a:	4b19      	ldr	r3, [pc, #100]	; (22b0 <spi_set_baudrate+0xb0>)
    224c:	4798      	blx	r3
    224e:	0001      	movs	r1, r0
    2250:	466b      	mov	r3, sp
    2252:	1d9a      	adds	r2, r3, #6
    2254:	0020      	movs	r0, r4
    2256:	4b17      	ldr	r3, [pc, #92]	; (22b4 <spi_set_baudrate+0xb4>)
    2258:	4798      	blx	r3
    225a:	1e04      	subs	r4, r0, #0
    225c:	d003      	beq.n	2266 <spi_set_baudrate+0x66>
    225e:	2417      	movs	r4, #23
    2260:	0020      	movs	r0, r4
    2262:	b002      	add	sp, #8
    2264:	bd70      	pop	{r4, r5, r6, pc}
    2266:	466b      	mov	r3, sp
    2268:	3306      	adds	r3, #6
    226a:	781b      	ldrb	r3, [r3, #0]
    226c:	7333      	strb	r3, [r6, #12]
    226e:	682e      	ldr	r6, [r5, #0]
    2270:	69f3      	ldr	r3, [r6, #28]
    2272:	2b00      	cmp	r3, #0
    2274:	d1fc      	bne.n	2270 <spi_set_baudrate+0x70>
    2276:	0030      	movs	r0, r6
    2278:	4b0a      	ldr	r3, [pc, #40]	; (22a4 <spi_set_baudrate+0xa4>)
    227a:	4798      	blx	r3
    227c:	231f      	movs	r3, #31
    227e:	4018      	ands	r0, r3
    2280:	3b1e      	subs	r3, #30
    2282:	4083      	lsls	r3, r0
    2284:	4a08      	ldr	r2, [pc, #32]	; (22a8 <spi_set_baudrate+0xa8>)
    2286:	6013      	str	r3, [r2, #0]
    2288:	682a      	ldr	r2, [r5, #0]
    228a:	69d3      	ldr	r3, [r2, #28]
    228c:	2b00      	cmp	r3, #0
    228e:	d1fc      	bne.n	228a <spi_set_baudrate+0x8a>
    2290:	6833      	ldr	r3, [r6, #0]
    2292:	2202      	movs	r2, #2
    2294:	4313      	orrs	r3, r2
    2296:	6033      	str	r3, [r6, #0]
    2298:	682a      	ldr	r2, [r5, #0]
    229a:	69d3      	ldr	r3, [r2, #28]
    229c:	2b00      	cmp	r3, #0
    229e:	d1fc      	bne.n	229a <spi_set_baudrate+0x9a>
    22a0:	e7de      	b.n	2260 <spi_set_baudrate+0x60>
    22a2:	46c0      	nop			; (mov r8, r8)
    22a4:	00002125 	.word	0x00002125
    22a8:	e000e100 	.word	0xe000e100
    22ac:	000020ad 	.word	0x000020ad
    22b0:	000035c1 	.word	0x000035c1
    22b4:	00001e2b 	.word	0x00001e2b

000022b8 <spi_init>:
    22b8:	b5f0      	push	{r4, r5, r6, r7, lr}
    22ba:	b08b      	sub	sp, #44	; 0x2c
    22bc:	0005      	movs	r5, r0
    22be:	000c      	movs	r4, r1
    22c0:	0016      	movs	r6, r2
    22c2:	6029      	str	r1, [r5, #0]
    22c4:	680b      	ldr	r3, [r1, #0]
    22c6:	201c      	movs	r0, #28
    22c8:	079b      	lsls	r3, r3, #30
    22ca:	d501      	bpl.n	22d0 <spi_init+0x18>
    22cc:	b00b      	add	sp, #44	; 0x2c
    22ce:	bdf0      	pop	{r4, r5, r6, r7, pc}
    22d0:	680b      	ldr	r3, [r1, #0]
    22d2:	3817      	subs	r0, #23
    22d4:	07db      	lsls	r3, r3, #31
    22d6:	d4f9      	bmi.n	22cc <spi_init+0x14>
    22d8:	0008      	movs	r0, r1
    22da:	4b60      	ldr	r3, [pc, #384]	; (245c <spi_init+0x1a4>)
    22dc:	4798      	blx	r3
    22de:	4a60      	ldr	r2, [pc, #384]	; (2460 <spi_init+0x1a8>)
    22e0:	6a11      	ldr	r1, [r2, #32]
    22e2:	1c87      	adds	r7, r0, #2
    22e4:	2301      	movs	r3, #1
    22e6:	40bb      	lsls	r3, r7
    22e8:	430b      	orrs	r3, r1
    22ea:	6213      	str	r3, [r2, #32]
    22ec:	a909      	add	r1, sp, #36	; 0x24
    22ee:	2724      	movs	r7, #36	; 0x24
    22f0:	5df3      	ldrb	r3, [r6, r7]
    22f2:	700b      	strb	r3, [r1, #0]
    22f4:	3014      	adds	r0, #20
    22f6:	b2c3      	uxtb	r3, r0
    22f8:	9301      	str	r3, [sp, #4]
    22fa:	0018      	movs	r0, r3
    22fc:	4b59      	ldr	r3, [pc, #356]	; (2464 <spi_init+0x1ac>)
    22fe:	4798      	blx	r3
    2300:	9801      	ldr	r0, [sp, #4]
    2302:	4b59      	ldr	r3, [pc, #356]	; (2468 <spi_init+0x1b0>)
    2304:	4798      	blx	r3
    2306:	5df0      	ldrb	r0, [r6, r7]
    2308:	2100      	movs	r1, #0
    230a:	4b58      	ldr	r3, [pc, #352]	; (246c <spi_init+0x1b4>)
    230c:	4798      	blx	r3
    230e:	7833      	ldrb	r3, [r6, #0]
    2310:	2b01      	cmp	r3, #1
    2312:	d038      	beq.n	2386 <spi_init+0xce>
    2314:	002b      	movs	r3, r5
    2316:	330c      	adds	r3, #12
    2318:	0029      	movs	r1, r5
    231a:	3128      	adds	r1, #40	; 0x28
    231c:	2200      	movs	r2, #0
    231e:	c304      	stmia	r3!, {r2}
    2320:	428b      	cmp	r3, r1
    2322:	d1fc      	bne.n	231e <spi_init+0x66>
    2324:	2300      	movs	r3, #0
    2326:	62eb      	str	r3, [r5, #44]	; 0x2c
    2328:	62ab      	str	r3, [r5, #40]	; 0x28
    232a:	2400      	movs	r4, #0
    232c:	86ab      	strh	r3, [r5, #52]	; 0x34
    232e:	862b      	strh	r3, [r5, #48]	; 0x30
    2330:	3336      	adds	r3, #54	; 0x36
    2332:	54ec      	strb	r4, [r5, r3]
    2334:	3301      	adds	r3, #1
    2336:	54ec      	strb	r4, [r5, r3]
    2338:	3301      	adds	r3, #1
    233a:	54ec      	strb	r4, [r5, r3]
    233c:	3b35      	subs	r3, #53	; 0x35
    233e:	726b      	strb	r3, [r5, #9]
    2340:	712c      	strb	r4, [r5, #4]
    2342:	6828      	ldr	r0, [r5, #0]
    2344:	4b45      	ldr	r3, [pc, #276]	; (245c <spi_init+0x1a4>)
    2346:	4798      	blx	r3
    2348:	0007      	movs	r7, r0
    234a:	4949      	ldr	r1, [pc, #292]	; (2470 <spi_init+0x1b8>)
    234c:	4b49      	ldr	r3, [pc, #292]	; (2474 <spi_init+0x1bc>)
    234e:	4798      	blx	r3
    2350:	00bf      	lsls	r7, r7, #2
    2352:	4b49      	ldr	r3, [pc, #292]	; (2478 <spi_init+0x1c0>)
    2354:	50fd      	str	r5, [r7, r3]
    2356:	682f      	ldr	r7, [r5, #0]
    2358:	ab04      	add	r3, sp, #16
    235a:	2280      	movs	r2, #128	; 0x80
    235c:	701a      	strb	r2, [r3, #0]
    235e:	705c      	strb	r4, [r3, #1]
    2360:	3a7f      	subs	r2, #127	; 0x7f
    2362:	709a      	strb	r2, [r3, #2]
    2364:	70dc      	strb	r4, [r3, #3]
    2366:	7833      	ldrb	r3, [r6, #0]
    2368:	2b00      	cmp	r3, #0
    236a:	d102      	bne.n	2372 <spi_init+0xba>
    236c:	2200      	movs	r2, #0
    236e:	ab04      	add	r3, sp, #16
    2370:	709a      	strb	r2, [r3, #2]
    2372:	6ab3      	ldr	r3, [r6, #40]	; 0x28
    2374:	9305      	str	r3, [sp, #20]
    2376:	6af3      	ldr	r3, [r6, #44]	; 0x2c
    2378:	9306      	str	r3, [sp, #24]
    237a:	6b33      	ldr	r3, [r6, #48]	; 0x30
    237c:	9307      	str	r3, [sp, #28]
    237e:	6b73      	ldr	r3, [r6, #52]	; 0x34
    2380:	9308      	str	r3, [sp, #32]
    2382:	2400      	movs	r4, #0
    2384:	e00b      	b.n	239e <spi_init+0xe6>
    2386:	6823      	ldr	r3, [r4, #0]
    2388:	220c      	movs	r2, #12
    238a:	4313      	orrs	r3, r2
    238c:	6023      	str	r3, [r4, #0]
    238e:	e7c1      	b.n	2314 <spi_init+0x5c>
    2390:	0038      	movs	r0, r7
    2392:	4b3a      	ldr	r3, [pc, #232]	; (247c <spi_init+0x1c4>)
    2394:	4798      	blx	r3
    2396:	e00a      	b.n	23ae <spi_init+0xf6>
    2398:	3401      	adds	r4, #1
    239a:	2c04      	cmp	r4, #4
    239c:	d010      	beq.n	23c0 <spi_init+0x108>
    239e:	b2e1      	uxtb	r1, r4
    23a0:	00a3      	lsls	r3, r4, #2
    23a2:	aa02      	add	r2, sp, #8
    23a4:	200c      	movs	r0, #12
    23a6:	1812      	adds	r2, r2, r0
    23a8:	58d0      	ldr	r0, [r2, r3]
    23aa:	2800      	cmp	r0, #0
    23ac:	d0f0      	beq.n	2390 <spi_init+0xd8>
    23ae:	1c43      	adds	r3, r0, #1
    23b0:	d0f2      	beq.n	2398 <spi_init+0xe0>
    23b2:	a904      	add	r1, sp, #16
    23b4:	7008      	strb	r0, [r1, #0]
    23b6:	0c00      	lsrs	r0, r0, #16
    23b8:	b2c0      	uxtb	r0, r0
    23ba:	4b31      	ldr	r3, [pc, #196]	; (2480 <spi_init+0x1c8>)
    23bc:	4798      	blx	r3
    23be:	e7eb      	b.n	2398 <spi_init+0xe0>
    23c0:	7833      	ldrb	r3, [r6, #0]
    23c2:	716b      	strb	r3, [r5, #5]
    23c4:	7c33      	ldrb	r3, [r6, #16]
    23c6:	71ab      	strb	r3, [r5, #6]
    23c8:	7cb3      	ldrb	r3, [r6, #18]
    23ca:	71eb      	strb	r3, [r5, #7]
    23cc:	7d33      	ldrb	r3, [r6, #20]
    23ce:	722b      	strb	r3, [r5, #8]
    23d0:	2200      	movs	r2, #0
    23d2:	ab02      	add	r3, sp, #8
    23d4:	80da      	strh	r2, [r3, #6]
    23d6:	7833      	ldrb	r3, [r6, #0]
    23d8:	2b01      	cmp	r3, #1
    23da:	d028      	beq.n	242e <spi_init+0x176>
    23dc:	6873      	ldr	r3, [r6, #4]
    23de:	68b2      	ldr	r2, [r6, #8]
    23e0:	4313      	orrs	r3, r2
    23e2:	68f2      	ldr	r2, [r6, #12]
    23e4:	4313      	orrs	r3, r2
    23e6:	7c31      	ldrb	r1, [r6, #16]
    23e8:	7c72      	ldrb	r2, [r6, #17]
    23ea:	2a00      	cmp	r2, #0
    23ec:	d103      	bne.n	23f6 <spi_init+0x13e>
    23ee:	4a25      	ldr	r2, [pc, #148]	; (2484 <spi_init+0x1cc>)
    23f0:	7892      	ldrb	r2, [r2, #2]
    23f2:	0792      	lsls	r2, r2, #30
    23f4:	d501      	bpl.n	23fa <spi_init+0x142>
    23f6:	2280      	movs	r2, #128	; 0x80
    23f8:	4313      	orrs	r3, r2
    23fa:	7cb2      	ldrb	r2, [r6, #18]
    23fc:	2a00      	cmp	r2, #0
    23fe:	d002      	beq.n	2406 <spi_init+0x14e>
    2400:	2280      	movs	r2, #128	; 0x80
    2402:	0292      	lsls	r2, r2, #10
    2404:	4311      	orrs	r1, r2
    2406:	7cf2      	ldrb	r2, [r6, #19]
    2408:	2a00      	cmp	r2, #0
    240a:	d002      	beq.n	2412 <spi_init+0x15a>
    240c:	2280      	movs	r2, #128	; 0x80
    240e:	0092      	lsls	r2, r2, #2
    2410:	4311      	orrs	r1, r2
    2412:	7d32      	ldrb	r2, [r6, #20]
    2414:	2a00      	cmp	r2, #0
    2416:	d002      	beq.n	241e <spi_init+0x166>
    2418:	2280      	movs	r2, #128	; 0x80
    241a:	0192      	lsls	r2, r2, #6
    241c:	4311      	orrs	r1, r2
    241e:	683a      	ldr	r2, [r7, #0]
    2420:	4313      	orrs	r3, r2
    2422:	603b      	str	r3, [r7, #0]
    2424:	687b      	ldr	r3, [r7, #4]
    2426:	430b      	orrs	r3, r1
    2428:	607b      	str	r3, [r7, #4]
    242a:	2000      	movs	r0, #0
    242c:	e74e      	b.n	22cc <spi_init+0x14>
    242e:	6828      	ldr	r0, [r5, #0]
    2430:	4b0a      	ldr	r3, [pc, #40]	; (245c <spi_init+0x1a4>)
    2432:	4798      	blx	r3
    2434:	3014      	adds	r0, #20
    2436:	b2c0      	uxtb	r0, r0
    2438:	4b13      	ldr	r3, [pc, #76]	; (2488 <spi_init+0x1d0>)
    243a:	4798      	blx	r3
    243c:	0001      	movs	r1, r0
    243e:	ab02      	add	r3, sp, #8
    2440:	1d9a      	adds	r2, r3, #6
    2442:	69b0      	ldr	r0, [r6, #24]
    2444:	4b11      	ldr	r3, [pc, #68]	; (248c <spi_init+0x1d4>)
    2446:	4798      	blx	r3
    2448:	0003      	movs	r3, r0
    244a:	2017      	movs	r0, #23
    244c:	2b00      	cmp	r3, #0
    244e:	d000      	beq.n	2452 <spi_init+0x19a>
    2450:	e73c      	b.n	22cc <spi_init+0x14>
    2452:	ab02      	add	r3, sp, #8
    2454:	3306      	adds	r3, #6
    2456:	781b      	ldrb	r3, [r3, #0]
    2458:	733b      	strb	r3, [r7, #12]
    245a:	e7bf      	b.n	23dc <spi_init+0x124>
    245c:	000020ad 	.word	0x000020ad
    2460:	40000400 	.word	0x40000400
    2464:	000035a5 	.word	0x000035a5
    2468:	00003519 	.word	0x00003519
    246c:	00001ee9 	.word	0x00001ee9
    2470:	00002725 	.word	0x00002725
    2474:	000020e9 	.word	0x000020e9
    2478:	20000a18 	.word	0x20000a18
    247c:	00001f35 	.word	0x00001f35
    2480:	0000369d 	.word	0x0000369d
    2484:	41002000 	.word	0x41002000
    2488:	000035c1 	.word	0x000035c1
    248c:	00001e2b 	.word	0x00001e2b

00002490 <spi_read_buffer_wait>:
    2490:	b5f0      	push	{r4, r5, r6, r7, lr}
    2492:	46d6      	mov	lr, sl
    2494:	4647      	mov	r7, r8
    2496:	b580      	push	{r7, lr}
    2498:	b083      	sub	sp, #12
    249a:	2438      	movs	r4, #56	; 0x38
    249c:	5d05      	ldrb	r5, [r0, r4]
    249e:	3c33      	subs	r4, #51	; 0x33
    24a0:	2d05      	cmp	r5, #5
    24a2:	d002      	beq.n	24aa <spi_read_buffer_wait+0x1a>
    24a4:	3412      	adds	r4, #18
    24a6:	2a00      	cmp	r2, #0
    24a8:	d105      	bne.n	24b6 <spi_read_buffer_wait+0x26>
    24aa:	0020      	movs	r0, r4
    24ac:	b003      	add	sp, #12
    24ae:	bc0c      	pop	{r2, r3}
    24b0:	4690      	mov	r8, r2
    24b2:	469a      	mov	sl, r3
    24b4:	bdf0      	pop	{r4, r5, r6, r7, pc}
    24b6:	79c4      	ldrb	r4, [r0, #7]
    24b8:	2c00      	cmp	r4, #0
    24ba:	d144      	bne.n	2546 <spi_read_buffer_wait+0xb6>
    24bc:	341c      	adds	r4, #28
    24be:	e7f4      	b.n	24aa <spi_read_buffer_wait+0x1a>
    24c0:	6805      	ldr	r5, [r0, #0]
    24c2:	7e2c      	ldrb	r4, [r5, #24]
    24c4:	423c      	tst	r4, r7
    24c6:	d0fc      	beq.n	24c2 <spi_read_buffer_wait+0x32>
    24c8:	7e2c      	ldrb	r4, [r5, #24]
    24ca:	423c      	tst	r4, r7
    24cc:	d01a      	beq.n	2504 <spi_read_buffer_wait+0x74>
    24ce:	4644      	mov	r4, r8
    24d0:	62ac      	str	r4, [r5, #40]	; 0x28
    24d2:	e017      	b.n	2504 <spi_read_buffer_wait+0x74>
    24d4:	7984      	ldrb	r4, [r0, #6]
    24d6:	2c01      	cmp	r4, #1
    24d8:	d026      	beq.n	2528 <spi_read_buffer_wait+0x98>
    24da:	6aad      	ldr	r5, [r5, #40]	; 0x28
    24dc:	b2ec      	uxtb	r4, r5
    24de:	46a4      	mov	ip, r4
    24e0:	9c01      	ldr	r4, [sp, #4]
    24e2:	2c00      	cmp	r4, #0
    24e4:	d13a      	bne.n	255c <spi_read_buffer_wait+0xcc>
    24e6:	1c75      	adds	r5, r6, #1
    24e8:	b2ad      	uxth	r5, r5
    24ea:	4664      	mov	r4, ip
    24ec:	558c      	strb	r4, [r1, r6]
    24ee:	7984      	ldrb	r4, [r0, #6]
    24f0:	2c01      	cmp	r4, #1
    24f2:	d01e      	beq.n	2532 <spi_read_buffer_wait+0xa2>
    24f4:	002e      	movs	r6, r5
    24f6:	3a01      	subs	r2, #1
    24f8:	b292      	uxth	r2, r2
    24fa:	4552      	cmp	r2, sl
    24fc:	d01f      	beq.n	253e <spi_read_buffer_wait+0xae>
    24fe:	7944      	ldrb	r4, [r0, #5]
    2500:	2c01      	cmp	r4, #1
    2502:	d0dd      	beq.n	24c0 <spi_read_buffer_wait+0x30>
    2504:	6805      	ldr	r5, [r0, #0]
    2506:	7e2c      	ldrb	r4, [r5, #24]
    2508:	421c      	tst	r4, r3
    250a:	d0fc      	beq.n	2506 <spi_read_buffer_wait+0x76>
    250c:	7e2c      	ldrb	r4, [r5, #24]
    250e:	421c      	tst	r4, r3
    2510:	d017      	beq.n	2542 <spi_read_buffer_wait+0xb2>
    2512:	8b6c      	ldrh	r4, [r5, #26]
    2514:	46a4      	mov	ip, r4
    2516:	2400      	movs	r4, #0
    2518:	9401      	str	r4, [sp, #4]
    251a:	4664      	mov	r4, ip
    251c:	421c      	tst	r4, r3
    251e:	d0d9      	beq.n	24d4 <spi_read_buffer_wait+0x44>
    2520:	836b      	strh	r3, [r5, #26]
    2522:	241e      	movs	r4, #30
    2524:	9401      	str	r4, [sp, #4]
    2526:	e7d5      	b.n	24d4 <spi_read_buffer_wait+0x44>
    2528:	6aac      	ldr	r4, [r5, #40]	; 0x28
    252a:	05e4      	lsls	r4, r4, #23
    252c:	0de4      	lsrs	r4, r4, #23
    252e:	46a4      	mov	ip, r4
    2530:	e7d6      	b.n	24e0 <spi_read_buffer_wait+0x50>
    2532:	3602      	adds	r6, #2
    2534:	b2b6      	uxth	r6, r6
    2536:	4664      	mov	r4, ip
    2538:	0a24      	lsrs	r4, r4, #8
    253a:	554c      	strb	r4, [r1, r5]
    253c:	e7db      	b.n	24f6 <spi_read_buffer_wait+0x66>
    253e:	9c01      	ldr	r4, [sp, #4]
    2540:	e7b3      	b.n	24aa <spi_read_buffer_wait+0x1a>
    2542:	2410      	movs	r4, #16
    2544:	e7b1      	b.n	24aa <spi_read_buffer_wait+0x1a>
    2546:	3a01      	subs	r2, #1
    2548:	b292      	uxth	r2, r2
    254a:	2600      	movs	r6, #0
    254c:	2701      	movs	r7, #1
    254e:	05db      	lsls	r3, r3, #23
    2550:	0ddb      	lsrs	r3, r3, #23
    2552:	4698      	mov	r8, r3
    2554:	2304      	movs	r3, #4
    2556:	4c02      	ldr	r4, [pc, #8]	; (2560 <spi_read_buffer_wait+0xd0>)
    2558:	46a2      	mov	sl, r4
    255a:	e7d0      	b.n	24fe <spi_read_buffer_wait+0x6e>
    255c:	9c01      	ldr	r4, [sp, #4]
    255e:	e7a4      	b.n	24aa <spi_read_buffer_wait+0x1a>
    2560:	0000ffff 	.word	0x0000ffff

00002564 <spi_select_slave>:
    2564:	b510      	push	{r4, lr}
    2566:	7944      	ldrb	r4, [r0, #5]
    2568:	2315      	movs	r3, #21
    256a:	2c01      	cmp	r4, #1
    256c:	d001      	beq.n	2572 <spi_select_slave+0xe>
    256e:	0018      	movs	r0, r3
    2570:	bd10      	pop	{r4, pc}
    2572:	7a04      	ldrb	r4, [r0, #8]
    2574:	2300      	movs	r3, #0
    2576:	2c00      	cmp	r4, #0
    2578:	d1f9      	bne.n	256e <spi_select_slave+0xa>
    257a:	2a00      	cmp	r2, #0
    257c:	d058      	beq.n	2630 <spi_select_slave+0xcc>
    257e:	784b      	ldrb	r3, [r1, #1]
    2580:	2b00      	cmp	r3, #0
    2582:	d044      	beq.n	260e <spi_select_slave+0xaa>
    2584:	6803      	ldr	r3, [r0, #0]
    2586:	7e1b      	ldrb	r3, [r3, #24]
    2588:	07db      	lsls	r3, r3, #31
    258a:	d410      	bmi.n	25ae <spi_select_slave+0x4a>
    258c:	780a      	ldrb	r2, [r1, #0]
    258e:	09d1      	lsrs	r1, r2, #7
    2590:	2300      	movs	r3, #0
    2592:	2900      	cmp	r1, #0
    2594:	d104      	bne.n	25a0 <spi_select_slave+0x3c>
    2596:	0953      	lsrs	r3, r2, #5
    2598:	01db      	lsls	r3, r3, #7
    259a:	492e      	ldr	r1, [pc, #184]	; (2654 <spi_select_slave+0xf0>)
    259c:	468c      	mov	ip, r1
    259e:	4463      	add	r3, ip
    25a0:	211f      	movs	r1, #31
    25a2:	4011      	ands	r1, r2
    25a4:	2201      	movs	r2, #1
    25a6:	408a      	lsls	r2, r1
    25a8:	619a      	str	r2, [r3, #24]
    25aa:	2305      	movs	r3, #5
    25ac:	e7df      	b.n	256e <spi_select_slave+0xa>
    25ae:	780a      	ldrb	r2, [r1, #0]
    25b0:	09d4      	lsrs	r4, r2, #7
    25b2:	2300      	movs	r3, #0
    25b4:	2c00      	cmp	r4, #0
    25b6:	d104      	bne.n	25c2 <spi_select_slave+0x5e>
    25b8:	0953      	lsrs	r3, r2, #5
    25ba:	01db      	lsls	r3, r3, #7
    25bc:	4c25      	ldr	r4, [pc, #148]	; (2654 <spi_select_slave+0xf0>)
    25be:	46a4      	mov	ip, r4
    25c0:	4463      	add	r3, ip
    25c2:	241f      	movs	r4, #31
    25c4:	4014      	ands	r4, r2
    25c6:	2201      	movs	r2, #1
    25c8:	40a2      	lsls	r2, r4
    25ca:	615a      	str	r2, [r3, #20]
    25cc:	6803      	ldr	r3, [r0, #0]
    25ce:	7e1a      	ldrb	r2, [r3, #24]
    25d0:	07d2      	lsls	r2, r2, #31
    25d2:	d501      	bpl.n	25d8 <spi_select_slave+0x74>
    25d4:	788a      	ldrb	r2, [r1, #2]
    25d6:	629a      	str	r2, [r3, #40]	; 0x28
    25d8:	79c2      	ldrb	r2, [r0, #7]
    25da:	2300      	movs	r3, #0
    25dc:	2a00      	cmp	r2, #0
    25de:	d1c6      	bne.n	256e <spi_select_slave+0xa>
    25e0:	6802      	ldr	r2, [r0, #0]
    25e2:	2104      	movs	r1, #4
    25e4:	7e13      	ldrb	r3, [r2, #24]
    25e6:	420b      	tst	r3, r1
    25e8:	d0fc      	beq.n	25e4 <spi_select_slave+0x80>
    25ea:	7e11      	ldrb	r1, [r2, #24]
    25ec:	2300      	movs	r3, #0
    25ee:	0749      	lsls	r1, r1, #29
    25f0:	d5bd      	bpl.n	256e <spi_select_slave+0xa>
    25f2:	8b53      	ldrh	r3, [r2, #26]
    25f4:	075b      	lsls	r3, r3, #29
    25f6:	d501      	bpl.n	25fc <spi_select_slave+0x98>
    25f8:	2304      	movs	r3, #4
    25fa:	8353      	strh	r3, [r2, #26]
    25fc:	7983      	ldrb	r3, [r0, #6]
    25fe:	2b01      	cmp	r3, #1
    2600:	d002      	beq.n	2608 <spi_select_slave+0xa4>
    2602:	6a93      	ldr	r3, [r2, #40]	; 0x28
    2604:	2300      	movs	r3, #0
    2606:	e7b2      	b.n	256e <spi_select_slave+0xa>
    2608:	6a93      	ldr	r3, [r2, #40]	; 0x28
    260a:	2300      	movs	r3, #0
    260c:	e7af      	b.n	256e <spi_select_slave+0xa>
    260e:	780a      	ldrb	r2, [r1, #0]
    2610:	09d1      	lsrs	r1, r2, #7
    2612:	2300      	movs	r3, #0
    2614:	2900      	cmp	r1, #0
    2616:	d104      	bne.n	2622 <spi_select_slave+0xbe>
    2618:	0953      	lsrs	r3, r2, #5
    261a:	01db      	lsls	r3, r3, #7
    261c:	490d      	ldr	r1, [pc, #52]	; (2654 <spi_select_slave+0xf0>)
    261e:	468c      	mov	ip, r1
    2620:	4463      	add	r3, ip
    2622:	211f      	movs	r1, #31
    2624:	4011      	ands	r1, r2
    2626:	2201      	movs	r2, #1
    2628:	408a      	lsls	r2, r1
    262a:	615a      	str	r2, [r3, #20]
    262c:	2300      	movs	r3, #0
    262e:	e79e      	b.n	256e <spi_select_slave+0xa>
    2630:	780a      	ldrb	r2, [r1, #0]
    2632:	09d1      	lsrs	r1, r2, #7
    2634:	2300      	movs	r3, #0
    2636:	2900      	cmp	r1, #0
    2638:	d104      	bne.n	2644 <spi_select_slave+0xe0>
    263a:	0953      	lsrs	r3, r2, #5
    263c:	01db      	lsls	r3, r3, #7
    263e:	4905      	ldr	r1, [pc, #20]	; (2654 <spi_select_slave+0xf0>)
    2640:	468c      	mov	ip, r1
    2642:	4463      	add	r3, ip
    2644:	211f      	movs	r1, #31
    2646:	4011      	ands	r1, r2
    2648:	2201      	movs	r2, #1
    264a:	408a      	lsls	r2, r1
    264c:	619a      	str	r2, [r3, #24]
    264e:	2300      	movs	r3, #0
    2650:	e78d      	b.n	256e <spi_select_slave+0xa>
    2652:	46c0      	nop			; (mov r8, r8)
    2654:	41004400 	.word	0x41004400

00002658 <spi_write_buffer_wait>:
    2658:	b5f0      	push	{r4, r5, r6, r7, lr}
    265a:	46de      	mov	lr, fp
    265c:	4657      	mov	r7, sl
    265e:	464e      	mov	r6, r9
    2660:	4645      	mov	r5, r8
    2662:	b5e0      	push	{r5, r6, r7, lr}
    2664:	b083      	sub	sp, #12
    2666:	468a      	mov	sl, r1
    2668:	2338      	movs	r3, #56	; 0x38
    266a:	5cc4      	ldrb	r4, [r0, r3]
    266c:	3b33      	subs	r3, #51	; 0x33
    266e:	2c05      	cmp	r4, #5
    2670:	d002      	beq.n	2678 <spi_write_buffer_wait+0x20>
    2672:	3312      	adds	r3, #18
    2674:	2a00      	cmp	r2, #0
    2676:	d14b      	bne.n	2710 <spi_write_buffer_wait+0xb8>
    2678:	0018      	movs	r0, r3
    267a:	b003      	add	sp, #12
    267c:	bc3c      	pop	{r2, r3, r4, r5}
    267e:	4690      	mov	r8, r2
    2680:	4699      	mov	r9, r3
    2682:	46a2      	mov	sl, r4
    2684:	46ab      	mov	fp, r5
    2686:	bdf0      	pop	{r4, r5, r6, r7, pc}
    2688:	3702      	adds	r7, #2
    268a:	b2bf      	uxth	r7, r7
    268c:	4641      	mov	r1, r8
    268e:	4653      	mov	r3, sl
    2690:	5c59      	ldrb	r1, [r3, r1]
    2692:	0209      	lsls	r1, r1, #8
    2694:	465b      	mov	r3, fp
    2696:	430b      	orrs	r3, r1
    2698:	e018      	b.n	26cc <spi_write_buffer_wait+0x74>
    269a:	7983      	ldrb	r3, [r0, #6]
    269c:	2b01      	cmp	r3, #1
    269e:	d02a      	beq.n	26f6 <spi_write_buffer_wait+0x9e>
    26a0:	6a93      	ldr	r3, [r2, #40]	; 0x28
    26a2:	3e01      	subs	r6, #1
    26a4:	b2b6      	uxth	r6, r6
    26a6:	4566      	cmp	r6, ip
    26a8:	d027      	beq.n	26fa <spi_write_buffer_wait+0xa2>
    26aa:	6802      	ldr	r2, [r0, #0]
    26ac:	7e13      	ldrb	r3, [r2, #24]
    26ae:	4223      	tst	r3, r4
    26b0:	d0fc      	beq.n	26ac <spi_write_buffer_wait+0x54>
    26b2:	1c7b      	adds	r3, r7, #1
    26b4:	b29b      	uxth	r3, r3
    26b6:	4698      	mov	r8, r3
    26b8:	4653      	mov	r3, sl
    26ba:	5ddb      	ldrb	r3, [r3, r7]
    26bc:	469b      	mov	fp, r3
    26be:	7981      	ldrb	r1, [r0, #6]
    26c0:	2901      	cmp	r1, #1
    26c2:	d0e1      	beq.n	2688 <spi_write_buffer_wait+0x30>
    26c4:	4669      	mov	r1, sp
    26c6:	80cb      	strh	r3, [r1, #6]
    26c8:	88cb      	ldrh	r3, [r1, #6]
    26ca:	4647      	mov	r7, r8
    26cc:	7e11      	ldrb	r1, [r2, #24]
    26ce:	4221      	tst	r1, r4
    26d0:	d002      	beq.n	26d8 <spi_write_buffer_wait+0x80>
    26d2:	05db      	lsls	r3, r3, #23
    26d4:	0ddb      	lsrs	r3, r3, #23
    26d6:	6293      	str	r3, [r2, #40]	; 0x28
    26d8:	79c3      	ldrb	r3, [r0, #7]
    26da:	2b00      	cmp	r3, #0
    26dc:	d0e1      	beq.n	26a2 <spi_write_buffer_wait+0x4a>
    26de:	6802      	ldr	r2, [r0, #0]
    26e0:	7e13      	ldrb	r3, [r2, #24]
    26e2:	422b      	tst	r3, r5
    26e4:	d0fc      	beq.n	26e0 <spi_write_buffer_wait+0x88>
    26e6:	7e13      	ldrb	r3, [r2, #24]
    26e8:	422b      	tst	r3, r5
    26ea:	d0da      	beq.n	26a2 <spi_write_buffer_wait+0x4a>
    26ec:	8b53      	ldrh	r3, [r2, #26]
    26ee:	422b      	tst	r3, r5
    26f0:	d0d3      	beq.n	269a <spi_write_buffer_wait+0x42>
    26f2:	8355      	strh	r5, [r2, #26]
    26f4:	e7d1      	b.n	269a <spi_write_buffer_wait+0x42>
    26f6:	6a93      	ldr	r3, [r2, #40]	; 0x28
    26f8:	e7d3      	b.n	26a2 <spi_write_buffer_wait+0x4a>
    26fa:	7942      	ldrb	r2, [r0, #5]
    26fc:	2300      	movs	r3, #0
    26fe:	2a01      	cmp	r2, #1
    2700:	d1ba      	bne.n	2678 <spi_write_buffer_wait+0x20>
    2702:	6801      	ldr	r1, [r0, #0]
    2704:	3201      	adds	r2, #1
    2706:	7e0b      	ldrb	r3, [r1, #24]
    2708:	4213      	tst	r3, r2
    270a:	d0fc      	beq.n	2706 <spi_write_buffer_wait+0xae>
    270c:	2300      	movs	r3, #0
    270e:	e7b3      	b.n	2678 <spi_write_buffer_wait+0x20>
    2710:	3a01      	subs	r2, #1
    2712:	b296      	uxth	r6, r2
    2714:	2700      	movs	r7, #0
    2716:	2401      	movs	r4, #1
    2718:	2504      	movs	r5, #4
    271a:	4b01      	ldr	r3, [pc, #4]	; (2720 <spi_write_buffer_wait+0xc8>)
    271c:	469c      	mov	ip, r3
    271e:	e7c4      	b.n	26aa <spi_write_buffer_wait+0x52>
    2720:	0000ffff 	.word	0x0000ffff

00002724 <_spi_interrupt_handler>:
    2724:	b5f8      	push	{r3, r4, r5, r6, r7, lr}
    2726:	0080      	lsls	r0, r0, #2
    2728:	4b70      	ldr	r3, [pc, #448]	; (28ec <_spi_interrupt_handler+0x1c8>)
    272a:	58c4      	ldr	r4, [r0, r3]
    272c:	6826      	ldr	r6, [r4, #0]
    272e:	2337      	movs	r3, #55	; 0x37
    2730:	5ce7      	ldrb	r7, [r4, r3]
    2732:	2236      	movs	r2, #54	; 0x36
    2734:	5ca2      	ldrb	r2, [r4, r2]
    2736:	4017      	ands	r7, r2
    2738:	7e33      	ldrb	r3, [r6, #24]
    273a:	7db5      	ldrb	r5, [r6, #22]
    273c:	401d      	ands	r5, r3
    273e:	07eb      	lsls	r3, r5, #31
    2740:	d502      	bpl.n	2748 <_spi_interrupt_handler+0x24>
    2742:	7963      	ldrb	r3, [r4, #5]
    2744:	2b01      	cmp	r3, #1
    2746:	d01e      	beq.n	2786 <_spi_interrupt_handler+0x62>
    2748:	076b      	lsls	r3, r5, #29
    274a:	d511      	bpl.n	2770 <_spi_interrupt_handler+0x4c>
    274c:	8b73      	ldrh	r3, [r6, #26]
    274e:	075b      	lsls	r3, r3, #29
    2750:	d55a      	bpl.n	2808 <_spi_interrupt_handler+0xe4>
    2752:	7a63      	ldrb	r3, [r4, #9]
    2754:	2b01      	cmp	r3, #1
    2756:	d008      	beq.n	276a <_spi_interrupt_handler+0x46>
    2758:	221e      	movs	r2, #30
    275a:	2338      	movs	r3, #56	; 0x38
    275c:	54e2      	strb	r2, [r4, r3]
    275e:	3b35      	subs	r3, #53	; 0x35
    2760:	7263      	strb	r3, [r4, #9]
    2762:	3302      	adds	r3, #2
    2764:	7533      	strb	r3, [r6, #20]
    2766:	073b      	lsls	r3, r7, #28
    2768:	d44a      	bmi.n	2800 <_spi_interrupt_handler+0xdc>
    276a:	6ab3      	ldr	r3, [r6, #40]	; 0x28
    276c:	2304      	movs	r3, #4
    276e:	8373      	strh	r3, [r6, #26]
    2770:	07ab      	lsls	r3, r5, #30
    2772:	d503      	bpl.n	277c <_spi_interrupt_handler+0x58>
    2774:	7963      	ldrb	r3, [r4, #5]
    2776:	2b01      	cmp	r3, #1
    2778:	d100      	bne.n	277c <_spi_interrupt_handler+0x58>
    277a:	e097      	b.n	28ac <_spi_interrupt_handler+0x188>
    277c:	b26d      	sxtb	r5, r5
    277e:	2d00      	cmp	r5, #0
    2780:	da00      	bge.n	2784 <_spi_interrupt_handler+0x60>
    2782:	e0a9      	b.n	28d8 <_spi_interrupt_handler+0x1b4>
    2784:	bdf8      	pop	{r3, r4, r5, r6, r7, pc}
    2786:	7a63      	ldrb	r3, [r4, #9]
    2788:	2b00      	cmp	r3, #0
    278a:	d022      	beq.n	27d2 <_spi_interrupt_handler+0xae>
    278c:	7a63      	ldrb	r3, [r4, #9]
    278e:	2b00      	cmp	r3, #0
    2790:	d0da      	beq.n	2748 <_spi_interrupt_handler+0x24>
    2792:	6821      	ldr	r1, [r4, #0]
    2794:	6ae2      	ldr	r2, [r4, #44]	; 0x2c
    2796:	7813      	ldrb	r3, [r2, #0]
    2798:	b2db      	uxtb	r3, r3
    279a:	1c50      	adds	r0, r2, #1
    279c:	62e0      	str	r0, [r4, #44]	; 0x2c
    279e:	79a0      	ldrb	r0, [r4, #6]
    27a0:	2801      	cmp	r0, #1
    27a2:	d027      	beq.n	27f4 <_spi_interrupt_handler+0xd0>
    27a4:	b29b      	uxth	r3, r3
    27a6:	05db      	lsls	r3, r3, #23
    27a8:	0ddb      	lsrs	r3, r3, #23
    27aa:	628b      	str	r3, [r1, #40]	; 0x28
    27ac:	8ea3      	ldrh	r3, [r4, #52]	; 0x34
    27ae:	3b01      	subs	r3, #1
    27b0:	b29b      	uxth	r3, r3
    27b2:	86a3      	strh	r3, [r4, #52]	; 0x34
    27b4:	8ea3      	ldrh	r3, [r4, #52]	; 0x34
    27b6:	b29b      	uxth	r3, r3
    27b8:	2b00      	cmp	r3, #0
    27ba:	d1c5      	bne.n	2748 <_spi_interrupt_handler+0x24>
    27bc:	3301      	adds	r3, #1
    27be:	7533      	strb	r3, [r6, #20]
    27c0:	7a63      	ldrb	r3, [r4, #9]
    27c2:	2b01      	cmp	r3, #1
    27c4:	d1c0      	bne.n	2748 <_spi_interrupt_handler+0x24>
    27c6:	79e3      	ldrb	r3, [r4, #7]
    27c8:	2b00      	cmp	r3, #0
    27ca:	d1bd      	bne.n	2748 <_spi_interrupt_handler+0x24>
    27cc:	3302      	adds	r3, #2
    27ce:	75b3      	strb	r3, [r6, #22]
    27d0:	e7ba      	b.n	2748 <_spi_interrupt_handler+0x24>
    27d2:	4b47      	ldr	r3, [pc, #284]	; (28f0 <_spi_interrupt_handler+0x1cc>)
    27d4:	881b      	ldrh	r3, [r3, #0]
    27d6:	62b3      	str	r3, [r6, #40]	; 0x28
    27d8:	8e63      	ldrh	r3, [r4, #50]	; 0x32
    27da:	3b01      	subs	r3, #1
    27dc:	b29b      	uxth	r3, r3
    27de:	8663      	strh	r3, [r4, #50]	; 0x32
    27e0:	8e63      	ldrh	r3, [r4, #50]	; 0x32
    27e2:	b29b      	uxth	r3, r3
    27e4:	2b00      	cmp	r3, #0
    27e6:	d101      	bne.n	27ec <_spi_interrupt_handler+0xc8>
    27e8:	3301      	adds	r3, #1
    27ea:	7533      	strb	r3, [r6, #20]
    27ec:	7963      	ldrb	r3, [r4, #5]
    27ee:	2b01      	cmp	r3, #1
    27f0:	d0cc      	beq.n	278c <_spi_interrupt_handler+0x68>
    27f2:	e7a9      	b.n	2748 <_spi_interrupt_handler+0x24>
    27f4:	7850      	ldrb	r0, [r2, #1]
    27f6:	0200      	lsls	r0, r0, #8
    27f8:	4303      	orrs	r3, r0
    27fa:	3202      	adds	r2, #2
    27fc:	62e2      	str	r2, [r4, #44]	; 0x2c
    27fe:	e7d2      	b.n	27a6 <_spi_interrupt_handler+0x82>
    2800:	0020      	movs	r0, r4
    2802:	69a3      	ldr	r3, [r4, #24]
    2804:	4798      	blx	r3
    2806:	e7b0      	b.n	276a <_spi_interrupt_handler+0x46>
    2808:	7a63      	ldrb	r3, [r4, #9]
    280a:	2b01      	cmp	r3, #1
    280c:	d028      	beq.n	2860 <_spi_interrupt_handler+0x13c>
    280e:	6823      	ldr	r3, [r4, #0]
    2810:	6a9b      	ldr	r3, [r3, #40]	; 0x28
    2812:	05db      	lsls	r3, r3, #23
    2814:	0ddb      	lsrs	r3, r3, #23
    2816:	b2da      	uxtb	r2, r3
    2818:	6aa1      	ldr	r1, [r4, #40]	; 0x28
    281a:	700a      	strb	r2, [r1, #0]
    281c:	6aa2      	ldr	r2, [r4, #40]	; 0x28
    281e:	1c51      	adds	r1, r2, #1
    2820:	62a1      	str	r1, [r4, #40]	; 0x28
    2822:	79a1      	ldrb	r1, [r4, #6]
    2824:	2901      	cmp	r1, #1
    2826:	d034      	beq.n	2892 <_spi_interrupt_handler+0x16e>
    2828:	8e23      	ldrh	r3, [r4, #48]	; 0x30
    282a:	3b01      	subs	r3, #1
    282c:	b29b      	uxth	r3, r3
    282e:	8623      	strh	r3, [r4, #48]	; 0x30
    2830:	8e23      	ldrh	r3, [r4, #48]	; 0x30
    2832:	b29b      	uxth	r3, r3
    2834:	2b00      	cmp	r3, #0
    2836:	d000      	beq.n	283a <_spi_interrupt_handler+0x116>
    2838:	e79a      	b.n	2770 <_spi_interrupt_handler+0x4c>
    283a:	2200      	movs	r2, #0
    283c:	3338      	adds	r3, #56	; 0x38
    283e:	54e2      	strb	r2, [r4, r3]
    2840:	3b34      	subs	r3, #52	; 0x34
    2842:	7533      	strb	r3, [r6, #20]
    2844:	7a63      	ldrb	r3, [r4, #9]
    2846:	2b02      	cmp	r3, #2
    2848:	d029      	beq.n	289e <_spi_interrupt_handler+0x17a>
    284a:	7a63      	ldrb	r3, [r4, #9]
    284c:	2b00      	cmp	r3, #0
    284e:	d000      	beq.n	2852 <_spi_interrupt_handler+0x12e>
    2850:	e78e      	b.n	2770 <_spi_interrupt_handler+0x4c>
    2852:	07bb      	lsls	r3, r7, #30
    2854:	d400      	bmi.n	2858 <_spi_interrupt_handler+0x134>
    2856:	e78b      	b.n	2770 <_spi_interrupt_handler+0x4c>
    2858:	0020      	movs	r0, r4
    285a:	6923      	ldr	r3, [r4, #16]
    285c:	4798      	blx	r3
    285e:	e787      	b.n	2770 <_spi_interrupt_handler+0x4c>
    2860:	6823      	ldr	r3, [r4, #0]
    2862:	6a9b      	ldr	r3, [r3, #40]	; 0x28
    2864:	8e63      	ldrh	r3, [r4, #50]	; 0x32
    2866:	3b01      	subs	r3, #1
    2868:	b29b      	uxth	r3, r3
    286a:	8663      	strh	r3, [r4, #50]	; 0x32
    286c:	8e63      	ldrh	r3, [r4, #50]	; 0x32
    286e:	b29b      	uxth	r3, r3
    2870:	2b00      	cmp	r3, #0
    2872:	d000      	beq.n	2876 <_spi_interrupt_handler+0x152>
    2874:	e77c      	b.n	2770 <_spi_interrupt_handler+0x4c>
    2876:	3304      	adds	r3, #4
    2878:	7533      	strb	r3, [r6, #20]
    287a:	2200      	movs	r2, #0
    287c:	3334      	adds	r3, #52	; 0x34
    287e:	54e2      	strb	r2, [r4, r3]
    2880:	3b35      	subs	r3, #53	; 0x35
    2882:	7263      	strb	r3, [r4, #9]
    2884:	07fb      	lsls	r3, r7, #31
    2886:	d400      	bmi.n	288a <_spi_interrupt_handler+0x166>
    2888:	e772      	b.n	2770 <_spi_interrupt_handler+0x4c>
    288a:	0020      	movs	r0, r4
    288c:	68e3      	ldr	r3, [r4, #12]
    288e:	4798      	blx	r3
    2890:	e76e      	b.n	2770 <_spi_interrupt_handler+0x4c>
    2892:	0a1b      	lsrs	r3, r3, #8
    2894:	7053      	strb	r3, [r2, #1]
    2896:	6aa3      	ldr	r3, [r4, #40]	; 0x28
    2898:	3301      	adds	r3, #1
    289a:	62a3      	str	r3, [r4, #40]	; 0x28
    289c:	e7c4      	b.n	2828 <_spi_interrupt_handler+0x104>
    289e:	077b      	lsls	r3, r7, #29
    28a0:	d400      	bmi.n	28a4 <_spi_interrupt_handler+0x180>
    28a2:	e765      	b.n	2770 <_spi_interrupt_handler+0x4c>
    28a4:	0020      	movs	r0, r4
    28a6:	6963      	ldr	r3, [r4, #20]
    28a8:	4798      	blx	r3
    28aa:	e761      	b.n	2770 <_spi_interrupt_handler+0x4c>
    28ac:	7a63      	ldrb	r3, [r4, #9]
    28ae:	2b01      	cmp	r3, #1
    28b0:	d000      	beq.n	28b4 <_spi_interrupt_handler+0x190>
    28b2:	e763      	b.n	277c <_spi_interrupt_handler+0x58>
    28b4:	79e3      	ldrb	r3, [r4, #7]
    28b6:	2b00      	cmp	r3, #0
    28b8:	d000      	beq.n	28bc <_spi_interrupt_handler+0x198>
    28ba:	e75f      	b.n	277c <_spi_interrupt_handler+0x58>
    28bc:	3302      	adds	r3, #2
    28be:	7533      	strb	r3, [r6, #20]
    28c0:	3301      	adds	r3, #1
    28c2:	7263      	strb	r3, [r4, #9]
    28c4:	2200      	movs	r2, #0
    28c6:	3335      	adds	r3, #53	; 0x35
    28c8:	54e2      	strb	r2, [r4, r3]
    28ca:	07fb      	lsls	r3, r7, #31
    28cc:	d400      	bmi.n	28d0 <_spi_interrupt_handler+0x1ac>
    28ce:	e755      	b.n	277c <_spi_interrupt_handler+0x58>
    28d0:	0020      	movs	r0, r4
    28d2:	68e3      	ldr	r3, [r4, #12]
    28d4:	4798      	blx	r3
    28d6:	e751      	b.n	277c <_spi_interrupt_handler+0x58>
    28d8:	2380      	movs	r3, #128	; 0x80
    28da:	7533      	strb	r3, [r6, #20]
    28dc:	7633      	strb	r3, [r6, #24]
    28de:	067b      	lsls	r3, r7, #25
    28e0:	d400      	bmi.n	28e4 <_spi_interrupt_handler+0x1c0>
    28e2:	e74f      	b.n	2784 <_spi_interrupt_handler+0x60>
    28e4:	6a63      	ldr	r3, [r4, #36]	; 0x24
    28e6:	0020      	movs	r0, r4
    28e8:	4798      	blx	r3
    28ea:	e74b      	b.n	2784 <_spi_interrupt_handler+0x60>
    28ec:	20000a18 	.word	0x20000a18
    28f0:	20000a30 	.word	0x20000a30

000028f4 <usart_init>:
    28f4:	b5f0      	push	{r4, r5, r6, r7, lr}
    28f6:	46de      	mov	lr, fp
    28f8:	4657      	mov	r7, sl
    28fa:	464e      	mov	r6, r9
    28fc:	4645      	mov	r5, r8
    28fe:	b5e0      	push	{r5, r6, r7, lr}
    2900:	b091      	sub	sp, #68	; 0x44
    2902:	0005      	movs	r5, r0
    2904:	000c      	movs	r4, r1
    2906:	0016      	movs	r6, r2
    2908:	6029      	str	r1, [r5, #0]
    290a:	0008      	movs	r0, r1
    290c:	4bbc      	ldr	r3, [pc, #752]	; (2c00 <usart_init+0x30c>)
    290e:	4798      	blx	r3
    2910:	0002      	movs	r2, r0
    2912:	6823      	ldr	r3, [r4, #0]
    2914:	2005      	movs	r0, #5
    2916:	07db      	lsls	r3, r3, #31
    2918:	d506      	bpl.n	2928 <usart_init+0x34>
    291a:	b011      	add	sp, #68	; 0x44
    291c:	bc3c      	pop	{r2, r3, r4, r5}
    291e:	4690      	mov	r8, r2
    2920:	4699      	mov	r9, r3
    2922:	46a2      	mov	sl, r4
    2924:	46ab      	mov	fp, r5
    2926:	bdf0      	pop	{r4, r5, r6, r7, pc}
    2928:	6823      	ldr	r3, [r4, #0]
    292a:	3017      	adds	r0, #23
    292c:	079b      	lsls	r3, r3, #30
    292e:	d4f4      	bmi.n	291a <usart_init+0x26>
    2930:	49b4      	ldr	r1, [pc, #720]	; (2c04 <usart_init+0x310>)
    2932:	6a08      	ldr	r0, [r1, #32]
    2934:	1c97      	adds	r7, r2, #2
    2936:	2301      	movs	r3, #1
    2938:	40bb      	lsls	r3, r7
    293a:	4303      	orrs	r3, r0
    293c:	620b      	str	r3, [r1, #32]
    293e:	a90f      	add	r1, sp, #60	; 0x3c
    2940:	272d      	movs	r7, #45	; 0x2d
    2942:	5df3      	ldrb	r3, [r6, r7]
    2944:	700b      	strb	r3, [r1, #0]
    2946:	3214      	adds	r2, #20
    2948:	b2d3      	uxtb	r3, r2
    294a:	9302      	str	r3, [sp, #8]
    294c:	0018      	movs	r0, r3
    294e:	4bae      	ldr	r3, [pc, #696]	; (2c08 <usart_init+0x314>)
    2950:	4798      	blx	r3
    2952:	9802      	ldr	r0, [sp, #8]
    2954:	4bad      	ldr	r3, [pc, #692]	; (2c0c <usart_init+0x318>)
    2956:	4798      	blx	r3
    2958:	5df0      	ldrb	r0, [r6, r7]
    295a:	2100      	movs	r1, #0
    295c:	4bac      	ldr	r3, [pc, #688]	; (2c10 <usart_init+0x31c>)
    295e:	4798      	blx	r3
    2960:	7af3      	ldrb	r3, [r6, #11]
    2962:	716b      	strb	r3, [r5, #5]
    2964:	2324      	movs	r3, #36	; 0x24
    2966:	5cf3      	ldrb	r3, [r6, r3]
    2968:	71ab      	strb	r3, [r5, #6]
    296a:	2325      	movs	r3, #37	; 0x25
    296c:	5cf3      	ldrb	r3, [r6, r3]
    296e:	71eb      	strb	r3, [r5, #7]
    2970:	7ef3      	ldrb	r3, [r6, #27]
    2972:	722b      	strb	r3, [r5, #8]
    2974:	7f33      	ldrb	r3, [r6, #28]
    2976:	726b      	strb	r3, [r5, #9]
    2978:	682b      	ldr	r3, [r5, #0]
    297a:	4698      	mov	r8, r3
    297c:	0018      	movs	r0, r3
    297e:	4ba0      	ldr	r3, [pc, #640]	; (2c00 <usart_init+0x30c>)
    2980:	4798      	blx	r3
    2982:	3014      	adds	r0, #20
    2984:	2200      	movs	r2, #0
    2986:	230e      	movs	r3, #14
    2988:	a906      	add	r1, sp, #24
    298a:	468c      	mov	ip, r1
    298c:	4463      	add	r3, ip
    298e:	801a      	strh	r2, [r3, #0]
    2990:	8a32      	ldrh	r2, [r6, #16]
    2992:	9202      	str	r2, [sp, #8]
    2994:	2380      	movs	r3, #128	; 0x80
    2996:	01db      	lsls	r3, r3, #7
    2998:	429a      	cmp	r2, r3
    299a:	d100      	bne.n	299e <usart_init+0xaa>
    299c:	e09e      	b.n	2adc <usart_init+0x1e8>
    299e:	d90f      	bls.n	29c0 <usart_init+0xcc>
    29a0:	23c0      	movs	r3, #192	; 0xc0
    29a2:	01db      	lsls	r3, r3, #7
    29a4:	9a02      	ldr	r2, [sp, #8]
    29a6:	429a      	cmp	r2, r3
    29a8:	d100      	bne.n	29ac <usart_init+0xb8>
    29aa:	e092      	b.n	2ad2 <usart_init+0x1de>
    29ac:	2380      	movs	r3, #128	; 0x80
    29ae:	021b      	lsls	r3, r3, #8
    29b0:	429a      	cmp	r2, r3
    29b2:	d000      	beq.n	29b6 <usart_init+0xc2>
    29b4:	e11f      	b.n	2bf6 <usart_init+0x302>
    29b6:	2303      	movs	r3, #3
    29b8:	9306      	str	r3, [sp, #24]
    29ba:	2300      	movs	r3, #0
    29bc:	9307      	str	r3, [sp, #28]
    29be:	e008      	b.n	29d2 <usart_init+0xde>
    29c0:	2380      	movs	r3, #128	; 0x80
    29c2:	019b      	lsls	r3, r3, #6
    29c4:	429a      	cmp	r2, r3
    29c6:	d000      	beq.n	29ca <usart_init+0xd6>
    29c8:	e115      	b.n	2bf6 <usart_init+0x302>
    29ca:	2310      	movs	r3, #16
    29cc:	9306      	str	r3, [sp, #24]
    29ce:	3b0f      	subs	r3, #15
    29d0:	9307      	str	r3, [sp, #28]
    29d2:	6833      	ldr	r3, [r6, #0]
    29d4:	9305      	str	r3, [sp, #20]
    29d6:	68f3      	ldr	r3, [r6, #12]
    29d8:	9303      	str	r3, [sp, #12]
    29da:	6973      	ldr	r3, [r6, #20]
    29dc:	9304      	str	r3, [sp, #16]
    29de:	7e33      	ldrb	r3, [r6, #24]
    29e0:	469b      	mov	fp, r3
    29e2:	2326      	movs	r3, #38	; 0x26
    29e4:	5cf3      	ldrb	r3, [r6, r3]
    29e6:	469a      	mov	sl, r3
    29e8:	6873      	ldr	r3, [r6, #4]
    29ea:	4699      	mov	r9, r3
    29ec:	2b00      	cmp	r3, #0
    29ee:	d100      	bne.n	29f2 <usart_init+0xfe>
    29f0:	e0a0      	b.n	2b34 <usart_init+0x240>
    29f2:	2380      	movs	r3, #128	; 0x80
    29f4:	055b      	lsls	r3, r3, #21
    29f6:	4599      	cmp	r9, r3
    29f8:	d100      	bne.n	29fc <usart_init+0x108>
    29fa:	e084      	b.n	2b06 <usart_init+0x212>
    29fc:	7e73      	ldrb	r3, [r6, #25]
    29fe:	2b00      	cmp	r3, #0
    2a00:	d002      	beq.n	2a08 <usart_init+0x114>
    2a02:	7eb3      	ldrb	r3, [r6, #26]
    2a04:	4642      	mov	r2, r8
    2a06:	7393      	strb	r3, [r2, #14]
    2a08:	682a      	ldr	r2, [r5, #0]
    2a0a:	9f02      	ldr	r7, [sp, #8]
    2a0c:	69d3      	ldr	r3, [r2, #28]
    2a0e:	2b00      	cmp	r3, #0
    2a10:	d1fc      	bne.n	2a0c <usart_init+0x118>
    2a12:	330e      	adds	r3, #14
    2a14:	aa06      	add	r2, sp, #24
    2a16:	4694      	mov	ip, r2
    2a18:	4463      	add	r3, ip
    2a1a:	881b      	ldrh	r3, [r3, #0]
    2a1c:	4642      	mov	r2, r8
    2a1e:	8193      	strh	r3, [r2, #12]
    2a20:	9b05      	ldr	r3, [sp, #20]
    2a22:	9a03      	ldr	r2, [sp, #12]
    2a24:	4313      	orrs	r3, r2
    2a26:	9a04      	ldr	r2, [sp, #16]
    2a28:	4313      	orrs	r3, r2
    2a2a:	464a      	mov	r2, r9
    2a2c:	4313      	orrs	r3, r2
    2a2e:	431f      	orrs	r7, r3
    2a30:	465b      	mov	r3, fp
    2a32:	021b      	lsls	r3, r3, #8
    2a34:	431f      	orrs	r7, r3
    2a36:	4653      	mov	r3, sl
    2a38:	075b      	lsls	r3, r3, #29
    2a3a:	431f      	orrs	r7, r3
    2a3c:	2327      	movs	r3, #39	; 0x27
    2a3e:	5cf3      	ldrb	r3, [r6, r3]
    2a40:	2b00      	cmp	r3, #0
    2a42:	d101      	bne.n	2a48 <usart_init+0x154>
    2a44:	3304      	adds	r3, #4
    2a46:	431f      	orrs	r7, r3
    2a48:	7e73      	ldrb	r3, [r6, #25]
    2a4a:	029b      	lsls	r3, r3, #10
    2a4c:	7f32      	ldrb	r2, [r6, #28]
    2a4e:	0252      	lsls	r2, r2, #9
    2a50:	4313      	orrs	r3, r2
    2a52:	7f72      	ldrb	r2, [r6, #29]
    2a54:	0212      	lsls	r2, r2, #8
    2a56:	4313      	orrs	r3, r2
    2a58:	2224      	movs	r2, #36	; 0x24
    2a5a:	5cb2      	ldrb	r2, [r6, r2]
    2a5c:	0452      	lsls	r2, r2, #17
    2a5e:	4313      	orrs	r3, r2
    2a60:	2225      	movs	r2, #37	; 0x25
    2a62:	5cb2      	ldrb	r2, [r6, r2]
    2a64:	0412      	lsls	r2, r2, #16
    2a66:	4313      	orrs	r3, r2
    2a68:	7ab1      	ldrb	r1, [r6, #10]
    2a6a:	7af2      	ldrb	r2, [r6, #11]
    2a6c:	4311      	orrs	r1, r2
    2a6e:	4319      	orrs	r1, r3
    2a70:	8933      	ldrh	r3, [r6, #8]
    2a72:	2bff      	cmp	r3, #255	; 0xff
    2a74:	d100      	bne.n	2a78 <usart_init+0x184>
    2a76:	e081      	b.n	2b7c <usart_init+0x288>
    2a78:	2280      	movs	r2, #128	; 0x80
    2a7a:	0452      	lsls	r2, r2, #17
    2a7c:	4317      	orrs	r7, r2
    2a7e:	4319      	orrs	r1, r3
    2a80:	232c      	movs	r3, #44	; 0x2c
    2a82:	5cf3      	ldrb	r3, [r6, r3]
    2a84:	2b00      	cmp	r3, #0
    2a86:	d103      	bne.n	2a90 <usart_init+0x19c>
    2a88:	4b62      	ldr	r3, [pc, #392]	; (2c14 <usart_init+0x320>)
    2a8a:	789b      	ldrb	r3, [r3, #2]
    2a8c:	079b      	lsls	r3, r3, #30
    2a8e:	d501      	bpl.n	2a94 <usart_init+0x1a0>
    2a90:	2380      	movs	r3, #128	; 0x80
    2a92:	431f      	orrs	r7, r3
    2a94:	682a      	ldr	r2, [r5, #0]
    2a96:	69d3      	ldr	r3, [r2, #28]
    2a98:	2b00      	cmp	r3, #0
    2a9a:	d1fc      	bne.n	2a96 <usart_init+0x1a2>
    2a9c:	4643      	mov	r3, r8
    2a9e:	6059      	str	r1, [r3, #4]
    2aa0:	682a      	ldr	r2, [r5, #0]
    2aa2:	69d3      	ldr	r3, [r2, #28]
    2aa4:	2b00      	cmp	r3, #0
    2aa6:	d1fc      	bne.n	2aa2 <usart_init+0x1ae>
    2aa8:	4643      	mov	r3, r8
    2aaa:	601f      	str	r7, [r3, #0]
    2aac:	ab0e      	add	r3, sp, #56	; 0x38
    2aae:	2280      	movs	r2, #128	; 0x80
    2ab0:	701a      	strb	r2, [r3, #0]
    2ab2:	2200      	movs	r2, #0
    2ab4:	705a      	strb	r2, [r3, #1]
    2ab6:	70da      	strb	r2, [r3, #3]
    2ab8:	709a      	strb	r2, [r3, #2]
    2aba:	6b33      	ldr	r3, [r6, #48]	; 0x30
    2abc:	930a      	str	r3, [sp, #40]	; 0x28
    2abe:	6b73      	ldr	r3, [r6, #52]	; 0x34
    2ac0:	930b      	str	r3, [sp, #44]	; 0x2c
    2ac2:	6bb3      	ldr	r3, [r6, #56]	; 0x38
    2ac4:	930c      	str	r3, [sp, #48]	; 0x30
    2ac6:	6bf3      	ldr	r3, [r6, #60]	; 0x3c
    2ac8:	9302      	str	r3, [sp, #8]
    2aca:	930d      	str	r3, [sp, #52]	; 0x34
    2acc:	2700      	movs	r7, #0
    2ace:	ae0a      	add	r6, sp, #40	; 0x28
    2ad0:	e063      	b.n	2b9a <usart_init+0x2a6>
    2ad2:	2308      	movs	r3, #8
    2ad4:	9306      	str	r3, [sp, #24]
    2ad6:	3b07      	subs	r3, #7
    2ad8:	9307      	str	r3, [sp, #28]
    2ada:	e77a      	b.n	29d2 <usart_init+0xde>
    2adc:	6833      	ldr	r3, [r6, #0]
    2ade:	9305      	str	r3, [sp, #20]
    2ae0:	68f3      	ldr	r3, [r6, #12]
    2ae2:	9303      	str	r3, [sp, #12]
    2ae4:	6973      	ldr	r3, [r6, #20]
    2ae6:	9304      	str	r3, [sp, #16]
    2ae8:	7e33      	ldrb	r3, [r6, #24]
    2aea:	469b      	mov	fp, r3
    2aec:	2326      	movs	r3, #38	; 0x26
    2aee:	5cf3      	ldrb	r3, [r6, r3]
    2af0:	469a      	mov	sl, r3
    2af2:	6873      	ldr	r3, [r6, #4]
    2af4:	4699      	mov	r9, r3
    2af6:	2b00      	cmp	r3, #0
    2af8:	d018      	beq.n	2b2c <usart_init+0x238>
    2afa:	2380      	movs	r3, #128	; 0x80
    2afc:	055b      	lsls	r3, r3, #21
    2afe:	4599      	cmp	r9, r3
    2b00:	d001      	beq.n	2b06 <usart_init+0x212>
    2b02:	2000      	movs	r0, #0
    2b04:	e025      	b.n	2b52 <usart_init+0x25e>
    2b06:	2327      	movs	r3, #39	; 0x27
    2b08:	5cf3      	ldrb	r3, [r6, r3]
    2b0a:	2b00      	cmp	r3, #0
    2b0c:	d000      	beq.n	2b10 <usart_init+0x21c>
    2b0e:	e775      	b.n	29fc <usart_init+0x108>
    2b10:	6a33      	ldr	r3, [r6, #32]
    2b12:	001f      	movs	r7, r3
    2b14:	b2c0      	uxtb	r0, r0
    2b16:	4b40      	ldr	r3, [pc, #256]	; (2c18 <usart_init+0x324>)
    2b18:	4798      	blx	r3
    2b1a:	0001      	movs	r1, r0
    2b1c:	220e      	movs	r2, #14
    2b1e:	ab06      	add	r3, sp, #24
    2b20:	469c      	mov	ip, r3
    2b22:	4462      	add	r2, ip
    2b24:	0038      	movs	r0, r7
    2b26:	4b3d      	ldr	r3, [pc, #244]	; (2c1c <usart_init+0x328>)
    2b28:	4798      	blx	r3
    2b2a:	e012      	b.n	2b52 <usart_init+0x25e>
    2b2c:	2308      	movs	r3, #8
    2b2e:	9306      	str	r3, [sp, #24]
    2b30:	2300      	movs	r3, #0
    2b32:	9307      	str	r3, [sp, #28]
    2b34:	2327      	movs	r3, #39	; 0x27
    2b36:	5cf3      	ldrb	r3, [r6, r3]
    2b38:	2b00      	cmp	r3, #0
    2b3a:	d00e      	beq.n	2b5a <usart_init+0x266>
    2b3c:	9b06      	ldr	r3, [sp, #24]
    2b3e:	9300      	str	r3, [sp, #0]
    2b40:	9b07      	ldr	r3, [sp, #28]
    2b42:	220e      	movs	r2, #14
    2b44:	a906      	add	r1, sp, #24
    2b46:	468c      	mov	ip, r1
    2b48:	4462      	add	r2, ip
    2b4a:	6ab1      	ldr	r1, [r6, #40]	; 0x28
    2b4c:	6a30      	ldr	r0, [r6, #32]
    2b4e:	4f34      	ldr	r7, [pc, #208]	; (2c20 <usart_init+0x32c>)
    2b50:	47b8      	blx	r7
    2b52:	2800      	cmp	r0, #0
    2b54:	d000      	beq.n	2b58 <usart_init+0x264>
    2b56:	e6e0      	b.n	291a <usart_init+0x26>
    2b58:	e750      	b.n	29fc <usart_init+0x108>
    2b5a:	6a33      	ldr	r3, [r6, #32]
    2b5c:	001f      	movs	r7, r3
    2b5e:	b2c0      	uxtb	r0, r0
    2b60:	4b2d      	ldr	r3, [pc, #180]	; (2c18 <usart_init+0x324>)
    2b62:	4798      	blx	r3
    2b64:	0001      	movs	r1, r0
    2b66:	9b06      	ldr	r3, [sp, #24]
    2b68:	9300      	str	r3, [sp, #0]
    2b6a:	9b07      	ldr	r3, [sp, #28]
    2b6c:	220e      	movs	r2, #14
    2b6e:	a806      	add	r0, sp, #24
    2b70:	4684      	mov	ip, r0
    2b72:	4462      	add	r2, ip
    2b74:	0038      	movs	r0, r7
    2b76:	4f2a      	ldr	r7, [pc, #168]	; (2c20 <usart_init+0x32c>)
    2b78:	47b8      	blx	r7
    2b7a:	e7ea      	b.n	2b52 <usart_init+0x25e>
    2b7c:	7ef3      	ldrb	r3, [r6, #27]
    2b7e:	2b00      	cmp	r3, #0
    2b80:	d100      	bne.n	2b84 <usart_init+0x290>
    2b82:	e77d      	b.n	2a80 <usart_init+0x18c>
    2b84:	2380      	movs	r3, #128	; 0x80
    2b86:	04db      	lsls	r3, r3, #19
    2b88:	431f      	orrs	r7, r3
    2b8a:	e779      	b.n	2a80 <usart_init+0x18c>
    2b8c:	0020      	movs	r0, r4
    2b8e:	4b25      	ldr	r3, [pc, #148]	; (2c24 <usart_init+0x330>)
    2b90:	4798      	blx	r3
    2b92:	e007      	b.n	2ba4 <usart_init+0x2b0>
    2b94:	3701      	adds	r7, #1
    2b96:	2f04      	cmp	r7, #4
    2b98:	d00d      	beq.n	2bb6 <usart_init+0x2c2>
    2b9a:	b2f9      	uxtb	r1, r7
    2b9c:	00bb      	lsls	r3, r7, #2
    2b9e:	5998      	ldr	r0, [r3, r6]
    2ba0:	2800      	cmp	r0, #0
    2ba2:	d0f3      	beq.n	2b8c <usart_init+0x298>
    2ba4:	1c43      	adds	r3, r0, #1
    2ba6:	d0f5      	beq.n	2b94 <usart_init+0x2a0>
    2ba8:	a90e      	add	r1, sp, #56	; 0x38
    2baa:	7008      	strb	r0, [r1, #0]
    2bac:	0c00      	lsrs	r0, r0, #16
    2bae:	b2c0      	uxtb	r0, r0
    2bb0:	4b1d      	ldr	r3, [pc, #116]	; (2c28 <usart_init+0x334>)
    2bb2:	4798      	blx	r3
    2bb4:	e7ee      	b.n	2b94 <usart_init+0x2a0>
    2bb6:	2300      	movs	r3, #0
    2bb8:	60eb      	str	r3, [r5, #12]
    2bba:	612b      	str	r3, [r5, #16]
    2bbc:	616b      	str	r3, [r5, #20]
    2bbe:	61ab      	str	r3, [r5, #24]
    2bc0:	61eb      	str	r3, [r5, #28]
    2bc2:	622b      	str	r3, [r5, #32]
    2bc4:	62ab      	str	r3, [r5, #40]	; 0x28
    2bc6:	626b      	str	r3, [r5, #36]	; 0x24
    2bc8:	2200      	movs	r2, #0
    2bca:	85eb      	strh	r3, [r5, #46]	; 0x2e
    2bcc:	85ab      	strh	r3, [r5, #44]	; 0x2c
    2bce:	3330      	adds	r3, #48	; 0x30
    2bd0:	54ea      	strb	r2, [r5, r3]
    2bd2:	3301      	adds	r3, #1
    2bd4:	54ea      	strb	r2, [r5, r3]
    2bd6:	3301      	adds	r3, #1
    2bd8:	54ea      	strb	r2, [r5, r3]
    2bda:	3301      	adds	r3, #1
    2bdc:	54ea      	strb	r2, [r5, r3]
    2bde:	6828      	ldr	r0, [r5, #0]
    2be0:	4b07      	ldr	r3, [pc, #28]	; (2c00 <usart_init+0x30c>)
    2be2:	4798      	blx	r3
    2be4:	0004      	movs	r4, r0
    2be6:	4911      	ldr	r1, [pc, #68]	; (2c2c <usart_init+0x338>)
    2be8:	4b11      	ldr	r3, [pc, #68]	; (2c30 <usart_init+0x33c>)
    2bea:	4798      	blx	r3
    2bec:	00a4      	lsls	r4, r4, #2
    2bee:	4b11      	ldr	r3, [pc, #68]	; (2c34 <usart_init+0x340>)
    2bf0:	50e5      	str	r5, [r4, r3]
    2bf2:	2000      	movs	r0, #0
    2bf4:	e691      	b.n	291a <usart_init+0x26>
    2bf6:	2310      	movs	r3, #16
    2bf8:	9306      	str	r3, [sp, #24]
    2bfa:	2300      	movs	r3, #0
    2bfc:	9307      	str	r3, [sp, #28]
    2bfe:	e6e8      	b.n	29d2 <usart_init+0xde>
    2c00:	000020ad 	.word	0x000020ad
    2c04:	40000400 	.word	0x40000400
    2c08:	000035a5 	.word	0x000035a5
    2c0c:	00003519 	.word	0x00003519
    2c10:	00001ee9 	.word	0x00001ee9
    2c14:	41002000 	.word	0x41002000
    2c18:	000035c1 	.word	0x000035c1
    2c1c:	00001e2b 	.word	0x00001e2b
    2c20:	00001e55 	.word	0x00001e55
    2c24:	00001f35 	.word	0x00001f35
    2c28:	0000369d 	.word	0x0000369d
    2c2c:	00002dd5 	.word	0x00002dd5
    2c30:	000020e9 	.word	0x000020e9
    2c34:	20000a18 	.word	0x20000a18

00002c38 <usart_write_wait>:
    2c38:	79c2      	ldrb	r2, [r0, #7]
    2c3a:	231c      	movs	r3, #28
    2c3c:	2a00      	cmp	r2, #0
    2c3e:	d101      	bne.n	2c44 <usart_write_wait+0xc>
    2c40:	0018      	movs	r0, r3
    2c42:	4770      	bx	lr
    2c44:	8dc2      	ldrh	r2, [r0, #46]	; 0x2e
    2c46:	b292      	uxth	r2, r2
    2c48:	3b17      	subs	r3, #23
    2c4a:	2a00      	cmp	r2, #0
    2c4c:	d1f8      	bne.n	2c40 <usart_write_wait+0x8>
    2c4e:	6803      	ldr	r3, [r0, #0]
    2c50:	69da      	ldr	r2, [r3, #28]
    2c52:	2a00      	cmp	r2, #0
    2c54:	d1fc      	bne.n	2c50 <usart_write_wait+0x18>
    2c56:	8519      	strh	r1, [r3, #40]	; 0x28
    2c58:	2102      	movs	r1, #2
    2c5a:	7e1a      	ldrb	r2, [r3, #24]
    2c5c:	420a      	tst	r2, r1
    2c5e:	d0fc      	beq.n	2c5a <usart_write_wait+0x22>
    2c60:	2300      	movs	r3, #0
    2c62:	e7ed      	b.n	2c40 <usart_write_wait+0x8>

00002c64 <usart_read_wait>:
    2c64:	7982      	ldrb	r2, [r0, #6]
    2c66:	231c      	movs	r3, #28
    2c68:	2a00      	cmp	r2, #0
    2c6a:	d101      	bne.n	2c70 <usart_read_wait+0xc>
    2c6c:	0018      	movs	r0, r3
    2c6e:	4770      	bx	lr
    2c70:	8d82      	ldrh	r2, [r0, #44]	; 0x2c
    2c72:	b292      	uxth	r2, r2
    2c74:	3b17      	subs	r3, #23
    2c76:	2a00      	cmp	r2, #0
    2c78:	d1f8      	bne.n	2c6c <usart_read_wait+0x8>
    2c7a:	6802      	ldr	r2, [r0, #0]
    2c7c:	7e10      	ldrb	r0, [r2, #24]
    2c7e:	0740      	lsls	r0, r0, #29
    2c80:	d5f4      	bpl.n	2c6c <usart_read_wait+0x8>
    2c82:	69d3      	ldr	r3, [r2, #28]
    2c84:	2b00      	cmp	r3, #0
    2c86:	d1fc      	bne.n	2c82 <usart_read_wait+0x1e>
    2c88:	8b53      	ldrh	r3, [r2, #26]
    2c8a:	b2db      	uxtb	r3, r3
    2c8c:	0698      	lsls	r0, r3, #26
    2c8e:	d01d      	beq.n	2ccc <usart_read_wait+0x68>
    2c90:	0798      	lsls	r0, r3, #30
    2c92:	d503      	bpl.n	2c9c <usart_read_wait+0x38>
    2c94:	2302      	movs	r3, #2
    2c96:	8353      	strh	r3, [r2, #26]
    2c98:	3318      	adds	r3, #24
    2c9a:	e7e7      	b.n	2c6c <usart_read_wait+0x8>
    2c9c:	0758      	lsls	r0, r3, #29
    2c9e:	d503      	bpl.n	2ca8 <usart_read_wait+0x44>
    2ca0:	2304      	movs	r3, #4
    2ca2:	8353      	strh	r3, [r2, #26]
    2ca4:	331a      	adds	r3, #26
    2ca6:	e7e1      	b.n	2c6c <usart_read_wait+0x8>
    2ca8:	07d8      	lsls	r0, r3, #31
    2caa:	d503      	bpl.n	2cb4 <usart_read_wait+0x50>
    2cac:	2301      	movs	r3, #1
    2cae:	8353      	strh	r3, [r2, #26]
    2cb0:	3312      	adds	r3, #18
    2cb2:	e7db      	b.n	2c6c <usart_read_wait+0x8>
    2cb4:	06d8      	lsls	r0, r3, #27
    2cb6:	d503      	bpl.n	2cc0 <usart_read_wait+0x5c>
    2cb8:	2310      	movs	r3, #16
    2cba:	8353      	strh	r3, [r2, #26]
    2cbc:	3332      	adds	r3, #50	; 0x32
    2cbe:	e7d5      	b.n	2c6c <usart_read_wait+0x8>
    2cc0:	069b      	lsls	r3, r3, #26
    2cc2:	d503      	bpl.n	2ccc <usart_read_wait+0x68>
    2cc4:	2320      	movs	r3, #32
    2cc6:	8353      	strh	r3, [r2, #26]
    2cc8:	3321      	adds	r3, #33	; 0x21
    2cca:	e7cf      	b.n	2c6c <usart_read_wait+0x8>
    2ccc:	8d13      	ldrh	r3, [r2, #40]	; 0x28
    2cce:	800b      	strh	r3, [r1, #0]
    2cd0:	2300      	movs	r3, #0
    2cd2:	e7cb      	b.n	2c6c <usart_read_wait+0x8>

00002cd4 <_usart_write_buffer>:
    2cd4:	b5f8      	push	{r3, r4, r5, r6, r7, lr}
    2cd6:	0006      	movs	r6, r0
    2cd8:	000c      	movs	r4, r1
    2cda:	0015      	movs	r5, r2
    2cdc:	6807      	ldr	r7, [r0, #0]
    2cde:	4b0a      	ldr	r3, [pc, #40]	; (2d08 <_usart_write_buffer+0x34>)
    2ce0:	4798      	blx	r3
    2ce2:	8df3      	ldrh	r3, [r6, #46]	; 0x2e
    2ce4:	b29b      	uxth	r3, r3
    2ce6:	2b00      	cmp	r3, #0
    2ce8:	d003      	beq.n	2cf2 <_usart_write_buffer+0x1e>
    2cea:	4b08      	ldr	r3, [pc, #32]	; (2d0c <_usart_write_buffer+0x38>)
    2cec:	4798      	blx	r3
    2cee:	2005      	movs	r0, #5
    2cf0:	bdf8      	pop	{r3, r4, r5, r6, r7, pc}
    2cf2:	85f5      	strh	r5, [r6, #46]	; 0x2e
    2cf4:	4b05      	ldr	r3, [pc, #20]	; (2d0c <_usart_write_buffer+0x38>)
    2cf6:	4798      	blx	r3
    2cf8:	62b4      	str	r4, [r6, #40]	; 0x28
    2cfa:	2205      	movs	r2, #5
    2cfc:	2333      	movs	r3, #51	; 0x33
    2cfe:	54f2      	strb	r2, [r6, r3]
    2d00:	3b32      	subs	r3, #50	; 0x32
    2d02:	75bb      	strb	r3, [r7, #22]
    2d04:	2000      	movs	r0, #0
    2d06:	e7f3      	b.n	2cf0 <_usart_write_buffer+0x1c>
    2d08:	00001b05 	.word	0x00001b05
    2d0c:	00001b45 	.word	0x00001b45

00002d10 <_usart_read_buffer>:
    2d10:	b5f8      	push	{r3, r4, r5, r6, r7, lr}
    2d12:	0004      	movs	r4, r0
    2d14:	000d      	movs	r5, r1
    2d16:	0016      	movs	r6, r2
    2d18:	6807      	ldr	r7, [r0, #0]
    2d1a:	4b0f      	ldr	r3, [pc, #60]	; (2d58 <_usart_read_buffer+0x48>)
    2d1c:	4798      	blx	r3
    2d1e:	8da3      	ldrh	r3, [r4, #44]	; 0x2c
    2d20:	b29b      	uxth	r3, r3
    2d22:	2b00      	cmp	r3, #0
    2d24:	d003      	beq.n	2d2e <_usart_read_buffer+0x1e>
    2d26:	4b0d      	ldr	r3, [pc, #52]	; (2d5c <_usart_read_buffer+0x4c>)
    2d28:	4798      	blx	r3
    2d2a:	2005      	movs	r0, #5
    2d2c:	bdf8      	pop	{r3, r4, r5, r6, r7, pc}
    2d2e:	85a6      	strh	r6, [r4, #44]	; 0x2c
    2d30:	4b0a      	ldr	r3, [pc, #40]	; (2d5c <_usart_read_buffer+0x4c>)
    2d32:	4798      	blx	r3
    2d34:	6265      	str	r5, [r4, #36]	; 0x24
    2d36:	2205      	movs	r2, #5
    2d38:	2332      	movs	r3, #50	; 0x32
    2d3a:	54e2      	strb	r2, [r4, r3]
    2d3c:	3b2e      	subs	r3, #46	; 0x2e
    2d3e:	75bb      	strb	r3, [r7, #22]
    2d40:	7a23      	ldrb	r3, [r4, #8]
    2d42:	2b00      	cmp	r3, #0
    2d44:	d001      	beq.n	2d4a <_usart_read_buffer+0x3a>
    2d46:	2320      	movs	r3, #32
    2d48:	75bb      	strb	r3, [r7, #22]
    2d4a:	7a63      	ldrb	r3, [r4, #9]
    2d4c:	2000      	movs	r0, #0
    2d4e:	2b00      	cmp	r3, #0
    2d50:	d0ec      	beq.n	2d2c <_usart_read_buffer+0x1c>
    2d52:	2308      	movs	r3, #8
    2d54:	75bb      	strb	r3, [r7, #22]
    2d56:	e7e9      	b.n	2d2c <_usart_read_buffer+0x1c>
    2d58:	00001b05 	.word	0x00001b05
    2d5c:	00001b45 	.word	0x00001b45

00002d60 <usart_register_callback>:
    2d60:	1c93      	adds	r3, r2, #2
    2d62:	009b      	lsls	r3, r3, #2
    2d64:	18c3      	adds	r3, r0, r3
    2d66:	6059      	str	r1, [r3, #4]
    2d68:	2130      	movs	r1, #48	; 0x30
    2d6a:	2301      	movs	r3, #1
    2d6c:	4093      	lsls	r3, r2
    2d6e:	001a      	movs	r2, r3
    2d70:	5c43      	ldrb	r3, [r0, r1]
    2d72:	4313      	orrs	r3, r2
    2d74:	5443      	strb	r3, [r0, r1]
    2d76:	4770      	bx	lr

00002d78 <usart_write_buffer_job>:
    2d78:	b510      	push	{r4, lr}
    2d7a:	2317      	movs	r3, #23
    2d7c:	2a00      	cmp	r2, #0
    2d7e:	d101      	bne.n	2d84 <usart_write_buffer_job+0xc>
    2d80:	0018      	movs	r0, r3
    2d82:	bd10      	pop	{r4, pc}
    2d84:	79c4      	ldrb	r4, [r0, #7]
    2d86:	3305      	adds	r3, #5
    2d88:	2c00      	cmp	r4, #0
    2d8a:	d0f9      	beq.n	2d80 <usart_write_buffer_job+0x8>
    2d8c:	4b01      	ldr	r3, [pc, #4]	; (2d94 <usart_write_buffer_job+0x1c>)
    2d8e:	4798      	blx	r3
    2d90:	0003      	movs	r3, r0
    2d92:	e7f5      	b.n	2d80 <usart_write_buffer_job+0x8>
    2d94:	00002cd5 	.word	0x00002cd5

00002d98 <usart_read_buffer_job>:
    2d98:	b510      	push	{r4, lr}
    2d9a:	2317      	movs	r3, #23
    2d9c:	2a00      	cmp	r2, #0
    2d9e:	d101      	bne.n	2da4 <usart_read_buffer_job+0xc>
    2da0:	0018      	movs	r0, r3
    2da2:	bd10      	pop	{r4, pc}
    2da4:	7984      	ldrb	r4, [r0, #6]
    2da6:	3305      	adds	r3, #5
    2da8:	2c00      	cmp	r4, #0
    2daa:	d0f9      	beq.n	2da0 <usart_read_buffer_job+0x8>
    2dac:	4b01      	ldr	r3, [pc, #4]	; (2db4 <usart_read_buffer_job+0x1c>)
    2dae:	4798      	blx	r3
    2db0:	0003      	movs	r3, r0
    2db2:	e7f5      	b.n	2da0 <usart_read_buffer_job+0x8>
    2db4:	00002d11 	.word	0x00002d11

00002db8 <usart_get_job_status>:
    2db8:	2900      	cmp	r1, #0
    2dba:	d003      	beq.n	2dc4 <usart_get_job_status+0xc>
    2dbc:	2901      	cmp	r1, #1
    2dbe:	d005      	beq.n	2dcc <usart_get_job_status+0x14>
    2dc0:	2017      	movs	r0, #23
    2dc2:	e002      	b.n	2dca <usart_get_job_status+0x12>
    2dc4:	2332      	movs	r3, #50	; 0x32
    2dc6:	5cc0      	ldrb	r0, [r0, r3]
    2dc8:	b2c0      	uxtb	r0, r0
    2dca:	4770      	bx	lr
    2dcc:	2333      	movs	r3, #51	; 0x33
    2dce:	5cc0      	ldrb	r0, [r0, r3]
    2dd0:	b2c0      	uxtb	r0, r0
    2dd2:	e7fa      	b.n	2dca <usart_get_job_status+0x12>

00002dd4 <_usart_interrupt_handler>:
    2dd4:	b5f8      	push	{r3, r4, r5, r6, r7, lr}
    2dd6:	0080      	lsls	r0, r0, #2
    2dd8:	4b62      	ldr	r3, [pc, #392]	; (2f64 <_usart_interrupt_handler+0x190>)
    2dda:	58c5      	ldr	r5, [r0, r3]
    2ddc:	682c      	ldr	r4, [r5, #0]
    2dde:	69e3      	ldr	r3, [r4, #28]
    2de0:	2b00      	cmp	r3, #0
    2de2:	d1fc      	bne.n	2dde <_usart_interrupt_handler+0xa>
    2de4:	7e23      	ldrb	r3, [r4, #24]
    2de6:	7da6      	ldrb	r6, [r4, #22]
    2de8:	401e      	ands	r6, r3
    2dea:	2330      	movs	r3, #48	; 0x30
    2dec:	5ceb      	ldrb	r3, [r5, r3]
    2dee:	2231      	movs	r2, #49	; 0x31
    2df0:	5caf      	ldrb	r7, [r5, r2]
    2df2:	401f      	ands	r7, r3
    2df4:	07f3      	lsls	r3, r6, #31
    2df6:	d522      	bpl.n	2e3e <_usart_interrupt_handler+0x6a>
    2df8:	8deb      	ldrh	r3, [r5, #46]	; 0x2e
    2dfa:	b29b      	uxth	r3, r3
    2dfc:	2b00      	cmp	r3, #0
    2dfe:	d01c      	beq.n	2e3a <_usart_interrupt_handler+0x66>
    2e00:	6aaa      	ldr	r2, [r5, #40]	; 0x28
    2e02:	7813      	ldrb	r3, [r2, #0]
    2e04:	b2db      	uxtb	r3, r3
    2e06:	1c51      	adds	r1, r2, #1
    2e08:	62a9      	str	r1, [r5, #40]	; 0x28
    2e0a:	7969      	ldrb	r1, [r5, #5]
    2e0c:	2901      	cmp	r1, #1
    2e0e:	d00e      	beq.n	2e2e <_usart_interrupt_handler+0x5a>
    2e10:	b29b      	uxth	r3, r3
    2e12:	05db      	lsls	r3, r3, #23
    2e14:	0ddb      	lsrs	r3, r3, #23
    2e16:	8523      	strh	r3, [r4, #40]	; 0x28
    2e18:	8deb      	ldrh	r3, [r5, #46]	; 0x2e
    2e1a:	3b01      	subs	r3, #1
    2e1c:	b29b      	uxth	r3, r3
    2e1e:	85eb      	strh	r3, [r5, #46]	; 0x2e
    2e20:	2b00      	cmp	r3, #0
    2e22:	d10c      	bne.n	2e3e <_usart_interrupt_handler+0x6a>
    2e24:	3301      	adds	r3, #1
    2e26:	7523      	strb	r3, [r4, #20]
    2e28:	3301      	adds	r3, #1
    2e2a:	75a3      	strb	r3, [r4, #22]
    2e2c:	e007      	b.n	2e3e <_usart_interrupt_handler+0x6a>
    2e2e:	7851      	ldrb	r1, [r2, #1]
    2e30:	0209      	lsls	r1, r1, #8
    2e32:	430b      	orrs	r3, r1
    2e34:	3202      	adds	r2, #2
    2e36:	62aa      	str	r2, [r5, #40]	; 0x28
    2e38:	e7eb      	b.n	2e12 <_usart_interrupt_handler+0x3e>
    2e3a:	2301      	movs	r3, #1
    2e3c:	7523      	strb	r3, [r4, #20]
    2e3e:	07b3      	lsls	r3, r6, #30
    2e40:	d506      	bpl.n	2e50 <_usart_interrupt_handler+0x7c>
    2e42:	2302      	movs	r3, #2
    2e44:	7523      	strb	r3, [r4, #20]
    2e46:	2200      	movs	r2, #0
    2e48:	3331      	adds	r3, #49	; 0x31
    2e4a:	54ea      	strb	r2, [r5, r3]
    2e4c:	07fb      	lsls	r3, r7, #31
    2e4e:	d41a      	bmi.n	2e86 <_usart_interrupt_handler+0xb2>
    2e50:	0773      	lsls	r3, r6, #29
    2e52:	d565      	bpl.n	2f20 <_usart_interrupt_handler+0x14c>
    2e54:	8dab      	ldrh	r3, [r5, #44]	; 0x2c
    2e56:	b29b      	uxth	r3, r3
    2e58:	2b00      	cmp	r3, #0
    2e5a:	d05f      	beq.n	2f1c <_usart_interrupt_handler+0x148>
    2e5c:	8b63      	ldrh	r3, [r4, #26]
    2e5e:	b2db      	uxtb	r3, r3
    2e60:	071a      	lsls	r2, r3, #28
    2e62:	d414      	bmi.n	2e8e <_usart_interrupt_handler+0xba>
    2e64:	223f      	movs	r2, #63	; 0x3f
    2e66:	4013      	ands	r3, r2
    2e68:	2b00      	cmp	r3, #0
    2e6a:	d034      	beq.n	2ed6 <_usart_interrupt_handler+0x102>
    2e6c:	079a      	lsls	r2, r3, #30
    2e6e:	d511      	bpl.n	2e94 <_usart_interrupt_handler+0xc0>
    2e70:	221a      	movs	r2, #26
    2e72:	2332      	movs	r3, #50	; 0x32
    2e74:	54ea      	strb	r2, [r5, r3]
    2e76:	3b30      	subs	r3, #48	; 0x30
    2e78:	8363      	strh	r3, [r4, #26]
    2e7a:	077b      	lsls	r3, r7, #29
    2e7c:	d550      	bpl.n	2f20 <_usart_interrupt_handler+0x14c>
    2e7e:	0028      	movs	r0, r5
    2e80:	696b      	ldr	r3, [r5, #20]
    2e82:	4798      	blx	r3
    2e84:	e04c      	b.n	2f20 <_usart_interrupt_handler+0x14c>
    2e86:	0028      	movs	r0, r5
    2e88:	68eb      	ldr	r3, [r5, #12]
    2e8a:	4798      	blx	r3
    2e8c:	e7e0      	b.n	2e50 <_usart_interrupt_handler+0x7c>
    2e8e:	2237      	movs	r2, #55	; 0x37
    2e90:	4013      	ands	r3, r2
    2e92:	e7e9      	b.n	2e68 <_usart_interrupt_handler+0x94>
    2e94:	075a      	lsls	r2, r3, #29
    2e96:	d505      	bpl.n	2ea4 <_usart_interrupt_handler+0xd0>
    2e98:	221e      	movs	r2, #30
    2e9a:	2332      	movs	r3, #50	; 0x32
    2e9c:	54ea      	strb	r2, [r5, r3]
    2e9e:	3b2e      	subs	r3, #46	; 0x2e
    2ea0:	8363      	strh	r3, [r4, #26]
    2ea2:	e7ea      	b.n	2e7a <_usart_interrupt_handler+0xa6>
    2ea4:	07da      	lsls	r2, r3, #31
    2ea6:	d505      	bpl.n	2eb4 <_usart_interrupt_handler+0xe0>
    2ea8:	2213      	movs	r2, #19
    2eaa:	2332      	movs	r3, #50	; 0x32
    2eac:	54ea      	strb	r2, [r5, r3]
    2eae:	3b31      	subs	r3, #49	; 0x31
    2eb0:	8363      	strh	r3, [r4, #26]
    2eb2:	e7e2      	b.n	2e7a <_usart_interrupt_handler+0xa6>
    2eb4:	06da      	lsls	r2, r3, #27
    2eb6:	d505      	bpl.n	2ec4 <_usart_interrupt_handler+0xf0>
    2eb8:	2242      	movs	r2, #66	; 0x42
    2eba:	2332      	movs	r3, #50	; 0x32
    2ebc:	54ea      	strb	r2, [r5, r3]
    2ebe:	3b22      	subs	r3, #34	; 0x22
    2ec0:	8363      	strh	r3, [r4, #26]
    2ec2:	e7da      	b.n	2e7a <_usart_interrupt_handler+0xa6>
    2ec4:	2220      	movs	r2, #32
    2ec6:	421a      	tst	r2, r3
    2ec8:	d0d7      	beq.n	2e7a <_usart_interrupt_handler+0xa6>
    2eca:	3221      	adds	r2, #33	; 0x21
    2ecc:	2332      	movs	r3, #50	; 0x32
    2ece:	54ea      	strb	r2, [r5, r3]
    2ed0:	3b12      	subs	r3, #18
    2ed2:	8363      	strh	r3, [r4, #26]
    2ed4:	e7d1      	b.n	2e7a <_usart_interrupt_handler+0xa6>
    2ed6:	8d23      	ldrh	r3, [r4, #40]	; 0x28
    2ed8:	05db      	lsls	r3, r3, #23
    2eda:	0ddb      	lsrs	r3, r3, #23
    2edc:	b2da      	uxtb	r2, r3
    2ede:	6a69      	ldr	r1, [r5, #36]	; 0x24
    2ee0:	700a      	strb	r2, [r1, #0]
    2ee2:	6a6a      	ldr	r2, [r5, #36]	; 0x24
    2ee4:	1c51      	adds	r1, r2, #1
    2ee6:	6269      	str	r1, [r5, #36]	; 0x24
    2ee8:	7969      	ldrb	r1, [r5, #5]
    2eea:	2901      	cmp	r1, #1
    2eec:	d010      	beq.n	2f10 <_usart_interrupt_handler+0x13c>
    2eee:	8dab      	ldrh	r3, [r5, #44]	; 0x2c
    2ef0:	3b01      	subs	r3, #1
    2ef2:	b29b      	uxth	r3, r3
    2ef4:	85ab      	strh	r3, [r5, #44]	; 0x2c
    2ef6:	2b00      	cmp	r3, #0
    2ef8:	d112      	bne.n	2f20 <_usart_interrupt_handler+0x14c>
    2efa:	3304      	adds	r3, #4
    2efc:	7523      	strb	r3, [r4, #20]
    2efe:	2200      	movs	r2, #0
    2f00:	332e      	adds	r3, #46	; 0x2e
    2f02:	54ea      	strb	r2, [r5, r3]
    2f04:	07bb      	lsls	r3, r7, #30
    2f06:	d50b      	bpl.n	2f20 <_usart_interrupt_handler+0x14c>
    2f08:	0028      	movs	r0, r5
    2f0a:	692b      	ldr	r3, [r5, #16]
    2f0c:	4798      	blx	r3
    2f0e:	e007      	b.n	2f20 <_usart_interrupt_handler+0x14c>
    2f10:	0a1b      	lsrs	r3, r3, #8
    2f12:	7053      	strb	r3, [r2, #1]
    2f14:	6a6b      	ldr	r3, [r5, #36]	; 0x24
    2f16:	3301      	adds	r3, #1
    2f18:	626b      	str	r3, [r5, #36]	; 0x24
    2f1a:	e7e8      	b.n	2eee <_usart_interrupt_handler+0x11a>
    2f1c:	2304      	movs	r3, #4
    2f1e:	7523      	strb	r3, [r4, #20]
    2f20:	06f3      	lsls	r3, r6, #27
    2f22:	d504      	bpl.n	2f2e <_usart_interrupt_handler+0x15a>
    2f24:	2310      	movs	r3, #16
    2f26:	7523      	strb	r3, [r4, #20]
    2f28:	7623      	strb	r3, [r4, #24]
    2f2a:	06fb      	lsls	r3, r7, #27
    2f2c:	d40e      	bmi.n	2f4c <_usart_interrupt_handler+0x178>
    2f2e:	06b3      	lsls	r3, r6, #26
    2f30:	d504      	bpl.n	2f3c <_usart_interrupt_handler+0x168>
    2f32:	2320      	movs	r3, #32
    2f34:	7523      	strb	r3, [r4, #20]
    2f36:	7623      	strb	r3, [r4, #24]
    2f38:	073b      	lsls	r3, r7, #28
    2f3a:	d40b      	bmi.n	2f54 <_usart_interrupt_handler+0x180>
    2f3c:	0733      	lsls	r3, r6, #28
    2f3e:	d504      	bpl.n	2f4a <_usart_interrupt_handler+0x176>
    2f40:	2308      	movs	r3, #8
    2f42:	7523      	strb	r3, [r4, #20]
    2f44:	7623      	strb	r3, [r4, #24]
    2f46:	06bb      	lsls	r3, r7, #26
    2f48:	d408      	bmi.n	2f5c <_usart_interrupt_handler+0x188>
    2f4a:	bdf8      	pop	{r3, r4, r5, r6, r7, pc}
    2f4c:	0028      	movs	r0, r5
    2f4e:	69eb      	ldr	r3, [r5, #28]
    2f50:	4798      	blx	r3
    2f52:	e7ec      	b.n	2f2e <_usart_interrupt_handler+0x15a>
    2f54:	0028      	movs	r0, r5
    2f56:	69ab      	ldr	r3, [r5, #24]
    2f58:	4798      	blx	r3
    2f5a:	e7ef      	b.n	2f3c <_usart_interrupt_handler+0x168>
    2f5c:	6a2b      	ldr	r3, [r5, #32]
    2f5e:	0028      	movs	r0, r5
    2f60:	4798      	blx	r3
    2f62:	e7f2      	b.n	2f4a <_usart_interrupt_handler+0x176>
    2f64:	20000a18 	.word	0x20000a18

00002f68 <system_clock_source_get_hz>:
    2f68:	b510      	push	{r4, lr}
    2f6a:	2808      	cmp	r0, #8
    2f6c:	d803      	bhi.n	2f76 <system_clock_source_get_hz+0xe>
    2f6e:	0080      	lsls	r0, r0, #2
    2f70:	4b1c      	ldr	r3, [pc, #112]	; (2fe4 <system_clock_source_get_hz+0x7c>)
    2f72:	581b      	ldr	r3, [r3, r0]
    2f74:	469f      	mov	pc, r3
    2f76:	2000      	movs	r0, #0
    2f78:	e032      	b.n	2fe0 <system_clock_source_get_hz+0x78>
    2f7a:	4b1b      	ldr	r3, [pc, #108]	; (2fe8 <system_clock_source_get_hz+0x80>)
    2f7c:	6918      	ldr	r0, [r3, #16]
    2f7e:	e02f      	b.n	2fe0 <system_clock_source_get_hz+0x78>
    2f80:	4b1a      	ldr	r3, [pc, #104]	; (2fec <system_clock_source_get_hz+0x84>)
    2f82:	6a1b      	ldr	r3, [r3, #32]
    2f84:	059b      	lsls	r3, r3, #22
    2f86:	0f9b      	lsrs	r3, r3, #30
    2f88:	4819      	ldr	r0, [pc, #100]	; (2ff0 <system_clock_source_get_hz+0x88>)
    2f8a:	40d8      	lsrs	r0, r3
    2f8c:	e028      	b.n	2fe0 <system_clock_source_get_hz+0x78>
    2f8e:	4b16      	ldr	r3, [pc, #88]	; (2fe8 <system_clock_source_get_hz+0x80>)
    2f90:	6958      	ldr	r0, [r3, #20]
    2f92:	e025      	b.n	2fe0 <system_clock_source_get_hz+0x78>
    2f94:	4b14      	ldr	r3, [pc, #80]	; (2fe8 <system_clock_source_get_hz+0x80>)
    2f96:	681b      	ldr	r3, [r3, #0]
    2f98:	2000      	movs	r0, #0
    2f9a:	079b      	lsls	r3, r3, #30
    2f9c:	d520      	bpl.n	2fe0 <system_clock_source_get_hz+0x78>
    2f9e:	4913      	ldr	r1, [pc, #76]	; (2fec <system_clock_source_get_hz+0x84>)
    2fa0:	2210      	movs	r2, #16
    2fa2:	68cb      	ldr	r3, [r1, #12]
    2fa4:	421a      	tst	r2, r3
    2fa6:	d0fc      	beq.n	2fa2 <system_clock_source_get_hz+0x3a>
    2fa8:	4b0f      	ldr	r3, [pc, #60]	; (2fe8 <system_clock_source_get_hz+0x80>)
    2faa:	681a      	ldr	r2, [r3, #0]
    2fac:	2324      	movs	r3, #36	; 0x24
    2fae:	4013      	ands	r3, r2
    2fb0:	2b04      	cmp	r3, #4
    2fb2:	d001      	beq.n	2fb8 <system_clock_source_get_hz+0x50>
    2fb4:	480f      	ldr	r0, [pc, #60]	; (2ff4 <system_clock_source_get_hz+0x8c>)
    2fb6:	e013      	b.n	2fe0 <system_clock_source_get_hz+0x78>
    2fb8:	2000      	movs	r0, #0
    2fba:	4b0f      	ldr	r3, [pc, #60]	; (2ff8 <system_clock_source_get_hz+0x90>)
    2fbc:	4798      	blx	r3
    2fbe:	4b0a      	ldr	r3, [pc, #40]	; (2fe8 <system_clock_source_get_hz+0x80>)
    2fc0:	689b      	ldr	r3, [r3, #8]
    2fc2:	041b      	lsls	r3, r3, #16
    2fc4:	0c1b      	lsrs	r3, r3, #16
    2fc6:	4358      	muls	r0, r3
    2fc8:	e00a      	b.n	2fe0 <system_clock_source_get_hz+0x78>
    2fca:	2350      	movs	r3, #80	; 0x50
    2fcc:	4a07      	ldr	r2, [pc, #28]	; (2fec <system_clock_source_get_hz+0x84>)
    2fce:	5cd3      	ldrb	r3, [r2, r3]
    2fd0:	2000      	movs	r0, #0
    2fd2:	075b      	lsls	r3, r3, #29
    2fd4:	d504      	bpl.n	2fe0 <system_clock_source_get_hz+0x78>
    2fd6:	4b04      	ldr	r3, [pc, #16]	; (2fe8 <system_clock_source_get_hz+0x80>)
    2fd8:	68d8      	ldr	r0, [r3, #12]
    2fda:	e001      	b.n	2fe0 <system_clock_source_get_hz+0x78>
    2fdc:	2080      	movs	r0, #128	; 0x80
    2fde:	0200      	lsls	r0, r0, #8
    2fe0:	bd10      	pop	{r4, pc}
    2fe2:	46c0      	nop			; (mov r8, r8)
    2fe4:	00006ee0 	.word	0x00006ee0
    2fe8:	20000188 	.word	0x20000188
    2fec:	40000800 	.word	0x40000800
    2ff0:	007a1200 	.word	0x007a1200
    2ff4:	02dc6c00 	.word	0x02dc6c00
    2ff8:	000035c1 	.word	0x000035c1

00002ffc <system_clock_source_osc8m_set_config>:
    2ffc:	b570      	push	{r4, r5, r6, lr}
    2ffe:	490c      	ldr	r1, [pc, #48]	; (3030 <system_clock_source_osc8m_set_config+0x34>)
    3000:	6a0b      	ldr	r3, [r1, #32]
    3002:	7804      	ldrb	r4, [r0, #0]
    3004:	7885      	ldrb	r5, [r0, #2]
    3006:	7840      	ldrb	r0, [r0, #1]
    3008:	2201      	movs	r2, #1
    300a:	4010      	ands	r0, r2
    300c:	0180      	lsls	r0, r0, #6
    300e:	2640      	movs	r6, #64	; 0x40
    3010:	43b3      	bics	r3, r6
    3012:	4303      	orrs	r3, r0
    3014:	402a      	ands	r2, r5
    3016:	01d2      	lsls	r2, r2, #7
    3018:	2080      	movs	r0, #128	; 0x80
    301a:	4383      	bics	r3, r0
    301c:	4313      	orrs	r3, r2
    301e:	2203      	movs	r2, #3
    3020:	4022      	ands	r2, r4
    3022:	0212      	lsls	r2, r2, #8
    3024:	4803      	ldr	r0, [pc, #12]	; (3034 <system_clock_source_osc8m_set_config+0x38>)
    3026:	4003      	ands	r3, r0
    3028:	4313      	orrs	r3, r2
    302a:	620b      	str	r3, [r1, #32]
    302c:	bd70      	pop	{r4, r5, r6, pc}
    302e:	46c0      	nop			; (mov r8, r8)
    3030:	40000800 	.word	0x40000800
    3034:	fffffcff 	.word	0xfffffcff

00003038 <system_clock_source_xosc32k_set_config>:
    3038:	b5f0      	push	{r4, r5, r6, r7, lr}
    303a:	46de      	mov	lr, fp
    303c:	4657      	mov	r7, sl
    303e:	464e      	mov	r6, r9
    3040:	4645      	mov	r5, r8
    3042:	b5e0      	push	{r5, r6, r7, lr}
    3044:	0001      	movs	r1, r0
    3046:	4b26      	ldr	r3, [pc, #152]	; (30e0 <system_clock_source_xosc32k_set_config+0xa8>)
    3048:	469b      	mov	fp, r3
    304a:	8a9b      	ldrh	r3, [r3, #20]
    304c:	7845      	ldrb	r5, [r0, #1]
    304e:	7800      	ldrb	r0, [r0, #0]
    3050:	4242      	negs	r2, r0
    3052:	4142      	adcs	r2, r0
    3054:	4691      	mov	r9, r2
    3056:	7888      	ldrb	r0, [r1, #2]
    3058:	78ca      	ldrb	r2, [r1, #3]
    305a:	4694      	mov	ip, r2
    305c:	790a      	ldrb	r2, [r1, #4]
    305e:	4690      	mov	r8, r2
    3060:	7b4e      	ldrb	r6, [r1, #13]
    3062:	7b0f      	ldrb	r7, [r1, #12]
    3064:	7b8c      	ldrb	r4, [r1, #14]
    3066:	688a      	ldr	r2, [r1, #8]
    3068:	491e      	ldr	r1, [pc, #120]	; (30e4 <system_clock_source_xosc32k_set_config+0xac>)
    306a:	614a      	str	r2, [r1, #20]
    306c:	2101      	movs	r1, #1
    306e:	464a      	mov	r2, r9
    3070:	0092      	lsls	r2, r2, #2
    3072:	4691      	mov	r9, r2
    3074:	2204      	movs	r2, #4
    3076:	4393      	bics	r3, r2
    3078:	464a      	mov	r2, r9
    307a:	4313      	orrs	r3, r2
    307c:	4642      	mov	r2, r8
    307e:	400a      	ands	r2, r1
    3080:	00d2      	lsls	r2, r2, #3
    3082:	4690      	mov	r8, r2
    3084:	2208      	movs	r2, #8
    3086:	4393      	bics	r3, r2
    3088:	4642      	mov	r2, r8
    308a:	4313      	orrs	r3, r2
    308c:	4662      	mov	r2, ip
    308e:	400a      	ands	r2, r1
    3090:	0112      	lsls	r2, r2, #4
    3092:	4694      	mov	ip, r2
    3094:	2210      	movs	r2, #16
    3096:	4393      	bics	r3, r2
    3098:	4662      	mov	r2, ip
    309a:	4313      	orrs	r3, r2
    309c:	4008      	ands	r0, r1
    309e:	0140      	lsls	r0, r0, #5
    30a0:	2220      	movs	r2, #32
    30a2:	4393      	bics	r3, r2
    30a4:	4303      	orrs	r3, r0
    30a6:	400f      	ands	r7, r1
    30a8:	01bf      	lsls	r7, r7, #6
    30aa:	2040      	movs	r0, #64	; 0x40
    30ac:	4383      	bics	r3, r0
    30ae:	433b      	orrs	r3, r7
    30b0:	400e      	ands	r6, r1
    30b2:	01f6      	lsls	r6, r6, #7
    30b4:	3040      	adds	r0, #64	; 0x40
    30b6:	4383      	bics	r3, r0
    30b8:	4333      	orrs	r3, r6
    30ba:	3879      	subs	r0, #121	; 0x79
    30bc:	4005      	ands	r5, r0
    30be:	022d      	lsls	r5, r5, #8
    30c0:	4809      	ldr	r0, [pc, #36]	; (30e8 <system_clock_source_xosc32k_set_config+0xb0>)
    30c2:	4003      	ands	r3, r0
    30c4:	432b      	orrs	r3, r5
    30c6:	4021      	ands	r1, r4
    30c8:	0309      	lsls	r1, r1, #12
    30ca:	4808      	ldr	r0, [pc, #32]	; (30ec <system_clock_source_xosc32k_set_config+0xb4>)
    30cc:	4003      	ands	r3, r0
    30ce:	430b      	orrs	r3, r1
    30d0:	465a      	mov	r2, fp
    30d2:	8293      	strh	r3, [r2, #20]
    30d4:	bc3c      	pop	{r2, r3, r4, r5}
    30d6:	4690      	mov	r8, r2
    30d8:	4699      	mov	r9, r3
    30da:	46a2      	mov	sl, r4
    30dc:	46ab      	mov	fp, r5
    30de:	bdf0      	pop	{r4, r5, r6, r7, pc}
    30e0:	40000800 	.word	0x40000800
    30e4:	20000188 	.word	0x20000188
    30e8:	fffff8ff 	.word	0xfffff8ff
    30ec:	ffffefff 	.word	0xffffefff

000030f0 <system_clock_source_dfll_set_config>:
    30f0:	b510      	push	{r4, lr}
    30f2:	7a03      	ldrb	r3, [r0, #8]
    30f4:	069b      	lsls	r3, r3, #26
    30f6:	0c1b      	lsrs	r3, r3, #16
    30f8:	8942      	ldrh	r2, [r0, #10]
    30fa:	0592      	lsls	r2, r2, #22
    30fc:	0d92      	lsrs	r2, r2, #22
    30fe:	4313      	orrs	r3, r2
    3100:	4918      	ldr	r1, [pc, #96]	; (3164 <system_clock_source_dfll_set_config+0x74>)
    3102:	604b      	str	r3, [r1, #4]
    3104:	7983      	ldrb	r3, [r0, #6]
    3106:	79c2      	ldrb	r2, [r0, #7]
    3108:	4313      	orrs	r3, r2
    310a:	8842      	ldrh	r2, [r0, #2]
    310c:	8884      	ldrh	r4, [r0, #4]
    310e:	4322      	orrs	r2, r4
    3110:	4313      	orrs	r3, r2
    3112:	7842      	ldrb	r2, [r0, #1]
    3114:	01d2      	lsls	r2, r2, #7
    3116:	4313      	orrs	r3, r2
    3118:	600b      	str	r3, [r1, #0]
    311a:	7803      	ldrb	r3, [r0, #0]
    311c:	2b04      	cmp	r3, #4
    311e:	d011      	beq.n	3144 <system_clock_source_dfll_set_config+0x54>
    3120:	2b20      	cmp	r3, #32
    3122:	d10e      	bne.n	3142 <system_clock_source_dfll_set_config+0x52>
    3124:	7b03      	ldrb	r3, [r0, #12]
    3126:	069b      	lsls	r3, r3, #26
    3128:	8a02      	ldrh	r2, [r0, #16]
    312a:	4313      	orrs	r3, r2
    312c:	89c2      	ldrh	r2, [r0, #14]
    312e:	0412      	lsls	r2, r2, #16
    3130:	490d      	ldr	r1, [pc, #52]	; (3168 <system_clock_source_dfll_set_config+0x78>)
    3132:	400a      	ands	r2, r1
    3134:	4313      	orrs	r3, r2
    3136:	4a0b      	ldr	r2, [pc, #44]	; (3164 <system_clock_source_dfll_set_config+0x74>)
    3138:	6093      	str	r3, [r2, #8]
    313a:	6811      	ldr	r1, [r2, #0]
    313c:	4b0b      	ldr	r3, [pc, #44]	; (316c <system_clock_source_dfll_set_config+0x7c>)
    313e:	430b      	orrs	r3, r1
    3140:	6013      	str	r3, [r2, #0]
    3142:	bd10      	pop	{r4, pc}
    3144:	7b03      	ldrb	r3, [r0, #12]
    3146:	069b      	lsls	r3, r3, #26
    3148:	8a02      	ldrh	r2, [r0, #16]
    314a:	4313      	orrs	r3, r2
    314c:	89c2      	ldrh	r2, [r0, #14]
    314e:	0412      	lsls	r2, r2, #16
    3150:	4905      	ldr	r1, [pc, #20]	; (3168 <system_clock_source_dfll_set_config+0x78>)
    3152:	400a      	ands	r2, r1
    3154:	4313      	orrs	r3, r2
    3156:	4a03      	ldr	r2, [pc, #12]	; (3164 <system_clock_source_dfll_set_config+0x74>)
    3158:	6093      	str	r3, [r2, #8]
    315a:	6813      	ldr	r3, [r2, #0]
    315c:	2104      	movs	r1, #4
    315e:	430b      	orrs	r3, r1
    3160:	6013      	str	r3, [r2, #0]
    3162:	e7ee      	b.n	3142 <system_clock_source_dfll_set_config+0x52>
    3164:	20000188 	.word	0x20000188
    3168:	03ff0000 	.word	0x03ff0000
    316c:	00000424 	.word	0x00000424

00003170 <system_clock_source_enable>:
    3170:	2808      	cmp	r0, #8
    3172:	d803      	bhi.n	317c <system_clock_source_enable+0xc>
    3174:	0080      	lsls	r0, r0, #2
    3176:	4b25      	ldr	r3, [pc, #148]	; (320c <system_clock_source_enable+0x9c>)
    3178:	581b      	ldr	r3, [r3, r0]
    317a:	469f      	mov	pc, r3
    317c:	2017      	movs	r0, #23
    317e:	e044      	b.n	320a <system_clock_source_enable+0x9a>
    3180:	4a23      	ldr	r2, [pc, #140]	; (3210 <system_clock_source_enable+0xa0>)
    3182:	6a13      	ldr	r3, [r2, #32]
    3184:	2102      	movs	r1, #2
    3186:	430b      	orrs	r3, r1
    3188:	6213      	str	r3, [r2, #32]
    318a:	2000      	movs	r0, #0
    318c:	e03d      	b.n	320a <system_clock_source_enable+0x9a>
    318e:	4a20      	ldr	r2, [pc, #128]	; (3210 <system_clock_source_enable+0xa0>)
    3190:	6993      	ldr	r3, [r2, #24]
    3192:	2102      	movs	r1, #2
    3194:	430b      	orrs	r3, r1
    3196:	6193      	str	r3, [r2, #24]
    3198:	2000      	movs	r0, #0
    319a:	e036      	b.n	320a <system_clock_source_enable+0x9a>
    319c:	4a1c      	ldr	r2, [pc, #112]	; (3210 <system_clock_source_enable+0xa0>)
    319e:	8a13      	ldrh	r3, [r2, #16]
    31a0:	2102      	movs	r1, #2
    31a2:	430b      	orrs	r3, r1
    31a4:	8213      	strh	r3, [r2, #16]
    31a6:	2000      	movs	r0, #0
    31a8:	e02f      	b.n	320a <system_clock_source_enable+0x9a>
    31aa:	4a19      	ldr	r2, [pc, #100]	; (3210 <system_clock_source_enable+0xa0>)
    31ac:	8a93      	ldrh	r3, [r2, #20]
    31ae:	2102      	movs	r1, #2
    31b0:	430b      	orrs	r3, r1
    31b2:	8293      	strh	r3, [r2, #20]
    31b4:	2000      	movs	r0, #0
    31b6:	e028      	b.n	320a <system_clock_source_enable+0x9a>
    31b8:	4916      	ldr	r1, [pc, #88]	; (3214 <system_clock_source_enable+0xa4>)
    31ba:	680b      	ldr	r3, [r1, #0]
    31bc:	2202      	movs	r2, #2
    31be:	4313      	orrs	r3, r2
    31c0:	600b      	str	r3, [r1, #0]
    31c2:	4b13      	ldr	r3, [pc, #76]	; (3210 <system_clock_source_enable+0xa0>)
    31c4:	849a      	strh	r2, [r3, #36]	; 0x24
    31c6:	0019      	movs	r1, r3
    31c8:	320e      	adds	r2, #14
    31ca:	68cb      	ldr	r3, [r1, #12]
    31cc:	421a      	tst	r2, r3
    31ce:	d0fc      	beq.n	31ca <system_clock_source_enable+0x5a>
    31d0:	4a10      	ldr	r2, [pc, #64]	; (3214 <system_clock_source_enable+0xa4>)
    31d2:	6891      	ldr	r1, [r2, #8]
    31d4:	4b0e      	ldr	r3, [pc, #56]	; (3210 <system_clock_source_enable+0xa0>)
    31d6:	62d9      	str	r1, [r3, #44]	; 0x2c
    31d8:	6852      	ldr	r2, [r2, #4]
    31da:	629a      	str	r2, [r3, #40]	; 0x28
    31dc:	2200      	movs	r2, #0
    31de:	849a      	strh	r2, [r3, #36]	; 0x24
    31e0:	0019      	movs	r1, r3
    31e2:	3210      	adds	r2, #16
    31e4:	68cb      	ldr	r3, [r1, #12]
    31e6:	421a      	tst	r2, r3
    31e8:	d0fc      	beq.n	31e4 <system_clock_source_enable+0x74>
    31ea:	4b0a      	ldr	r3, [pc, #40]	; (3214 <system_clock_source_enable+0xa4>)
    31ec:	681b      	ldr	r3, [r3, #0]
    31ee:	b29b      	uxth	r3, r3
    31f0:	4a07      	ldr	r2, [pc, #28]	; (3210 <system_clock_source_enable+0xa0>)
    31f2:	8493      	strh	r3, [r2, #36]	; 0x24
    31f4:	2000      	movs	r0, #0
    31f6:	e008      	b.n	320a <system_clock_source_enable+0x9a>
    31f8:	4905      	ldr	r1, [pc, #20]	; (3210 <system_clock_source_enable+0xa0>)
    31fa:	2244      	movs	r2, #68	; 0x44
    31fc:	5c8b      	ldrb	r3, [r1, r2]
    31fe:	2002      	movs	r0, #2
    3200:	4303      	orrs	r3, r0
    3202:	548b      	strb	r3, [r1, r2]
    3204:	2000      	movs	r0, #0
    3206:	e000      	b.n	320a <system_clock_source_enable+0x9a>
    3208:	2000      	movs	r0, #0
    320a:	4770      	bx	lr
    320c:	00006f04 	.word	0x00006f04
    3210:	40000800 	.word	0x40000800
    3214:	20000188 	.word	0x20000188

00003218 <system_clock_init>:
    3218:	b5f0      	push	{r4, r5, r6, r7, lr}
    321a:	b08f      	sub	sp, #60	; 0x3c
    321c:	22c2      	movs	r2, #194	; 0xc2
    321e:	00d2      	lsls	r2, r2, #3
    3220:	4b45      	ldr	r3, [pc, #276]	; (3338 <system_clock_init+0x120>)
    3222:	609a      	str	r2, [r3, #8]
    3224:	4a45      	ldr	r2, [pc, #276]	; (333c <system_clock_init+0x124>)
    3226:	6853      	ldr	r3, [r2, #4]
    3228:	211e      	movs	r1, #30
    322a:	438b      	bics	r3, r1
    322c:	391a      	subs	r1, #26
    322e:	430b      	orrs	r3, r1
    3230:	6053      	str	r3, [r2, #4]
    3232:	2202      	movs	r2, #2
    3234:	ab01      	add	r3, sp, #4
    3236:	701a      	strb	r2, [r3, #0]
    3238:	2400      	movs	r4, #0
    323a:	4d41      	ldr	r5, [pc, #260]	; (3340 <system_clock_init+0x128>)
    323c:	b2e0      	uxtb	r0, r4
    323e:	a901      	add	r1, sp, #4
    3240:	47a8      	blx	r5
    3242:	3401      	adds	r4, #1
    3244:	2c25      	cmp	r4, #37	; 0x25
    3246:	d1f9      	bne.n	323c <system_clock_init+0x24>
    3248:	a80a      	add	r0, sp, #40	; 0x28
    324a:	2300      	movs	r3, #0
    324c:	7003      	strb	r3, [r0, #0]
    324e:	7083      	strb	r3, [r0, #2]
    3250:	2280      	movs	r2, #128	; 0x80
    3252:	0212      	lsls	r2, r2, #8
    3254:	6082      	str	r2, [r0, #8]
    3256:	70c3      	strb	r3, [r0, #3]
    3258:	2201      	movs	r2, #1
    325a:	7102      	strb	r2, [r0, #4]
    325c:	7383      	strb	r3, [r0, #14]
    325e:	2106      	movs	r1, #6
    3260:	7041      	strb	r1, [r0, #1]
    3262:	7343      	strb	r3, [r0, #13]
    3264:	7302      	strb	r2, [r0, #12]
    3266:	4b37      	ldr	r3, [pc, #220]	; (3344 <system_clock_init+0x12c>)
    3268:	4798      	blx	r3
    326a:	2005      	movs	r0, #5
    326c:	4b36      	ldr	r3, [pc, #216]	; (3348 <system_clock_init+0x130>)
    326e:	4798      	blx	r3
    3270:	4931      	ldr	r1, [pc, #196]	; (3338 <system_clock_init+0x120>)
    3272:	2202      	movs	r2, #2
    3274:	68cb      	ldr	r3, [r1, #12]
    3276:	421a      	tst	r2, r3
    3278:	d0fc      	beq.n	3274 <system_clock_init+0x5c>
    327a:	ab05      	add	r3, sp, #20
    327c:	2100      	movs	r1, #0
    327e:	2200      	movs	r2, #0
    3280:	8059      	strh	r1, [r3, #2]
    3282:	8099      	strh	r1, [r3, #4]
    3284:	719a      	strb	r2, [r3, #6]
    3286:	71da      	strb	r2, [r3, #7]
    3288:	313f      	adds	r1, #63	; 0x3f
    328a:	8159      	strh	r1, [r3, #10]
    328c:	393b      	subs	r1, #59	; 0x3b
    328e:	7019      	strb	r1, [r3, #0]
    3290:	705a      	strb	r2, [r3, #1]
    3292:	4b2e      	ldr	r3, [pc, #184]	; (334c <system_clock_init+0x134>)
    3294:	681b      	ldr	r3, [r3, #0]
    3296:	0e9b      	lsrs	r3, r3, #26
    3298:	2b3f      	cmp	r3, #63	; 0x3f
    329a:	d04b      	beq.n	3334 <system_clock_init+0x11c>
    329c:	a805      	add	r0, sp, #20
    329e:	7203      	strb	r3, [r0, #8]
    32a0:	23b7      	movs	r3, #183	; 0xb7
    32a2:	00db      	lsls	r3, r3, #3
    32a4:	8203      	strh	r3, [r0, #16]
    32a6:	2303      	movs	r3, #3
    32a8:	7303      	strb	r3, [r0, #12]
    32aa:	331c      	adds	r3, #28
    32ac:	81c3      	strh	r3, [r0, #14]
    32ae:	4b28      	ldr	r3, [pc, #160]	; (3350 <system_clock_init+0x138>)
    32b0:	4798      	blx	r3
    32b2:	a804      	add	r0, sp, #16
    32b4:	2501      	movs	r5, #1
    32b6:	7085      	strb	r5, [r0, #2]
    32b8:	2600      	movs	r6, #0
    32ba:	7006      	strb	r6, [r0, #0]
    32bc:	7045      	strb	r5, [r0, #1]
    32be:	4b25      	ldr	r3, [pc, #148]	; (3354 <system_clock_init+0x13c>)
    32c0:	4798      	blx	r3
    32c2:	2006      	movs	r0, #6
    32c4:	4f20      	ldr	r7, [pc, #128]	; (3348 <system_clock_init+0x130>)
    32c6:	47b8      	blx	r7
    32c8:	4b23      	ldr	r3, [pc, #140]	; (3358 <system_clock_init+0x140>)
    32ca:	4798      	blx	r3
    32cc:	ac01      	add	r4, sp, #4
    32ce:	9502      	str	r5, [sp, #8]
    32d0:	7066      	strb	r6, [r4, #1]
    32d2:	7226      	strb	r6, [r4, #8]
    32d4:	7266      	strb	r6, [r4, #9]
    32d6:	2305      	movs	r3, #5
    32d8:	7023      	strb	r3, [r4, #0]
    32da:	0021      	movs	r1, r4
    32dc:	2001      	movs	r0, #1
    32de:	4b1f      	ldr	r3, [pc, #124]	; (335c <system_clock_init+0x144>)
    32e0:	4798      	blx	r3
    32e2:	2001      	movs	r0, #1
    32e4:	4b1e      	ldr	r3, [pc, #120]	; (3360 <system_clock_init+0x148>)
    32e6:	4798      	blx	r3
    32e8:	7025      	strb	r5, [r4, #0]
    32ea:	0021      	movs	r1, r4
    32ec:	2000      	movs	r0, #0
    32ee:	4b14      	ldr	r3, [pc, #80]	; (3340 <system_clock_init+0x128>)
    32f0:	4798      	blx	r3
    32f2:	2000      	movs	r0, #0
    32f4:	4b1b      	ldr	r3, [pc, #108]	; (3364 <system_clock_init+0x14c>)
    32f6:	4798      	blx	r3
    32f8:	2007      	movs	r0, #7
    32fa:	47b8      	blx	r7
    32fc:	490e      	ldr	r1, [pc, #56]	; (3338 <system_clock_init+0x120>)
    32fe:	22d0      	movs	r2, #208	; 0xd0
    3300:	68cb      	ldr	r3, [r1, #12]
    3302:	4013      	ands	r3, r2
    3304:	2bd0      	cmp	r3, #208	; 0xd0
    3306:	d1fb      	bne.n	3300 <system_clock_init+0xe8>
    3308:	4a17      	ldr	r2, [pc, #92]	; (3368 <system_clock_init+0x150>)
    330a:	2300      	movs	r3, #0
    330c:	7213      	strb	r3, [r2, #8]
    330e:	7253      	strb	r3, [r2, #9]
    3310:	7293      	strb	r3, [r2, #10]
    3312:	72d3      	strb	r3, [r2, #11]
    3314:	a901      	add	r1, sp, #4
    3316:	2201      	movs	r2, #1
    3318:	604a      	str	r2, [r1, #4]
    331a:	704b      	strb	r3, [r1, #1]
    331c:	724b      	strb	r3, [r1, #9]
    331e:	3307      	adds	r3, #7
    3320:	700b      	strb	r3, [r1, #0]
    3322:	720a      	strb	r2, [r1, #8]
    3324:	2000      	movs	r0, #0
    3326:	4b0d      	ldr	r3, [pc, #52]	; (335c <system_clock_init+0x144>)
    3328:	4798      	blx	r3
    332a:	2000      	movs	r0, #0
    332c:	4b0c      	ldr	r3, [pc, #48]	; (3360 <system_clock_init+0x148>)
    332e:	4798      	blx	r3
    3330:	b00f      	add	sp, #60	; 0x3c
    3332:	bdf0      	pop	{r4, r5, r6, r7, pc}
    3334:	3b20      	subs	r3, #32
    3336:	e7b1      	b.n	329c <system_clock_init+0x84>
    3338:	40000800 	.word	0x40000800
    333c:	41004000 	.word	0x41004000
    3340:	000035a5 	.word	0x000035a5
    3344:	00003039 	.word	0x00003039
    3348:	00003171 	.word	0x00003171
    334c:	00806024 	.word	0x00806024
    3350:	000030f1 	.word	0x000030f1
    3354:	00002ffd 	.word	0x00002ffd
    3358:	0000336d 	.word	0x0000336d
    335c:	00003391 	.word	0x00003391
    3360:	00003449 	.word	0x00003449
    3364:	00003519 	.word	0x00003519
    3368:	40000400 	.word	0x40000400

0000336c <system_gclk_init>:
    336c:	4a06      	ldr	r2, [pc, #24]	; (3388 <system_gclk_init+0x1c>)
    336e:	6993      	ldr	r3, [r2, #24]
    3370:	2108      	movs	r1, #8
    3372:	430b      	orrs	r3, r1
    3374:	6193      	str	r3, [r2, #24]
    3376:	2201      	movs	r2, #1
    3378:	4b04      	ldr	r3, [pc, #16]	; (338c <system_gclk_init+0x20>)
    337a:	701a      	strb	r2, [r3, #0]
    337c:	0019      	movs	r1, r3
    337e:	780b      	ldrb	r3, [r1, #0]
    3380:	4213      	tst	r3, r2
    3382:	d1fc      	bne.n	337e <system_gclk_init+0x12>
    3384:	4770      	bx	lr
    3386:	46c0      	nop			; (mov r8, r8)
    3388:	40000400 	.word	0x40000400
    338c:	40000c00 	.word	0x40000c00

00003390 <system_gclk_gen_set_config>:
    3390:	b570      	push	{r4, r5, r6, lr}
    3392:	0006      	movs	r6, r0
    3394:	0004      	movs	r4, r0
    3396:	780d      	ldrb	r5, [r1, #0]
    3398:	022d      	lsls	r5, r5, #8
    339a:	4305      	orrs	r5, r0
    339c:	784b      	ldrb	r3, [r1, #1]
    339e:	2b00      	cmp	r3, #0
    33a0:	d002      	beq.n	33a8 <system_gclk_gen_set_config+0x18>
    33a2:	2380      	movs	r3, #128	; 0x80
    33a4:	02db      	lsls	r3, r3, #11
    33a6:	431d      	orrs	r5, r3
    33a8:	7a4b      	ldrb	r3, [r1, #9]
    33aa:	2b00      	cmp	r3, #0
    33ac:	d002      	beq.n	33b4 <system_gclk_gen_set_config+0x24>
    33ae:	2380      	movs	r3, #128	; 0x80
    33b0:	031b      	lsls	r3, r3, #12
    33b2:	431d      	orrs	r5, r3
    33b4:	6848      	ldr	r0, [r1, #4]
    33b6:	2801      	cmp	r0, #1
    33b8:	d910      	bls.n	33dc <system_gclk_gen_set_config+0x4c>
    33ba:	1e43      	subs	r3, r0, #1
    33bc:	4218      	tst	r0, r3
    33be:	d134      	bne.n	342a <system_gclk_gen_set_config+0x9a>
    33c0:	2802      	cmp	r0, #2
    33c2:	d930      	bls.n	3426 <system_gclk_gen_set_config+0x96>
    33c4:	2302      	movs	r3, #2
    33c6:	2200      	movs	r2, #0
    33c8:	3201      	adds	r2, #1
    33ca:	005b      	lsls	r3, r3, #1
    33cc:	4298      	cmp	r0, r3
    33ce:	d8fb      	bhi.n	33c8 <system_gclk_gen_set_config+0x38>
    33d0:	0212      	lsls	r2, r2, #8
    33d2:	4332      	orrs	r2, r6
    33d4:	0014      	movs	r4, r2
    33d6:	2380      	movs	r3, #128	; 0x80
    33d8:	035b      	lsls	r3, r3, #13
    33da:	431d      	orrs	r5, r3
    33dc:	7a0b      	ldrb	r3, [r1, #8]
    33de:	2b00      	cmp	r3, #0
    33e0:	d002      	beq.n	33e8 <system_gclk_gen_set_config+0x58>
    33e2:	2380      	movs	r3, #128	; 0x80
    33e4:	039b      	lsls	r3, r3, #14
    33e6:	431d      	orrs	r5, r3
    33e8:	4a13      	ldr	r2, [pc, #76]	; (3438 <system_gclk_gen_set_config+0xa8>)
    33ea:	7853      	ldrb	r3, [r2, #1]
    33ec:	b25b      	sxtb	r3, r3
    33ee:	2b00      	cmp	r3, #0
    33f0:	dbfb      	blt.n	33ea <system_gclk_gen_set_config+0x5a>
    33f2:	4b12      	ldr	r3, [pc, #72]	; (343c <system_gclk_gen_set_config+0xac>)
    33f4:	4798      	blx	r3
    33f6:	4b12      	ldr	r3, [pc, #72]	; (3440 <system_gclk_gen_set_config+0xb0>)
    33f8:	701e      	strb	r6, [r3, #0]
    33fa:	4a0f      	ldr	r2, [pc, #60]	; (3438 <system_gclk_gen_set_config+0xa8>)
    33fc:	7853      	ldrb	r3, [r2, #1]
    33fe:	b25b      	sxtb	r3, r3
    3400:	2b00      	cmp	r3, #0
    3402:	dbfb      	blt.n	33fc <system_gclk_gen_set_config+0x6c>
    3404:	4b0c      	ldr	r3, [pc, #48]	; (3438 <system_gclk_gen_set_config+0xa8>)
    3406:	609c      	str	r4, [r3, #8]
    3408:	001a      	movs	r2, r3
    340a:	7853      	ldrb	r3, [r2, #1]
    340c:	b25b      	sxtb	r3, r3
    340e:	2b00      	cmp	r3, #0
    3410:	dbfb      	blt.n	340a <system_gclk_gen_set_config+0x7a>
    3412:	4a09      	ldr	r2, [pc, #36]	; (3438 <system_gclk_gen_set_config+0xa8>)
    3414:	6853      	ldr	r3, [r2, #4]
    3416:	2180      	movs	r1, #128	; 0x80
    3418:	0249      	lsls	r1, r1, #9
    341a:	400b      	ands	r3, r1
    341c:	431d      	orrs	r5, r3
    341e:	6055      	str	r5, [r2, #4]
    3420:	4b08      	ldr	r3, [pc, #32]	; (3444 <system_gclk_gen_set_config+0xb4>)
    3422:	4798      	blx	r3
    3424:	bd70      	pop	{r4, r5, r6, pc}
    3426:	2200      	movs	r2, #0
    3428:	e7d2      	b.n	33d0 <system_gclk_gen_set_config+0x40>
    342a:	0204      	lsls	r4, r0, #8
    342c:	4334      	orrs	r4, r6
    342e:	2380      	movs	r3, #128	; 0x80
    3430:	029b      	lsls	r3, r3, #10
    3432:	431d      	orrs	r5, r3
    3434:	e7d2      	b.n	33dc <system_gclk_gen_set_config+0x4c>
    3436:	46c0      	nop			; (mov r8, r8)
    3438:	40000c00 	.word	0x40000c00
    343c:	00001b05 	.word	0x00001b05
    3440:	40000c08 	.word	0x40000c08
    3444:	00001b45 	.word	0x00001b45

00003448 <system_gclk_gen_enable>:
    3448:	b510      	push	{r4, lr}
    344a:	0004      	movs	r4, r0
    344c:	4a0b      	ldr	r2, [pc, #44]	; (347c <system_gclk_gen_enable+0x34>)
    344e:	7853      	ldrb	r3, [r2, #1]
    3450:	b25b      	sxtb	r3, r3
    3452:	2b00      	cmp	r3, #0
    3454:	dbfb      	blt.n	344e <system_gclk_gen_enable+0x6>
    3456:	4b0a      	ldr	r3, [pc, #40]	; (3480 <system_gclk_gen_enable+0x38>)
    3458:	4798      	blx	r3
    345a:	4b0a      	ldr	r3, [pc, #40]	; (3484 <system_gclk_gen_enable+0x3c>)
    345c:	701c      	strb	r4, [r3, #0]
    345e:	4a07      	ldr	r2, [pc, #28]	; (347c <system_gclk_gen_enable+0x34>)
    3460:	7853      	ldrb	r3, [r2, #1]
    3462:	b25b      	sxtb	r3, r3
    3464:	2b00      	cmp	r3, #0
    3466:	dbfb      	blt.n	3460 <system_gclk_gen_enable+0x18>
    3468:	4a04      	ldr	r2, [pc, #16]	; (347c <system_gclk_gen_enable+0x34>)
    346a:	6851      	ldr	r1, [r2, #4]
    346c:	2380      	movs	r3, #128	; 0x80
    346e:	025b      	lsls	r3, r3, #9
    3470:	430b      	orrs	r3, r1
    3472:	6053      	str	r3, [r2, #4]
    3474:	4b04      	ldr	r3, [pc, #16]	; (3488 <system_gclk_gen_enable+0x40>)
    3476:	4798      	blx	r3
    3478:	bd10      	pop	{r4, pc}
    347a:	46c0      	nop			; (mov r8, r8)
    347c:	40000c00 	.word	0x40000c00
    3480:	00001b05 	.word	0x00001b05
    3484:	40000c04 	.word	0x40000c04
    3488:	00001b45 	.word	0x00001b45

0000348c <system_gclk_gen_get_hz>:
    348c:	b570      	push	{r4, r5, r6, lr}
    348e:	0004      	movs	r4, r0
    3490:	4a1a      	ldr	r2, [pc, #104]	; (34fc <system_gclk_gen_get_hz+0x70>)
    3492:	7853      	ldrb	r3, [r2, #1]
    3494:	b25b      	sxtb	r3, r3
    3496:	2b00      	cmp	r3, #0
    3498:	dbfb      	blt.n	3492 <system_gclk_gen_get_hz+0x6>
    349a:	4b19      	ldr	r3, [pc, #100]	; (3500 <system_gclk_gen_get_hz+0x74>)
    349c:	4798      	blx	r3
    349e:	4b19      	ldr	r3, [pc, #100]	; (3504 <system_gclk_gen_get_hz+0x78>)
    34a0:	701c      	strb	r4, [r3, #0]
    34a2:	4a16      	ldr	r2, [pc, #88]	; (34fc <system_gclk_gen_get_hz+0x70>)
    34a4:	7853      	ldrb	r3, [r2, #1]
    34a6:	b25b      	sxtb	r3, r3
    34a8:	2b00      	cmp	r3, #0
    34aa:	dbfb      	blt.n	34a4 <system_gclk_gen_get_hz+0x18>
    34ac:	4e13      	ldr	r6, [pc, #76]	; (34fc <system_gclk_gen_get_hz+0x70>)
    34ae:	6870      	ldr	r0, [r6, #4]
    34b0:	04c0      	lsls	r0, r0, #19
    34b2:	0ec0      	lsrs	r0, r0, #27
    34b4:	4b14      	ldr	r3, [pc, #80]	; (3508 <system_gclk_gen_get_hz+0x7c>)
    34b6:	4798      	blx	r3
    34b8:	0005      	movs	r5, r0
    34ba:	4b12      	ldr	r3, [pc, #72]	; (3504 <system_gclk_gen_get_hz+0x78>)
    34bc:	701c      	strb	r4, [r3, #0]
    34be:	6876      	ldr	r6, [r6, #4]
    34c0:	02f6      	lsls	r6, r6, #11
    34c2:	0ff6      	lsrs	r6, r6, #31
    34c4:	4b11      	ldr	r3, [pc, #68]	; (350c <system_gclk_gen_get_hz+0x80>)
    34c6:	701c      	strb	r4, [r3, #0]
    34c8:	4a0c      	ldr	r2, [pc, #48]	; (34fc <system_gclk_gen_get_hz+0x70>)
    34ca:	7853      	ldrb	r3, [r2, #1]
    34cc:	b25b      	sxtb	r3, r3
    34ce:	2b00      	cmp	r3, #0
    34d0:	dbfb      	blt.n	34ca <system_gclk_gen_get_hz+0x3e>
    34d2:	4b0a      	ldr	r3, [pc, #40]	; (34fc <system_gclk_gen_get_hz+0x70>)
    34d4:	689c      	ldr	r4, [r3, #8]
    34d6:	0224      	lsls	r4, r4, #8
    34d8:	0c24      	lsrs	r4, r4, #16
    34da:	4b0d      	ldr	r3, [pc, #52]	; (3510 <system_gclk_gen_get_hz+0x84>)
    34dc:	4798      	blx	r3
    34de:	2e00      	cmp	r6, #0
    34e0:	d107      	bne.n	34f2 <system_gclk_gen_get_hz+0x66>
    34e2:	2c01      	cmp	r4, #1
    34e4:	d907      	bls.n	34f6 <system_gclk_gen_get_hz+0x6a>
    34e6:	0021      	movs	r1, r4
    34e8:	0028      	movs	r0, r5
    34ea:	4b0a      	ldr	r3, [pc, #40]	; (3514 <system_gclk_gen_get_hz+0x88>)
    34ec:	4798      	blx	r3
    34ee:	0005      	movs	r5, r0
    34f0:	e001      	b.n	34f6 <system_gclk_gen_get_hz+0x6a>
    34f2:	3401      	adds	r4, #1
    34f4:	40e5      	lsrs	r5, r4
    34f6:	0028      	movs	r0, r5
    34f8:	bd70      	pop	{r4, r5, r6, pc}
    34fa:	46c0      	nop			; (mov r8, r8)
    34fc:	40000c00 	.word	0x40000c00
    3500:	00001b05 	.word	0x00001b05
    3504:	40000c04 	.word	0x40000c04
    3508:	00002f69 	.word	0x00002f69
    350c:	40000c08 	.word	0x40000c08
    3510:	00001b45 	.word	0x00001b45
    3514:	00005ac9 	.word	0x00005ac9

00003518 <system_gclk_chan_enable>:
    3518:	b510      	push	{r4, lr}
    351a:	0004      	movs	r4, r0
    351c:	4b06      	ldr	r3, [pc, #24]	; (3538 <system_gclk_chan_enable+0x20>)
    351e:	4798      	blx	r3
    3520:	4b06      	ldr	r3, [pc, #24]	; (353c <system_gclk_chan_enable+0x24>)
    3522:	701c      	strb	r4, [r3, #0]
    3524:	4a06      	ldr	r2, [pc, #24]	; (3540 <system_gclk_chan_enable+0x28>)
    3526:	8853      	ldrh	r3, [r2, #2]
    3528:	2180      	movs	r1, #128	; 0x80
    352a:	01c9      	lsls	r1, r1, #7
    352c:	430b      	orrs	r3, r1
    352e:	8053      	strh	r3, [r2, #2]
    3530:	4b04      	ldr	r3, [pc, #16]	; (3544 <system_gclk_chan_enable+0x2c>)
    3532:	4798      	blx	r3
    3534:	bd10      	pop	{r4, pc}
    3536:	46c0      	nop			; (mov r8, r8)
    3538:	00001b05 	.word	0x00001b05
    353c:	40000c02 	.word	0x40000c02
    3540:	40000c00 	.word	0x40000c00
    3544:	00001b45 	.word	0x00001b45

00003548 <system_gclk_chan_disable>:
    3548:	b510      	push	{r4, lr}
    354a:	0004      	movs	r4, r0
    354c:	4b0f      	ldr	r3, [pc, #60]	; (358c <system_gclk_chan_disable+0x44>)
    354e:	4798      	blx	r3
    3550:	4b0f      	ldr	r3, [pc, #60]	; (3590 <system_gclk_chan_disable+0x48>)
    3552:	701c      	strb	r4, [r3, #0]
    3554:	4a0f      	ldr	r2, [pc, #60]	; (3594 <system_gclk_chan_disable+0x4c>)
    3556:	8853      	ldrh	r3, [r2, #2]
    3558:	051b      	lsls	r3, r3, #20
    355a:	0f18      	lsrs	r0, r3, #28
    355c:	8853      	ldrh	r3, [r2, #2]
    355e:	490e      	ldr	r1, [pc, #56]	; (3598 <system_gclk_chan_disable+0x50>)
    3560:	400b      	ands	r3, r1
    3562:	8053      	strh	r3, [r2, #2]
    3564:	8853      	ldrh	r3, [r2, #2]
    3566:	490d      	ldr	r1, [pc, #52]	; (359c <system_gclk_chan_disable+0x54>)
    3568:	400b      	ands	r3, r1
    356a:	8053      	strh	r3, [r2, #2]
    356c:	0011      	movs	r1, r2
    356e:	2280      	movs	r2, #128	; 0x80
    3570:	01d2      	lsls	r2, r2, #7
    3572:	884b      	ldrh	r3, [r1, #2]
    3574:	4213      	tst	r3, r2
    3576:	d1fc      	bne.n	3572 <system_gclk_chan_disable+0x2a>
    3578:	4906      	ldr	r1, [pc, #24]	; (3594 <system_gclk_chan_disable+0x4c>)
    357a:	884a      	ldrh	r2, [r1, #2]
    357c:	0203      	lsls	r3, r0, #8
    357e:	4806      	ldr	r0, [pc, #24]	; (3598 <system_gclk_chan_disable+0x50>)
    3580:	4002      	ands	r2, r0
    3582:	4313      	orrs	r3, r2
    3584:	804b      	strh	r3, [r1, #2]
    3586:	4b06      	ldr	r3, [pc, #24]	; (35a0 <system_gclk_chan_disable+0x58>)
    3588:	4798      	blx	r3
    358a:	bd10      	pop	{r4, pc}
    358c:	00001b05 	.word	0x00001b05
    3590:	40000c02 	.word	0x40000c02
    3594:	40000c00 	.word	0x40000c00
    3598:	fffff0ff 	.word	0xfffff0ff
    359c:	ffffbfff 	.word	0xffffbfff
    35a0:	00001b45 	.word	0x00001b45

000035a4 <system_gclk_chan_set_config>:
    35a4:	b510      	push	{r4, lr}
    35a6:	780c      	ldrb	r4, [r1, #0]
    35a8:	0224      	lsls	r4, r4, #8
    35aa:	4304      	orrs	r4, r0
    35ac:	4b02      	ldr	r3, [pc, #8]	; (35b8 <system_gclk_chan_set_config+0x14>)
    35ae:	4798      	blx	r3
    35b0:	b2a4      	uxth	r4, r4
    35b2:	4b02      	ldr	r3, [pc, #8]	; (35bc <system_gclk_chan_set_config+0x18>)
    35b4:	805c      	strh	r4, [r3, #2]
    35b6:	bd10      	pop	{r4, pc}
    35b8:	00003549 	.word	0x00003549
    35bc:	40000c00 	.word	0x40000c00

000035c0 <system_gclk_chan_get_hz>:
    35c0:	b510      	push	{r4, lr}
    35c2:	0004      	movs	r4, r0
    35c4:	4b06      	ldr	r3, [pc, #24]	; (35e0 <system_gclk_chan_get_hz+0x20>)
    35c6:	4798      	blx	r3
    35c8:	4b06      	ldr	r3, [pc, #24]	; (35e4 <system_gclk_chan_get_hz+0x24>)
    35ca:	701c      	strb	r4, [r3, #0]
    35cc:	4b06      	ldr	r3, [pc, #24]	; (35e8 <system_gclk_chan_get_hz+0x28>)
    35ce:	885c      	ldrh	r4, [r3, #2]
    35d0:	0524      	lsls	r4, r4, #20
    35d2:	0f24      	lsrs	r4, r4, #28
    35d4:	4b05      	ldr	r3, [pc, #20]	; (35ec <system_gclk_chan_get_hz+0x2c>)
    35d6:	4798      	blx	r3
    35d8:	0020      	movs	r0, r4
    35da:	4b05      	ldr	r3, [pc, #20]	; (35f0 <system_gclk_chan_get_hz+0x30>)
    35dc:	4798      	blx	r3
    35de:	bd10      	pop	{r4, pc}
    35e0:	00001b05 	.word	0x00001b05
    35e4:	40000c02 	.word	0x40000c02
    35e8:	40000c00 	.word	0x40000c00
    35ec:	00001b45 	.word	0x00001b45
    35f0:	0000348d 	.word	0x0000348d

000035f4 <_system_pinmux_config>:
    35f4:	b530      	push	{r4, r5, lr}
    35f6:	78d3      	ldrb	r3, [r2, #3]
    35f8:	2b00      	cmp	r3, #0
    35fa:	d135      	bne.n	3668 <_system_pinmux_config+0x74>
    35fc:	7813      	ldrb	r3, [r2, #0]
    35fe:	2b80      	cmp	r3, #128	; 0x80
    3600:	d029      	beq.n	3656 <_system_pinmux_config+0x62>
    3602:	061b      	lsls	r3, r3, #24
    3604:	2480      	movs	r4, #128	; 0x80
    3606:	0264      	lsls	r4, r4, #9
    3608:	4323      	orrs	r3, r4
    360a:	7854      	ldrb	r4, [r2, #1]
    360c:	2502      	movs	r5, #2
    360e:	43ac      	bics	r4, r5
    3610:	d106      	bne.n	3620 <_system_pinmux_config+0x2c>
    3612:	7894      	ldrb	r4, [r2, #2]
    3614:	2c00      	cmp	r4, #0
    3616:	d120      	bne.n	365a <_system_pinmux_config+0x66>
    3618:	2480      	movs	r4, #128	; 0x80
    361a:	02a4      	lsls	r4, r4, #10
    361c:	4323      	orrs	r3, r4
    361e:	6041      	str	r1, [r0, #4]
    3620:	7854      	ldrb	r4, [r2, #1]
    3622:	3c01      	subs	r4, #1
    3624:	2c01      	cmp	r4, #1
    3626:	d91c      	bls.n	3662 <_system_pinmux_config+0x6e>
    3628:	040d      	lsls	r5, r1, #16
    362a:	0c2d      	lsrs	r5, r5, #16
    362c:	24a0      	movs	r4, #160	; 0xa0
    362e:	05e4      	lsls	r4, r4, #23
    3630:	432c      	orrs	r4, r5
    3632:	431c      	orrs	r4, r3
    3634:	6284      	str	r4, [r0, #40]	; 0x28
    3636:	0c0d      	lsrs	r5, r1, #16
    3638:	24d0      	movs	r4, #208	; 0xd0
    363a:	0624      	lsls	r4, r4, #24
    363c:	432c      	orrs	r4, r5
    363e:	431c      	orrs	r4, r3
    3640:	6284      	str	r4, [r0, #40]	; 0x28
    3642:	78d4      	ldrb	r4, [r2, #3]
    3644:	2c00      	cmp	r4, #0
    3646:	d122      	bne.n	368e <_system_pinmux_config+0x9a>
    3648:	035b      	lsls	r3, r3, #13
    364a:	d51c      	bpl.n	3686 <_system_pinmux_config+0x92>
    364c:	7893      	ldrb	r3, [r2, #2]
    364e:	2b01      	cmp	r3, #1
    3650:	d01e      	beq.n	3690 <_system_pinmux_config+0x9c>
    3652:	6141      	str	r1, [r0, #20]
    3654:	e017      	b.n	3686 <_system_pinmux_config+0x92>
    3656:	2300      	movs	r3, #0
    3658:	e7d7      	b.n	360a <_system_pinmux_config+0x16>
    365a:	24c0      	movs	r4, #192	; 0xc0
    365c:	02e4      	lsls	r4, r4, #11
    365e:	4323      	orrs	r3, r4
    3660:	e7dd      	b.n	361e <_system_pinmux_config+0x2a>
    3662:	4c0d      	ldr	r4, [pc, #52]	; (3698 <_system_pinmux_config+0xa4>)
    3664:	4023      	ands	r3, r4
    3666:	e7df      	b.n	3628 <_system_pinmux_config+0x34>
    3668:	6041      	str	r1, [r0, #4]
    366a:	040c      	lsls	r4, r1, #16
    366c:	0c24      	lsrs	r4, r4, #16
    366e:	23a0      	movs	r3, #160	; 0xa0
    3670:	05db      	lsls	r3, r3, #23
    3672:	4323      	orrs	r3, r4
    3674:	6283      	str	r3, [r0, #40]	; 0x28
    3676:	0c0c      	lsrs	r4, r1, #16
    3678:	23d0      	movs	r3, #208	; 0xd0
    367a:	061b      	lsls	r3, r3, #24
    367c:	4323      	orrs	r3, r4
    367e:	6283      	str	r3, [r0, #40]	; 0x28
    3680:	78d3      	ldrb	r3, [r2, #3]
    3682:	2b00      	cmp	r3, #0
    3684:	d103      	bne.n	368e <_system_pinmux_config+0x9a>
    3686:	7853      	ldrb	r3, [r2, #1]
    3688:	3b01      	subs	r3, #1
    368a:	2b01      	cmp	r3, #1
    368c:	d902      	bls.n	3694 <_system_pinmux_config+0xa0>
    368e:	bd30      	pop	{r4, r5, pc}
    3690:	6181      	str	r1, [r0, #24]
    3692:	e7f8      	b.n	3686 <_system_pinmux_config+0x92>
    3694:	6081      	str	r1, [r0, #8]
    3696:	e7fa      	b.n	368e <_system_pinmux_config+0x9a>
    3698:	fffbffff 	.word	0xfffbffff

0000369c <system_pinmux_pin_set_config>:
    369c:	b510      	push	{r4, lr}
    369e:	000a      	movs	r2, r1
    36a0:	09c1      	lsrs	r1, r0, #7
    36a2:	2300      	movs	r3, #0
    36a4:	2900      	cmp	r1, #0
    36a6:	d104      	bne.n	36b2 <system_pinmux_pin_set_config+0x16>
    36a8:	0943      	lsrs	r3, r0, #5
    36aa:	01db      	lsls	r3, r3, #7
    36ac:	4905      	ldr	r1, [pc, #20]	; (36c4 <system_pinmux_pin_set_config+0x28>)
    36ae:	468c      	mov	ip, r1
    36b0:	4463      	add	r3, ip
    36b2:	241f      	movs	r4, #31
    36b4:	4020      	ands	r0, r4
    36b6:	2101      	movs	r1, #1
    36b8:	4081      	lsls	r1, r0
    36ba:	0018      	movs	r0, r3
    36bc:	4b02      	ldr	r3, [pc, #8]	; (36c8 <system_pinmux_pin_set_config+0x2c>)
    36be:	4798      	blx	r3
    36c0:	bd10      	pop	{r4, pc}
    36c2:	46c0      	nop			; (mov r8, r8)
    36c4:	41004400 	.word	0x41004400
    36c8:	000035f5 	.word	0x000035f5

000036cc <_system_dummy_init>:
    36cc:	4770      	bx	lr
	...

000036d0 <system_init>:
    36d0:	b510      	push	{r4, lr}
    36d2:	4b05      	ldr	r3, [pc, #20]	; (36e8 <system_init+0x18>)
    36d4:	4798      	blx	r3
    36d6:	4b05      	ldr	r3, [pc, #20]	; (36ec <system_init+0x1c>)
    36d8:	4798      	blx	r3
    36da:	4b05      	ldr	r3, [pc, #20]	; (36f0 <system_init+0x20>)
    36dc:	4798      	blx	r3
    36de:	4b05      	ldr	r3, [pc, #20]	; (36f4 <system_init+0x24>)
    36e0:	4798      	blx	r3
    36e2:	4b05      	ldr	r3, [pc, #20]	; (36f8 <system_init+0x28>)
    36e4:	4798      	blx	r3
    36e6:	bd10      	pop	{r4, pc}
    36e8:	00003219 	.word	0x00003219
    36ec:	0000019d 	.word	0x0000019d
    36f0:	000036cd 	.word	0x000036cd
    36f4:	000036cd 	.word	0x000036cd
    36f8:	000036cd 	.word	0x000036cd

000036fc <Dummy_Handler>:
    36fc:	e7fe      	b.n	36fc <Dummy_Handler>
	...

00003700 <Reset_Handler>:
    3700:	b5f8      	push	{r3, r4, r5, r6, r7, lr}
    3702:	4a2a      	ldr	r2, [pc, #168]	; (37ac <Reset_Handler+0xac>)
    3704:	4b2a      	ldr	r3, [pc, #168]	; (37b0 <Reset_Handler+0xb0>)
    3706:	429a      	cmp	r2, r3
    3708:	d011      	beq.n	372e <Reset_Handler+0x2e>
    370a:	001a      	movs	r2, r3
    370c:	4b29      	ldr	r3, [pc, #164]	; (37b4 <Reset_Handler+0xb4>)
    370e:	429a      	cmp	r2, r3
    3710:	d20d      	bcs.n	372e <Reset_Handler+0x2e>
    3712:	4a29      	ldr	r2, [pc, #164]	; (37b8 <Reset_Handler+0xb8>)
    3714:	3303      	adds	r3, #3
    3716:	1a9b      	subs	r3, r3, r2
    3718:	089b      	lsrs	r3, r3, #2
    371a:	3301      	adds	r3, #1
    371c:	009b      	lsls	r3, r3, #2
    371e:	2200      	movs	r2, #0
    3720:	4823      	ldr	r0, [pc, #140]	; (37b0 <Reset_Handler+0xb0>)
    3722:	4922      	ldr	r1, [pc, #136]	; (37ac <Reset_Handler+0xac>)
    3724:	588c      	ldr	r4, [r1, r2]
    3726:	5084      	str	r4, [r0, r2]
    3728:	3204      	adds	r2, #4
    372a:	429a      	cmp	r2, r3
    372c:	d1fa      	bne.n	3724 <Reset_Handler+0x24>
    372e:	4a23      	ldr	r2, [pc, #140]	; (37bc <Reset_Handler+0xbc>)
    3730:	4b23      	ldr	r3, [pc, #140]	; (37c0 <Reset_Handler+0xc0>)
    3732:	429a      	cmp	r2, r3
    3734:	d20a      	bcs.n	374c <Reset_Handler+0x4c>
    3736:	43d3      	mvns	r3, r2
    3738:	4921      	ldr	r1, [pc, #132]	; (37c0 <Reset_Handler+0xc0>)
    373a:	185b      	adds	r3, r3, r1
    373c:	2103      	movs	r1, #3
    373e:	438b      	bics	r3, r1
    3740:	3304      	adds	r3, #4
    3742:	189b      	adds	r3, r3, r2
    3744:	2100      	movs	r1, #0
    3746:	c202      	stmia	r2!, {r1}
    3748:	4293      	cmp	r3, r2
    374a:	d1fc      	bne.n	3746 <Reset_Handler+0x46>
    374c:	4a1d      	ldr	r2, [pc, #116]	; (37c4 <Reset_Handler+0xc4>)
    374e:	21ff      	movs	r1, #255	; 0xff
    3750:	4b1d      	ldr	r3, [pc, #116]	; (37c8 <Reset_Handler+0xc8>)
    3752:	438b      	bics	r3, r1
    3754:	6093      	str	r3, [r2, #8]
    3756:	39fd      	subs	r1, #253	; 0xfd
    3758:	2390      	movs	r3, #144	; 0x90
    375a:	005b      	lsls	r3, r3, #1
    375c:	4a1b      	ldr	r2, [pc, #108]	; (37cc <Reset_Handler+0xcc>)
    375e:	50d1      	str	r1, [r2, r3]
    3760:	4a1b      	ldr	r2, [pc, #108]	; (37d0 <Reset_Handler+0xd0>)
    3762:	78d3      	ldrb	r3, [r2, #3]
    3764:	2503      	movs	r5, #3
    3766:	43ab      	bics	r3, r5
    3768:	2402      	movs	r4, #2
    376a:	4323      	orrs	r3, r4
    376c:	70d3      	strb	r3, [r2, #3]
    376e:	78d3      	ldrb	r3, [r2, #3]
    3770:	270c      	movs	r7, #12
    3772:	43bb      	bics	r3, r7
    3774:	2608      	movs	r6, #8
    3776:	4333      	orrs	r3, r6
    3778:	70d3      	strb	r3, [r2, #3]
    377a:	4b16      	ldr	r3, [pc, #88]	; (37d4 <Reset_Handler+0xd4>)
    377c:	7b98      	ldrb	r0, [r3, #14]
    377e:	2230      	movs	r2, #48	; 0x30
    3780:	4390      	bics	r0, r2
    3782:	2220      	movs	r2, #32
    3784:	4310      	orrs	r0, r2
    3786:	7398      	strb	r0, [r3, #14]
    3788:	7b99      	ldrb	r1, [r3, #14]
    378a:	43b9      	bics	r1, r7
    378c:	4331      	orrs	r1, r6
    378e:	7399      	strb	r1, [r3, #14]
    3790:	7b9a      	ldrb	r2, [r3, #14]
    3792:	43aa      	bics	r2, r5
    3794:	4322      	orrs	r2, r4
    3796:	739a      	strb	r2, [r3, #14]
    3798:	4a0f      	ldr	r2, [pc, #60]	; (37d8 <Reset_Handler+0xd8>)
    379a:	6853      	ldr	r3, [r2, #4]
    379c:	2180      	movs	r1, #128	; 0x80
    379e:	430b      	orrs	r3, r1
    37a0:	6053      	str	r3, [r2, #4]
    37a2:	4b0e      	ldr	r3, [pc, #56]	; (37dc <Reset_Handler+0xdc>)
    37a4:	4798      	blx	r3
    37a6:	4b0e      	ldr	r3, [pc, #56]	; (37e0 <Reset_Handler+0xe0>)
    37a8:	4798      	blx	r3
    37aa:	e7fe      	b.n	37aa <Reset_Handler+0xaa>
    37ac:	0000794c 	.word	0x0000794c
    37b0:	20000000 	.word	0x20000000
    37b4:	200000b8 	.word	0x200000b8
    37b8:	20000004 	.word	0x20000004
    37bc:	200000b8 	.word	0x200000b8
    37c0:	20000cd8 	.word	0x20000cd8
    37c4:	e000ed00 	.word	0xe000ed00
    37c8:	00000000 	.word	0x00000000
    37cc:	41007000 	.word	0x41007000
    37d0:	41005000 	.word	0x41005000
    37d4:	41004800 	.word	0x41004800
    37d8:	41004000 	.word	0x41004000
    37dc:	00005e09 	.word	0x00005e09
    37e0:	000055c1 	.word	0x000055c1

000037e4 <_read>:
    37e4:	b5f0      	push	{r4, r5, r6, r7, lr}
    37e6:	46c6      	mov	lr, r8
    37e8:	b500      	push	{lr}
    37ea:	000c      	movs	r4, r1
    37ec:	4690      	mov	r8, r2
    37ee:	2800      	cmp	r0, #0
    37f0:	d10f      	bne.n	3812 <_read+0x2e>
    37f2:	2a00      	cmp	r2, #0
    37f4:	dd11      	ble.n	381a <_read+0x36>
    37f6:	188f      	adds	r7, r1, r2
    37f8:	4e09      	ldr	r6, [pc, #36]	; (3820 <_read+0x3c>)
    37fa:	4d0a      	ldr	r5, [pc, #40]	; (3824 <_read+0x40>)
    37fc:	6830      	ldr	r0, [r6, #0]
    37fe:	0021      	movs	r1, r4
    3800:	682b      	ldr	r3, [r5, #0]
    3802:	4798      	blx	r3
    3804:	3401      	adds	r4, #1
    3806:	42bc      	cmp	r4, r7
    3808:	d1f8      	bne.n	37fc <_read+0x18>
    380a:	4640      	mov	r0, r8
    380c:	bc04      	pop	{r2}
    380e:	4690      	mov	r8, r2
    3810:	bdf0      	pop	{r4, r5, r6, r7, pc}
    3812:	2301      	movs	r3, #1
    3814:	425b      	negs	r3, r3
    3816:	4698      	mov	r8, r3
    3818:	e7f7      	b.n	380a <_read+0x26>
    381a:	4680      	mov	r8, r0
    381c:	e7f5      	b.n	380a <_read+0x26>
    381e:	46c0      	nop			; (mov r8, r8)
    3820:	20000a3c 	.word	0x20000a3c
    3824:	20000a34 	.word	0x20000a34

00003828 <_write>:
    3828:	b5f0      	push	{r4, r5, r6, r7, lr}
    382a:	46c6      	mov	lr, r8
    382c:	b500      	push	{lr}
    382e:	000e      	movs	r6, r1
    3830:	0015      	movs	r5, r2
    3832:	3801      	subs	r0, #1
    3834:	2802      	cmp	r0, #2
    3836:	d810      	bhi.n	385a <_write+0x32>
    3838:	2a00      	cmp	r2, #0
    383a:	d011      	beq.n	3860 <_write+0x38>
    383c:	2400      	movs	r4, #0
    383e:	4b0c      	ldr	r3, [pc, #48]	; (3870 <_write+0x48>)
    3840:	4698      	mov	r8, r3
    3842:	4f0c      	ldr	r7, [pc, #48]	; (3874 <_write+0x4c>)
    3844:	4643      	mov	r3, r8
    3846:	6818      	ldr	r0, [r3, #0]
    3848:	5d31      	ldrb	r1, [r6, r4]
    384a:	683b      	ldr	r3, [r7, #0]
    384c:	4798      	blx	r3
    384e:	2800      	cmp	r0, #0
    3850:	db08      	blt.n	3864 <_write+0x3c>
    3852:	3401      	adds	r4, #1
    3854:	42a5      	cmp	r5, r4
    3856:	d1f5      	bne.n	3844 <_write+0x1c>
    3858:	e006      	b.n	3868 <_write+0x40>
    385a:	2401      	movs	r4, #1
    385c:	4264      	negs	r4, r4
    385e:	e003      	b.n	3868 <_write+0x40>
    3860:	0014      	movs	r4, r2
    3862:	e001      	b.n	3868 <_write+0x40>
    3864:	2401      	movs	r4, #1
    3866:	4264      	negs	r4, r4
    3868:	0020      	movs	r0, r4
    386a:	bc04      	pop	{r2}
    386c:	4690      	mov	r8, r2
    386e:	bdf0      	pop	{r4, r5, r6, r7, pc}
    3870:	20000a3c 	.word	0x20000a3c
    3874:	20000a38 	.word	0x20000a38

00003878 <_sbrk>:
    3878:	0003      	movs	r3, r0
    387a:	4a06      	ldr	r2, [pc, #24]	; (3894 <_sbrk+0x1c>)
    387c:	6812      	ldr	r2, [r2, #0]
    387e:	2a00      	cmp	r2, #0
    3880:	d004      	beq.n	388c <_sbrk+0x14>
    3882:	4a04      	ldr	r2, [pc, #16]	; (3894 <_sbrk+0x1c>)
    3884:	6810      	ldr	r0, [r2, #0]
    3886:	18c3      	adds	r3, r0, r3
    3888:	6013      	str	r3, [r2, #0]
    388a:	4770      	bx	lr
    388c:	4902      	ldr	r1, [pc, #8]	; (3898 <_sbrk+0x20>)
    388e:	4a01      	ldr	r2, [pc, #4]	; (3894 <_sbrk+0x1c>)
    3890:	6011      	str	r1, [r2, #0]
    3892:	e7f6      	b.n	3882 <_sbrk+0xa>
    3894:	200001a0 	.word	0x200001a0
    3898:	20002cd8 	.word	0x20002cd8

0000389c <_close>:
    389c:	2001      	movs	r0, #1
    389e:	4240      	negs	r0, r0
    38a0:	4770      	bx	lr

000038a2 <_fstat>:
    38a2:	2380      	movs	r3, #128	; 0x80
    38a4:	019b      	lsls	r3, r3, #6
    38a6:	604b      	str	r3, [r1, #4]
    38a8:	2000      	movs	r0, #0
    38aa:	4770      	bx	lr

000038ac <_lseek>:
    38ac:	2000      	movs	r0, #0
    38ae:	4770      	bx	lr

000038b0 <disk_initialize>:
    38b0:	b530      	push	{r4, r5, lr}
    38b2:	b087      	sub	sp, #28
    38b4:	0004      	movs	r4, r0
    38b6:	aa01      	add	r2, sp, #4
    38b8:	23a0      	movs	r3, #160	; 0xa0
    38ba:	011b      	lsls	r3, r3, #4
    38bc:	8013      	strh	r3, [r2, #0]
    38be:	2300      	movs	r3, #0
    38c0:	7093      	strb	r3, [r2, #2]
    38c2:	70d3      	strb	r3, [r2, #3]
    38c4:	21fa      	movs	r1, #250	; 0xfa
    38c6:	00c9      	lsls	r1, r1, #3
    38c8:	80d1      	strh	r1, [r2, #6]
    38ca:	2101      	movs	r1, #1
    38cc:	7111      	strb	r1, [r2, #4]
    38ce:	2004      	movs	r0, #4
    38d0:	7210      	strb	r0, [r2, #8]
    38d2:	7253      	strb	r3, [r2, #9]
    38d4:	7293      	strb	r3, [r2, #10]
    38d6:	72d3      	strb	r3, [r2, #11]
    38d8:	7311      	strb	r1, [r2, #12]
    38da:	7351      	strb	r1, [r2, #13]
    38dc:	4b14      	ldr	r3, [pc, #80]	; (3930 <disk_initialize+0x80>)
    38de:	81d3      	strh	r3, [r2, #14]
    38e0:	2306      	movs	r3, #6
    38e2:	7413      	strb	r3, [r2, #16]
    38e4:	4d13      	ldr	r5, [pc, #76]	; (3934 <disk_initialize+0x84>)
    38e6:	4914      	ldr	r1, [pc, #80]	; (3938 <disk_initialize+0x88>)
    38e8:	0028      	movs	r0, r5
    38ea:	4b14      	ldr	r3, [pc, #80]	; (393c <disk_initialize+0x8c>)
    38ec:	4798      	blx	r3
    38ee:	0028      	movs	r0, r5
    38f0:	4b13      	ldr	r3, [pc, #76]	; (3940 <disk_initialize+0x90>)
    38f2:	4798      	blx	r3
    38f4:	2001      	movs	r0, #1
    38f6:	2c01      	cmp	r4, #1
    38f8:	d901      	bls.n	38fe <disk_initialize+0x4e>
    38fa:	b007      	add	sp, #28
    38fc:	bd30      	pop	{r4, r5, pc}
    38fe:	0020      	movs	r0, r4
    3900:	4b10      	ldr	r3, [pc, #64]	; (3944 <disk_initialize+0x94>)
    3902:	4798      	blx	r3
    3904:	0003      	movs	r3, r0
    3906:	2803      	cmp	r0, #3
    3908:	d106      	bne.n	3918 <disk_initialize+0x68>
    390a:	0020      	movs	r0, r4
    390c:	4b0d      	ldr	r3, [pc, #52]	; (3944 <disk_initialize+0x94>)
    390e:	4798      	blx	r3
    3910:	0003      	movs	r3, r0
    3912:	2001      	movs	r0, #1
    3914:	2b03      	cmp	r3, #3
    3916:	d0f0      	beq.n	38fa <disk_initialize+0x4a>
    3918:	2b00      	cmp	r3, #0
    391a:	d106      	bne.n	392a <disk_initialize+0x7a>
    391c:	0020      	movs	r0, r4
    391e:	4b0a      	ldr	r3, [pc, #40]	; (3948 <disk_initialize+0x98>)
    3920:	4798      	blx	r3
    3922:	1e43      	subs	r3, r0, #1
    3924:	4198      	sbcs	r0, r3
    3926:	0080      	lsls	r0, r0, #2
    3928:	e7e7      	b.n	38fa <disk_initialize+0x4a>
    392a:	2001      	movs	r0, #1
    392c:	e7e5      	b.n	38fa <disk_initialize+0x4a>
    392e:	46c0      	nop			; (mov r8, r8)
    3930:	000007de 	.word	0x000007de
    3934:	20000a40 	.word	0x20000a40
    3938:	40001400 	.word	0x40001400
    393c:	00001cdd 	.word	0x00001cdd
    3940:	00001b99 	.word	0x00001b99
    3944:	00001a71 	.word	0x00001a71
    3948:	00001aad 	.word	0x00001aad

0000394c <disk_status>:
    394c:	b510      	push	{r4, lr}
    394e:	4b05      	ldr	r3, [pc, #20]	; (3964 <disk_status+0x18>)
    3950:	4798      	blx	r3
    3952:	1e03      	subs	r3, r0, #0
    3954:	d004      	beq.n	3960 <disk_status+0x14>
    3956:	2003      	movs	r0, #3
    3958:	2b02      	cmp	r3, #2
    395a:	d000      	beq.n	395e <disk_status+0x12>
    395c:	3802      	subs	r0, #2
    395e:	bd10      	pop	{r4, pc}
    3960:	2000      	movs	r0, #0
    3962:	e7fc      	b.n	395e <disk_status+0x12>
    3964:	00001a71 	.word	0x00001a71

00003968 <disk_read>:
    3968:	b5f0      	push	{r4, r5, r6, r7, lr}
    396a:	46de      	mov	lr, fp
    396c:	464f      	mov	r7, r9
    396e:	4646      	mov	r6, r8
    3970:	b5c0      	push	{r6, r7, lr}
    3972:	b084      	sub	sp, #16
    3974:	9001      	str	r0, [sp, #4]
    3976:	000d      	movs	r5, r1
    3978:	0014      	movs	r4, r2
    397a:	001f      	movs	r7, r3
    397c:	4b18      	ldr	r3, [pc, #96]	; (39e0 <disk_read+0x78>)
    397e:	4798      	blx	r3
    3980:	0006      	movs	r6, r0
    3982:	2001      	movs	r0, #1
    3984:	2e00      	cmp	r6, #0
    3986:	d105      	bne.n	3994 <disk_read+0x2c>
    3988:	b004      	add	sp, #16
    398a:	bc1c      	pop	{r2, r3, r4}
    398c:	4690      	mov	r8, r2
    398e:	4699      	mov	r9, r3
    3990:	46a3      	mov	fp, r4
    3992:	bdf0      	pop	{r4, r5, r6, r7, pc}
    3994:	a903      	add	r1, sp, #12
    3996:	9801      	ldr	r0, [sp, #4]
    3998:	4b12      	ldr	r3, [pc, #72]	; (39e4 <disk_read+0x7c>)
    399a:	4798      	blx	r3
    399c:	46b1      	mov	r9, r6
    399e:	0032      	movs	r2, r6
    39a0:	437a      	muls	r2, r7
    39a2:	1912      	adds	r2, r2, r4
    39a4:	9b03      	ldr	r3, [sp, #12]
    39a6:	3301      	adds	r3, #1
    39a8:	4373      	muls	r3, r6
    39aa:	2004      	movs	r0, #4
    39ac:	429a      	cmp	r2, r3
    39ae:	d8eb      	bhi.n	3988 <disk_read+0x20>
    39b0:	2f00      	cmp	r7, #0
    39b2:	d011      	beq.n	39d8 <disk_read+0x70>
    39b4:	0273      	lsls	r3, r6, #9
    39b6:	4698      	mov	r8, r3
    39b8:	1c7b      	adds	r3, r7, #1
    39ba:	469b      	mov	fp, r3
    39bc:	2701      	movs	r7, #1
    39be:	4e0a      	ldr	r6, [pc, #40]	; (39e8 <disk_read+0x80>)
    39c0:	002a      	movs	r2, r5
    39c2:	0021      	movs	r1, r4
    39c4:	9801      	ldr	r0, [sp, #4]
    39c6:	47b0      	blx	r6
    39c8:	2800      	cmp	r0, #0
    39ca:	d107      	bne.n	39dc <disk_read+0x74>
    39cc:	3701      	adds	r7, #1
    39ce:	444c      	add	r4, r9
    39d0:	4445      	add	r5, r8
    39d2:	455f      	cmp	r7, fp
    39d4:	d1f4      	bne.n	39c0 <disk_read+0x58>
    39d6:	e7d7      	b.n	3988 <disk_read+0x20>
    39d8:	2000      	movs	r0, #0
    39da:	e7d5      	b.n	3988 <disk_read+0x20>
    39dc:	2001      	movs	r0, #1
    39de:	e7d3      	b.n	3988 <disk_read+0x20>
    39e0:	00001aa5 	.word	0x00001aa5
    39e4:	00001a89 	.word	0x00001a89
    39e8:	00001ac5 	.word	0x00001ac5

000039ec <disk_write>:
    39ec:	b5f0      	push	{r4, r5, r6, r7, lr}
    39ee:	46de      	mov	lr, fp
    39f0:	464f      	mov	r7, r9
    39f2:	4646      	mov	r6, r8
    39f4:	b5c0      	push	{r6, r7, lr}
    39f6:	b084      	sub	sp, #16
    39f8:	9001      	str	r0, [sp, #4]
    39fa:	000d      	movs	r5, r1
    39fc:	0014      	movs	r4, r2
    39fe:	001f      	movs	r7, r3
    3a00:	4b18      	ldr	r3, [pc, #96]	; (3a64 <disk_write+0x78>)
    3a02:	4798      	blx	r3
    3a04:	0006      	movs	r6, r0
    3a06:	2001      	movs	r0, #1
    3a08:	2e00      	cmp	r6, #0
    3a0a:	d105      	bne.n	3a18 <disk_write+0x2c>
    3a0c:	b004      	add	sp, #16
    3a0e:	bc1c      	pop	{r2, r3, r4}
    3a10:	4690      	mov	r8, r2
    3a12:	4699      	mov	r9, r3
    3a14:	46a3      	mov	fp, r4
    3a16:	bdf0      	pop	{r4, r5, r6, r7, pc}
    3a18:	a903      	add	r1, sp, #12
    3a1a:	9801      	ldr	r0, [sp, #4]
    3a1c:	4b12      	ldr	r3, [pc, #72]	; (3a68 <disk_write+0x7c>)
    3a1e:	4798      	blx	r3
    3a20:	46b1      	mov	r9, r6
    3a22:	0032      	movs	r2, r6
    3a24:	437a      	muls	r2, r7
    3a26:	1912      	adds	r2, r2, r4
    3a28:	9b03      	ldr	r3, [sp, #12]
    3a2a:	3301      	adds	r3, #1
    3a2c:	4373      	muls	r3, r6
    3a2e:	2004      	movs	r0, #4
    3a30:	429a      	cmp	r2, r3
    3a32:	d8eb      	bhi.n	3a0c <disk_write+0x20>
    3a34:	2f00      	cmp	r7, #0
    3a36:	d011      	beq.n	3a5c <disk_write+0x70>
    3a38:	0273      	lsls	r3, r6, #9
    3a3a:	4698      	mov	r8, r3
    3a3c:	1c7b      	adds	r3, r7, #1
    3a3e:	469b      	mov	fp, r3
    3a40:	2701      	movs	r7, #1
    3a42:	4e0a      	ldr	r6, [pc, #40]	; (3a6c <disk_write+0x80>)
    3a44:	002a      	movs	r2, r5
    3a46:	0021      	movs	r1, r4
    3a48:	9801      	ldr	r0, [sp, #4]
    3a4a:	47b0      	blx	r6
    3a4c:	2800      	cmp	r0, #0
    3a4e:	d107      	bne.n	3a60 <disk_write+0x74>
    3a50:	3701      	adds	r7, #1
    3a52:	444c      	add	r4, r9
    3a54:	4445      	add	r5, r8
    3a56:	455f      	cmp	r7, fp
    3a58:	d1f4      	bne.n	3a44 <disk_write+0x58>
    3a5a:	e7d7      	b.n	3a0c <disk_write+0x20>
    3a5c:	2000      	movs	r0, #0
    3a5e:	e7d5      	b.n	3a0c <disk_write+0x20>
    3a60:	2001      	movs	r0, #1
    3a62:	e7d3      	b.n	3a0c <disk_write+0x20>
    3a64:	00001aa5 	.word	0x00001aa5
    3a68:	00001a89 	.word	0x00001a89
    3a6c:	00001ae5 	.word	0x00001ae5

00003a70 <disk_ioctl>:
    3a70:	b510      	push	{r4, lr}
    3a72:	b082      	sub	sp, #8
    3a74:	0014      	movs	r4, r2
    3a76:	2901      	cmp	r1, #1
    3a78:	d00b      	beq.n	3a92 <disk_ioctl+0x22>
    3a7a:	2900      	cmp	r1, #0
    3a7c:	d020      	beq.n	3ac0 <disk_ioctl+0x50>
    3a7e:	2902      	cmp	r1, #2
    3a80:	d00f      	beq.n	3aa2 <disk_ioctl+0x32>
    3a82:	2004      	movs	r0, #4
    3a84:	2903      	cmp	r1, #3
    3a86:	d102      	bne.n	3a8e <disk_ioctl+0x1e>
    3a88:	2301      	movs	r3, #1
    3a8a:	6013      	str	r3, [r2, #0]
    3a8c:	2000      	movs	r0, #0
    3a8e:	b002      	add	sp, #8
    3a90:	bd10      	pop	{r4, pc}
    3a92:	a901      	add	r1, sp, #4
    3a94:	4b0e      	ldr	r3, [pc, #56]	; (3ad0 <disk_ioctl+0x60>)
    3a96:	4798      	blx	r3
    3a98:	9b01      	ldr	r3, [sp, #4]
    3a9a:	3301      	adds	r3, #1
    3a9c:	6023      	str	r3, [r4, #0]
    3a9e:	2000      	movs	r0, #0
    3aa0:	e7f5      	b.n	3a8e <disk_ioctl+0x1e>
    3aa2:	4b0c      	ldr	r3, [pc, #48]	; (3ad4 <disk_ioctl+0x64>)
    3aa4:	4798      	blx	r3
    3aa6:	1e43      	subs	r3, r0, #1
    3aa8:	b2db      	uxtb	r3, r3
    3aaa:	2b01      	cmp	r3, #1
    3aac:	d904      	bls.n	3ab8 <disk_ioctl+0x48>
    3aae:	1f03      	subs	r3, r0, #4
    3ab0:	22fb      	movs	r2, #251	; 0xfb
    3ab2:	2001      	movs	r0, #1
    3ab4:	4213      	tst	r3, r2
    3ab6:	d1ea      	bne.n	3a8e <disk_ioctl+0x1e>
    3ab8:	2300      	movs	r3, #0
    3aba:	7023      	strb	r3, [r4, #0]
    3abc:	2000      	movs	r0, #0
    3abe:	e7e6      	b.n	3a8e <disk_ioctl+0x1e>
    3ac0:	4b05      	ldr	r3, [pc, #20]	; (3ad8 <disk_ioctl+0x68>)
    3ac2:	4798      	blx	r3
    3ac4:	2800      	cmp	r0, #0
    3ac6:	d001      	beq.n	3acc <disk_ioctl+0x5c>
    3ac8:	2003      	movs	r0, #3
    3aca:	e7e0      	b.n	3a8e <disk_ioctl+0x1e>
    3acc:	2000      	movs	r0, #0
    3ace:	e7de      	b.n	3a8e <disk_ioctl+0x1e>
    3ad0:	00001a89 	.word	0x00001a89
    3ad4:	00001aa5 	.word	0x00001aa5
    3ad8:	00001a71 	.word	0x00001a71

00003adc <get_fattime>:
    3adc:	b500      	push	{lr}
    3ade:	b083      	sub	sp, #12
    3ae0:	4669      	mov	r1, sp
    3ae2:	480f      	ldr	r0, [pc, #60]	; (3b20 <get_fattime+0x44>)
    3ae4:	4b0f      	ldr	r3, [pc, #60]	; (3b24 <get_fattime+0x48>)
    3ae6:	4798      	blx	r3
    3ae8:	466b      	mov	r3, sp
    3aea:	7958      	ldrb	r0, [r3, #5]
    3aec:	0540      	lsls	r0, r0, #21
    3aee:	791b      	ldrb	r3, [r3, #4]
    3af0:	041b      	lsls	r3, r3, #16
    3af2:	4318      	orrs	r0, r3
    3af4:	466b      	mov	r3, sp
    3af6:	789b      	ldrb	r3, [r3, #2]
    3af8:	02db      	lsls	r3, r3, #11
    3afa:	4318      	orrs	r0, r3
    3afc:	466b      	mov	r3, sp
    3afe:	785b      	ldrb	r3, [r3, #1]
    3b00:	015b      	lsls	r3, r3, #5
    3b02:	4318      	orrs	r0, r3
    3b04:	466b      	mov	r3, sp
    3b06:	781b      	ldrb	r3, [r3, #0]
    3b08:	085b      	lsrs	r3, r3, #1
    3b0a:	4318      	orrs	r0, r3
    3b0c:	466b      	mov	r3, sp
    3b0e:	88db      	ldrh	r3, [r3, #6]
    3b10:	4a05      	ldr	r2, [pc, #20]	; (3b28 <get_fattime+0x4c>)
    3b12:	4694      	mov	ip, r2
    3b14:	4463      	add	r3, ip
    3b16:	065b      	lsls	r3, r3, #25
    3b18:	4318      	orrs	r0, r3
    3b1a:	b003      	add	sp, #12
    3b1c:	bd00      	pop	{pc}
    3b1e:	46c0      	nop			; (mov r8, r8)
    3b20:	20000a40 	.word	0x20000a40
    3b24:	00001c65 	.word	0x00001c65
    3b28:	fffff844 	.word	0xfffff844

00003b2c <mem_cpy>:
    3b2c:	b510      	push	{r4, lr}
    3b2e:	2a00      	cmp	r2, #0
    3b30:	d005      	beq.n	3b3e <mem_cpy+0x12>
    3b32:	2300      	movs	r3, #0
    3b34:	5ccc      	ldrb	r4, [r1, r3]
    3b36:	54c4      	strb	r4, [r0, r3]
    3b38:	3301      	adds	r3, #1
    3b3a:	4293      	cmp	r3, r2
    3b3c:	d1fa      	bne.n	3b34 <mem_cpy+0x8>
    3b3e:	bd10      	pop	{r4, pc}

00003b40 <mem_set>:
    3b40:	2a00      	cmp	r2, #0
    3b42:	d005      	beq.n	3b50 <mem_set+0x10>
    3b44:	0003      	movs	r3, r0
    3b46:	1882      	adds	r2, r0, r2
    3b48:	7019      	strb	r1, [r3, #0]
    3b4a:	3301      	adds	r3, #1
    3b4c:	4293      	cmp	r3, r2
    3b4e:	d1fb      	bne.n	3b48 <mem_set+0x8>
    3b50:	4770      	bx	lr

00003b52 <clust2sect>:
    3b52:	0002      	movs	r2, r0
    3b54:	3902      	subs	r1, #2
    3b56:	6983      	ldr	r3, [r0, #24]
    3b58:	3b02      	subs	r3, #2
    3b5a:	2000      	movs	r0, #0
    3b5c:	4299      	cmp	r1, r3
    3b5e:	d203      	bcs.n	3b68 <clust2sect+0x16>
    3b60:	7890      	ldrb	r0, [r2, #2]
    3b62:	4341      	muls	r1, r0
    3b64:	6a90      	ldr	r0, [r2, #40]	; 0x28
    3b66:	1808      	adds	r0, r1, r0
    3b68:	4770      	bx	lr

00003b6a <sum_sfn>:
    3b6a:	0002      	movs	r2, r0
    3b6c:	0001      	movs	r1, r0
    3b6e:	310b      	adds	r1, #11
    3b70:	2000      	movs	r0, #0
    3b72:	0843      	lsrs	r3, r0, #1
    3b74:	01c0      	lsls	r0, r0, #7
    3b76:	4303      	orrs	r3, r0
    3b78:	7810      	ldrb	r0, [r2, #0]
    3b7a:	1818      	adds	r0, r3, r0
    3b7c:	b2c0      	uxtb	r0, r0
    3b7e:	3201      	adds	r2, #1
    3b80:	428a      	cmp	r2, r1
    3b82:	d1f6      	bne.n	3b72 <sum_sfn+0x8>
    3b84:	4770      	bx	lr
	...

00003b88 <validate>:
    3b88:	b510      	push	{r4, lr}
    3b8a:	2800      	cmp	r0, #0
    3b8c:	d010      	beq.n	3bb0 <validate+0x28>
    3b8e:	7802      	ldrb	r2, [r0, #0]
    3b90:	2309      	movs	r3, #9
    3b92:	2a00      	cmp	r2, #0
    3b94:	d101      	bne.n	3b9a <validate+0x12>
    3b96:	0018      	movs	r0, r3
    3b98:	bd10      	pop	{r4, pc}
    3b9a:	88c2      	ldrh	r2, [r0, #6]
    3b9c:	428a      	cmp	r2, r1
    3b9e:	d1fa      	bne.n	3b96 <validate+0xe>
    3ba0:	7840      	ldrb	r0, [r0, #1]
    3ba2:	4b04      	ldr	r3, [pc, #16]	; (3bb4 <validate+0x2c>)
    3ba4:	4798      	blx	r3
    3ba6:	2303      	movs	r3, #3
    3ba8:	07c0      	lsls	r0, r0, #31
    3baa:	17c0      	asrs	r0, r0, #31
    3bac:	4003      	ands	r3, r0
    3bae:	e7f2      	b.n	3b96 <validate+0xe>
    3bb0:	2309      	movs	r3, #9
    3bb2:	e7f0      	b.n	3b96 <validate+0xe>
    3bb4:	0000394d 	.word	0x0000394d

00003bb8 <check_fs>:
    3bb8:	b570      	push	{r4, r5, r6, lr}
    3bba:	0004      	movs	r4, r0
    3bbc:	000a      	movs	r2, r1
    3bbe:	0001      	movs	r1, r0
    3bc0:	3130      	adds	r1, #48	; 0x30
    3bc2:	7840      	ldrb	r0, [r0, #1]
    3bc4:	2301      	movs	r3, #1
    3bc6:	4d1f      	ldr	r5, [pc, #124]	; (3c44 <check_fs+0x8c>)
    3bc8:	47a8      	blx	r5
    3bca:	2303      	movs	r3, #3
    3bcc:	2800      	cmp	r0, #0
    3bce:	d001      	beq.n	3bd4 <check_fs+0x1c>
    3bd0:	0018      	movs	r0, r3
    3bd2:	bd70      	pop	{r4, r5, r6, pc}
    3bd4:	4b1c      	ldr	r3, [pc, #112]	; (3c48 <check_fs+0x90>)
    3bd6:	5ce3      	ldrb	r3, [r4, r3]
    3bd8:	021b      	lsls	r3, r3, #8
    3bda:	4a1c      	ldr	r2, [pc, #112]	; (3c4c <check_fs+0x94>)
    3bdc:	5ca2      	ldrb	r2, [r4, r2]
    3bde:	431a      	orrs	r2, r3
    3be0:	491b      	ldr	r1, [pc, #108]	; (3c50 <check_fs+0x98>)
    3be2:	b212      	sxth	r2, r2
    3be4:	2302      	movs	r3, #2
    3be6:	428a      	cmp	r2, r1
    3be8:	d1f2      	bne.n	3bd0 <check_fs+0x18>
    3bea:	3367      	adds	r3, #103	; 0x67
    3bec:	5ce3      	ldrb	r3, [r4, r3]
    3bee:	061b      	lsls	r3, r3, #24
    3bf0:	2268      	movs	r2, #104	; 0x68
    3bf2:	5ca2      	ldrb	r2, [r4, r2]
    3bf4:	0412      	lsls	r2, r2, #16
    3bf6:	4313      	orrs	r3, r2
    3bf8:	2266      	movs	r2, #102	; 0x66
    3bfa:	5ca2      	ldrb	r2, [r4, r2]
    3bfc:	4313      	orrs	r3, r2
    3bfe:	2267      	movs	r2, #103	; 0x67
    3c00:	5ca2      	ldrb	r2, [r4, r2]
    3c02:	0212      	lsls	r2, r2, #8
    3c04:	4313      	orrs	r3, r2
    3c06:	021b      	lsls	r3, r3, #8
    3c08:	0a1b      	lsrs	r3, r3, #8
    3c0a:	4a12      	ldr	r2, [pc, #72]	; (3c54 <check_fs+0x9c>)
    3c0c:	4293      	cmp	r3, r2
    3c0e:	d016      	beq.n	3c3e <check_fs+0x86>
    3c10:	2385      	movs	r3, #133	; 0x85
    3c12:	5ce3      	ldrb	r3, [r4, r3]
    3c14:	061b      	lsls	r3, r3, #24
    3c16:	2284      	movs	r2, #132	; 0x84
    3c18:	5ca2      	ldrb	r2, [r4, r2]
    3c1a:	0412      	lsls	r2, r2, #16
    3c1c:	4313      	orrs	r3, r2
    3c1e:	2282      	movs	r2, #130	; 0x82
    3c20:	5ca2      	ldrb	r2, [r4, r2]
    3c22:	4313      	orrs	r3, r2
    3c24:	2283      	movs	r2, #131	; 0x83
    3c26:	5ca2      	ldrb	r2, [r4, r2]
    3c28:	0212      	lsls	r2, r2, #8
    3c2a:	4313      	orrs	r3, r2
    3c2c:	021b      	lsls	r3, r3, #8
    3c2e:	0a1b      	lsrs	r3, r3, #8
    3c30:	4a09      	ldr	r2, [pc, #36]	; (3c58 <check_fs+0xa0>)
    3c32:	4694      	mov	ip, r2
    3c34:	4463      	add	r3, ip
    3c36:	1e58      	subs	r0, r3, #1
    3c38:	4183      	sbcs	r3, r0
    3c3a:	b2db      	uxtb	r3, r3
    3c3c:	e7c8      	b.n	3bd0 <check_fs+0x18>
    3c3e:	2300      	movs	r3, #0
    3c40:	e7c6      	b.n	3bd0 <check_fs+0x18>
    3c42:	46c0      	nop			; (mov r8, r8)
    3c44:	00003969 	.word	0x00003969
    3c48:	0000022f 	.word	0x0000022f
    3c4c:	0000022e 	.word	0x0000022e
    3c50:	ffffaa55 	.word	0xffffaa55
    3c54:	00544146 	.word	0x00544146
    3c58:	ffabbeba 	.word	0xffabbeba

00003c5c <chk_mounted>:
    3c5c:	b5f0      	push	{r4, r5, r6, r7, lr}
    3c5e:	46d6      	mov	lr, sl
    3c60:	464f      	mov	r7, r9
    3c62:	4646      	mov	r6, r8
    3c64:	b5c0      	push	{r6, r7, lr}
    3c66:	0015      	movs	r5, r2
    3c68:	6803      	ldr	r3, [r0, #0]
    3c6a:	781c      	ldrb	r4, [r3, #0]
    3c6c:	3c30      	subs	r4, #48	; 0x30
    3c6e:	2c09      	cmp	r4, #9
    3c70:	d80e      	bhi.n	3c90 <chk_mounted+0x34>
    3c72:	785a      	ldrb	r2, [r3, #1]
    3c74:	2a3a      	cmp	r2, #58	; 0x3a
    3c76:	d001      	beq.n	3c7c <chk_mounted+0x20>
    3c78:	2400      	movs	r4, #0
    3c7a:	e00a      	b.n	3c92 <chk_mounted+0x36>
    3c7c:	3302      	adds	r3, #2
    3c7e:	6003      	str	r3, [r0, #0]
    3c80:	200b      	movs	r0, #11
    3c82:	2c07      	cmp	r4, #7
    3c84:	d905      	bls.n	3c92 <chk_mounted+0x36>
    3c86:	bc1c      	pop	{r2, r3, r4}
    3c88:	4690      	mov	r8, r2
    3c8a:	4699      	mov	r9, r3
    3c8c:	46a2      	mov	sl, r4
    3c8e:	bdf0      	pop	{r4, r5, r6, r7, pc}
    3c90:	2400      	movs	r4, #0
    3c92:	00a3      	lsls	r3, r4, #2
    3c94:	4ac5      	ldr	r2, [pc, #788]	; (3fac <chk_mounted+0x350>)
    3c96:	589e      	ldr	r6, [r3, r2]
    3c98:	600e      	str	r6, [r1, #0]
    3c9a:	2e00      	cmp	r6, #0
    3c9c:	d100      	bne.n	3ca0 <chk_mounted+0x44>
    3c9e:	e0e8      	b.n	3e72 <chk_mounted+0x216>
    3ca0:	7833      	ldrb	r3, [r6, #0]
    3ca2:	2b00      	cmp	r3, #0
    3ca4:	d00d      	beq.n	3cc2 <chk_mounted+0x66>
    3ca6:	7870      	ldrb	r0, [r6, #1]
    3ca8:	4bc1      	ldr	r3, [pc, #772]	; (3fb0 <chk_mounted+0x354>)
    3caa:	4798      	blx	r3
    3cac:	0003      	movs	r3, r0
    3cae:	07c2      	lsls	r2, r0, #31
    3cb0:	d407      	bmi.n	3cc2 <chk_mounted+0x66>
    3cb2:	2000      	movs	r0, #0
    3cb4:	2d00      	cmp	r5, #0
    3cb6:	d0e6      	beq.n	3c86 <chk_mounted+0x2a>
    3cb8:	075b      	lsls	r3, r3, #29
    3cba:	d400      	bmi.n	3cbe <chk_mounted+0x62>
    3cbc:	e0db      	b.n	3e76 <chk_mounted+0x21a>
    3cbe:	300a      	adds	r0, #10
    3cc0:	e7e1      	b.n	3c86 <chk_mounted+0x2a>
    3cc2:	2300      	movs	r3, #0
    3cc4:	7033      	strb	r3, [r6, #0]
    3cc6:	b2e0      	uxtb	r0, r4
    3cc8:	7070      	strb	r0, [r6, #1]
    3cca:	4bba      	ldr	r3, [pc, #744]	; (3fb4 <chk_mounted+0x358>)
    3ccc:	4798      	blx	r3
    3cce:	0003      	movs	r3, r0
    3cd0:	2003      	movs	r0, #3
    3cd2:	07da      	lsls	r2, r3, #31
    3cd4:	d4d7      	bmi.n	3c86 <chk_mounted+0x2a>
    3cd6:	2d00      	cmp	r5, #0
    3cd8:	d002      	beq.n	3ce0 <chk_mounted+0x84>
    3cda:	3007      	adds	r0, #7
    3cdc:	075b      	lsls	r3, r3, #29
    3cde:	d4d2      	bmi.n	3c86 <chk_mounted+0x2a>
    3ce0:	2100      	movs	r1, #0
    3ce2:	0030      	movs	r0, r6
    3ce4:	4bb4      	ldr	r3, [pc, #720]	; (3fb8 <chk_mounted+0x35c>)
    3ce6:	4798      	blx	r3
    3ce8:	0003      	movs	r3, r0
    3cea:	2400      	movs	r4, #0
    3cec:	2801      	cmp	r0, #1
    3cee:	d100      	bne.n	3cf2 <chk_mounted+0x96>
    3cf0:	e09a      	b.n	3e28 <chk_mounted+0x1cc>
    3cf2:	2b03      	cmp	r3, #3
    3cf4:	d100      	bne.n	3cf8 <chk_mounted+0x9c>
    3cf6:	e0c0      	b.n	3e7a <chk_mounted+0x21e>
    3cf8:	200d      	movs	r0, #13
    3cfa:	2b00      	cmp	r3, #0
    3cfc:	d1c3      	bne.n	3c86 <chk_mounted+0x2a>
    3cfe:	333c      	adds	r3, #60	; 0x3c
    3d00:	5cf2      	ldrb	r2, [r6, r3]
    3d02:	0212      	lsls	r2, r2, #8
    3d04:	3b01      	subs	r3, #1
    3d06:	5cf3      	ldrb	r3, [r6, r3]
    3d08:	4313      	orrs	r3, r2
    3d0a:	2280      	movs	r2, #128	; 0x80
    3d0c:	0092      	lsls	r2, r2, #2
    3d0e:	b21b      	sxth	r3, r3
    3d10:	4293      	cmp	r3, r2
    3d12:	d1b8      	bne.n	3c86 <chk_mounted+0x2a>
    3d14:	2347      	movs	r3, #71	; 0x47
    3d16:	5cf3      	ldrb	r3, [r6, r3]
    3d18:	021b      	lsls	r3, r3, #8
    3d1a:	3abb      	subs	r2, #187	; 0xbb
    3d1c:	3aff      	subs	r2, #255	; 0xff
    3d1e:	5cb5      	ldrb	r5, [r6, r2]
    3d20:	431d      	orrs	r5, r3
    3d22:	d10d      	bne.n	3d40 <chk_mounted+0xe4>
    3d24:	2357      	movs	r3, #87	; 0x57
    3d26:	5cf5      	ldrb	r5, [r6, r3]
    3d28:	062d      	lsls	r5, r5, #24
    3d2a:	3b01      	subs	r3, #1
    3d2c:	5cf3      	ldrb	r3, [r6, r3]
    3d2e:	041b      	lsls	r3, r3, #16
    3d30:	431d      	orrs	r5, r3
    3d32:	2354      	movs	r3, #84	; 0x54
    3d34:	5cf3      	ldrb	r3, [r6, r3]
    3d36:	431d      	orrs	r5, r3
    3d38:	2355      	movs	r3, #85	; 0x55
    3d3a:	5cf3      	ldrb	r3, [r6, r3]
    3d3c:	021b      	lsls	r3, r3, #8
    3d3e:	431d      	orrs	r5, r3
    3d40:	61f5      	str	r5, [r6, #28]
    3d42:	2340      	movs	r3, #64	; 0x40
    3d44:	5cf2      	ldrb	r2, [r6, r3]
    3d46:	70f2      	strb	r2, [r6, #3]
    3d48:	1e53      	subs	r3, r2, #1
    3d4a:	200d      	movs	r0, #13
    3d4c:	2b01      	cmp	r3, #1
    3d4e:	d89a      	bhi.n	3c86 <chk_mounted+0x2a>
    3d50:	233d      	movs	r3, #61	; 0x3d
    3d52:	5cf1      	ldrb	r1, [r6, r3]
    3d54:	70b1      	strb	r1, [r6, #2]
    3d56:	2900      	cmp	r1, #0
    3d58:	d095      	beq.n	3c86 <chk_mounted+0x2a>
    3d5a:	1e4b      	subs	r3, r1, #1
    3d5c:	4219      	tst	r1, r3
    3d5e:	d192      	bne.n	3c86 <chk_mounted+0x2a>
    3d60:	2342      	movs	r3, #66	; 0x42
    3d62:	5cf3      	ldrb	r3, [r6, r3]
    3d64:	021b      	lsls	r3, r3, #8
    3d66:	3034      	adds	r0, #52	; 0x34
    3d68:	5c30      	ldrb	r0, [r6, r0]
    3d6a:	4318      	orrs	r0, r3
    3d6c:	4680      	mov	r8, r0
    3d6e:	8130      	strh	r0, [r6, #8]
    3d70:	200d      	movs	r0, #13
    3d72:	4643      	mov	r3, r8
    3d74:	071b      	lsls	r3, r3, #28
    3d76:	d000      	beq.n	3d7a <chk_mounted+0x11e>
    3d78:	e785      	b.n	3c86 <chk_mounted+0x2a>
    3d7a:	2344      	movs	r3, #68	; 0x44
    3d7c:	5cf3      	ldrb	r3, [r6, r3]
    3d7e:	021b      	lsls	r3, r3, #8
    3d80:	3036      	adds	r0, #54	; 0x36
    3d82:	5c30      	ldrb	r0, [r6, r0]
    3d84:	4303      	orrs	r3, r0
    3d86:	d10d      	bne.n	3da4 <chk_mounted+0x148>
    3d88:	3353      	adds	r3, #83	; 0x53
    3d8a:	5cf3      	ldrb	r3, [r6, r3]
    3d8c:	061b      	lsls	r3, r3, #24
    3d8e:	2052      	movs	r0, #82	; 0x52
    3d90:	5c30      	ldrb	r0, [r6, r0]
    3d92:	0400      	lsls	r0, r0, #16
    3d94:	4303      	orrs	r3, r0
    3d96:	2050      	movs	r0, #80	; 0x50
    3d98:	5c30      	ldrb	r0, [r6, r0]
    3d9a:	4303      	orrs	r3, r0
    3d9c:	2051      	movs	r0, #81	; 0x51
    3d9e:	5c30      	ldrb	r0, [r6, r0]
    3da0:	0200      	lsls	r0, r0, #8
    3da2:	4303      	orrs	r3, r0
    3da4:	203f      	movs	r0, #63	; 0x3f
    3da6:	5c30      	ldrb	r0, [r6, r0]
    3da8:	0200      	lsls	r0, r0, #8
    3daa:	273e      	movs	r7, #62	; 0x3e
    3dac:	5df7      	ldrb	r7, [r6, r7]
    3dae:	4307      	orrs	r7, r0
    3db0:	46ba      	mov	sl, r7
    3db2:	200d      	movs	r0, #13
    3db4:	2f00      	cmp	r7, #0
    3db6:	d100      	bne.n	3dba <chk_mounted+0x15e>
    3db8:	e765      	b.n	3c86 <chk_mounted+0x2a>
    3dba:	436a      	muls	r2, r5
    3dbc:	4691      	mov	r9, r2
    3dbe:	4642      	mov	r2, r8
    3dc0:	0917      	lsrs	r7, r2, #4
    3dc2:	4457      	add	r7, sl
    3dc4:	444f      	add	r7, r9
    3dc6:	42bb      	cmp	r3, r7
    3dc8:	d200      	bcs.n	3dcc <chk_mounted+0x170>
    3dca:	e75c      	b.n	3c86 <chk_mounted+0x2a>
    3dcc:	1bd8      	subs	r0, r3, r7
    3dce:	4b7b      	ldr	r3, [pc, #492]	; (3fbc <chk_mounted+0x360>)
    3dd0:	4798      	blx	r3
    3dd2:	0003      	movs	r3, r0
    3dd4:	200d      	movs	r0, #13
    3dd6:	2b00      	cmp	r3, #0
    3dd8:	d100      	bne.n	3ddc <chk_mounted+0x180>
    3dda:	e754      	b.n	3c86 <chk_mounted+0x2a>
    3ddc:	4a78      	ldr	r2, [pc, #480]	; (3fc0 <chk_mounted+0x364>)
    3dde:	429a      	cmp	r2, r3
    3de0:	4192      	sbcs	r2, r2
    3de2:	4252      	negs	r2, r2
    3de4:	3201      	adds	r2, #1
    3de6:	4977      	ldr	r1, [pc, #476]	; (3fc4 <chk_mounted+0x368>)
    3de8:	428b      	cmp	r3, r1
    3dea:	d848      	bhi.n	3e7e <chk_mounted+0x222>
    3dec:	3302      	adds	r3, #2
    3dee:	61b3      	str	r3, [r6, #24]
    3df0:	19e7      	adds	r7, r4, r7
    3df2:	62b7      	str	r7, [r6, #40]	; 0x28
    3df4:	4454      	add	r4, sl
    3df6:	6234      	str	r4, [r6, #32]
    3df8:	200d      	movs	r0, #13
    3dfa:	4641      	mov	r1, r8
    3dfc:	2900      	cmp	r1, #0
    3dfe:	d100      	bne.n	3e02 <chk_mounted+0x1a6>
    3e00:	e741      	b.n	3c86 <chk_mounted+0x2a>
    3e02:	444c      	add	r4, r9
    3e04:	6274      	str	r4, [r6, #36]	; 0x24
    3e06:	2a02      	cmp	r2, #2
    3e08:	d12c      	bne.n	3e64 <chk_mounted+0x208>
    3e0a:	005b      	lsls	r3, r3, #1
    3e0c:	496e      	ldr	r1, [pc, #440]	; (3fc8 <chk_mounted+0x36c>)
    3e0e:	468c      	mov	ip, r1
    3e10:	4463      	add	r3, ip
    3e12:	0a5b      	lsrs	r3, r3, #9
    3e14:	200d      	movs	r0, #13
    3e16:	429d      	cmp	r5, r3
    3e18:	d200      	bcs.n	3e1c <chk_mounted+0x1c0>
    3e1a:	e734      	b.n	3c86 <chk_mounted+0x2a>
    3e1c:	2301      	movs	r3, #1
    3e1e:	425b      	negs	r3, r3
    3e20:	6133      	str	r3, [r6, #16]
    3e22:	2300      	movs	r3, #0
    3e24:	60f3      	str	r3, [r6, #12]
    3e26:	e0b6      	b.n	3f96 <chk_mounted+0x33a>
    3e28:	33f2      	adds	r3, #242	; 0xf2
    3e2a:	33ff      	adds	r3, #255	; 0xff
    3e2c:	5cf3      	ldrb	r3, [r6, r3]
    3e2e:	200d      	movs	r0, #13
    3e30:	2b00      	cmp	r3, #0
    3e32:	d100      	bne.n	3e36 <chk_mounted+0x1da>
    3e34:	e727      	b.n	3c86 <chk_mounted+0x2a>
    3e36:	23fa      	movs	r3, #250	; 0xfa
    3e38:	33ff      	adds	r3, #255	; 0xff
    3e3a:	5cf4      	ldrb	r4, [r6, r3]
    3e3c:	0624      	lsls	r4, r4, #24
    3e3e:	3b01      	subs	r3, #1
    3e40:	5cf3      	ldrb	r3, [r6, r3]
    3e42:	041b      	lsls	r3, r3, #16
    3e44:	431c      	orrs	r4, r3
    3e46:	23fb      	movs	r3, #251	; 0xfb
    3e48:	005b      	lsls	r3, r3, #1
    3e4a:	5cf3      	ldrb	r3, [r6, r3]
    3e4c:	431c      	orrs	r4, r3
    3e4e:	23f8      	movs	r3, #248	; 0xf8
    3e50:	33ff      	adds	r3, #255	; 0xff
    3e52:	5cf2      	ldrb	r2, [r6, r3]
    3e54:	0212      	lsls	r2, r2, #8
    3e56:	4314      	orrs	r4, r2
    3e58:	0021      	movs	r1, r4
    3e5a:	0030      	movs	r0, r6
    3e5c:	4b56      	ldr	r3, [pc, #344]	; (3fb8 <chk_mounted+0x35c>)
    3e5e:	4798      	blx	r3
    3e60:	0003      	movs	r3, r0
    3e62:	e746      	b.n	3cf2 <chk_mounted+0x96>
    3e64:	2103      	movs	r1, #3
    3e66:	4359      	muls	r1, r3
    3e68:	0849      	lsrs	r1, r1, #1
    3e6a:	2001      	movs	r0, #1
    3e6c:	4003      	ands	r3, r0
    3e6e:	18cb      	adds	r3, r1, r3
    3e70:	e7cc      	b.n	3e0c <chk_mounted+0x1b0>
    3e72:	200c      	movs	r0, #12
    3e74:	e707      	b.n	3c86 <chk_mounted+0x2a>
    3e76:	2000      	movs	r0, #0
    3e78:	e705      	b.n	3c86 <chk_mounted+0x2a>
    3e7a:	2001      	movs	r0, #1
    3e7c:	e703      	b.n	3c86 <chk_mounted+0x2a>
    3e7e:	3302      	adds	r3, #2
    3e80:	61b3      	str	r3, [r6, #24]
    3e82:	19e7      	adds	r7, r4, r7
    3e84:	62b7      	str	r7, [r6, #40]	; 0x28
    3e86:	4652      	mov	r2, sl
    3e88:	18a2      	adds	r2, r4, r2
    3e8a:	6232      	str	r2, [r6, #32]
    3e8c:	200d      	movs	r0, #13
    3e8e:	4642      	mov	r2, r8
    3e90:	2a00      	cmp	r2, #0
    3e92:	d000      	beq.n	3e96 <chk_mounted+0x23a>
    3e94:	e6f7      	b.n	3c86 <chk_mounted+0x2a>
    3e96:	225f      	movs	r2, #95	; 0x5f
    3e98:	5cb2      	ldrb	r2, [r6, r2]
    3e9a:	0612      	lsls	r2, r2, #24
    3e9c:	215e      	movs	r1, #94	; 0x5e
    3e9e:	5c71      	ldrb	r1, [r6, r1]
    3ea0:	0409      	lsls	r1, r1, #16
    3ea2:	430a      	orrs	r2, r1
    3ea4:	215c      	movs	r1, #92	; 0x5c
    3ea6:	5c71      	ldrb	r1, [r6, r1]
    3ea8:	430a      	orrs	r2, r1
    3eaa:	215d      	movs	r1, #93	; 0x5d
    3eac:	5c71      	ldrb	r1, [r6, r1]
    3eae:	0209      	lsls	r1, r1, #8
    3eb0:	430a      	orrs	r2, r1
    3eb2:	6272      	str	r2, [r6, #36]	; 0x24
    3eb4:	009b      	lsls	r3, r3, #2
    3eb6:	4a44      	ldr	r2, [pc, #272]	; (3fc8 <chk_mounted+0x36c>)
    3eb8:	4694      	mov	ip, r2
    3eba:	4463      	add	r3, ip
    3ebc:	0a5b      	lsrs	r3, r3, #9
    3ebe:	200d      	movs	r0, #13
    3ec0:	429d      	cmp	r5, r3
    3ec2:	d200      	bcs.n	3ec6 <chk_mounted+0x26a>
    3ec4:	e6df      	b.n	3c86 <chk_mounted+0x2a>
    3ec6:	2301      	movs	r3, #1
    3ec8:	425b      	negs	r3, r3
    3eca:	6133      	str	r3, [r6, #16]
    3ecc:	2300      	movs	r3, #0
    3ece:	60f3      	str	r3, [r6, #12]
    3ed0:	7173      	strb	r3, [r6, #5]
    3ed2:	3361      	adds	r3, #97	; 0x61
    3ed4:	5cf3      	ldrb	r3, [r6, r3]
    3ed6:	021b      	lsls	r3, r3, #8
    3ed8:	2260      	movs	r2, #96	; 0x60
    3eda:	5cb2      	ldrb	r2, [r6, r2]
    3edc:	431a      	orrs	r2, r3
    3ede:	1912      	adds	r2, r2, r4
    3ee0:	6172      	str	r2, [r6, #20]
    3ee2:	0031      	movs	r1, r6
    3ee4:	3130      	adds	r1, #48	; 0x30
    3ee6:	7870      	ldrb	r0, [r6, #1]
    3ee8:	2301      	movs	r3, #1
    3eea:	4c38      	ldr	r4, [pc, #224]	; (3fcc <chk_mounted+0x370>)
    3eec:	47a0      	blx	r4
    3eee:	2203      	movs	r2, #3
    3ef0:	2800      	cmp	r0, #0
    3ef2:	d150      	bne.n	3f96 <chk_mounted+0x33a>
    3ef4:	4b36      	ldr	r3, [pc, #216]	; (3fd0 <chk_mounted+0x374>)
    3ef6:	5cf2      	ldrb	r2, [r6, r3]
    3ef8:	0212      	lsls	r2, r2, #8
    3efa:	4b36      	ldr	r3, [pc, #216]	; (3fd4 <chk_mounted+0x378>)
    3efc:	5cf3      	ldrb	r3, [r6, r3]
    3efe:	4313      	orrs	r3, r2
    3f00:	4935      	ldr	r1, [pc, #212]	; (3fd8 <chk_mounted+0x37c>)
    3f02:	b21b      	sxth	r3, r3
    3f04:	2203      	movs	r2, #3
    3f06:	428b      	cmp	r3, r1
    3f08:	d145      	bne.n	3f96 <chk_mounted+0x33a>
    3f0a:	2333      	movs	r3, #51	; 0x33
    3f0c:	5cf3      	ldrb	r3, [r6, r3]
    3f0e:	061b      	lsls	r3, r3, #24
    3f10:	322f      	adds	r2, #47	; 0x2f
    3f12:	5cb2      	ldrb	r2, [r6, r2]
    3f14:	0412      	lsls	r2, r2, #16
    3f16:	4313      	orrs	r3, r2
    3f18:	2230      	movs	r2, #48	; 0x30
    3f1a:	5cb2      	ldrb	r2, [r6, r2]
    3f1c:	4313      	orrs	r3, r2
    3f1e:	2231      	movs	r2, #49	; 0x31
    3f20:	5cb2      	ldrb	r2, [r6, r2]
    3f22:	0212      	lsls	r2, r2, #8
    3f24:	4313      	orrs	r3, r2
    3f26:	492d      	ldr	r1, [pc, #180]	; (3fdc <chk_mounted+0x380>)
    3f28:	2203      	movs	r2, #3
    3f2a:	428b      	cmp	r3, r1
    3f2c:	d133      	bne.n	3f96 <chk_mounted+0x33a>
    3f2e:	4b2c      	ldr	r3, [pc, #176]	; (3fe0 <chk_mounted+0x384>)
    3f30:	5cf3      	ldrb	r3, [r6, r3]
    3f32:	061b      	lsls	r3, r3, #24
    3f34:	4a2b      	ldr	r2, [pc, #172]	; (3fe4 <chk_mounted+0x388>)
    3f36:	5cb2      	ldrb	r2, [r6, r2]
    3f38:	0412      	lsls	r2, r2, #16
    3f3a:	4313      	orrs	r3, r2
    3f3c:	2285      	movs	r2, #133	; 0x85
    3f3e:	0092      	lsls	r2, r2, #2
    3f40:	5cb2      	ldrb	r2, [r6, r2]
    3f42:	4313      	orrs	r3, r2
    3f44:	4a28      	ldr	r2, [pc, #160]	; (3fe8 <chk_mounted+0x38c>)
    3f46:	5cb2      	ldrb	r2, [r6, r2]
    3f48:	0212      	lsls	r2, r2, #8
    3f4a:	4313      	orrs	r3, r2
    3f4c:	4927      	ldr	r1, [pc, #156]	; (3fec <chk_mounted+0x390>)
    3f4e:	2203      	movs	r2, #3
    3f50:	428b      	cmp	r3, r1
    3f52:	d120      	bne.n	3f96 <chk_mounted+0x33a>
    3f54:	4b26      	ldr	r3, [pc, #152]	; (3ff0 <chk_mounted+0x394>)
    3f56:	5cf3      	ldrb	r3, [r6, r3]
    3f58:	061b      	lsls	r3, r3, #24
    3f5a:	4a26      	ldr	r2, [pc, #152]	; (3ff4 <chk_mounted+0x398>)
    3f5c:	5cb2      	ldrb	r2, [r6, r2]
    3f5e:	0412      	lsls	r2, r2, #16
    3f60:	4313      	orrs	r3, r2
    3f62:	2287      	movs	r2, #135	; 0x87
    3f64:	0092      	lsls	r2, r2, #2
    3f66:	5cb2      	ldrb	r2, [r6, r2]
    3f68:	4313      	orrs	r3, r2
    3f6a:	4a23      	ldr	r2, [pc, #140]	; (3ff8 <chk_mounted+0x39c>)
    3f6c:	5cb2      	ldrb	r2, [r6, r2]
    3f6e:	0212      	lsls	r2, r2, #8
    3f70:	4313      	orrs	r3, r2
    3f72:	60f3      	str	r3, [r6, #12]
    3f74:	4b21      	ldr	r3, [pc, #132]	; (3ffc <chk_mounted+0x3a0>)
    3f76:	5cf3      	ldrb	r3, [r6, r3]
    3f78:	061b      	lsls	r3, r3, #24
    3f7a:	4a21      	ldr	r2, [pc, #132]	; (4000 <chk_mounted+0x3a4>)
    3f7c:	5cb2      	ldrb	r2, [r6, r2]
    3f7e:	0412      	lsls	r2, r2, #16
    3f80:	4313      	orrs	r3, r2
    3f82:	2286      	movs	r2, #134	; 0x86
    3f84:	0092      	lsls	r2, r2, #2
    3f86:	5cb2      	ldrb	r2, [r6, r2]
    3f88:	4313      	orrs	r3, r2
    3f8a:	4a1e      	ldr	r2, [pc, #120]	; (4004 <chk_mounted+0x3a8>)
    3f8c:	5cb2      	ldrb	r2, [r6, r2]
    3f8e:	0212      	lsls	r2, r2, #8
    3f90:	4313      	orrs	r3, r2
    3f92:	6133      	str	r3, [r6, #16]
    3f94:	2203      	movs	r2, #3
    3f96:	7032      	strb	r2, [r6, #0]
    3f98:	4a1b      	ldr	r2, [pc, #108]	; (4008 <chk_mounted+0x3ac>)
    3f9a:	8813      	ldrh	r3, [r2, #0]
    3f9c:	3301      	adds	r3, #1
    3f9e:	b29b      	uxth	r3, r3
    3fa0:	8013      	strh	r3, [r2, #0]
    3fa2:	80f3      	strh	r3, [r6, #6]
    3fa4:	2000      	movs	r0, #0
    3fa6:	62f0      	str	r0, [r6, #44]	; 0x2c
    3fa8:	7130      	strb	r0, [r6, #4]
    3faa:	e66c      	b.n	3c86 <chk_mounted+0x2a>
    3fac:	200001a4 	.word	0x200001a4
    3fb0:	0000394d 	.word	0x0000394d
    3fb4:	000038b1 	.word	0x000038b1
    3fb8:	00003bb9 	.word	0x00003bb9
    3fbc:	00005ac9 	.word	0x00005ac9
    3fc0:	00000ff5 	.word	0x00000ff5
    3fc4:	0000fff5 	.word	0x0000fff5
    3fc8:	000001ff 	.word	0x000001ff
    3fcc:	00003969 	.word	0x00003969
    3fd0:	0000022f 	.word	0x0000022f
    3fd4:	0000022e 	.word	0x0000022e
    3fd8:	ffffaa55 	.word	0xffffaa55
    3fdc:	41615252 	.word	0x41615252
    3fe0:	00000217 	.word	0x00000217
    3fe4:	00000216 	.word	0x00000216
    3fe8:	00000215 	.word	0x00000215
    3fec:	61417272 	.word	0x61417272
    3ff0:	0000021f 	.word	0x0000021f
    3ff4:	0000021e 	.word	0x0000021e
    3ff8:	0000021d 	.word	0x0000021d
    3ffc:	0000021b 	.word	0x0000021b
    4000:	0000021a 	.word	0x0000021a
    4004:	00000219 	.word	0x00000219
    4008:	200001c4 	.word	0x200001c4

0000400c <move_window>:
    400c:	b5f0      	push	{r4, r5, r6, r7, lr}
    400e:	46ce      	mov	lr, r9
    4010:	b500      	push	{lr}
    4012:	b082      	sub	sp, #8
    4014:	0004      	movs	r4, r0
    4016:	000f      	movs	r7, r1
    4018:	6ac5      	ldr	r5, [r0, #44]	; 0x2c
    401a:	428d      	cmp	r5, r1
    401c:	d03f      	beq.n	409e <move_window+0x92>
    401e:	7903      	ldrb	r3, [r0, #4]
    4020:	2b00      	cmp	r3, #0
    4022:	d107      	bne.n	4034 <move_window+0x28>
    4024:	2300      	movs	r3, #0
    4026:	2f00      	cmp	r7, #0
    4028:	d12c      	bne.n	4084 <move_window+0x78>
    402a:	0018      	movs	r0, r3
    402c:	b002      	add	sp, #8
    402e:	bc04      	pop	{r2}
    4030:	4691      	mov	r9, r2
    4032:	bdf0      	pop	{r4, r5, r6, r7, pc}
    4034:	2330      	movs	r3, #48	; 0x30
    4036:	469c      	mov	ip, r3
    4038:	4484      	add	ip, r0
    403a:	4663      	mov	r3, ip
    403c:	4661      	mov	r1, ip
    403e:	9301      	str	r3, [sp, #4]
    4040:	7840      	ldrb	r0, [r0, #1]
    4042:	2301      	movs	r3, #1
    4044:	002a      	movs	r2, r5
    4046:	4e17      	ldr	r6, [pc, #92]	; (40a4 <move_window+0x98>)
    4048:	47b0      	blx	r6
    404a:	2301      	movs	r3, #1
    404c:	2800      	cmp	r0, #0
    404e:	d1ec      	bne.n	402a <move_window+0x1e>
    4050:	2300      	movs	r3, #0
    4052:	7123      	strb	r3, [r4, #4]
    4054:	6a23      	ldr	r3, [r4, #32]
    4056:	69e2      	ldr	r2, [r4, #28]
    4058:	4694      	mov	ip, r2
    405a:	4463      	add	r3, ip
    405c:	429d      	cmp	r5, r3
    405e:	d2e1      	bcs.n	4024 <move_window+0x18>
    4060:	78e6      	ldrb	r6, [r4, #3]
    4062:	2e01      	cmp	r6, #1
    4064:	d9de      	bls.n	4024 <move_window+0x18>
    4066:	4b0f      	ldr	r3, [pc, #60]	; (40a4 <move_window+0x98>)
    4068:	4699      	mov	r9, r3
    406a:	69e3      	ldr	r3, [r4, #28]
    406c:	469c      	mov	ip, r3
    406e:	4465      	add	r5, ip
    4070:	7860      	ldrb	r0, [r4, #1]
    4072:	2301      	movs	r3, #1
    4074:	002a      	movs	r2, r5
    4076:	9901      	ldr	r1, [sp, #4]
    4078:	47c8      	blx	r9
    407a:	3e01      	subs	r6, #1
    407c:	b2f6      	uxtb	r6, r6
    407e:	2e01      	cmp	r6, #1
    4080:	d1f3      	bne.n	406a <move_window+0x5e>
    4082:	e7cf      	b.n	4024 <move_window+0x18>
    4084:	0021      	movs	r1, r4
    4086:	3130      	adds	r1, #48	; 0x30
    4088:	7860      	ldrb	r0, [r4, #1]
    408a:	3301      	adds	r3, #1
    408c:	003a      	movs	r2, r7
    408e:	4d06      	ldr	r5, [pc, #24]	; (40a8 <move_window+0x9c>)
    4090:	47a8      	blx	r5
    4092:	2301      	movs	r3, #1
    4094:	2800      	cmp	r0, #0
    4096:	d1c8      	bne.n	402a <move_window+0x1e>
    4098:	62e7      	str	r7, [r4, #44]	; 0x2c
    409a:	2300      	movs	r3, #0
    409c:	e7c5      	b.n	402a <move_window+0x1e>
    409e:	2300      	movs	r3, #0
    40a0:	e7c3      	b.n	402a <move_window+0x1e>
    40a2:	46c0      	nop			; (mov r8, r8)
    40a4:	000039ed 	.word	0x000039ed
    40a8:	00003969 	.word	0x00003969

000040ac <get_fat>:
    40ac:	b5f8      	push	{r3, r4, r5, r6, r7, lr}
    40ae:	0005      	movs	r5, r0
    40b0:	000c      	movs	r4, r1
    40b2:	2901      	cmp	r1, #1
    40b4:	d974      	bls.n	41a0 <get_fat+0xf4>
    40b6:	2001      	movs	r0, #1
    40b8:	69ab      	ldr	r3, [r5, #24]
    40ba:	4299      	cmp	r1, r3
    40bc:	d271      	bcs.n	41a2 <get_fat+0xf6>
    40be:	782b      	ldrb	r3, [r5, #0]
    40c0:	2b02      	cmp	r3, #2
    40c2:	d034      	beq.n	412e <get_fat+0x82>
    40c4:	2b03      	cmp	r3, #3
    40c6:	d049      	beq.n	415c <get_fat+0xb0>
    40c8:	2b01      	cmp	r3, #1
    40ca:	d002      	beq.n	40d2 <get_fat+0x26>
    40cc:	2001      	movs	r0, #1
    40ce:	4240      	negs	r0, r0
    40d0:	e067      	b.n	41a2 <get_fat+0xf6>
    40d2:	084e      	lsrs	r6, r1, #1
    40d4:	1876      	adds	r6, r6, r1
    40d6:	0a71      	lsrs	r1, r6, #9
    40d8:	6a2b      	ldr	r3, [r5, #32]
    40da:	469c      	mov	ip, r3
    40dc:	4461      	add	r1, ip
    40de:	0028      	movs	r0, r5
    40e0:	4b30      	ldr	r3, [pc, #192]	; (41a4 <get_fat+0xf8>)
    40e2:	4798      	blx	r3
    40e4:	2800      	cmp	r0, #0
    40e6:	d002      	beq.n	40ee <get_fat+0x42>
    40e8:	2001      	movs	r0, #1
    40ea:	4240      	negs	r0, r0
    40ec:	e059      	b.n	41a2 <get_fat+0xf6>
    40ee:	05f3      	lsls	r3, r6, #23
    40f0:	0ddb      	lsrs	r3, r3, #23
    40f2:	18eb      	adds	r3, r5, r3
    40f4:	3330      	adds	r3, #48	; 0x30
    40f6:	781f      	ldrb	r7, [r3, #0]
    40f8:	3601      	adds	r6, #1
    40fa:	0a71      	lsrs	r1, r6, #9
    40fc:	6a2b      	ldr	r3, [r5, #32]
    40fe:	469c      	mov	ip, r3
    4100:	4461      	add	r1, ip
    4102:	0028      	movs	r0, r5
    4104:	4b27      	ldr	r3, [pc, #156]	; (41a4 <get_fat+0xf8>)
    4106:	4798      	blx	r3
    4108:	2800      	cmp	r0, #0
    410a:	d002      	beq.n	4112 <get_fat+0x66>
    410c:	2001      	movs	r0, #1
    410e:	4240      	negs	r0, r0
    4110:	e047      	b.n	41a2 <get_fat+0xf6>
    4112:	05f6      	lsls	r6, r6, #23
    4114:	0df6      	lsrs	r6, r6, #23
    4116:	19ad      	adds	r5, r5, r6
    4118:	3530      	adds	r5, #48	; 0x30
    411a:	7828      	ldrb	r0, [r5, #0]
    411c:	0200      	lsls	r0, r0, #8
    411e:	4338      	orrs	r0, r7
    4120:	07e3      	lsls	r3, r4, #31
    4122:	d501      	bpl.n	4128 <get_fat+0x7c>
    4124:	0900      	lsrs	r0, r0, #4
    4126:	e03c      	b.n	41a2 <get_fat+0xf6>
    4128:	0500      	lsls	r0, r0, #20
    412a:	0d00      	lsrs	r0, r0, #20
    412c:	e039      	b.n	41a2 <get_fat+0xf6>
    412e:	0a09      	lsrs	r1, r1, #8
    4130:	6a2b      	ldr	r3, [r5, #32]
    4132:	469c      	mov	ip, r3
    4134:	4461      	add	r1, ip
    4136:	0028      	movs	r0, r5
    4138:	4b1a      	ldr	r3, [pc, #104]	; (41a4 <get_fat+0xf8>)
    413a:	4798      	blx	r3
    413c:	2800      	cmp	r0, #0
    413e:	d002      	beq.n	4146 <get_fat+0x9a>
    4140:	2001      	movs	r0, #1
    4142:	4240      	negs	r0, r0
    4144:	e02d      	b.n	41a2 <get_fat+0xf6>
    4146:	0064      	lsls	r4, r4, #1
    4148:	23ff      	movs	r3, #255	; 0xff
    414a:	005b      	lsls	r3, r3, #1
    414c:	401c      	ands	r4, r3
    414e:	192d      	adds	r5, r5, r4
    4150:	3530      	adds	r5, #48	; 0x30
    4152:	786b      	ldrb	r3, [r5, #1]
    4154:	021b      	lsls	r3, r3, #8
    4156:	7828      	ldrb	r0, [r5, #0]
    4158:	4318      	orrs	r0, r3
    415a:	e022      	b.n	41a2 <get_fat+0xf6>
    415c:	09c9      	lsrs	r1, r1, #7
    415e:	6a2b      	ldr	r3, [r5, #32]
    4160:	469c      	mov	ip, r3
    4162:	4461      	add	r1, ip
    4164:	0028      	movs	r0, r5
    4166:	4b0f      	ldr	r3, [pc, #60]	; (41a4 <get_fat+0xf8>)
    4168:	4798      	blx	r3
    416a:	2800      	cmp	r0, #0
    416c:	d002      	beq.n	4174 <get_fat+0xc8>
    416e:	2001      	movs	r0, #1
    4170:	4240      	negs	r0, r0
    4172:	e016      	b.n	41a2 <get_fat+0xf6>
    4174:	00a4      	lsls	r4, r4, #2
    4176:	23fe      	movs	r3, #254	; 0xfe
    4178:	005b      	lsls	r3, r3, #1
    417a:	401c      	ands	r4, r3
    417c:	0023      	movs	r3, r4
    417e:	3330      	adds	r3, #48	; 0x30
    4180:	18eb      	adds	r3, r5, r3
    4182:	78d8      	ldrb	r0, [r3, #3]
    4184:	0600      	lsls	r0, r0, #24
    4186:	789a      	ldrb	r2, [r3, #2]
    4188:	0412      	lsls	r2, r2, #16
    418a:	4310      	orrs	r0, r2
    418c:	192c      	adds	r4, r5, r4
    418e:	3430      	adds	r4, #48	; 0x30
    4190:	7822      	ldrb	r2, [r4, #0]
    4192:	4310      	orrs	r0, r2
    4194:	785b      	ldrb	r3, [r3, #1]
    4196:	021b      	lsls	r3, r3, #8
    4198:	4318      	orrs	r0, r3
    419a:	0100      	lsls	r0, r0, #4
    419c:	0900      	lsrs	r0, r0, #4
    419e:	e000      	b.n	41a2 <get_fat+0xf6>
    41a0:	2001      	movs	r0, #1
    41a2:	bdf8      	pop	{r3, r4, r5, r6, r7, pc}
    41a4:	0000400d 	.word	0x0000400d

000041a8 <dir_sdi>:
    41a8:	b5f8      	push	{r3, r4, r5, r6, r7, lr}
    41aa:	0004      	movs	r4, r0
    41ac:	000d      	movs	r5, r1
    41ae:	80e1      	strh	r1, [r4, #6]
    41b0:	6881      	ldr	r1, [r0, #8]
    41b2:	2002      	movs	r0, #2
    41b4:	2901      	cmp	r1, #1
    41b6:	d003      	beq.n	41c0 <dir_sdi+0x18>
    41b8:	6823      	ldr	r3, [r4, #0]
    41ba:	699a      	ldr	r2, [r3, #24]
    41bc:	4291      	cmp	r1, r2
    41be:	d300      	bcc.n	41c2 <dir_sdi+0x1a>
    41c0:	bdf8      	pop	{r3, r4, r5, r6, r7, pc}
    41c2:	2900      	cmp	r1, #0
    41c4:	d119      	bne.n	41fa <dir_sdi+0x52>
    41c6:	781a      	ldrb	r2, [r3, #0]
    41c8:	2a03      	cmp	r2, #3
    41ca:	d013      	beq.n	41f4 <dir_sdi+0x4c>
    41cc:	2200      	movs	r2, #0
    41ce:	60e2      	str	r2, [r4, #12]
    41d0:	891a      	ldrh	r2, [r3, #8]
    41d2:	2002      	movs	r0, #2
    41d4:	42aa      	cmp	r2, r5
    41d6:	d9f3      	bls.n	41c0 <dir_sdi+0x18>
    41d8:	092a      	lsrs	r2, r5, #4
    41da:	b292      	uxth	r2, r2
    41dc:	6a5b      	ldr	r3, [r3, #36]	; 0x24
    41de:	189b      	adds	r3, r3, r2
    41e0:	6123      	str	r3, [r4, #16]
    41e2:	6823      	ldr	r3, [r4, #0]
    41e4:	3330      	adds	r3, #48	; 0x30
    41e6:	220f      	movs	r2, #15
    41e8:	4015      	ands	r5, r2
    41ea:	016d      	lsls	r5, r5, #5
    41ec:	195d      	adds	r5, r3, r5
    41ee:	6165      	str	r5, [r4, #20]
    41f0:	2000      	movs	r0, #0
    41f2:	e7e5      	b.n	41c0 <dir_sdi+0x18>
    41f4:	6a59      	ldr	r1, [r3, #36]	; 0x24
    41f6:	2900      	cmp	r1, #0
    41f8:	d0e8      	beq.n	41cc <dir_sdi+0x24>
    41fa:	789e      	ldrb	r6, [r3, #2]
    41fc:	0136      	lsls	r6, r6, #4
    41fe:	42b5      	cmp	r5, r6
    4200:	d313      	bcc.n	422a <dir_sdi+0x82>
    4202:	1bad      	subs	r5, r5, r6
    4204:	b2ad      	uxth	r5, r5
    4206:	4f10      	ldr	r7, [pc, #64]	; (4248 <dir_sdi+0xa0>)
    4208:	e000      	b.n	420c <dir_sdi+0x64>
    420a:	001d      	movs	r5, r3
    420c:	6820      	ldr	r0, [r4, #0]
    420e:	47b8      	blx	r7
    4210:	0001      	movs	r1, r0
    4212:	1c43      	adds	r3, r0, #1
    4214:	d012      	beq.n	423c <dir_sdi+0x94>
    4216:	2801      	cmp	r0, #1
    4218:	d912      	bls.n	4240 <dir_sdi+0x98>
    421a:	6823      	ldr	r3, [r4, #0]
    421c:	699b      	ldr	r3, [r3, #24]
    421e:	4298      	cmp	r0, r3
    4220:	d210      	bcs.n	4244 <dir_sdi+0x9c>
    4222:	1bab      	subs	r3, r5, r6
    4224:	b29b      	uxth	r3, r3
    4226:	42b5      	cmp	r5, r6
    4228:	d2ef      	bcs.n	420a <dir_sdi+0x62>
    422a:	60e1      	str	r1, [r4, #12]
    422c:	6820      	ldr	r0, [r4, #0]
    422e:	4b07      	ldr	r3, [pc, #28]	; (424c <dir_sdi+0xa4>)
    4230:	4798      	blx	r3
    4232:	092b      	lsrs	r3, r5, #4
    4234:	b29b      	uxth	r3, r3
    4236:	1818      	adds	r0, r3, r0
    4238:	6120      	str	r0, [r4, #16]
    423a:	e7d2      	b.n	41e2 <dir_sdi+0x3a>
    423c:	2001      	movs	r0, #1
    423e:	e7bf      	b.n	41c0 <dir_sdi+0x18>
    4240:	2002      	movs	r0, #2
    4242:	e7bd      	b.n	41c0 <dir_sdi+0x18>
    4244:	2002      	movs	r0, #2
    4246:	e7bb      	b.n	41c0 <dir_sdi+0x18>
    4248:	000040ad 	.word	0x000040ad
    424c:	00003b53 	.word	0x00003b53

00004250 <put_fat>:
    4250:	b5f0      	push	{r4, r5, r6, r7, lr}
    4252:	46c6      	mov	lr, r8
    4254:	b500      	push	{lr}
    4256:	0007      	movs	r7, r0
    4258:	000c      	movs	r4, r1
    425a:	0016      	movs	r6, r2
    425c:	2502      	movs	r5, #2
    425e:	2901      	cmp	r1, #1
    4260:	d902      	bls.n	4268 <put_fat+0x18>
    4262:	6983      	ldr	r3, [r0, #24]
    4264:	4299      	cmp	r1, r3
    4266:	d303      	bcc.n	4270 <put_fat+0x20>
    4268:	0028      	movs	r0, r5
    426a:	bc04      	pop	{r2}
    426c:	4690      	mov	r8, r2
    426e:	bdf0      	pop	{r4, r5, r6, r7, pc}
    4270:	7803      	ldrb	r3, [r0, #0]
    4272:	2b02      	cmp	r3, #2
    4274:	d053      	beq.n	431e <put_fat+0xce>
    4276:	2b03      	cmp	r3, #3
    4278:	d063      	beq.n	4342 <put_fat+0xf2>
    427a:	2502      	movs	r5, #2
    427c:	2b01      	cmp	r3, #1
    427e:	d002      	beq.n	4286 <put_fat+0x36>
    4280:	2301      	movs	r3, #1
    4282:	713b      	strb	r3, [r7, #4]
    4284:	e7f0      	b.n	4268 <put_fat+0x18>
    4286:	084b      	lsrs	r3, r1, #1
    4288:	4698      	mov	r8, r3
    428a:	4488      	add	r8, r1
    428c:	4643      	mov	r3, r8
    428e:	0a59      	lsrs	r1, r3, #9
    4290:	6a03      	ldr	r3, [r0, #32]
    4292:	469c      	mov	ip, r3
    4294:	4461      	add	r1, ip
    4296:	4b3b      	ldr	r3, [pc, #236]	; (4384 <put_fat+0x134>)
    4298:	4798      	blx	r3
    429a:	1e05      	subs	r5, r0, #0
    429c:	d1f0      	bne.n	4280 <put_fat+0x30>
    429e:	4643      	mov	r3, r8
    42a0:	05db      	lsls	r3, r3, #23
    42a2:	0ddb      	lsrs	r3, r3, #23
    42a4:	07e2      	lsls	r2, r4, #31
    42a6:	d51f      	bpl.n	42e8 <put_fat+0x98>
    42a8:	18fb      	adds	r3, r7, r3
    42aa:	3330      	adds	r3, #48	; 0x30
    42ac:	7819      	ldrb	r1, [r3, #0]
    42ae:	220f      	movs	r2, #15
    42b0:	400a      	ands	r2, r1
    42b2:	0131      	lsls	r1, r6, #4
    42b4:	20ff      	movs	r0, #255	; 0xff
    42b6:	0100      	lsls	r0, r0, #4
    42b8:	4001      	ands	r1, r0
    42ba:	430a      	orrs	r2, r1
    42bc:	701a      	strb	r2, [r3, #0]
    42be:	4644      	mov	r4, r8
    42c0:	3401      	adds	r4, #1
    42c2:	2301      	movs	r3, #1
    42c4:	713b      	strb	r3, [r7, #4]
    42c6:	0a61      	lsrs	r1, r4, #9
    42c8:	6a3b      	ldr	r3, [r7, #32]
    42ca:	469c      	mov	ip, r3
    42cc:	4461      	add	r1, ip
    42ce:	0038      	movs	r0, r7
    42d0:	4b2c      	ldr	r3, [pc, #176]	; (4384 <put_fat+0x134>)
    42d2:	4798      	blx	r3
    42d4:	2800      	cmp	r0, #0
    42d6:	d151      	bne.n	437c <put_fat+0x12c>
    42d8:	05e4      	lsls	r4, r4, #23
    42da:	0de4      	lsrs	r4, r4, #23
    42dc:	0936      	lsrs	r6, r6, #4
    42de:	b2f6      	uxtb	r6, r6
    42e0:	193c      	adds	r4, r7, r4
    42e2:	3430      	adds	r4, #48	; 0x30
    42e4:	7026      	strb	r6, [r4, #0]
    42e6:	e7cb      	b.n	4280 <put_fat+0x30>
    42e8:	18fb      	adds	r3, r7, r3
    42ea:	3330      	adds	r3, #48	; 0x30
    42ec:	701e      	strb	r6, [r3, #0]
    42ee:	4644      	mov	r4, r8
    42f0:	3401      	adds	r4, #1
    42f2:	2301      	movs	r3, #1
    42f4:	713b      	strb	r3, [r7, #4]
    42f6:	0a61      	lsrs	r1, r4, #9
    42f8:	6a3b      	ldr	r3, [r7, #32]
    42fa:	469c      	mov	ip, r3
    42fc:	4461      	add	r1, ip
    42fe:	0038      	movs	r0, r7
    4300:	4b20      	ldr	r3, [pc, #128]	; (4384 <put_fat+0x134>)
    4302:	4798      	blx	r3
    4304:	2800      	cmp	r0, #0
    4306:	d13b      	bne.n	4380 <put_fat+0x130>
    4308:	05e4      	lsls	r4, r4, #23
    430a:	0de4      	lsrs	r4, r4, #23
    430c:	193b      	adds	r3, r7, r4
    430e:	3330      	adds	r3, #48	; 0x30
    4310:	781b      	ldrb	r3, [r3, #0]
    4312:	220f      	movs	r2, #15
    4314:	4393      	bics	r3, r2
    4316:	0536      	lsls	r6, r6, #20
    4318:	0f36      	lsrs	r6, r6, #28
    431a:	431e      	orrs	r6, r3
    431c:	e7e0      	b.n	42e0 <put_fat+0x90>
    431e:	0a09      	lsrs	r1, r1, #8
    4320:	6a03      	ldr	r3, [r0, #32]
    4322:	469c      	mov	ip, r3
    4324:	4461      	add	r1, ip
    4326:	4b17      	ldr	r3, [pc, #92]	; (4384 <put_fat+0x134>)
    4328:	4798      	blx	r3
    432a:	1e05      	subs	r5, r0, #0
    432c:	d1a8      	bne.n	4280 <put_fat+0x30>
    432e:	0063      	lsls	r3, r4, #1
    4330:	24ff      	movs	r4, #255	; 0xff
    4332:	0064      	lsls	r4, r4, #1
    4334:	4023      	ands	r3, r4
    4336:	18fb      	adds	r3, r7, r3
    4338:	3330      	adds	r3, #48	; 0x30
    433a:	701e      	strb	r6, [r3, #0]
    433c:	0a36      	lsrs	r6, r6, #8
    433e:	705e      	strb	r6, [r3, #1]
    4340:	e79e      	b.n	4280 <put_fat+0x30>
    4342:	09c9      	lsrs	r1, r1, #7
    4344:	6a03      	ldr	r3, [r0, #32]
    4346:	469c      	mov	ip, r3
    4348:	4461      	add	r1, ip
    434a:	4b0e      	ldr	r3, [pc, #56]	; (4384 <put_fat+0x134>)
    434c:	4798      	blx	r3
    434e:	1e05      	subs	r5, r0, #0
    4350:	d196      	bne.n	4280 <put_fat+0x30>
    4352:	00a4      	lsls	r4, r4, #2
    4354:	23fe      	movs	r3, #254	; 0xfe
    4356:	005b      	lsls	r3, r3, #1
    4358:	401c      	ands	r4, r3
    435a:	0022      	movs	r2, r4
    435c:	3230      	adds	r2, #48	; 0x30
    435e:	18ba      	adds	r2, r7, r2
    4360:	78d3      	ldrb	r3, [r2, #3]
    4362:	193c      	adds	r4, r7, r4
    4364:	3430      	adds	r4, #48	; 0x30
    4366:	091b      	lsrs	r3, r3, #4
    4368:	071b      	lsls	r3, r3, #28
    436a:	431e      	orrs	r6, r3
    436c:	7026      	strb	r6, [r4, #0]
    436e:	0a33      	lsrs	r3, r6, #8
    4370:	7053      	strb	r3, [r2, #1]
    4372:	0c33      	lsrs	r3, r6, #16
    4374:	7093      	strb	r3, [r2, #2]
    4376:	0e36      	lsrs	r6, r6, #24
    4378:	70d6      	strb	r6, [r2, #3]
    437a:	e781      	b.n	4280 <put_fat+0x30>
    437c:	0005      	movs	r5, r0
    437e:	e77f      	b.n	4280 <put_fat+0x30>
    4380:	0005      	movs	r5, r0
    4382:	e77d      	b.n	4280 <put_fat+0x30>
    4384:	0000400d 	.word	0x0000400d

00004388 <create_chain>:
    4388:	b5f0      	push	{r4, r5, r6, r7, lr}
    438a:	46c6      	mov	lr, r8
    438c:	b500      	push	{lr}
    438e:	0005      	movs	r5, r0
    4390:	4688      	mov	r8, r1
    4392:	2900      	cmp	r1, #0
    4394:	d107      	bne.n	43a6 <create_chain+0x1e>
    4396:	68c6      	ldr	r6, [r0, #12]
    4398:	2e00      	cmp	r6, #0
    439a:	d00d      	beq.n	43b8 <create_chain+0x30>
    439c:	6983      	ldr	r3, [r0, #24]
    439e:	429e      	cmp	r6, r3
    43a0:	d30b      	bcc.n	43ba <create_chain+0x32>
    43a2:	2601      	movs	r6, #1
    43a4:	e009      	b.n	43ba <create_chain+0x32>
    43a6:	4b26      	ldr	r3, [pc, #152]	; (4440 <create_chain+0xb8>)
    43a8:	4798      	blx	r3
    43aa:	2801      	cmp	r0, #1
    43ac:	d93d      	bls.n	442a <create_chain+0xa2>
    43ae:	69ab      	ldr	r3, [r5, #24]
    43b0:	4646      	mov	r6, r8
    43b2:	4298      	cmp	r0, r3
    43b4:	d201      	bcs.n	43ba <create_chain+0x32>
    43b6:	e03d      	b.n	4434 <create_chain+0xac>
    43b8:	2601      	movs	r6, #1
    43ba:	0034      	movs	r4, r6
    43bc:	4f20      	ldr	r7, [pc, #128]	; (4440 <create_chain+0xb8>)
    43be:	e00a      	b.n	43d6 <create_chain+0x4e>
    43c0:	0021      	movs	r1, r4
    43c2:	0028      	movs	r0, r5
    43c4:	47b8      	blx	r7
    43c6:	2800      	cmp	r0, #0
    43c8:	d00d      	beq.n	43e6 <create_chain+0x5e>
    43ca:	1c43      	adds	r3, r0, #1
    43cc:	d032      	beq.n	4434 <create_chain+0xac>
    43ce:	2801      	cmp	r0, #1
    43d0:	d030      	beq.n	4434 <create_chain+0xac>
    43d2:	42b4      	cmp	r4, r6
    43d4:	d02d      	beq.n	4432 <create_chain+0xaa>
    43d6:	3401      	adds	r4, #1
    43d8:	69ab      	ldr	r3, [r5, #24]
    43da:	429c      	cmp	r4, r3
    43dc:	d3f0      	bcc.n	43c0 <create_chain+0x38>
    43de:	2e01      	cmp	r6, #1
    43e0:	d925      	bls.n	442e <create_chain+0xa6>
    43e2:	2402      	movs	r4, #2
    43e4:	e7ec      	b.n	43c0 <create_chain+0x38>
    43e6:	4a17      	ldr	r2, [pc, #92]	; (4444 <create_chain+0xbc>)
    43e8:	0021      	movs	r1, r4
    43ea:	0028      	movs	r0, r5
    43ec:	4b16      	ldr	r3, [pc, #88]	; (4448 <create_chain+0xc0>)
    43ee:	4798      	blx	r3
    43f0:	2800      	cmp	r0, #0
    43f2:	d113      	bne.n	441c <create_chain+0x94>
    43f4:	4643      	mov	r3, r8
    43f6:	2b00      	cmp	r3, #0
    43f8:	d109      	bne.n	440e <create_chain+0x86>
    43fa:	60ec      	str	r4, [r5, #12]
    43fc:	692b      	ldr	r3, [r5, #16]
    43fe:	1c5a      	adds	r2, r3, #1
    4400:	d01b      	beq.n	443a <create_chain+0xb2>
    4402:	3b01      	subs	r3, #1
    4404:	612b      	str	r3, [r5, #16]
    4406:	2301      	movs	r3, #1
    4408:	716b      	strb	r3, [r5, #5]
    440a:	0020      	movs	r0, r4
    440c:	e012      	b.n	4434 <create_chain+0xac>
    440e:	0022      	movs	r2, r4
    4410:	4641      	mov	r1, r8
    4412:	0028      	movs	r0, r5
    4414:	4b0c      	ldr	r3, [pc, #48]	; (4448 <create_chain+0xc0>)
    4416:	4798      	blx	r3
    4418:	2800      	cmp	r0, #0
    441a:	d0ee      	beq.n	43fa <create_chain+0x72>
    441c:	3801      	subs	r0, #1
    441e:	4242      	negs	r2, r0
    4420:	4142      	adcs	r2, r0
    4422:	4250      	negs	r0, r2
    4424:	2301      	movs	r3, #1
    4426:	4318      	orrs	r0, r3
    4428:	e004      	b.n	4434 <create_chain+0xac>
    442a:	2001      	movs	r0, #1
    442c:	e002      	b.n	4434 <create_chain+0xac>
    442e:	2000      	movs	r0, #0
    4430:	e000      	b.n	4434 <create_chain+0xac>
    4432:	2000      	movs	r0, #0
    4434:	bc04      	pop	{r2}
    4436:	4690      	mov	r8, r2
    4438:	bdf0      	pop	{r4, r5, r6, r7, pc}
    443a:	0020      	movs	r0, r4
    443c:	e7fa      	b.n	4434 <create_chain+0xac>
    443e:	46c0      	nop			; (mov r8, r8)
    4440:	000040ad 	.word	0x000040ad
    4444:	0fffffff 	.word	0x0fffffff
    4448:	00004251 	.word	0x00004251

0000444c <remove_chain>:
    444c:	b5f8      	push	{r3, r4, r5, r6, r7, lr}
    444e:	46ce      	mov	lr, r9
    4450:	4647      	mov	r7, r8
    4452:	b580      	push	{r7, lr}
    4454:	0004      	movs	r4, r0
    4456:	000d      	movs	r5, r1
    4458:	2002      	movs	r0, #2
    445a:	2901      	cmp	r1, #1
    445c:	d902      	bls.n	4464 <remove_chain+0x18>
    445e:	69a3      	ldr	r3, [r4, #24]
    4460:	4299      	cmp	r1, r3
    4462:	d303      	bcc.n	446c <remove_chain+0x20>
    4464:	bc0c      	pop	{r2, r3}
    4466:	4690      	mov	r8, r2
    4468:	4699      	mov	r9, r3
    446a:	bdf8      	pop	{r3, r4, r5, r6, r7, pc}
    446c:	4f13      	ldr	r7, [pc, #76]	; (44bc <remove_chain+0x70>)
    446e:	4b14      	ldr	r3, [pc, #80]	; (44c0 <remove_chain+0x74>)
    4470:	4698      	mov	r8, r3
    4472:	2301      	movs	r3, #1
    4474:	4699      	mov	r9, r3
    4476:	e003      	b.n	4480 <remove_chain+0x34>
    4478:	0035      	movs	r5, r6
    447a:	69a3      	ldr	r3, [r4, #24]
    447c:	42b3      	cmp	r3, r6
    447e:	d9f1      	bls.n	4464 <remove_chain+0x18>
    4480:	0029      	movs	r1, r5
    4482:	0020      	movs	r0, r4
    4484:	47b8      	blx	r7
    4486:	1e06      	subs	r6, r0, #0
    4488:	d011      	beq.n	44ae <remove_chain+0x62>
    448a:	2801      	cmp	r0, #1
    448c:	d011      	beq.n	44b2 <remove_chain+0x66>
    448e:	1c43      	adds	r3, r0, #1
    4490:	d011      	beq.n	44b6 <remove_chain+0x6a>
    4492:	2200      	movs	r2, #0
    4494:	0029      	movs	r1, r5
    4496:	0020      	movs	r0, r4
    4498:	47c0      	blx	r8
    449a:	2800      	cmp	r0, #0
    449c:	d1e2      	bne.n	4464 <remove_chain+0x18>
    449e:	6923      	ldr	r3, [r4, #16]
    44a0:	1c5a      	adds	r2, r3, #1
    44a2:	d0e9      	beq.n	4478 <remove_chain+0x2c>
    44a4:	3301      	adds	r3, #1
    44a6:	6123      	str	r3, [r4, #16]
    44a8:	464b      	mov	r3, r9
    44aa:	7163      	strb	r3, [r4, #5]
    44ac:	e7e4      	b.n	4478 <remove_chain+0x2c>
    44ae:	2000      	movs	r0, #0
    44b0:	e7d8      	b.n	4464 <remove_chain+0x18>
    44b2:	2002      	movs	r0, #2
    44b4:	e7d6      	b.n	4464 <remove_chain+0x18>
    44b6:	2001      	movs	r0, #1
    44b8:	e7d4      	b.n	4464 <remove_chain+0x18>
    44ba:	46c0      	nop			; (mov r8, r8)
    44bc:	000040ad 	.word	0x000040ad
    44c0:	00004251 	.word	0x00004251

000044c4 <dir_next>:
    44c4:	b5f8      	push	{r3, r4, r5, r6, r7, lr}
    44c6:	46d6      	mov	lr, sl
    44c8:	4647      	mov	r7, r8
    44ca:	b580      	push	{r7, lr}
    44cc:	0006      	movs	r6, r0
    44ce:	000d      	movs	r5, r1
    44d0:	88c4      	ldrh	r4, [r0, #6]
    44d2:	3401      	adds	r4, #1
    44d4:	b2a4      	uxth	r4, r4
    44d6:	2004      	movs	r0, #4
    44d8:	2c00      	cmp	r4, #0
    44da:	d103      	bne.n	44e4 <dir_next+0x20>
    44dc:	bc0c      	pop	{r2, r3}
    44de:	4690      	mov	r8, r2
    44e0:	469a      	mov	sl, r3
    44e2:	bdf8      	pop	{r3, r4, r5, r6, r7, pc}
    44e4:	6933      	ldr	r3, [r6, #16]
    44e6:	2b00      	cmp	r3, #0
    44e8:	d0f8      	beq.n	44dc <dir_next+0x18>
    44ea:	270f      	movs	r7, #15
    44ec:	4027      	ands	r7, r4
    44ee:	d10f      	bne.n	4510 <dir_next+0x4c>
    44f0:	3301      	adds	r3, #1
    44f2:	6133      	str	r3, [r6, #16]
    44f4:	68f1      	ldr	r1, [r6, #12]
    44f6:	2900      	cmp	r1, #0
    44f8:	d104      	bne.n	4504 <dir_next+0x40>
    44fa:	6833      	ldr	r3, [r6, #0]
    44fc:	891b      	ldrh	r3, [r3, #8]
    44fe:	42a3      	cmp	r3, r4
    4500:	d9ec      	bls.n	44dc <dir_next+0x18>
    4502:	e005      	b.n	4510 <dir_next+0x4c>
    4504:	6830      	ldr	r0, [r6, #0]
    4506:	7883      	ldrb	r3, [r0, #2]
    4508:	3b01      	subs	r3, #1
    450a:	0922      	lsrs	r2, r4, #4
    450c:	421a      	tst	r2, r3
    450e:	d007      	beq.n	4520 <dir_next+0x5c>
    4510:	80f4      	strh	r4, [r6, #6]
    4512:	6833      	ldr	r3, [r6, #0]
    4514:	3330      	adds	r3, #48	; 0x30
    4516:	017f      	lsls	r7, r7, #5
    4518:	19df      	adds	r7, r3, r7
    451a:	6177      	str	r7, [r6, #20]
    451c:	2000      	movs	r0, #0
    451e:	e7dd      	b.n	44dc <dir_next+0x18>
    4520:	4b2c      	ldr	r3, [pc, #176]	; (45d4 <dir_next+0x110>)
    4522:	4798      	blx	r3
    4524:	4680      	mov	r8, r0
    4526:	2002      	movs	r0, #2
    4528:	4643      	mov	r3, r8
    452a:	2b01      	cmp	r3, #1
    452c:	d9d6      	bls.n	44dc <dir_next+0x18>
    452e:	3301      	adds	r3, #1
    4530:	d04b      	beq.n	45ca <dir_next+0x106>
    4532:	6833      	ldr	r3, [r6, #0]
    4534:	699a      	ldr	r2, [r3, #24]
    4536:	4590      	cmp	r8, r2
    4538:	d33f      	bcc.n	45ba <dir_next+0xf6>
    453a:	3002      	adds	r0, #2
    453c:	2d00      	cmp	r5, #0
    453e:	d0cd      	beq.n	44dc <dir_next+0x18>
    4540:	68f1      	ldr	r1, [r6, #12]
    4542:	0018      	movs	r0, r3
    4544:	4b24      	ldr	r3, [pc, #144]	; (45d8 <dir_next+0x114>)
    4546:	4798      	blx	r3
    4548:	4680      	mov	r8, r0
    454a:	2007      	movs	r0, #7
    454c:	4643      	mov	r3, r8
    454e:	2b00      	cmp	r3, #0
    4550:	d0c4      	beq.n	44dc <dir_next+0x18>
    4552:	3805      	subs	r0, #5
    4554:	2b01      	cmp	r3, #1
    4556:	d0c1      	beq.n	44dc <dir_next+0x18>
    4558:	3801      	subs	r0, #1
    455a:	3301      	adds	r3, #1
    455c:	d0be      	beq.n	44dc <dir_next+0x18>
    455e:	2100      	movs	r1, #0
    4560:	6830      	ldr	r0, [r6, #0]
    4562:	4b1e      	ldr	r3, [pc, #120]	; (45dc <dir_next+0x118>)
    4564:	4798      	blx	r3
    4566:	0003      	movs	r3, r0
    4568:	2001      	movs	r0, #1
    456a:	2b00      	cmp	r3, #0
    456c:	d1b6      	bne.n	44dc <dir_next+0x18>
    456e:	6830      	ldr	r0, [r6, #0]
    4570:	3030      	adds	r0, #48	; 0x30
    4572:	2280      	movs	r2, #128	; 0x80
    4574:	0092      	lsls	r2, r2, #2
    4576:	2100      	movs	r1, #0
    4578:	4b19      	ldr	r3, [pc, #100]	; (45e0 <dir_next+0x11c>)
    457a:	4798      	blx	r3
    457c:	6835      	ldr	r5, [r6, #0]
    457e:	4641      	mov	r1, r8
    4580:	0028      	movs	r0, r5
    4582:	4b18      	ldr	r3, [pc, #96]	; (45e4 <dir_next+0x120>)
    4584:	4798      	blx	r3
    4586:	62e8      	str	r0, [r5, #44]	; 0x2c
    4588:	2500      	movs	r5, #0
    458a:	2301      	movs	r3, #1
    458c:	469a      	mov	sl, r3
    458e:	6833      	ldr	r3, [r6, #0]
    4590:	789a      	ldrb	r2, [r3, #2]
    4592:	42aa      	cmp	r2, r5
    4594:	d90e      	bls.n	45b4 <dir_next+0xf0>
    4596:	4652      	mov	r2, sl
    4598:	711a      	strb	r2, [r3, #4]
    459a:	2100      	movs	r1, #0
    459c:	6830      	ldr	r0, [r6, #0]
    459e:	4b0f      	ldr	r3, [pc, #60]	; (45dc <dir_next+0x118>)
    45a0:	4798      	blx	r3
    45a2:	2800      	cmp	r0, #0
    45a4:	d113      	bne.n	45ce <dir_next+0x10a>
    45a6:	6832      	ldr	r2, [r6, #0]
    45a8:	6ad3      	ldr	r3, [r2, #44]	; 0x2c
    45aa:	3301      	adds	r3, #1
    45ac:	62d3      	str	r3, [r2, #44]	; 0x2c
    45ae:	3501      	adds	r5, #1
    45b0:	b2ed      	uxtb	r5, r5
    45b2:	e7ec      	b.n	458e <dir_next+0xca>
    45b4:	6ada      	ldr	r2, [r3, #44]	; 0x2c
    45b6:	1b52      	subs	r2, r2, r5
    45b8:	62da      	str	r2, [r3, #44]	; 0x2c
    45ba:	4643      	mov	r3, r8
    45bc:	60f3      	str	r3, [r6, #12]
    45be:	4641      	mov	r1, r8
    45c0:	6830      	ldr	r0, [r6, #0]
    45c2:	4b08      	ldr	r3, [pc, #32]	; (45e4 <dir_next+0x120>)
    45c4:	4798      	blx	r3
    45c6:	6130      	str	r0, [r6, #16]
    45c8:	e7a2      	b.n	4510 <dir_next+0x4c>
    45ca:	2001      	movs	r0, #1
    45cc:	e786      	b.n	44dc <dir_next+0x18>
    45ce:	2001      	movs	r0, #1
    45d0:	e784      	b.n	44dc <dir_next+0x18>
    45d2:	46c0      	nop			; (mov r8, r8)
    45d4:	000040ad 	.word	0x000040ad
    45d8:	00004389 	.word	0x00004389
    45dc:	0000400d 	.word	0x0000400d
    45e0:	00003b41 	.word	0x00003b41
    45e4:	00003b53 	.word	0x00003b53

000045e8 <dir_find>:
    45e8:	b5f0      	push	{r4, r5, r6, r7, lr}
    45ea:	46de      	mov	lr, fp
    45ec:	4657      	mov	r7, sl
    45ee:	464e      	mov	r6, r9
    45f0:	4645      	mov	r5, r8
    45f2:	b5e0      	push	{r5, r6, r7, lr}
    45f4:	b083      	sub	sp, #12
    45f6:	0005      	movs	r5, r0
    45f8:	2100      	movs	r1, #0
    45fa:	4b5a      	ldr	r3, [pc, #360]	; (4764 <dir_find+0x17c>)
    45fc:	4798      	blx	r3
    45fe:	1e07      	subs	r7, r0, #0
    4600:	d000      	beq.n	4604 <dir_find+0x1c>
    4602:	e09e      	b.n	4742 <dir_find+0x15a>
    4604:	23ff      	movs	r3, #255	; 0xff
    4606:	4699      	mov	r9, r3
    4608:	469a      	mov	sl, r3
    460a:	4b57      	ldr	r3, [pc, #348]	; (4768 <dir_find+0x180>)
    460c:	469b      	mov	fp, r3
    460e:	e01b      	b.n	4648 <dir_find+0x60>
    4610:	2b0f      	cmp	r3, #15
    4612:	d030      	beq.n	4676 <dir_find+0x8e>
    4614:	4653      	mov	r3, sl
    4616:	2b00      	cmp	r3, #0
    4618:	d105      	bne.n	4626 <dir_find+0x3e>
    461a:	0020      	movs	r0, r4
    461c:	4b53      	ldr	r3, [pc, #332]	; (476c <dir_find+0x184>)
    461e:	4798      	blx	r3
    4620:	4581      	cmp	r9, r0
    4622:	d100      	bne.n	4626 <dir_find+0x3e>
    4624:	e08d      	b.n	4742 <dir_find+0x15a>
    4626:	2301      	movs	r3, #1
    4628:	425b      	negs	r3, r3
    462a:	842b      	strh	r3, [r5, #32]
    462c:	69a8      	ldr	r0, [r5, #24]
    462e:	7ac3      	ldrb	r3, [r0, #11]
    4630:	07db      	lsls	r3, r3, #31
    4632:	d400      	bmi.n	4636 <dir_find+0x4e>
    4634:	e07d      	b.n	4732 <dir_find+0x14a>
    4636:	23ff      	movs	r3, #255	; 0xff
    4638:	469a      	mov	sl, r3
    463a:	2100      	movs	r1, #0
    463c:	0028      	movs	r0, r5
    463e:	4b4c      	ldr	r3, [pc, #304]	; (4770 <dir_find+0x188>)
    4640:	4798      	blx	r3
    4642:	1e07      	subs	r7, r0, #0
    4644:	d000      	beq.n	4648 <dir_find+0x60>
    4646:	e07c      	b.n	4742 <dir_find+0x15a>
    4648:	6929      	ldr	r1, [r5, #16]
    464a:	6828      	ldr	r0, [r5, #0]
    464c:	47d8      	blx	fp
    464e:	1e07      	subs	r7, r0, #0
    4650:	d177      	bne.n	4742 <dir_find+0x15a>
    4652:	696c      	ldr	r4, [r5, #20]
    4654:	7826      	ldrb	r6, [r4, #0]
    4656:	2e00      	cmp	r6, #0
    4658:	d100      	bne.n	465c <dir_find+0x74>
    465a:	e080      	b.n	475e <dir_find+0x176>
    465c:	7ae2      	ldrb	r2, [r4, #11]
    465e:	233f      	movs	r3, #63	; 0x3f
    4660:	4013      	ands	r3, r2
    4662:	2ee5      	cmp	r6, #229	; 0xe5
    4664:	d100      	bne.n	4668 <dir_find+0x80>
    4666:	e077      	b.n	4758 <dir_find+0x170>
    4668:	0712      	lsls	r2, r2, #28
    466a:	d5d1      	bpl.n	4610 <dir_find+0x28>
    466c:	2b0f      	cmp	r3, #15
    466e:	d002      	beq.n	4676 <dir_find+0x8e>
    4670:	23ff      	movs	r3, #255	; 0xff
    4672:	469a      	mov	sl, r3
    4674:	e7e1      	b.n	463a <dir_find+0x52>
    4676:	69ef      	ldr	r7, [r5, #28]
    4678:	2f00      	cmp	r7, #0
    467a:	d0de      	beq.n	463a <dir_find+0x52>
    467c:	0673      	lsls	r3, r6, #25
    467e:	d518      	bpl.n	46b2 <dir_find+0xca>
    4680:	7b63      	ldrb	r3, [r4, #13]
    4682:	4699      	mov	r9, r3
    4684:	2340      	movs	r3, #64	; 0x40
    4686:	439e      	bics	r6, r3
    4688:	88eb      	ldrh	r3, [r5, #6]
    468a:	842b      	strh	r3, [r5, #32]
    468c:	7b63      	ldrb	r3, [r4, #13]
    468e:	9300      	str	r3, [sp, #0]
    4690:	22ff      	movs	r2, #255	; 0xff
    4692:	4692      	mov	sl, r2
    4694:	454b      	cmp	r3, r9
    4696:	d1d0      	bne.n	463a <dir_find+0x52>
    4698:	7823      	ldrb	r3, [r4, #0]
    469a:	3abf      	subs	r2, #191	; 0xbf
    469c:	4393      	bics	r3, r2
    469e:	3b01      	subs	r3, #1
    46a0:	005a      	lsls	r2, r3, #1
    46a2:	18d2      	adds	r2, r2, r3
    46a4:	0092      	lsls	r2, r2, #2
    46a6:	4692      	mov	sl, r2
    46a8:	449a      	add	sl, r3
    46aa:	2201      	movs	r2, #1
    46ac:	2300      	movs	r3, #0
    46ae:	4699      	mov	r9, r3
    46b0:	e01d      	b.n	46ee <dir_find+0x106>
    46b2:	45b2      	cmp	sl, r6
    46b4:	d0ea      	beq.n	468c <dir_find+0xa4>
    46b6:	23ff      	movs	r3, #255	; 0xff
    46b8:	469a      	mov	sl, r3
    46ba:	e7be      	b.n	463a <dir_find+0x52>
    46bc:	4b2d      	ldr	r3, [pc, #180]	; (4774 <dir_find+0x18c>)
    46be:	4798      	blx	r3
    46c0:	9001      	str	r0, [sp, #4]
    46c2:	4653      	mov	r3, sl
    46c4:	2bfe      	cmp	r3, #254	; 0xfe
    46c6:	d81f      	bhi.n	4708 <dir_find+0x120>
    46c8:	2301      	movs	r3, #1
    46ca:	4453      	add	r3, sl
    46cc:	4698      	mov	r8, r3
    46ce:	4653      	mov	r3, sl
    46d0:	005b      	lsls	r3, r3, #1
    46d2:	5bd8      	ldrh	r0, [r3, r7]
    46d4:	4b27      	ldr	r3, [pc, #156]	; (4774 <dir_find+0x18c>)
    46d6:	4798      	blx	r3
    46d8:	0002      	movs	r2, r0
    46da:	9b01      	ldr	r3, [sp, #4]
    46dc:	4283      	cmp	r3, r0
    46de:	d113      	bne.n	4708 <dir_find+0x120>
    46e0:	46c2      	mov	sl, r8
    46e2:	2301      	movs	r3, #1
    46e4:	469c      	mov	ip, r3
    46e6:	44e1      	add	r9, ip
    46e8:	464b      	mov	r3, r9
    46ea:	2b0d      	cmp	r3, #13
    46ec:	d011      	beq.n	4712 <dir_find+0x12a>
    46ee:	4b22      	ldr	r3, [pc, #136]	; (4778 <dir_find+0x190>)
    46f0:	4649      	mov	r1, r9
    46f2:	5cc9      	ldrb	r1, [r1, r3]
    46f4:	1863      	adds	r3, r4, r1
    46f6:	785b      	ldrb	r3, [r3, #1]
    46f8:	021b      	lsls	r3, r3, #8
    46fa:	5c60      	ldrb	r0, [r4, r1]
    46fc:	4318      	orrs	r0, r3
    46fe:	2a00      	cmp	r2, #0
    4700:	d1dc      	bne.n	46bc <dir_find+0xd4>
    4702:	4b1e      	ldr	r3, [pc, #120]	; (477c <dir_find+0x194>)
    4704:	4298      	cmp	r0, r3
    4706:	d0ec      	beq.n	46e2 <dir_find+0xfa>
    4708:	9b00      	ldr	r3, [sp, #0]
    470a:	4699      	mov	r9, r3
    470c:	23ff      	movs	r3, #255	; 0xff
    470e:	469a      	mov	sl, r3
    4710:	e793      	b.n	463a <dir_find+0x52>
    4712:	7823      	ldrb	r3, [r4, #0]
    4714:	065b      	lsls	r3, r3, #25
    4716:	d506      	bpl.n	4726 <dir_find+0x13e>
    4718:	2a00      	cmp	r2, #0
    471a:	d004      	beq.n	4726 <dir_find+0x13e>
    471c:	4653      	mov	r3, sl
    471e:	005b      	lsls	r3, r3, #1
    4720:	5bdb      	ldrh	r3, [r3, r7]
    4722:	2b00      	cmp	r3, #0
    4724:	d1f0      	bne.n	4708 <dir_find+0x120>
    4726:	3e01      	subs	r6, #1
    4728:	b2f3      	uxtb	r3, r6
    472a:	469a      	mov	sl, r3
    472c:	9b00      	ldr	r3, [sp, #0]
    472e:	4699      	mov	r9, r3
    4730:	e783      	b.n	463a <dir_find+0x52>
    4732:	2300      	movs	r3, #0
    4734:	5ce1      	ldrb	r1, [r4, r3]
    4736:	5cc2      	ldrb	r2, [r0, r3]
    4738:	4291      	cmp	r1, r2
    473a:	d10a      	bne.n	4752 <dir_find+0x16a>
    473c:	3301      	adds	r3, #1
    473e:	2b0b      	cmp	r3, #11
    4740:	d1f8      	bne.n	4734 <dir_find+0x14c>
    4742:	0038      	movs	r0, r7
    4744:	b003      	add	sp, #12
    4746:	bc3c      	pop	{r2, r3, r4, r5}
    4748:	4690      	mov	r8, r2
    474a:	4699      	mov	r9, r3
    474c:	46a2      	mov	sl, r4
    474e:	46ab      	mov	fp, r5
    4750:	bdf0      	pop	{r4, r5, r6, r7, pc}
    4752:	23ff      	movs	r3, #255	; 0xff
    4754:	469a      	mov	sl, r3
    4756:	e770      	b.n	463a <dir_find+0x52>
    4758:	23ff      	movs	r3, #255	; 0xff
    475a:	469a      	mov	sl, r3
    475c:	e76d      	b.n	463a <dir_find+0x52>
    475e:	2704      	movs	r7, #4
    4760:	e7ef      	b.n	4742 <dir_find+0x15a>
    4762:	46c0      	nop			; (mov r8, r8)
    4764:	000041a9 	.word	0x000041a9
    4768:	0000400d 	.word	0x0000400d
    476c:	00003b6b 	.word	0x00003b6b
    4770:	000044c5 	.word	0x000044c5
    4774:	00005585 	.word	0x00005585
    4778:	00006f28 	.word	0x00006f28
    477c:	0000ffff 	.word	0x0000ffff

00004780 <dir_register>:
    4780:	b5f0      	push	{r4, r5, r6, r7, lr}
    4782:	46de      	mov	lr, fp
    4784:	4657      	mov	r7, sl
    4786:	464e      	mov	r6, r9
    4788:	4645      	mov	r5, r8
    478a:	b5e0      	push	{r5, r6, r7, lr}
    478c:	b089      	sub	sp, #36	; 0x24
    478e:	0004      	movs	r4, r0
    4790:	6987      	ldr	r7, [r0, #24]
    4792:	69c3      	ldr	r3, [r0, #28]
    4794:	469a      	mov	sl, r3
    4796:	ad05      	add	r5, sp, #20
    4798:	220c      	movs	r2, #12
    479a:	0039      	movs	r1, r7
    479c:	0028      	movs	r0, r5
    479e:	4ba7      	ldr	r3, [pc, #668]	; (4a3c <dir_register+0x2bc>)
    47a0:	4798      	blx	r3
    47a2:	7aeb      	ldrb	r3, [r5, #11]
    47a4:	07db      	lsls	r3, r3, #31
    47a6:	d400      	bmi.n	47aa <dir_register+0x2a>
    47a8:	e070      	b.n	488c <dir_register+0x10c>
    47aa:	2300      	movs	r3, #0
    47ac:	72fb      	strb	r3, [r7, #11]
    47ae:	61e3      	str	r3, [r4, #28]
    47b0:	220b      	movs	r2, #11
    47b2:	a905      	add	r1, sp, #20
    47b4:	0038      	movs	r0, r7
    47b6:	4ba1      	ldr	r3, [pc, #644]	; (4a3c <dir_register+0x2bc>)
    47b8:	4798      	blx	r3
    47ba:	2301      	movs	r3, #1
    47bc:	ad03      	add	r5, sp, #12
    47be:	001e      	movs	r6, r3
    47c0:	46a0      	mov	r8, r4
    47c2:	e049      	b.n	4858 <dir_register+0xd8>
    47c4:	3801      	subs	r0, #1
    47c6:	1829      	adds	r1, r5, r0
    47c8:	704a      	strb	r2, [r1, #1]
    47ca:	091b      	lsrs	r3, r3, #4
    47cc:	b29b      	uxth	r3, r3
    47ce:	2b00      	cmp	r3, #0
    47d0:	d007      	beq.n	47e2 <dir_register+0x62>
    47d2:	0021      	movs	r1, r4
    47d4:	4019      	ands	r1, r3
    47d6:	000a      	movs	r2, r1
    47d8:	3230      	adds	r2, #48	; 0x30
    47da:	2a39      	cmp	r2, #57	; 0x39
    47dc:	d9f2      	bls.n	47c4 <dir_register+0x44>
    47de:	3207      	adds	r2, #7
    47e0:	e7f0      	b.n	47c4 <dir_register+0x44>
    47e2:	337e      	adds	r3, #126	; 0x7e
    47e4:	542b      	strb	r3, [r5, r0]
    47e6:	2800      	cmp	r0, #0
    47e8:	d00a      	beq.n	4800 <dir_register+0x80>
    47ea:	783b      	ldrb	r3, [r7, #0]
    47ec:	2b20      	cmp	r3, #32
    47ee:	d009      	beq.n	4804 <dir_register+0x84>
    47f0:	2300      	movs	r3, #0
    47f2:	3301      	adds	r3, #1
    47f4:	4298      	cmp	r0, r3
    47f6:	d007      	beq.n	4808 <dir_register+0x88>
    47f8:	5cfa      	ldrb	r2, [r7, r3]
    47fa:	2a20      	cmp	r2, #32
    47fc:	d1f9      	bne.n	47f2 <dir_register+0x72>
    47fe:	e009      	b.n	4814 <dir_register+0x94>
    4800:	0003      	movs	r3, r0
    4802:	e007      	b.n	4814 <dir_register+0x94>
    4804:	2300      	movs	r3, #0
    4806:	e005      	b.n	4814 <dir_register+0x94>
    4808:	0003      	movs	r3, r0
    480a:	e003      	b.n	4814 <dir_register+0x94>
    480c:	54fa      	strb	r2, [r7, r3]
    480e:	3301      	adds	r3, #1
    4810:	2b07      	cmp	r3, #7
    4812:	d805      	bhi.n	4820 <dir_register+0xa0>
    4814:	2220      	movs	r2, #32
    4816:	2807      	cmp	r0, #7
    4818:	d8f8      	bhi.n	480c <dir_register+0x8c>
    481a:	5c2a      	ldrb	r2, [r5, r0]
    481c:	3001      	adds	r0, #1
    481e:	e7f5      	b.n	480c <dir_register+0x8c>
    4820:	4640      	mov	r0, r8
    4822:	4b87      	ldr	r3, [pc, #540]	; (4a40 <dir_register+0x2c0>)
    4824:	4798      	blx	r3
    4826:	2800      	cmp	r0, #0
    4828:	d11c      	bne.n	4864 <dir_register+0xe4>
    482a:	3601      	adds	r6, #1
    482c:	b2b6      	uxth	r6, r6
    482e:	2e64      	cmp	r6, #100	; 0x64
    4830:	d015      	beq.n	485e <dir_register+0xde>
    4832:	220b      	movs	r2, #11
    4834:	a905      	add	r1, sp, #20
    4836:	0038      	movs	r0, r7
    4838:	4b80      	ldr	r3, [pc, #512]	; (4a3c <dir_register+0x2bc>)
    483a:	4798      	blx	r3
    483c:	0033      	movs	r3, r6
    483e:	2e05      	cmp	r6, #5
    4840:	d90a      	bls.n	4858 <dir_register+0xd8>
    4842:	4651      	mov	r1, sl
    4844:	085a      	lsrs	r2, r3, #1
    4846:	03db      	lsls	r3, r3, #15
    4848:	4313      	orrs	r3, r2
    484a:	880a      	ldrh	r2, [r1, #0]
    484c:	189b      	adds	r3, r3, r2
    484e:	b29b      	uxth	r3, r3
    4850:	3102      	adds	r1, #2
    4852:	880a      	ldrh	r2, [r1, #0]
    4854:	2a00      	cmp	r2, #0
    4856:	d1f5      	bne.n	4844 <dir_register+0xc4>
    4858:	2007      	movs	r0, #7
    485a:	240f      	movs	r4, #15
    485c:	e7b9      	b.n	47d2 <dir_register+0x52>
    485e:	2307      	movs	r3, #7
    4860:	4698      	mov	r8, r3
    4862:	e006      	b.n	4872 <dir_register+0xf2>
    4864:	4644      	mov	r4, r8
    4866:	4680      	mov	r8, r0
    4868:	2e64      	cmp	r6, #100	; 0x64
    486a:	d100      	bne.n	486e <dir_register+0xee>
    486c:	e0a5      	b.n	49ba <dir_register+0x23a>
    486e:	2804      	cmp	r0, #4
    4870:	d007      	beq.n	4882 <dir_register+0x102>
    4872:	4640      	mov	r0, r8
    4874:	b009      	add	sp, #36	; 0x24
    4876:	bc3c      	pop	{r2, r3, r4, r5}
    4878:	4690      	mov	r8, r2
    487a:	4699      	mov	r9, r3
    487c:	46a2      	mov	sl, r4
    487e:	46ab      	mov	fp, r5
    4880:	bdf0      	pop	{r4, r5, r6, r7, pc}
    4882:	ab05      	add	r3, sp, #20
    4884:	7adb      	ldrb	r3, [r3, #11]
    4886:	72fb      	strb	r3, [r7, #11]
    4888:	4653      	mov	r3, sl
    488a:	61e3      	str	r3, [r4, #28]
    488c:	ab05      	add	r3, sp, #20
    488e:	7adb      	ldrb	r3, [r3, #11]
    4890:	2201      	movs	r2, #1
    4892:	4693      	mov	fp, r2
    4894:	079b      	lsls	r3, r3, #30
    4896:	d511      	bpl.n	48bc <dir_register+0x13c>
    4898:	4653      	mov	r3, sl
    489a:	881b      	ldrh	r3, [r3, #0]
    489c:	2b00      	cmp	r3, #0
    489e:	d01b      	beq.n	48d8 <dir_register+0x158>
    48a0:	2000      	movs	r0, #0
    48a2:	4652      	mov	r2, sl
    48a4:	3001      	adds	r0, #1
    48a6:	b280      	uxth	r0, r0
    48a8:	0043      	lsls	r3, r0, #1
    48aa:	5a9b      	ldrh	r3, [r3, r2]
    48ac:	2b00      	cmp	r3, #0
    48ae:	d1f9      	bne.n	48a4 <dir_register+0x124>
    48b0:	3019      	adds	r0, #25
    48b2:	210d      	movs	r1, #13
    48b4:	4b63      	ldr	r3, [pc, #396]	; (4a44 <dir_register+0x2c4>)
    48b6:	4798      	blx	r3
    48b8:	b283      	uxth	r3, r0
    48ba:	469b      	mov	fp, r3
    48bc:	2100      	movs	r1, #0
    48be:	0020      	movs	r0, r4
    48c0:	4b61      	ldr	r3, [pc, #388]	; (4a48 <dir_register+0x2c8>)
    48c2:	4798      	blx	r3
    48c4:	4680      	mov	r8, r0
    48c6:	2800      	cmp	r0, #0
    48c8:	d1d3      	bne.n	4872 <dir_register+0xf2>
    48ca:	4682      	mov	sl, r0
    48cc:	2500      	movs	r5, #0
    48ce:	4f5f      	ldr	r7, [pc, #380]	; (4a4c <dir_register+0x2cc>)
    48d0:	2600      	movs	r6, #0
    48d2:	4b5f      	ldr	r3, [pc, #380]	; (4a50 <dir_register+0x2d0>)
    48d4:	4699      	mov	r9, r3
    48d6:	e00b      	b.n	48f0 <dir_register+0x170>
    48d8:	2000      	movs	r0, #0
    48da:	e7e9      	b.n	48b0 <dir_register+0x130>
    48dc:	1c6b      	adds	r3, r5, #1
    48de:	b29b      	uxth	r3, r3
    48e0:	459b      	cmp	fp, r3
    48e2:	d06d      	beq.n	49c0 <dir_register+0x240>
    48e4:	001d      	movs	r5, r3
    48e6:	2101      	movs	r1, #1
    48e8:	0020      	movs	r0, r4
    48ea:	47c8      	blx	r9
    48ec:	2800      	cmp	r0, #0
    48ee:	d112      	bne.n	4916 <dir_register+0x196>
    48f0:	6921      	ldr	r1, [r4, #16]
    48f2:	6820      	ldr	r0, [r4, #0]
    48f4:	47b8      	blx	r7
    48f6:	2800      	cmp	r0, #0
    48f8:	d000      	beq.n	48fc <dir_register+0x17c>
    48fa:	e098      	b.n	4a2e <dir_register+0x2ae>
    48fc:	6963      	ldr	r3, [r4, #20]
    48fe:	781b      	ldrb	r3, [r3, #0]
    4900:	2be5      	cmp	r3, #229	; 0xe5
    4902:	d001      	beq.n	4908 <dir_register+0x188>
    4904:	2b00      	cmp	r3, #0
    4906:	d104      	bne.n	4912 <dir_register+0x192>
    4908:	2d00      	cmp	r5, #0
    490a:	d1e7      	bne.n	48dc <dir_register+0x15c>
    490c:	88e3      	ldrh	r3, [r4, #6]
    490e:	469a      	mov	sl, r3
    4910:	e7e4      	b.n	48dc <dir_register+0x15c>
    4912:	0035      	movs	r5, r6
    4914:	e7e7      	b.n	48e6 <dir_register+0x166>
    4916:	4680      	mov	r8, r0
    4918:	e7ab      	b.n	4872 <dir_register+0xf2>
    491a:	4651      	mov	r1, sl
    491c:	0020      	movs	r0, r4
    491e:	4b4a      	ldr	r3, [pc, #296]	; (4a48 <dir_register+0x2c8>)
    4920:	4798      	blx	r3
    4922:	4680      	mov	r8, r0
    4924:	2800      	cmp	r0, #0
    4926:	d1a4      	bne.n	4872 <dir_register+0xf2>
    4928:	69a0      	ldr	r0, [r4, #24]
    492a:	4b4a      	ldr	r3, [pc, #296]	; (4a54 <dir_register+0x2d4>)
    492c:	4798      	blx	r3
    492e:	9001      	str	r0, [sp, #4]
    4930:	46a8      	mov	r8, r5
    4932:	e01f      	b.n	4974 <dir_register+0x1f4>
    4934:	0022      	movs	r2, r4
    4936:	e067      	b.n	4a08 <dir_register+0x288>
    4938:	465e      	mov	r6, fp
    493a:	4664      	mov	r4, ip
    493c:	4946      	ldr	r1, [pc, #280]	; (4a58 <dir_register+0x2d8>)
    493e:	428b      	cmp	r3, r1
    4940:	d003      	beq.n	494a <dir_register+0x1ca>
    4942:	0052      	lsls	r2, r2, #1
    4944:	5b93      	ldrh	r3, [r2, r6]
    4946:	2b00      	cmp	r3, #0
    4948:	d103      	bne.n	4952 <dir_register+0x1d2>
    494a:	2340      	movs	r3, #64	; 0x40
    494c:	464a      	mov	r2, r9
    494e:	431a      	orrs	r2, r3
    4950:	4691      	mov	r9, r2
    4952:	464b      	mov	r3, r9
    4954:	7003      	strb	r3, [r0, #0]
    4956:	2301      	movs	r3, #1
    4958:	6822      	ldr	r2, [r4, #0]
    495a:	7113      	strb	r3, [r2, #4]
    495c:	2100      	movs	r1, #0
    495e:	0020      	movs	r0, r4
    4960:	4b3b      	ldr	r3, [pc, #236]	; (4a50 <dir_register+0x2d0>)
    4962:	4798      	blx	r3
    4964:	2800      	cmp	r0, #0
    4966:	d166      	bne.n	4a36 <dir_register+0x2b6>
    4968:	4645      	mov	r5, r8
    496a:	3d01      	subs	r5, #1
    496c:	b2ab      	uxth	r3, r5
    496e:	4698      	mov	r8, r3
    4970:	2b00      	cmp	r3, #0
    4972:	d027      	beq.n	49c4 <dir_register+0x244>
    4974:	6921      	ldr	r1, [r4, #16]
    4976:	6820      	ldr	r0, [r4, #0]
    4978:	4b34      	ldr	r3, [pc, #208]	; (4a4c <dir_register+0x2cc>)
    497a:	4798      	blx	r3
    497c:	2800      	cmp	r0, #0
    497e:	d158      	bne.n	4a32 <dir_register+0x2b2>
    4980:	69e6      	ldr	r6, [r4, #28]
    4982:	6960      	ldr	r0, [r4, #20]
    4984:	4643      	mov	r3, r8
    4986:	466a      	mov	r2, sp
    4988:	70d3      	strb	r3, [r2, #3]
    498a:	78d3      	ldrb	r3, [r2, #3]
    498c:	4699      	mov	r9, r3
    498e:	7913      	ldrb	r3, [r2, #4]
    4990:	7343      	strb	r3, [r0, #13]
    4992:	230f      	movs	r3, #15
    4994:	72c3      	strb	r3, [r0, #11]
    4996:	2300      	movs	r3, #0
    4998:	7303      	strb	r3, [r0, #12]
    499a:	7683      	strb	r3, [r0, #26]
    499c:	76c3      	strb	r3, [r0, #27]
    499e:	464b      	mov	r3, r9
    49a0:	3b01      	subs	r3, #1
    49a2:	005a      	lsls	r2, r3, #1
    49a4:	18d2      	adds	r2, r2, r3
    49a6:	0092      	lsls	r2, r2, #2
    49a8:	18d2      	adds	r2, r2, r3
    49aa:	492c      	ldr	r1, [pc, #176]	; (4a5c <dir_register+0x2dc>)
    49ac:	000d      	movs	r5, r1
    49ae:	350d      	adds	r5, #13
    49b0:	2300      	movs	r3, #0
    49b2:	4f29      	ldr	r7, [pc, #164]	; (4a58 <dir_register+0x2d8>)
    49b4:	46b3      	mov	fp, r6
    49b6:	46a4      	mov	ip, r4
    49b8:	e029      	b.n	4a0e <dir_register+0x28e>
    49ba:	2307      	movs	r3, #7
    49bc:	4698      	mov	r8, r3
    49be:	e758      	b.n	4872 <dir_register+0xf2>
    49c0:	2b01      	cmp	r3, #1
    49c2:	d8aa      	bhi.n	491a <dir_register+0x19a>
    49c4:	6921      	ldr	r1, [r4, #16]
    49c6:	6820      	ldr	r0, [r4, #0]
    49c8:	4b20      	ldr	r3, [pc, #128]	; (4a4c <dir_register+0x2cc>)
    49ca:	4798      	blx	r3
    49cc:	4680      	mov	r8, r0
    49ce:	2800      	cmp	r0, #0
    49d0:	d000      	beq.n	49d4 <dir_register+0x254>
    49d2:	e74e      	b.n	4872 <dir_register+0xf2>
    49d4:	6965      	ldr	r5, [r4, #20]
    49d6:	2220      	movs	r2, #32
    49d8:	2100      	movs	r1, #0
    49da:	0028      	movs	r0, r5
    49dc:	4b20      	ldr	r3, [pc, #128]	; (4a60 <dir_register+0x2e0>)
    49de:	4798      	blx	r3
    49e0:	220b      	movs	r2, #11
    49e2:	69a1      	ldr	r1, [r4, #24]
    49e4:	0028      	movs	r0, r5
    49e6:	4b15      	ldr	r3, [pc, #84]	; (4a3c <dir_register+0x2bc>)
    49e8:	4798      	blx	r3
    49ea:	69a3      	ldr	r3, [r4, #24]
    49ec:	7ada      	ldrb	r2, [r3, #11]
    49ee:	2318      	movs	r3, #24
    49f0:	4013      	ands	r3, r2
    49f2:	732b      	strb	r3, [r5, #12]
    49f4:	6823      	ldr	r3, [r4, #0]
    49f6:	2201      	movs	r2, #1
    49f8:	711a      	strb	r2, [r3, #4]
    49fa:	e73a      	b.n	4872 <dir_register+0xf2>
    49fc:	780c      	ldrb	r4, [r1, #0]
    49fe:	26ff      	movs	r6, #255	; 0xff
    4a00:	5506      	strb	r6, [r0, r4]
    4a02:	1904      	adds	r4, r0, r4
    4a04:	26ff      	movs	r6, #255	; 0xff
    4a06:	7066      	strb	r6, [r4, #1]
    4a08:	3101      	adds	r1, #1
    4a0a:	42a9      	cmp	r1, r5
    4a0c:	d094      	beq.n	4938 <dir_register+0x1b8>
    4a0e:	42bb      	cmp	r3, r7
    4a10:	d0f4      	beq.n	49fc <dir_register+0x27c>
    4a12:	1c54      	adds	r4, r2, #1
    4a14:	0052      	lsls	r2, r2, #1
    4a16:	465b      	mov	r3, fp
    4a18:	5ad3      	ldrh	r3, [r2, r3]
    4a1a:	780a      	ldrb	r2, [r1, #0]
    4a1c:	5483      	strb	r3, [r0, r2]
    4a1e:	1882      	adds	r2, r0, r2
    4a20:	0a1e      	lsrs	r6, r3, #8
    4a22:	7056      	strb	r6, [r2, #1]
    4a24:	2b00      	cmp	r3, #0
    4a26:	d185      	bne.n	4934 <dir_register+0x1b4>
    4a28:	0022      	movs	r2, r4
    4a2a:	003b      	movs	r3, r7
    4a2c:	e7ec      	b.n	4a08 <dir_register+0x288>
    4a2e:	4680      	mov	r8, r0
    4a30:	e71f      	b.n	4872 <dir_register+0xf2>
    4a32:	4680      	mov	r8, r0
    4a34:	e71d      	b.n	4872 <dir_register+0xf2>
    4a36:	4680      	mov	r8, r0
    4a38:	e71b      	b.n	4872 <dir_register+0xf2>
    4a3a:	46c0      	nop			; (mov r8, r8)
    4a3c:	00003b2d 	.word	0x00003b2d
    4a40:	000045e9 	.word	0x000045e9
    4a44:	00005bdd 	.word	0x00005bdd
    4a48:	000041a9 	.word	0x000041a9
    4a4c:	0000400d 	.word	0x0000400d
    4a50:	000044c5 	.word	0x000044c5
    4a54:	00003b6b 	.word	0x00003b6b
    4a58:	0000ffff 	.word	0x0000ffff
    4a5c:	00006f28 	.word	0x00006f28
    4a60:	00003b41 	.word	0x00003b41

00004a64 <sync>:
    4a64:	b570      	push	{r4, r5, r6, lr}
    4a66:	0004      	movs	r4, r0
    4a68:	2100      	movs	r1, #0
    4a6a:	4b2c      	ldr	r3, [pc, #176]	; (4b1c <sync+0xb8>)
    4a6c:	4798      	blx	r3
    4a6e:	2800      	cmp	r0, #0
    4a70:	d10a      	bne.n	4a88 <sync+0x24>
    4a72:	7823      	ldrb	r3, [r4, #0]
    4a74:	2b03      	cmp	r3, #3
    4a76:	d008      	beq.n	4a8a <sync+0x26>
    4a78:	7860      	ldrb	r0, [r4, #1]
    4a7a:	2200      	movs	r2, #0
    4a7c:	2100      	movs	r1, #0
    4a7e:	4b28      	ldr	r3, [pc, #160]	; (4b20 <sync+0xbc>)
    4a80:	4798      	blx	r3
    4a82:	1e43      	subs	r3, r0, #1
    4a84:	4198      	sbcs	r0, r3
    4a86:	b2c0      	uxtb	r0, r0
    4a88:	bd70      	pop	{r4, r5, r6, pc}
    4a8a:	7963      	ldrb	r3, [r4, #5]
    4a8c:	2b00      	cmp	r3, #0
    4a8e:	d0f3      	beq.n	4a78 <sync+0x14>
    4a90:	2600      	movs	r6, #0
    4a92:	62e6      	str	r6, [r4, #44]	; 0x2c
    4a94:	0025      	movs	r5, r4
    4a96:	3530      	adds	r5, #48	; 0x30
    4a98:	2280      	movs	r2, #128	; 0x80
    4a9a:	0092      	lsls	r2, r2, #2
    4a9c:	2100      	movs	r1, #0
    4a9e:	0028      	movs	r0, r5
    4aa0:	4b20      	ldr	r3, [pc, #128]	; (4b24 <sync+0xc0>)
    4aa2:	4798      	blx	r3
    4aa4:	2255      	movs	r2, #85	; 0x55
    4aa6:	4b20      	ldr	r3, [pc, #128]	; (4b28 <sync+0xc4>)
    4aa8:	54e2      	strb	r2, [r4, r3]
    4aaa:	3255      	adds	r2, #85	; 0x55
    4aac:	4b1f      	ldr	r3, [pc, #124]	; (4b2c <sync+0xc8>)
    4aae:	54e2      	strb	r2, [r4, r3]
    4ab0:	3bde      	subs	r3, #222	; 0xde
    4ab2:	3bff      	subs	r3, #255	; 0xff
    4ab4:	3a7a      	subs	r2, #122	; 0x7a
    4ab6:	54a3      	strb	r3, [r4, r2]
    4ab8:	3201      	adds	r2, #1
    4aba:	54a3      	strb	r3, [r4, r2]
    4abc:	330f      	adds	r3, #15
    4abe:	3201      	adds	r2, #1
    4ac0:	54a3      	strb	r3, [r4, r2]
    4ac2:	320f      	adds	r2, #15
    4ac4:	2133      	movs	r1, #51	; 0x33
    4ac6:	5462      	strb	r2, [r4, r1]
    4ac8:	313f      	adds	r1, #63	; 0x3f
    4aca:	2085      	movs	r0, #133	; 0x85
    4acc:	0080      	lsls	r0, r0, #2
    4ace:	5421      	strb	r1, [r4, r0]
    4ad0:	4817      	ldr	r0, [pc, #92]	; (4b30 <sync+0xcc>)
    4ad2:	5421      	strb	r1, [r4, r0]
    4ad4:	4917      	ldr	r1, [pc, #92]	; (4b34 <sync+0xd0>)
    4ad6:	5462      	strb	r2, [r4, r1]
    4ad8:	4a17      	ldr	r2, [pc, #92]	; (4b38 <sync+0xd4>)
    4ada:	54a3      	strb	r3, [r4, r2]
    4adc:	6923      	ldr	r3, [r4, #16]
    4ade:	3201      	adds	r2, #1
    4ae0:	54a3      	strb	r3, [r4, r2]
    4ae2:	0a19      	lsrs	r1, r3, #8
    4ae4:	4a15      	ldr	r2, [pc, #84]	; (4b3c <sync+0xd8>)
    4ae6:	54a1      	strb	r1, [r4, r2]
    4ae8:	0c19      	lsrs	r1, r3, #16
    4aea:	4a15      	ldr	r2, [pc, #84]	; (4b40 <sync+0xdc>)
    4aec:	54a1      	strb	r1, [r4, r2]
    4aee:	0e1b      	lsrs	r3, r3, #24
    4af0:	4a14      	ldr	r2, [pc, #80]	; (4b44 <sync+0xe0>)
    4af2:	54a3      	strb	r3, [r4, r2]
    4af4:	68e3      	ldr	r3, [r4, #12]
    4af6:	3201      	adds	r2, #1
    4af8:	54a3      	strb	r3, [r4, r2]
    4afa:	0a19      	lsrs	r1, r3, #8
    4afc:	4a12      	ldr	r2, [pc, #72]	; (4b48 <sync+0xe4>)
    4afe:	54a1      	strb	r1, [r4, r2]
    4b00:	0c19      	lsrs	r1, r3, #16
    4b02:	4a12      	ldr	r2, [pc, #72]	; (4b4c <sync+0xe8>)
    4b04:	54a1      	strb	r1, [r4, r2]
    4b06:	0e1b      	lsrs	r3, r3, #24
    4b08:	4a11      	ldr	r2, [pc, #68]	; (4b50 <sync+0xec>)
    4b0a:	54a3      	strb	r3, [r4, r2]
    4b0c:	7860      	ldrb	r0, [r4, #1]
    4b0e:	2301      	movs	r3, #1
    4b10:	6962      	ldr	r2, [r4, #20]
    4b12:	0029      	movs	r1, r5
    4b14:	4d0f      	ldr	r5, [pc, #60]	; (4b54 <sync+0xf0>)
    4b16:	47a8      	blx	r5
    4b18:	7166      	strb	r6, [r4, #5]
    4b1a:	e7ad      	b.n	4a78 <sync+0x14>
    4b1c:	0000400d 	.word	0x0000400d
    4b20:	00003a71 	.word	0x00003a71
    4b24:	00003b41 	.word	0x00003b41
    4b28:	0000022e 	.word	0x0000022e
    4b2c:	0000022f 	.word	0x0000022f
    4b30:	00000215 	.word	0x00000215
    4b34:	00000216 	.word	0x00000216
    4b38:	00000217 	.word	0x00000217
    4b3c:	00000219 	.word	0x00000219
    4b40:	0000021a 	.word	0x0000021a
    4b44:	0000021b 	.word	0x0000021b
    4b48:	0000021d 	.word	0x0000021d
    4b4c:	0000021e 	.word	0x0000021e
    4b50:	0000021f 	.word	0x0000021f
    4b54:	000039ed 	.word	0x000039ed

00004b58 <follow_path>:
    4b58:	b5f0      	push	{r4, r5, r6, r7, lr}
    4b5a:	46de      	mov	lr, fp
    4b5c:	4657      	mov	r7, sl
    4b5e:	464e      	mov	r6, r9
    4b60:	4645      	mov	r5, r8
    4b62:	b5e0      	push	{r5, r6, r7, lr}
    4b64:	b083      	sub	sp, #12
    4b66:	4682      	mov	sl, r0
    4b68:	000d      	movs	r5, r1
    4b6a:	780b      	ldrb	r3, [r1, #0]
    4b6c:	2b2f      	cmp	r3, #47	; 0x2f
    4b6e:	d00f      	beq.n	4b90 <follow_path+0x38>
    4b70:	2b5c      	cmp	r3, #92	; 0x5c
    4b72:	d00d      	beq.n	4b90 <follow_path+0x38>
    4b74:	2300      	movs	r3, #0
    4b76:	4652      	mov	r2, sl
    4b78:	6093      	str	r3, [r2, #8]
    4b7a:	782b      	ldrb	r3, [r5, #0]
    4b7c:	4657      	mov	r7, sl
    4b7e:	2b1f      	cmp	r3, #31
    4b80:	d809      	bhi.n	4b96 <follow_path+0x3e>
    4b82:	2100      	movs	r1, #0
    4b84:	4650      	mov	r0, sl
    4b86:	4bb2      	ldr	r3, [pc, #712]	; (4e50 <follow_path+0x2f8>)
    4b88:	4798      	blx	r3
    4b8a:	2300      	movs	r3, #0
    4b8c:	617b      	str	r3, [r7, #20]
    4b8e:	e13a      	b.n	4e06 <follow_path+0x2ae>
    4b90:	3501      	adds	r5, #1
    4b92:	e7ef      	b.n	4b74 <follow_path+0x1c>
    4b94:	3501      	adds	r5, #1
    4b96:	7828      	ldrb	r0, [r5, #0]
    4b98:	282f      	cmp	r0, #47	; 0x2f
    4b9a:	d0fb      	beq.n	4b94 <follow_path+0x3c>
    4b9c:	285c      	cmp	r0, #92	; 0x5c
    4b9e:	d0f9      	beq.n	4b94 <follow_path+0x3c>
    4ba0:	69fb      	ldr	r3, [r7, #28]
    4ba2:	469a      	mov	sl, r3
    4ba4:	b280      	uxth	r0, r0
    4ba6:	281f      	cmp	r0, #31
    4ba8:	d800      	bhi.n	4bac <follow_path+0x54>
    4baa:	e13b      	b.n	4e24 <follow_path+0x2cc>
    4bac:	282f      	cmp	r0, #47	; 0x2f
    4bae:	d100      	bne.n	4bb2 <follow_path+0x5a>
    4bb0:	e13b      	b.n	4e2a <follow_path+0x2d2>
    4bb2:	285c      	cmp	r0, #92	; 0x5c
    4bb4:	d100      	bne.n	4bb8 <follow_path+0x60>
    4bb6:	e13b      	b.n	4e30 <follow_path+0x2d8>
    4bb8:	1c6e      	adds	r6, r5, #1
    4bba:	2401      	movs	r4, #1
    4bbc:	2380      	movs	r3, #128	; 0x80
    4bbe:	005b      	lsls	r3, r3, #1
    4bc0:	4698      	mov	r8, r3
    4bc2:	46bb      	mov	fp, r7
    4bc4:	002b      	movs	r3, r5
    4bc6:	0025      	movs	r5, r4
    4bc8:	0034      	movs	r4, r6
    4bca:	4656      	mov	r6, sl
    4bcc:	4699      	mov	r9, r3
    4bce:	e011      	b.n	4bf4 <follow_path+0x9c>
    4bd0:	2b00      	cmp	r3, #0
    4bd2:	d135      	bne.n	4c40 <follow_path+0xe8>
    4bd4:	8030      	strh	r0, [r6, #0]
    4bd6:	1c6b      	adds	r3, r5, #1
    4bd8:	7820      	ldrb	r0, [r4, #0]
    4bda:	281f      	cmp	r0, #31
    4bdc:	d91e      	bls.n	4c1c <follow_path+0xc4>
    4bde:	282f      	cmp	r0, #47	; 0x2f
    4be0:	d100      	bne.n	4be4 <follow_path+0x8c>
    4be2:	e128      	b.n	4e36 <follow_path+0x2de>
    4be4:	285c      	cmp	r0, #92	; 0x5c
    4be6:	d100      	bne.n	4bea <follow_path+0x92>
    4be8:	e142      	b.n	4e70 <follow_path+0x318>
    4bea:	3602      	adds	r6, #2
    4bec:	3401      	adds	r4, #1
    4bee:	4543      	cmp	r3, r8
    4bf0:	d026      	beq.n	4c40 <follow_path+0xe8>
    4bf2:	001d      	movs	r5, r3
    4bf4:	2101      	movs	r1, #1
    4bf6:	4b97      	ldr	r3, [pc, #604]	; (4e54 <follow_path+0x2fc>)
    4bf8:	4798      	blx	r3
    4bfa:	1e01      	subs	r1, r0, #0
    4bfc:	d020      	beq.n	4c40 <follow_path+0xe8>
    4bfe:	287f      	cmp	r0, #127	; 0x7f
    4c00:	d8e8      	bhi.n	4bd4 <follow_path+0x7c>
    4c02:	2822      	cmp	r0, #34	; 0x22
    4c04:	d100      	bne.n	4c08 <follow_path+0xb0>
    4c06:	e0fd      	b.n	4e04 <follow_path+0x2ac>
    4c08:	232a      	movs	r3, #42	; 0x2a
    4c0a:	4a93      	ldr	r2, [pc, #588]	; (4e58 <follow_path+0x300>)
    4c0c:	b29f      	uxth	r7, r3
    4c0e:	428f      	cmp	r7, r1
    4c10:	d0de      	beq.n	4bd0 <follow_path+0x78>
    4c12:	3201      	adds	r2, #1
    4c14:	7813      	ldrb	r3, [r2, #0]
    4c16:	2b00      	cmp	r3, #0
    4c18:	d1f8      	bne.n	4c0c <follow_path+0xb4>
    4c1a:	e7db      	b.n	4bd4 <follow_path+0x7c>
    4c1c:	002c      	movs	r4, r5
    4c1e:	465f      	mov	r7, fp
    4c20:	464d      	mov	r5, r9
    4c22:	18ed      	adds	r5, r5, r3
    4c24:	2604      	movs	r6, #4
    4c26:	e10b      	b.n	4e40 <follow_path+0x2e8>
    4c28:	3c01      	subs	r4, #1
    4c2a:	3b02      	subs	r3, #2
    4c2c:	2c00      	cmp	r4, #0
    4c2e:	d100      	bne.n	4c32 <follow_path+0xda>
    4c30:	e0e8      	b.n	4e04 <follow_path+0x2ac>
    4c32:	881a      	ldrh	r2, [r3, #0]
    4c34:	2a20      	cmp	r2, #32
    4c36:	d0f7      	beq.n	4c28 <follow_path+0xd0>
    4c38:	2a2e      	cmp	r2, #46	; 0x2e
    4c3a:	d0f5      	beq.n	4c28 <follow_path+0xd0>
    4c3c:	2c00      	cmp	r4, #0
    4c3e:	d101      	bne.n	4c44 <follow_path+0xec>
    4c40:	2006      	movs	r0, #6
    4c42:	e0e0      	b.n	4e06 <follow_path+0x2ae>
    4c44:	0063      	lsls	r3, r4, #1
    4c46:	4698      	mov	r8, r3
    4c48:	2300      	movs	r3, #0
    4c4a:	4652      	mov	r2, sl
    4c4c:	4641      	mov	r1, r8
    4c4e:	5253      	strh	r3, [r2, r1]
    4c50:	220b      	movs	r2, #11
    4c52:	2120      	movs	r1, #32
    4c54:	69b8      	ldr	r0, [r7, #24]
    4c56:	4b81      	ldr	r3, [pc, #516]	; (4e5c <follow_path+0x304>)
    4c58:	4798      	blx	r3
    4c5a:	4652      	mov	r2, sl
    4c5c:	2300      	movs	r3, #0
    4c5e:	e001      	b.n	4c64 <follow_path+0x10c>
    4c60:	3301      	adds	r3, #1
    4c62:	3202      	adds	r2, #2
    4c64:	8811      	ldrh	r1, [r2, #0]
    4c66:	2920      	cmp	r1, #32
    4c68:	d0fa      	beq.n	4c60 <follow_path+0x108>
    4c6a:	292e      	cmp	r1, #46	; 0x2e
    4c6c:	d0f8      	beq.n	4c60 <follow_path+0x108>
    4c6e:	2b00      	cmp	r3, #0
    4c70:	d001      	beq.n	4c76 <follow_path+0x11e>
    4c72:	2203      	movs	r2, #3
    4c74:	4316      	orrs	r6, r2
    4c76:	4652      	mov	r2, sl
    4c78:	4442      	add	r2, r8
    4c7a:	3a02      	subs	r2, #2
    4c7c:	8812      	ldrh	r2, [r2, #0]
    4c7e:	2a2e      	cmp	r2, #46	; 0x2e
    4c80:	d009      	beq.n	4c96 <follow_path+0x13e>
    4c82:	4642      	mov	r2, r8
    4c84:	3a04      	subs	r2, #4
    4c86:	4452      	add	r2, sl
    4c88:	3c01      	subs	r4, #1
    4c8a:	2c00      	cmp	r4, #0
    4c8c:	d003      	beq.n	4c96 <follow_path+0x13e>
    4c8e:	3a02      	subs	r2, #2
    4c90:	8851      	ldrh	r1, [r2, #2]
    4c92:	292e      	cmp	r1, #46	; 0x2e
    4c94:	d1f8      	bne.n	4c88 <follow_path+0x130>
    4c96:	2208      	movs	r2, #8
    4c98:	9201      	str	r2, [sp, #4]
    4c9a:	2200      	movs	r2, #0
    4c9c:	4693      	mov	fp, r2
    4c9e:	4691      	mov	r9, r2
    4ca0:	46a0      	mov	r8, r4
    4ca2:	e006      	b.n	4cb2 <follow_path+0x15a>
    4ca4:	4544      	cmp	r4, r8
    4ca6:	d100      	bne.n	4caa <follow_path+0x152>
    4ca8:	e0e6      	b.n	4e78 <follow_path+0x320>
    4caa:	2303      	movs	r3, #3
    4cac:	431e      	orrs	r6, r3
    4cae:	b2f6      	uxtb	r6, r6
    4cb0:	0023      	movs	r3, r4
    4cb2:	1c5c      	adds	r4, r3, #1
    4cb4:	005b      	lsls	r3, r3, #1
    4cb6:	4652      	mov	r2, sl
    4cb8:	5a98      	ldrh	r0, [r3, r2]
    4cba:	2800      	cmp	r0, #0
    4cbc:	d02c      	beq.n	4d18 <follow_path+0x1c0>
    4cbe:	2820      	cmp	r0, #32
    4cc0:	d0f3      	beq.n	4caa <follow_path+0x152>
    4cc2:	282e      	cmp	r0, #46	; 0x2e
    4cc4:	d0ee      	beq.n	4ca4 <follow_path+0x14c>
    4cc6:	9b01      	ldr	r3, [sp, #4]
    4cc8:	459b      	cmp	fp, r3
    4cca:	d219      	bcs.n	4d00 <follow_path+0x1a8>
    4ccc:	4544      	cmp	r4, r8
    4cce:	d100      	bne.n	4cd2 <follow_path+0x17a>
    4cd0:	e0d2      	b.n	4e78 <follow_path+0x320>
    4cd2:	287f      	cmp	r0, #127	; 0x7f
    4cd4:	d85e      	bhi.n	4d94 <follow_path+0x23c>
    4cd6:	282b      	cmp	r0, #43	; 0x2b
    4cd8:	d06e      	beq.n	4db8 <follow_path+0x260>
    4cda:	232c      	movs	r3, #44	; 0x2c
    4cdc:	4a60      	ldr	r2, [pc, #384]	; (4e60 <follow_path+0x308>)
    4cde:	b299      	uxth	r1, r3
    4ce0:	4281      	cmp	r1, r0
    4ce2:	d067      	beq.n	4db4 <follow_path+0x25c>
    4ce4:	3201      	adds	r2, #1
    4ce6:	7813      	ldrb	r3, [r2, #0]
    4ce8:	2b00      	cmp	r3, #0
    4cea:	d1f8      	bne.n	4cde <follow_path+0x186>
    4cec:	0003      	movs	r3, r0
    4cee:	3b41      	subs	r3, #65	; 0x41
    4cf0:	b29b      	uxth	r3, r3
    4cf2:	2b19      	cmp	r3, #25
    4cf4:	d86c      	bhi.n	4dd0 <follow_path+0x278>
    4cf6:	2302      	movs	r3, #2
    4cf8:	464a      	mov	r2, r9
    4cfa:	431a      	orrs	r2, r3
    4cfc:	4691      	mov	r9, r2
    4cfe:	e05f      	b.n	4dc0 <follow_path+0x268>
    4d00:	9b01      	ldr	r3, [sp, #4]
    4d02:	2b0b      	cmp	r3, #11
    4d04:	d03b      	beq.n	4d7e <follow_path+0x226>
    4d06:	4544      	cmp	r4, r8
    4d08:	d100      	bne.n	4d0c <follow_path+0x1b4>
    4d0a:	e0b9      	b.n	4e80 <follow_path+0x328>
    4d0c:	2303      	movs	r3, #3
    4d0e:	431e      	orrs	r6, r3
    4d10:	b2f6      	uxtb	r6, r6
    4d12:	4544      	cmp	r4, r8
    4d14:	d800      	bhi.n	4d18 <follow_path+0x1c0>
    4d16:	e0b3      	b.n	4e80 <follow_path+0x328>
    4d18:	69bb      	ldr	r3, [r7, #24]
    4d1a:	781a      	ldrb	r2, [r3, #0]
    4d1c:	2ae5      	cmp	r2, #229	; 0xe5
    4d1e:	d036      	beq.n	4d8e <follow_path+0x236>
    4d20:	9b01      	ldr	r3, [sp, #4]
    4d22:	2b08      	cmp	r3, #8
    4d24:	d060      	beq.n	4de8 <follow_path+0x290>
    4d26:	230c      	movs	r3, #12
    4d28:	464a      	mov	r2, r9
    4d2a:	4013      	ands	r3, r2
    4d2c:	2b0c      	cmp	r3, #12
    4d2e:	d060      	beq.n	4df2 <follow_path+0x29a>
    4d30:	43d2      	mvns	r2, r2
    4d32:	0792      	lsls	r2, r2, #30
    4d34:	d05d      	beq.n	4df2 <follow_path+0x29a>
    4d36:	07b2      	lsls	r2, r6, #30
    4d38:	d406      	bmi.n	4d48 <follow_path+0x1f0>
    4d3a:	2203      	movs	r2, #3
    4d3c:	4649      	mov	r1, r9
    4d3e:	400a      	ands	r2, r1
    4d40:	2a01      	cmp	r2, #1
    4d42:	d059      	beq.n	4df8 <follow_path+0x2a0>
    4d44:	2b04      	cmp	r3, #4
    4d46:	d05a      	beq.n	4dfe <follow_path+0x2a6>
    4d48:	69bb      	ldr	r3, [r7, #24]
    4d4a:	72de      	strb	r6, [r3, #11]
    4d4c:	0038      	movs	r0, r7
    4d4e:	4b45      	ldr	r3, [pc, #276]	; (4e64 <follow_path+0x30c>)
    4d50:	4798      	blx	r3
    4d52:	69bb      	ldr	r3, [r7, #24]
    4d54:	7adb      	ldrb	r3, [r3, #11]
    4d56:	2800      	cmp	r0, #0
    4d58:	d15c      	bne.n	4e14 <follow_path+0x2bc>
    4d5a:	075b      	lsls	r3, r3, #29
    4d5c:	d453      	bmi.n	4e06 <follow_path+0x2ae>
    4d5e:	697a      	ldr	r2, [r7, #20]
    4d60:	7ad3      	ldrb	r3, [r2, #11]
    4d62:	06db      	lsls	r3, r3, #27
    4d64:	d55c      	bpl.n	4e20 <follow_path+0x2c8>
    4d66:	7d51      	ldrb	r1, [r2, #21]
    4d68:	0209      	lsls	r1, r1, #8
    4d6a:	7d13      	ldrb	r3, [r2, #20]
    4d6c:	430b      	orrs	r3, r1
    4d6e:	041b      	lsls	r3, r3, #16
    4d70:	7ed1      	ldrb	r1, [r2, #27]
    4d72:	0209      	lsls	r1, r1, #8
    4d74:	7e92      	ldrb	r2, [r2, #26]
    4d76:	430a      	orrs	r2, r1
    4d78:	4313      	orrs	r3, r2
    4d7a:	60bb      	str	r3, [r7, #8]
    4d7c:	e70b      	b.n	4b96 <follow_path+0x3e>
    4d7e:	2303      	movs	r3, #3
    4d80:	431e      	orrs	r6, r3
    4d82:	69bb      	ldr	r3, [r7, #24]
    4d84:	781a      	ldrb	r2, [r3, #0]
    4d86:	2ae5      	cmp	r2, #229	; 0xe5
    4d88:	d1cd      	bne.n	4d26 <follow_path+0x1ce>
    4d8a:	220b      	movs	r2, #11
    4d8c:	9201      	str	r2, [sp, #4]
    4d8e:	2205      	movs	r2, #5
    4d90:	701a      	strb	r2, [r3, #0]
    4d92:	e7c5      	b.n	4d20 <follow_path+0x1c8>
    4d94:	2100      	movs	r1, #0
    4d96:	4b2f      	ldr	r3, [pc, #188]	; (4e54 <follow_path+0x2fc>)
    4d98:	4798      	blx	r3
    4d9a:	2800      	cmp	r0, #0
    4d9c:	d100      	bne.n	4da0 <follow_path+0x248>
    4d9e:	e079      	b.n	4e94 <follow_path+0x33c>
    4da0:	4b31      	ldr	r3, [pc, #196]	; (4e68 <follow_path+0x310>)
    4da2:	469c      	mov	ip, r3
    4da4:	4460      	add	r0, ip
    4da6:	3880      	subs	r0, #128	; 0x80
    4da8:	7800      	ldrb	r0, [r0, #0]
    4daa:	2302      	movs	r3, #2
    4dac:	431e      	orrs	r6, r3
    4dae:	2800      	cmp	r0, #0
    4db0:	d002      	beq.n	4db8 <follow_path+0x260>
    4db2:	e790      	b.n	4cd6 <follow_path+0x17e>
    4db4:	2b00      	cmp	r3, #0
    4db6:	d099      	beq.n	4cec <follow_path+0x194>
    4db8:	2303      	movs	r3, #3
    4dba:	431e      	orrs	r6, r3
    4dbc:	b2f6      	uxtb	r6, r6
    4dbe:	205f      	movs	r0, #95	; 0x5f
    4dc0:	69bb      	ldr	r3, [r7, #24]
    4dc2:	465a      	mov	r2, fp
    4dc4:	5498      	strb	r0, [r3, r2]
    4dc6:	0023      	movs	r3, r4
    4dc8:	2201      	movs	r2, #1
    4dca:	4694      	mov	ip, r2
    4dcc:	44e3      	add	fp, ip
    4dce:	e770      	b.n	4cb2 <follow_path+0x15a>
    4dd0:	0003      	movs	r3, r0
    4dd2:	3b61      	subs	r3, #97	; 0x61
    4dd4:	b29b      	uxth	r3, r3
    4dd6:	2b19      	cmp	r3, #25
    4dd8:	d8f2      	bhi.n	4dc0 <follow_path+0x268>
    4dda:	2301      	movs	r3, #1
    4ddc:	464a      	mov	r2, r9
    4dde:	431a      	orrs	r2, r3
    4de0:	4691      	mov	r9, r2
    4de2:	3820      	subs	r0, #32
    4de4:	b280      	uxth	r0, r0
    4de6:	e7eb      	b.n	4dc0 <follow_path+0x268>
    4de8:	464b      	mov	r3, r9
    4dea:	009b      	lsls	r3, r3, #2
    4dec:	b2db      	uxtb	r3, r3
    4dee:	4699      	mov	r9, r3
    4df0:	e799      	b.n	4d26 <follow_path+0x1ce>
    4df2:	2202      	movs	r2, #2
    4df4:	4316      	orrs	r6, r2
    4df6:	e79e      	b.n	4d36 <follow_path+0x1de>
    4df8:	320f      	adds	r2, #15
    4dfa:	4316      	orrs	r6, r2
    4dfc:	e7a2      	b.n	4d44 <follow_path+0x1ec>
    4dfe:	3304      	adds	r3, #4
    4e00:	431e      	orrs	r6, r3
    4e02:	e7a1      	b.n	4d48 <follow_path+0x1f0>
    4e04:	2006      	movs	r0, #6
    4e06:	b003      	add	sp, #12
    4e08:	bc3c      	pop	{r2, r3, r4, r5}
    4e0a:	4690      	mov	r8, r2
    4e0c:	4699      	mov	r9, r3
    4e0e:	46a2      	mov	sl, r4
    4e10:	46ab      	mov	fp, r5
    4e12:	bdf0      	pop	{r4, r5, r6, r7, pc}
    4e14:	2804      	cmp	r0, #4
    4e16:	d1f6      	bne.n	4e06 <follow_path+0x2ae>
    4e18:	075b      	lsls	r3, r3, #29
    4e1a:	d4f4      	bmi.n	4e06 <follow_path+0x2ae>
    4e1c:	3001      	adds	r0, #1
    4e1e:	e7f2      	b.n	4e06 <follow_path+0x2ae>
    4e20:	2005      	movs	r0, #5
    4e22:	e7f0      	b.n	4e06 <follow_path+0x2ae>
    4e24:	2301      	movs	r3, #1
    4e26:	2400      	movs	r4, #0
    4e28:	e6fb      	b.n	4c22 <follow_path+0xca>
    4e2a:	2301      	movs	r3, #1
    4e2c:	2400      	movs	r4, #0
    4e2e:	e005      	b.n	4e3c <follow_path+0x2e4>
    4e30:	2301      	movs	r3, #1
    4e32:	2400      	movs	r4, #0
    4e34:	e002      	b.n	4e3c <follow_path+0x2e4>
    4e36:	002c      	movs	r4, r5
    4e38:	465f      	mov	r7, fp
    4e3a:	464d      	mov	r5, r9
    4e3c:	18ed      	adds	r5, r5, r3
    4e3e:	2600      	movs	r6, #0
    4e40:	2c00      	cmp	r4, #0
    4e42:	d0df      	beq.n	4e04 <follow_path+0x2ac>
    4e44:	4b09      	ldr	r3, [pc, #36]	; (4e6c <follow_path+0x314>)
    4e46:	18e3      	adds	r3, r4, r3
    4e48:	005b      	lsls	r3, r3, #1
    4e4a:	4453      	add	r3, sl
    4e4c:	e6f1      	b.n	4c32 <follow_path+0xda>
    4e4e:	46c0      	nop			; (mov r8, r8)
    4e50:	000041a9 	.word	0x000041a9
    4e54:	0000553d 	.word	0x0000553d
    4e58:	00006fb9 	.word	0x00006fb9
    4e5c:	00003b41 	.word	0x00003b41
    4e60:	00006fc5 	.word	0x00006fc5
    4e64:	000045e9 	.word	0x000045e9
    4e68:	00006f38 	.word	0x00006f38
    4e6c:	7fffffff 	.word	0x7fffffff
    4e70:	002c      	movs	r4, r5
    4e72:	465f      	mov	r7, fp
    4e74:	464d      	mov	r5, r9
    4e76:	e7e1      	b.n	4e3c <follow_path+0x2e4>
    4e78:	9b01      	ldr	r3, [sp, #4]
    4e7a:	2b0b      	cmp	r3, #11
    4e7c:	d100      	bne.n	4e80 <follow_path+0x328>
    4e7e:	e77e      	b.n	4d7e <follow_path+0x226>
    4e80:	464b      	mov	r3, r9
    4e82:	009b      	lsls	r3, r3, #2
    4e84:	b2db      	uxtb	r3, r3
    4e86:	4699      	mov	r9, r3
    4e88:	4643      	mov	r3, r8
    4e8a:	220b      	movs	r2, #11
    4e8c:	9201      	str	r2, [sp, #4]
    4e8e:	3a03      	subs	r2, #3
    4e90:	4693      	mov	fp, r2
    4e92:	e70e      	b.n	4cb2 <follow_path+0x15a>
    4e94:	2302      	movs	r3, #2
    4e96:	431e      	orrs	r6, r3
    4e98:	e78e      	b.n	4db8 <follow_path+0x260>
    4e9a:	46c0      	nop			; (mov r8, r8)

00004e9c <f_mount>:
    4e9c:	230b      	movs	r3, #11
    4e9e:	2807      	cmp	r0, #7
    4ea0:	d901      	bls.n	4ea6 <f_mount+0xa>
    4ea2:	0018      	movs	r0, r3
    4ea4:	4770      	bx	lr
    4ea6:	0083      	lsls	r3, r0, #2
    4ea8:	4a07      	ldr	r2, [pc, #28]	; (4ec8 <f_mount+0x2c>)
    4eaa:	589b      	ldr	r3, [r3, r2]
    4eac:	2b00      	cmp	r3, #0
    4eae:	d001      	beq.n	4eb4 <f_mount+0x18>
    4eb0:	2200      	movs	r2, #0
    4eb2:	701a      	strb	r2, [r3, #0]
    4eb4:	2900      	cmp	r1, #0
    4eb6:	d001      	beq.n	4ebc <f_mount+0x20>
    4eb8:	2300      	movs	r3, #0
    4eba:	700b      	strb	r3, [r1, #0]
    4ebc:	0080      	lsls	r0, r0, #2
    4ebe:	4b02      	ldr	r3, [pc, #8]	; (4ec8 <f_mount+0x2c>)
    4ec0:	50c1      	str	r1, [r0, r3]
    4ec2:	2300      	movs	r3, #0
    4ec4:	e7ed      	b.n	4ea2 <f_mount+0x6>
    4ec6:	46c0      	nop			; (mov r8, r8)
    4ec8:	200001a4 	.word	0x200001a4

00004ecc <f_open>:
    4ecc:	b5f0      	push	{r4, r5, r6, r7, lr}
    4ece:	46c6      	mov	lr, r8
    4ed0:	b500      	push	{lr}
    4ed2:	4c59      	ldr	r4, [pc, #356]	; (5038 <f_open+0x16c>)
    4ed4:	44a5      	add	sp, r4
    4ed6:	0005      	movs	r5, r0
    4ed8:	9101      	str	r1, [sp, #4]
    4eda:	0017      	movs	r7, r2
    4edc:	2300      	movs	r3, #0
    4ede:	6003      	str	r3, [r0, #0]
    4ee0:	261f      	movs	r6, #31
    4ee2:	4016      	ands	r6, r2
    4ee4:	221e      	movs	r2, #30
    4ee6:	403a      	ands	r2, r7
    4ee8:	a985      	add	r1, sp, #532	; 0x214
    4eea:	a801      	add	r0, sp, #4
    4eec:	4b53      	ldr	r3, [pc, #332]	; (503c <f_open+0x170>)
    4eee:	4798      	blx	r3
    4ef0:	ab82      	add	r3, sp, #520	; 0x208
    4ef2:	938b      	str	r3, [sp, #556]	; 0x22c
    4ef4:	ab02      	add	r3, sp, #8
    4ef6:	938c      	str	r3, [sp, #560]	; 0x230
    4ef8:	2800      	cmp	r0, #0
    4efa:	d006      	beq.n	4f0a <f_open+0x3e>
    4efc:	9c8a      	ldr	r4, [sp, #552]	; 0x228
    4efe:	231c      	movs	r3, #28
    4f00:	423b      	tst	r3, r7
    4f02:	d145      	bne.n	4f90 <f_open+0xc4>
    4f04:	2800      	cmp	r0, #0
    4f06:	d13d      	bne.n	4f84 <f_open+0xb8>
    4f08:	e00c      	b.n	4f24 <f_open+0x58>
    4f0a:	9901      	ldr	r1, [sp, #4]
    4f0c:	a885      	add	r0, sp, #532	; 0x214
    4f0e:	4b4c      	ldr	r3, [pc, #304]	; (5040 <f_open+0x174>)
    4f10:	4798      	blx	r3
    4f12:	9c8a      	ldr	r4, [sp, #552]	; 0x228
    4f14:	2800      	cmp	r0, #0
    4f16:	d1f2      	bne.n	4efe <f_open+0x32>
    4f18:	2c00      	cmp	r4, #0
    4f1a:	d100      	bne.n	4f1e <f_open+0x52>
    4f1c:	e086      	b.n	502c <f_open+0x160>
    4f1e:	231c      	movs	r3, #28
    4f20:	423b      	tst	r3, r7
    4f22:	d146      	bne.n	4fb2 <f_open+0xe6>
    4f24:	7ae3      	ldrb	r3, [r4, #11]
    4f26:	2004      	movs	r0, #4
    4f28:	06da      	lsls	r2, r3, #27
    4f2a:	d42b      	bmi.n	4f84 <f_open+0xb8>
    4f2c:	07ba      	lsls	r2, r7, #30
    4f2e:	d502      	bpl.n	4f36 <f_open+0x6a>
    4f30:	3003      	adds	r0, #3
    4f32:	07db      	lsls	r3, r3, #31
    4f34:	d426      	bmi.n	4f84 <f_open+0xb8>
    4f36:	073b      	lsls	r3, r7, #28
    4f38:	d501      	bpl.n	4f3e <f_open+0x72>
    4f3a:	2320      	movs	r3, #32
    4f3c:	431e      	orrs	r6, r3
    4f3e:	9b85      	ldr	r3, [sp, #532]	; 0x214
    4f40:	6adb      	ldr	r3, [r3, #44]	; 0x2c
    4f42:	61eb      	str	r3, [r5, #28]
    4f44:	622c      	str	r4, [r5, #32]
    4f46:	71ae      	strb	r6, [r5, #6]
    4f48:	7d62      	ldrb	r2, [r4, #21]
    4f4a:	0212      	lsls	r2, r2, #8
    4f4c:	7d23      	ldrb	r3, [r4, #20]
    4f4e:	4313      	orrs	r3, r2
    4f50:	041b      	lsls	r3, r3, #16
    4f52:	7ee1      	ldrb	r1, [r4, #27]
    4f54:	0209      	lsls	r1, r1, #8
    4f56:	7ea2      	ldrb	r2, [r4, #26]
    4f58:	430a      	orrs	r2, r1
    4f5a:	4313      	orrs	r3, r2
    4f5c:	612b      	str	r3, [r5, #16]
    4f5e:	7fe3      	ldrb	r3, [r4, #31]
    4f60:	061b      	lsls	r3, r3, #24
    4f62:	7fa2      	ldrb	r2, [r4, #30]
    4f64:	0412      	lsls	r2, r2, #16
    4f66:	4313      	orrs	r3, r2
    4f68:	7f22      	ldrb	r2, [r4, #28]
    4f6a:	4313      	orrs	r3, r2
    4f6c:	7f62      	ldrb	r2, [r4, #29]
    4f6e:	0212      	lsls	r2, r2, #8
    4f70:	4313      	orrs	r3, r2
    4f72:	60eb      	str	r3, [r5, #12]
    4f74:	2300      	movs	r3, #0
    4f76:	60ab      	str	r3, [r5, #8]
    4f78:	61ab      	str	r3, [r5, #24]
    4f7a:	9b85      	ldr	r3, [sp, #532]	; 0x214
    4f7c:	602b      	str	r3, [r5, #0]
    4f7e:	88db      	ldrh	r3, [r3, #6]
    4f80:	80ab      	strh	r3, [r5, #4]
    4f82:	2000      	movs	r0, #0
    4f84:	238e      	movs	r3, #142	; 0x8e
    4f86:	009b      	lsls	r3, r3, #2
    4f88:	449d      	add	sp, r3
    4f8a:	bc04      	pop	{r2}
    4f8c:	4690      	mov	r8, r2
    4f8e:	bdf0      	pop	{r4, r5, r6, r7, pc}
    4f90:	2804      	cmp	r0, #4
    4f92:	d005      	beq.n	4fa0 <f_open+0xd4>
    4f94:	2308      	movs	r3, #8
    4f96:	431e      	orrs	r6, r3
    4f98:	9c8a      	ldr	r4, [sp, #552]	; 0x228
    4f9a:	2800      	cmp	r0, #0
    4f9c:	d0d3      	beq.n	4f46 <f_open+0x7a>
    4f9e:	e7f1      	b.n	4f84 <f_open+0xb8>
    4fa0:	a885      	add	r0, sp, #532	; 0x214
    4fa2:	4b28      	ldr	r3, [pc, #160]	; (5044 <f_open+0x178>)
    4fa4:	4798      	blx	r3
    4fa6:	2308      	movs	r3, #8
    4fa8:	431e      	orrs	r6, r3
    4faa:	9c8a      	ldr	r4, [sp, #552]	; 0x228
    4fac:	2800      	cmp	r0, #0
    4fae:	d008      	beq.n	4fc2 <f_open+0xf6>
    4fb0:	e7e8      	b.n	4f84 <f_open+0xb8>
    4fb2:	7ae3      	ldrb	r3, [r4, #11]
    4fb4:	2211      	movs	r2, #17
    4fb6:	2007      	movs	r0, #7
    4fb8:	421a      	tst	r2, r3
    4fba:	d1e3      	bne.n	4f84 <f_open+0xb8>
    4fbc:	3001      	adds	r0, #1
    4fbe:	077b      	lsls	r3, r7, #29
    4fc0:	d4e0      	bmi.n	4f84 <f_open+0xb8>
    4fc2:	0733      	lsls	r3, r6, #28
    4fc4:	d5bb      	bpl.n	4f3e <f_open+0x72>
    4fc6:	4b20      	ldr	r3, [pc, #128]	; (5048 <f_open+0x17c>)
    4fc8:	4798      	blx	r3
    4fca:	73a0      	strb	r0, [r4, #14]
    4fcc:	0a03      	lsrs	r3, r0, #8
    4fce:	73e3      	strb	r3, [r4, #15]
    4fd0:	0c03      	lsrs	r3, r0, #16
    4fd2:	7423      	strb	r3, [r4, #16]
    4fd4:	0e00      	lsrs	r0, r0, #24
    4fd6:	7460      	strb	r0, [r4, #17]
    4fd8:	2300      	movs	r3, #0
    4fda:	72e3      	strb	r3, [r4, #11]
    4fdc:	7723      	strb	r3, [r4, #28]
    4fde:	7763      	strb	r3, [r4, #29]
    4fe0:	77a3      	strb	r3, [r4, #30]
    4fe2:	77e3      	strb	r3, [r4, #31]
    4fe4:	7d62      	ldrb	r2, [r4, #21]
    4fe6:	0212      	lsls	r2, r2, #8
    4fe8:	7d27      	ldrb	r7, [r4, #20]
    4fea:	4317      	orrs	r7, r2
    4fec:	043f      	lsls	r7, r7, #16
    4fee:	7ee1      	ldrb	r1, [r4, #27]
    4ff0:	0209      	lsls	r1, r1, #8
    4ff2:	7ea2      	ldrb	r2, [r4, #26]
    4ff4:	430a      	orrs	r2, r1
    4ff6:	4317      	orrs	r7, r2
    4ff8:	76a3      	strb	r3, [r4, #26]
    4ffa:	76e3      	strb	r3, [r4, #27]
    4ffc:	7523      	strb	r3, [r4, #20]
    4ffe:	7563      	strb	r3, [r4, #21]
    5000:	9885      	ldr	r0, [sp, #532]	; 0x214
    5002:	3301      	adds	r3, #1
    5004:	7103      	strb	r3, [r0, #4]
    5006:	2f00      	cmp	r7, #0
    5008:	d097      	beq.n	4f3a <f_open+0x6e>
    500a:	6ac3      	ldr	r3, [r0, #44]	; 0x2c
    500c:	4698      	mov	r8, r3
    500e:	0039      	movs	r1, r7
    5010:	4b0e      	ldr	r3, [pc, #56]	; (504c <f_open+0x180>)
    5012:	4798      	blx	r3
    5014:	2800      	cmp	r0, #0
    5016:	d1b5      	bne.n	4f84 <f_open+0xb8>
    5018:	9885      	ldr	r0, [sp, #532]	; 0x214
    501a:	3f01      	subs	r7, #1
    501c:	60c7      	str	r7, [r0, #12]
    501e:	4641      	mov	r1, r8
    5020:	4b0b      	ldr	r3, [pc, #44]	; (5050 <f_open+0x184>)
    5022:	4798      	blx	r3
    5024:	2800      	cmp	r0, #0
    5026:	d100      	bne.n	502a <f_open+0x15e>
    5028:	e787      	b.n	4f3a <f_open+0x6e>
    502a:	e7ab      	b.n	4f84 <f_open+0xb8>
    502c:	231c      	movs	r3, #28
    502e:	2006      	movs	r0, #6
    5030:	423b      	tst	r3, r7
    5032:	d0b2      	beq.n	4f9a <f_open+0xce>
    5034:	2006      	movs	r0, #6
    5036:	e7ad      	b.n	4f94 <f_open+0xc8>
    5038:	fffffdc8 	.word	0xfffffdc8
    503c:	00003c5d 	.word	0x00003c5d
    5040:	00004b59 	.word	0x00004b59
    5044:	00004781 	.word	0x00004781
    5048:	00003add 	.word	0x00003add
    504c:	0000444d 	.word	0x0000444d
    5050:	0000400d 	.word	0x0000400d

00005054 <f_read>:
    5054:	b5f0      	push	{r4, r5, r6, r7, lr}
    5056:	46de      	mov	lr, fp
    5058:	4657      	mov	r7, sl
    505a:	464e      	mov	r6, r9
    505c:	4645      	mov	r5, r8
    505e:	b5e0      	push	{r5, r6, r7, lr}
    5060:	b083      	sub	sp, #12
    5062:	0004      	movs	r4, r0
    5064:	000f      	movs	r7, r1
    5066:	0015      	movs	r5, r2
    5068:	4699      	mov	r9, r3
    506a:	2300      	movs	r3, #0
    506c:	464a      	mov	r2, r9
    506e:	6013      	str	r3, [r2, #0]
    5070:	8881      	ldrh	r1, [r0, #4]
    5072:	6800      	ldr	r0, [r0, #0]
    5074:	4b5e      	ldr	r3, [pc, #376]	; (51f0 <f_read+0x19c>)
    5076:	4798      	blx	r3
    5078:	9000      	str	r0, [sp, #0]
    507a:	2800      	cmp	r0, #0
    507c:	d000      	beq.n	5080 <f_read+0x2c>
    507e:	e0af      	b.n	51e0 <f_read+0x18c>
    5080:	79a3      	ldrb	r3, [r4, #6]
    5082:	b25a      	sxtb	r2, r3
    5084:	2a00      	cmp	r2, #0
    5086:	da00      	bge.n	508a <f_read+0x36>
    5088:	e0a8      	b.n	51dc <f_read+0x188>
    508a:	07db      	lsls	r3, r3, #31
    508c:	d402      	bmi.n	5094 <f_read+0x40>
    508e:	2307      	movs	r3, #7
    5090:	9300      	str	r3, [sp, #0]
    5092:	e0a5      	b.n	51e0 <f_read+0x18c>
    5094:	68e3      	ldr	r3, [r4, #12]
    5096:	68a2      	ldr	r2, [r4, #8]
    5098:	1a9e      	subs	r6, r3, r2
    509a:	42ae      	cmp	r6, r5
    509c:	d900      	bls.n	50a0 <f_read+0x4c>
    509e:	002e      	movs	r6, r5
    50a0:	2e00      	cmp	r6, #0
    50a2:	d153      	bne.n	514c <f_read+0xf8>
    50a4:	e09c      	b.n	51e0 <f_read+0x18c>
    50a6:	6961      	ldr	r1, [r4, #20]
    50a8:	4b52      	ldr	r3, [pc, #328]	; (51f4 <f_read+0x1a0>)
    50aa:	4798      	blx	r3
    50ac:	e05c      	b.n	5168 <f_read+0x114>
    50ae:	79a2      	ldrb	r2, [r4, #6]
    50b0:	2380      	movs	r3, #128	; 0x80
    50b2:	425b      	negs	r3, r3
    50b4:	4313      	orrs	r3, r2
    50b6:	71a3      	strb	r3, [r4, #6]
    50b8:	2302      	movs	r3, #2
    50ba:	9300      	str	r3, [sp, #0]
    50bc:	e090      	b.n	51e0 <f_read+0x18c>
    50be:	79a2      	ldrb	r2, [r4, #6]
    50c0:	2380      	movs	r3, #128	; 0x80
    50c2:	425b      	negs	r3, r3
    50c4:	4313      	orrs	r3, r2
    50c6:	71a3      	strb	r3, [r4, #6]
    50c8:	2301      	movs	r3, #1
    50ca:	9300      	str	r3, [sp, #0]
    50cc:	e088      	b.n	51e0 <f_read+0x18c>
    50ce:	79a2      	ldrb	r2, [r4, #6]
    50d0:	2380      	movs	r3, #128	; 0x80
    50d2:	425b      	negs	r3, r3
    50d4:	4313      	orrs	r3, r2
    50d6:	71a3      	strb	r3, [r4, #6]
    50d8:	2302      	movs	r3, #2
    50da:	9300      	str	r3, [sp, #0]
    50dc:	e080      	b.n	51e0 <f_read+0x18c>
    50de:	79a2      	ldrb	r2, [r4, #6]
    50e0:	2380      	movs	r3, #128	; 0x80
    50e2:	425b      	negs	r3, r3
    50e4:	4313      	orrs	r3, r2
    50e6:	71a3      	strb	r3, [r4, #6]
    50e8:	2301      	movs	r3, #1
    50ea:	9300      	str	r3, [sp, #0]
    50ec:	e078      	b.n	51e0 <f_read+0x18c>
    50ee:	3130      	adds	r1, #48	; 0x30
    50f0:	0240      	lsls	r0, r0, #9
    50f2:	1838      	adds	r0, r7, r0
    50f4:	2280      	movs	r2, #128	; 0x80
    50f6:	0092      	lsls	r2, r2, #2
    50f8:	4b3f      	ldr	r3, [pc, #252]	; (51f8 <f_read+0x1a4>)
    50fa:	4798      	blx	r3
    50fc:	e063      	b.n	51c6 <f_read+0x172>
    50fe:	4643      	mov	r3, r8
    5100:	61a3      	str	r3, [r4, #24]
    5102:	68a3      	ldr	r3, [r4, #8]
    5104:	05dd      	lsls	r5, r3, #23
    5106:	0ded      	lsrs	r5, r5, #23
    5108:	2380      	movs	r3, #128	; 0x80
    510a:	009b      	lsls	r3, r3, #2
    510c:	1b5d      	subs	r5, r3, r5
    510e:	42b5      	cmp	r5, r6
    5110:	d900      	bls.n	5114 <f_read+0xc0>
    5112:	0035      	movs	r5, r6
    5114:	69a1      	ldr	r1, [r4, #24]
    5116:	6820      	ldr	r0, [r4, #0]
    5118:	4b38      	ldr	r3, [pc, #224]	; (51fc <f_read+0x1a8>)
    511a:	4798      	blx	r3
    511c:	2800      	cmp	r0, #0
    511e:	d155      	bne.n	51cc <f_read+0x178>
    5120:	68a3      	ldr	r3, [r4, #8]
    5122:	05d9      	lsls	r1, r3, #23
    5124:	0dc9      	lsrs	r1, r1, #23
    5126:	3130      	adds	r1, #48	; 0x30
    5128:	6823      	ldr	r3, [r4, #0]
    512a:	469c      	mov	ip, r3
    512c:	4461      	add	r1, ip
    512e:	002a      	movs	r2, r5
    5130:	0038      	movs	r0, r7
    5132:	4b31      	ldr	r3, [pc, #196]	; (51f8 <f_read+0x1a4>)
    5134:	4798      	blx	r3
    5136:	197f      	adds	r7, r7, r5
    5138:	68a3      	ldr	r3, [r4, #8]
    513a:	195b      	adds	r3, r3, r5
    513c:	60a3      	str	r3, [r4, #8]
    513e:	464b      	mov	r3, r9
    5140:	681b      	ldr	r3, [r3, #0]
    5142:	195b      	adds	r3, r3, r5
    5144:	464a      	mov	r2, r9
    5146:	6013      	str	r3, [r2, #0]
    5148:	1b76      	subs	r6, r6, r5
    514a:	d049      	beq.n	51e0 <f_read+0x18c>
    514c:	68a3      	ldr	r3, [r4, #8]
    514e:	05da      	lsls	r2, r3, #23
    5150:	d1d7      	bne.n	5102 <f_read+0xae>
    5152:	6820      	ldr	r0, [r4, #0]
    5154:	7882      	ldrb	r2, [r0, #2]
    5156:	3a01      	subs	r2, #1
    5158:	0a5d      	lsrs	r5, r3, #9
    515a:	4015      	ands	r5, r2
    515c:	b2ed      	uxtb	r5, r5
    515e:	2d00      	cmp	r5, #0
    5160:	d107      	bne.n	5172 <f_read+0x11e>
    5162:	2b00      	cmp	r3, #0
    5164:	d19f      	bne.n	50a6 <f_read+0x52>
    5166:	6920      	ldr	r0, [r4, #16]
    5168:	2801      	cmp	r0, #1
    516a:	d9a0      	bls.n	50ae <f_read+0x5a>
    516c:	1c43      	adds	r3, r0, #1
    516e:	d0a6      	beq.n	50be <f_read+0x6a>
    5170:	6160      	str	r0, [r4, #20]
    5172:	6823      	ldr	r3, [r4, #0]
    5174:	469a      	mov	sl, r3
    5176:	6961      	ldr	r1, [r4, #20]
    5178:	0018      	movs	r0, r3
    517a:	4b21      	ldr	r3, [pc, #132]	; (5200 <f_read+0x1ac>)
    517c:	4798      	blx	r3
    517e:	2800      	cmp	r0, #0
    5180:	d0a5      	beq.n	50ce <f_read+0x7a>
    5182:	4680      	mov	r8, r0
    5184:	44a8      	add	r8, r5
    5186:	0a73      	lsrs	r3, r6, #9
    5188:	469b      	mov	fp, r3
    518a:	d0b8      	beq.n	50fe <f_read+0xaa>
    518c:	4653      	mov	r3, sl
    518e:	789b      	ldrb	r3, [r3, #2]
    5190:	465a      	mov	r2, fp
    5192:	18aa      	adds	r2, r5, r2
    5194:	429a      	cmp	r2, r3
    5196:	d901      	bls.n	519c <f_read+0x148>
    5198:	1b5b      	subs	r3, r3, r5
    519a:	469b      	mov	fp, r3
    519c:	465b      	mov	r3, fp
    519e:	466a      	mov	r2, sp
    51a0:	71d3      	strb	r3, [r2, #7]
    51a2:	79d3      	ldrb	r3, [r2, #7]
    51a4:	4652      	mov	r2, sl
    51a6:	7850      	ldrb	r0, [r2, #1]
    51a8:	4642      	mov	r2, r8
    51aa:	0039      	movs	r1, r7
    51ac:	4d15      	ldr	r5, [pc, #84]	; (5204 <f_read+0x1b0>)
    51ae:	47a8      	blx	r5
    51b0:	2800      	cmp	r0, #0
    51b2:	d194      	bne.n	50de <f_read+0x8a>
    51b4:	6821      	ldr	r1, [r4, #0]
    51b6:	790b      	ldrb	r3, [r1, #4]
    51b8:	2b00      	cmp	r3, #0
    51ba:	d004      	beq.n	51c6 <f_read+0x172>
    51bc:	6acb      	ldr	r3, [r1, #44]	; 0x2c
    51be:	4642      	mov	r2, r8
    51c0:	1a98      	subs	r0, r3, r2
    51c2:	4583      	cmp	fp, r0
    51c4:	d893      	bhi.n	50ee <f_read+0x9a>
    51c6:	465b      	mov	r3, fp
    51c8:	025d      	lsls	r5, r3, #9
    51ca:	e7b4      	b.n	5136 <f_read+0xe2>
    51cc:	79a2      	ldrb	r2, [r4, #6]
    51ce:	2380      	movs	r3, #128	; 0x80
    51d0:	425b      	negs	r3, r3
    51d2:	4313      	orrs	r3, r2
    51d4:	71a3      	strb	r3, [r4, #6]
    51d6:	2301      	movs	r3, #1
    51d8:	9300      	str	r3, [sp, #0]
    51da:	e001      	b.n	51e0 <f_read+0x18c>
    51dc:	2302      	movs	r3, #2
    51de:	9300      	str	r3, [sp, #0]
    51e0:	9800      	ldr	r0, [sp, #0]
    51e2:	b003      	add	sp, #12
    51e4:	bc3c      	pop	{r2, r3, r4, r5}
    51e6:	4690      	mov	r8, r2
    51e8:	4699      	mov	r9, r3
    51ea:	46a2      	mov	sl, r4
    51ec:	46ab      	mov	fp, r5
    51ee:	bdf0      	pop	{r4, r5, r6, r7, pc}
    51f0:	00003b89 	.word	0x00003b89
    51f4:	000040ad 	.word	0x000040ad
    51f8:	00003b2d 	.word	0x00003b2d
    51fc:	0000400d 	.word	0x0000400d
    5200:	00003b53 	.word	0x00003b53
    5204:	00003969 	.word	0x00003969

00005208 <f_write>:
    5208:	b5f0      	push	{r4, r5, r6, r7, lr}
    520a:	46de      	mov	lr, fp
    520c:	4657      	mov	r7, sl
    520e:	464e      	mov	r6, r9
    5210:	4645      	mov	r5, r8
    5212:	b5e0      	push	{r5, r6, r7, lr}
    5214:	b083      	sub	sp, #12
    5216:	0004      	movs	r4, r0
    5218:	000d      	movs	r5, r1
    521a:	0016      	movs	r6, r2
    521c:	4699      	mov	r9, r3
    521e:	2300      	movs	r3, #0
    5220:	464a      	mov	r2, r9
    5222:	6013      	str	r3, [r2, #0]
    5224:	8881      	ldrh	r1, [r0, #4]
    5226:	6800      	ldr	r0, [r0, #0]
    5228:	4b7f      	ldr	r3, [pc, #508]	; (5428 <f_write+0x220>)
    522a:	4798      	blx	r3
    522c:	9000      	str	r0, [sp, #0]
    522e:	2800      	cmp	r0, #0
    5230:	d000      	beq.n	5234 <f_write+0x2c>
    5232:	e0f1      	b.n	5418 <f_write+0x210>
    5234:	79a3      	ldrb	r3, [r4, #6]
    5236:	b25a      	sxtb	r2, r3
    5238:	2a00      	cmp	r2, #0
    523a:	da00      	bge.n	523e <f_write+0x36>
    523c:	e0ea      	b.n	5414 <f_write+0x20c>
    523e:	079b      	lsls	r3, r3, #30
    5240:	d402      	bmi.n	5248 <f_write+0x40>
    5242:	2307      	movs	r3, #7
    5244:	9300      	str	r3, [sp, #0]
    5246:	e0e7      	b.n	5418 <f_write+0x210>
    5248:	68e3      	ldr	r3, [r4, #12]
    524a:	199a      	adds	r2, r3, r6
    524c:	4293      	cmp	r3, r2
    524e:	d810      	bhi.n	5272 <f_write+0x6a>
    5250:	2e00      	cmp	r6, #0
    5252:	d00e      	beq.n	5272 <f_write+0x6a>
    5254:	002f      	movs	r7, r5
    5256:	e07b      	b.n	5350 <f_write+0x148>
    5258:	2100      	movs	r1, #0
    525a:	4b74      	ldr	r3, [pc, #464]	; (542c <f_write+0x224>)
    525c:	4798      	blx	r3
    525e:	0003      	movs	r3, r0
    5260:	6120      	str	r0, [r4, #16]
    5262:	e003      	b.n	526c <f_write+0x64>
    5264:	6961      	ldr	r1, [r4, #20]
    5266:	4b71      	ldr	r3, [pc, #452]	; (542c <f_write+0x224>)
    5268:	4798      	blx	r3
    526a:	0003      	movs	r3, r0
    526c:	2b00      	cmp	r3, #0
    526e:	d000      	beq.n	5272 <f_write+0x6a>
    5270:	e080      	b.n	5374 <f_write+0x16c>
    5272:	68a3      	ldr	r3, [r4, #8]
    5274:	68e2      	ldr	r2, [r4, #12]
    5276:	4293      	cmp	r3, r2
    5278:	d900      	bls.n	527c <f_write+0x74>
    527a:	60e3      	str	r3, [r4, #12]
    527c:	79a3      	ldrb	r3, [r4, #6]
    527e:	2220      	movs	r2, #32
    5280:	4313      	orrs	r3, r2
    5282:	71a3      	strb	r3, [r4, #6]
    5284:	e0c8      	b.n	5418 <f_write+0x210>
    5286:	79a2      	ldrb	r2, [r4, #6]
    5288:	3b81      	subs	r3, #129	; 0x81
    528a:	4313      	orrs	r3, r2
    528c:	71a3      	strb	r3, [r4, #6]
    528e:	2302      	movs	r3, #2
    5290:	9300      	str	r3, [sp, #0]
    5292:	e0c1      	b.n	5418 <f_write+0x210>
    5294:	79a2      	ldrb	r2, [r4, #6]
    5296:	3b7f      	subs	r3, #127	; 0x7f
    5298:	4313      	orrs	r3, r2
    529a:	71a3      	strb	r3, [r4, #6]
    529c:	2301      	movs	r3, #1
    529e:	9300      	str	r3, [sp, #0]
    52a0:	e0ba      	b.n	5418 <f_write+0x210>
    52a2:	2100      	movs	r1, #0
    52a4:	4b62      	ldr	r3, [pc, #392]	; (5430 <f_write+0x228>)
    52a6:	4798      	blx	r3
    52a8:	2800      	cmp	r0, #0
    52aa:	d06d      	beq.n	5388 <f_write+0x180>
    52ac:	79a2      	ldrb	r2, [r4, #6]
    52ae:	2380      	movs	r3, #128	; 0x80
    52b0:	425b      	negs	r3, r3
    52b2:	4313      	orrs	r3, r2
    52b4:	71a3      	strb	r3, [r4, #6]
    52b6:	2301      	movs	r3, #1
    52b8:	9300      	str	r3, [sp, #0]
    52ba:	e0ad      	b.n	5418 <f_write+0x210>
    52bc:	79a2      	ldrb	r2, [r4, #6]
    52be:	2380      	movs	r3, #128	; 0x80
    52c0:	425b      	negs	r3, r3
    52c2:	4313      	orrs	r3, r2
    52c4:	71a3      	strb	r3, [r4, #6]
    52c6:	2302      	movs	r3, #2
    52c8:	9300      	str	r3, [sp, #0]
    52ca:	e0a5      	b.n	5418 <f_write+0x210>
    52cc:	79a2      	ldrb	r2, [r4, #6]
    52ce:	2380      	movs	r3, #128	; 0x80
    52d0:	425b      	negs	r3, r3
    52d2:	4313      	orrs	r3, r2
    52d4:	71a3      	strb	r3, [r4, #6]
    52d6:	2301      	movs	r3, #1
    52d8:	9300      	str	r3, [sp, #0]
    52da:	e09d      	b.n	5418 <f_write+0x210>
    52dc:	0240      	lsls	r0, r0, #9
    52de:	1839      	adds	r1, r7, r0
    52e0:	3330      	adds	r3, #48	; 0x30
    52e2:	0018      	movs	r0, r3
    52e4:	2280      	movs	r2, #128	; 0x80
    52e6:	0092      	lsls	r2, r2, #2
    52e8:	4b52      	ldr	r3, [pc, #328]	; (5434 <f_write+0x22c>)
    52ea:	4798      	blx	r3
    52ec:	2300      	movs	r3, #0
    52ee:	6822      	ldr	r2, [r4, #0]
    52f0:	7113      	strb	r3, [r2, #4]
    52f2:	e072      	b.n	53da <f_write+0x1d2>
    52f4:	68a3      	ldr	r3, [r4, #8]
    52f6:	68e2      	ldr	r2, [r4, #12]
    52f8:	4293      	cmp	r3, r2
    52fa:	d271      	bcs.n	53e0 <f_write+0x1d8>
    52fc:	4643      	mov	r3, r8
    52fe:	61a3      	str	r3, [r4, #24]
    5300:	68a3      	ldr	r3, [r4, #8]
    5302:	05dd      	lsls	r5, r3, #23
    5304:	0ded      	lsrs	r5, r5, #23
    5306:	2380      	movs	r3, #128	; 0x80
    5308:	009b      	lsls	r3, r3, #2
    530a:	1b5d      	subs	r5, r3, r5
    530c:	42b5      	cmp	r5, r6
    530e:	d900      	bls.n	5312 <f_write+0x10a>
    5310:	0035      	movs	r5, r6
    5312:	69a1      	ldr	r1, [r4, #24]
    5314:	6820      	ldr	r0, [r4, #0]
    5316:	4b46      	ldr	r3, [pc, #280]	; (5430 <f_write+0x228>)
    5318:	4798      	blx	r3
    531a:	2800      	cmp	r0, #0
    531c:	d172      	bne.n	5404 <f_write+0x1fc>
    531e:	68a3      	ldr	r3, [r4, #8]
    5320:	05d8      	lsls	r0, r3, #23
    5322:	0dc0      	lsrs	r0, r0, #23
    5324:	3030      	adds	r0, #48	; 0x30
    5326:	6823      	ldr	r3, [r4, #0]
    5328:	469c      	mov	ip, r3
    532a:	4460      	add	r0, ip
    532c:	002a      	movs	r2, r5
    532e:	0039      	movs	r1, r7
    5330:	4b40      	ldr	r3, [pc, #256]	; (5434 <f_write+0x22c>)
    5332:	4798      	blx	r3
    5334:	2301      	movs	r3, #1
    5336:	6822      	ldr	r2, [r4, #0]
    5338:	7113      	strb	r3, [r2, #4]
    533a:	197f      	adds	r7, r7, r5
    533c:	68a3      	ldr	r3, [r4, #8]
    533e:	195b      	adds	r3, r3, r5
    5340:	60a3      	str	r3, [r4, #8]
    5342:	464b      	mov	r3, r9
    5344:	681b      	ldr	r3, [r3, #0]
    5346:	195b      	adds	r3, r3, r5
    5348:	464a      	mov	r2, r9
    534a:	6013      	str	r3, [r2, #0]
    534c:	1b76      	subs	r6, r6, r5
    534e:	d090      	beq.n	5272 <f_write+0x6a>
    5350:	68a3      	ldr	r3, [r4, #8]
    5352:	05da      	lsls	r2, r3, #23
    5354:	d1d4      	bne.n	5300 <f_write+0xf8>
    5356:	6820      	ldr	r0, [r4, #0]
    5358:	7882      	ldrb	r2, [r0, #2]
    535a:	3a01      	subs	r2, #1
    535c:	0a5d      	lsrs	r5, r3, #9
    535e:	4015      	ands	r5, r2
    5360:	b2ed      	uxtb	r5, r5
    5362:	2d00      	cmp	r5, #0
    5364:	d10b      	bne.n	537e <f_write+0x176>
    5366:	2b00      	cmp	r3, #0
    5368:	d000      	beq.n	536c <f_write+0x164>
    536a:	e77b      	b.n	5264 <f_write+0x5c>
    536c:	6923      	ldr	r3, [r4, #16]
    536e:	2b00      	cmp	r3, #0
    5370:	d100      	bne.n	5374 <f_write+0x16c>
    5372:	e771      	b.n	5258 <f_write+0x50>
    5374:	2b01      	cmp	r3, #1
    5376:	d086      	beq.n	5286 <f_write+0x7e>
    5378:	1c5a      	adds	r2, r3, #1
    537a:	d08b      	beq.n	5294 <f_write+0x8c>
    537c:	6163      	str	r3, [r4, #20]
    537e:	6820      	ldr	r0, [r4, #0]
    5380:	6ac3      	ldr	r3, [r0, #44]	; 0x2c
    5382:	69a2      	ldr	r2, [r4, #24]
    5384:	4293      	cmp	r3, r2
    5386:	d08c      	beq.n	52a2 <f_write+0x9a>
    5388:	6823      	ldr	r3, [r4, #0]
    538a:	469a      	mov	sl, r3
    538c:	6961      	ldr	r1, [r4, #20]
    538e:	0018      	movs	r0, r3
    5390:	4b29      	ldr	r3, [pc, #164]	; (5438 <f_write+0x230>)
    5392:	4798      	blx	r3
    5394:	2800      	cmp	r0, #0
    5396:	d091      	beq.n	52bc <f_write+0xb4>
    5398:	4680      	mov	r8, r0
    539a:	44a8      	add	r8, r5
    539c:	0a73      	lsrs	r3, r6, #9
    539e:	469b      	mov	fp, r3
    53a0:	d0a8      	beq.n	52f4 <f_write+0xec>
    53a2:	4653      	mov	r3, sl
    53a4:	789b      	ldrb	r3, [r3, #2]
    53a6:	465a      	mov	r2, fp
    53a8:	18aa      	adds	r2, r5, r2
    53aa:	429a      	cmp	r2, r3
    53ac:	d901      	bls.n	53b2 <f_write+0x1aa>
    53ae:	1b5b      	subs	r3, r3, r5
    53b0:	469b      	mov	fp, r3
    53b2:	465b      	mov	r3, fp
    53b4:	466a      	mov	r2, sp
    53b6:	71d3      	strb	r3, [r2, #7]
    53b8:	79d3      	ldrb	r3, [r2, #7]
    53ba:	4652      	mov	r2, sl
    53bc:	7850      	ldrb	r0, [r2, #1]
    53be:	4642      	mov	r2, r8
    53c0:	0039      	movs	r1, r7
    53c2:	4d1e      	ldr	r5, [pc, #120]	; (543c <f_write+0x234>)
    53c4:	47a8      	blx	r5
    53c6:	2800      	cmp	r0, #0
    53c8:	d000      	beq.n	53cc <f_write+0x1c4>
    53ca:	e77f      	b.n	52cc <f_write+0xc4>
    53cc:	6823      	ldr	r3, [r4, #0]
    53ce:	6ada      	ldr	r2, [r3, #44]	; 0x2c
    53d0:	4641      	mov	r1, r8
    53d2:	1a50      	subs	r0, r2, r1
    53d4:	4583      	cmp	fp, r0
    53d6:	d900      	bls.n	53da <f_write+0x1d2>
    53d8:	e780      	b.n	52dc <f_write+0xd4>
    53da:	465b      	mov	r3, fp
    53dc:	025d      	lsls	r5, r3, #9
    53de:	e7ac      	b.n	533a <f_write+0x132>
    53e0:	2100      	movs	r1, #0
    53e2:	4650      	mov	r0, sl
    53e4:	4b12      	ldr	r3, [pc, #72]	; (5430 <f_write+0x228>)
    53e6:	4798      	blx	r3
    53e8:	2800      	cmp	r0, #0
    53ea:	d103      	bne.n	53f4 <f_write+0x1ec>
    53ec:	6823      	ldr	r3, [r4, #0]
    53ee:	4642      	mov	r2, r8
    53f0:	62da      	str	r2, [r3, #44]	; 0x2c
    53f2:	e783      	b.n	52fc <f_write+0xf4>
    53f4:	79a2      	ldrb	r2, [r4, #6]
    53f6:	2380      	movs	r3, #128	; 0x80
    53f8:	425b      	negs	r3, r3
    53fa:	4313      	orrs	r3, r2
    53fc:	71a3      	strb	r3, [r4, #6]
    53fe:	2301      	movs	r3, #1
    5400:	9300      	str	r3, [sp, #0]
    5402:	e009      	b.n	5418 <f_write+0x210>
    5404:	79a2      	ldrb	r2, [r4, #6]
    5406:	2380      	movs	r3, #128	; 0x80
    5408:	425b      	negs	r3, r3
    540a:	4313      	orrs	r3, r2
    540c:	71a3      	strb	r3, [r4, #6]
    540e:	2301      	movs	r3, #1
    5410:	9300      	str	r3, [sp, #0]
    5412:	e001      	b.n	5418 <f_write+0x210>
    5414:	2302      	movs	r3, #2
    5416:	9300      	str	r3, [sp, #0]
    5418:	9800      	ldr	r0, [sp, #0]
    541a:	b003      	add	sp, #12
    541c:	bc3c      	pop	{r2, r3, r4, r5}
    541e:	4690      	mov	r8, r2
    5420:	4699      	mov	r9, r3
    5422:	46a2      	mov	sl, r4
    5424:	46ab      	mov	fp, r5
    5426:	bdf0      	pop	{r4, r5, r6, r7, pc}
    5428:	00003b89 	.word	0x00003b89
    542c:	00004389 	.word	0x00004389
    5430:	0000400d 	.word	0x0000400d
    5434:	00003b2d 	.word	0x00003b2d
    5438:	00003b53 	.word	0x00003b53
    543c:	000039ed 	.word	0x000039ed

00005440 <f_sync>:
    5440:	b570      	push	{r4, r5, r6, lr}
    5442:	0004      	movs	r4, r0
    5444:	8881      	ldrh	r1, [r0, #4]
    5446:	6800      	ldr	r0, [r0, #0]
    5448:	4b1c      	ldr	r3, [pc, #112]	; (54bc <f_sync+0x7c>)
    544a:	4798      	blx	r3
    544c:	2800      	cmp	r0, #0
    544e:	d102      	bne.n	5456 <f_sync+0x16>
    5450:	79a3      	ldrb	r3, [r4, #6]
    5452:	069b      	lsls	r3, r3, #26
    5454:	d400      	bmi.n	5458 <f_sync+0x18>
    5456:	bd70      	pop	{r4, r5, r6, pc}
    5458:	69e1      	ldr	r1, [r4, #28]
    545a:	6820      	ldr	r0, [r4, #0]
    545c:	4b18      	ldr	r3, [pc, #96]	; (54c0 <f_sync+0x80>)
    545e:	4798      	blx	r3
    5460:	2800      	cmp	r0, #0
    5462:	d1f8      	bne.n	5456 <f_sync+0x16>
    5464:	6a25      	ldr	r5, [r4, #32]
    5466:	7aeb      	ldrb	r3, [r5, #11]
    5468:	2220      	movs	r2, #32
    546a:	4313      	orrs	r3, r2
    546c:	72eb      	strb	r3, [r5, #11]
    546e:	7b23      	ldrb	r3, [r4, #12]
    5470:	772b      	strb	r3, [r5, #28]
    5472:	89a3      	ldrh	r3, [r4, #12]
    5474:	0a1b      	lsrs	r3, r3, #8
    5476:	776b      	strb	r3, [r5, #29]
    5478:	89e3      	ldrh	r3, [r4, #14]
    547a:	77ab      	strb	r3, [r5, #30]
    547c:	7be3      	ldrb	r3, [r4, #15]
    547e:	77eb      	strb	r3, [r5, #31]
    5480:	7c23      	ldrb	r3, [r4, #16]
    5482:	76ab      	strb	r3, [r5, #26]
    5484:	8a23      	ldrh	r3, [r4, #16]
    5486:	0a1b      	lsrs	r3, r3, #8
    5488:	76eb      	strb	r3, [r5, #27]
    548a:	8a63      	ldrh	r3, [r4, #18]
    548c:	752b      	strb	r3, [r5, #20]
    548e:	8a63      	ldrh	r3, [r4, #18]
    5490:	0a1b      	lsrs	r3, r3, #8
    5492:	756b      	strb	r3, [r5, #21]
    5494:	4b0b      	ldr	r3, [pc, #44]	; (54c4 <f_sync+0x84>)
    5496:	4798      	blx	r3
    5498:	75a8      	strb	r0, [r5, #22]
    549a:	0a03      	lsrs	r3, r0, #8
    549c:	75eb      	strb	r3, [r5, #23]
    549e:	0c03      	lsrs	r3, r0, #16
    54a0:	762b      	strb	r3, [r5, #24]
    54a2:	0e00      	lsrs	r0, r0, #24
    54a4:	7668      	strb	r0, [r5, #25]
    54a6:	79a3      	ldrb	r3, [r4, #6]
    54a8:	2220      	movs	r2, #32
    54aa:	4393      	bics	r3, r2
    54ac:	71a3      	strb	r3, [r4, #6]
    54ae:	2301      	movs	r3, #1
    54b0:	6822      	ldr	r2, [r4, #0]
    54b2:	7113      	strb	r3, [r2, #4]
    54b4:	6820      	ldr	r0, [r4, #0]
    54b6:	4b04      	ldr	r3, [pc, #16]	; (54c8 <f_sync+0x88>)
    54b8:	4798      	blx	r3
    54ba:	e7cc      	b.n	5456 <f_sync+0x16>
    54bc:	00003b89 	.word	0x00003b89
    54c0:	0000400d 	.word	0x0000400d
    54c4:	00003add 	.word	0x00003add
    54c8:	00004a65 	.word	0x00004a65

000054cc <f_close>:
    54cc:	b510      	push	{r4, lr}
    54ce:	0004      	movs	r4, r0
    54d0:	4b03      	ldr	r3, [pc, #12]	; (54e0 <f_close+0x14>)
    54d2:	4798      	blx	r3
    54d4:	2800      	cmp	r0, #0
    54d6:	d101      	bne.n	54dc <f_close+0x10>
    54d8:	2300      	movs	r3, #0
    54da:	6023      	str	r3, [r4, #0]
    54dc:	bd10      	pop	{r4, pc}
    54de:	46c0      	nop			; (mov r8, r8)
    54e0:	00005441 	.word	0x00005441

000054e4 <f_putc>:
    54e4:	b510      	push	{r4, lr}
    54e6:	b082      	sub	sp, #8
    54e8:	000c      	movs	r4, r1
    54ea:	466b      	mov	r3, sp
    54ec:	7018      	strb	r0, [r3, #0]
    54ee:	ab01      	add	r3, sp, #4
    54f0:	2201      	movs	r2, #1
    54f2:	4669      	mov	r1, sp
    54f4:	0020      	movs	r0, r4
    54f6:	4c05      	ldr	r4, [pc, #20]	; (550c <f_putc+0x28>)
    54f8:	47a0      	blx	r4
    54fa:	9b01      	ldr	r3, [sp, #4]
    54fc:	1e58      	subs	r0, r3, #1
    54fe:	1e43      	subs	r3, r0, #1
    5500:	4198      	sbcs	r0, r3
    5502:	4240      	negs	r0, r0
    5504:	2301      	movs	r3, #1
    5506:	4318      	orrs	r0, r3
    5508:	b002      	add	sp, #8
    550a:	bd10      	pop	{r4, pc}
    550c:	00005209 	.word	0x00005209

00005510 <f_puts>:
    5510:	b5f8      	push	{r3, r4, r5, r6, r7, lr}
    5512:	0006      	movs	r6, r0
    5514:	000d      	movs	r5, r1
    5516:	7800      	ldrb	r0, [r0, #0]
    5518:	2800      	cmp	r0, #0
    551a:	d00b      	beq.n	5534 <f_puts+0x24>
    551c:	2400      	movs	r4, #0
    551e:	4f06      	ldr	r7, [pc, #24]	; (5538 <f_puts+0x28>)
    5520:	0029      	movs	r1, r5
    5522:	47b8      	blx	r7
    5524:	1c43      	adds	r3, r0, #1
    5526:	d004      	beq.n	5532 <f_puts+0x22>
    5528:	3401      	adds	r4, #1
    552a:	5d30      	ldrb	r0, [r6, r4]
    552c:	2800      	cmp	r0, #0
    552e:	d1f7      	bne.n	5520 <f_puts+0x10>
    5530:	0020      	movs	r0, r4
    5532:	bdf8      	pop	{r3, r4, r5, r6, r7, pc}
    5534:	2000      	movs	r0, #0
    5536:	e7fc      	b.n	5532 <f_puts+0x22>
    5538:	000054e5 	.word	0x000054e5

0000553c <ff_convert>:
    553c:	0003      	movs	r3, r0
    553e:	287f      	cmp	r0, #127	; 0x7f
    5540:	d911      	bls.n	5566 <ff_convert+0x2a>
    5542:	2900      	cmp	r1, #0
    5544:	d111      	bne.n	556a <ff_convert+0x2e>
    5546:	28c7      	cmp	r0, #199	; 0xc7
    5548:	d017      	beq.n	557a <ff_convert+0x3e>
    554a:	4a0d      	ldr	r2, [pc, #52]	; (5580 <ff_convert+0x44>)
    554c:	3202      	adds	r2, #2
    554e:	2301      	movs	r3, #1
    5550:	8811      	ldrh	r1, [r2, #0]
    5552:	4281      	cmp	r1, r0
    5554:	d004      	beq.n	5560 <ff_convert+0x24>
    5556:	3301      	adds	r3, #1
    5558:	b29b      	uxth	r3, r3
    555a:	3202      	adds	r2, #2
    555c:	2b80      	cmp	r3, #128	; 0x80
    555e:	d1f7      	bne.n	5550 <ff_convert+0x14>
    5560:	3380      	adds	r3, #128	; 0x80
    5562:	20ff      	movs	r0, #255	; 0xff
    5564:	4003      	ands	r3, r0
    5566:	0018      	movs	r0, r3
    5568:	4770      	bx	lr
    556a:	2300      	movs	r3, #0
    556c:	28ff      	cmp	r0, #255	; 0xff
    556e:	d8fa      	bhi.n	5566 <ff_convert+0x2a>
    5570:	3880      	subs	r0, #128	; 0x80
    5572:	0040      	lsls	r0, r0, #1
    5574:	4b02      	ldr	r3, [pc, #8]	; (5580 <ff_convert+0x44>)
    5576:	5ac3      	ldrh	r3, [r0, r3]
    5578:	e7f5      	b.n	5566 <ff_convert+0x2a>
    557a:	2300      	movs	r3, #0
    557c:	e7f0      	b.n	5560 <ff_convert+0x24>
    557e:	46c0      	nop			; (mov r8, r8)
    5580:	00006fcc 	.word	0x00006fcc

00005584 <ff_wtoupper>:
    5584:	2861      	cmp	r0, #97	; 0x61
    5586:	d014      	beq.n	55b2 <ff_wtoupper+0x2e>
    5588:	4b0b      	ldr	r3, [pc, #44]	; (55b8 <ff_wtoupper+0x34>)
    558a:	3304      	adds	r3, #4
    558c:	2101      	movs	r1, #1
    558e:	2262      	movs	r2, #98	; 0x62
    5590:	4290      	cmp	r0, r2
    5592:	d007      	beq.n	55a4 <ff_wtoupper+0x20>
    5594:	3101      	adds	r1, #1
    5596:	3302      	adds	r3, #2
    5598:	1e9a      	subs	r2, r3, #2
    559a:	8812      	ldrh	r2, [r2, #0]
    559c:	2a00      	cmp	r2, #0
    559e:	d1f7      	bne.n	5590 <ff_wtoupper+0xc>
    55a0:	0003      	movs	r3, r0
    55a2:	e004      	b.n	55ae <ff_wtoupper+0x2a>
    55a4:	1e03      	subs	r3, r0, #0
    55a6:	d002      	beq.n	55ae <ff_wtoupper+0x2a>
    55a8:	0049      	lsls	r1, r1, #1
    55aa:	4b04      	ldr	r3, [pc, #16]	; (55bc <ff_wtoupper+0x38>)
    55ac:	5acb      	ldrh	r3, [r1, r3]
    55ae:	0018      	movs	r0, r3
    55b0:	4770      	bx	lr
    55b2:	2100      	movs	r1, #0
    55b4:	e7f8      	b.n	55a8 <ff_wtoupper+0x24>
    55b6:	46c0      	nop			; (mov r8, r8)
    55b8:	000070cc 	.word	0x000070cc
    55bc:	000072ac 	.word	0x000072ac

000055c0 <main>:
* @return	Unused (ANSI-C compatibility).
* @note		Bootloader code initiates here.
*****************************************************************************/

int main(void)
{
    55c0:	b5f0      	push	{r4, r5, r6, r7, lr}
    55c2:	4cde      	ldr	r4, [pc, #888]	; (593c <main+0x37c>)
    55c4:	44a5      	add	sp, r4
    55c6:	af02      	add	r7, sp, #8

	/*1.) INIT SYSTEM PERIPHERALS INITIALIZATION*/
	system_init();
    55c8:	4bdd      	ldr	r3, [pc, #884]	; (5940 <main+0x380>)
    55ca:	4798      	blx	r3
	delay_init();
    55cc:	4bdd      	ldr	r3, [pc, #884]	; (5944 <main+0x384>)
    55ce:	4798      	blx	r3
	InitializeSerialConsole();
    55d0:	4bdd      	ldr	r3, [pc, #884]	; (5948 <main+0x388>)
    55d2:	4798      	blx	r3
 *
 * Enables global interrupts in the device to fire any enabled interrupt handlers.
 */
static inline void system_interrupt_enable_global(void)
{
	cpu_irq_enable();
    55d4:	4cdd      	ldr	r4, [pc, #884]	; (594c <main+0x38c>)
    55d6:	2501      	movs	r5, #1
    55d8:	7025      	strb	r5, [r4, #0]
    This function ensures the apparent order of the explicit memory operations before
    and after the instruction, without ensuring their completion.
 */
__attribute__( ( always_inline ) ) __STATIC_INLINE void __DMB(void)
{
  __ASM volatile ("dmb");
    55da:	f3bf 8f5f 	dmb	sy
  This function enables IRQ interrupts by clearing the I-bit in the CPSR.
  Can only be executed in Privileged modes.
 */
__attribute__( ( always_inline ) ) __STATIC_INLINE void __enable_irq(void)
{
  __ASM volatile ("cpsie i" : : : "memory");
    55de:	b662      	cpsie	i
	system_interrupt_enable_global();
	/* Initialize SD MMC stack */
	sd_mmc_init();
    55e0:	4bdb      	ldr	r3, [pc, #876]	; (5950 <main+0x390>)
    55e2:	4798      	blx	r3
{
	/* Sanity check the parameters */
	Assert(config);

	/* Write the default configuration for the NVM configuration */
	config->sleep_power_mode  = NVM_SLEEP_POWER_MODE_WAKEONACCESS;
    55e4:	2308      	movs	r3, #8
    55e6:	18fb      	adds	r3, r7, r3
    55e8:	2100      	movs	r1, #0
    55ea:	7019      	strb	r1, [r3, #0]
	config->manual_page_write = true;
	config->wait_states       = NVMCTRL->CTRLB.bit.RWS;
    55ec:	4ad9      	ldr	r2, [pc, #868]	; (5954 <main+0x394>)
    55ee:	6852      	ldr	r2, [r2, #4]
    55f0:	06d2      	lsls	r2, r2, #27
    55f2:	0f12      	lsrs	r2, r2, #28
    55f4:	709a      	strb	r2, [r3, #2]
	config->disable_cache     = false;
    55f6:	70d9      	strb	r1, [r3, #3]
#if (SAMC20) || (SAMC21)
	config->disable_rww_cache = false;
#endif
	config->cache_readmode    = NVM_CACHE_READMODE_NO_MISS_PENALTY;
    55f8:	7119      	strb	r1, [r3, #4]
******************************************************************************/
static void configure_nvm(void)
{
    struct nvm_config config_nvm;
    nvm_get_config_defaults(&config_nvm);
    config_nvm.manual_page_write = false;
    55fa:	7059      	strb	r1, [r3, #1]
    nvm_set_config(&config_nvm);
    55fc:	2308      	movs	r3, #8
    55fe:	18f8      	adds	r0, r7, r3
    5600:	4bd5      	ldr	r3, [pc, #852]	; (5958 <main+0x398>)
    5602:	4798      	blx	r3
	cpu_irq_enable();
    5604:	7025      	strb	r5, [r4, #0]
    5606:	f3bf 8f5f 	dmb	sy
    560a:	b662      	cpsie	i
		case SYSTEM_CLOCK_APB_APBA:
			PM->APBAMASK.reg |= mask;
			break;

		case SYSTEM_CLOCK_APB_APBB:
			PM->APBBMASK.reg |= mask;
    560c:	4ad3      	ldr	r2, [pc, #844]	; (595c <main+0x39c>)
    560e:	69d3      	ldr	r3, [r2, #28]
    5610:	2102      	movs	r1, #2
    5612:	430b      	orrs	r3, r1
    5614:	61d3      	str	r3, [r2, #28]
	SerialConsoleWriteString("ESE516 - ENTER BOOTLOADER");	//Order to add string to TX Buffer
    5616:	48d2      	ldr	r0, [pc, #840]	; (5960 <main+0x3a0>)
    5618:	4cd2      	ldr	r4, [pc, #840]	; (5964 <main+0x3a4>)
    561a:	47a0      	blx	r4
	SerialConsoleWriteString("\x0C\n\r-- SD/MMC Card Example on FatFs --\n\r");
    561c:	48d2      	ldr	r0, [pc, #840]	; (5968 <main+0x3a8>)
    561e:	47a0      	blx	r4
	for(int i = 0; i < 256; i++)
    5620:	2300      	movs	r3, #0
		binbuff[i] = i;
    5622:	2208      	movs	r2, #8
    5624:	18b9      	adds	r1, r7, r2
	for(int i = 0; i < 256; i++)
    5626:	32f8      	adds	r2, #248	; 0xf8
		binbuff[i] = i;
    5628:	545b      	strb	r3, [r3, r1]
	for(int i = 0; i < 256; i++)
    562a:	3301      	adds	r3, #1
    562c:	4293      	cmp	r3, r2
    562e:	d1fb      	bne.n	5628 <main+0x68>
	Ctrl_status sdStatus= SdCard_Initiate();
    5630:	4bce      	ldr	r3, [pc, #824]	; (596c <main+0x3ac>)
    5632:	4798      	blx	r3
	if(sdStatus == CTRL_GOOD) //If the SD card is good we continue mounting the system!
    5634:	2800      	cmp	r0, #0
    5636:	d000      	beq.n	563a <main+0x7a>
    5638:	e0b3      	b.n	57a2 <main+0x1e2>
		SerialConsoleWriteString("SD Card initiated correctly!\n\r");
    563a:	48cd      	ldr	r0, [pc, #820]	; (5970 <main+0x3b0>)
    563c:	4cc9      	ldr	r4, [pc, #804]	; (5964 <main+0x3a4>)
    563e:	47a0      	blx	r4
		SerialConsoleWriteString("Mount disk (f_mount)...\r\n");
    5640:	48cc      	ldr	r0, [pc, #816]	; (5974 <main+0x3b4>)
    5642:	47a0      	blx	r4
		memset(&fs, 0, sizeof(FATFS));
    5644:	4ccc      	ldr	r4, [pc, #816]	; (5978 <main+0x3b8>)
    5646:	228c      	movs	r2, #140	; 0x8c
    5648:	0092      	lsls	r2, r2, #2
    564a:	2100      	movs	r1, #0
    564c:	0020      	movs	r0, r4
    564e:	4bcb      	ldr	r3, [pc, #812]	; (597c <main+0x3bc>)
    5650:	4798      	blx	r3
		res = f_mount(LUN_ID_SD_MMC_0_MEM, &fs); //Order FATFS Mount
    5652:	0021      	movs	r1, r4
    5654:	2000      	movs	r0, #0
    5656:	4bca      	ldr	r3, [pc, #808]	; (5980 <main+0x3c0>)
    5658:	4798      	blx	r3
    565a:	4bca      	ldr	r3, [pc, #808]	; (5984 <main+0x3c4>)
    565c:	7018      	strb	r0, [r3, #0]
		if (FR_INVALID_DRIVE == res)
    565e:	280b      	cmp	r0, #11
    5660:	d018      	beq.n	5694 <main+0xd4>
		SerialConsoleWriteString("[OK]\r\n");
    5662:	48c9      	ldr	r0, [pc, #804]	; (5988 <main+0x3c8>)
    5664:	4cbf      	ldr	r4, [pc, #764]	; (5964 <main+0x3a4>)
    5666:	47a0      	blx	r4
		SerialConsoleWriteString("Create a file (f_open)...\r\n");
    5668:	48c8      	ldr	r0, [pc, #800]	; (598c <main+0x3cc>)
    566a:	47a0      	blx	r4
		test_file_name[0] = LUN_ID_SD_MMC_0_MEM + '0';
    566c:	49c8      	ldr	r1, [pc, #800]	; (5990 <main+0x3d0>)
    566e:	2330      	movs	r3, #48	; 0x30
    5670:	700b      	strb	r3, [r1, #0]
		res = f_open(&file_object,
    5672:	220a      	movs	r2, #10
    5674:	48c7      	ldr	r0, [pc, #796]	; (5994 <main+0x3d4>)
    5676:	4bc8      	ldr	r3, [pc, #800]	; (5998 <main+0x3d8>)
    5678:	4798      	blx	r3
    567a:	4bc2      	ldr	r3, [pc, #776]	; (5984 <main+0x3c4>)
    567c:	7018      	strb	r0, [r3, #0]
		if (res != FR_OK)
    567e:	2800      	cmp	r0, #0
    5680:	d00e      	beq.n	56a0 <main+0xe0>
			LogMessage(LOG_INFO_LVL ,"[FAIL] res %d\r\n", res);
    5682:	0002      	movs	r2, r0
    5684:	49c5      	ldr	r1, [pc, #788]	; (599c <main+0x3dc>)
    5686:	2000      	movs	r0, #0
    5688:	4bc5      	ldr	r3, [pc, #788]	; (59a0 <main+0x3e0>)
    568a:	4798      	blx	r3
		SerialConsoleWriteString("End of Test.\n\r");
    568c:	48c5      	ldr	r0, [pc, #788]	; (59a4 <main+0x3e4>)
    568e:	4bb5      	ldr	r3, [pc, #724]	; (5964 <main+0x3a4>)
    5690:	4798      	blx	r3
    5692:	e089      	b.n	57a8 <main+0x1e8>
			LogMessage(LOG_INFO_LVL ,"[FAIL] res %d\r\n", res);
    5694:	220b      	movs	r2, #11
    5696:	49c1      	ldr	r1, [pc, #772]	; (599c <main+0x3dc>)
    5698:	2000      	movs	r0, #0
    569a:	4bc1      	ldr	r3, [pc, #772]	; (59a0 <main+0x3e0>)
    569c:	4798      	blx	r3
    569e:	e7f5      	b.n	568c <main+0xcc>
		SerialConsoleWriteString("[OK]\r\n");
    56a0:	48b9      	ldr	r0, [pc, #740]	; (5988 <main+0x3c8>)
    56a2:	4cb0      	ldr	r4, [pc, #704]	; (5964 <main+0x3a4>)
    56a4:	47a0      	blx	r4
		SerialConsoleWriteString("Write to test file (f_puts)...\r\n");
    56a6:	48c0      	ldr	r0, [pc, #768]	; (59a8 <main+0x3e8>)
    56a8:	47a0      	blx	r4
		if (0 == f_puts("Test SD/MMC stack\n", &file_object))
    56aa:	49ba      	ldr	r1, [pc, #744]	; (5994 <main+0x3d4>)
    56ac:	48bf      	ldr	r0, [pc, #764]	; (59ac <main+0x3ec>)
    56ae:	4bc0      	ldr	r3, [pc, #768]	; (59b0 <main+0x3f0>)
    56b0:	4798      	blx	r3
    56b2:	2800      	cmp	r0, #0
    56b4:	d107      	bne.n	56c6 <main+0x106>
			f_close(&file_object);
    56b6:	48b7      	ldr	r0, [pc, #732]	; (5994 <main+0x3d4>)
    56b8:	4bbe      	ldr	r3, [pc, #760]	; (59b4 <main+0x3f4>)
    56ba:	4798      	blx	r3
			LogMessage(LOG_INFO_LVL ,"[FAIL]\r\n");
    56bc:	49be      	ldr	r1, [pc, #760]	; (59b8 <main+0x3f8>)
    56be:	2000      	movs	r0, #0
    56c0:	4bb7      	ldr	r3, [pc, #732]	; (59a0 <main+0x3e0>)
    56c2:	4798      	blx	r3
    56c4:	e7e2      	b.n	568c <main+0xcc>
		SerialConsoleWriteString("[OK]\r\n");
    56c6:	48b0      	ldr	r0, [pc, #704]	; (5988 <main+0x3c8>)
    56c8:	4da6      	ldr	r5, [pc, #664]	; (5964 <main+0x3a4>)
    56ca:	47a8      	blx	r5
		f_close(&file_object); //Close file
    56cc:	4cb1      	ldr	r4, [pc, #708]	; (5994 <main+0x3d4>)
    56ce:	0020      	movs	r0, r4
    56d0:	4bb8      	ldr	r3, [pc, #736]	; (59b4 <main+0x3f4>)
    56d2:	4798      	blx	r3
		SerialConsoleWriteString("Test is successful.\n\r");
    56d4:	48b9      	ldr	r0, [pc, #740]	; (59bc <main+0x3fc>)
    56d6:	47a8      	blx	r5
		test_bin_file[0] = LUN_ID_SD_MMC_0_MEM + '0';
    56d8:	49b9      	ldr	r1, [pc, #740]	; (59c0 <main+0x400>)
    56da:	2330      	movs	r3, #48	; 0x30
    56dc:	700b      	strb	r3, [r1, #0]
		res = f_open(&file_object, (char const *)test_bin_file, FA_WRITE | FA_CREATE_ALWAYS);
    56de:	220a      	movs	r2, #10
    56e0:	0020      	movs	r0, r4
    56e2:	4bad      	ldr	r3, [pc, #692]	; (5998 <main+0x3d8>)
    56e4:	4798      	blx	r3
    56e6:	4ba7      	ldr	r3, [pc, #668]	; (5984 <main+0x3c4>)
    56e8:	7018      	strb	r0, [r3, #0]
		if (res != FR_OK)
    56ea:	2800      	cmp	r0, #0
    56ec:	d009      	beq.n	5702 <main+0x142>
			SerialConsoleWriteString("Could not open binary file!\r\n");
    56ee:	48b5      	ldr	r0, [pc, #724]	; (59c4 <main+0x404>)
    56f0:	4b9c      	ldr	r3, [pc, #624]	; (5964 <main+0x3a4>)
    56f2:	4798      	blx	r3
			LogMessage(LOG_INFO_LVL ,"[FAIL] res %d\r\n", res);
    56f4:	4ba3      	ldr	r3, [pc, #652]	; (5984 <main+0x3c4>)
    56f6:	781a      	ldrb	r2, [r3, #0]
    56f8:	49a8      	ldr	r1, [pc, #672]	; (599c <main+0x3dc>)
    56fa:	2000      	movs	r0, #0
    56fc:	4ba8      	ldr	r3, [pc, #672]	; (59a0 <main+0x3e0>)
    56fe:	4798      	blx	r3
    5700:	e7c4      	b.n	568c <main+0xcc>
		SerialConsoleWriteString("Write to test file (f_write)...\r\n");
    5702:	48b1      	ldr	r0, [pc, #708]	; (59c8 <main+0x408>)
    5704:	4b97      	ldr	r3, [pc, #604]	; (5964 <main+0x3a4>)
    5706:	4798      	blx	r3
		uint32_t varWrite = 0;
    5708:	2300      	movs	r3, #0
    570a:	607b      	str	r3, [r7, #4]
		if (0 != f_write(&file_object, binbuff,256, (UINT*) &varWrite))
    570c:	1d3b      	adds	r3, r7, #4
    570e:	2280      	movs	r2, #128	; 0x80
    5710:	0052      	lsls	r2, r2, #1
    5712:	2108      	movs	r1, #8
    5714:	1879      	adds	r1, r7, r1
    5716:	489f      	ldr	r0, [pc, #636]	; (5994 <main+0x3d4>)
    5718:	4cac      	ldr	r4, [pc, #688]	; (59cc <main+0x40c>)
    571a:	47a0      	blx	r4
    571c:	2800      	cmp	r0, #0
    571e:	d007      	beq.n	5730 <main+0x170>
			f_close(&file_object);
    5720:	489c      	ldr	r0, [pc, #624]	; (5994 <main+0x3d4>)
    5722:	4ba4      	ldr	r3, [pc, #656]	; (59b4 <main+0x3f4>)
    5724:	4798      	blx	r3
			LogMessage(LOG_INFO_LVL ,"[FAIL]\r\n");
    5726:	49a4      	ldr	r1, [pc, #656]	; (59b8 <main+0x3f8>)
    5728:	2000      	movs	r0, #0
    572a:	4b9d      	ldr	r3, [pc, #628]	; (59a0 <main+0x3e0>)
    572c:	4798      	blx	r3
    572e:	e7ad      	b.n	568c <main+0xcc>
		SerialConsoleWriteString("[OK]\r\n");
    5730:	4895      	ldr	r0, [pc, #596]	; (5988 <main+0x3c8>)
    5732:	4c8c      	ldr	r4, [pc, #560]	; (5964 <main+0x3a4>)
    5734:	47a0      	blx	r4
		f_close(&file_object); //Close file
    5736:	4897      	ldr	r0, [pc, #604]	; (5994 <main+0x3d4>)
    5738:	4b9e      	ldr	r3, [pc, #632]	; (59b4 <main+0x3f4>)
    573a:	4798      	blx	r3
		SerialConsoleWriteString("Test is successful.\n\r");
    573c:	489f      	ldr	r0, [pc, #636]	; (59bc <main+0x3fc>)
    573e:	47a0      	blx	r4
		SerialConsoleWriteString("End of Test.\n\r");
    5740:	4898      	ldr	r0, [pc, #608]	; (59a4 <main+0x3e4>)
    5742:	47a0      	blx	r4
		SerialConsoleWriteString("SD CARD mount success! Filesystem also mounted. \r\n");
    5744:	48a2      	ldr	r0, [pc, #648]	; (59d0 <main+0x410>)
    5746:	47a0      	blx	r4
		nvm_get_parameters (&parameters); //Get NVM parameters
    5748:	2395      	movs	r3, #149	; 0x95
    574a:	009b      	lsls	r3, r3, #2
    574c:	18fd      	adds	r5, r7, r3
    574e:	0028      	movs	r0, r5
    5750:	4ba0      	ldr	r3, [pc, #640]	; (59d4 <main+0x414>)
    5752:	4798      	blx	r3
		snprintf(helpStr, 63,"NVM Info: Number of Pages %d. Size of a page: %d bytes. \r\n", parameters.nvm_number_of_pages, parameters.page_size);
    5754:	886b      	ldrh	r3, [r5, #2]
    5756:	782a      	ldrb	r2, [r5, #0]
    5758:	9200      	str	r2, [sp, #0]
    575a:	4a9f      	ldr	r2, [pc, #636]	; (59d8 <main+0x418>)
    575c:	213f      	movs	r1, #63	; 0x3f
    575e:	2085      	movs	r0, #133	; 0x85
    5760:	0080      	lsls	r0, r0, #2
    5762:	1838      	adds	r0, r7, r0
    5764:	4d9d      	ldr	r5, [pc, #628]	; (59dc <main+0x41c>)
    5766:	47a8      	blx	r5
		SerialConsoleWriteString(helpStr);
    5768:	2385      	movs	r3, #133	; 0x85
    576a:	009b      	lsls	r3, r3, #2
    576c:	18f8      	adds	r0, r7, r3
    576e:	47a0      	blx	r4
		uint32_t numBytesRead = 0;
    5770:	2300      	movs	r3, #0
    5772:	2288      	movs	r2, #136	; 0x88
    5774:	0052      	lsls	r2, r2, #1
    5776:	18ba      	adds	r2, r7, r2
    5778:	6013      	str	r3, [r2, #0]
		enum status_code nvmError = nvm_erase_row(APP_START_ADDRESS);
    577a:	2090      	movs	r0, #144	; 0x90
    577c:	0240      	lsls	r0, r0, #9
    577e:	4b98      	ldr	r3, [pc, #608]	; (59e0 <main+0x420>)
    5780:	4798      	blx	r3
		if(nvmError != STATUS_OK)
    5782:	2800      	cmp	r0, #0
    5784:	d11e      	bne.n	57c4 <main+0x204>
			if(*a != 0xFF)
    5786:	2390      	movs	r3, #144	; 0x90
    5788:	025b      	lsls	r3, r3, #9
    578a:	781b      	ldrb	r3, [r3, #0]
    578c:	2bff      	cmp	r3, #255	; 0xff
    578e:	d11d      	bne.n	57cc <main+0x20c>
    5790:	4b94      	ldr	r3, [pc, #592]	; (59e4 <main+0x424>)
		for(int iter = 0; iter < 256; iter++)
    5792:	4995      	ldr	r1, [pc, #596]	; (59e8 <main+0x428>)
			if(*a != 0xFF)
    5794:	781a      	ldrb	r2, [r3, #0]
    5796:	2aff      	cmp	r2, #255	; 0xff
    5798:	d118      	bne.n	57cc <main+0x20c>
    579a:	3301      	adds	r3, #1
		for(int iter = 0; iter < 256; iter++)
    579c:	428b      	cmp	r3, r1
    579e:	d1f9      	bne.n	5794 <main+0x1d4>
    57a0:	e017      	b.n	57d2 <main+0x212>
		SerialConsoleWriteString("SD Card failed initiation! Check connections!\n\r");
    57a2:	4892      	ldr	r0, [pc, #584]	; (59ec <main+0x42c>)
    57a4:	4b6f      	ldr	r3, [pc, #444]	; (5964 <main+0x3a4>)
    57a6:	4798      	blx	r3
		SerialConsoleWriteString("SD CARD failed! Check your connections. System will restart in 5 seconds...");
    57a8:	4891      	ldr	r0, [pc, #580]	; (59f0 <main+0x430>)
    57aa:	4b6e      	ldr	r3, [pc, #440]	; (5964 <main+0x3a4>)
    57ac:	4798      	blx	r3
		delay_cycles_ms(5000);
    57ae:	4891      	ldr	r0, [pc, #580]	; (59f4 <main+0x434>)
    57b0:	4b91      	ldr	r3, [pc, #580]	; (59f8 <main+0x438>)
    57b2:	4798      	blx	r3
  __ASM volatile ("dsb");
    57b4:	f3bf 8f4f 	dsb	sy
 */
__STATIC_INLINE void NVIC_SystemReset(void)
{
  __DSB();                                                     /* Ensure all outstanding memory accesses included
                                                                  buffered write are completed before reset */
  SCB->AIRCR  = ((0x5FA << SCB_AIRCR_VECTKEY_Pos)      |
    57b8:	4a90      	ldr	r2, [pc, #576]	; (59fc <main+0x43c>)
    57ba:	4b91      	ldr	r3, [pc, #580]	; (5a00 <main+0x440>)
    57bc:	60da      	str	r2, [r3, #12]
    57be:	f3bf 8f4f 	dsb	sy
    57c2:	e7fe      	b.n	57c2 <main+0x202>
			SerialConsoleWriteString("Erase error");
    57c4:	488f      	ldr	r0, [pc, #572]	; (5a04 <main+0x444>)
    57c6:	4b67      	ldr	r3, [pc, #412]	; (5964 <main+0x3a4>)
    57c8:	4798      	blx	r3
    57ca:	e7dc      	b.n	5786 <main+0x1c6>
				SerialConsoleWriteString("Error - test page is not erased!");
    57cc:	488e      	ldr	r0, [pc, #568]	; (5a08 <main+0x448>)
    57ce:	4b65      	ldr	r3, [pc, #404]	; (5964 <main+0x3a4>)
    57d0:	4798      	blx	r3
		SerialConsoleWriteString("hello about to do isTaskA \r\n");
    57d2:	488e      	ldr	r0, [pc, #568]	; (5a0c <main+0x44c>)
    57d4:	4b63      	ldr	r3, [pc, #396]	; (5964 <main+0x3a4>)
    57d6:	4798      	blx	r3
		testA_file_name[0] = LUN_ID_SD_MMC_0_MEM + '0';
    57d8:	498d      	ldr	r1, [pc, #564]	; (5a10 <main+0x450>)
    57da:	2330      	movs	r3, #48	; 0x30
    57dc:	700b      	strb	r3, [r1, #0]
		restxt = f_open(&file_object, (char const *)testA_file_name, FA_READ);
    57de:	2201      	movs	r2, #1
    57e0:	486c      	ldr	r0, [pc, #432]	; (5994 <main+0x3d4>)
    57e2:	4b6d      	ldr	r3, [pc, #436]	; (5998 <main+0x3d8>)
    57e4:	4798      	blx	r3
    57e6:	4b8b      	ldr	r3, [pc, #556]	; (5a14 <main+0x454>)
    57e8:	7018      	strb	r0, [r3, #0]
		if (restxt == FR_OK) {
    57ea:	2800      	cmp	r0, #0
    57ec:	d000      	beq.n	57f0 <main+0x230>
    57ee:	e135      	b.n	5a5c <main+0x49c>
			isTaskA = true;
    57f0:	2201      	movs	r2, #1
    57f2:	4b89      	ldr	r3, [pc, #548]	; (5a18 <main+0x458>)
    57f4:	701a      	strb	r2, [r3, #0]
			SerialConsoleWriteString("flagA.txt is in SD card, we are doing testA\r\n");
    57f6:	4889      	ldr	r0, [pc, #548]	; (5a1c <main+0x45c>)
    57f8:	4b5a      	ldr	r3, [pc, #360]	; (5964 <main+0x3a4>)
    57fa:	4798      	blx	r3
		res = !FR_OK;
    57fc:	2201      	movs	r2, #1
    57fe:	4b61      	ldr	r3, [pc, #388]	; (5984 <main+0x3c4>)
    5800:	701a      	strb	r2, [r3, #0]
		if (isTaskA) {
    5802:	4b85      	ldr	r3, [pc, #532]	; (5a18 <main+0x458>)
    5804:	781b      	ldrb	r3, [r3, #0]
    5806:	2b00      	cmp	r3, #0
    5808:	d100      	bne.n	580c <main+0x24c>
    580a:	e12e      	b.n	5a6a <main+0x4aa>
			testA_bin_file[0] = LUN_ID_SD_MMC_0_MEM + '0';
    580c:	4984      	ldr	r1, [pc, #528]	; (5a20 <main+0x460>)
    580e:	2330      	movs	r3, #48	; 0x30
    5810:	700b      	strb	r3, [r1, #0]
			res = f_open(&file_object, (char const *)testA_bin_file, FA_READ);
    5812:	4860      	ldr	r0, [pc, #384]	; (5994 <main+0x3d4>)
    5814:	4b60      	ldr	r3, [pc, #384]	; (5998 <main+0x3d8>)
    5816:	4798      	blx	r3
    5818:	4b5a      	ldr	r3, [pc, #360]	; (5984 <main+0x3c4>)
    581a:	7018      	strb	r0, [r3, #0]
			SerialConsoleWriteString("TaskA Bin is found and opened\r\n");
    581c:	4881      	ldr	r0, [pc, #516]	; (5a24 <main+0x464>)
    581e:	4b51      	ldr	r3, [pc, #324]	; (5964 <main+0x3a4>)
    5820:	4798      	blx	r3
		if (res != FR_OK)
    5822:	4b58      	ldr	r3, [pc, #352]	; (5984 <main+0x3c4>)
    5824:	781b      	ldrb	r3, [r3, #0]
    5826:	2b00      	cmp	r3, #0
    5828:	d000      	beq.n	582c <main+0x26c>
    582a:	e12b      	b.n	5a84 <main+0x4c4>
		SerialConsoleWriteString("finished fopen\r\n");
    582c:	487e      	ldr	r0, [pc, #504]	; (5a28 <main+0x468>)
    582e:	4b4d      	ldr	r3, [pc, #308]	; (5964 <main+0x3a4>)
    5830:	4798      	blx	r3
		numBytesRead = 0;
    5832:	2300      	movs	r3, #0
    5834:	2288      	movs	r2, #136	; 0x88
    5836:	0052      	lsls	r2, r2, #1
    5838:	18ba      	adds	r2, r7, r2
    583a:	6013      	str	r3, [r2, #0]
			res = f_read(&file_object, &readBuffer[numberBytesTotal], numBytesLeft, &numBytesRead); //Question to students: What is numBytesRead? What are we doing here?
    583c:	0013      	movs	r3, r2
    583e:	2280      	movs	r2, #128	; 0x80
    5840:	0052      	lsls	r2, r2, #1
    5842:	218a      	movs	r1, #138	; 0x8a
    5844:	0049      	lsls	r1, r1, #1
    5846:	1879      	adds	r1, r7, r1
    5848:	4852      	ldr	r0, [pc, #328]	; (5994 <main+0x3d4>)
    584a:	4c78      	ldr	r4, [pc, #480]	; (5a2c <main+0x46c>)
    584c:	47a0      	blx	r4
    584e:	4c4d      	ldr	r4, [pc, #308]	; (5984 <main+0x3c4>)
    5850:	7020      	strb	r0, [r4, #0]
		res = nvm_write_buffer (APP_START_ADDRESS, &readBuffer[0], 64);
    5852:	2240      	movs	r2, #64	; 0x40
    5854:	238a      	movs	r3, #138	; 0x8a
    5856:	005b      	lsls	r3, r3, #1
    5858:	18f9      	adds	r1, r7, r3
    585a:	2090      	movs	r0, #144	; 0x90
    585c:	0240      	lsls	r0, r0, #9
    585e:	4d74      	ldr	r5, [pc, #464]	; (5a30 <main+0x470>)
    5860:	47a8      	blx	r5
    5862:	7020      	strb	r0, [r4, #0]
		res = nvm_write_buffer (APP_START_ADDRESS + 64, &readBuffer[64], 64);
    5864:	2240      	movs	r2, #64	; 0x40
    5866:	23aa      	movs	r3, #170	; 0xaa
    5868:	005b      	lsls	r3, r3, #1
    586a:	18f9      	adds	r1, r7, r3
    586c:	4871      	ldr	r0, [pc, #452]	; (5a34 <main+0x474>)
    586e:	47a8      	blx	r5
    5870:	7020      	strb	r0, [r4, #0]
		res = nvm_write_buffer (APP_START_ADDRESS + 128, &readBuffer[128], 64);
    5872:	2240      	movs	r2, #64	; 0x40
    5874:	23ca      	movs	r3, #202	; 0xca
    5876:	005b      	lsls	r3, r3, #1
    5878:	18f9      	adds	r1, r7, r3
    587a:	486f      	ldr	r0, [pc, #444]	; (5a38 <main+0x478>)
    587c:	47a8      	blx	r5
    587e:	7020      	strb	r0, [r4, #0]
		res = nvm_write_buffer (APP_START_ADDRESS + 192, &readBuffer[192], 64);
    5880:	2240      	movs	r2, #64	; 0x40
    5882:	23ea      	movs	r3, #234	; 0xea
    5884:	005b      	lsls	r3, r3, #1
    5886:	18f9      	adds	r1, r7, r3
    5888:	486c      	ldr	r0, [pc, #432]	; (5a3c <main+0x47c>)
    588a:	47a8      	blx	r5
    588c:	7020      	strb	r0, [r4, #0]
		if (res != FR_OK)
    588e:	2800      	cmp	r0, #0
    5890:	d100      	bne.n	5894 <main+0x2d4>
    5892:	e0fb      	b.n	5a8c <main+0x4cc>
			SerialConsoleWriteString("Test write to NVM failed!\r\n");
    5894:	486a      	ldr	r0, [pc, #424]	; (5a40 <main+0x480>)
    5896:	4b33      	ldr	r3, [pc, #204]	; (5964 <main+0x3a4>)
    5898:	4798      	blx	r3
		uint32_t resultCrcSd = 0;
    589a:	2386      	movs	r3, #134	; 0x86
    589c:	005b      	lsls	r3, r3, #1
    589e:	18fb      	adds	r3, r7, r3
    58a0:	2200      	movs	r2, #0
    58a2:	601a      	str	r2, [r3, #0]
		enum status_code crcres = dsu_crc32_cal	(readBuffer	,256, &resultCrcSd); //Instructor note: Was it the third parameter used for? Please check how you can use the third parameter to do the CRC of a long data stream in chunks - you will need it!
    58a4:	2680      	movs	r6, #128	; 0x80
    58a6:	0076      	lsls	r6, r6, #1
    58a8:	2386      	movs	r3, #134	; 0x86
    58aa:	005b      	lsls	r3, r3, #1
    58ac:	18fa      	adds	r2, r7, r3
    58ae:	0031      	movs	r1, r6
    58b0:	3308      	adds	r3, #8
    58b2:	18f8      	adds	r0, r7, r3
    58b4:	4d63      	ldr	r5, [pc, #396]	; (5a44 <main+0x484>)
    58b6:	47a8      	blx	r5
    58b8:	0004      	movs	r4, r0
		uint32_t resultCrcNvm = 0;
    58ba:	2384      	movs	r3, #132	; 0x84
    58bc:	005b      	lsls	r3, r3, #1
    58be:	18fb      	adds	r3, r7, r3
    58c0:	2200      	movs	r2, #0
    58c2:	601a      	str	r2, [r3, #0]
		crcres |= dsu_crc32_cal	(readBuffer	,256, &resultCrcNvm);
    58c4:	2384      	movs	r3, #132	; 0x84
    58c6:	005b      	lsls	r3, r3, #1
    58c8:	18fa      	adds	r2, r7, r3
    58ca:	0031      	movs	r1, r6
    58cc:	330c      	adds	r3, #12
    58ce:	18f8      	adds	r0, r7, r3
    58d0:	47a8      	blx	r5
    58d2:	4304      	orrs	r4, r0
		if (crcres != STATUS_OK)
    58d4:	b2e4      	uxtb	r4, r4
    58d6:	2c00      	cmp	r4, #0
    58d8:	d000      	beq.n	58dc <main+0x31c>
    58da:	e0db      	b.n	5a94 <main+0x4d4>
			snprintf(helpStr, 63,"CRC SD CARD: %d  CRC NVM: %d \r\n", resultCrcNvm, resultCrcSd);
    58dc:	2386      	movs	r3, #134	; 0x86
    58de:	005b      	lsls	r3, r3, #1
    58e0:	18fb      	adds	r3, r7, r3
    58e2:	681b      	ldr	r3, [r3, #0]
    58e4:	9300      	str	r3, [sp, #0]
    58e6:	2384      	movs	r3, #132	; 0x84
    58e8:	005b      	lsls	r3, r3, #1
    58ea:	18fb      	adds	r3, r7, r3
    58ec:	681b      	ldr	r3, [r3, #0]
    58ee:	4a56      	ldr	r2, [pc, #344]	; (5a48 <main+0x488>)
    58f0:	213f      	movs	r1, #63	; 0x3f
    58f2:	2085      	movs	r0, #133	; 0x85
    58f4:	0080      	lsls	r0, r0, #2
    58f6:	1838      	adds	r0, r7, r0
    58f8:	4c38      	ldr	r4, [pc, #224]	; (59dc <main+0x41c>)
    58fa:	47a0      	blx	r4
			SerialConsoleWriteString(helpStr);
    58fc:	2385      	movs	r3, #133	; 0x85
    58fe:	009b      	lsls	r3, r3, #2
    5900:	18f8      	adds	r0, r7, r3
    5902:	4b18      	ldr	r3, [pc, #96]	; (5964 <main+0x3a4>)
    5904:	4798      	blx	r3
	SerialConsoleWriteString("ESE516 - EXIT BOOTLOADER\r\n");	//Order to add string to TX Buffer
    5906:	4851      	ldr	r0, [pc, #324]	; (5a4c <main+0x48c>)
    5908:	4b16      	ldr	r3, [pc, #88]	; (5964 <main+0x3a4>)
    590a:	4798      	blx	r3
	delay_cycles_ms(100); //Delay to allow print
    590c:	2064      	movs	r0, #100	; 0x64
    590e:	4b3a      	ldr	r3, [pc, #232]	; (59f8 <main+0x438>)
    5910:	4798      	blx	r3
	DeinitializeSerialConsole(); //Deinitializes UART
    5912:	4b4f      	ldr	r3, [pc, #316]	; (5a50 <main+0x490>)
    5914:	4798      	blx	r3
	sd_mmc_deinit(); //Deinitialize SD CARD
    5916:	4b4f      	ldr	r3, [pc, #316]	; (5a54 <main+0x494>)
    5918:	4798      	blx	r3
__set_MSP(*(uint32_t *) APP_START_ADDRESS);
    591a:	2390      	movs	r3, #144	; 0x90
    591c:	025b      	lsls	r3, r3, #9

    \param [in]    topOfMainStack  Main Stack Pointer value to set
 */
__attribute__( ( always_inline ) ) __STATIC_INLINE void __set_MSP(uint32_t topOfMainStack)
{
  __ASM volatile ("MSR msp, %0\n" : : "r" (topOfMainStack) : "sp");
    591e:	681a      	ldr	r2, [r3, #0]
    5920:	f382 8808 	msr	MSP, r2
SCB->VTOR = ((uint32_t) APP_START_ADDRESS & SCB_VTOR_TBLOFF_Msk);
    5924:	4a36      	ldr	r2, [pc, #216]	; (5a00 <main+0x440>)
    5926:	6093      	str	r3, [r2, #8]
(void (*)(void))(unsigned *)(*(unsigned *)(APP_START_RESET_VEC_ADDRESS));
    5928:	4b4b      	ldr	r3, [pc, #300]	; (5a58 <main+0x498>)
applicationCodeEntry();
    592a:	681b      	ldr	r3, [r3, #0]
    592c:	4798      	blx	r3
}
    592e:	2000      	movs	r0, #0
    5930:	46bd      	mov	sp, r7
    5932:	2399      	movs	r3, #153	; 0x99
    5934:	009b      	lsls	r3, r3, #2
    5936:	449d      	add	sp, r3
    5938:	bdf0      	pop	{r4, r5, r6, r7, pc}
    593a:	46c0      	nop			; (mov r8, r8)
    593c:	fffffd94 	.word	0xfffffd94
    5940:	000036d1 	.word	0x000036d1
    5944:	00000115 	.word	0x00000115
    5948:	00000731 	.word	0x00000731
    594c:	20000009 	.word	0x20000009
    5950:	00000ac5 	.word	0x00000ac5
    5954:	41004000 	.word	0x41004000
    5958:	0000026d 	.word	0x0000026d
    595c:	40000400 	.word	0x40000400
    5960:	0000748c 	.word	0x0000748c
    5964:	000008d1 	.word	0x000008d1
    5968:	000074a8 	.word	0x000074a8
    596c:	000005b1 	.word	0x000005b1
    5970:	000074d0 	.word	0x000074d0
    5974:	000074f0 	.word	0x000074f0
    5978:	20000a48 	.word	0x20000a48
    597c:	00005e65 	.word	0x00005e65
    5980:	00004e9d 	.word	0x00004e9d
    5984:	20000cd0 	.word	0x20000cd0
    5988:	0000751c 	.word	0x0000751c
    598c:	00007524 	.word	0x00007524
    5990:	20000040 	.word	0x20000040
    5994:	20000c78 	.word	0x20000c78
    5998:	00004ecd 	.word	0x00004ecd
    599c:	0000750c 	.word	0x0000750c
    59a0:	00000999 	.word	0x00000999
    59a4:	000075e0 	.word	0x000075e0
    59a8:	00007540 	.word	0x00007540
    59ac:	00007564 	.word	0x00007564
    59b0:	00005511 	.word	0x00005511
    59b4:	000054cd 	.word	0x000054cd
    59b8:	00007578 	.word	0x00007578
    59bc:	00007584 	.word	0x00007584
    59c0:	20000030 	.word	0x20000030
    59c4:	0000759c 	.word	0x0000759c
    59c8:	000075bc 	.word	0x000075bc
    59cc:	00005209 	.word	0x00005209
    59d0:	000075f0 	.word	0x000075f0
    59d4:	00000499 	.word	0x00000499
    59d8:	00007624 	.word	0x00007624
    59dc:	00006155 	.word	0x00006155
    59e0:	0000043d 	.word	0x0000043d
    59e4:	00012001 	.word	0x00012001
    59e8:	00012100 	.word	0x00012100
    59ec:	00007660 	.word	0x00007660
    59f0:	00007690 	.word	0x00007690
    59f4:	00001388 	.word	0x00001388
    59f8:	00000155 	.word	0x00000155
    59fc:	05fa0004 	.word	0x05fa0004
    5a00:	e000ed00 	.word	0xe000ed00
    5a04:	000076dc 	.word	0x000076dc
    5a08:	000076e8 	.word	0x000076e8
    5a0c:	0000770c 	.word	0x0000770c
    5a10:	20000018 	.word	0x20000018
    5a14:	20000cd1 	.word	0x20000cd1
    5a18:	2000000a 	.word	0x2000000a
    5a1c:	0000772c 	.word	0x0000772c
    5a20:	2000000c 	.word	0x2000000c
    5a24:	00007790 	.word	0x00007790
    5a28:	000077ec 	.word	0x000077ec
    5a2c:	00005055 	.word	0x00005055
    5a30:	00000395 	.word	0x00000395
    5a34:	00012040 	.word	0x00012040
    5a38:	00012080 	.word	0x00012080
    5a3c:	000120c0 	.word	0x000120c0
    5a40:	00007800 	.word	0x00007800
    5a44:	000001d5 	.word	0x000001d5
    5a48:	00007858 	.word	0x00007858
    5a4c:	00007878 	.word	0x00007878
    5a50:	00000899 	.word	0x00000899
    5a54:	00001549 	.word	0x00001549
    5a58:	00012004 	.word	0x00012004
			isTaskA = false;
    5a5c:	2200      	movs	r2, #0
    5a5e:	4b0f      	ldr	r3, [pc, #60]	; (5a9c <main+0x4dc>)
    5a60:	701a      	strb	r2, [r3, #0]
			SerialConsoleWriteString("flagA.txt is not in SD card, we are doing testB\r\n");
    5a62:	480f      	ldr	r0, [pc, #60]	; (5aa0 <main+0x4e0>)
    5a64:	4b0f      	ldr	r3, [pc, #60]	; (5aa4 <main+0x4e4>)
    5a66:	4798      	blx	r3
    5a68:	e6c8      	b.n	57fc <main+0x23c>
			testB_bin_file[0] = LUN_ID_SD_MMC_0_MEM + '0';
    5a6a:	490f      	ldr	r1, [pc, #60]	; (5aa8 <main+0x4e8>)
    5a6c:	2330      	movs	r3, #48	; 0x30
    5a6e:	700b      	strb	r3, [r1, #0]
			res = f_open(&file_object, (char const *)testB_bin_file, FA_READ);
    5a70:	2201      	movs	r2, #1
    5a72:	480e      	ldr	r0, [pc, #56]	; (5aac <main+0x4ec>)
    5a74:	4b0e      	ldr	r3, [pc, #56]	; (5ab0 <main+0x4f0>)
    5a76:	4798      	blx	r3
    5a78:	4b0e      	ldr	r3, [pc, #56]	; (5ab4 <main+0x4f4>)
    5a7a:	7018      	strb	r0, [r3, #0]
			SerialConsoleWriteString("TaskB Bin is found and opened\r\n");
    5a7c:	480e      	ldr	r0, [pc, #56]	; (5ab8 <main+0x4f8>)
    5a7e:	4b09      	ldr	r3, [pc, #36]	; (5aa4 <main+0x4e4>)
    5a80:	4798      	blx	r3
    5a82:	e6ce      	b.n	5822 <main+0x262>
			SerialConsoleWriteString("Could not open test file!\r\n");
    5a84:	480d      	ldr	r0, [pc, #52]	; (5abc <main+0x4fc>)
    5a86:	4b07      	ldr	r3, [pc, #28]	; (5aa4 <main+0x4e4>)
    5a88:	4798      	blx	r3
    5a8a:	e6cf      	b.n	582c <main+0x26c>
			SerialConsoleWriteString("Test write to NVM succeeded!\r\n");
    5a8c:	480c      	ldr	r0, [pc, #48]	; (5ac0 <main+0x500>)
    5a8e:	4b05      	ldr	r3, [pc, #20]	; (5aa4 <main+0x4e4>)
    5a90:	4798      	blx	r3
    5a92:	e702      	b.n	589a <main+0x2da>
			SerialConsoleWriteString("Could not calculate CRC!!\r\n");
    5a94:	480b      	ldr	r0, [pc, #44]	; (5ac4 <main+0x504>)
    5a96:	4b03      	ldr	r3, [pc, #12]	; (5aa4 <main+0x4e4>)
    5a98:	4798      	blx	r3
    5a9a:	e734      	b.n	5906 <main+0x346>
    5a9c:	2000000a 	.word	0x2000000a
    5aa0:	0000775c 	.word	0x0000775c
    5aa4:	000008d1 	.word	0x000008d1
    5aa8:	20000024 	.word	0x20000024
    5aac:	20000c78 	.word	0x20000c78
    5ab0:	00004ecd 	.word	0x00004ecd
    5ab4:	20000cd0 	.word	0x20000cd0
    5ab8:	000077b0 	.word	0x000077b0
    5abc:	000077d0 	.word	0x000077d0
    5ac0:	0000781c 	.word	0x0000781c
    5ac4:	0000783c 	.word	0x0000783c

00005ac8 <__udivsi3>:
    5ac8:	2200      	movs	r2, #0
    5aca:	0843      	lsrs	r3, r0, #1
    5acc:	428b      	cmp	r3, r1
    5ace:	d374      	bcc.n	5bba <__udivsi3+0xf2>
    5ad0:	0903      	lsrs	r3, r0, #4
    5ad2:	428b      	cmp	r3, r1
    5ad4:	d35f      	bcc.n	5b96 <__udivsi3+0xce>
    5ad6:	0a03      	lsrs	r3, r0, #8
    5ad8:	428b      	cmp	r3, r1
    5ada:	d344      	bcc.n	5b66 <__udivsi3+0x9e>
    5adc:	0b03      	lsrs	r3, r0, #12
    5ade:	428b      	cmp	r3, r1
    5ae0:	d328      	bcc.n	5b34 <__udivsi3+0x6c>
    5ae2:	0c03      	lsrs	r3, r0, #16
    5ae4:	428b      	cmp	r3, r1
    5ae6:	d30d      	bcc.n	5b04 <__udivsi3+0x3c>
    5ae8:	22ff      	movs	r2, #255	; 0xff
    5aea:	0209      	lsls	r1, r1, #8
    5aec:	ba12      	rev	r2, r2
    5aee:	0c03      	lsrs	r3, r0, #16
    5af0:	428b      	cmp	r3, r1
    5af2:	d302      	bcc.n	5afa <__udivsi3+0x32>
    5af4:	1212      	asrs	r2, r2, #8
    5af6:	0209      	lsls	r1, r1, #8
    5af8:	d065      	beq.n	5bc6 <__udivsi3+0xfe>
    5afa:	0b03      	lsrs	r3, r0, #12
    5afc:	428b      	cmp	r3, r1
    5afe:	d319      	bcc.n	5b34 <__udivsi3+0x6c>
    5b00:	e000      	b.n	5b04 <__udivsi3+0x3c>
    5b02:	0a09      	lsrs	r1, r1, #8
    5b04:	0bc3      	lsrs	r3, r0, #15
    5b06:	428b      	cmp	r3, r1
    5b08:	d301      	bcc.n	5b0e <__udivsi3+0x46>
    5b0a:	03cb      	lsls	r3, r1, #15
    5b0c:	1ac0      	subs	r0, r0, r3
    5b0e:	4152      	adcs	r2, r2
    5b10:	0b83      	lsrs	r3, r0, #14
    5b12:	428b      	cmp	r3, r1
    5b14:	d301      	bcc.n	5b1a <__udivsi3+0x52>
    5b16:	038b      	lsls	r3, r1, #14
    5b18:	1ac0      	subs	r0, r0, r3
    5b1a:	4152      	adcs	r2, r2
    5b1c:	0b43      	lsrs	r3, r0, #13
    5b1e:	428b      	cmp	r3, r1
    5b20:	d301      	bcc.n	5b26 <__udivsi3+0x5e>
    5b22:	034b      	lsls	r3, r1, #13
    5b24:	1ac0      	subs	r0, r0, r3
    5b26:	4152      	adcs	r2, r2
    5b28:	0b03      	lsrs	r3, r0, #12
    5b2a:	428b      	cmp	r3, r1
    5b2c:	d301      	bcc.n	5b32 <__udivsi3+0x6a>
    5b2e:	030b      	lsls	r3, r1, #12
    5b30:	1ac0      	subs	r0, r0, r3
    5b32:	4152      	adcs	r2, r2
    5b34:	0ac3      	lsrs	r3, r0, #11
    5b36:	428b      	cmp	r3, r1
    5b38:	d301      	bcc.n	5b3e <__udivsi3+0x76>
    5b3a:	02cb      	lsls	r3, r1, #11
    5b3c:	1ac0      	subs	r0, r0, r3
    5b3e:	4152      	adcs	r2, r2
    5b40:	0a83      	lsrs	r3, r0, #10
    5b42:	428b      	cmp	r3, r1
    5b44:	d301      	bcc.n	5b4a <__udivsi3+0x82>
    5b46:	028b      	lsls	r3, r1, #10
    5b48:	1ac0      	subs	r0, r0, r3
    5b4a:	4152      	adcs	r2, r2
    5b4c:	0a43      	lsrs	r3, r0, #9
    5b4e:	428b      	cmp	r3, r1
    5b50:	d301      	bcc.n	5b56 <__udivsi3+0x8e>
    5b52:	024b      	lsls	r3, r1, #9
    5b54:	1ac0      	subs	r0, r0, r3
    5b56:	4152      	adcs	r2, r2
    5b58:	0a03      	lsrs	r3, r0, #8
    5b5a:	428b      	cmp	r3, r1
    5b5c:	d301      	bcc.n	5b62 <__udivsi3+0x9a>
    5b5e:	020b      	lsls	r3, r1, #8
    5b60:	1ac0      	subs	r0, r0, r3
    5b62:	4152      	adcs	r2, r2
    5b64:	d2cd      	bcs.n	5b02 <__udivsi3+0x3a>
    5b66:	09c3      	lsrs	r3, r0, #7
    5b68:	428b      	cmp	r3, r1
    5b6a:	d301      	bcc.n	5b70 <__udivsi3+0xa8>
    5b6c:	01cb      	lsls	r3, r1, #7
    5b6e:	1ac0      	subs	r0, r0, r3
    5b70:	4152      	adcs	r2, r2
    5b72:	0983      	lsrs	r3, r0, #6
    5b74:	428b      	cmp	r3, r1
    5b76:	d301      	bcc.n	5b7c <__udivsi3+0xb4>
    5b78:	018b      	lsls	r3, r1, #6
    5b7a:	1ac0      	subs	r0, r0, r3
    5b7c:	4152      	adcs	r2, r2
    5b7e:	0943      	lsrs	r3, r0, #5
    5b80:	428b      	cmp	r3, r1
    5b82:	d301      	bcc.n	5b88 <__udivsi3+0xc0>
    5b84:	014b      	lsls	r3, r1, #5
    5b86:	1ac0      	subs	r0, r0, r3
    5b88:	4152      	adcs	r2, r2
    5b8a:	0903      	lsrs	r3, r0, #4
    5b8c:	428b      	cmp	r3, r1
    5b8e:	d301      	bcc.n	5b94 <__udivsi3+0xcc>
    5b90:	010b      	lsls	r3, r1, #4
    5b92:	1ac0      	subs	r0, r0, r3
    5b94:	4152      	adcs	r2, r2
    5b96:	08c3      	lsrs	r3, r0, #3
    5b98:	428b      	cmp	r3, r1
    5b9a:	d301      	bcc.n	5ba0 <__udivsi3+0xd8>
    5b9c:	00cb      	lsls	r3, r1, #3
    5b9e:	1ac0      	subs	r0, r0, r3
    5ba0:	4152      	adcs	r2, r2
    5ba2:	0883      	lsrs	r3, r0, #2
    5ba4:	428b      	cmp	r3, r1
    5ba6:	d301      	bcc.n	5bac <__udivsi3+0xe4>
    5ba8:	008b      	lsls	r3, r1, #2
    5baa:	1ac0      	subs	r0, r0, r3
    5bac:	4152      	adcs	r2, r2
    5bae:	0843      	lsrs	r3, r0, #1
    5bb0:	428b      	cmp	r3, r1
    5bb2:	d301      	bcc.n	5bb8 <__udivsi3+0xf0>
    5bb4:	004b      	lsls	r3, r1, #1
    5bb6:	1ac0      	subs	r0, r0, r3
    5bb8:	4152      	adcs	r2, r2
    5bba:	1a41      	subs	r1, r0, r1
    5bbc:	d200      	bcs.n	5bc0 <__udivsi3+0xf8>
    5bbe:	4601      	mov	r1, r0
    5bc0:	4152      	adcs	r2, r2
    5bc2:	4610      	mov	r0, r2
    5bc4:	4770      	bx	lr
    5bc6:	e7ff      	b.n	5bc8 <__udivsi3+0x100>
    5bc8:	b501      	push	{r0, lr}
    5bca:	2000      	movs	r0, #0
    5bcc:	f000 f8f0 	bl	5db0 <__aeabi_idiv0>
    5bd0:	bd02      	pop	{r1, pc}
    5bd2:	46c0      	nop			; (mov r8, r8)

00005bd4 <__aeabi_uidivmod>:
    5bd4:	2900      	cmp	r1, #0
    5bd6:	d0f7      	beq.n	5bc8 <__udivsi3+0x100>
    5bd8:	e776      	b.n	5ac8 <__udivsi3>
    5bda:	4770      	bx	lr

00005bdc <__divsi3>:
    5bdc:	4603      	mov	r3, r0
    5bde:	430b      	orrs	r3, r1
    5be0:	d47f      	bmi.n	5ce2 <__divsi3+0x106>
    5be2:	2200      	movs	r2, #0
    5be4:	0843      	lsrs	r3, r0, #1
    5be6:	428b      	cmp	r3, r1
    5be8:	d374      	bcc.n	5cd4 <__divsi3+0xf8>
    5bea:	0903      	lsrs	r3, r0, #4
    5bec:	428b      	cmp	r3, r1
    5bee:	d35f      	bcc.n	5cb0 <__divsi3+0xd4>
    5bf0:	0a03      	lsrs	r3, r0, #8
    5bf2:	428b      	cmp	r3, r1
    5bf4:	d344      	bcc.n	5c80 <__divsi3+0xa4>
    5bf6:	0b03      	lsrs	r3, r0, #12
    5bf8:	428b      	cmp	r3, r1
    5bfa:	d328      	bcc.n	5c4e <__divsi3+0x72>
    5bfc:	0c03      	lsrs	r3, r0, #16
    5bfe:	428b      	cmp	r3, r1
    5c00:	d30d      	bcc.n	5c1e <__divsi3+0x42>
    5c02:	22ff      	movs	r2, #255	; 0xff
    5c04:	0209      	lsls	r1, r1, #8
    5c06:	ba12      	rev	r2, r2
    5c08:	0c03      	lsrs	r3, r0, #16
    5c0a:	428b      	cmp	r3, r1
    5c0c:	d302      	bcc.n	5c14 <__divsi3+0x38>
    5c0e:	1212      	asrs	r2, r2, #8
    5c10:	0209      	lsls	r1, r1, #8
    5c12:	d065      	beq.n	5ce0 <__divsi3+0x104>
    5c14:	0b03      	lsrs	r3, r0, #12
    5c16:	428b      	cmp	r3, r1
    5c18:	d319      	bcc.n	5c4e <__divsi3+0x72>
    5c1a:	e000      	b.n	5c1e <__divsi3+0x42>
    5c1c:	0a09      	lsrs	r1, r1, #8
    5c1e:	0bc3      	lsrs	r3, r0, #15
    5c20:	428b      	cmp	r3, r1
    5c22:	d301      	bcc.n	5c28 <__divsi3+0x4c>
    5c24:	03cb      	lsls	r3, r1, #15
    5c26:	1ac0      	subs	r0, r0, r3
    5c28:	4152      	adcs	r2, r2
    5c2a:	0b83      	lsrs	r3, r0, #14
    5c2c:	428b      	cmp	r3, r1
    5c2e:	d301      	bcc.n	5c34 <__divsi3+0x58>
    5c30:	038b      	lsls	r3, r1, #14
    5c32:	1ac0      	subs	r0, r0, r3
    5c34:	4152      	adcs	r2, r2
    5c36:	0b43      	lsrs	r3, r0, #13
    5c38:	428b      	cmp	r3, r1
    5c3a:	d301      	bcc.n	5c40 <__divsi3+0x64>
    5c3c:	034b      	lsls	r3, r1, #13
    5c3e:	1ac0      	subs	r0, r0, r3
    5c40:	4152      	adcs	r2, r2
    5c42:	0b03      	lsrs	r3, r0, #12
    5c44:	428b      	cmp	r3, r1
    5c46:	d301      	bcc.n	5c4c <__divsi3+0x70>
    5c48:	030b      	lsls	r3, r1, #12
    5c4a:	1ac0      	subs	r0, r0, r3
    5c4c:	4152      	adcs	r2, r2
    5c4e:	0ac3      	lsrs	r3, r0, #11
    5c50:	428b      	cmp	r3, r1
    5c52:	d301      	bcc.n	5c58 <__divsi3+0x7c>
    5c54:	02cb      	lsls	r3, r1, #11
    5c56:	1ac0      	subs	r0, r0, r3
    5c58:	4152      	adcs	r2, r2
    5c5a:	0a83      	lsrs	r3, r0, #10
    5c5c:	428b      	cmp	r3, r1
    5c5e:	d301      	bcc.n	5c64 <__divsi3+0x88>
    5c60:	028b      	lsls	r3, r1, #10
    5c62:	1ac0      	subs	r0, r0, r3
    5c64:	4152      	adcs	r2, r2
    5c66:	0a43      	lsrs	r3, r0, #9
    5c68:	428b      	cmp	r3, r1
    5c6a:	d301      	bcc.n	5c70 <__divsi3+0x94>
    5c6c:	024b      	lsls	r3, r1, #9
    5c6e:	1ac0      	subs	r0, r0, r3
    5c70:	4152      	adcs	r2, r2
    5c72:	0a03      	lsrs	r3, r0, #8
    5c74:	428b      	cmp	r3, r1
    5c76:	d301      	bcc.n	5c7c <__divsi3+0xa0>
    5c78:	020b      	lsls	r3, r1, #8
    5c7a:	1ac0      	subs	r0, r0, r3
    5c7c:	4152      	adcs	r2, r2
    5c7e:	d2cd      	bcs.n	5c1c <__divsi3+0x40>
    5c80:	09c3      	lsrs	r3, r0, #7
    5c82:	428b      	cmp	r3, r1
    5c84:	d301      	bcc.n	5c8a <__divsi3+0xae>
    5c86:	01cb      	lsls	r3, r1, #7
    5c88:	1ac0      	subs	r0, r0, r3
    5c8a:	4152      	adcs	r2, r2
    5c8c:	0983      	lsrs	r3, r0, #6
    5c8e:	428b      	cmp	r3, r1
    5c90:	d301      	bcc.n	5c96 <__divsi3+0xba>
    5c92:	018b      	lsls	r3, r1, #6
    5c94:	1ac0      	subs	r0, r0, r3
    5c96:	4152      	adcs	r2, r2
    5c98:	0943      	lsrs	r3, r0, #5
    5c9a:	428b      	cmp	r3, r1
    5c9c:	d301      	bcc.n	5ca2 <__divsi3+0xc6>
    5c9e:	014b      	lsls	r3, r1, #5
    5ca0:	1ac0      	subs	r0, r0, r3
    5ca2:	4152      	adcs	r2, r2
    5ca4:	0903      	lsrs	r3, r0, #4
    5ca6:	428b      	cmp	r3, r1
    5ca8:	d301      	bcc.n	5cae <__divsi3+0xd2>
    5caa:	010b      	lsls	r3, r1, #4
    5cac:	1ac0      	subs	r0, r0, r3
    5cae:	4152      	adcs	r2, r2
    5cb0:	08c3      	lsrs	r3, r0, #3
    5cb2:	428b      	cmp	r3, r1
    5cb4:	d301      	bcc.n	5cba <__divsi3+0xde>
    5cb6:	00cb      	lsls	r3, r1, #3
    5cb8:	1ac0      	subs	r0, r0, r3
    5cba:	4152      	adcs	r2, r2
    5cbc:	0883      	lsrs	r3, r0, #2
    5cbe:	428b      	cmp	r3, r1
    5cc0:	d301      	bcc.n	5cc6 <__divsi3+0xea>
    5cc2:	008b      	lsls	r3, r1, #2
    5cc4:	1ac0      	subs	r0, r0, r3
    5cc6:	4152      	adcs	r2, r2
    5cc8:	0843      	lsrs	r3, r0, #1
    5cca:	428b      	cmp	r3, r1
    5ccc:	d301      	bcc.n	5cd2 <__divsi3+0xf6>
    5cce:	004b      	lsls	r3, r1, #1
    5cd0:	1ac0      	subs	r0, r0, r3
    5cd2:	4152      	adcs	r2, r2
    5cd4:	1a41      	subs	r1, r0, r1
    5cd6:	d200      	bcs.n	5cda <__divsi3+0xfe>
    5cd8:	4601      	mov	r1, r0
    5cda:	4152      	adcs	r2, r2
    5cdc:	4610      	mov	r0, r2
    5cde:	4770      	bx	lr
    5ce0:	e05d      	b.n	5d9e <__divsi3+0x1c2>
    5ce2:	0fca      	lsrs	r2, r1, #31
    5ce4:	d000      	beq.n	5ce8 <__divsi3+0x10c>
    5ce6:	4249      	negs	r1, r1
    5ce8:	1003      	asrs	r3, r0, #32
    5cea:	d300      	bcc.n	5cee <__divsi3+0x112>
    5cec:	4240      	negs	r0, r0
    5cee:	4053      	eors	r3, r2
    5cf0:	2200      	movs	r2, #0
    5cf2:	469c      	mov	ip, r3
    5cf4:	0903      	lsrs	r3, r0, #4
    5cf6:	428b      	cmp	r3, r1
    5cf8:	d32d      	bcc.n	5d56 <__divsi3+0x17a>
    5cfa:	0a03      	lsrs	r3, r0, #8
    5cfc:	428b      	cmp	r3, r1
    5cfe:	d312      	bcc.n	5d26 <__divsi3+0x14a>
    5d00:	22fc      	movs	r2, #252	; 0xfc
    5d02:	0189      	lsls	r1, r1, #6
    5d04:	ba12      	rev	r2, r2
    5d06:	0a03      	lsrs	r3, r0, #8
    5d08:	428b      	cmp	r3, r1
    5d0a:	d30c      	bcc.n	5d26 <__divsi3+0x14a>
    5d0c:	0189      	lsls	r1, r1, #6
    5d0e:	1192      	asrs	r2, r2, #6
    5d10:	428b      	cmp	r3, r1
    5d12:	d308      	bcc.n	5d26 <__divsi3+0x14a>
    5d14:	0189      	lsls	r1, r1, #6
    5d16:	1192      	asrs	r2, r2, #6
    5d18:	428b      	cmp	r3, r1
    5d1a:	d304      	bcc.n	5d26 <__divsi3+0x14a>
    5d1c:	0189      	lsls	r1, r1, #6
    5d1e:	d03a      	beq.n	5d96 <__divsi3+0x1ba>
    5d20:	1192      	asrs	r2, r2, #6
    5d22:	e000      	b.n	5d26 <__divsi3+0x14a>
    5d24:	0989      	lsrs	r1, r1, #6
    5d26:	09c3      	lsrs	r3, r0, #7
    5d28:	428b      	cmp	r3, r1
    5d2a:	d301      	bcc.n	5d30 <__divsi3+0x154>
    5d2c:	01cb      	lsls	r3, r1, #7
    5d2e:	1ac0      	subs	r0, r0, r3
    5d30:	4152      	adcs	r2, r2
    5d32:	0983      	lsrs	r3, r0, #6
    5d34:	428b      	cmp	r3, r1
    5d36:	d301      	bcc.n	5d3c <__divsi3+0x160>
    5d38:	018b      	lsls	r3, r1, #6
    5d3a:	1ac0      	subs	r0, r0, r3
    5d3c:	4152      	adcs	r2, r2
    5d3e:	0943      	lsrs	r3, r0, #5
    5d40:	428b      	cmp	r3, r1
    5d42:	d301      	bcc.n	5d48 <__divsi3+0x16c>
    5d44:	014b      	lsls	r3, r1, #5
    5d46:	1ac0      	subs	r0, r0, r3
    5d48:	4152      	adcs	r2, r2
    5d4a:	0903      	lsrs	r3, r0, #4
    5d4c:	428b      	cmp	r3, r1
    5d4e:	d301      	bcc.n	5d54 <__divsi3+0x178>
    5d50:	010b      	lsls	r3, r1, #4
    5d52:	1ac0      	subs	r0, r0, r3
    5d54:	4152      	adcs	r2, r2
    5d56:	08c3      	lsrs	r3, r0, #3
    5d58:	428b      	cmp	r3, r1
    5d5a:	d301      	bcc.n	5d60 <__divsi3+0x184>
    5d5c:	00cb      	lsls	r3, r1, #3
    5d5e:	1ac0      	subs	r0, r0, r3
    5d60:	4152      	adcs	r2, r2
    5d62:	0883      	lsrs	r3, r0, #2
    5d64:	428b      	cmp	r3, r1
    5d66:	d301      	bcc.n	5d6c <__divsi3+0x190>
    5d68:	008b      	lsls	r3, r1, #2
    5d6a:	1ac0      	subs	r0, r0, r3
    5d6c:	4152      	adcs	r2, r2
    5d6e:	d2d9      	bcs.n	5d24 <__divsi3+0x148>
    5d70:	0843      	lsrs	r3, r0, #1
    5d72:	428b      	cmp	r3, r1
    5d74:	d301      	bcc.n	5d7a <__divsi3+0x19e>
    5d76:	004b      	lsls	r3, r1, #1
    5d78:	1ac0      	subs	r0, r0, r3
    5d7a:	4152      	adcs	r2, r2
    5d7c:	1a41      	subs	r1, r0, r1
    5d7e:	d200      	bcs.n	5d82 <__divsi3+0x1a6>
    5d80:	4601      	mov	r1, r0
    5d82:	4663      	mov	r3, ip
    5d84:	4152      	adcs	r2, r2
    5d86:	105b      	asrs	r3, r3, #1
    5d88:	4610      	mov	r0, r2
    5d8a:	d301      	bcc.n	5d90 <__divsi3+0x1b4>
    5d8c:	4240      	negs	r0, r0
    5d8e:	2b00      	cmp	r3, #0
    5d90:	d500      	bpl.n	5d94 <__divsi3+0x1b8>
    5d92:	4249      	negs	r1, r1
    5d94:	4770      	bx	lr
    5d96:	4663      	mov	r3, ip
    5d98:	105b      	asrs	r3, r3, #1
    5d9a:	d300      	bcc.n	5d9e <__divsi3+0x1c2>
    5d9c:	4240      	negs	r0, r0
    5d9e:	b501      	push	{r0, lr}
    5da0:	2000      	movs	r0, #0
    5da2:	f000 f805 	bl	5db0 <__aeabi_idiv0>
    5da6:	bd02      	pop	{r1, pc}

00005da8 <__aeabi_idivmod>:
    5da8:	2900      	cmp	r1, #0
    5daa:	d0f8      	beq.n	5d9e <__divsi3+0x1c2>
    5dac:	e716      	b.n	5bdc <__divsi3>
    5dae:	4770      	bx	lr

00005db0 <__aeabi_idiv0>:
    5db0:	4770      	bx	lr
    5db2:	46c0      	nop			; (mov r8, r8)

00005db4 <__aeabi_lmul>:
    5db4:	b5f0      	push	{r4, r5, r6, r7, lr}
    5db6:	46ce      	mov	lr, r9
    5db8:	4647      	mov	r7, r8
    5dba:	0415      	lsls	r5, r2, #16
    5dbc:	0c2d      	lsrs	r5, r5, #16
    5dbe:	002e      	movs	r6, r5
    5dc0:	b580      	push	{r7, lr}
    5dc2:	0407      	lsls	r7, r0, #16
    5dc4:	0c14      	lsrs	r4, r2, #16
    5dc6:	0c3f      	lsrs	r7, r7, #16
    5dc8:	4699      	mov	r9, r3
    5dca:	0c03      	lsrs	r3, r0, #16
    5dcc:	437e      	muls	r6, r7
    5dce:	435d      	muls	r5, r3
    5dd0:	4367      	muls	r7, r4
    5dd2:	4363      	muls	r3, r4
    5dd4:	197f      	adds	r7, r7, r5
    5dd6:	0c34      	lsrs	r4, r6, #16
    5dd8:	19e4      	adds	r4, r4, r7
    5dda:	469c      	mov	ip, r3
    5ddc:	42a5      	cmp	r5, r4
    5dde:	d903      	bls.n	5de8 <__aeabi_lmul+0x34>
    5de0:	2380      	movs	r3, #128	; 0x80
    5de2:	025b      	lsls	r3, r3, #9
    5de4:	4698      	mov	r8, r3
    5de6:	44c4      	add	ip, r8
    5de8:	464b      	mov	r3, r9
    5dea:	4351      	muls	r1, r2
    5dec:	4343      	muls	r3, r0
    5dee:	0436      	lsls	r6, r6, #16
    5df0:	0c36      	lsrs	r6, r6, #16
    5df2:	0c25      	lsrs	r5, r4, #16
    5df4:	0424      	lsls	r4, r4, #16
    5df6:	4465      	add	r5, ip
    5df8:	19a4      	adds	r4, r4, r6
    5dfa:	1859      	adds	r1, r3, r1
    5dfc:	1949      	adds	r1, r1, r5
    5dfe:	0020      	movs	r0, r4
    5e00:	bc0c      	pop	{r2, r3}
    5e02:	4690      	mov	r8, r2
    5e04:	4699      	mov	r9, r3
    5e06:	bdf0      	pop	{r4, r5, r6, r7, pc}

00005e08 <__libc_init_array>:
    5e08:	b570      	push	{r4, r5, r6, lr}
    5e0a:	2600      	movs	r6, #0
    5e0c:	4d0c      	ldr	r5, [pc, #48]	; (5e40 <__libc_init_array+0x38>)
    5e0e:	4c0d      	ldr	r4, [pc, #52]	; (5e44 <__libc_init_array+0x3c>)
    5e10:	1b64      	subs	r4, r4, r5
    5e12:	10a4      	asrs	r4, r4, #2
    5e14:	42a6      	cmp	r6, r4
    5e16:	d109      	bne.n	5e2c <__libc_init_array+0x24>
    5e18:	2600      	movs	r6, #0
    5e1a:	f001 fd87 	bl	792c <_init>
    5e1e:	4d0a      	ldr	r5, [pc, #40]	; (5e48 <__libc_init_array+0x40>)
    5e20:	4c0a      	ldr	r4, [pc, #40]	; (5e4c <__libc_init_array+0x44>)
    5e22:	1b64      	subs	r4, r4, r5
    5e24:	10a4      	asrs	r4, r4, #2
    5e26:	42a6      	cmp	r6, r4
    5e28:	d105      	bne.n	5e36 <__libc_init_array+0x2e>
    5e2a:	bd70      	pop	{r4, r5, r6, pc}
    5e2c:	00b3      	lsls	r3, r6, #2
    5e2e:	58eb      	ldr	r3, [r5, r3]
    5e30:	4798      	blx	r3
    5e32:	3601      	adds	r6, #1
    5e34:	e7ee      	b.n	5e14 <__libc_init_array+0xc>
    5e36:	00b3      	lsls	r3, r6, #2
    5e38:	58eb      	ldr	r3, [r5, r3]
    5e3a:	4798      	blx	r3
    5e3c:	3601      	adds	r6, #1
    5e3e:	e7f2      	b.n	5e26 <__libc_init_array+0x1e>
    5e40:	00007938 	.word	0x00007938
    5e44:	00007938 	.word	0x00007938
    5e48:	00007938 	.word	0x00007938
    5e4c:	0000793c 	.word	0x0000793c

00005e50 <malloc>:
    5e50:	b510      	push	{r4, lr}
    5e52:	4b03      	ldr	r3, [pc, #12]	; (5e60 <malloc+0x10>)
    5e54:	0001      	movs	r1, r0
    5e56:	6818      	ldr	r0, [r3, #0]
    5e58:	f000 f856 	bl	5f08 <_malloc_r>
    5e5c:	bd10      	pop	{r4, pc}
    5e5e:	46c0      	nop			; (mov r8, r8)
    5e60:	20000054 	.word	0x20000054

00005e64 <memset>:
    5e64:	0003      	movs	r3, r0
    5e66:	1882      	adds	r2, r0, r2
    5e68:	4293      	cmp	r3, r2
    5e6a:	d100      	bne.n	5e6e <memset+0xa>
    5e6c:	4770      	bx	lr
    5e6e:	7019      	strb	r1, [r3, #0]
    5e70:	3301      	adds	r3, #1
    5e72:	e7f9      	b.n	5e68 <memset+0x4>

00005e74 <_free_r>:
    5e74:	b570      	push	{r4, r5, r6, lr}
    5e76:	0005      	movs	r5, r0
    5e78:	2900      	cmp	r1, #0
    5e7a:	d010      	beq.n	5e9e <_free_r+0x2a>
    5e7c:	1f0c      	subs	r4, r1, #4
    5e7e:	6823      	ldr	r3, [r4, #0]
    5e80:	2b00      	cmp	r3, #0
    5e82:	da00      	bge.n	5e86 <_free_r+0x12>
    5e84:	18e4      	adds	r4, r4, r3
    5e86:	0028      	movs	r0, r5
    5e88:	f000 fb54 	bl	6534 <__malloc_lock>
    5e8c:	4a1d      	ldr	r2, [pc, #116]	; (5f04 <_free_r+0x90>)
    5e8e:	6813      	ldr	r3, [r2, #0]
    5e90:	2b00      	cmp	r3, #0
    5e92:	d105      	bne.n	5ea0 <_free_r+0x2c>
    5e94:	6063      	str	r3, [r4, #4]
    5e96:	6014      	str	r4, [r2, #0]
    5e98:	0028      	movs	r0, r5
    5e9a:	f000 fb4c 	bl	6536 <__malloc_unlock>
    5e9e:	bd70      	pop	{r4, r5, r6, pc}
    5ea0:	42a3      	cmp	r3, r4
    5ea2:	d909      	bls.n	5eb8 <_free_r+0x44>
    5ea4:	6821      	ldr	r1, [r4, #0]
    5ea6:	1860      	adds	r0, r4, r1
    5ea8:	4283      	cmp	r3, r0
    5eaa:	d1f3      	bne.n	5e94 <_free_r+0x20>
    5eac:	6818      	ldr	r0, [r3, #0]
    5eae:	685b      	ldr	r3, [r3, #4]
    5eb0:	1841      	adds	r1, r0, r1
    5eb2:	6021      	str	r1, [r4, #0]
    5eb4:	e7ee      	b.n	5e94 <_free_r+0x20>
    5eb6:	0013      	movs	r3, r2
    5eb8:	685a      	ldr	r2, [r3, #4]
    5eba:	2a00      	cmp	r2, #0
    5ebc:	d001      	beq.n	5ec2 <_free_r+0x4e>
    5ebe:	42a2      	cmp	r2, r4
    5ec0:	d9f9      	bls.n	5eb6 <_free_r+0x42>
    5ec2:	6819      	ldr	r1, [r3, #0]
    5ec4:	1858      	adds	r0, r3, r1
    5ec6:	42a0      	cmp	r0, r4
    5ec8:	d10b      	bne.n	5ee2 <_free_r+0x6e>
    5eca:	6820      	ldr	r0, [r4, #0]
    5ecc:	1809      	adds	r1, r1, r0
    5ece:	1858      	adds	r0, r3, r1
    5ed0:	6019      	str	r1, [r3, #0]
    5ed2:	4282      	cmp	r2, r0
    5ed4:	d1e0      	bne.n	5e98 <_free_r+0x24>
    5ed6:	6810      	ldr	r0, [r2, #0]
    5ed8:	6852      	ldr	r2, [r2, #4]
    5eda:	1841      	adds	r1, r0, r1
    5edc:	6019      	str	r1, [r3, #0]
    5ede:	605a      	str	r2, [r3, #4]
    5ee0:	e7da      	b.n	5e98 <_free_r+0x24>
    5ee2:	42a0      	cmp	r0, r4
    5ee4:	d902      	bls.n	5eec <_free_r+0x78>
    5ee6:	230c      	movs	r3, #12
    5ee8:	602b      	str	r3, [r5, #0]
    5eea:	e7d5      	b.n	5e98 <_free_r+0x24>
    5eec:	6821      	ldr	r1, [r4, #0]
    5eee:	1860      	adds	r0, r4, r1
    5ef0:	4282      	cmp	r2, r0
    5ef2:	d103      	bne.n	5efc <_free_r+0x88>
    5ef4:	6810      	ldr	r0, [r2, #0]
    5ef6:	6852      	ldr	r2, [r2, #4]
    5ef8:	1841      	adds	r1, r0, r1
    5efa:	6021      	str	r1, [r4, #0]
    5efc:	6062      	str	r2, [r4, #4]
    5efe:	605c      	str	r4, [r3, #4]
    5f00:	e7ca      	b.n	5e98 <_free_r+0x24>
    5f02:	46c0      	nop			; (mov r8, r8)
    5f04:	200001c8 	.word	0x200001c8

00005f08 <_malloc_r>:
    5f08:	2303      	movs	r3, #3
    5f0a:	b570      	push	{r4, r5, r6, lr}
    5f0c:	1ccd      	adds	r5, r1, #3
    5f0e:	439d      	bics	r5, r3
    5f10:	3508      	adds	r5, #8
    5f12:	0006      	movs	r6, r0
    5f14:	2d0c      	cmp	r5, #12
    5f16:	d21e      	bcs.n	5f56 <_malloc_r+0x4e>
    5f18:	250c      	movs	r5, #12
    5f1a:	42a9      	cmp	r1, r5
    5f1c:	d81d      	bhi.n	5f5a <_malloc_r+0x52>
    5f1e:	0030      	movs	r0, r6
    5f20:	f000 fb08 	bl	6534 <__malloc_lock>
    5f24:	4a25      	ldr	r2, [pc, #148]	; (5fbc <_malloc_r+0xb4>)
    5f26:	6814      	ldr	r4, [r2, #0]
    5f28:	0021      	movs	r1, r4
    5f2a:	2900      	cmp	r1, #0
    5f2c:	d119      	bne.n	5f62 <_malloc_r+0x5a>
    5f2e:	4c24      	ldr	r4, [pc, #144]	; (5fc0 <_malloc_r+0xb8>)
    5f30:	6823      	ldr	r3, [r4, #0]
    5f32:	2b00      	cmp	r3, #0
    5f34:	d103      	bne.n	5f3e <_malloc_r+0x36>
    5f36:	0030      	movs	r0, r6
    5f38:	f000 f844 	bl	5fc4 <_sbrk_r>
    5f3c:	6020      	str	r0, [r4, #0]
    5f3e:	0029      	movs	r1, r5
    5f40:	0030      	movs	r0, r6
    5f42:	f000 f83f 	bl	5fc4 <_sbrk_r>
    5f46:	1c43      	adds	r3, r0, #1
    5f48:	d12c      	bne.n	5fa4 <_malloc_r+0x9c>
    5f4a:	230c      	movs	r3, #12
    5f4c:	0030      	movs	r0, r6
    5f4e:	6033      	str	r3, [r6, #0]
    5f50:	f000 faf1 	bl	6536 <__malloc_unlock>
    5f54:	e003      	b.n	5f5e <_malloc_r+0x56>
    5f56:	2d00      	cmp	r5, #0
    5f58:	dadf      	bge.n	5f1a <_malloc_r+0x12>
    5f5a:	230c      	movs	r3, #12
    5f5c:	6033      	str	r3, [r6, #0]
    5f5e:	2000      	movs	r0, #0
    5f60:	bd70      	pop	{r4, r5, r6, pc}
    5f62:	680b      	ldr	r3, [r1, #0]
    5f64:	1b5b      	subs	r3, r3, r5
    5f66:	d41a      	bmi.n	5f9e <_malloc_r+0x96>
    5f68:	2b0b      	cmp	r3, #11
    5f6a:	d903      	bls.n	5f74 <_malloc_r+0x6c>
    5f6c:	600b      	str	r3, [r1, #0]
    5f6e:	18cc      	adds	r4, r1, r3
    5f70:	6025      	str	r5, [r4, #0]
    5f72:	e003      	b.n	5f7c <_malloc_r+0x74>
    5f74:	428c      	cmp	r4, r1
    5f76:	d10e      	bne.n	5f96 <_malloc_r+0x8e>
    5f78:	6863      	ldr	r3, [r4, #4]
    5f7a:	6013      	str	r3, [r2, #0]
    5f7c:	0030      	movs	r0, r6
    5f7e:	f000 fada 	bl	6536 <__malloc_unlock>
    5f82:	0020      	movs	r0, r4
    5f84:	2207      	movs	r2, #7
    5f86:	300b      	adds	r0, #11
    5f88:	1d23      	adds	r3, r4, #4
    5f8a:	4390      	bics	r0, r2
    5f8c:	1ac3      	subs	r3, r0, r3
    5f8e:	d0e7      	beq.n	5f60 <_malloc_r+0x58>
    5f90:	425a      	negs	r2, r3
    5f92:	50e2      	str	r2, [r4, r3]
    5f94:	e7e4      	b.n	5f60 <_malloc_r+0x58>
    5f96:	684b      	ldr	r3, [r1, #4]
    5f98:	6063      	str	r3, [r4, #4]
    5f9a:	000c      	movs	r4, r1
    5f9c:	e7ee      	b.n	5f7c <_malloc_r+0x74>
    5f9e:	000c      	movs	r4, r1
    5fa0:	6849      	ldr	r1, [r1, #4]
    5fa2:	e7c2      	b.n	5f2a <_malloc_r+0x22>
    5fa4:	2303      	movs	r3, #3
    5fa6:	1cc4      	adds	r4, r0, #3
    5fa8:	439c      	bics	r4, r3
    5faa:	42a0      	cmp	r0, r4
    5fac:	d0e0      	beq.n	5f70 <_malloc_r+0x68>
    5fae:	1a21      	subs	r1, r4, r0
    5fb0:	0030      	movs	r0, r6
    5fb2:	f000 f807 	bl	5fc4 <_sbrk_r>
    5fb6:	1c43      	adds	r3, r0, #1
    5fb8:	d1da      	bne.n	5f70 <_malloc_r+0x68>
    5fba:	e7c6      	b.n	5f4a <_malloc_r+0x42>
    5fbc:	200001c8 	.word	0x200001c8
    5fc0:	200001cc 	.word	0x200001cc

00005fc4 <_sbrk_r>:
    5fc4:	2300      	movs	r3, #0
    5fc6:	b570      	push	{r4, r5, r6, lr}
    5fc8:	4c06      	ldr	r4, [pc, #24]	; (5fe4 <_sbrk_r+0x20>)
    5fca:	0005      	movs	r5, r0
    5fcc:	0008      	movs	r0, r1
    5fce:	6023      	str	r3, [r4, #0]
    5fd0:	f7fd fc52 	bl	3878 <_sbrk>
    5fd4:	1c43      	adds	r3, r0, #1
    5fd6:	d103      	bne.n	5fe0 <_sbrk_r+0x1c>
    5fd8:	6823      	ldr	r3, [r4, #0]
    5fda:	2b00      	cmp	r3, #0
    5fdc:	d000      	beq.n	5fe0 <_sbrk_r+0x1c>
    5fde:	602b      	str	r3, [r5, #0]
    5fe0:	bd70      	pop	{r4, r5, r6, pc}
    5fe2:	46c0      	nop			; (mov r8, r8)
    5fe4:	20000cd4 	.word	0x20000cd4

00005fe8 <setbuf>:
    5fe8:	424a      	negs	r2, r1
    5fea:	414a      	adcs	r2, r1
    5fec:	2380      	movs	r3, #128	; 0x80
    5fee:	b510      	push	{r4, lr}
    5ff0:	0052      	lsls	r2, r2, #1
    5ff2:	00db      	lsls	r3, r3, #3
    5ff4:	f000 f802 	bl	5ffc <setvbuf>
    5ff8:	bd10      	pop	{r4, pc}
	...

00005ffc <setvbuf>:
    5ffc:	b5f0      	push	{r4, r5, r6, r7, lr}
    5ffe:	001d      	movs	r5, r3
    6000:	4b4f      	ldr	r3, [pc, #316]	; (6140 <setvbuf+0x144>)
    6002:	b085      	sub	sp, #20
    6004:	681e      	ldr	r6, [r3, #0]
    6006:	0004      	movs	r4, r0
    6008:	000f      	movs	r7, r1
    600a:	9200      	str	r2, [sp, #0]
    600c:	2e00      	cmp	r6, #0
    600e:	d005      	beq.n	601c <setvbuf+0x20>
    6010:	69b3      	ldr	r3, [r6, #24]
    6012:	2b00      	cmp	r3, #0
    6014:	d102      	bne.n	601c <setvbuf+0x20>
    6016:	0030      	movs	r0, r6
    6018:	f000 f9ce 	bl	63b8 <__sinit>
    601c:	4b49      	ldr	r3, [pc, #292]	; (6144 <setvbuf+0x148>)
    601e:	429c      	cmp	r4, r3
    6020:	d150      	bne.n	60c4 <setvbuf+0xc8>
    6022:	6874      	ldr	r4, [r6, #4]
    6024:	9b00      	ldr	r3, [sp, #0]
    6026:	2b02      	cmp	r3, #2
    6028:	d005      	beq.n	6036 <setvbuf+0x3a>
    602a:	2b01      	cmp	r3, #1
    602c:	d900      	bls.n	6030 <setvbuf+0x34>
    602e:	e084      	b.n	613a <setvbuf+0x13e>
    6030:	2d00      	cmp	r5, #0
    6032:	da00      	bge.n	6036 <setvbuf+0x3a>
    6034:	e081      	b.n	613a <setvbuf+0x13e>
    6036:	0021      	movs	r1, r4
    6038:	0030      	movs	r0, r6
    603a:	f000 f94f 	bl	62dc <_fflush_r>
    603e:	6b61      	ldr	r1, [r4, #52]	; 0x34
    6040:	2900      	cmp	r1, #0
    6042:	d008      	beq.n	6056 <setvbuf+0x5a>
    6044:	0023      	movs	r3, r4
    6046:	3344      	adds	r3, #68	; 0x44
    6048:	4299      	cmp	r1, r3
    604a:	d002      	beq.n	6052 <setvbuf+0x56>
    604c:	0030      	movs	r0, r6
    604e:	f7ff ff11 	bl	5e74 <_free_r>
    6052:	2300      	movs	r3, #0
    6054:	6363      	str	r3, [r4, #52]	; 0x34
    6056:	2300      	movs	r3, #0
    6058:	61a3      	str	r3, [r4, #24]
    605a:	6063      	str	r3, [r4, #4]
    605c:	89a3      	ldrh	r3, [r4, #12]
    605e:	061b      	lsls	r3, r3, #24
    6060:	d503      	bpl.n	606a <setvbuf+0x6e>
    6062:	6921      	ldr	r1, [r4, #16]
    6064:	0030      	movs	r0, r6
    6066:	f7ff ff05 	bl	5e74 <_free_r>
    606a:	89a3      	ldrh	r3, [r4, #12]
    606c:	4a36      	ldr	r2, [pc, #216]	; (6148 <setvbuf+0x14c>)
    606e:	4013      	ands	r3, r2
    6070:	81a3      	strh	r3, [r4, #12]
    6072:	9b00      	ldr	r3, [sp, #0]
    6074:	2b02      	cmp	r3, #2
    6076:	d05a      	beq.n	612e <setvbuf+0x132>
    6078:	ab03      	add	r3, sp, #12
    607a:	aa02      	add	r2, sp, #8
    607c:	0021      	movs	r1, r4
    607e:	0030      	movs	r0, r6
    6080:	f000 fa30 	bl	64e4 <__swhatbuf_r>
    6084:	89a3      	ldrh	r3, [r4, #12]
    6086:	4318      	orrs	r0, r3
    6088:	81a0      	strh	r0, [r4, #12]
    608a:	2d00      	cmp	r5, #0
    608c:	d124      	bne.n	60d8 <setvbuf+0xdc>
    608e:	9d02      	ldr	r5, [sp, #8]
    6090:	0028      	movs	r0, r5
    6092:	f7ff fedd 	bl	5e50 <malloc>
    6096:	9501      	str	r5, [sp, #4]
    6098:	1e07      	subs	r7, r0, #0
    609a:	d142      	bne.n	6122 <setvbuf+0x126>
    609c:	9b02      	ldr	r3, [sp, #8]
    609e:	9301      	str	r3, [sp, #4]
    60a0:	42ab      	cmp	r3, r5
    60a2:	d139      	bne.n	6118 <setvbuf+0x11c>
    60a4:	2001      	movs	r0, #1
    60a6:	4240      	negs	r0, r0
    60a8:	2302      	movs	r3, #2
    60aa:	89a2      	ldrh	r2, [r4, #12]
    60ac:	4313      	orrs	r3, r2
    60ae:	81a3      	strh	r3, [r4, #12]
    60b0:	2300      	movs	r3, #0
    60b2:	60a3      	str	r3, [r4, #8]
    60b4:	0023      	movs	r3, r4
    60b6:	3347      	adds	r3, #71	; 0x47
    60b8:	6023      	str	r3, [r4, #0]
    60ba:	6123      	str	r3, [r4, #16]
    60bc:	2301      	movs	r3, #1
    60be:	6163      	str	r3, [r4, #20]
    60c0:	b005      	add	sp, #20
    60c2:	bdf0      	pop	{r4, r5, r6, r7, pc}
    60c4:	4b21      	ldr	r3, [pc, #132]	; (614c <setvbuf+0x150>)
    60c6:	429c      	cmp	r4, r3
    60c8:	d101      	bne.n	60ce <setvbuf+0xd2>
    60ca:	68b4      	ldr	r4, [r6, #8]
    60cc:	e7aa      	b.n	6024 <setvbuf+0x28>
    60ce:	4b20      	ldr	r3, [pc, #128]	; (6150 <setvbuf+0x154>)
    60d0:	429c      	cmp	r4, r3
    60d2:	d1a7      	bne.n	6024 <setvbuf+0x28>
    60d4:	68f4      	ldr	r4, [r6, #12]
    60d6:	e7a5      	b.n	6024 <setvbuf+0x28>
    60d8:	2f00      	cmp	r7, #0
    60da:	d0d9      	beq.n	6090 <setvbuf+0x94>
    60dc:	69b3      	ldr	r3, [r6, #24]
    60de:	2b00      	cmp	r3, #0
    60e0:	d102      	bne.n	60e8 <setvbuf+0xec>
    60e2:	0030      	movs	r0, r6
    60e4:	f000 f968 	bl	63b8 <__sinit>
    60e8:	9b00      	ldr	r3, [sp, #0]
    60ea:	2b01      	cmp	r3, #1
    60ec:	d103      	bne.n	60f6 <setvbuf+0xfa>
    60ee:	89a3      	ldrh	r3, [r4, #12]
    60f0:	9a00      	ldr	r2, [sp, #0]
    60f2:	431a      	orrs	r2, r3
    60f4:	81a2      	strh	r2, [r4, #12]
    60f6:	2008      	movs	r0, #8
    60f8:	89a3      	ldrh	r3, [r4, #12]
    60fa:	6027      	str	r7, [r4, #0]
    60fc:	6127      	str	r7, [r4, #16]
    60fe:	6165      	str	r5, [r4, #20]
    6100:	4018      	ands	r0, r3
    6102:	d018      	beq.n	6136 <setvbuf+0x13a>
    6104:	2001      	movs	r0, #1
    6106:	4018      	ands	r0, r3
    6108:	2300      	movs	r3, #0
    610a:	4298      	cmp	r0, r3
    610c:	d011      	beq.n	6132 <setvbuf+0x136>
    610e:	426d      	negs	r5, r5
    6110:	60a3      	str	r3, [r4, #8]
    6112:	61a5      	str	r5, [r4, #24]
    6114:	0018      	movs	r0, r3
    6116:	e7d3      	b.n	60c0 <setvbuf+0xc4>
    6118:	9801      	ldr	r0, [sp, #4]
    611a:	f7ff fe99 	bl	5e50 <malloc>
    611e:	1e07      	subs	r7, r0, #0
    6120:	d0c0      	beq.n	60a4 <setvbuf+0xa8>
    6122:	2380      	movs	r3, #128	; 0x80
    6124:	89a2      	ldrh	r2, [r4, #12]
    6126:	9d01      	ldr	r5, [sp, #4]
    6128:	4313      	orrs	r3, r2
    612a:	81a3      	strh	r3, [r4, #12]
    612c:	e7d6      	b.n	60dc <setvbuf+0xe0>
    612e:	2000      	movs	r0, #0
    6130:	e7ba      	b.n	60a8 <setvbuf+0xac>
    6132:	60a5      	str	r5, [r4, #8]
    6134:	e7c4      	b.n	60c0 <setvbuf+0xc4>
    6136:	60a0      	str	r0, [r4, #8]
    6138:	e7c2      	b.n	60c0 <setvbuf+0xc4>
    613a:	2001      	movs	r0, #1
    613c:	4240      	negs	r0, r0
    613e:	e7bf      	b.n	60c0 <setvbuf+0xc4>
    6140:	20000054 	.word	0x20000054
    6144:	000078b8 	.word	0x000078b8
    6148:	fffff35c 	.word	0xfffff35c
    614c:	000078d8 	.word	0x000078d8
    6150:	00007898 	.word	0x00007898

00006154 <sniprintf>:
    6154:	b40c      	push	{r2, r3}
    6156:	b530      	push	{r4, r5, lr}
    6158:	4b16      	ldr	r3, [pc, #88]	; (61b4 <sniprintf+0x60>)
    615a:	b09d      	sub	sp, #116	; 0x74
    615c:	1e0c      	subs	r4, r1, #0
    615e:	681d      	ldr	r5, [r3, #0]
    6160:	da08      	bge.n	6174 <sniprintf+0x20>
    6162:	238b      	movs	r3, #139	; 0x8b
    6164:	2001      	movs	r0, #1
    6166:	602b      	str	r3, [r5, #0]
    6168:	4240      	negs	r0, r0
    616a:	b01d      	add	sp, #116	; 0x74
    616c:	bc30      	pop	{r4, r5}
    616e:	bc08      	pop	{r3}
    6170:	b002      	add	sp, #8
    6172:	4718      	bx	r3
    6174:	2382      	movs	r3, #130	; 0x82
    6176:	a902      	add	r1, sp, #8
    6178:	009b      	lsls	r3, r3, #2
    617a:	818b      	strh	r3, [r1, #12]
    617c:	2300      	movs	r3, #0
    617e:	9002      	str	r0, [sp, #8]
    6180:	6108      	str	r0, [r1, #16]
    6182:	429c      	cmp	r4, r3
    6184:	d000      	beq.n	6188 <sniprintf+0x34>
    6186:	1e63      	subs	r3, r4, #1
    6188:	608b      	str	r3, [r1, #8]
    618a:	614b      	str	r3, [r1, #20]
    618c:	2301      	movs	r3, #1
    618e:	425b      	negs	r3, r3
    6190:	81cb      	strh	r3, [r1, #14]
    6192:	9a20      	ldr	r2, [sp, #128]	; 0x80
    6194:	ab21      	add	r3, sp, #132	; 0x84
    6196:	0028      	movs	r0, r5
    6198:	9301      	str	r3, [sp, #4]
    619a:	f000 fa2f 	bl	65fc <_svfiprintf_r>
    619e:	1c43      	adds	r3, r0, #1
    61a0:	da01      	bge.n	61a6 <sniprintf+0x52>
    61a2:	238b      	movs	r3, #139	; 0x8b
    61a4:	602b      	str	r3, [r5, #0]
    61a6:	2c00      	cmp	r4, #0
    61a8:	d0df      	beq.n	616a <sniprintf+0x16>
    61aa:	2300      	movs	r3, #0
    61ac:	9a02      	ldr	r2, [sp, #8]
    61ae:	7013      	strb	r3, [r2, #0]
    61b0:	e7db      	b.n	616a <sniprintf+0x16>
    61b2:	46c0      	nop			; (mov r8, r8)
    61b4:	20000054 	.word	0x20000054

000061b8 <strlen>:
    61b8:	2300      	movs	r3, #0
    61ba:	5cc2      	ldrb	r2, [r0, r3]
    61bc:	3301      	adds	r3, #1
    61be:	2a00      	cmp	r2, #0
    61c0:	d1fb      	bne.n	61ba <strlen+0x2>
    61c2:	1e58      	subs	r0, r3, #1
    61c4:	4770      	bx	lr
	...

000061c8 <__sflush_r>:
    61c8:	b5f7      	push	{r0, r1, r2, r4, r5, r6, r7, lr}
    61ca:	898a      	ldrh	r2, [r1, #12]
    61cc:	0005      	movs	r5, r0
    61ce:	000c      	movs	r4, r1
    61d0:	0713      	lsls	r3, r2, #28
    61d2:	d460      	bmi.n	6296 <__sflush_r+0xce>
    61d4:	684b      	ldr	r3, [r1, #4]
    61d6:	2b00      	cmp	r3, #0
    61d8:	dc04      	bgt.n	61e4 <__sflush_r+0x1c>
    61da:	6c0b      	ldr	r3, [r1, #64]	; 0x40
    61dc:	2b00      	cmp	r3, #0
    61de:	dc01      	bgt.n	61e4 <__sflush_r+0x1c>
    61e0:	2000      	movs	r0, #0
    61e2:	bdfe      	pop	{r1, r2, r3, r4, r5, r6, r7, pc}
    61e4:	6ae7      	ldr	r7, [r4, #44]	; 0x2c
    61e6:	2f00      	cmp	r7, #0
    61e8:	d0fa      	beq.n	61e0 <__sflush_r+0x18>
    61ea:	2300      	movs	r3, #0
    61ec:	682e      	ldr	r6, [r5, #0]
    61ee:	602b      	str	r3, [r5, #0]
    61f0:	2380      	movs	r3, #128	; 0x80
    61f2:	015b      	lsls	r3, r3, #5
    61f4:	401a      	ands	r2, r3
    61f6:	d034      	beq.n	6262 <__sflush_r+0x9a>
    61f8:	6d60      	ldr	r0, [r4, #84]	; 0x54
    61fa:	89a3      	ldrh	r3, [r4, #12]
    61fc:	075b      	lsls	r3, r3, #29
    61fe:	d506      	bpl.n	620e <__sflush_r+0x46>
    6200:	6863      	ldr	r3, [r4, #4]
    6202:	1ac0      	subs	r0, r0, r3
    6204:	6b63      	ldr	r3, [r4, #52]	; 0x34
    6206:	2b00      	cmp	r3, #0
    6208:	d001      	beq.n	620e <__sflush_r+0x46>
    620a:	6c23      	ldr	r3, [r4, #64]	; 0x40
    620c:	1ac0      	subs	r0, r0, r3
    620e:	0002      	movs	r2, r0
    6210:	6a21      	ldr	r1, [r4, #32]
    6212:	2300      	movs	r3, #0
    6214:	0028      	movs	r0, r5
    6216:	6ae7      	ldr	r7, [r4, #44]	; 0x2c
    6218:	47b8      	blx	r7
    621a:	89a1      	ldrh	r1, [r4, #12]
    621c:	1c43      	adds	r3, r0, #1
    621e:	d106      	bne.n	622e <__sflush_r+0x66>
    6220:	682b      	ldr	r3, [r5, #0]
    6222:	2b1d      	cmp	r3, #29
    6224:	d831      	bhi.n	628a <__sflush_r+0xc2>
    6226:	4a2c      	ldr	r2, [pc, #176]	; (62d8 <__sflush_r+0x110>)
    6228:	40da      	lsrs	r2, r3
    622a:	07d3      	lsls	r3, r2, #31
    622c:	d52d      	bpl.n	628a <__sflush_r+0xc2>
    622e:	2300      	movs	r3, #0
    6230:	6063      	str	r3, [r4, #4]
    6232:	6923      	ldr	r3, [r4, #16]
    6234:	6023      	str	r3, [r4, #0]
    6236:	04cb      	lsls	r3, r1, #19
    6238:	d505      	bpl.n	6246 <__sflush_r+0x7e>
    623a:	1c43      	adds	r3, r0, #1
    623c:	d102      	bne.n	6244 <__sflush_r+0x7c>
    623e:	682b      	ldr	r3, [r5, #0]
    6240:	2b00      	cmp	r3, #0
    6242:	d100      	bne.n	6246 <__sflush_r+0x7e>
    6244:	6560      	str	r0, [r4, #84]	; 0x54
    6246:	6b61      	ldr	r1, [r4, #52]	; 0x34
    6248:	602e      	str	r6, [r5, #0]
    624a:	2900      	cmp	r1, #0
    624c:	d0c8      	beq.n	61e0 <__sflush_r+0x18>
    624e:	0023      	movs	r3, r4
    6250:	3344      	adds	r3, #68	; 0x44
    6252:	4299      	cmp	r1, r3
    6254:	d002      	beq.n	625c <__sflush_r+0x94>
    6256:	0028      	movs	r0, r5
    6258:	f7ff fe0c 	bl	5e74 <_free_r>
    625c:	2000      	movs	r0, #0
    625e:	6360      	str	r0, [r4, #52]	; 0x34
    6260:	e7bf      	b.n	61e2 <__sflush_r+0x1a>
    6262:	2301      	movs	r3, #1
    6264:	6a21      	ldr	r1, [r4, #32]
    6266:	0028      	movs	r0, r5
    6268:	47b8      	blx	r7
    626a:	1c43      	adds	r3, r0, #1
    626c:	d1c5      	bne.n	61fa <__sflush_r+0x32>
    626e:	682b      	ldr	r3, [r5, #0]
    6270:	2b00      	cmp	r3, #0
    6272:	d0c2      	beq.n	61fa <__sflush_r+0x32>
    6274:	2b1d      	cmp	r3, #29
    6276:	d001      	beq.n	627c <__sflush_r+0xb4>
    6278:	2b16      	cmp	r3, #22
    627a:	d101      	bne.n	6280 <__sflush_r+0xb8>
    627c:	602e      	str	r6, [r5, #0]
    627e:	e7af      	b.n	61e0 <__sflush_r+0x18>
    6280:	2340      	movs	r3, #64	; 0x40
    6282:	89a2      	ldrh	r2, [r4, #12]
    6284:	4313      	orrs	r3, r2
    6286:	81a3      	strh	r3, [r4, #12]
    6288:	e7ab      	b.n	61e2 <__sflush_r+0x1a>
    628a:	2340      	movs	r3, #64	; 0x40
    628c:	430b      	orrs	r3, r1
    628e:	2001      	movs	r0, #1
    6290:	81a3      	strh	r3, [r4, #12]
    6292:	4240      	negs	r0, r0
    6294:	e7a5      	b.n	61e2 <__sflush_r+0x1a>
    6296:	690f      	ldr	r7, [r1, #16]
    6298:	2f00      	cmp	r7, #0
    629a:	d0a1      	beq.n	61e0 <__sflush_r+0x18>
    629c:	680b      	ldr	r3, [r1, #0]
    629e:	600f      	str	r7, [r1, #0]
    62a0:	1bdb      	subs	r3, r3, r7
    62a2:	9301      	str	r3, [sp, #4]
    62a4:	2300      	movs	r3, #0
    62a6:	0792      	lsls	r2, r2, #30
    62a8:	d100      	bne.n	62ac <__sflush_r+0xe4>
    62aa:	694b      	ldr	r3, [r1, #20]
    62ac:	60a3      	str	r3, [r4, #8]
    62ae:	9b01      	ldr	r3, [sp, #4]
    62b0:	2b00      	cmp	r3, #0
    62b2:	dc00      	bgt.n	62b6 <__sflush_r+0xee>
    62b4:	e794      	b.n	61e0 <__sflush_r+0x18>
    62b6:	9b01      	ldr	r3, [sp, #4]
    62b8:	003a      	movs	r2, r7
    62ba:	6a21      	ldr	r1, [r4, #32]
    62bc:	0028      	movs	r0, r5
    62be:	6aa6      	ldr	r6, [r4, #40]	; 0x28
    62c0:	47b0      	blx	r6
    62c2:	2800      	cmp	r0, #0
    62c4:	dc03      	bgt.n	62ce <__sflush_r+0x106>
    62c6:	2340      	movs	r3, #64	; 0x40
    62c8:	89a2      	ldrh	r2, [r4, #12]
    62ca:	4313      	orrs	r3, r2
    62cc:	e7df      	b.n	628e <__sflush_r+0xc6>
    62ce:	9b01      	ldr	r3, [sp, #4]
    62d0:	183f      	adds	r7, r7, r0
    62d2:	1a1b      	subs	r3, r3, r0
    62d4:	9301      	str	r3, [sp, #4]
    62d6:	e7ea      	b.n	62ae <__sflush_r+0xe6>
    62d8:	20400001 	.word	0x20400001

000062dc <_fflush_r>:
    62dc:	690b      	ldr	r3, [r1, #16]
    62de:	b570      	push	{r4, r5, r6, lr}
    62e0:	0005      	movs	r5, r0
    62e2:	000c      	movs	r4, r1
    62e4:	2b00      	cmp	r3, #0
    62e6:	d101      	bne.n	62ec <_fflush_r+0x10>
    62e8:	2000      	movs	r0, #0
    62ea:	bd70      	pop	{r4, r5, r6, pc}
    62ec:	2800      	cmp	r0, #0
    62ee:	d004      	beq.n	62fa <_fflush_r+0x1e>
    62f0:	6983      	ldr	r3, [r0, #24]
    62f2:	2b00      	cmp	r3, #0
    62f4:	d101      	bne.n	62fa <_fflush_r+0x1e>
    62f6:	f000 f85f 	bl	63b8 <__sinit>
    62fa:	4b0b      	ldr	r3, [pc, #44]	; (6328 <_fflush_r+0x4c>)
    62fc:	429c      	cmp	r4, r3
    62fe:	d109      	bne.n	6314 <_fflush_r+0x38>
    6300:	686c      	ldr	r4, [r5, #4]
    6302:	220c      	movs	r2, #12
    6304:	5ea3      	ldrsh	r3, [r4, r2]
    6306:	2b00      	cmp	r3, #0
    6308:	d0ee      	beq.n	62e8 <_fflush_r+0xc>
    630a:	0021      	movs	r1, r4
    630c:	0028      	movs	r0, r5
    630e:	f7ff ff5b 	bl	61c8 <__sflush_r>
    6312:	e7ea      	b.n	62ea <_fflush_r+0xe>
    6314:	4b05      	ldr	r3, [pc, #20]	; (632c <_fflush_r+0x50>)
    6316:	429c      	cmp	r4, r3
    6318:	d101      	bne.n	631e <_fflush_r+0x42>
    631a:	68ac      	ldr	r4, [r5, #8]
    631c:	e7f1      	b.n	6302 <_fflush_r+0x26>
    631e:	4b04      	ldr	r3, [pc, #16]	; (6330 <_fflush_r+0x54>)
    6320:	429c      	cmp	r4, r3
    6322:	d1ee      	bne.n	6302 <_fflush_r+0x26>
    6324:	68ec      	ldr	r4, [r5, #12]
    6326:	e7ec      	b.n	6302 <_fflush_r+0x26>
    6328:	000078b8 	.word	0x000078b8
    632c:	000078d8 	.word	0x000078d8
    6330:	00007898 	.word	0x00007898

00006334 <_cleanup_r>:
    6334:	b510      	push	{r4, lr}
    6336:	4902      	ldr	r1, [pc, #8]	; (6340 <_cleanup_r+0xc>)
    6338:	f000 f8b2 	bl	64a0 <_fwalk_reent>
    633c:	bd10      	pop	{r4, pc}
    633e:	46c0      	nop			; (mov r8, r8)
    6340:	000062dd 	.word	0x000062dd

00006344 <std.isra.0>:
    6344:	2300      	movs	r3, #0
    6346:	b510      	push	{r4, lr}
    6348:	0004      	movs	r4, r0
    634a:	6003      	str	r3, [r0, #0]
    634c:	6043      	str	r3, [r0, #4]
    634e:	6083      	str	r3, [r0, #8]
    6350:	8181      	strh	r1, [r0, #12]
    6352:	6643      	str	r3, [r0, #100]	; 0x64
    6354:	81c2      	strh	r2, [r0, #14]
    6356:	6103      	str	r3, [r0, #16]
    6358:	6143      	str	r3, [r0, #20]
    635a:	6183      	str	r3, [r0, #24]
    635c:	0019      	movs	r1, r3
    635e:	2208      	movs	r2, #8
    6360:	305c      	adds	r0, #92	; 0x5c
    6362:	f7ff fd7f 	bl	5e64 <memset>
    6366:	4b05      	ldr	r3, [pc, #20]	; (637c <std.isra.0+0x38>)
    6368:	6224      	str	r4, [r4, #32]
    636a:	6263      	str	r3, [r4, #36]	; 0x24
    636c:	4b04      	ldr	r3, [pc, #16]	; (6380 <std.isra.0+0x3c>)
    636e:	62a3      	str	r3, [r4, #40]	; 0x28
    6370:	4b04      	ldr	r3, [pc, #16]	; (6384 <std.isra.0+0x40>)
    6372:	62e3      	str	r3, [r4, #44]	; 0x2c
    6374:	4b04      	ldr	r3, [pc, #16]	; (6388 <std.isra.0+0x44>)
    6376:	6323      	str	r3, [r4, #48]	; 0x30
    6378:	bd10      	pop	{r4, pc}
    637a:	46c0      	nop			; (mov r8, r8)
    637c:	00006b15 	.word	0x00006b15
    6380:	00006b3d 	.word	0x00006b3d
    6384:	00006b75 	.word	0x00006b75
    6388:	00006ba1 	.word	0x00006ba1

0000638c <__sfmoreglue>:
    638c:	b570      	push	{r4, r5, r6, lr}
    638e:	2568      	movs	r5, #104	; 0x68
    6390:	1e4a      	subs	r2, r1, #1
    6392:	4355      	muls	r5, r2
    6394:	000e      	movs	r6, r1
    6396:	0029      	movs	r1, r5
    6398:	3174      	adds	r1, #116	; 0x74
    639a:	f7ff fdb5 	bl	5f08 <_malloc_r>
    639e:	1e04      	subs	r4, r0, #0
    63a0:	d008      	beq.n	63b4 <__sfmoreglue+0x28>
    63a2:	2100      	movs	r1, #0
    63a4:	002a      	movs	r2, r5
    63a6:	6001      	str	r1, [r0, #0]
    63a8:	6046      	str	r6, [r0, #4]
    63aa:	300c      	adds	r0, #12
    63ac:	60a0      	str	r0, [r4, #8]
    63ae:	3268      	adds	r2, #104	; 0x68
    63b0:	f7ff fd58 	bl	5e64 <memset>
    63b4:	0020      	movs	r0, r4
    63b6:	bd70      	pop	{r4, r5, r6, pc}

000063b8 <__sinit>:
    63b8:	6983      	ldr	r3, [r0, #24]
    63ba:	b513      	push	{r0, r1, r4, lr}
    63bc:	0004      	movs	r4, r0
    63be:	2b00      	cmp	r3, #0
    63c0:	d128      	bne.n	6414 <__sinit+0x5c>
    63c2:	6483      	str	r3, [r0, #72]	; 0x48
    63c4:	64c3      	str	r3, [r0, #76]	; 0x4c
    63c6:	6503      	str	r3, [r0, #80]	; 0x50
    63c8:	4b13      	ldr	r3, [pc, #76]	; (6418 <__sinit+0x60>)
    63ca:	4a14      	ldr	r2, [pc, #80]	; (641c <__sinit+0x64>)
    63cc:	681b      	ldr	r3, [r3, #0]
    63ce:	6282      	str	r2, [r0, #40]	; 0x28
    63d0:	9301      	str	r3, [sp, #4]
    63d2:	4298      	cmp	r0, r3
    63d4:	d101      	bne.n	63da <__sinit+0x22>
    63d6:	2301      	movs	r3, #1
    63d8:	6183      	str	r3, [r0, #24]
    63da:	0020      	movs	r0, r4
    63dc:	f000 f820 	bl	6420 <__sfp>
    63e0:	6060      	str	r0, [r4, #4]
    63e2:	0020      	movs	r0, r4
    63e4:	f000 f81c 	bl	6420 <__sfp>
    63e8:	60a0      	str	r0, [r4, #8]
    63ea:	0020      	movs	r0, r4
    63ec:	f000 f818 	bl	6420 <__sfp>
    63f0:	2200      	movs	r2, #0
    63f2:	60e0      	str	r0, [r4, #12]
    63f4:	2104      	movs	r1, #4
    63f6:	6860      	ldr	r0, [r4, #4]
    63f8:	f7ff ffa4 	bl	6344 <std.isra.0>
    63fc:	2201      	movs	r2, #1
    63fe:	2109      	movs	r1, #9
    6400:	68a0      	ldr	r0, [r4, #8]
    6402:	f7ff ff9f 	bl	6344 <std.isra.0>
    6406:	2202      	movs	r2, #2
    6408:	2112      	movs	r1, #18
    640a:	68e0      	ldr	r0, [r4, #12]
    640c:	f7ff ff9a 	bl	6344 <std.isra.0>
    6410:	2301      	movs	r3, #1
    6412:	61a3      	str	r3, [r4, #24]
    6414:	bd13      	pop	{r0, r1, r4, pc}
    6416:	46c0      	nop			; (mov r8, r8)
    6418:	00007894 	.word	0x00007894
    641c:	00006335 	.word	0x00006335

00006420 <__sfp>:
    6420:	b5f8      	push	{r3, r4, r5, r6, r7, lr}
    6422:	4b1e      	ldr	r3, [pc, #120]	; (649c <__sfp+0x7c>)
    6424:	0007      	movs	r7, r0
    6426:	681e      	ldr	r6, [r3, #0]
    6428:	69b3      	ldr	r3, [r6, #24]
    642a:	2b00      	cmp	r3, #0
    642c:	d102      	bne.n	6434 <__sfp+0x14>
    642e:	0030      	movs	r0, r6
    6430:	f7ff ffc2 	bl	63b8 <__sinit>
    6434:	3648      	adds	r6, #72	; 0x48
    6436:	68b4      	ldr	r4, [r6, #8]
    6438:	6873      	ldr	r3, [r6, #4]
    643a:	3b01      	subs	r3, #1
    643c:	d504      	bpl.n	6448 <__sfp+0x28>
    643e:	6833      	ldr	r3, [r6, #0]
    6440:	2b00      	cmp	r3, #0
    6442:	d007      	beq.n	6454 <__sfp+0x34>
    6444:	6836      	ldr	r6, [r6, #0]
    6446:	e7f6      	b.n	6436 <__sfp+0x16>
    6448:	220c      	movs	r2, #12
    644a:	5ea5      	ldrsh	r5, [r4, r2]
    644c:	2d00      	cmp	r5, #0
    644e:	d00d      	beq.n	646c <__sfp+0x4c>
    6450:	3468      	adds	r4, #104	; 0x68
    6452:	e7f2      	b.n	643a <__sfp+0x1a>
    6454:	2104      	movs	r1, #4
    6456:	0038      	movs	r0, r7
    6458:	f7ff ff98 	bl	638c <__sfmoreglue>
    645c:	6030      	str	r0, [r6, #0]
    645e:	2800      	cmp	r0, #0
    6460:	d1f0      	bne.n	6444 <__sfp+0x24>
    6462:	230c      	movs	r3, #12
    6464:	0004      	movs	r4, r0
    6466:	603b      	str	r3, [r7, #0]
    6468:	0020      	movs	r0, r4
    646a:	bdf8      	pop	{r3, r4, r5, r6, r7, pc}
    646c:	2301      	movs	r3, #1
    646e:	0020      	movs	r0, r4
    6470:	425b      	negs	r3, r3
    6472:	81e3      	strh	r3, [r4, #14]
    6474:	3302      	adds	r3, #2
    6476:	81a3      	strh	r3, [r4, #12]
    6478:	6665      	str	r5, [r4, #100]	; 0x64
    647a:	6025      	str	r5, [r4, #0]
    647c:	60a5      	str	r5, [r4, #8]
    647e:	6065      	str	r5, [r4, #4]
    6480:	6125      	str	r5, [r4, #16]
    6482:	6165      	str	r5, [r4, #20]
    6484:	61a5      	str	r5, [r4, #24]
    6486:	2208      	movs	r2, #8
    6488:	0029      	movs	r1, r5
    648a:	305c      	adds	r0, #92	; 0x5c
    648c:	f7ff fcea 	bl	5e64 <memset>
    6490:	6365      	str	r5, [r4, #52]	; 0x34
    6492:	63a5      	str	r5, [r4, #56]	; 0x38
    6494:	64a5      	str	r5, [r4, #72]	; 0x48
    6496:	64e5      	str	r5, [r4, #76]	; 0x4c
    6498:	e7e6      	b.n	6468 <__sfp+0x48>
    649a:	46c0      	nop			; (mov r8, r8)
    649c:	00007894 	.word	0x00007894

000064a0 <_fwalk_reent>:
    64a0:	b5f7      	push	{r0, r1, r2, r4, r5, r6, r7, lr}
    64a2:	0004      	movs	r4, r0
    64a4:	0007      	movs	r7, r0
    64a6:	2600      	movs	r6, #0
    64a8:	9101      	str	r1, [sp, #4]
    64aa:	3448      	adds	r4, #72	; 0x48
    64ac:	2c00      	cmp	r4, #0
    64ae:	d101      	bne.n	64b4 <_fwalk_reent+0x14>
    64b0:	0030      	movs	r0, r6
    64b2:	bdfe      	pop	{r1, r2, r3, r4, r5, r6, r7, pc}
    64b4:	6863      	ldr	r3, [r4, #4]
    64b6:	68a5      	ldr	r5, [r4, #8]
    64b8:	9300      	str	r3, [sp, #0]
    64ba:	9b00      	ldr	r3, [sp, #0]
    64bc:	3b01      	subs	r3, #1
    64be:	9300      	str	r3, [sp, #0]
    64c0:	d501      	bpl.n	64c6 <_fwalk_reent+0x26>
    64c2:	6824      	ldr	r4, [r4, #0]
    64c4:	e7f2      	b.n	64ac <_fwalk_reent+0xc>
    64c6:	89ab      	ldrh	r3, [r5, #12]
    64c8:	2b01      	cmp	r3, #1
    64ca:	d908      	bls.n	64de <_fwalk_reent+0x3e>
    64cc:	220e      	movs	r2, #14
    64ce:	5eab      	ldrsh	r3, [r5, r2]
    64d0:	3301      	adds	r3, #1
    64d2:	d004      	beq.n	64de <_fwalk_reent+0x3e>
    64d4:	0029      	movs	r1, r5
    64d6:	0038      	movs	r0, r7
    64d8:	9b01      	ldr	r3, [sp, #4]
    64da:	4798      	blx	r3
    64dc:	4306      	orrs	r6, r0
    64de:	3568      	adds	r5, #104	; 0x68
    64e0:	e7eb      	b.n	64ba <_fwalk_reent+0x1a>
	...

000064e4 <__swhatbuf_r>:
    64e4:	b570      	push	{r4, r5, r6, lr}
    64e6:	000e      	movs	r6, r1
    64e8:	001d      	movs	r5, r3
    64ea:	230e      	movs	r3, #14
    64ec:	5ec9      	ldrsh	r1, [r1, r3]
    64ee:	b090      	sub	sp, #64	; 0x40
    64f0:	0014      	movs	r4, r2
    64f2:	2900      	cmp	r1, #0
    64f4:	da07      	bge.n	6506 <__swhatbuf_r+0x22>
    64f6:	2300      	movs	r3, #0
    64f8:	602b      	str	r3, [r5, #0]
    64fa:	89b3      	ldrh	r3, [r6, #12]
    64fc:	061b      	lsls	r3, r3, #24
    64fe:	d411      	bmi.n	6524 <__swhatbuf_r+0x40>
    6500:	2380      	movs	r3, #128	; 0x80
    6502:	00db      	lsls	r3, r3, #3
    6504:	e00f      	b.n	6526 <__swhatbuf_r+0x42>
    6506:	aa01      	add	r2, sp, #4
    6508:	f000 fb76 	bl	6bf8 <_fstat_r>
    650c:	2800      	cmp	r0, #0
    650e:	dbf2      	blt.n	64f6 <__swhatbuf_r+0x12>
    6510:	22f0      	movs	r2, #240	; 0xf0
    6512:	9b02      	ldr	r3, [sp, #8]
    6514:	0212      	lsls	r2, r2, #8
    6516:	4013      	ands	r3, r2
    6518:	4a05      	ldr	r2, [pc, #20]	; (6530 <__swhatbuf_r+0x4c>)
    651a:	189b      	adds	r3, r3, r2
    651c:	425a      	negs	r2, r3
    651e:	4153      	adcs	r3, r2
    6520:	602b      	str	r3, [r5, #0]
    6522:	e7ed      	b.n	6500 <__swhatbuf_r+0x1c>
    6524:	2340      	movs	r3, #64	; 0x40
    6526:	2000      	movs	r0, #0
    6528:	6023      	str	r3, [r4, #0]
    652a:	b010      	add	sp, #64	; 0x40
    652c:	bd70      	pop	{r4, r5, r6, pc}
    652e:	46c0      	nop			; (mov r8, r8)
    6530:	ffffe000 	.word	0xffffe000

00006534 <__malloc_lock>:
    6534:	4770      	bx	lr

00006536 <__malloc_unlock>:
    6536:	4770      	bx	lr

00006538 <__ssputs_r>:
    6538:	b5f0      	push	{r4, r5, r6, r7, lr}
    653a:	688e      	ldr	r6, [r1, #8]
    653c:	b085      	sub	sp, #20
    653e:	0007      	movs	r7, r0
    6540:	000c      	movs	r4, r1
    6542:	9203      	str	r2, [sp, #12]
    6544:	9301      	str	r3, [sp, #4]
    6546:	429e      	cmp	r6, r3
    6548:	d839      	bhi.n	65be <__ssputs_r+0x86>
    654a:	2390      	movs	r3, #144	; 0x90
    654c:	898a      	ldrh	r2, [r1, #12]
    654e:	00db      	lsls	r3, r3, #3
    6550:	421a      	tst	r2, r3
    6552:	d034      	beq.n	65be <__ssputs_r+0x86>
    6554:	2503      	movs	r5, #3
    6556:	6909      	ldr	r1, [r1, #16]
    6558:	6823      	ldr	r3, [r4, #0]
    655a:	1a5b      	subs	r3, r3, r1
    655c:	9302      	str	r3, [sp, #8]
    655e:	6963      	ldr	r3, [r4, #20]
    6560:	9802      	ldr	r0, [sp, #8]
    6562:	435d      	muls	r5, r3
    6564:	0feb      	lsrs	r3, r5, #31
    6566:	195d      	adds	r5, r3, r5
    6568:	9b01      	ldr	r3, [sp, #4]
    656a:	106d      	asrs	r5, r5, #1
    656c:	3301      	adds	r3, #1
    656e:	181b      	adds	r3, r3, r0
    6570:	42ab      	cmp	r3, r5
    6572:	d900      	bls.n	6576 <__ssputs_r+0x3e>
    6574:	001d      	movs	r5, r3
    6576:	0553      	lsls	r3, r2, #21
    6578:	d532      	bpl.n	65e0 <__ssputs_r+0xa8>
    657a:	0029      	movs	r1, r5
    657c:	0038      	movs	r0, r7
    657e:	f7ff fcc3 	bl	5f08 <_malloc_r>
    6582:	1e06      	subs	r6, r0, #0
    6584:	d109      	bne.n	659a <__ssputs_r+0x62>
    6586:	230c      	movs	r3, #12
    6588:	603b      	str	r3, [r7, #0]
    658a:	2340      	movs	r3, #64	; 0x40
    658c:	2001      	movs	r0, #1
    658e:	89a2      	ldrh	r2, [r4, #12]
    6590:	4240      	negs	r0, r0
    6592:	4313      	orrs	r3, r2
    6594:	81a3      	strh	r3, [r4, #12]
    6596:	b005      	add	sp, #20
    6598:	bdf0      	pop	{r4, r5, r6, r7, pc}
    659a:	9a02      	ldr	r2, [sp, #8]
    659c:	6921      	ldr	r1, [r4, #16]
    659e:	f000 fb5c 	bl	6c5a <memcpy>
    65a2:	89a3      	ldrh	r3, [r4, #12]
    65a4:	4a14      	ldr	r2, [pc, #80]	; (65f8 <__ssputs_r+0xc0>)
    65a6:	401a      	ands	r2, r3
    65a8:	2380      	movs	r3, #128	; 0x80
    65aa:	4313      	orrs	r3, r2
    65ac:	81a3      	strh	r3, [r4, #12]
    65ae:	9b02      	ldr	r3, [sp, #8]
    65b0:	6126      	str	r6, [r4, #16]
    65b2:	18f6      	adds	r6, r6, r3
    65b4:	6026      	str	r6, [r4, #0]
    65b6:	6165      	str	r5, [r4, #20]
    65b8:	9e01      	ldr	r6, [sp, #4]
    65ba:	1aed      	subs	r5, r5, r3
    65bc:	60a5      	str	r5, [r4, #8]
    65be:	9b01      	ldr	r3, [sp, #4]
    65c0:	42b3      	cmp	r3, r6
    65c2:	d200      	bcs.n	65c6 <__ssputs_r+0x8e>
    65c4:	001e      	movs	r6, r3
    65c6:	0032      	movs	r2, r6
    65c8:	9903      	ldr	r1, [sp, #12]
    65ca:	6820      	ldr	r0, [r4, #0]
    65cc:	f000 fb4e 	bl	6c6c <memmove>
    65d0:	68a3      	ldr	r3, [r4, #8]
    65d2:	2000      	movs	r0, #0
    65d4:	1b9b      	subs	r3, r3, r6
    65d6:	60a3      	str	r3, [r4, #8]
    65d8:	6823      	ldr	r3, [r4, #0]
    65da:	199e      	adds	r6, r3, r6
    65dc:	6026      	str	r6, [r4, #0]
    65de:	e7da      	b.n	6596 <__ssputs_r+0x5e>
    65e0:	002a      	movs	r2, r5
    65e2:	0038      	movs	r0, r7
    65e4:	f000 fb54 	bl	6c90 <_realloc_r>
    65e8:	1e06      	subs	r6, r0, #0
    65ea:	d1e0      	bne.n	65ae <__ssputs_r+0x76>
    65ec:	6921      	ldr	r1, [r4, #16]
    65ee:	0038      	movs	r0, r7
    65f0:	f7ff fc40 	bl	5e74 <_free_r>
    65f4:	e7c7      	b.n	6586 <__ssputs_r+0x4e>
    65f6:	46c0      	nop			; (mov r8, r8)
    65f8:	fffffb7f 	.word	0xfffffb7f

000065fc <_svfiprintf_r>:
    65fc:	b5f0      	push	{r4, r5, r6, r7, lr}
    65fe:	b09f      	sub	sp, #124	; 0x7c
    6600:	9002      	str	r0, [sp, #8]
    6602:	9305      	str	r3, [sp, #20]
    6604:	898b      	ldrh	r3, [r1, #12]
    6606:	000f      	movs	r7, r1
    6608:	0016      	movs	r6, r2
    660a:	061b      	lsls	r3, r3, #24
    660c:	d511      	bpl.n	6632 <_svfiprintf_r+0x36>
    660e:	690b      	ldr	r3, [r1, #16]
    6610:	2b00      	cmp	r3, #0
    6612:	d10e      	bne.n	6632 <_svfiprintf_r+0x36>
    6614:	2140      	movs	r1, #64	; 0x40
    6616:	f7ff fc77 	bl	5f08 <_malloc_r>
    661a:	6038      	str	r0, [r7, #0]
    661c:	6138      	str	r0, [r7, #16]
    661e:	2800      	cmp	r0, #0
    6620:	d105      	bne.n	662e <_svfiprintf_r+0x32>
    6622:	230c      	movs	r3, #12
    6624:	9a02      	ldr	r2, [sp, #8]
    6626:	3801      	subs	r0, #1
    6628:	6013      	str	r3, [r2, #0]
    662a:	b01f      	add	sp, #124	; 0x7c
    662c:	bdf0      	pop	{r4, r5, r6, r7, pc}
    662e:	2340      	movs	r3, #64	; 0x40
    6630:	617b      	str	r3, [r7, #20]
    6632:	2300      	movs	r3, #0
    6634:	ad06      	add	r5, sp, #24
    6636:	616b      	str	r3, [r5, #20]
    6638:	3320      	adds	r3, #32
    663a:	766b      	strb	r3, [r5, #25]
    663c:	3310      	adds	r3, #16
    663e:	76ab      	strb	r3, [r5, #26]
    6640:	0034      	movs	r4, r6
    6642:	7823      	ldrb	r3, [r4, #0]
    6644:	2b00      	cmp	r3, #0
    6646:	d147      	bne.n	66d8 <_svfiprintf_r+0xdc>
    6648:	1ba3      	subs	r3, r4, r6
    664a:	9304      	str	r3, [sp, #16]
    664c:	d00d      	beq.n	666a <_svfiprintf_r+0x6e>
    664e:	1ba3      	subs	r3, r4, r6
    6650:	0032      	movs	r2, r6
    6652:	0039      	movs	r1, r7
    6654:	9802      	ldr	r0, [sp, #8]
    6656:	f7ff ff6f 	bl	6538 <__ssputs_r>
    665a:	1c43      	adds	r3, r0, #1
    665c:	d100      	bne.n	6660 <_svfiprintf_r+0x64>
    665e:	e0b5      	b.n	67cc <_svfiprintf_r+0x1d0>
    6660:	696a      	ldr	r2, [r5, #20]
    6662:	9b04      	ldr	r3, [sp, #16]
    6664:	4694      	mov	ip, r2
    6666:	4463      	add	r3, ip
    6668:	616b      	str	r3, [r5, #20]
    666a:	7823      	ldrb	r3, [r4, #0]
    666c:	2b00      	cmp	r3, #0
    666e:	d100      	bne.n	6672 <_svfiprintf_r+0x76>
    6670:	e0ac      	b.n	67cc <_svfiprintf_r+0x1d0>
    6672:	2201      	movs	r2, #1
    6674:	2300      	movs	r3, #0
    6676:	4252      	negs	r2, r2
    6678:	606a      	str	r2, [r5, #4]
    667a:	a902      	add	r1, sp, #8
    667c:	3254      	adds	r2, #84	; 0x54
    667e:	1852      	adds	r2, r2, r1
    6680:	3401      	adds	r4, #1
    6682:	602b      	str	r3, [r5, #0]
    6684:	60eb      	str	r3, [r5, #12]
    6686:	60ab      	str	r3, [r5, #8]
    6688:	7013      	strb	r3, [r2, #0]
    668a:	65ab      	str	r3, [r5, #88]	; 0x58
    668c:	4e58      	ldr	r6, [pc, #352]	; (67f0 <_svfiprintf_r+0x1f4>)
    668e:	2205      	movs	r2, #5
    6690:	7821      	ldrb	r1, [r4, #0]
    6692:	0030      	movs	r0, r6
    6694:	f000 fad6 	bl	6c44 <memchr>
    6698:	1c62      	adds	r2, r4, #1
    669a:	2800      	cmp	r0, #0
    669c:	d120      	bne.n	66e0 <_svfiprintf_r+0xe4>
    669e:	6829      	ldr	r1, [r5, #0]
    66a0:	06cb      	lsls	r3, r1, #27
    66a2:	d504      	bpl.n	66ae <_svfiprintf_r+0xb2>
    66a4:	2353      	movs	r3, #83	; 0x53
    66a6:	ae02      	add	r6, sp, #8
    66a8:	3020      	adds	r0, #32
    66aa:	199b      	adds	r3, r3, r6
    66ac:	7018      	strb	r0, [r3, #0]
    66ae:	070b      	lsls	r3, r1, #28
    66b0:	d504      	bpl.n	66bc <_svfiprintf_r+0xc0>
    66b2:	2353      	movs	r3, #83	; 0x53
    66b4:	202b      	movs	r0, #43	; 0x2b
    66b6:	ae02      	add	r6, sp, #8
    66b8:	199b      	adds	r3, r3, r6
    66ba:	7018      	strb	r0, [r3, #0]
    66bc:	7823      	ldrb	r3, [r4, #0]
    66be:	2b2a      	cmp	r3, #42	; 0x2a
    66c0:	d016      	beq.n	66f0 <_svfiprintf_r+0xf4>
    66c2:	2000      	movs	r0, #0
    66c4:	210a      	movs	r1, #10
    66c6:	9b09      	ldr	r3, [sp, #36]	; 0x24
    66c8:	7822      	ldrb	r2, [r4, #0]
    66ca:	3a30      	subs	r2, #48	; 0x30
    66cc:	2a09      	cmp	r2, #9
    66ce:	d955      	bls.n	677c <_svfiprintf_r+0x180>
    66d0:	2800      	cmp	r0, #0
    66d2:	d015      	beq.n	6700 <_svfiprintf_r+0x104>
    66d4:	9309      	str	r3, [sp, #36]	; 0x24
    66d6:	e013      	b.n	6700 <_svfiprintf_r+0x104>
    66d8:	2b25      	cmp	r3, #37	; 0x25
    66da:	d0b5      	beq.n	6648 <_svfiprintf_r+0x4c>
    66dc:	3401      	adds	r4, #1
    66de:	e7b0      	b.n	6642 <_svfiprintf_r+0x46>
    66e0:	2301      	movs	r3, #1
    66e2:	1b80      	subs	r0, r0, r6
    66e4:	4083      	lsls	r3, r0
    66e6:	6829      	ldr	r1, [r5, #0]
    66e8:	0014      	movs	r4, r2
    66ea:	430b      	orrs	r3, r1
    66ec:	602b      	str	r3, [r5, #0]
    66ee:	e7cd      	b.n	668c <_svfiprintf_r+0x90>
    66f0:	9b05      	ldr	r3, [sp, #20]
    66f2:	1d18      	adds	r0, r3, #4
    66f4:	681b      	ldr	r3, [r3, #0]
    66f6:	9005      	str	r0, [sp, #20]
    66f8:	2b00      	cmp	r3, #0
    66fa:	db39      	blt.n	6770 <_svfiprintf_r+0x174>
    66fc:	9309      	str	r3, [sp, #36]	; 0x24
    66fe:	0014      	movs	r4, r2
    6700:	7823      	ldrb	r3, [r4, #0]
    6702:	2b2e      	cmp	r3, #46	; 0x2e
    6704:	d10b      	bne.n	671e <_svfiprintf_r+0x122>
    6706:	7863      	ldrb	r3, [r4, #1]
    6708:	1c62      	adds	r2, r4, #1
    670a:	2b2a      	cmp	r3, #42	; 0x2a
    670c:	d13e      	bne.n	678c <_svfiprintf_r+0x190>
    670e:	9b05      	ldr	r3, [sp, #20]
    6710:	3402      	adds	r4, #2
    6712:	1d1a      	adds	r2, r3, #4
    6714:	681b      	ldr	r3, [r3, #0]
    6716:	9205      	str	r2, [sp, #20]
    6718:	2b00      	cmp	r3, #0
    671a:	db34      	blt.n	6786 <_svfiprintf_r+0x18a>
    671c:	9307      	str	r3, [sp, #28]
    671e:	4e35      	ldr	r6, [pc, #212]	; (67f4 <_svfiprintf_r+0x1f8>)
    6720:	7821      	ldrb	r1, [r4, #0]
    6722:	2203      	movs	r2, #3
    6724:	0030      	movs	r0, r6
    6726:	f000 fa8d 	bl	6c44 <memchr>
    672a:	2800      	cmp	r0, #0
    672c:	d006      	beq.n	673c <_svfiprintf_r+0x140>
    672e:	2340      	movs	r3, #64	; 0x40
    6730:	1b80      	subs	r0, r0, r6
    6732:	4083      	lsls	r3, r0
    6734:	682a      	ldr	r2, [r5, #0]
    6736:	3401      	adds	r4, #1
    6738:	4313      	orrs	r3, r2
    673a:	602b      	str	r3, [r5, #0]
    673c:	7821      	ldrb	r1, [r4, #0]
    673e:	2206      	movs	r2, #6
    6740:	482d      	ldr	r0, [pc, #180]	; (67f8 <_svfiprintf_r+0x1fc>)
    6742:	1c66      	adds	r6, r4, #1
    6744:	7629      	strb	r1, [r5, #24]
    6746:	f000 fa7d 	bl	6c44 <memchr>
    674a:	2800      	cmp	r0, #0
    674c:	d046      	beq.n	67dc <_svfiprintf_r+0x1e0>
    674e:	4b2b      	ldr	r3, [pc, #172]	; (67fc <_svfiprintf_r+0x200>)
    6750:	2b00      	cmp	r3, #0
    6752:	d12f      	bne.n	67b4 <_svfiprintf_r+0x1b8>
    6754:	6829      	ldr	r1, [r5, #0]
    6756:	9b05      	ldr	r3, [sp, #20]
    6758:	2207      	movs	r2, #7
    675a:	05c9      	lsls	r1, r1, #23
    675c:	d528      	bpl.n	67b0 <_svfiprintf_r+0x1b4>
    675e:	189b      	adds	r3, r3, r2
    6760:	4393      	bics	r3, r2
    6762:	3308      	adds	r3, #8
    6764:	9305      	str	r3, [sp, #20]
    6766:	696b      	ldr	r3, [r5, #20]
    6768:	9a03      	ldr	r2, [sp, #12]
    676a:	189b      	adds	r3, r3, r2
    676c:	616b      	str	r3, [r5, #20]
    676e:	e767      	b.n	6640 <_svfiprintf_r+0x44>
    6770:	425b      	negs	r3, r3
    6772:	60eb      	str	r3, [r5, #12]
    6774:	2302      	movs	r3, #2
    6776:	430b      	orrs	r3, r1
    6778:	602b      	str	r3, [r5, #0]
    677a:	e7c0      	b.n	66fe <_svfiprintf_r+0x102>
    677c:	434b      	muls	r3, r1
    677e:	3401      	adds	r4, #1
    6780:	189b      	adds	r3, r3, r2
    6782:	2001      	movs	r0, #1
    6784:	e7a0      	b.n	66c8 <_svfiprintf_r+0xcc>
    6786:	2301      	movs	r3, #1
    6788:	425b      	negs	r3, r3
    678a:	e7c7      	b.n	671c <_svfiprintf_r+0x120>
    678c:	2300      	movs	r3, #0
    678e:	0014      	movs	r4, r2
    6790:	200a      	movs	r0, #10
    6792:	001a      	movs	r2, r3
    6794:	606b      	str	r3, [r5, #4]
    6796:	7821      	ldrb	r1, [r4, #0]
    6798:	3930      	subs	r1, #48	; 0x30
    679a:	2909      	cmp	r1, #9
    679c:	d903      	bls.n	67a6 <_svfiprintf_r+0x1aa>
    679e:	2b00      	cmp	r3, #0
    67a0:	d0bd      	beq.n	671e <_svfiprintf_r+0x122>
    67a2:	9207      	str	r2, [sp, #28]
    67a4:	e7bb      	b.n	671e <_svfiprintf_r+0x122>
    67a6:	4342      	muls	r2, r0
    67a8:	3401      	adds	r4, #1
    67aa:	1852      	adds	r2, r2, r1
    67ac:	2301      	movs	r3, #1
    67ae:	e7f2      	b.n	6796 <_svfiprintf_r+0x19a>
    67b0:	3307      	adds	r3, #7
    67b2:	e7d5      	b.n	6760 <_svfiprintf_r+0x164>
    67b4:	ab05      	add	r3, sp, #20
    67b6:	9300      	str	r3, [sp, #0]
    67b8:	003a      	movs	r2, r7
    67ba:	4b11      	ldr	r3, [pc, #68]	; (6800 <_svfiprintf_r+0x204>)
    67bc:	0029      	movs	r1, r5
    67be:	9802      	ldr	r0, [sp, #8]
    67c0:	e000      	b.n	67c4 <_svfiprintf_r+0x1c8>
    67c2:	bf00      	nop
    67c4:	9003      	str	r0, [sp, #12]
    67c6:	9b03      	ldr	r3, [sp, #12]
    67c8:	3301      	adds	r3, #1
    67ca:	d1cc      	bne.n	6766 <_svfiprintf_r+0x16a>
    67cc:	89bb      	ldrh	r3, [r7, #12]
    67ce:	980b      	ldr	r0, [sp, #44]	; 0x2c
    67d0:	065b      	lsls	r3, r3, #25
    67d2:	d400      	bmi.n	67d6 <_svfiprintf_r+0x1da>
    67d4:	e729      	b.n	662a <_svfiprintf_r+0x2e>
    67d6:	2001      	movs	r0, #1
    67d8:	4240      	negs	r0, r0
    67da:	e726      	b.n	662a <_svfiprintf_r+0x2e>
    67dc:	ab05      	add	r3, sp, #20
    67de:	9300      	str	r3, [sp, #0]
    67e0:	003a      	movs	r2, r7
    67e2:	4b07      	ldr	r3, [pc, #28]	; (6800 <_svfiprintf_r+0x204>)
    67e4:	0029      	movs	r1, r5
    67e6:	9802      	ldr	r0, [sp, #8]
    67e8:	f000 f87a 	bl	68e0 <_printf_i>
    67ec:	e7ea      	b.n	67c4 <_svfiprintf_r+0x1c8>
    67ee:	46c0      	nop			; (mov r8, r8)
    67f0:	000078f8 	.word	0x000078f8
    67f4:	000078fe 	.word	0x000078fe
    67f8:	00007902 	.word	0x00007902
    67fc:	00000000 	.word	0x00000000
    6800:	00006539 	.word	0x00006539

00006804 <_printf_common>:
    6804:	b5f7      	push	{r0, r1, r2, r4, r5, r6, r7, lr}
    6806:	0015      	movs	r5, r2
    6808:	9301      	str	r3, [sp, #4]
    680a:	688a      	ldr	r2, [r1, #8]
    680c:	690b      	ldr	r3, [r1, #16]
    680e:	9000      	str	r0, [sp, #0]
    6810:	000c      	movs	r4, r1
    6812:	4293      	cmp	r3, r2
    6814:	da00      	bge.n	6818 <_printf_common+0x14>
    6816:	0013      	movs	r3, r2
    6818:	0022      	movs	r2, r4
    681a:	602b      	str	r3, [r5, #0]
    681c:	3243      	adds	r2, #67	; 0x43
    681e:	7812      	ldrb	r2, [r2, #0]
    6820:	2a00      	cmp	r2, #0
    6822:	d001      	beq.n	6828 <_printf_common+0x24>
    6824:	3301      	adds	r3, #1
    6826:	602b      	str	r3, [r5, #0]
    6828:	6823      	ldr	r3, [r4, #0]
    682a:	069b      	lsls	r3, r3, #26
    682c:	d502      	bpl.n	6834 <_printf_common+0x30>
    682e:	682b      	ldr	r3, [r5, #0]
    6830:	3302      	adds	r3, #2
    6832:	602b      	str	r3, [r5, #0]
    6834:	2706      	movs	r7, #6
    6836:	6823      	ldr	r3, [r4, #0]
    6838:	401f      	ands	r7, r3
    683a:	d027      	beq.n	688c <_printf_common+0x88>
    683c:	0023      	movs	r3, r4
    683e:	3343      	adds	r3, #67	; 0x43
    6840:	781b      	ldrb	r3, [r3, #0]
    6842:	1e5a      	subs	r2, r3, #1
    6844:	4193      	sbcs	r3, r2
    6846:	6822      	ldr	r2, [r4, #0]
    6848:	0692      	lsls	r2, r2, #26
    684a:	d430      	bmi.n	68ae <_printf_common+0xaa>
    684c:	0022      	movs	r2, r4
    684e:	9901      	ldr	r1, [sp, #4]
    6850:	3243      	adds	r2, #67	; 0x43
    6852:	9800      	ldr	r0, [sp, #0]
    6854:	9e08      	ldr	r6, [sp, #32]
    6856:	47b0      	blx	r6
    6858:	1c43      	adds	r3, r0, #1
    685a:	d025      	beq.n	68a8 <_printf_common+0xa4>
    685c:	2306      	movs	r3, #6
    685e:	6820      	ldr	r0, [r4, #0]
    6860:	682a      	ldr	r2, [r5, #0]
    6862:	68e1      	ldr	r1, [r4, #12]
    6864:	4003      	ands	r3, r0
    6866:	2500      	movs	r5, #0
    6868:	2b04      	cmp	r3, #4
    686a:	d103      	bne.n	6874 <_printf_common+0x70>
    686c:	1a8d      	subs	r5, r1, r2
    686e:	43eb      	mvns	r3, r5
    6870:	17db      	asrs	r3, r3, #31
    6872:	401d      	ands	r5, r3
    6874:	68a3      	ldr	r3, [r4, #8]
    6876:	6922      	ldr	r2, [r4, #16]
    6878:	4293      	cmp	r3, r2
    687a:	dd01      	ble.n	6880 <_printf_common+0x7c>
    687c:	1a9b      	subs	r3, r3, r2
    687e:	18ed      	adds	r5, r5, r3
    6880:	2700      	movs	r7, #0
    6882:	42bd      	cmp	r5, r7
    6884:	d120      	bne.n	68c8 <_printf_common+0xc4>
    6886:	2000      	movs	r0, #0
    6888:	e010      	b.n	68ac <_printf_common+0xa8>
    688a:	3701      	adds	r7, #1
    688c:	68e3      	ldr	r3, [r4, #12]
    688e:	682a      	ldr	r2, [r5, #0]
    6890:	1a9b      	subs	r3, r3, r2
    6892:	429f      	cmp	r7, r3
    6894:	dad2      	bge.n	683c <_printf_common+0x38>
    6896:	0022      	movs	r2, r4
    6898:	2301      	movs	r3, #1
    689a:	3219      	adds	r2, #25
    689c:	9901      	ldr	r1, [sp, #4]
    689e:	9800      	ldr	r0, [sp, #0]
    68a0:	9e08      	ldr	r6, [sp, #32]
    68a2:	47b0      	blx	r6
    68a4:	1c43      	adds	r3, r0, #1
    68a6:	d1f0      	bne.n	688a <_printf_common+0x86>
    68a8:	2001      	movs	r0, #1
    68aa:	4240      	negs	r0, r0
    68ac:	bdfe      	pop	{r1, r2, r3, r4, r5, r6, r7, pc}
    68ae:	2030      	movs	r0, #48	; 0x30
    68b0:	18e1      	adds	r1, r4, r3
    68b2:	3143      	adds	r1, #67	; 0x43
    68b4:	7008      	strb	r0, [r1, #0]
    68b6:	0021      	movs	r1, r4
    68b8:	1c5a      	adds	r2, r3, #1
    68ba:	3145      	adds	r1, #69	; 0x45
    68bc:	7809      	ldrb	r1, [r1, #0]
    68be:	18a2      	adds	r2, r4, r2
    68c0:	3243      	adds	r2, #67	; 0x43
    68c2:	3302      	adds	r3, #2
    68c4:	7011      	strb	r1, [r2, #0]
    68c6:	e7c1      	b.n	684c <_printf_common+0x48>
    68c8:	0022      	movs	r2, r4
    68ca:	2301      	movs	r3, #1
    68cc:	321a      	adds	r2, #26
    68ce:	9901      	ldr	r1, [sp, #4]
    68d0:	9800      	ldr	r0, [sp, #0]
    68d2:	9e08      	ldr	r6, [sp, #32]
    68d4:	47b0      	blx	r6
    68d6:	1c43      	adds	r3, r0, #1
    68d8:	d0e6      	beq.n	68a8 <_printf_common+0xa4>
    68da:	3701      	adds	r7, #1
    68dc:	e7d1      	b.n	6882 <_printf_common+0x7e>
	...

000068e0 <_printf_i>:
    68e0:	b5f0      	push	{r4, r5, r6, r7, lr}
    68e2:	b08b      	sub	sp, #44	; 0x2c
    68e4:	9206      	str	r2, [sp, #24]
    68e6:	000a      	movs	r2, r1
    68e8:	3243      	adds	r2, #67	; 0x43
    68ea:	9307      	str	r3, [sp, #28]
    68ec:	9005      	str	r0, [sp, #20]
    68ee:	9204      	str	r2, [sp, #16]
    68f0:	7e0a      	ldrb	r2, [r1, #24]
    68f2:	000c      	movs	r4, r1
    68f4:	9b10      	ldr	r3, [sp, #64]	; 0x40
    68f6:	2a6e      	cmp	r2, #110	; 0x6e
    68f8:	d100      	bne.n	68fc <_printf_i+0x1c>
    68fa:	e08f      	b.n	6a1c <_printf_i+0x13c>
    68fc:	d817      	bhi.n	692e <_printf_i+0x4e>
    68fe:	2a63      	cmp	r2, #99	; 0x63
    6900:	d02c      	beq.n	695c <_printf_i+0x7c>
    6902:	d808      	bhi.n	6916 <_printf_i+0x36>
    6904:	2a00      	cmp	r2, #0
    6906:	d100      	bne.n	690a <_printf_i+0x2a>
    6908:	e099      	b.n	6a3e <_printf_i+0x15e>
    690a:	2a58      	cmp	r2, #88	; 0x58
    690c:	d054      	beq.n	69b8 <_printf_i+0xd8>
    690e:	0026      	movs	r6, r4
    6910:	3642      	adds	r6, #66	; 0x42
    6912:	7032      	strb	r2, [r6, #0]
    6914:	e029      	b.n	696a <_printf_i+0x8a>
    6916:	2a64      	cmp	r2, #100	; 0x64
    6918:	d001      	beq.n	691e <_printf_i+0x3e>
    691a:	2a69      	cmp	r2, #105	; 0x69
    691c:	d1f7      	bne.n	690e <_printf_i+0x2e>
    691e:	6821      	ldr	r1, [r4, #0]
    6920:	681a      	ldr	r2, [r3, #0]
    6922:	0608      	lsls	r0, r1, #24
    6924:	d523      	bpl.n	696e <_printf_i+0x8e>
    6926:	1d11      	adds	r1, r2, #4
    6928:	6019      	str	r1, [r3, #0]
    692a:	6815      	ldr	r5, [r2, #0]
    692c:	e025      	b.n	697a <_printf_i+0x9a>
    692e:	2a73      	cmp	r2, #115	; 0x73
    6930:	d100      	bne.n	6934 <_printf_i+0x54>
    6932:	e088      	b.n	6a46 <_printf_i+0x166>
    6934:	d808      	bhi.n	6948 <_printf_i+0x68>
    6936:	2a6f      	cmp	r2, #111	; 0x6f
    6938:	d029      	beq.n	698e <_printf_i+0xae>
    693a:	2a70      	cmp	r2, #112	; 0x70
    693c:	d1e7      	bne.n	690e <_printf_i+0x2e>
    693e:	2220      	movs	r2, #32
    6940:	6809      	ldr	r1, [r1, #0]
    6942:	430a      	orrs	r2, r1
    6944:	6022      	str	r2, [r4, #0]
    6946:	e003      	b.n	6950 <_printf_i+0x70>
    6948:	2a75      	cmp	r2, #117	; 0x75
    694a:	d020      	beq.n	698e <_printf_i+0xae>
    694c:	2a78      	cmp	r2, #120	; 0x78
    694e:	d1de      	bne.n	690e <_printf_i+0x2e>
    6950:	0022      	movs	r2, r4
    6952:	2178      	movs	r1, #120	; 0x78
    6954:	3245      	adds	r2, #69	; 0x45
    6956:	7011      	strb	r1, [r2, #0]
    6958:	4a6c      	ldr	r2, [pc, #432]	; (6b0c <_printf_i+0x22c>)
    695a:	e030      	b.n	69be <_printf_i+0xde>
    695c:	000e      	movs	r6, r1
    695e:	681a      	ldr	r2, [r3, #0]
    6960:	3642      	adds	r6, #66	; 0x42
    6962:	1d11      	adds	r1, r2, #4
    6964:	6019      	str	r1, [r3, #0]
    6966:	6813      	ldr	r3, [r2, #0]
    6968:	7033      	strb	r3, [r6, #0]
    696a:	2301      	movs	r3, #1
    696c:	e079      	b.n	6a62 <_printf_i+0x182>
    696e:	0649      	lsls	r1, r1, #25
    6970:	d5d9      	bpl.n	6926 <_printf_i+0x46>
    6972:	1d11      	adds	r1, r2, #4
    6974:	6019      	str	r1, [r3, #0]
    6976:	2300      	movs	r3, #0
    6978:	5ed5      	ldrsh	r5, [r2, r3]
    697a:	2d00      	cmp	r5, #0
    697c:	da03      	bge.n	6986 <_printf_i+0xa6>
    697e:	232d      	movs	r3, #45	; 0x2d
    6980:	9a04      	ldr	r2, [sp, #16]
    6982:	426d      	negs	r5, r5
    6984:	7013      	strb	r3, [r2, #0]
    6986:	4b62      	ldr	r3, [pc, #392]	; (6b10 <_printf_i+0x230>)
    6988:	270a      	movs	r7, #10
    698a:	9303      	str	r3, [sp, #12]
    698c:	e02f      	b.n	69ee <_printf_i+0x10e>
    698e:	6820      	ldr	r0, [r4, #0]
    6990:	6819      	ldr	r1, [r3, #0]
    6992:	0605      	lsls	r5, r0, #24
    6994:	d503      	bpl.n	699e <_printf_i+0xbe>
    6996:	1d08      	adds	r0, r1, #4
    6998:	6018      	str	r0, [r3, #0]
    699a:	680d      	ldr	r5, [r1, #0]
    699c:	e005      	b.n	69aa <_printf_i+0xca>
    699e:	0640      	lsls	r0, r0, #25
    69a0:	d5f9      	bpl.n	6996 <_printf_i+0xb6>
    69a2:	680d      	ldr	r5, [r1, #0]
    69a4:	1d08      	adds	r0, r1, #4
    69a6:	6018      	str	r0, [r3, #0]
    69a8:	b2ad      	uxth	r5, r5
    69aa:	4b59      	ldr	r3, [pc, #356]	; (6b10 <_printf_i+0x230>)
    69ac:	2708      	movs	r7, #8
    69ae:	9303      	str	r3, [sp, #12]
    69b0:	2a6f      	cmp	r2, #111	; 0x6f
    69b2:	d018      	beq.n	69e6 <_printf_i+0x106>
    69b4:	270a      	movs	r7, #10
    69b6:	e016      	b.n	69e6 <_printf_i+0x106>
    69b8:	3145      	adds	r1, #69	; 0x45
    69ba:	700a      	strb	r2, [r1, #0]
    69bc:	4a54      	ldr	r2, [pc, #336]	; (6b10 <_printf_i+0x230>)
    69be:	9203      	str	r2, [sp, #12]
    69c0:	681a      	ldr	r2, [r3, #0]
    69c2:	6821      	ldr	r1, [r4, #0]
    69c4:	1d10      	adds	r0, r2, #4
    69c6:	6018      	str	r0, [r3, #0]
    69c8:	6815      	ldr	r5, [r2, #0]
    69ca:	0608      	lsls	r0, r1, #24
    69cc:	d522      	bpl.n	6a14 <_printf_i+0x134>
    69ce:	07cb      	lsls	r3, r1, #31
    69d0:	d502      	bpl.n	69d8 <_printf_i+0xf8>
    69d2:	2320      	movs	r3, #32
    69d4:	4319      	orrs	r1, r3
    69d6:	6021      	str	r1, [r4, #0]
    69d8:	2710      	movs	r7, #16
    69da:	2d00      	cmp	r5, #0
    69dc:	d103      	bne.n	69e6 <_printf_i+0x106>
    69de:	2320      	movs	r3, #32
    69e0:	6822      	ldr	r2, [r4, #0]
    69e2:	439a      	bics	r2, r3
    69e4:	6022      	str	r2, [r4, #0]
    69e6:	0023      	movs	r3, r4
    69e8:	2200      	movs	r2, #0
    69ea:	3343      	adds	r3, #67	; 0x43
    69ec:	701a      	strb	r2, [r3, #0]
    69ee:	6863      	ldr	r3, [r4, #4]
    69f0:	60a3      	str	r3, [r4, #8]
    69f2:	2b00      	cmp	r3, #0
    69f4:	db5c      	blt.n	6ab0 <_printf_i+0x1d0>
    69f6:	2204      	movs	r2, #4
    69f8:	6821      	ldr	r1, [r4, #0]
    69fa:	4391      	bics	r1, r2
    69fc:	6021      	str	r1, [r4, #0]
    69fe:	2d00      	cmp	r5, #0
    6a00:	d158      	bne.n	6ab4 <_printf_i+0x1d4>
    6a02:	9e04      	ldr	r6, [sp, #16]
    6a04:	2b00      	cmp	r3, #0
    6a06:	d064      	beq.n	6ad2 <_printf_i+0x1f2>
    6a08:	0026      	movs	r6, r4
    6a0a:	9b03      	ldr	r3, [sp, #12]
    6a0c:	3642      	adds	r6, #66	; 0x42
    6a0e:	781b      	ldrb	r3, [r3, #0]
    6a10:	7033      	strb	r3, [r6, #0]
    6a12:	e05e      	b.n	6ad2 <_printf_i+0x1f2>
    6a14:	0648      	lsls	r0, r1, #25
    6a16:	d5da      	bpl.n	69ce <_printf_i+0xee>
    6a18:	b2ad      	uxth	r5, r5
    6a1a:	e7d8      	b.n	69ce <_printf_i+0xee>
    6a1c:	6809      	ldr	r1, [r1, #0]
    6a1e:	681a      	ldr	r2, [r3, #0]
    6a20:	0608      	lsls	r0, r1, #24
    6a22:	d505      	bpl.n	6a30 <_printf_i+0x150>
    6a24:	1d11      	adds	r1, r2, #4
    6a26:	6019      	str	r1, [r3, #0]
    6a28:	6813      	ldr	r3, [r2, #0]
    6a2a:	6962      	ldr	r2, [r4, #20]
    6a2c:	601a      	str	r2, [r3, #0]
    6a2e:	e006      	b.n	6a3e <_printf_i+0x15e>
    6a30:	0649      	lsls	r1, r1, #25
    6a32:	d5f7      	bpl.n	6a24 <_printf_i+0x144>
    6a34:	1d11      	adds	r1, r2, #4
    6a36:	6019      	str	r1, [r3, #0]
    6a38:	6813      	ldr	r3, [r2, #0]
    6a3a:	8aa2      	ldrh	r2, [r4, #20]
    6a3c:	801a      	strh	r2, [r3, #0]
    6a3e:	2300      	movs	r3, #0
    6a40:	9e04      	ldr	r6, [sp, #16]
    6a42:	6123      	str	r3, [r4, #16]
    6a44:	e054      	b.n	6af0 <_printf_i+0x210>
    6a46:	681a      	ldr	r2, [r3, #0]
    6a48:	1d11      	adds	r1, r2, #4
    6a4a:	6019      	str	r1, [r3, #0]
    6a4c:	6816      	ldr	r6, [r2, #0]
    6a4e:	2100      	movs	r1, #0
    6a50:	6862      	ldr	r2, [r4, #4]
    6a52:	0030      	movs	r0, r6
    6a54:	f000 f8f6 	bl	6c44 <memchr>
    6a58:	2800      	cmp	r0, #0
    6a5a:	d001      	beq.n	6a60 <_printf_i+0x180>
    6a5c:	1b80      	subs	r0, r0, r6
    6a5e:	6060      	str	r0, [r4, #4]
    6a60:	6863      	ldr	r3, [r4, #4]
    6a62:	6123      	str	r3, [r4, #16]
    6a64:	2300      	movs	r3, #0
    6a66:	9a04      	ldr	r2, [sp, #16]
    6a68:	7013      	strb	r3, [r2, #0]
    6a6a:	e041      	b.n	6af0 <_printf_i+0x210>
    6a6c:	6923      	ldr	r3, [r4, #16]
    6a6e:	0032      	movs	r2, r6
    6a70:	9906      	ldr	r1, [sp, #24]
    6a72:	9805      	ldr	r0, [sp, #20]
    6a74:	9d07      	ldr	r5, [sp, #28]
    6a76:	47a8      	blx	r5
    6a78:	1c43      	adds	r3, r0, #1
    6a7a:	d043      	beq.n	6b04 <_printf_i+0x224>
    6a7c:	6823      	ldr	r3, [r4, #0]
    6a7e:	2500      	movs	r5, #0
    6a80:	079b      	lsls	r3, r3, #30
    6a82:	d40f      	bmi.n	6aa4 <_printf_i+0x1c4>
    6a84:	9b09      	ldr	r3, [sp, #36]	; 0x24
    6a86:	68e0      	ldr	r0, [r4, #12]
    6a88:	4298      	cmp	r0, r3
    6a8a:	da3d      	bge.n	6b08 <_printf_i+0x228>
    6a8c:	0018      	movs	r0, r3
    6a8e:	e03b      	b.n	6b08 <_printf_i+0x228>
    6a90:	0022      	movs	r2, r4
    6a92:	2301      	movs	r3, #1
    6a94:	3219      	adds	r2, #25
    6a96:	9906      	ldr	r1, [sp, #24]
    6a98:	9805      	ldr	r0, [sp, #20]
    6a9a:	9e07      	ldr	r6, [sp, #28]
    6a9c:	47b0      	blx	r6
    6a9e:	1c43      	adds	r3, r0, #1
    6aa0:	d030      	beq.n	6b04 <_printf_i+0x224>
    6aa2:	3501      	adds	r5, #1
    6aa4:	68e3      	ldr	r3, [r4, #12]
    6aa6:	9a09      	ldr	r2, [sp, #36]	; 0x24
    6aa8:	1a9b      	subs	r3, r3, r2
    6aaa:	429d      	cmp	r5, r3
    6aac:	dbf0      	blt.n	6a90 <_printf_i+0x1b0>
    6aae:	e7e9      	b.n	6a84 <_printf_i+0x1a4>
    6ab0:	2d00      	cmp	r5, #0
    6ab2:	d0a9      	beq.n	6a08 <_printf_i+0x128>
    6ab4:	9e04      	ldr	r6, [sp, #16]
    6ab6:	0028      	movs	r0, r5
    6ab8:	0039      	movs	r1, r7
    6aba:	f7ff f88b 	bl	5bd4 <__aeabi_uidivmod>
    6abe:	9b03      	ldr	r3, [sp, #12]
    6ac0:	3e01      	subs	r6, #1
    6ac2:	5c5b      	ldrb	r3, [r3, r1]
    6ac4:	0028      	movs	r0, r5
    6ac6:	7033      	strb	r3, [r6, #0]
    6ac8:	0039      	movs	r1, r7
    6aca:	f7fe fffd 	bl	5ac8 <__udivsi3>
    6ace:	1e05      	subs	r5, r0, #0
    6ad0:	d1f1      	bne.n	6ab6 <_printf_i+0x1d6>
    6ad2:	2f08      	cmp	r7, #8
    6ad4:	d109      	bne.n	6aea <_printf_i+0x20a>
    6ad6:	6823      	ldr	r3, [r4, #0]
    6ad8:	07db      	lsls	r3, r3, #31
    6ada:	d506      	bpl.n	6aea <_printf_i+0x20a>
    6adc:	6863      	ldr	r3, [r4, #4]
    6ade:	6922      	ldr	r2, [r4, #16]
    6ae0:	4293      	cmp	r3, r2
    6ae2:	dc02      	bgt.n	6aea <_printf_i+0x20a>
    6ae4:	2330      	movs	r3, #48	; 0x30
    6ae6:	3e01      	subs	r6, #1
    6ae8:	7033      	strb	r3, [r6, #0]
    6aea:	9b04      	ldr	r3, [sp, #16]
    6aec:	1b9b      	subs	r3, r3, r6
    6aee:	6123      	str	r3, [r4, #16]
    6af0:	9b07      	ldr	r3, [sp, #28]
    6af2:	aa09      	add	r2, sp, #36	; 0x24
    6af4:	9300      	str	r3, [sp, #0]
    6af6:	0021      	movs	r1, r4
    6af8:	9b06      	ldr	r3, [sp, #24]
    6afa:	9805      	ldr	r0, [sp, #20]
    6afc:	f7ff fe82 	bl	6804 <_printf_common>
    6b00:	1c43      	adds	r3, r0, #1
    6b02:	d1b3      	bne.n	6a6c <_printf_i+0x18c>
    6b04:	2001      	movs	r0, #1
    6b06:	4240      	negs	r0, r0
    6b08:	b00b      	add	sp, #44	; 0x2c
    6b0a:	bdf0      	pop	{r4, r5, r6, r7, pc}
    6b0c:	0000791a 	.word	0x0000791a
    6b10:	00007909 	.word	0x00007909

00006b14 <__sread>:
    6b14:	b570      	push	{r4, r5, r6, lr}
    6b16:	000c      	movs	r4, r1
    6b18:	250e      	movs	r5, #14
    6b1a:	5f49      	ldrsh	r1, [r1, r5]
    6b1c:	f000 f8de 	bl	6cdc <_read_r>
    6b20:	2800      	cmp	r0, #0
    6b22:	db03      	blt.n	6b2c <__sread+0x18>
    6b24:	6d63      	ldr	r3, [r4, #84]	; 0x54
    6b26:	181b      	adds	r3, r3, r0
    6b28:	6563      	str	r3, [r4, #84]	; 0x54
    6b2a:	bd70      	pop	{r4, r5, r6, pc}
    6b2c:	89a3      	ldrh	r3, [r4, #12]
    6b2e:	4a02      	ldr	r2, [pc, #8]	; (6b38 <__sread+0x24>)
    6b30:	4013      	ands	r3, r2
    6b32:	81a3      	strh	r3, [r4, #12]
    6b34:	e7f9      	b.n	6b2a <__sread+0x16>
    6b36:	46c0      	nop			; (mov r8, r8)
    6b38:	ffffefff 	.word	0xffffefff

00006b3c <__swrite>:
    6b3c:	b5f8      	push	{r3, r4, r5, r6, r7, lr}
    6b3e:	001f      	movs	r7, r3
    6b40:	898b      	ldrh	r3, [r1, #12]
    6b42:	0005      	movs	r5, r0
    6b44:	000c      	movs	r4, r1
    6b46:	0016      	movs	r6, r2
    6b48:	05db      	lsls	r3, r3, #23
    6b4a:	d505      	bpl.n	6b58 <__swrite+0x1c>
    6b4c:	230e      	movs	r3, #14
    6b4e:	5ec9      	ldrsh	r1, [r1, r3]
    6b50:	2200      	movs	r2, #0
    6b52:	2302      	movs	r3, #2
    6b54:	f000 f862 	bl	6c1c <_lseek_r>
    6b58:	89a3      	ldrh	r3, [r4, #12]
    6b5a:	4a05      	ldr	r2, [pc, #20]	; (6b70 <__swrite+0x34>)
    6b5c:	0028      	movs	r0, r5
    6b5e:	4013      	ands	r3, r2
    6b60:	81a3      	strh	r3, [r4, #12]
    6b62:	0032      	movs	r2, r6
    6b64:	230e      	movs	r3, #14
    6b66:	5ee1      	ldrsh	r1, [r4, r3]
    6b68:	003b      	movs	r3, r7
    6b6a:	f000 f81f 	bl	6bac <_write_r>
    6b6e:	bdf8      	pop	{r3, r4, r5, r6, r7, pc}
    6b70:	ffffefff 	.word	0xffffefff

00006b74 <__sseek>:
    6b74:	b570      	push	{r4, r5, r6, lr}
    6b76:	000c      	movs	r4, r1
    6b78:	250e      	movs	r5, #14
    6b7a:	5f49      	ldrsh	r1, [r1, r5]
    6b7c:	f000 f84e 	bl	6c1c <_lseek_r>
    6b80:	89a3      	ldrh	r3, [r4, #12]
    6b82:	1c42      	adds	r2, r0, #1
    6b84:	d103      	bne.n	6b8e <__sseek+0x1a>
    6b86:	4a05      	ldr	r2, [pc, #20]	; (6b9c <__sseek+0x28>)
    6b88:	4013      	ands	r3, r2
    6b8a:	81a3      	strh	r3, [r4, #12]
    6b8c:	bd70      	pop	{r4, r5, r6, pc}
    6b8e:	2280      	movs	r2, #128	; 0x80
    6b90:	0152      	lsls	r2, r2, #5
    6b92:	4313      	orrs	r3, r2
    6b94:	81a3      	strh	r3, [r4, #12]
    6b96:	6560      	str	r0, [r4, #84]	; 0x54
    6b98:	e7f8      	b.n	6b8c <__sseek+0x18>
    6b9a:	46c0      	nop			; (mov r8, r8)
    6b9c:	ffffefff 	.word	0xffffefff

00006ba0 <__sclose>:
    6ba0:	b510      	push	{r4, lr}
    6ba2:	230e      	movs	r3, #14
    6ba4:	5ec9      	ldrsh	r1, [r1, r3]
    6ba6:	f000 f815 	bl	6bd4 <_close_r>
    6baa:	bd10      	pop	{r4, pc}

00006bac <_write_r>:
    6bac:	b570      	push	{r4, r5, r6, lr}
    6bae:	0005      	movs	r5, r0
    6bb0:	0008      	movs	r0, r1
    6bb2:	0011      	movs	r1, r2
    6bb4:	2200      	movs	r2, #0
    6bb6:	4c06      	ldr	r4, [pc, #24]	; (6bd0 <_write_r+0x24>)
    6bb8:	6022      	str	r2, [r4, #0]
    6bba:	001a      	movs	r2, r3
    6bbc:	f7fc fe34 	bl	3828 <_write>
    6bc0:	1c43      	adds	r3, r0, #1
    6bc2:	d103      	bne.n	6bcc <_write_r+0x20>
    6bc4:	6823      	ldr	r3, [r4, #0]
    6bc6:	2b00      	cmp	r3, #0
    6bc8:	d000      	beq.n	6bcc <_write_r+0x20>
    6bca:	602b      	str	r3, [r5, #0]
    6bcc:	bd70      	pop	{r4, r5, r6, pc}
    6bce:	46c0      	nop			; (mov r8, r8)
    6bd0:	20000cd4 	.word	0x20000cd4

00006bd4 <_close_r>:
    6bd4:	2300      	movs	r3, #0
    6bd6:	b570      	push	{r4, r5, r6, lr}
    6bd8:	4c06      	ldr	r4, [pc, #24]	; (6bf4 <_close_r+0x20>)
    6bda:	0005      	movs	r5, r0
    6bdc:	0008      	movs	r0, r1
    6bde:	6023      	str	r3, [r4, #0]
    6be0:	f7fc fe5c 	bl	389c <_close>
    6be4:	1c43      	adds	r3, r0, #1
    6be6:	d103      	bne.n	6bf0 <_close_r+0x1c>
    6be8:	6823      	ldr	r3, [r4, #0]
    6bea:	2b00      	cmp	r3, #0
    6bec:	d000      	beq.n	6bf0 <_close_r+0x1c>
    6bee:	602b      	str	r3, [r5, #0]
    6bf0:	bd70      	pop	{r4, r5, r6, pc}
    6bf2:	46c0      	nop			; (mov r8, r8)
    6bf4:	20000cd4 	.word	0x20000cd4

00006bf8 <_fstat_r>:
    6bf8:	2300      	movs	r3, #0
    6bfa:	b570      	push	{r4, r5, r6, lr}
    6bfc:	4c06      	ldr	r4, [pc, #24]	; (6c18 <_fstat_r+0x20>)
    6bfe:	0005      	movs	r5, r0
    6c00:	0008      	movs	r0, r1
    6c02:	0011      	movs	r1, r2
    6c04:	6023      	str	r3, [r4, #0]
    6c06:	f7fc fe4c 	bl	38a2 <_fstat>
    6c0a:	1c43      	adds	r3, r0, #1
    6c0c:	d103      	bne.n	6c16 <_fstat_r+0x1e>
    6c0e:	6823      	ldr	r3, [r4, #0]
    6c10:	2b00      	cmp	r3, #0
    6c12:	d000      	beq.n	6c16 <_fstat_r+0x1e>
    6c14:	602b      	str	r3, [r5, #0]
    6c16:	bd70      	pop	{r4, r5, r6, pc}
    6c18:	20000cd4 	.word	0x20000cd4

00006c1c <_lseek_r>:
    6c1c:	b570      	push	{r4, r5, r6, lr}
    6c1e:	0005      	movs	r5, r0
    6c20:	0008      	movs	r0, r1
    6c22:	0011      	movs	r1, r2
    6c24:	2200      	movs	r2, #0
    6c26:	4c06      	ldr	r4, [pc, #24]	; (6c40 <_lseek_r+0x24>)
    6c28:	6022      	str	r2, [r4, #0]
    6c2a:	001a      	movs	r2, r3
    6c2c:	f7fc fe3e 	bl	38ac <_lseek>
    6c30:	1c43      	adds	r3, r0, #1
    6c32:	d103      	bne.n	6c3c <_lseek_r+0x20>
    6c34:	6823      	ldr	r3, [r4, #0]
    6c36:	2b00      	cmp	r3, #0
    6c38:	d000      	beq.n	6c3c <_lseek_r+0x20>
    6c3a:	602b      	str	r3, [r5, #0]
    6c3c:	bd70      	pop	{r4, r5, r6, pc}
    6c3e:	46c0      	nop			; (mov r8, r8)
    6c40:	20000cd4 	.word	0x20000cd4

00006c44 <memchr>:
    6c44:	b2c9      	uxtb	r1, r1
    6c46:	1882      	adds	r2, r0, r2
    6c48:	4290      	cmp	r0, r2
    6c4a:	d101      	bne.n	6c50 <memchr+0xc>
    6c4c:	2000      	movs	r0, #0
    6c4e:	4770      	bx	lr
    6c50:	7803      	ldrb	r3, [r0, #0]
    6c52:	428b      	cmp	r3, r1
    6c54:	d0fb      	beq.n	6c4e <memchr+0xa>
    6c56:	3001      	adds	r0, #1
    6c58:	e7f6      	b.n	6c48 <memchr+0x4>

00006c5a <memcpy>:
    6c5a:	2300      	movs	r3, #0
    6c5c:	b510      	push	{r4, lr}
    6c5e:	429a      	cmp	r2, r3
    6c60:	d100      	bne.n	6c64 <memcpy+0xa>
    6c62:	bd10      	pop	{r4, pc}
    6c64:	5ccc      	ldrb	r4, [r1, r3]
    6c66:	54c4      	strb	r4, [r0, r3]
    6c68:	3301      	adds	r3, #1
    6c6a:	e7f8      	b.n	6c5e <memcpy+0x4>

00006c6c <memmove>:
    6c6c:	b510      	push	{r4, lr}
    6c6e:	4288      	cmp	r0, r1
    6c70:	d902      	bls.n	6c78 <memmove+0xc>
    6c72:	188b      	adds	r3, r1, r2
    6c74:	4298      	cmp	r0, r3
    6c76:	d308      	bcc.n	6c8a <memmove+0x1e>
    6c78:	2300      	movs	r3, #0
    6c7a:	429a      	cmp	r2, r3
    6c7c:	d007      	beq.n	6c8e <memmove+0x22>
    6c7e:	5ccc      	ldrb	r4, [r1, r3]
    6c80:	54c4      	strb	r4, [r0, r3]
    6c82:	3301      	adds	r3, #1
    6c84:	e7f9      	b.n	6c7a <memmove+0xe>
    6c86:	5c8b      	ldrb	r3, [r1, r2]
    6c88:	5483      	strb	r3, [r0, r2]
    6c8a:	3a01      	subs	r2, #1
    6c8c:	d2fb      	bcs.n	6c86 <memmove+0x1a>
    6c8e:	bd10      	pop	{r4, pc}

00006c90 <_realloc_r>:
    6c90:	b5f8      	push	{r3, r4, r5, r6, r7, lr}
    6c92:	0007      	movs	r7, r0
    6c94:	000d      	movs	r5, r1
    6c96:	0016      	movs	r6, r2
    6c98:	2900      	cmp	r1, #0
    6c9a:	d105      	bne.n	6ca8 <_realloc_r+0x18>
    6c9c:	0011      	movs	r1, r2
    6c9e:	f7ff f933 	bl	5f08 <_malloc_r>
    6ca2:	0004      	movs	r4, r0
    6ca4:	0020      	movs	r0, r4
    6ca6:	bdf8      	pop	{r3, r4, r5, r6, r7, pc}
    6ca8:	2a00      	cmp	r2, #0
    6caa:	d103      	bne.n	6cb4 <_realloc_r+0x24>
    6cac:	f7ff f8e2 	bl	5e74 <_free_r>
    6cb0:	0034      	movs	r4, r6
    6cb2:	e7f7      	b.n	6ca4 <_realloc_r+0x14>
    6cb4:	f000 f826 	bl	6d04 <_malloc_usable_size_r>
    6cb8:	002c      	movs	r4, r5
    6cba:	4286      	cmp	r6, r0
    6cbc:	d9f2      	bls.n	6ca4 <_realloc_r+0x14>
    6cbe:	0031      	movs	r1, r6
    6cc0:	0038      	movs	r0, r7
    6cc2:	f7ff f921 	bl	5f08 <_malloc_r>
    6cc6:	1e04      	subs	r4, r0, #0
    6cc8:	d0ec      	beq.n	6ca4 <_realloc_r+0x14>
    6cca:	0029      	movs	r1, r5
    6ccc:	0032      	movs	r2, r6
    6cce:	f7ff ffc4 	bl	6c5a <memcpy>
    6cd2:	0029      	movs	r1, r5
    6cd4:	0038      	movs	r0, r7
    6cd6:	f7ff f8cd 	bl	5e74 <_free_r>
    6cda:	e7e3      	b.n	6ca4 <_realloc_r+0x14>

00006cdc <_read_r>:
    6cdc:	b570      	push	{r4, r5, r6, lr}
    6cde:	0005      	movs	r5, r0
    6ce0:	0008      	movs	r0, r1
    6ce2:	0011      	movs	r1, r2
    6ce4:	2200      	movs	r2, #0
    6ce6:	4c06      	ldr	r4, [pc, #24]	; (6d00 <_read_r+0x24>)
    6ce8:	6022      	str	r2, [r4, #0]
    6cea:	001a      	movs	r2, r3
    6cec:	f7fc fd7a 	bl	37e4 <_read>
    6cf0:	1c43      	adds	r3, r0, #1
    6cf2:	d103      	bne.n	6cfc <_read_r+0x20>
    6cf4:	6823      	ldr	r3, [r4, #0]
    6cf6:	2b00      	cmp	r3, #0
    6cf8:	d000      	beq.n	6cfc <_read_r+0x20>
    6cfa:	602b      	str	r3, [r5, #0]
    6cfc:	bd70      	pop	{r4, r5, r6, pc}
    6cfe:	46c0      	nop			; (mov r8, r8)
    6d00:	20000cd4 	.word	0x20000cd4

00006d04 <_malloc_usable_size_r>:
    6d04:	1f0b      	subs	r3, r1, #4
    6d06:	681b      	ldr	r3, [r3, #0]
    6d08:	1f18      	subs	r0, r3, #4
    6d0a:	2b00      	cmp	r3, #0
    6d0c:	da01      	bge.n	6d12 <_malloc_usable_size_r+0xe>
    6d0e:	580b      	ldr	r3, [r1, r0]
    6d10:	18c0      	adds	r0, r0, r3
    6d12:	4770      	bx	lr
    6d14:	0000037c 	.word	0x0000037c
    6d18:	0000037c 	.word	0x0000037c
    6d1c:	00000358 	.word	0x00000358
    6d20:	0000037c 	.word	0x0000037c
    6d24:	00000358 	.word	0x00000358
    6d28:	0000033e 	.word	0x0000033e
    6d2c:	0000033e 	.word	0x0000033e
    6d30:	0000037c 	.word	0x0000037c
    6d34:	0000037c 	.word	0x0000037c
    6d38:	0000037c 	.word	0x0000037c
    6d3c:	0000037c 	.word	0x0000037c
    6d40:	0000037c 	.word	0x0000037c
    6d44:	0000037c 	.word	0x0000037c
    6d48:	0000037c 	.word	0x0000037c
    6d4c:	0000037c 	.word	0x0000037c
    6d50:	0000037c 	.word	0x0000037c
    6d54:	0000037c 	.word	0x0000037c
    6d58:	0000037c 	.word	0x0000037c
    6d5c:	0000037c 	.word	0x0000037c
    6d60:	0000037c 	.word	0x0000037c
    6d64:	0000037c 	.word	0x0000037c
    6d68:	0000037c 	.word	0x0000037c
    6d6c:	0000037c 	.word	0x0000037c
    6d70:	0000037c 	.word	0x0000037c
    6d74:	0000037c 	.word	0x0000037c
    6d78:	0000037c 	.word	0x0000037c
    6d7c:	0000037c 	.word	0x0000037c
    6d80:	0000037c 	.word	0x0000037c
    6d84:	0000037c 	.word	0x0000037c
    6d88:	0000037c 	.word	0x0000037c
    6d8c:	0000037c 	.word	0x0000037c
    6d90:	0000037c 	.word	0x0000037c
    6d94:	0000037c 	.word	0x0000037c
    6d98:	0000037c 	.word	0x0000037c
    6d9c:	0000037c 	.word	0x0000037c
    6da0:	0000037c 	.word	0x0000037c
    6da4:	0000037c 	.word	0x0000037c
    6da8:	0000037c 	.word	0x0000037c
    6dac:	0000037c 	.word	0x0000037c
    6db0:	0000037c 	.word	0x0000037c
    6db4:	0000037c 	.word	0x0000037c
    6db8:	0000037c 	.word	0x0000037c
    6dbc:	0000037c 	.word	0x0000037c
    6dc0:	0000037c 	.word	0x0000037c
    6dc4:	0000037c 	.word	0x0000037c
    6dc8:	0000037c 	.word	0x0000037c
    6dcc:	0000037c 	.word	0x0000037c
    6dd0:	0000037c 	.word	0x0000037c
    6dd4:	0000037c 	.word	0x0000037c
    6dd8:	0000037c 	.word	0x0000037c
    6ddc:	0000037c 	.word	0x0000037c
    6de0:	0000037c 	.word	0x0000037c
    6de4:	0000037c 	.word	0x0000037c
    6de8:	0000037c 	.word	0x0000037c
    6dec:	0000037c 	.word	0x0000037c
    6df0:	0000037c 	.word	0x0000037c
    6df4:	0000037c 	.word	0x0000037c
    6df8:	0000037c 	.word	0x0000037c
    6dfc:	0000037c 	.word	0x0000037c
    6e00:	0000037c 	.word	0x0000037c
    6e04:	0000037c 	.word	0x0000037c
    6e08:	0000037c 	.word	0x0000037c
    6e0c:	0000037c 	.word	0x0000037c
    6e10:	0000037c 	.word	0x0000037c
    6e14:	00000358 	.word	0x00000358
    6e18:	00000358 	.word	0x00000358
    6e1c:	00000360 	.word	0x00000360
    6e20:	00000360 	.word	0x00000360
    6e24:	00000360 	.word	0x00000360
    6e28:	00000360 	.word	0x00000360

00006e2c <mmc_trans_multipliers>:
    6e2c:	00000000 0000000a 0000000c 0000000d     ................
    6e3c:	0000000f 00000014 0000001a 0000001e     ................
    6e4c:	00000023 00000028 0000002d 00000034     #...(...-...4...
    6e5c:	00000037 0000003c 00000046 00000050     7...<...F...P...

00006e6c <sd_mmc_trans_units>:
    6e6c:	0000000a 00000064 000003e8 00002710     ....d........'..
	...

00006e88 <sd_trans_multipliers>:
    6e88:	00000000 0000000a 0000000c 0000000d     ................
    6e98:	0000000f 00000014 00000019 0000001e     ................
    6ea8:	00000023 00000028 0000002d 00000032     #...(...-...2...
    6eb8:	00000037 0000003c 00000046 00000050     7...<...F...P...
    6ec8:	42000800 42000c00 42001000 42001400     ...B...B...B...B
    6ed8:	42001800 42001c00 00002f7a 00002f76     ...B...Bz/..v/..
    6ee8:	00002f76 00002fdc 00002fdc 00002f8e     v/.../.../.../..
    6ef8:	00002f80 00002f94 00002fca 0000319c     ./.../.../...1..
    6f08:	0000317c 0000317c 00003208 0000318e     |1..|1...2...1..
    6f18:	000031aa 00003180 000031b8 000031f8     .1...1...1...1..

00006f28 <LfnOfs>:
    6f28:	07050301 12100e09 1c181614 0000001e     ................

00006f38 <excvt.4558>:
    6f38:	b6909a80 808fb78e d8d4d3d2 8f8eded7     ................
    6f48:	e2929290 ebeae399 9d9a9959 9f9e9d9c     ........Y.......
    6f58:	e9e0d6b5 a7a6a5a5 abaaa9a8 afae21ac     .............!..
    6f68:	b3b2b1b0 b7b6b5b4 bbbab9b8 bfbebdbc     ................
    6f78:	c3c2c1c0 c7c7c5c4 cbcac9c8 cfcecdcc     ................
    6f88:	d3d2d1d0 d7d6d5d4 dbdad9d8 dfdedddc     ................
    6f98:	e3e2e1e0 e7e6e5e5 ebeae9e7 efeeeded     ................
    6fa8:	f3f2f1f0 f7f6f5f4 fbfaf9f8 fffefdfc     ................
    6fb8:	3c3a2a22 7f7c3f3e 00000000 3d3b2c2b     "*:<>?|.....+,;=
    6fc8:	00005d5b                                []..

00006fcc <Tbl>:
    6fcc:	00fc00c7 00e200e9 00e000e4 00e700e5     ................
    6fdc:	00eb00ea 00ef00e8 00ec00ee 00c500c4     ................
    6fec:	00e600c9 00f400c6 00f200f6 00f900fb     ................
    6ffc:	00d600ff 00f800dc 00d800a3 019200d7     ................
    700c:	00ed00e1 00fa00f3 00d100f1 00ba00aa     ................
    701c:	00ae00bf 00bd00ac 00a100bc 00bb00ab     ................
    702c:	25922591 25022593 00c12524 00c000c2     .%.%.%.%$%......
    703c:	256300a9 25572551 00a2255d 251000a5     ..c%Q%W%]%.....%
    704c:	25342514 251c252c 253c2500 00c300e3     .%4%,%.%.%<%....
    705c:	2554255a 25662569 25502560 00a4256c     Z%T%i%f%`%P%l%..
    706c:	00d000f0 00cb00ca 013100c8 00ce00cd     ..........1.....
    707c:	251800cf 2588250c 00a62584 258000cc     ...%.%.%.%.....%
    708c:	00df00d3 00d200d4 00d500f5 00fe00b5     ................
    709c:	00da00de 00d900db 00dd00fd 00b400af     ................
    70ac:	00b100ad 00be2017 00a700b6 00b800f7     ..... ..........
    70bc:	00a800b0 00b900b7 00b200b3 00a025a0     .............%..

000070cc <tbl_lower.4308>:
    70cc:	00620061 00640063 00660065 00680067     a.b.c.d.e.f.g.h.
    70dc:	006a0069 006c006b 006e006d 0070006f     i.j.k.l.m.n.o.p.
    70ec:	00720071 00740073 00760075 00780077     q.r.s.t.u.v.w.x.
    70fc:	007a0079 00a200a1 00a500a3 00af00ac     y.z.............
    710c:	00e100e0 00e300e2 00e500e4 00e700e6     ................
    711c:	00e900e8 00eb00ea 00ed00ec 00ef00ee     ................
    712c:	00f100f0 00f300f2 00f500f4 00f800f6     ................
    713c:	00fa00f9 00fc00fb 00fe00fd 010100ff     ................
    714c:	01050103 01090107 010d010b 0111010f     ................
    715c:	01150113 01190117 011d011b 0121011f     ..............!.
    716c:	01250123 01290127 012d012b 0131012f     #.%.'.).+.-./.1.
    717c:	01350133 013a0137 013e013c 01420140     3.5.7.:.<.>.@.B.
    718c:	01460144 014b0148 014f014d 01530151     D.F.H.K.M.O.Q.S.
    719c:	01570155 015b0159 015f015d 01630161     U.W.Y.[.]._.a.c.
    71ac:	01670165 016b0169 016f016d 01730171     e.g.i.k.m.o.q.s.
    71bc:	01770175 017c017a 0192017e 03b203b1     u.w.z.|.~.......
    71cc:	03b403b3 03b603b5 03b803b7 03ba03b9     ................
    71dc:	03bc03bb 03be03bd 03c003bf 03c303c1     ................
    71ec:	03c503c4 03c703c6 03c903c8 043003ca     ..............0.
    71fc:	04320431 04340433 04360435 04380437     1.2.3.4.5.6.7.8.
    720c:	043a0439 043c043b 043e043d 0440043f     9.:.;.<.=.>.?.@.
    721c:	04420441 04440443 04460445 04480447     A.B.C.D.E.F.G.H.
    722c:	044a0449 044c044b 044e044d 0451044f     I.J.K.L.M.N.O.Q.
    723c:	04530452 04550454 04570456 04590458     R.S.T.U.V.W.X.Y.
    724c:	045b045a 045e045c 2170045f 21722171     Z.[.\.^._.p!q!r!
    725c:	21742173 21762175 21782177 217a2179     s!t!u!v!w!x!y!z!
    726c:	217c217b 217e217d ff41217f ff43ff42     {!|!}!~!.!A.B.C.
    727c:	ff45ff44 ff47ff46 ff49ff48 ff4bff4a     D.E.F.G.H.I.J.K.
    728c:	ff4dff4c ff4fff4e ff51ff50 ff53ff52     L.M.N.O.P.Q.R.S.
    729c:	ff55ff54 ff57ff56 ff59ff58 0000ff5a     T.U.V.W.X.Y.Z...

000072ac <tbl_upper.4309>:
    72ac:	00420041 00440043 00460045 00480047     A.B.C.D.E.F.G.H.
    72bc:	004a0049 004c004b 004e004d 0050004f     I.J.K.L.M.N.O.P.
    72cc:	00520051 00540053 00560055 00580057     Q.R.S.T.U.V.W.X.
    72dc:	005a0059 ffe00021 ffe5ffe1 ffe3ffe2     Y.Z.!...........
    72ec:	00c100c0 00c300c2 00c500c4 00c700c6     ................
    72fc:	00c900c8 00cb00ca 00cd00cc 00cf00ce     ................
    730c:	00d100d0 00d300d2 00d500d4 00d800d6     ................
    731c:	00da00d9 00dc00db 00de00dd 01000178     ............x...
    732c:	01040102 01080106 010c010a 0110010e     ................
    733c:	01140112 01180116 011c011a 0120011e     .............. .
    734c:	01240122 01280126 012c012a 0130012e     ".$.&.(.*.,...0.
    735c:	01340132 01390136 013d013b 0141013f     2.4.6.9.;.=.?.A.
    736c:	01450143 014a0147 014e014c 01520150     C.E.G.J.L.N.P.R.
    737c:	01560154 015a0158 015e015c 01620160     T.V.X.Z.\.^.`.b.
    738c:	01660164 016a0168 016e016c 01720170     d.f.h.j.l.n.p.r.
    739c:	01760174 017b0179 0191017d 03920391     t.v.y.{.}.......
    73ac:	03940393 03960395 03980397 039a0399     ................
    73bc:	039c039b 039e039d 03a0039f 03a303a1     ................
    73cc:	03a503a4 03a703a6 03a903a8 041003aa     ................
    73dc:	04120411 04140413 04160415 04180417     ................
    73ec:	041a0419 041c041b 041e041d 0420041f     .............. .
    73fc:	04220421 04240423 04260425 04280427     !.".#.$.%.&.'.(.
    740c:	042a0429 042c042b 042e042d 0401042f     ).*.+.,.-.../...
    741c:	04030402 04050404 04070406 04090408     ................
    742c:	040b040a 040e040c 2160040f 21622161     ..........`!a!b!
    743c:	21642163 21662165 21682167 216a2169     c!d!e!f!g!h!i!j!
    744c:	216c216b 216e216d ff21216f ff23ff22     k!l!m!n!o!!.".#.
    745c:	ff25ff24 ff27ff26 ff29ff28 ff2bff2a     $.%.&.'.(.).*.+.
    746c:	ff2dff2c ff2fff2e ff31ff30 ff33ff32     ,.-.../.0.1.2.3.
    747c:	ff35ff34 ff37ff36 ff39ff38 0000ff3a     4.5.6.7.8.9.:...
    748c:	35455345 2d203631 544e4520 42205245     ESE516 - ENTER B
    749c:	4c544f4f 4544414f 00000052 2d0d0a0c     OOTLOADER......-
    74ac:	4453202d 434d4d2f 72614320 78452064     - SD/MMC Card Ex
    74bc:	6c706d61 6e6f2065 74614620 2d207346     ample on FatFs -
    74cc:	000d0a2d 43204453 20647261 74696e69     -...SD Card init
    74dc:	65746169 6f632064 63657272 21796c74     iated correctly!
    74ec:	00000d0a 6e756f4d 69642074 28206b73     ....Mount disk (
    74fc:	6f6d5f66 29746e75 0d2e2e2e 0000000a     f_mount)........
    750c:	4941465b 72205d4c 25207365 000a0d64     [FAIL] res %d...
    751c:	5d4b4f5b 00000a0d 61657243 61206574     [OK]....Create a
    752c:	6c696620 66282065 65706f5f 2e2e296e      file (f_open)..
    753c:	000a0d2e 74697257 6f742065 73657420     ....Write to tes
    754c:	69662074 2820656c 75705f66 2e297374     t file (f_puts).
    755c:	0a0d2e2e 00000000 74736554 2f445320     ........Test SD/
    756c:	20434d4d 63617473 00000a6b 4941465b     MMC stack...[FAI
    757c:	0a0d5d4c 00000000 74736554 20736920     L]......Test is 
    758c:	63637573 66737365 0a2e6c75 0000000d     successful......
    759c:	6c756f43 6f6e2064 706f2074 62206e65     Could not open b
    75ac:	72616e69 69662079 0d21656c 0000000a     inary file!.....
    75bc:	74697257 6f742065 73657420 69662074     Write to test fi
    75cc:	2820656c 72775f66 29657469 0d2e2e2e     le (f_write)....
    75dc:	0000000a 20646e45 5420666f 2e747365     ....End of Test.
    75ec:	00000d0a 43204453 20445241 6e756f6d     ....SD CARD moun
    75fc:	75732074 73656363 46202173 73656c69     t success! Files
    760c:	65747379 6c61206d 6d206f73 746e756f     ystem also mount
    761c:	202e6465 00000a0d 204d564e 6f666e49     ed. ....NVM Info
    762c:	754e203a 7265626d 20666f20 65676150     : Number of Page
    763c:	64252073 6953202e 6f20657a 20612066     s %d. Size of a 
    764c:	65676170 6425203a 74796220 202e7365     page: %d bytes. 
    765c:	00000a0d 43204453 20647261 6c696166     ....SD Card fail
    766c:	69206465 6974696e 6f697461 4320216e     ed initiation! C
    767c:	6b636568 6e6f6320 7463656e 736e6f69     heck connections
    768c:	000d0a21 43204453 20445241 6c696166     !...SD CARD fail
    769c:	20216465 63656843 6f79206b 63207275     ed! Check your c
    76ac:	656e6e6f 6f697463 202e736e 74737953     onnections. Syst
    76bc:	77206d65 206c6c69 74736572 20747261     em will restart 
    76cc:	35206e69 63657320 73646e6f 002e2e2e     in 5 seconds....
    76dc:	73617245 72652065 00726f72 6f727245     Erase error.Erro
    76ec:	202d2072 74736574 67617020 73692065     r - test page is
    76fc:	746f6e20 61726520 21646573 00000000      not erased!....
    770c:	6c6c6568 6261206f 2074756f 64206f74     hello about to d
    771c:	7369206f 6b736154 0a0d2041 00000000     o isTaskA ......
    772c:	67616c66 78742e41 73692074 206e6920     flagA.txt is in 
    773c:	63204453 2c647261 20657720 20657261     SD card, we are 
    774c:	6e696f64 65742067 0d417473 0000000a     doing testA.....
    775c:	67616c66 78742e41 73692074 746f6e20     flagA.txt is not
    776c:	206e6920 63204453 2c647261 20657720      in SD card, we 
    777c:	20657261 6e696f64 65742067 0d427473     are doing testB.
    778c:	0000000a 6b736154 69422041 7369206e     ....TaskA Bin is
    779c:	756f6620 6120646e 6f20646e 656e6570      found and opene
    77ac:	000a0d64 6b736154 69422042 7369206e     d...TaskB Bin is
    77bc:	756f6620 6120646e 6f20646e 656e6570      found and opene
    77cc:	000a0d64 6c756f43 6f6e2064 706f2074     d...Could not op
    77dc:	74206e65 20747365 656c6966 000a0d21     en test file!...
    77ec:	696e6966 64656873 706f6620 0a0d6e65     finished fopen..
    77fc:	00000000 74736554 69727720 74206574     ....Test write t
    780c:	564e206f 6166204d 64656c69 000a0d21     o NVM failed!...
    781c:	74736554 69727720 74206574 564e206f     Test write to NV
    782c:	7573204d 65656363 21646564 00000a0d     M succeeded!....
    783c:	6c756f43 6f6e2064 61632074 6c75636c     Could not calcul
    784c:	20657461 21435243 000a0d21 20435243     ate CRC!!...CRC 
    785c:	43204453 3a445241 20642520 43524320     SD CARD: %d  CRC
    786c:	4d564e20 6425203a 000a0d20 35455345      NVM: %d ...ESE5
    787c:	2d203631 49584520 4f422054 4f4c544f     16 - EXIT BOOTLO
    788c:	52454441 00000a0d                       ADER....

00007894 <_global_impure_ptr>:
    7894:	20000058                                X.. 

00007898 <__sf_fake_stderr>:
	...

000078b8 <__sf_fake_stdin>:
	...

000078d8 <__sf_fake_stdout>:
	...
    78f8:	2b302d23 6c680020 6665004c 47464567     #-0+ .hlL.efgEFG
    7908:	32313000 36353433 41393837 45444342     .0123456789ABCDE
    7918:	31300046 35343332 39383736 64636261     F.0123456789abcd
    7928:	00006665                                ef..

0000792c <_init>:
    792c:	b5f8      	push	{r3, r4, r5, r6, r7, lr}
    792e:	46c0      	nop			; (mov r8, r8)
    7930:	bcf8      	pop	{r3, r4, r5, r6, r7}
    7932:	bc08      	pop	{r3}
    7934:	469e      	mov	lr, r3
    7936:	4770      	bx	lr

00007938 <__init_array_start>:
    7938:	000000dd 	.word	0x000000dd

0000793c <_fini>:
    793c:	b5f8      	push	{r3, r4, r5, r6, r7, lr}
    793e:	46c0      	nop			; (mov r8, r8)
    7940:	bcf8      	pop	{r3, r4, r5, r6, r7}
    7942:	bc08      	pop	{r3}
    7944:	469e      	mov	lr, r3
    7946:	4770      	bx	lr

00007948 <__fini_array_start>:
    7948:	000000b5 	.word	0x000000b5
