
ESE516 MAIN FW.elf:     file format elf32-littlearm

Sections:
Idx Name          Size      VMA       LMA       File off  Algn
  0 .text         0000ac00  00000000  00000000  00010000  2**4
                  CONTENTS, ALLOC, LOAD, READONLY, CODE
  1 .relocate     00000200  20000000  0000ac00  00020000  2**2
                  CONTENTS, ALLOC, LOAD, DATA
  2 .bss          00004d44  20000200  0000ae00  00020200  2**2
                  ALLOC
  3 .stack        00002004  20004f44  0000fb44  00020200  2**0
                  ALLOC
  4 .ARM.attributes 00000028  00000000  00000000  00020200  2**0
                  CONTENTS, READONLY
  5 .comment      00000059  00000000  00000000  00020228  2**0
                  CONTENTS, READONLY
  6 .debug_info   0006d4dc  00000000  00000000  00020281  2**0
                  CONTENTS, READONLY, DEBUGGING
  7 .debug_abbrev 0000892b  00000000  00000000  0008d75d  2**0
                  CONTENTS, READONLY, DEBUGGING
  8 .debug_loc    000233c4  00000000  00000000  00096088  2**0
                  CONTENTS, READONLY, DEBUGGING
  9 .debug_aranges 00001b10  00000000  00000000  000b944c  2**0
                  CONTENTS, READONLY, DEBUGGING
 10 .debug_ranges 00001ef0  00000000  00000000  000baf5c  2**0
                  CONTENTS, READONLY, DEBUGGING
 11 .debug_macro  00012e58  00000000  00000000  000bce4c  2**0
                  CONTENTS, READONLY, DEBUGGING
 12 .debug_line   000236dd  00000000  00000000  000cfca4  2**0
                  CONTENTS, READONLY, DEBUGGING
 13 .debug_str    000ae005  00000000  00000000  000f3381  2**0
                  CONTENTS, READONLY, DEBUGGING
 14 .debug_frame  00005b4c  00000000  00000000  001a1388  2**2
                  CONTENTS, READONLY, DEBUGGING

Disassembly of section .text:

00000000 <exception_table>:
 * \note This will not change setting in user's configuration structure.
 *
 * \param[in, out] module  Pointer to the software instance struct
 */
void rtc_calendar_swap_time_mode(struct rtc_module *const module)
{
       0:	48 6f 00 20 bd 6b 00 00 a1 6b 00 00 a1 6b 00 00     Ho. .k...k...k..
	...
		/* Set pm flag. */
		time.pm = (uint8_t)(time.hour / 12);

		/* Set 12h clock hour value. */
		time.hour = time.hour % 12;
		if (time.hour == 0) {
      2c:	f5 2d 00 00 00 00 00 00 00 00 00 00 d1 2e 00 00     .-..............
			time.hour = 12;
		}

		/* Update alarms */
		for (uint8_t i = 0; i < RTC_NUM_OF_ALARMS; i++) {
			rtc_calendar_get_alarm(module, &alarm, (enum rtc_calendar_alarm)i);
      3c:	15 2f 00 00 a1 6b 00 00 a1 6b 00 00 a1 6b 00 00     ./...k...k...k..
			alarm.time.pm = (uint8_t)(alarm.time.hour / 12);
			alarm.time.hour = alarm.time.hour % 12;
      4c:	71 59 00 00 75 58 00 00 a1 6b 00 00 a1 6b 00 00     qY..uX...k...k..
			time.hour = 12;
      5c:	a1 6b 00 00 a1 6b 00 00 99 5d 00 00 a9 5d 00 00     .k...k...]...]..
			if (alarm.time.hour == 0) {
				alarm.time.hour = 12;
			}
			module->clock_24h = false;
      6c:	b9 5d 00 00 c9 5d 00 00 d9 5d 00 00 e9 5d 00 00     .]...]...]...]..
		/* Change value in configuration structure. */
		module->clock_24h = true;
	}

	/* Disable RTC so new configuration can be set. */
	rtc_calendar_disable(module);
      7c:	71 6b 00 00 81 6b 00 00 91 6b 00 00 31 1a 00 00     qk...k...k..1...

	/* Toggle mode. */
	rtc_module->MODE2.CTRL.reg ^= RTC_MODE2_CTRL_CLKREP;

	/* Enable RTC. */
	rtc_calendar_enable(module);
      8c:	41 1a 00 00 51 1a 00 00 00 00 00 00 00 00 00 00     A...Q...........
		if (time.pm == 1) {
      9c:	a1 6b 00 00 a1 6b 00 00 a1 6b 00 00 a1 6b 00 00     .k...k...k...k..
			time.pm = 0;
      ac:	a1 6b 00 00 00 00 00 00                             .k......

000000b4 <__do_global_dtors_aux>:
			rtc_calendar_get_alarm(module, &alarm, (enum rtc_calendar_alarm)i);
      b4:	b510      	push	{r4, lr}
      b6:	4c06      	ldr	r4, [pc, #24]	; (d0 <__do_global_dtors_aux+0x1c>)
      b8:	7823      	ldrb	r3, [r4, #0]
			if (alarm.time.pm == 1) {
      ba:	2b00      	cmp	r3, #0
      bc:	d107      	bne.n	ce <__do_global_dtors_aux+0x1a>
      be:	4b05      	ldr	r3, [pc, #20]	; (d4 <__do_global_dtors_aux+0x20>)
			} else if (alarm.time.hour == 12) {
      c0:	2b00      	cmp	r3, #0
      c2:	d002      	beq.n	ca <__do_global_dtors_aux+0x16>
      c4:	4804      	ldr	r0, [pc, #16]	; (d8 <__do_global_dtors_aux+0x24>)
      c6:	e000      	b.n	ca <__do_global_dtors_aux+0x16>
		module->clock_24h = true;
      c8:	bf00      	nop
      ca:	2301      	movs	r3, #1
      cc:	7023      	strb	r3, [r4, #0]
		} else if (time.hour == 12) {
      ce:	bd10      	pop	{r4, pc}
      d0:	20000200 	.word	0x20000200
      d4:	00000000 	.word	0x00000000
			time.hour = 0;
      d8:	0000ac00 	.word	0x0000ac00

000000dc <frame_dummy>:
      dc:	4b08      	ldr	r3, [pc, #32]	; (100 <frame_dummy+0x24>)
				alarm.time.hour = alarm.time.hour + 12;
      de:	b510      	push	{r4, lr}
      e0:	2b00      	cmp	r3, #0
      e2:	d003      	beq.n	ec <frame_dummy+0x10>
      e4:	4907      	ldr	r1, [pc, #28]	; (104 <frame_dummy+0x28>)
				alarm.time.pm = 0;
      e6:	4808      	ldr	r0, [pc, #32]	; (108 <frame_dummy+0x2c>)
      e8:	e000      	b.n	ec <frame_dummy+0x10>
				module->clock_24h = true;
      ea:	bf00      	nop
      ec:	4807      	ldr	r0, [pc, #28]	; (10c <frame_dummy+0x30>)
				rtc_calendar_set_alarm(module, &alarm, (enum rtc_calendar_alarm)i);
      ee:	6803      	ldr	r3, [r0, #0]
      f0:	2b00      	cmp	r3, #0
      f2:	d100      	bne.n	f6 <frame_dummy+0x1a>
      f4:	bd10      	pop	{r4, pc}
      f6:	4b06      	ldr	r3, [pc, #24]	; (110 <frame_dummy+0x34>)
				alarm.time.hour = 0;
      f8:	2b00      	cmp	r3, #0
      fa:	d0fb      	beq.n	f4 <frame_dummy+0x18>
      fc:	4798      	blx	r3
      fe:	e7f9      	b.n	f4 <frame_dummy+0x18>
     100:	00000000 	.word	0x00000000
     104:	20000204 	.word	0x20000204
     108:	0000ac00 	.word	0x0000ac00
     10c:	0000ac00 	.word	0x0000ac00
     110:	00000000 	.word	0x00000000

00000114 <_i2c_master_wait_for_sync>:
{
	/* Sanity check */
	Assert(module);
	Assert(module->hw);

	SercomI2cm *const i2c_hw = &(module->hw->I2CM);
     114:	6801      	ldr	r1, [r0, #0]

#if defined(FEATURE_SERCOM_SYNCBUSY_SCHEME_VERSION_1)
	return (i2c_hw->STATUS.reg & SERCOM_I2CM_STATUS_SYNCBUSY);
#elif defined(FEATURE_SERCOM_SYNCBUSY_SCHEME_VERSION_2)
	return (i2c_hw->SYNCBUSY.reg & SERCOM_I2CM_SYNCBUSY_MASK);
     116:	2207      	movs	r2, #7
     118:	69cb      	ldr	r3, [r1, #28]
		const struct i2c_master_module *const module)
{
	/* Sanity check */
	Assert(module);

	while (i2c_master_is_syncing(module)) {
     11a:	421a      	tst	r2, r3
     11c:	d1fc      	bne.n	118 <_i2c_master_wait_for_sync+0x4>
		/* Wait for I2C module to sync. */
	}
}
     11e:	4770      	bx	lr

00000120 <_i2c_master_read>:
 *
 * \param[in,out] module  Pointer to software module structure
 */
static void _i2c_master_read(
		struct i2c_master_module *const module)
{
     120:	b570      	push	{r4, r5, r6, lr}
     122:	0004      	movs	r4, r0
	/* Sanity check arguments. */
	Assert(module);
	Assert(module->hw);

	SercomI2cm *const i2c_module = &(module->hw->I2CM);
     124:	6806      	ldr	r6, [r0, #0]
	bool sclsm_flag = i2c_module->CTRLA.bit.SCLSM;
     126:	6832      	ldr	r2, [r6, #0]

	/* Find index to save next value in buffer */
	uint16_t buffer_index = module->buffer_length;
     128:	8b45      	ldrh	r5, [r0, #26]
	buffer_index -= module->buffer_remaining;
     12a:	8b83      	ldrh	r3, [r0, #28]
     12c:	1aed      	subs	r5, r5, r3
     12e:	b2ad      	uxth	r5, r5

	module->buffer_remaining--;
     130:	8b83      	ldrh	r3, [r0, #28]
     132:	3b01      	subs	r3, #1
     134:	b29b      	uxth	r3, r3
     136:	8383      	strh	r3, [r0, #28]

	if (sclsm_flag) {
     138:	0113      	lsls	r3, r2, #4
     13a:	d51d      	bpl.n	178 <_i2c_master_read+0x58>
		if (module->send_nack && module->buffer_remaining == 1) {
     13c:	7ac3      	ldrb	r3, [r0, #11]
     13e:	2b00      	cmp	r3, #0
     140:	d003      	beq.n	14a <_i2c_master_read+0x2a>
     142:	8b83      	ldrh	r3, [r0, #28]
     144:	b29b      	uxth	r3, r3
     146:	2b01      	cmp	r3, #1
     148:	d010      	beq.n	16c <_i2c_master_read+0x4c>
			/* Set action to NACK. */
			i2c_module->CTRLB.reg |= SERCOM_I2CM_CTRLB_ACKACT;
		}
	}

	if (module->buffer_remaining == 0) {
     14a:	8ba3      	ldrh	r3, [r4, #28]
     14c:	b29b      	uxth	r3, r3
     14e:	2b00      	cmp	r3, #0
     150:	d102      	bne.n	158 <_i2c_master_read+0x38>
		if (module->send_stop) {
     152:	7aa3      	ldrb	r3, [r4, #10]
     154:	2b00      	cmp	r3, #0
     156:	d11c      	bne.n	192 <_i2c_master_read+0x72>
			i2c_module->CTRLB.reg |= SERCOM_I2CM_CTRLB_CMD(3);
		}
	}
	
	/* Read byte from slave and put in buffer */
	_i2c_master_wait_for_sync(module);
     158:	0020      	movs	r0, r4
     15a:	4b12      	ldr	r3, [pc, #72]	; (1a4 <_i2c_master_read+0x84>)
     15c:	4798      	blx	r3
	module->buffer[buffer_index] = i2c_module->DATA.reg;
     15e:	6a23      	ldr	r3, [r4, #32]
     160:	195d      	adds	r5, r3, r5
     162:	2328      	movs	r3, #40	; 0x28
     164:	5cf3      	ldrb	r3, [r6, r3]
     166:	b2db      	uxtb	r3, r3
     168:	702b      	strb	r3, [r5, #0]
}
     16a:	bd70      	pop	{r4, r5, r6, pc}
			i2c_module->CTRLB.reg |= SERCOM_I2CM_CTRLB_ACKACT;
     16c:	6872      	ldr	r2, [r6, #4]
     16e:	2380      	movs	r3, #128	; 0x80
     170:	02db      	lsls	r3, r3, #11
     172:	4313      	orrs	r3, r2
     174:	6073      	str	r3, [r6, #4]
     176:	e7e8      	b.n	14a <_i2c_master_read+0x2a>
		if (module->send_nack && module->buffer_remaining == 0) {
     178:	7ac3      	ldrb	r3, [r0, #11]
     17a:	2b00      	cmp	r3, #0
     17c:	d0e5      	beq.n	14a <_i2c_master_read+0x2a>
     17e:	8b83      	ldrh	r3, [r0, #28]
     180:	b29b      	uxth	r3, r3
     182:	2b00      	cmp	r3, #0
     184:	d1e1      	bne.n	14a <_i2c_master_read+0x2a>
			i2c_module->CTRLB.reg |= SERCOM_I2CM_CTRLB_ACKACT;
     186:	6872      	ldr	r2, [r6, #4]
     188:	2380      	movs	r3, #128	; 0x80
     18a:	02db      	lsls	r3, r3, #11
     18c:	4313      	orrs	r3, r2
     18e:	6073      	str	r3, [r6, #4]
     190:	e7db      	b.n	14a <_i2c_master_read+0x2a>
			_i2c_master_wait_for_sync(module);
     192:	0020      	movs	r0, r4
     194:	4b03      	ldr	r3, [pc, #12]	; (1a4 <_i2c_master_read+0x84>)
     196:	4798      	blx	r3
			i2c_module->CTRLB.reg |= SERCOM_I2CM_CTRLB_CMD(3);
     198:	6872      	ldr	r2, [r6, #4]
     19a:	23c0      	movs	r3, #192	; 0xc0
     19c:	029b      	lsls	r3, r3, #10
     19e:	4313      	orrs	r3, r2
     1a0:	6073      	str	r3, [r6, #4]
     1a2:	e7d9      	b.n	158 <_i2c_master_read+0x38>
     1a4:	00000115 	.word	0x00000115

000001a8 <_i2c_master_write>:
 * Write next data. Used by interrupt handler to send next data byte to slave.
 *
 * \param[in,out] module  Pointer to software module structure
 */
static void _i2c_master_write(struct i2c_master_module *const module)
{
     1a8:	b570      	push	{r4, r5, r6, lr}
     1aa:	0004      	movs	r4, r0
	/* Sanity check arguments. */
	Assert(module);
	Assert(module->hw);

	SercomI2cm *const i2c_module = &(module->hw->I2CM);
     1ac:	6805      	ldr	r5, [r0, #0]

	/* Check for ack from slave */
	if (i2c_module->STATUS.reg & SERCOM_I2CM_STATUS_RXNACK)
     1ae:	8b6b      	ldrh	r3, [r5, #26]
     1b0:	075b      	lsls	r3, r3, #29
     1b2:	d503      	bpl.n	1bc <_i2c_master_write+0x14>
	{
		/* Set status */
		module->status = STATUS_ERR_OVERFLOW;
     1b4:	221e      	movs	r2, #30
     1b6:	2325      	movs	r3, #37	; 0x25
     1b8:	54c2      	strb	r2, [r0, r3]
	module->buffer_remaining--;

	/* Write byte from buffer to slave */
	_i2c_master_wait_for_sync(module);
	i2c_module->DATA.reg = module->buffer[buffer_index];
}
     1ba:	bd70      	pop	{r4, r5, r6, pc}
	uint16_t buffer_index = module->buffer_length;
     1bc:	8b46      	ldrh	r6, [r0, #26]
	buffer_index -= module->buffer_remaining;
     1be:	8b83      	ldrh	r3, [r0, #28]
     1c0:	1af6      	subs	r6, r6, r3
     1c2:	b2b6      	uxth	r6, r6
	module->buffer_remaining--;
     1c4:	8b83      	ldrh	r3, [r0, #28]
     1c6:	3b01      	subs	r3, #1
     1c8:	b29b      	uxth	r3, r3
     1ca:	8383      	strh	r3, [r0, #28]
	_i2c_master_wait_for_sync(module);
     1cc:	4b04      	ldr	r3, [pc, #16]	; (1e0 <_i2c_master_write+0x38>)
     1ce:	4798      	blx	r3
	i2c_module->DATA.reg = module->buffer[buffer_index];
     1d0:	6a23      	ldr	r3, [r4, #32]
     1d2:	199e      	adds	r6, r3, r6
     1d4:	7833      	ldrb	r3, [r6, #0]
     1d6:	b2db      	uxtb	r3, r3
     1d8:	2228      	movs	r2, #40	; 0x28
     1da:	54ab      	strb	r3, [r5, r2]
     1dc:	e7ed      	b.n	1ba <_i2c_master_write+0x12>
     1de:	46c0      	nop			; (mov r8, r8)
     1e0:	00000115 	.word	0x00000115

000001e4 <_i2c_master_write_packet>:
 * \retval STATUS_BUSY If module is currently busy with another transfer
 */
static enum status_code _i2c_master_write_packet(
		struct i2c_master_module *const module,
		struct i2c_master_packet *const packet)
{
     1e4:	b570      	push	{r4, r5, r6, lr}
     1e6:	0005      	movs	r5, r0
     1e8:	000c      	movs	r4, r1
	/* Sanity check */
	Assert(module);
	Assert(module->hw);

	SercomI2cm *const i2c_module = &(module->hw->I2CM);
     1ea:	6806      	ldr	r6, [r0, #0]

	/* Switch to high speed mode */
	if (packet->high_speed) {
     1ec:	7a4b      	ldrb	r3, [r1, #9]
     1ee:	2b00      	cmp	r3, #0
     1f0:	d11a      	bne.n	228 <_i2c_master_write_packet+0x44>
		_i2c_master_send_hs_master_code(module, packet->hs_master_code);
	}

	/* Set action to ACK. */
	i2c_module->CTRLB.reg &= ~SERCOM_I2CM_CTRLB_ACKACT;
     1f2:	6873      	ldr	r3, [r6, #4]
     1f4:	4a13      	ldr	r2, [pc, #76]	; (244 <_i2c_master_write_packet+0x60>)
     1f6:	4013      	ands	r3, r2
     1f8:	6073      	str	r3, [r6, #4]

	/* Save packet to software module */
	module->buffer             = packet->data;
     1fa:	6863      	ldr	r3, [r4, #4]
     1fc:	622b      	str	r3, [r5, #32]
	module->buffer_remaining   = packet->data_length;
     1fe:	8863      	ldrh	r3, [r4, #2]
     200:	83ab      	strh	r3, [r5, #28]
	module->transfer_direction = I2C_TRANSFER_WRITE;
     202:	2200      	movs	r2, #0
     204:	2324      	movs	r3, #36	; 0x24
     206:	54ea      	strb	r2, [r5, r3]
	module->status             = STATUS_BUSY;
     208:	3205      	adds	r2, #5
     20a:	3301      	adds	r3, #1
     20c:	54ea      	strb	r2, [r5, r3]

	/* Enable interrupts */
	i2c_module->INTENSET.reg =
     20e:	3b22      	subs	r3, #34	; 0x22
     210:	75b3      	strb	r3, [r6, #22]
			SERCOM_I2CM_INTENSET_MB | SERCOM_I2CM_INTENSET_SB;

	/* Set address and direction bit, will send start command on bus */
	if (packet->ten_bit_address) {
     212:	7a23      	ldrb	r3, [r4, #8]
     214:	2b00      	cmp	r3, #0
     216:	d10b      	bne.n	230 <_i2c_master_write_packet+0x4c>
		i2c_module->ADDR.reg = (packet->address << 1) | I2C_TRANSFER_WRITE |
			(packet->high_speed << SERCOM_I2CM_ADDR_HS_Pos) |
			SERCOM_I2CM_ADDR_TENBITEN;
	} else {
		i2c_module->ADDR.reg = (packet->address << 1) | I2C_TRANSFER_WRITE |
     218:	8823      	ldrh	r3, [r4, #0]
     21a:	005b      	lsls	r3, r3, #1
			(packet->high_speed << SERCOM_I2CM_ADDR_HS_Pos);
     21c:	7a62      	ldrb	r2, [r4, #9]
     21e:	0392      	lsls	r2, r2, #14
		i2c_module->ADDR.reg = (packet->address << 1) | I2C_TRANSFER_WRITE |
     220:	4313      	orrs	r3, r2
     222:	6273      	str	r3, [r6, #36]	; 0x24
	}

	return STATUS_OK;
}
     224:	2000      	movs	r0, #0
     226:	bd70      	pop	{r4, r5, r6, pc}
		_i2c_master_send_hs_master_code(module, packet->hs_master_code);
     228:	7a89      	ldrb	r1, [r1, #10]
     22a:	4b07      	ldr	r3, [pc, #28]	; (248 <_i2c_master_write_packet+0x64>)
     22c:	4798      	blx	r3
     22e:	e7e0      	b.n	1f2 <_i2c_master_write_packet+0xe>
		i2c_module->ADDR.reg = (packet->address << 1) | I2C_TRANSFER_WRITE |
     230:	8823      	ldrh	r3, [r4, #0]
     232:	005b      	lsls	r3, r3, #1
			(packet->high_speed << SERCOM_I2CM_ADDR_HS_Pos) |
     234:	7a62      	ldrb	r2, [r4, #9]
     236:	0392      	lsls	r2, r2, #14
		i2c_module->ADDR.reg = (packet->address << 1) | I2C_TRANSFER_WRITE |
     238:	4313      	orrs	r3, r2
			(packet->high_speed << SERCOM_I2CM_ADDR_HS_Pos) |
     23a:	2280      	movs	r2, #128	; 0x80
     23c:	0212      	lsls	r2, r2, #8
     23e:	4313      	orrs	r3, r2
		i2c_module->ADDR.reg = (packet->address << 1) | I2C_TRANSFER_WRITE |
     240:	6273      	str	r3, [r6, #36]	; 0x24
     242:	e7ef      	b.n	224 <_i2c_master_write_packet+0x40>
     244:	fffbffff 	.word	0xfffbffff
     248:	000019ad 	.word	0x000019ad

0000024c <_i2c_master_read_packet>:
{
     24c:	b5f8      	push	{r3, r4, r5, r6, r7, lr}
     24e:	0005      	movs	r5, r0
     250:	000c      	movs	r4, r1
	SercomI2cm *const i2c_module = &(module->hw->I2CM);
     252:	6806      	ldr	r6, [r0, #0]
	module->buffer             = packet->data;
     254:	684b      	ldr	r3, [r1, #4]
     256:	6203      	str	r3, [r0, #32]
	module->buffer_remaining   = packet->data_length;
     258:	884b      	ldrh	r3, [r1, #2]
     25a:	8383      	strh	r3, [r0, #28]
	module->transfer_direction = I2C_TRANSFER_READ;
     25c:	2201      	movs	r2, #1
     25e:	2324      	movs	r3, #36	; 0x24
     260:	54c2      	strb	r2, [r0, r3]
	module->status             = STATUS_BUSY;
     262:	3204      	adds	r2, #4
     264:	3301      	adds	r3, #1
     266:	54c2      	strb	r2, [r0, r3]
	bool sclsm_flag = i2c_module->CTRLA.bit.SCLSM;
     268:	6837      	ldr	r7, [r6, #0]
     26a:	013f      	lsls	r7, r7, #4
     26c:	0fff      	lsrs	r7, r7, #31
	if (packet->high_speed) {
     26e:	7a4b      	ldrb	r3, [r1, #9]
     270:	2b00      	cmp	r3, #0
     272:	d117      	bne.n	2a4 <_i2c_master_read_packet+0x58>
	if ((sclsm_flag) && (packet->data_length == 1)) {
     274:	2f00      	cmp	r7, #0
     276:	d002      	beq.n	27e <_i2c_master_read_packet+0x32>
     278:	8863      	ldrh	r3, [r4, #2]
     27a:	2b01      	cmp	r3, #1
     27c:	d016      	beq.n	2ac <_i2c_master_read_packet+0x60>
		i2c_module->CTRLB.reg &= ~SERCOM_I2CM_CTRLB_ACKACT;
     27e:	6873      	ldr	r3, [r6, #4]
     280:	4a20      	ldr	r2, [pc, #128]	; (304 <_i2c_master_read_packet+0xb8>)
     282:	4013      	ands	r3, r2
     284:	6073      	str	r3, [r6, #4]
	if (packet->ten_bit_address) {
     286:	7a23      	ldrb	r3, [r4, #8]
     288:	2b00      	cmp	r3, #0
     28a:	d115      	bne.n	2b8 <_i2c_master_read_packet+0x6c>
		i2c_module->INTENSET.reg =
     28c:	2303      	movs	r3, #3
     28e:	75b3      	strb	r3, [r6, #22]
		i2c_module->ADDR.reg = (packet->address << 1) | I2C_TRANSFER_READ |
     290:	8823      	ldrh	r3, [r4, #0]
     292:	005b      	lsls	r3, r3, #1
			(packet->high_speed << SERCOM_I2CM_ADDR_HS_Pos);
     294:	7a62      	ldrb	r2, [r4, #9]
     296:	0392      	lsls	r2, r2, #14
		i2c_module->ADDR.reg = (packet->address << 1) | I2C_TRANSFER_READ |
     298:	4313      	orrs	r3, r2
     29a:	2201      	movs	r2, #1
     29c:	4313      	orrs	r3, r2
     29e:	6273      	str	r3, [r6, #36]	; 0x24
	return STATUS_OK;
     2a0:	2000      	movs	r0, #0
}
     2a2:	bdf8      	pop	{r3, r4, r5, r6, r7, pc}
		_i2c_master_send_hs_master_code(module, packet->hs_master_code);
     2a4:	7a89      	ldrb	r1, [r1, #10]
     2a6:	4b18      	ldr	r3, [pc, #96]	; (308 <_i2c_master_read_packet+0xbc>)
     2a8:	4798      	blx	r3
     2aa:	e7e3      	b.n	274 <_i2c_master_read_packet+0x28>
		i2c_module->CTRLB.reg |= SERCOM_I2CM_CTRLB_ACKACT;
     2ac:	6872      	ldr	r2, [r6, #4]
     2ae:	2380      	movs	r3, #128	; 0x80
     2b0:	02db      	lsls	r3, r3, #11
     2b2:	4313      	orrs	r3, r2
     2b4:	6073      	str	r3, [r6, #4]
     2b6:	e7e6      	b.n	286 <_i2c_master_read_packet+0x3a>
		i2c_module->ADDR.reg = (packet->address << 1) |
     2b8:	8823      	ldrh	r3, [r4, #0]
     2ba:	005b      	lsls	r3, r3, #1
			(packet->high_speed << SERCOM_I2CM_ADDR_HS_Pos) |
     2bc:	7a62      	ldrb	r2, [r4, #9]
     2be:	0392      	lsls	r2, r2, #14
		i2c_module->ADDR.reg = (packet->address << 1) |
     2c0:	4313      	orrs	r3, r2
			(packet->high_speed << SERCOM_I2CM_ADDR_HS_Pos) |
     2c2:	2280      	movs	r2, #128	; 0x80
     2c4:	0212      	lsls	r2, r2, #8
     2c6:	4313      	orrs	r3, r2
		i2c_module->ADDR.reg = (packet->address << 1) |
     2c8:	6273      	str	r3, [r6, #36]	; 0x24
		tmp_status = _i2c_master_wait_for_bus(module);
     2ca:	0028      	movs	r0, r5
     2cc:	4b0f      	ldr	r3, [pc, #60]	; (30c <_i2c_master_read_packet+0xc0>)
     2ce:	4798      	blx	r3
		i2c_module->CTRLB.reg &= ~SERCOM_I2CM_CTRLB_ACKACT;
     2d0:	6873      	ldr	r3, [r6, #4]
     2d2:	4a0c      	ldr	r2, [pc, #48]	; (304 <_i2c_master_read_packet+0xb8>)
     2d4:	4013      	ands	r3, r2
     2d6:	6073      	str	r3, [r6, #4]
		if (tmp_status == STATUS_OK) {
     2d8:	2800      	cmp	r0, #0
     2da:	d1e2      	bne.n	2a2 <_i2c_master_read_packet+0x56>
			tmp_status = _i2c_master_address_response(module);
     2dc:	0028      	movs	r0, r5
     2de:	4b0c      	ldr	r3, [pc, #48]	; (310 <_i2c_master_read_packet+0xc4>)
     2e0:	4798      	blx	r3
		if (tmp_status == STATUS_OK) {
     2e2:	2800      	cmp	r0, #0
     2e4:	d1dd      	bne.n	2a2 <_i2c_master_read_packet+0x56>
			i2c_module->INTENSET.reg =
     2e6:	2303      	movs	r3, #3
     2e8:	75b3      	strb	r3, [r6, #22]
			i2c_module->ADDR.reg = (((packet->address >> 8) | 0x78) << 1) |
     2ea:	8823      	ldrh	r3, [r4, #0]
     2ec:	0a1b      	lsrs	r3, r3, #8
     2ee:	2278      	movs	r2, #120	; 0x78
     2f0:	4313      	orrs	r3, r2
     2f2:	005b      	lsls	r3, r3, #1
				(packet->high_speed << SERCOM_I2CM_ADDR_HS_Pos) |
     2f4:	7a62      	ldrb	r2, [r4, #9]
     2f6:	0392      	lsls	r2, r2, #14
     2f8:	2101      	movs	r1, #1
     2fa:	430a      	orrs	r2, r1
     2fc:	4313      	orrs	r3, r2
			i2c_module->ADDR.reg = (((packet->address >> 8) | 0x78) << 1) |
     2fe:	6273      	str	r3, [r6, #36]	; 0x24
     300:	e7cf      	b.n	2a2 <_i2c_master_read_packet+0x56>
     302:	46c0      	nop			; (mov r8, r8)
     304:	fffbffff 	.word	0xfffbffff
     308:	000019ad 	.word	0x000019ad
     30c:	00001981 	.word	0x00001981
     310:	00001951 	.word	0x00001951

00000314 <i2c_master_register_callback>:
	module->callbacks[callback_type] = callback;
     314:	1c93      	adds	r3, r2, #2
     316:	009b      	lsls	r3, r3, #2
     318:	18c3      	adds	r3, r0, r3
     31a:	6059      	str	r1, [r3, #4]
	module->registered_callback |= (1 << callback_type);
     31c:	7e03      	ldrb	r3, [r0, #24]
     31e:	2101      	movs	r1, #1
     320:	4091      	lsls	r1, r2
     322:	430b      	orrs	r3, r1
     324:	b2db      	uxtb	r3, r3
     326:	7603      	strb	r3, [r0, #24]
}
     328:	4770      	bx	lr
	...

0000032c <i2c_master_read_packet_job>:
{
     32c:	b510      	push	{r4, lr}
	if (module->buffer_remaining > 0) {
     32e:	8b83      	ldrh	r3, [r0, #28]
     330:	b29b      	uxth	r3, r3
		return STATUS_BUSY;
     332:	2205      	movs	r2, #5
	if (module->buffer_remaining > 0) {
     334:	2b00      	cmp	r3, #0
     336:	d001      	beq.n	33c <i2c_master_read_packet_job+0x10>
}
     338:	0010      	movs	r0, r2
     33a:	bd10      	pop	{r4, pc}
	module->send_stop = true;
     33c:	3301      	adds	r3, #1
     33e:	7283      	strb	r3, [r0, #10]
	module->send_nack = true;
     340:	72c3      	strb	r3, [r0, #11]
	return _i2c_master_read_packet(module, packet);
     342:	4b02      	ldr	r3, [pc, #8]	; (34c <i2c_master_read_packet_job+0x20>)
     344:	4798      	blx	r3
     346:	0002      	movs	r2, r0
     348:	e7f6      	b.n	338 <i2c_master_read_packet_job+0xc>
     34a:	46c0      	nop			; (mov r8, r8)
     34c:	0000024d 	.word	0x0000024d

00000350 <i2c_master_write_packet_job>:
 * \retval STATUS_BUSY  If module is currently busy with another transfer
 */
enum status_code i2c_master_write_packet_job(
		struct i2c_master_module *const module,
		struct i2c_master_packet *const packet)
{
     350:	b510      	push	{r4, lr}
	Assert(module);
	Assert(module->hw);
	Assert(packet);

	/* Check if the I2C module is busy with another job. */
	if (module->buffer_remaining > 0) {
     352:	8b83      	ldrh	r3, [r0, #28]
     354:	b29b      	uxth	r3, r3
		return STATUS_BUSY;
     356:	2205      	movs	r2, #5
	if (module->buffer_remaining > 0) {
     358:	2b00      	cmp	r3, #0
     35a:	d001      	beq.n	360 <i2c_master_write_packet_job+0x10>
	/* Make sure we send STOP at end*/
	module->send_stop = true;
	module->send_nack = true;
	/* Start write operation */
	return _i2c_master_write_packet(module, packet);
}
     35c:	0010      	movs	r0, r2
     35e:	bd10      	pop	{r4, pc}
	module->send_stop = true;
     360:	3301      	adds	r3, #1
     362:	7283      	strb	r3, [r0, #10]
	module->send_nack = true;
     364:	72c3      	strb	r3, [r0, #11]
	return _i2c_master_write_packet(module, packet);
     366:	4b02      	ldr	r3, [pc, #8]	; (370 <i2c_master_write_packet_job+0x20>)
     368:	4798      	blx	r3
     36a:	0002      	movs	r2, r0
     36c:	e7f6      	b.n	35c <i2c_master_write_packet_job+0xc>
     36e:	46c0      	nop			; (mov r8, r8)
     370:	000001e5 	.word	0x000001e5

00000374 <_i2c_master_interrupt_handler>:
 *
 * \param[in] instance  SERCOM instance that triggered the interrupt
 */
void _i2c_master_interrupt_handler(
		uint8_t instance)
{
     374:	b570      	push	{r4, r5, r6, lr}
	/* Get software module for callback handling */
	struct i2c_master_module *module =
     376:	0080      	lsls	r0, r0, #2
     378:	4b75      	ldr	r3, [pc, #468]	; (550 <_i2c_master_interrupt_handler+0x1dc>)
     37a:	58c4      	ldr	r4, [r0, r3]
			(struct i2c_master_module*)_sercom_instances[instance];

	Assert(module);

	SercomI2cm *const i2c_module = &(module->hw->I2CM);
     37c:	6825      	ldr	r5, [r4, #0]
	bool sclsm_flag = i2c_module->CTRLA.bit.SCLSM;
     37e:	682b      	ldr	r3, [r5, #0]
     380:	011b      	lsls	r3, r3, #4
     382:	0fda      	lsrs	r2, r3, #31

	/* Combine callback registered and enabled masks */
	uint8_t callback_mask = module->enabled_callback;
     384:	7e63      	ldrb	r3, [r4, #25]
	callback_mask &= module->registered_callback;
     386:	7e26      	ldrb	r6, [r4, #24]
     388:	401e      	ands	r6, r3

	/* Check if the module should respond to address ack */
	if ((module->buffer_length <= 0) && (module->buffer_remaining > 0)) {
     38a:	8b63      	ldrh	r3, [r4, #26]
     38c:	b29b      	uxth	r3, r3
     38e:	2b00      	cmp	r3, #0
     390:	d103      	bne.n	39a <_i2c_master_interrupt_handler+0x26>
     392:	8ba3      	ldrh	r3, [r4, #28]
     394:	b29b      	uxth	r3, r3
     396:	2b00      	cmp	r3, #0
     398:	d123      	bne.n	3e2 <_i2c_master_interrupt_handler+0x6e>
		/* Call function for address response */
		_i2c_master_async_address_response(module);

	/* Check if buffer write is done */
	} else if ((module->buffer_length > 0) && (module->buffer_remaining <= 0) &&
     39a:	8b63      	ldrh	r3, [r4, #26]
     39c:	b29b      	uxth	r3, r3
     39e:	2b00      	cmp	r3, #0
     3a0:	d008      	beq.n	3b4 <_i2c_master_interrupt_handler+0x40>
     3a2:	8ba3      	ldrh	r3, [r4, #28]
     3a4:	b29b      	uxth	r3, r3
     3a6:	2b00      	cmp	r3, #0
     3a8:	d104      	bne.n	3b4 <_i2c_master_interrupt_handler+0x40>
			(module->status == STATUS_BUSY) &&
     3aa:	3325      	adds	r3, #37	; 0x25
     3ac:	5ce3      	ldrb	r3, [r4, r3]
	} else if ((module->buffer_length > 0) && (module->buffer_remaining <= 0) &&
     3ae:	2b05      	cmp	r3, #5
     3b0:	d100      	bne.n	3b4 <_i2c_master_interrupt_handler+0x40>
     3b2:	e06d      	b.n	490 <_i2c_master_interrupt_handler+0x11c>
		if (callback_mask & (1 << I2C_MASTER_CALLBACK_WRITE_COMPLETE)) {
			module->callbacks[I2C_MASTER_CALLBACK_WRITE_COMPLETE](module);
		}

	/* Continue buffer write/read */
	} else if ((module->buffer_length > 0) && (module->buffer_remaining > 0)){
     3b4:	8b63      	ldrh	r3, [r4, #26]
     3b6:	b29b      	uxth	r3, r3
     3b8:	2b00      	cmp	r3, #0
     3ba:	d024      	beq.n	406 <_i2c_master_interrupt_handler+0x92>
     3bc:	8ba3      	ldrh	r3, [r4, #28]
     3be:	b29b      	uxth	r3, r3
     3c0:	2b00      	cmp	r3, #0
     3c2:	d020      	beq.n	406 <_i2c_master_interrupt_handler+0x92>
		/* Check that bus ownership is not lost */
		if ((!(i2c_module->STATUS.reg & SERCOM_I2CM_STATUS_BUSSTATE(2))) &&
     3c4:	8b6b      	ldrh	r3, [r5, #26]
     3c6:	069b      	lsls	r3, r3, #26
     3c8:	d500      	bpl.n	3cc <_i2c_master_interrupt_handler+0x58>
     3ca:	e081      	b.n	4d0 <_i2c_master_interrupt_handler+0x15c>
     3cc:	2a00      	cmp	r2, #0
     3ce:	d004      	beq.n	3da <_i2c_master_interrupt_handler+0x66>
				(!(sclsm_flag && (module->buffer_remaining == 1))))	{
     3d0:	8ba3      	ldrh	r3, [r4, #28]
     3d2:	b29b      	uxth	r3, r3
     3d4:	2b01      	cmp	r3, #1
     3d6:	d100      	bne.n	3da <_i2c_master_interrupt_handler+0x66>
     3d8:	e07a      	b.n	4d0 <_i2c_master_interrupt_handler+0x15c>
			module->status = STATUS_ERR_PACKET_COLLISION;
     3da:	2241      	movs	r2, #65	; 0x41
     3dc:	2325      	movs	r3, #37	; 0x25
     3de:	54e2      	strb	r2, [r4, r3]
     3e0:	e011      	b.n	406 <_i2c_master_interrupt_handler+0x92>
	if (i2c_module->INTFLAG.reg & SERCOM_I2CM_INTFLAG_MB)
     3e2:	7e2b      	ldrb	r3, [r5, #24]
     3e4:	07db      	lsls	r3, r3, #31
     3e6:	d507      	bpl.n	3f8 <_i2c_master_interrupt_handler+0x84>
		i2c_module->INTFLAG.reg = SERCOM_I2CM_INTENCLR_MB;
     3e8:	2301      	movs	r3, #1
     3ea:	762b      	strb	r3, [r5, #24]
		if (i2c_module->STATUS.reg & SERCOM_I2CM_STATUS_ARBLOST) {
     3ec:	8b6b      	ldrh	r3, [r5, #26]
     3ee:	079b      	lsls	r3, r3, #30
     3f0:	d52e      	bpl.n	450 <_i2c_master_interrupt_handler+0xdc>
			module->status = STATUS_ERR_PACKET_COLLISION;
     3f2:	2241      	movs	r2, #65	; 0x41
     3f4:	2325      	movs	r3, #37	; 0x25
     3f6:	54e2      	strb	r2, [r4, r3]
	module->buffer_length = module->buffer_remaining;
     3f8:	8ba3      	ldrh	r3, [r4, #28]
     3fa:	b29b      	uxth	r3, r3
     3fc:	8363      	strh	r3, [r4, #26]
	if (module->status == STATUS_BUSY) {
     3fe:	2325      	movs	r3, #37	; 0x25
     400:	5ce3      	ldrb	r3, [r4, r3]
     402:	2b05      	cmp	r3, #5
     404:	d038      	beq.n	478 <_i2c_master_interrupt_handler+0x104>
			_i2c_master_read(module);
		}
	}

	/* Check if read buffer transfer is complete */
	if ((module->buffer_length > 0) && (module->buffer_remaining <= 0) &&
     406:	8b63      	ldrh	r3, [r4, #26]
     408:	b29b      	uxth	r3, r3
     40a:	2b00      	cmp	r3, #0
     40c:	d007      	beq.n	41e <_i2c_master_interrupt_handler+0xaa>
     40e:	8ba3      	ldrh	r3, [r4, #28]
     410:	b29b      	uxth	r3, r3
     412:	2b00      	cmp	r3, #0
     414:	d103      	bne.n	41e <_i2c_master_interrupt_handler+0xaa>
			(module->status == STATUS_BUSY) &&
     416:	3325      	adds	r3, #37	; 0x25
     418:	5ce3      	ldrb	r3, [r4, r3]
	if ((module->buffer_length > 0) && (module->buffer_remaining <= 0) &&
     41a:	2b05      	cmp	r3, #5
     41c:	d064      	beq.n	4e8 <_i2c_master_interrupt_handler+0x174>
			module->callbacks[I2C_MASTER_CALLBACK_WRITE_COMPLETE](module);
		}
	}

	/* Check for error */
	if ((module->status != STATUS_BUSY) && (module->status != STATUS_OK)) {
     41e:	2325      	movs	r3, #37	; 0x25
     420:	5ce3      	ldrb	r3, [r4, r3]
     422:	2b05      	cmp	r3, #5
     424:	d013      	beq.n	44e <_i2c_master_interrupt_handler+0xda>
     426:	2325      	movs	r3, #37	; 0x25
     428:	5ce3      	ldrb	r3, [r4, r3]
     42a:	2b00      	cmp	r3, #0
     42c:	d00f      	beq.n	44e <_i2c_master_interrupt_handler+0xda>
		/* Stop packet operation */
		i2c_module->INTENCLR.reg = SERCOM_I2CM_INTENCLR_MB |
     42e:	2303      	movs	r3, #3
     430:	752b      	strb	r3, [r5, #20]
				SERCOM_I2CM_INTENCLR_SB;

		module->buffer_length = 0;
     432:	2300      	movs	r3, #0
     434:	8363      	strh	r3, [r4, #26]
		module->buffer_remaining = 0;
     436:	83a3      	strh	r3, [r4, #28]

		/* Send nack and stop command unless arbitration is lost */
		if ((module->status != STATUS_ERR_PACKET_COLLISION) &&
     438:	3325      	adds	r3, #37	; 0x25
     43a:	5ce3      	ldrb	r3, [r4, r3]
     43c:	2b41      	cmp	r3, #65	; 0x41
     43e:	d003      	beq.n	448 <_i2c_master_interrupt_handler+0xd4>
     440:	7aa3      	ldrb	r3, [r4, #10]
     442:	2b00      	cmp	r3, #0
     444:	d000      	beq.n	448 <_i2c_master_interrupt_handler+0xd4>
     446:	e075      	b.n	534 <_i2c_master_interrupt_handler+0x1c0>
			i2c_module->CTRLB.reg |= SERCOM_I2CM_CTRLB_ACKACT |
					SERCOM_I2CM_CTRLB_CMD(3);
		}

		/* Call error callback if enabled and registered */
		if (callback_mask & (1 << I2C_MASTER_CALLBACK_ERROR)) {
     448:	0773      	lsls	r3, r6, #29
     44a:	d500      	bpl.n	44e <_i2c_master_interrupt_handler+0xda>
     44c:	e07b      	b.n	546 <_i2c_master_interrupt_handler+0x1d2>
			module->callbacks[I2C_MASTER_CALLBACK_ERROR](module);
		}
	}
}
     44e:	bd70      	pop	{r4, r5, r6, pc}
		else if (i2c_module->STATUS.reg & SERCOM_I2CM_STATUS_RXNACK) {
     450:	8b6b      	ldrh	r3, [r5, #26]
     452:	075b      	lsls	r3, r3, #29
     454:	d5d0      	bpl.n	3f8 <_i2c_master_interrupt_handler+0x84>
			module->status           = STATUS_ERR_BAD_ADDRESS;
     456:	2218      	movs	r2, #24
     458:	2325      	movs	r3, #37	; 0x25
     45a:	54e2      	strb	r2, [r4, r3]
			module->buffer_remaining = 0;
     45c:	2300      	movs	r3, #0
     45e:	83a3      	strh	r3, [r4, #28]
			if (module->send_stop) {
     460:	7aa3      	ldrb	r3, [r4, #10]
     462:	2b00      	cmp	r3, #0
     464:	d0c8      	beq.n	3f8 <_i2c_master_interrupt_handler+0x84>
				_i2c_master_wait_for_sync(module);
     466:	0020      	movs	r0, r4
     468:	4b3a      	ldr	r3, [pc, #232]	; (554 <_i2c_master_interrupt_handler+0x1e0>)
     46a:	4798      	blx	r3
				i2c_module->CTRLB.reg |= SERCOM_I2CM_CTRLB_CMD(3);
     46c:	686a      	ldr	r2, [r5, #4]
     46e:	23c0      	movs	r3, #192	; 0xc0
     470:	029b      	lsls	r3, r3, #10
     472:	4313      	orrs	r3, r2
     474:	606b      	str	r3, [r5, #4]
     476:	e7bf      	b.n	3f8 <_i2c_master_interrupt_handler+0x84>
		if (module->transfer_direction == I2C_TRANSFER_WRITE) {
     478:	331f      	adds	r3, #31
     47a:	5ce3      	ldrb	r3, [r4, r3]
     47c:	2b00      	cmp	r3, #0
     47e:	d003      	beq.n	488 <_i2c_master_interrupt_handler+0x114>
			_i2c_master_read(module);
     480:	0020      	movs	r0, r4
     482:	4b35      	ldr	r3, [pc, #212]	; (558 <_i2c_master_interrupt_handler+0x1e4>)
     484:	4798      	blx	r3
     486:	e7be      	b.n	406 <_i2c_master_interrupt_handler+0x92>
			_i2c_master_write(module);
     488:	0020      	movs	r0, r4
     48a:	4b34      	ldr	r3, [pc, #208]	; (55c <_i2c_master_interrupt_handler+0x1e8>)
     48c:	4798      	blx	r3
     48e:	e7ba      	b.n	406 <_i2c_master_interrupt_handler+0x92>
			(module->transfer_direction == I2C_TRANSFER_WRITE)) {
     490:	331f      	adds	r3, #31
     492:	5ce3      	ldrb	r3, [r4, r3]
			(module->status == STATUS_BUSY) &&
     494:	2b00      	cmp	r3, #0
     496:	d000      	beq.n	49a <_i2c_master_interrupt_handler+0x126>
     498:	e78c      	b.n	3b4 <_i2c_master_interrupt_handler+0x40>
		i2c_module->INTENCLR.reg =
     49a:	3303      	adds	r3, #3
     49c:	752b      	strb	r3, [r5, #20]
		module->buffer_length = 0;
     49e:	2300      	movs	r3, #0
     4a0:	8363      	strh	r3, [r4, #26]
		module->status        = STATUS_OK;
     4a2:	3325      	adds	r3, #37	; 0x25
     4a4:	2200      	movs	r2, #0
     4a6:	54e2      	strb	r2, [r4, r3]
		if (module->send_stop) {
     4a8:	7aa3      	ldrb	r3, [r4, #10]
     4aa:	2b00      	cmp	r3, #0
     4ac:	d107      	bne.n	4be <_i2c_master_interrupt_handler+0x14a>
			i2c_module->INTFLAG.reg = SERCOM_I2CM_INTFLAG_MB;
     4ae:	2301      	movs	r3, #1
     4b0:	762b      	strb	r3, [r5, #24]
		if (callback_mask & (1 << I2C_MASTER_CALLBACK_WRITE_COMPLETE)) {
     4b2:	07f3      	lsls	r3, r6, #31
     4b4:	d5a7      	bpl.n	406 <_i2c_master_interrupt_handler+0x92>
			module->callbacks[I2C_MASTER_CALLBACK_WRITE_COMPLETE](module);
     4b6:	68e3      	ldr	r3, [r4, #12]
     4b8:	0020      	movs	r0, r4
     4ba:	4798      	blx	r3
     4bc:	e7a3      	b.n	406 <_i2c_master_interrupt_handler+0x92>
			_i2c_master_wait_for_sync(module);
     4be:	0020      	movs	r0, r4
     4c0:	4b24      	ldr	r3, [pc, #144]	; (554 <_i2c_master_interrupt_handler+0x1e0>)
     4c2:	4798      	blx	r3
			i2c_module->CTRLB.reg |= SERCOM_I2CM_CTRLB_CMD(3);
     4c4:	686a      	ldr	r2, [r5, #4]
     4c6:	23c0      	movs	r3, #192	; 0xc0
     4c8:	029b      	lsls	r3, r3, #10
     4ca:	4313      	orrs	r3, r2
     4cc:	606b      	str	r3, [r5, #4]
     4ce:	e7f0      	b.n	4b2 <_i2c_master_interrupt_handler+0x13e>
		} else if (module->transfer_direction == I2C_TRANSFER_WRITE) {
     4d0:	2324      	movs	r3, #36	; 0x24
     4d2:	5ce3      	ldrb	r3, [r4, r3]
     4d4:	2b00      	cmp	r3, #0
     4d6:	d103      	bne.n	4e0 <_i2c_master_interrupt_handler+0x16c>
			_i2c_master_write(module);
     4d8:	0020      	movs	r0, r4
     4da:	4b20      	ldr	r3, [pc, #128]	; (55c <_i2c_master_interrupt_handler+0x1e8>)
     4dc:	4798      	blx	r3
     4de:	e792      	b.n	406 <_i2c_master_interrupt_handler+0x92>
			_i2c_master_read(module);
     4e0:	0020      	movs	r0, r4
     4e2:	4b1d      	ldr	r3, [pc, #116]	; (558 <_i2c_master_interrupt_handler+0x1e4>)
     4e4:	4798      	blx	r3
     4e6:	e78e      	b.n	406 <_i2c_master_interrupt_handler+0x92>
			(module->transfer_direction == I2C_TRANSFER_READ)) {
     4e8:	331f      	adds	r3, #31
     4ea:	5ce3      	ldrb	r3, [r4, r3]
			(module->status == STATUS_BUSY) &&
     4ec:	2b01      	cmp	r3, #1
     4ee:	d196      	bne.n	41e <_i2c_master_interrupt_handler+0xaa>
		if (i2c_module->INTFLAG.reg & SERCOM_I2CM_INTFLAG_SB) {
     4f0:	7e2b      	ldrb	r3, [r5, #24]
     4f2:	079b      	lsls	r3, r3, #30
     4f4:	d501      	bpl.n	4fa <_i2c_master_interrupt_handler+0x186>
			i2c_module->INTFLAG.reg = SERCOM_I2CM_INTFLAG_SB;
     4f6:	2302      	movs	r3, #2
     4f8:	762b      	strb	r3, [r5, #24]
		i2c_module->INTENCLR.reg =
     4fa:	2303      	movs	r3, #3
     4fc:	752b      	strb	r3, [r5, #20]
		module->buffer_length = 0;
     4fe:	2300      	movs	r3, #0
     500:	8363      	strh	r3, [r4, #26]
		module->status        = STATUS_OK;
     502:	3325      	adds	r3, #37	; 0x25
     504:	2200      	movs	r2, #0
     506:	54e2      	strb	r2, [r4, r3]
		if ((callback_mask & (1 << I2C_MASTER_CALLBACK_READ_COMPLETE))
     508:	07b3      	lsls	r3, r6, #30
     50a:	d503      	bpl.n	514 <_i2c_master_interrupt_handler+0x1a0>
				&& (module->transfer_direction == I2C_TRANSFER_READ)) {
     50c:	2324      	movs	r3, #36	; 0x24
     50e:	5ce3      	ldrb	r3, [r4, r3]
     510:	2b01      	cmp	r3, #1
     512:	d00b      	beq.n	52c <_i2c_master_interrupt_handler+0x1b8>
		} else if ((callback_mask & (1 << I2C_MASTER_CALLBACK_WRITE_COMPLETE))
     514:	07f3      	lsls	r3, r6, #31
     516:	d400      	bmi.n	51a <_i2c_master_interrupt_handler+0x1a6>
     518:	e781      	b.n	41e <_i2c_master_interrupt_handler+0xaa>
				&& (module->transfer_direction == I2C_TRANSFER_WRITE)) {
     51a:	2324      	movs	r3, #36	; 0x24
     51c:	5ce3      	ldrb	r3, [r4, r3]
     51e:	2b00      	cmp	r3, #0
     520:	d000      	beq.n	524 <_i2c_master_interrupt_handler+0x1b0>
     522:	e77c      	b.n	41e <_i2c_master_interrupt_handler+0xaa>
			module->callbacks[I2C_MASTER_CALLBACK_WRITE_COMPLETE](module);
     524:	68e3      	ldr	r3, [r4, #12]
     526:	0020      	movs	r0, r4
     528:	4798      	blx	r3
     52a:	e778      	b.n	41e <_i2c_master_interrupt_handler+0xaa>
			module->callbacks[I2C_MASTER_CALLBACK_READ_COMPLETE](module);
     52c:	6923      	ldr	r3, [r4, #16]
     52e:	0020      	movs	r0, r4
     530:	4798      	blx	r3
     532:	e774      	b.n	41e <_i2c_master_interrupt_handler+0xaa>
			_i2c_master_wait_for_sync(module);
     534:	0020      	movs	r0, r4
     536:	4b07      	ldr	r3, [pc, #28]	; (554 <_i2c_master_interrupt_handler+0x1e0>)
     538:	4798      	blx	r3
			i2c_module->CTRLB.reg |= SERCOM_I2CM_CTRLB_ACKACT |
     53a:	686a      	ldr	r2, [r5, #4]
     53c:	23e0      	movs	r3, #224	; 0xe0
     53e:	02db      	lsls	r3, r3, #11
     540:	4313      	orrs	r3, r2
     542:	606b      	str	r3, [r5, #4]
     544:	e780      	b.n	448 <_i2c_master_interrupt_handler+0xd4>
			module->callbacks[I2C_MASTER_CALLBACK_ERROR](module);
     546:	6963      	ldr	r3, [r4, #20]
     548:	0020      	movs	r0, r4
     54a:	4798      	blx	r3
}
     54c:	e77f      	b.n	44e <_i2c_master_interrupt_handler+0xda>
     54e:	46c0      	nop			; (mov r8, r8)
     550:	20004ddc 	.word	0x20004ddc
     554:	00000115 	.word	0x00000115
     558:	00000121 	.word	0x00000121
     55c:	000001a9 	.word	0x000001a9

00000560 <CLI_ResetDevice>:
    This function acts as a special kind of Data Memory Barrier.
    It completes when all explicit memory accesses before this instruction complete.
 */
__attribute__( ( always_inline ) ) __STATIC_INLINE void __DSB(void)
{
  __ASM volatile ("dsb");
     560:	f3bf 8f4f 	dsb	sy
 */
__STATIC_INLINE void NVIC_SystemReset(void)
{
  __DSB();                                                     /* Ensure all outstanding memory accesses included
                                                                  buffered write are completed before reset */
  SCB->AIRCR  = ((0x5FA << SCB_AIRCR_VECTKEY_Pos)      |
     564:	4a02      	ldr	r2, [pc, #8]	; (570 <CLI_ResetDevice+0x10>)
     566:	4b03      	ldr	r3, [pc, #12]	; (574 <CLI_ResetDevice+0x14>)
     568:	60da      	str	r2, [r3, #12]
     56a:	f3bf 8f4f 	dsb	sy
     56e:	e7fe      	b.n	56e <CLI_ResetDevice+0xe>
     570:	05fa0004 	.word	0x05fa0004
     574:	e000ed00 	.word	0xe000ed00

00000578 <CLI_GetImuData>:
/******************************************************************************
* CLI Functions - Define here
******************************************************************************/
//Example CLI Command. Reads from the IMU and returns data.
BaseType_t CLI_GetImuData( int8_t *pcWriteBuffer,size_t xWriteBufferLen,const int8_t *pcCommandString )
{
     578:	b5f0      	push	{r4, r5, r6, r7, lr}
     57a:	b087      	sub	sp, #28
     57c:	9002      	str	r0, [sp, #8]
     57e:	000e      	movs	r6, r1
static int16_t  data_raw_acceleration[3];
static int16_t  data_raw_angular_rate;
static float acceleration_mg[3];
uint8_t reg;
stmdev_ctx_t *dev_ctx = GetImuStruct();
     580:	4b1f      	ldr	r3, [pc, #124]	; (600 <CLI_GetImuData+0x88>)
     582:	4798      	blx	r3
     584:	9004      	str	r0, [sp, #16]


/* Read output only if new xl value is available */
lsm6dso_xl_flag_data_ready_get(dev_ctx, &reg);
     586:	240f      	movs	r4, #15
     588:	ab02      	add	r3, sp, #8
     58a:	469c      	mov	ip, r3
     58c:	4464      	add	r4, ip
     58e:	0021      	movs	r1, r4
     590:	4b1c      	ldr	r3, [pc, #112]	; (604 <CLI_GetImuData+0x8c>)
     592:	4798      	blx	r3

if(reg){
     594:	7823      	ldrb	r3, [r4, #0]
     596:	2b00      	cmp	r3, #0
     598:	d107      	bne.n	5aa <CLI_GetImuData+0x32>

	snprintf(pcWriteBuffer,xWriteBufferLen, "Acceleration [mg]:X %d\tY %d\tZ %d\r\n",
	(int)acceleration_mg[0], (int)acceleration_mg[1], (int)acceleration_mg[2]);
}else
{
	snprintf(pcWriteBuffer,xWriteBufferLen, "No data ready! \r\n");
     59a:	4a1b      	ldr	r2, [pc, #108]	; (608 <CLI_GetImuData+0x90>)
     59c:	0031      	movs	r1, r6
     59e:	9802      	ldr	r0, [sp, #8]
     5a0:	4b1a      	ldr	r3, [pc, #104]	; (60c <CLI_GetImuData+0x94>)
     5a2:	4798      	blx	r3
}
return pdFALSE;
}
     5a4:	2000      	movs	r0, #0
     5a6:	b007      	add	sp, #28
     5a8:	bdf0      	pop	{r4, r5, r6, r7, pc}
	memset(data_raw_angular_rate, 0x00, 3 * sizeof(int16_t));
     5aa:	2206      	movs	r2, #6
     5ac:	2100      	movs	r1, #0
     5ae:	2000      	movs	r0, #0
     5b0:	4b17      	ldr	r3, [pc, #92]	; (610 <CLI_GetImuData+0x98>)
     5b2:	4798      	blx	r3
      lsm6dso_acceleration_raw_get(&dev_ctx, data_raw_acceleration);
     5b4:	4c17      	ldr	r4, [pc, #92]	; (614 <CLI_GetImuData+0x9c>)
     5b6:	0021      	movs	r1, r4
     5b8:	a804      	add	r0, sp, #16
     5ba:	4b17      	ldr	r3, [pc, #92]	; (618 <CLI_GetImuData+0xa0>)
     5bc:	4798      	blx	r3
      lsm6dso_from_fs2_to_mg(data_raw_acceleration[0]);
     5be:	2300      	movs	r3, #0
     5c0:	5ee0      	ldrsh	r0, [r4, r3]
     5c2:	4f16      	ldr	r7, [pc, #88]	; (61c <CLI_GetImuData+0xa4>)
     5c4:	47b8      	blx	r7
      acceleration_mg[0] =
     5c6:	4d16      	ldr	r5, [pc, #88]	; (620 <CLI_GetImuData+0xa8>)
     5c8:	6028      	str	r0, [r5, #0]
      lsm6dso_from_fs2_to_mg(data_raw_acceleration[1]);
     5ca:	2302      	movs	r3, #2
     5cc:	5ee0      	ldrsh	r0, [r4, r3]
     5ce:	47b8      	blx	r7
      acceleration_mg[1] =
     5d0:	6068      	str	r0, [r5, #4]
      lsm6dso_from_fs2_to_mg(data_raw_acceleration[2]);
     5d2:	2304      	movs	r3, #4
     5d4:	5ee0      	ldrsh	r0, [r4, r3]
     5d6:	47b8      	blx	r7
     5d8:	1c04      	adds	r4, r0, #0
      acceleration_mg[2] =
     5da:	60a8      	str	r0, [r5, #8]
	snprintf(pcWriteBuffer,xWriteBufferLen, "Acceleration [mg]:X %d\tY %d\tZ %d\r\n",
     5dc:	4f11      	ldr	r7, [pc, #68]	; (624 <CLI_GetImuData+0xac>)
     5de:	6828      	ldr	r0, [r5, #0]
     5e0:	47b8      	blx	r7
     5e2:	9003      	str	r0, [sp, #12]
     5e4:	1c20      	adds	r0, r4, #0
     5e6:	47b8      	blx	r7
     5e8:	9001      	str	r0, [sp, #4]
     5ea:	6868      	ldr	r0, [r5, #4]
     5ec:	47b8      	blx	r7
     5ee:	9000      	str	r0, [sp, #0]
     5f0:	9b03      	ldr	r3, [sp, #12]
     5f2:	4a0d      	ldr	r2, [pc, #52]	; (628 <CLI_GetImuData+0xb0>)
     5f4:	0031      	movs	r1, r6
     5f6:	9802      	ldr	r0, [sp, #8]
     5f8:	4c04      	ldr	r4, [pc, #16]	; (60c <CLI_GetImuData+0x94>)
     5fa:	47a0      	blx	r4
     5fc:	e7d2      	b.n	5a4 <CLI_GetImuData+0x2c>
     5fe:	46c0      	nop			; (mov r8, r8)
     600:	000012c5 	.word	0x000012c5
     604:	00000e11 	.word	0x00000e11
     608:	000096ec 	.word	0x000096ec
     60c:	00008e49 	.word	0x00008e49
     610:	00008cc3 	.word	0x00008cc3
     614:	20000238 	.word	0x20000238
     618:	00000e35 	.word	0x00000e35
     61c:	00000cf5 	.word	0x00000cf5
     620:	2000021c 	.word	0x2000021c
     624:	000072ad 	.word	0x000072ad
     628:	000096c8 	.word	0x000096c8

0000062c <xCliClearTerminalScreen>:
//THIS COMMAND USES vt100 TERMINAL COMMANDS TO CLEAR THE SCREEN ON A TERMINAL PROGRAM LIKE TERA TERM
//SEE http://www.csie.ntu.edu.tw/~r92094/c++/VT100.html for more info
//CLI SPECIFIC COMMANDS
static char bufCli[CLI_MSG_LEN];
BaseType_t xCliClearTerminalScreen( char *pcWriteBuffer,size_t xWriteBufferLen,const int8_t *pcCommandString )
{
     62c:	b5f8      	push	{r3, r4, r5, r6, r7, lr}
     62e:	0006      	movs	r6, r0
     630:	000f      	movs	r7, r1
	char clearScreen = ASCII_ESC;
	snprintf(bufCli, CLI_MSG_LEN - 1, "%c[2J", clearScreen);
     632:	4d06      	ldr	r5, [pc, #24]	; (64c <xCliClearTerminalScreen+0x20>)
     634:	231b      	movs	r3, #27
     636:	4a06      	ldr	r2, [pc, #24]	; (650 <xCliClearTerminalScreen+0x24>)
     638:	210f      	movs	r1, #15
     63a:	0028      	movs	r0, r5
     63c:	4c05      	ldr	r4, [pc, #20]	; (654 <xCliClearTerminalScreen+0x28>)
     63e:	47a0      	blx	r4
	snprintf(pcWriteBuffer, xWriteBufferLen, bufCli);
     640:	002a      	movs	r2, r5
     642:	0039      	movs	r1, r7
     644:	0030      	movs	r0, r6
     646:	47a0      	blx	r4
	return pdFALSE;
}
     648:	2000      	movs	r0, #0
     64a:	bdf8      	pop	{r3, r4, r5, r6, r7, pc}
     64c:	20000228 	.word	0x20000228
     650:	00009858 	.word	0x00009858
     654:	00008e49 	.word	0x00008e49

00000658 <CLI_NeotrellisSetLed>:
* @note         Please see https://www.freertos.org/FreeRTOS-Plus/FreeRTOS_Plus_CLI/FreeRTOS_Plus_CLI_Accessing_Command_Line_Parameters.html
				for more information on how to use the FreeRTOS CLI.

*****************************************************************************/
BaseType_t CLI_NeotrellisSetLed( int8_t *pcWriteBuffer,size_t xWriteBufferLen,const int8_t *pcCommandString )
{
     658:	b510      	push	{r4, lr}
	snprintf(pcWriteBuffer,xWriteBufferLen, "Students to fill out!");
     65a:	4a02      	ldr	r2, [pc, #8]	; (664 <CLI_NeotrellisSetLed+0xc>)
     65c:	4b02      	ldr	r3, [pc, #8]	; (668 <CLI_NeotrellisSetLed+0x10>)
     65e:	4798      	blx	r3
	//How do you get parameters? check link in comments!
	//Check that the input is sanitized: Key between 0-15, RGB between 0-255. Print if there is an error!
	//return pdFalse to tell the FreeRTOS CLI your call is done and does not need to call again.
	//This function expects 4 arguments inside pcCommandString: key, R, G, B.
	return pdFALSE;
}
     660:	2000      	movs	r0, #0
     662:	bd10      	pop	{r4, pc}
     664:	00009700 	.word	0x00009700
     668:	00008e49 	.word	0x00008e49

0000066c <vCommandConsoleTask>:
{
     66c:	b5f0      	push	{r4, r5, r6, r7, lr}
     66e:	46d6      	mov	lr, sl
     670:	464f      	mov	r7, r9
     672:	b580      	push	{r7, lr}
     674:	b083      	sub	sp, #12
FreeRTOS_CLIRegisterCommand( &xImuGetCommand );
     676:	4866      	ldr	r0, [pc, #408]	; (810 <vCommandConsoleTask+0x1a4>)
     678:	4c66      	ldr	r4, [pc, #408]	; (814 <vCommandConsoleTask+0x1a8>)
     67a:	47a0      	blx	r4
FreeRTOS_CLIRegisterCommand( &xClearScreen );
     67c:	4866      	ldr	r0, [pc, #408]	; (818 <vCommandConsoleTask+0x1ac>)
     67e:	47a0      	blx	r4
FreeRTOS_CLIRegisterCommand( &xResetCommand );
     680:	4866      	ldr	r0, [pc, #408]	; (81c <vCommandConsoleTask+0x1b0>)
     682:	47a0      	blx	r4
FreeRTOS_CLIRegisterCommand( &xNeotrellisTurnLEDCommand );
     684:	4866      	ldr	r0, [pc, #408]	; (820 <vCommandConsoleTask+0x1b4>)
     686:	47a0      	blx	r4
    SerialConsoleWriteString( pcWelcomeMessage);
     688:	4866      	ldr	r0, [pc, #408]	; (824 <vCommandConsoleTask+0x1b8>)
     68a:	4b67      	ldr	r3, [pc, #412]	; (828 <vCommandConsoleTask+0x1bc>)
     68c:	4798      	blx	r3
	cliCharReadySemaphore = xSemaphoreCreateBinary();
     68e:	2203      	movs	r2, #3
     690:	2100      	movs	r1, #0
     692:	2001      	movs	r0, #1
     694:	4b65      	ldr	r3, [pc, #404]	; (82c <vCommandConsoleTask+0x1c0>)
     696:	4798      	blx	r3
     698:	4b65      	ldr	r3, [pc, #404]	; (830 <vCommandConsoleTask+0x1c4>)
     69a:	6018      	str	r0, [r3, #0]
	if(cliCharReadySemaphore == NULL)
     69c:	2800      	cmp	r0, #0
     69e:	d106      	bne.n	6ae <vCommandConsoleTask+0x42>
		LogMessage(LOG_ERROR_LVL, "Could not allocate semaphore\r\n");
     6a0:	4964      	ldr	r1, [pc, #400]	; (834 <vCommandConsoleTask+0x1c8>)
     6a2:	3003      	adds	r0, #3
     6a4:	4b64      	ldr	r3, [pc, #400]	; (838 <vCommandConsoleTask+0x1cc>)
     6a6:	4798      	blx	r3
		vTaskSuspend( NULL );
     6a8:	2000      	movs	r0, #0
     6aa:	4b64      	ldr	r3, [pc, #400]	; (83c <vCommandConsoleTask+0x1d0>)
     6ac:	4798      	blx	r3
            cInputIndex = 0;
     6ae:	2400      	movs	r4, #0
int ret = SerialConsoleReadCharacter(character);
     6b0:	4b63      	ldr	r3, [pc, #396]	; (840 <vCommandConsoleTask+0x1d4>)
     6b2:	4699      	mov	r9, r3
	xSemaphoreTake(cliCharReadySemaphore, portMAX_DELAY);
     6b4:	4b5e      	ldr	r3, [pc, #376]	; (830 <vCommandConsoleTask+0x1c4>)
     6b6:	469a      	mov	sl, r3
     6b8:	e033      	b.n	722 <vCommandConsoleTask+0xb6>
     6ba:	2101      	movs	r1, #1
     6bc:	4249      	negs	r1, r1
     6be:	4653      	mov	r3, sl
     6c0:	6818      	ldr	r0, [r3, #0]
     6c2:	4b60      	ldr	r3, [pc, #384]	; (844 <vCommandConsoleTask+0x1d8>)
     6c4:	4798      	blx	r3
	SerialConsoleReadCharacter(character);
     6c6:	a801      	add	r0, sp, #4
     6c8:	4b5d      	ldr	r3, [pc, #372]	; (840 <vCommandConsoleTask+0x1d4>)
     6ca:	4798      	blx	r3
     6cc:	e02d      	b.n	72a <vCommandConsoleTask+0xbe>
            SerialConsoleWriteString("\r\n");
     6ce:	485e      	ldr	r0, [pc, #376]	; (848 <vCommandConsoleTask+0x1dc>)
     6d0:	4b55      	ldr	r3, [pc, #340]	; (828 <vCommandConsoleTask+0x1bc>)
     6d2:	4798      	blx	r3
			isEscapeCode = false; pcEscapeCodePos = 0;
     6d4:	2400      	movs	r4, #0
     6d6:	4b5d      	ldr	r3, [pc, #372]	; (84c <vCommandConsoleTask+0x1e0>)
     6d8:	701c      	strb	r4, [r3, #0]
     6da:	4b5d      	ldr	r3, [pc, #372]	; (850 <vCommandConsoleTask+0x1e4>)
     6dc:	701c      	strb	r4, [r3, #0]
			strncpy(pcLastCommand, pcInputString, MAX_INPUT_LENGTH_CLI-1);
     6de:	4d5d      	ldr	r5, [pc, #372]	; (854 <vCommandConsoleTask+0x1e8>)
     6e0:	2231      	movs	r2, #49	; 0x31
     6e2:	495d      	ldr	r1, [pc, #372]	; (858 <vCommandConsoleTask+0x1ec>)
     6e4:	0028      	movs	r0, r5
     6e6:	4b5d      	ldr	r3, [pc, #372]	; (85c <vCommandConsoleTask+0x1f0>)
     6e8:	4798      	blx	r3
			pcLastCommand[MAX_INPUT_LENGTH_CLI-1] = 0;	//Ensure null termination
     6ea:	2331      	movs	r3, #49	; 0x31
     6ec:	54ec      	strb	r4, [r5, r3]
                xMoreDataToFollow = FreeRTOS_CLIProcessCommand
     6ee:	4c5c      	ldr	r4, [pc, #368]	; (860 <vCommandConsoleTask+0x1f4>)
     6f0:	4e59      	ldr	r6, [pc, #356]	; (858 <vCommandConsoleTask+0x1ec>)
     6f2:	4f5c      	ldr	r7, [pc, #368]	; (864 <vCommandConsoleTask+0x1f8>)
     6f4:	2264      	movs	r2, #100	; 0x64
     6f6:	0021      	movs	r1, r4
     6f8:	0030      	movs	r0, r6
     6fa:	47b8      	blx	r7
     6fc:	0005      	movs	r5, r0
				pcOutputString[MAX_OUTPUT_LENGTH_CLI - 1] = 0;
     6fe:	2200      	movs	r2, #0
     700:	2363      	movs	r3, #99	; 0x63
     702:	54e2      	strb	r2, [r4, r3]
                SerialConsoleWriteString(pcOutputString);
     704:	0020      	movs	r0, r4
     706:	4b48      	ldr	r3, [pc, #288]	; (828 <vCommandConsoleTask+0x1bc>)
     708:	4798      	blx	r3
            } while( xMoreDataToFollow != pdFALSE );
     70a:	2d00      	cmp	r5, #0
     70c:	d1f2      	bne.n	6f4 <vCommandConsoleTask+0x88>
            memset( pcInputString, 0x00, MAX_INPUT_LENGTH_CLI );
     70e:	2232      	movs	r2, #50	; 0x32
     710:	2100      	movs	r1, #0
     712:	4851      	ldr	r0, [pc, #324]	; (858 <vCommandConsoleTask+0x1ec>)
     714:	4c54      	ldr	r4, [pc, #336]	; (868 <vCommandConsoleTask+0x1fc>)
     716:	47a0      	blx	r4
			memset( pcOutputString, 0, MAX_OUTPUT_LENGTH_CLI);
     718:	2264      	movs	r2, #100	; 0x64
     71a:	2100      	movs	r1, #0
     71c:	4850      	ldr	r0, [pc, #320]	; (860 <vCommandConsoleTask+0x1f4>)
     71e:	47a0      	blx	r4
            cInputIndex = 0;
     720:	2400      	movs	r4, #0
int ret = SerialConsoleReadCharacter(character);
     722:	a801      	add	r0, sp, #4
     724:	47c8      	blx	r9
if(ret == -1)
     726:	1c43      	adds	r3, r0, #1
     728:	d0c7      	beq.n	6ba <vCommandConsoleTask+0x4e>
	if( cRxedChar[0] == '\n' || cRxedChar[0] == '\r'  )
     72a:	466b      	mov	r3, sp
     72c:	791b      	ldrb	r3, [r3, #4]
     72e:	2b0a      	cmp	r3, #10
     730:	d0cd      	beq.n	6ce <vCommandConsoleTask+0x62>
     732:	2b0d      	cmp	r3, #13
     734:	d0cb      	beq.n	6ce <vCommandConsoleTask+0x62>
			if (true == isEscapeCode) {
     736:	4a45      	ldr	r2, [pc, #276]	; (84c <vCommandConsoleTask+0x1e0>)
     738:	7812      	ldrb	r2, [r2, #0]
     73a:	2a00      	cmp	r2, #0
     73c:	d03f      	beq.n	7be <vCommandConsoleTask+0x152>
				if(pcEscapeCodePos < CLI_PC_ESCAPE_CODE_SIZE) {
     73e:	4a44      	ldr	r2, [pc, #272]	; (850 <vCommandConsoleTask+0x1e4>)
     740:	7812      	ldrb	r2, [r2, #0]
     742:	2a03      	cmp	r2, #3
     744:	d813      	bhi.n	76e <vCommandConsoleTask+0x102>
					pcEscapeCodes[pcEscapeCodePos++] = cRxedChar[0];
     746:	1c51      	adds	r1, r2, #1
     748:	b2c9      	uxtb	r1, r1
     74a:	4841      	ldr	r0, [pc, #260]	; (850 <vCommandConsoleTask+0x1e4>)
     74c:	7001      	strb	r1, [r0, #0]
     74e:	4847      	ldr	r0, [pc, #284]	; (86c <vCommandConsoleTask+0x200>)
     750:	5483      	strb	r3, [r0, r2]
				if (pcEscapeCodePos >= CLI_PC_MIN_ESCAPE_CODE_SIZE) {
     752:	2901      	cmp	r1, #1
     754:	d9e5      	bls.n	722 <vCommandConsoleTask+0xb6>
					if(strcasecmp(pcEscapeCodes, "oa"))	{
     756:	4946      	ldr	r1, [pc, #280]	; (870 <vCommandConsoleTask+0x204>)
     758:	4844      	ldr	r0, [pc, #272]	; (86c <vCommandConsoleTask+0x200>)
     75a:	4b46      	ldr	r3, [pc, #280]	; (874 <vCommandConsoleTask+0x208>)
     75c:	4798      	blx	r3
     75e:	2800      	cmp	r0, #0
     760:	d10b      	bne.n	77a <vCommandConsoleTask+0x10e>
					isEscapeCode = false; pcEscapeCodePos = 0;
     762:	2300      	movs	r3, #0
     764:	4a39      	ldr	r2, [pc, #228]	; (84c <vCommandConsoleTask+0x1e0>)
     766:	7013      	strb	r3, [r2, #0]
     768:	4a39      	ldr	r2, [pc, #228]	; (850 <vCommandConsoleTask+0x1e4>)
     76a:	7013      	strb	r3, [r2, #0]
     76c:	e7d9      	b.n	722 <vCommandConsoleTask+0xb6>
					isEscapeCode = false; pcEscapeCodePos = 0;
     76e:	2300      	movs	r3, #0
     770:	4a36      	ldr	r2, [pc, #216]	; (84c <vCommandConsoleTask+0x1e0>)
     772:	7013      	strb	r3, [r2, #0]
     774:	4a36      	ldr	r2, [pc, #216]	; (850 <vCommandConsoleTask+0x1e4>)
     776:	7013      	strb	r3, [r2, #0]
     778:	e7d3      	b.n	722 <vCommandConsoleTask+0xb6>
                            sprintf(pcInputString, "%c[2K\r>", 27);
     77a:	4c37      	ldr	r4, [pc, #220]	; (858 <vCommandConsoleTask+0x1ec>)
     77c:	221b      	movs	r2, #27
     77e:	493e      	ldr	r1, [pc, #248]	; (878 <vCommandConsoleTask+0x20c>)
     780:	0020      	movs	r0, r4
     782:	4b3e      	ldr	r3, [pc, #248]	; (87c <vCommandConsoleTask+0x210>)
     784:	4798      	blx	r3
				            SerialConsoleWriteString((char*)pcInputString);
     786:	0020      	movs	r0, r4
     788:	4b27      	ldr	r3, [pc, #156]	; (828 <vCommandConsoleTask+0x1bc>)
     78a:	4798      	blx	r3
                            memset( pcInputString, 0x00, MAX_INPUT_LENGTH_CLI );
     78c:	2232      	movs	r2, #50	; 0x32
     78e:	2100      	movs	r1, #0
     790:	0020      	movs	r0, r4
     792:	4b35      	ldr	r3, [pc, #212]	; (868 <vCommandConsoleTask+0x1fc>)
     794:	4798      	blx	r3
						strncpy(pcInputString, pcLastCommand, MAX_INPUT_LENGTH_CLI - 1); 	
     796:	2231      	movs	r2, #49	; 0x31
     798:	492e      	ldr	r1, [pc, #184]	; (854 <vCommandConsoleTask+0x1e8>)
     79a:	0020      	movs	r0, r4
     79c:	4b2f      	ldr	r3, [pc, #188]	; (85c <vCommandConsoleTask+0x1f0>)
     79e:	4798      	blx	r3
                        cInputIndex = (strlen(pcInputString) < MAX_INPUT_LENGTH_CLI - 1) ? strlen(pcLastCommand) : MAX_INPUT_LENGTH_CLI - 1;
     7a0:	0020      	movs	r0, r4
     7a2:	4b37      	ldr	r3, [pc, #220]	; (880 <vCommandConsoleTask+0x214>)
     7a4:	4798      	blx	r3
     7a6:	2431      	movs	r4, #49	; 0x31
     7a8:	2830      	cmp	r0, #48	; 0x30
     7aa:	d803      	bhi.n	7b4 <vCommandConsoleTask+0x148>
     7ac:	4829      	ldr	r0, [pc, #164]	; (854 <vCommandConsoleTask+0x1e8>)
     7ae:	4b34      	ldr	r3, [pc, #208]	; (880 <vCommandConsoleTask+0x214>)
     7b0:	4798      	blx	r3
     7b2:	0004      	movs	r4, r0
     7b4:	b2e4      	uxtb	r4, r4
						SerialConsoleWriteString(pcInputString);
     7b6:	4828      	ldr	r0, [pc, #160]	; (858 <vCommandConsoleTask+0x1ec>)
     7b8:	4b1b      	ldr	r3, [pc, #108]	; (828 <vCommandConsoleTask+0x1bc>)
     7ba:	4798      	blx	r3
     7bc:	e7d1      	b.n	762 <vCommandConsoleTask+0xf6>
            else if( cRxedChar[0] == ASCII_BACKSPACE || cRxedChar[0] == ASCII_DELETE )
     7be:	2b08      	cmp	r3, #8
     7c0:	d010      	beq.n	7e4 <vCommandConsoleTask+0x178>
     7c2:	2b7f      	cmp	r3, #127	; 0x7f
     7c4:	d00e      	beq.n	7e4 <vCommandConsoleTask+0x178>
			else if( cRxedChar[0] == ASCII_ESC) {
     7c6:	2b1b      	cmp	r3, #27
     7c8:	d01a      	beq.n	800 <vCommandConsoleTask+0x194>
                if( cInputIndex < MAX_INPUT_LENGTH_CLI )
     7ca:	2c31      	cmp	r4, #49	; 0x31
     7cc:	d803      	bhi.n	7d6 <vCommandConsoleTask+0x16a>
                    pcInputString[ cInputIndex ] = cRxedChar[0];
     7ce:	4a22      	ldr	r2, [pc, #136]	; (858 <vCommandConsoleTask+0x1ec>)
     7d0:	5513      	strb	r3, [r2, r4]
                    cInputIndex++;
     7d2:	3401      	adds	r4, #1
     7d4:	b2e4      	uxtb	r4, r4
					cRxedChar[1] = 0;
     7d6:	2300      	movs	r3, #0
     7d8:	466a      	mov	r2, sp
     7da:	7153      	strb	r3, [r2, #5]
					SerialConsoleWriteString(&cRxedChar[0]);
     7dc:	a801      	add	r0, sp, #4
     7de:	4b12      	ldr	r3, [pc, #72]	; (828 <vCommandConsoleTask+0x1bc>)
     7e0:	4798      	blx	r3
     7e2:	e79e      	b.n	722 <vCommandConsoleTask+0xb6>
				char erase[4] = {0x08, 0x20, 0x08, 0x00};
     7e4:	4b27      	ldr	r3, [pc, #156]	; (884 <vCommandConsoleTask+0x218>)
     7e6:	681b      	ldr	r3, [r3, #0]
     7e8:	9300      	str	r3, [sp, #0]
				SerialConsoleWriteString(erase);
     7ea:	4668      	mov	r0, sp
     7ec:	4b0e      	ldr	r3, [pc, #56]	; (828 <vCommandConsoleTask+0x1bc>)
     7ee:	4798      	blx	r3
                if( cInputIndex > 0 )
     7f0:	2c00      	cmp	r4, #0
     7f2:	d096      	beq.n	722 <vCommandConsoleTask+0xb6>
                    cInputIndex--;
     7f4:	3c01      	subs	r4, #1
     7f6:	b2e4      	uxtb	r4, r4
                    pcInputString[ cInputIndex ] = 0;
     7f8:	2200      	movs	r2, #0
     7fa:	4b17      	ldr	r3, [pc, #92]	; (858 <vCommandConsoleTask+0x1ec>)
     7fc:	551a      	strb	r2, [r3, r4]
            {
     7fe:	e790      	b.n	722 <vCommandConsoleTask+0xb6>
				isEscapeCode = true; //Next characters will be code arguments
     800:	2201      	movs	r2, #1
     802:	4b12      	ldr	r3, [pc, #72]	; (84c <vCommandConsoleTask+0x1e0>)
     804:	701a      	strb	r2, [r3, #0]
				pcEscapeCodePos = 0;
     806:	2200      	movs	r2, #0
     808:	4b11      	ldr	r3, [pc, #68]	; (850 <vCommandConsoleTask+0x1e4>)
     80a:	701a      	strb	r2, [r3, #0]
     80c:	e789      	b.n	722 <vCommandConsoleTask+0xb6>
     80e:	46c0      	nop			; (mov r8, r8)
     810:	00009860 	.word	0x00009860
     814:	00001a99 	.word	0x00001a99
     818:	00009848 	.word	0x00009848
     81c:	00009880 	.word	0x00009880
     820:	00009870 	.word	0x00009870
     824:	000097d8 	.word	0x000097d8
     828:	000056dd 	.word	0x000056dd
     82c:	000032f9 	.word	0x000032f9
     830:	20003864 	.word	0x20003864
     834:	0000981c 	.word	0x0000981c
     838:	0000578d 	.word	0x0000578d
     83c:	00004a59 	.word	0x00004a59
     840:	00005761 	.word	0x00005761
     844:	00003ddd 	.word	0x00003ddd
     848:	0000a9dc 	.word	0x0000a9dc
     84c:	2000023e 	.word	0x2000023e
     850:	2000023f 	.word	0x2000023f
     854:	20000278 	.word	0x20000278
     858:	20000244 	.word	0x20000244
     85c:	00008f5d 	.word	0x00008f5d
     860:	200002ac 	.word	0x200002ac
     864:	00001add 	.word	0x00001add
     868:	00008cc3 	.word	0x00008cc3
     86c:	20000240 	.word	0x20000240
     870:	0000983c 	.word	0x0000983c
     874:	00008ef1 	.word	0x00008ef1
     878:	00009840 	.word	0x00009840
     87c:	00008ead 	.word	0x00008ead
     880:	00008f2d 	.word	0x00008f2d
     884:	000096c4 	.word	0x000096c4

00000888 <CliCharReadySemaphoreGiveFromISR>:
{
     888:	b510      	push	{r4, lr}
	xHigherPriorityTaskWoken = pdFALSE;
     88a:	4c08      	ldr	r4, [pc, #32]	; (8ac <CliCharReadySemaphoreGiveFromISR+0x24>)
     88c:	2300      	movs	r3, #0
     88e:	6023      	str	r3, [r4, #0]
	xSemaphoreGiveFromISR( cliCharReadySemaphore, &xHigherPriorityTaskWoken );
     890:	4b07      	ldr	r3, [pc, #28]	; (8b0 <CliCharReadySemaphoreGiveFromISR+0x28>)
     892:	6818      	ldr	r0, [r3, #0]
     894:	0021      	movs	r1, r4
     896:	4b07      	ldr	r3, [pc, #28]	; (8b4 <CliCharReadySemaphoreGiveFromISR+0x2c>)
     898:	4798      	blx	r3
	portYIELD_FROM_ISR( xHigherPriorityTaskWoken );
     89a:	6823      	ldr	r3, [r4, #0]
     89c:	2b00      	cmp	r3, #0
     89e:	d003      	beq.n	8a8 <CliCharReadySemaphoreGiveFromISR+0x20>
     8a0:	2280      	movs	r2, #128	; 0x80
     8a2:	0552      	lsls	r2, r2, #21
     8a4:	4b04      	ldr	r3, [pc, #16]	; (8b8 <CliCharReadySemaphoreGiveFromISR+0x30>)
     8a6:	601a      	str	r2, [r3, #0]
}
     8a8:	bd10      	pop	{r4, pc}
     8aa:	46c0      	nop			; (mov r8, r8)
     8ac:	20000310 	.word	0x20000310
     8b0:	20003864 	.word	0x20003864
     8b4:	00003ac1 	.word	0x00003ac1
     8b8:	e000ed04 	.word	0xe000ed04

000008bc <I2cSensorsTxComplete>:
				and is currently waiting for a notification that it has finished.
 * @param[in]   i2c Pointer to I2C structure used inside the Atmel ASFv3  framework
 * @return      This function is a callback, and it is registered as such when we send an I2C transmission on this I2C bus.
 * @note        
 *****************************************************************************/
void I2cSensorsTxComplete(struct i2c_master_module *const module){
     8bc:	b510      	push	{r4, lr}
     8be:	b082      	sub	sp, #8
	
	I2cSensorBusState.i2cState = I2C_BUS_READY;
     8c0:	4b0a      	ldr	r3, [pc, #40]	; (8ec <I2cSensorsTxComplete+0x30>)
     8c2:	2400      	movs	r4, #0
     8c4:	701c      	strb	r4, [r3, #0]
	I2cSensorBusState.rxDoneFlag = true;			
     8c6:	2201      	movs	r2, #1
     8c8:	609a      	str	r2, [r3, #8]
	BaseType_t xHigherPriorityTaskWoken = pdFALSE;
     8ca:	9401      	str	r4, [sp, #4]
	
	xSemaphoreGiveFromISR( sensorI2cSemaphoreHandle, &xHigherPriorityTaskWoken );
     8cc:	4b08      	ldr	r3, [pc, #32]	; (8f0 <I2cSensorsTxComplete+0x34>)
     8ce:	6818      	ldr	r0, [r3, #0]
     8d0:	a901      	add	r1, sp, #4
     8d2:	4b08      	ldr	r3, [pc, #32]	; (8f4 <I2cSensorsTxComplete+0x38>)
     8d4:	4798      	blx	r3
	sensorTransmitError = false;
     8d6:	4b08      	ldr	r3, [pc, #32]	; (8f8 <I2cSensorsTxComplete+0x3c>)
     8d8:	701c      	strb	r4, [r3, #0]
	portYIELD_FROM_ISR( xHigherPriorityTaskWoken );
     8da:	9b01      	ldr	r3, [sp, #4]
     8dc:	2b00      	cmp	r3, #0
     8de:	d003      	beq.n	8e8 <I2cSensorsTxComplete+0x2c>
     8e0:	2280      	movs	r2, #128	; 0x80
     8e2:	0552      	lsls	r2, r2, #21
     8e4:	4b05      	ldr	r3, [pc, #20]	; (8fc <I2cSensorsTxComplete+0x40>)
     8e6:	601a      	str	r2, [r3, #0]
}
     8e8:	b002      	add	sp, #8
     8ea:	bd10      	pop	{r4, pc}
     8ec:	20000314 	.word	0x20000314
     8f0:	20003894 	.word	0x20003894
     8f4:	00003ac1 	.word	0x00003ac1
     8f8:	20000328 	.word	0x20000328
     8fc:	e000ed04 	.word	0xe000ed04

00000900 <I2cSensorsRxComplete>:
					and is currently waiting for a notification that it has finished.
 * @param[in]		i2c Pointer to I2C structure used inside the Atmel ASFv3  framework
 * @return			This function is a callback, and it is registered as such when we send an I2C reception on this I2C bus.
 * @note        
 *****************************************************************************/
void I2cSensorsRxComplete(struct i2c_master_module *const module){
     900:	b510      	push	{r4, lr}
     902:	b082      	sub	sp, #8
	
	I2cSensorBusState.i2cState = I2C_BUS_READY;
     904:	4b0a      	ldr	r3, [pc, #40]	; (930 <I2cSensorsRxComplete+0x30>)
     906:	2400      	movs	r4, #0
     908:	701c      	strb	r4, [r3, #0]
	I2cSensorBusState.rxDoneFlag = true;
     90a:	2201      	movs	r2, #1
     90c:	609a      	str	r2, [r3, #8]
	BaseType_t xHigherPriorityTaskWoken = pdFALSE;
     90e:	9401      	str	r4, [sp, #4]
	
	xSemaphoreGiveFromISR( sensorI2cSemaphoreHandle, &xHigherPriorityTaskWoken );
     910:	4b08      	ldr	r3, [pc, #32]	; (934 <I2cSensorsRxComplete+0x34>)
     912:	6818      	ldr	r0, [r3, #0]
     914:	a901      	add	r1, sp, #4
     916:	4b08      	ldr	r3, [pc, #32]	; (938 <I2cSensorsRxComplete+0x38>)
     918:	4798      	blx	r3
	sensorTransmitError = false;
     91a:	4b08      	ldr	r3, [pc, #32]	; (93c <I2cSensorsRxComplete+0x3c>)
     91c:	701c      	strb	r4, [r3, #0]
	portYIELD_FROM_ISR( xHigherPriorityTaskWoken );
     91e:	9b01      	ldr	r3, [sp, #4]
     920:	2b00      	cmp	r3, #0
     922:	d003      	beq.n	92c <I2cSensorsRxComplete+0x2c>
     924:	2280      	movs	r2, #128	; 0x80
     926:	0552      	lsls	r2, r2, #21
     928:	4b05      	ldr	r3, [pc, #20]	; (940 <I2cSensorsRxComplete+0x40>)
     92a:	601a      	str	r2, [r3, #0]
}
     92c:	b002      	add	sp, #8
     92e:	bd10      	pop	{r4, pc}
     930:	20000314 	.word	0x20000314
     934:	20003894 	.word	0x20003894
     938:	00003ac1 	.word	0x00003ac1
     93c:	20000328 	.word	0x20000328
     940:	e000ed04 	.word	0xe000ed04

00000944 <I2cSensorsError>:
					and is currently waiting for a notification that it has finished.
 * @param[in]		i2c Pointer to I2C structure used inside the Atmel ASFv3  framework
 * @return			This function is a callback, and it is registered as such when we send an I2C reception on this I2C bus.
 * @note        
 *****************************************************************************/
void I2cSensorsError(struct i2c_master_module *const module){
     944:	b510      	push	{r4, lr}
     946:	b082      	sub	sp, #8
	
	I2cSensorBusState.i2cState = I2C_BUS_READY;
     948:	4b0a      	ldr	r3, [pc, #40]	; (974 <I2cSensorsError+0x30>)
     94a:	2400      	movs	r4, #0
     94c:	701c      	strb	r4, [r3, #0]
	I2cSensorBusState.txDoneFlag = true;
     94e:	2201      	movs	r2, #1
     950:	605a      	str	r2, [r3, #4]
	BaseType_t xHigherPriorityTaskWoken = pdFALSE;
     952:	9401      	str	r4, [sp, #4]
	
	xSemaphoreGiveFromISR( sensorI2cSemaphoreHandle, &xHigherPriorityTaskWoken );
     954:	4b08      	ldr	r3, [pc, #32]	; (978 <I2cSensorsError+0x34>)
     956:	6818      	ldr	r0, [r3, #0]
     958:	a901      	add	r1, sp, #4
     95a:	4b08      	ldr	r3, [pc, #32]	; (97c <I2cSensorsError+0x38>)
     95c:	4798      	blx	r3
	sensorTransmitError = false;
     95e:	4b08      	ldr	r3, [pc, #32]	; (980 <I2cSensorsError+0x3c>)
     960:	701c      	strb	r4, [r3, #0]
	portYIELD_FROM_ISR( xHigherPriorityTaskWoken );
     962:	9b01      	ldr	r3, [sp, #4]
     964:	2b00      	cmp	r3, #0
     966:	d003      	beq.n	970 <I2cSensorsError+0x2c>
     968:	2280      	movs	r2, #128	; 0x80
     96a:	0552      	lsls	r2, r2, #21
     96c:	4b05      	ldr	r3, [pc, #20]	; (984 <I2cSensorsError+0x40>)
     96e:	601a      	str	r2, [r3, #0]
}
     970:	b002      	add	sp, #8
     972:	bd10      	pop	{r4, pc}
     974:	20000314 	.word	0x20000314
     978:	20003894 	.word	0x20003894
     97c:	00003ac1 	.word	0x00003ac1
     980:	20000328 	.word	0x20000328
     984:	e000ed04 	.word	0xe000ed04

00000988 <I2cDriverRegisterSensorBusCallbacks>:



void I2cDriverRegisterSensorBusCallbacks(void)
{
     988:	b570      	push	{r4, r5, r6, lr}
	/* Register callback function. */
	i2c_master_register_callback(&i2cSensorBusInstance, I2cSensorsTxComplete,I2C_MASTER_CALLBACK_WRITE_COMPLETE);
     98a:	4c0c      	ldr	r4, [pc, #48]	; (9bc <I2cDriverRegisterSensorBusCallbacks+0x34>)
     98c:	2200      	movs	r2, #0
     98e:	490c      	ldr	r1, [pc, #48]	; (9c0 <I2cDriverRegisterSensorBusCallbacks+0x38>)
     990:	0020      	movs	r0, r4
     992:	4d0c      	ldr	r5, [pc, #48]	; (9c4 <I2cDriverRegisterSensorBusCallbacks+0x3c>)
     994:	47a8      	blx	r5
	/* Sanity check */
	Assert(module);
	Assert(module->hw);

	/* Mark callback as enabled */
	module->enabled_callback |= (1 << callback_type);
     996:	7e63      	ldrb	r3, [r4, #25]
     998:	2201      	movs	r2, #1
     99a:	4313      	orrs	r3, r2
     99c:	7663      	strb	r3, [r4, #25]
	i2c_master_enable_callback(&i2cSensorBusInstance,I2C_MASTER_CALLBACK_WRITE_COMPLETE);
	
	i2c_master_register_callback(&i2cSensorBusInstance, I2cSensorsRxComplete, I2C_MASTER_CALLBACK_READ_COMPLETE);
     99e:	490a      	ldr	r1, [pc, #40]	; (9c8 <I2cDriverRegisterSensorBusCallbacks+0x40>)
     9a0:	0020      	movs	r0, r4
     9a2:	47a8      	blx	r5
     9a4:	7e63      	ldrb	r3, [r4, #25]
     9a6:	2202      	movs	r2, #2
     9a8:	4313      	orrs	r3, r2
     9aa:	7663      	strb	r3, [r4, #25]
	i2c_master_enable_callback(&i2cSensorBusInstance,I2C_MASTER_CALLBACK_READ_COMPLETE);
	
	i2c_master_register_callback(&i2cSensorBusInstance, I2cSensorsError,I2C_MASTER_CALLBACK_ERROR);
     9ac:	4907      	ldr	r1, [pc, #28]	; (9cc <I2cDriverRegisterSensorBusCallbacks+0x44>)
     9ae:	0020      	movs	r0, r4
     9b0:	47a8      	blx	r5
     9b2:	7e63      	ldrb	r3, [r4, #25]
     9b4:	2204      	movs	r2, #4
     9b6:	4313      	orrs	r3, r2
     9b8:	7663      	strb	r3, [r4, #25]
	i2c_master_enable_callback(&i2cSensorBusInstance,I2C_MASTER_CALLBACK_ERROR);
}
     9ba:	bd70      	pop	{r4, r5, r6, pc}
     9bc:	2000386c 	.word	0x2000386c
     9c0:	000008bd 	.word	0x000008bd
     9c4:	00000315 	.word	0x00000315
     9c8:	00000901 	.word	0x00000901
     9cc:	00000945 	.word	0x00000945

000009d0 <I2cInitializeDriver>:
 * @fn			int32_t I2cInitializeDriver(void)
 * @brief       Function call to initialize the I2C driver\
 * @details     This function must be called from an RTOS thread if using RTOS, and must be called before any I2C call
 * @note        
 *****************************************************************************/
 int32_t I2cInitializeDriver(void){
     9d0:	b570      	push	{r4, r5, r6, lr}
     9d2:	b08e      	sub	sp, #56	; 0x38
static inline void i2c_master_get_config_defaults(
		struct i2c_master_config *const config)
{
	/*Sanity check argument */
	Assert(config);
	config->baud_rate        = I2C_MASTER_BAUD_RATE_100KHZ;
     9d4:	ab01      	add	r3, sp, #4
     9d6:	2264      	movs	r2, #100	; 0x64
     9d8:	9201      	str	r2, [sp, #4]
#ifdef FEATURE_I2C_FAST_MODE_PLUS_AND_HIGH_SPEED
	config->baud_rate_high_speed = I2C_MASTER_BAUD_RATE_3400KHZ;
     9da:	4a33      	ldr	r2, [pc, #204]	; (aa8 <I2cInitializeDriver+0xd8>)
     9dc:	9202      	str	r2, [sp, #8]
	config->transfer_speed       = I2C_MASTER_SPEED_STANDARD_AND_FAST;
     9de:	2200      	movs	r2, #0
     9e0:	9203      	str	r2, [sp, #12]
#endif
	config->generator_source = GCLK_GENERATOR_0;
     9e2:	731a      	strb	r2, [r3, #12]
	config->run_in_standby   = false;
     9e4:	761a      	strb	r2, [r3, #24]
	config->start_hold_time  = I2C_MASTER_START_HOLD_TIME_300NS_600NS;
     9e6:	2180      	movs	r1, #128	; 0x80
     9e8:	0389      	lsls	r1, r1, #14
     9ea:	9105      	str	r1, [sp, #20]
	config->buffer_timeout   = 65535;
	config->unknown_bus_state_timeout = 65535;
     9ec:	2101      	movs	r1, #1
     9ee:	4249      	negs	r1, r1
     9f0:	8299      	strh	r1, [r3, #20]
	config->pinmux_pad0      = PINMUX_DEFAULT;
	config->pinmux_pad1      = PINMUX_DEFAULT;
	config->scl_low_timeout  = false;
     9f2:	3125      	adds	r1, #37	; 0x25
     9f4:	545a      	strb	r2, [r3, r1]
	config->inactive_timeout = I2C_MASTER_INACTIVE_TIMEOUT_DISABLED;
     9f6:	920b      	str	r2, [sp, #44]	; 0x2c
#ifdef FEATURE_I2C_SCL_STRETCH_MODE
	config->scl_stretch_only_after_ack_bit = false;
     9f8:	3108      	adds	r1, #8
     9fa:	545a      	strb	r2, [r3, r1]
#endif
#ifdef FEATURE_I2C_SCL_EXTEND_TIMEOUT
	config->slave_scl_low_extend_timeout   = false;
     9fc:	3101      	adds	r1, #1
     9fe:	545a      	strb	r2, [r3, r1]
	config->master_scl_low_extend_timeout  = false;
     a00:	3101      	adds	r1, #1
     a02:	545a      	strb	r2, [r3, r1]
#endif
	/* The typical value is 215ns */
	config->sda_scl_rise_time_ns = 215;
     a04:	32d7      	adds	r2, #215	; 0xd7
     a06:	861a      	strh	r2, [r3, #48]	; 0x30
	config_i2c_master.pinmux_pad0 = PINMUX_PA08C_SERCOM0_PAD0;
     a08:	4a28      	ldr	r2, [pc, #160]	; (aac <I2cInitializeDriver+0xdc>)
     a0a:	9208      	str	r2, [sp, #32]
	config_i2c_master.pinmux_pad1 = PINMUX_PA09C_SERCOM0_PAD1;
     a0c:	4a28      	ldr	r2, [pc, #160]	; (ab0 <I2cInitializeDriver+0xe0>)
     a0e:	9209      	str	r2, [sp, #36]	; 0x24
	config_i2c_master.buffer_timeout = 1000;
     a10:	22fa      	movs	r2, #250	; 0xfa
     a12:	0092      	lsls	r2, r2, #2
     a14:	82da      	strh	r2, [r3, #22]
     a16:	2403      	movs	r4, #3
		errCodeAsf = i2c_master_init(&i2cSensorBusInstance, SERCOM0, &config_i2c_master);
     a18:	4d26      	ldr	r5, [pc, #152]	; (ab4 <I2cInitializeDriver+0xe4>)
     a1a:	4e27      	ldr	r6, [pc, #156]	; (ab8 <I2cInitializeDriver+0xe8>)
     a1c:	aa01      	add	r2, sp, #4
     a1e:	4927      	ldr	r1, [pc, #156]	; (abc <I2cInitializeDriver+0xec>)
     a20:	0028      	movs	r0, r5
     a22:	47b0      	blx	r6
		if(STATUS_OK == errCodeAsf){
     a24:	2800      	cmp	r0, #0
     a26:	d006      	beq.n	a36 <I2cInitializeDriver+0x66>
			i2c_master_reset(&i2cSensorBusInstance);
     a28:	4822      	ldr	r0, [pc, #136]	; (ab4 <I2cInitializeDriver+0xe4>)
     a2a:	4b25      	ldr	r3, [pc, #148]	; (ac0 <I2cInitializeDriver+0xf0>)
     a2c:	4798      	blx	r3
     a2e:	3c01      	subs	r4, #1
     a30:	b2e4      	uxtb	r4, r4
	for(uint8_t i = I2C_INIT_ATTEMPTS; i != 0; i--){
     a32:	2c00      	cmp	r4, #0
     a34:	d1f2      	bne.n	a1c <I2cInitializeDriver+0x4c>
{
	/* Sanity check of arguments */
	Assert(module);
	Assert(module->hw);

	SercomI2cm *const i2c_module = &(module->hw->I2CM);
     a36:	4b1f      	ldr	r3, [pc, #124]	; (ab4 <I2cInitializeDriver+0xe4>)
     a38:	681c      	ldr	r4, [r3, #0]
	return (i2c_hw->SYNCBUSY.reg & SERCOM_I2CM_SYNCBUSY_MASK);
     a3a:	2207      	movs	r2, #7
     a3c:	69e3      	ldr	r3, [r4, #28]
	while (i2c_master_is_syncing(module)) {
     a3e:	421a      	tst	r2, r3
     a40:	d1fc      	bne.n	a3c <I2cInitializeDriver+0x6c>

	/* Wait for module to sync */
	_i2c_master_wait_for_sync(module);

	/* Enable module */
	i2c_module->CTRLA.reg |= SERCOM_I2CM_CTRLA_ENABLE;
     a42:	6823      	ldr	r3, [r4, #0]
     a44:	2202      	movs	r2, #2
     a46:	4313      	orrs	r3, r2
     a48:	6023      	str	r3, [r4, #0]

#if I2C_MASTER_CALLBACK_MODE == true
	/* Enable module interrupts */
	system_interrupt_enable(_sercom_get_interrupt_vector(module->hw));
     a4a:	4d1a      	ldr	r5, [pc, #104]	; (ab4 <I2cInitializeDriver+0xe4>)
     a4c:	6828      	ldr	r0, [r5, #0]
     a4e:	4b1d      	ldr	r3, [pc, #116]	; (ac4 <I2cInitializeDriver+0xf4>)
     a50:	4798      	blx	r3
 * \param[in] vector Interrupt vector to enable
 */
static inline void system_interrupt_enable(
		const enum system_interrupt_vector vector)
{
	NVIC->ISER[0] = (uint32_t)(1 << ((uint32_t)vector & 0x0000001f));
     a52:	231f      	movs	r3, #31
     a54:	4018      	ands	r0, r3
     a56:	3b1e      	subs	r3, #30
     a58:	4083      	lsls	r3, r0
     a5a:	4a1b      	ldr	r2, [pc, #108]	; (ac8 <I2cInitializeDriver+0xf8>)
     a5c:	6013      	str	r3, [r2, #0]
#endif
	/* Start timeout if bus state is unknown */
	while (!(i2c_module->STATUS.reg & SERCOM_I2CM_STATUS_BUSSTATE(1))) {
		timeout_counter++;
		if(timeout_counter >= (module->unknown_bus_state_timeout)) {
     a5e:	88e8      	ldrh	r0, [r5, #6]
	uint32_t timeout_counter = 0;
     a60:	2300      	movs	r3, #0
	while (!(i2c_module->STATUS.reg & SERCOM_I2CM_STATUS_BUSSTATE(1))) {
     a62:	2110      	movs	r1, #16
     a64:	8b62      	ldrh	r2, [r4, #26]
     a66:	420a      	tst	r2, r1
     a68:	d104      	bne.n	a74 <I2cInitializeDriver+0xa4>
		timeout_counter++;
     a6a:	3301      	adds	r3, #1
		if(timeout_counter >= (module->unknown_bus_state_timeout)) {
     a6c:	4283      	cmp	r3, r0
     a6e:	d3f9      	bcc.n	a64 <I2cInitializeDriver+0x94>
			/* Timeout, force bus state to idle */
			i2c_module->STATUS.reg = SERCOM_I2CM_STATUS_BUSSTATE(1);
     a70:	2310      	movs	r3, #16
     a72:	8363      	strh	r3, [r4, #26]


	error = I2cDriverConfigureSensorBus();
	if(STATUS_OK != error) goto exit;
	
	I2cDriverRegisterSensorBusCallbacks();
     a74:	4b15      	ldr	r3, [pc, #84]	; (acc <I2cInitializeDriver+0xfc>)
     a76:	4798      	blx	r3
	
		
	sensorI2cMutexHandle = xSemaphoreCreateMutex();
     a78:	2001      	movs	r0, #1
     a7a:	4b15      	ldr	r3, [pc, #84]	; (ad0 <I2cInitializeDriver+0x100>)
     a7c:	4798      	blx	r3
     a7e:	4c15      	ldr	r4, [pc, #84]	; (ad4 <I2cInitializeDriver+0x104>)
     a80:	6020      	str	r0, [r4, #0]
	
	sensorI2cSemaphoreHandle = xSemaphoreCreateBinary();
     a82:	2203      	movs	r2, #3
     a84:	2100      	movs	r1, #0
     a86:	2001      	movs	r0, #1
     a88:	4b13      	ldr	r3, [pc, #76]	; (ad8 <I2cInitializeDriver+0x108>)
     a8a:	4798      	blx	r3
     a8c:	4b13      	ldr	r3, [pc, #76]	; (adc <I2cInitializeDriver+0x10c>)
     a8e:	6018      	str	r0, [r3, #0]
	//xSemaphoreGive(sensorI2cSemaphoreHandle);

	
	if(NULL == sensorI2cMutexHandle || NULL == sensorI2cSemaphoreHandle){
     a90:	6823      	ldr	r3, [r4, #0]
     a92:	2b00      	cmp	r3, #0
     a94:	d004      	beq.n	aa0 <I2cInitializeDriver+0xd0>
	error = I2cDriverConfigureSensorBus();
     a96:	2300      	movs	r3, #0
	if(NULL == sensorI2cMutexHandle || NULL == sensorI2cSemaphoreHandle){
     a98:	2800      	cmp	r0, #0
     a9a:	d102      	bne.n	aa2 <I2cInitializeDriver+0xd2>
		error = STATUS_SUSPEND;	//Could not initialize mutex!
     a9c:	3306      	adds	r3, #6
     a9e:	e000      	b.n	aa2 <I2cInitializeDriver+0xd2>
     aa0:	2306      	movs	r3, #6
		goto exit;
	}

	exit:
	return error;		
}
     aa2:	0018      	movs	r0, r3
     aa4:	b00e      	add	sp, #56	; 0x38
     aa6:	bd70      	pop	{r4, r5, r6, pc}
     aa8:	00000d48 	.word	0x00000d48
     aac:	00080002 	.word	0x00080002
     ab0:	00090002 	.word	0x00090002
     ab4:	2000386c 	.word	0x2000386c
     ab8:	000015e1 	.word	0x000015e1
     abc:	42000800 	.word	0x42000800
     ac0:	000018d9 	.word	0x000018d9
     ac4:	00005d69 	.word	0x00005d69
     ac8:	e000e100 	.word	0xe000e100
     acc:	00000989 	.word	0x00000989
     ad0:	0000375d 	.word	0x0000375d
     ad4:	20003868 	.word	0x20003868
     ad8:	000032f9 	.word	0x000032f9
     adc:	20003894 	.word	0x20003894

00000ae0 <I2cWriteData>:
 * @param[in]   data Pointer to I2C data structure which has all the information needed to send an I2C message
 * @return      Returns an error message in case of error. See ErrCodes.h
 * @note        
 *****************************************************************************/

int32_t I2cWriteData(I2C_Data *data){
     ae0:	b510      	push	{r4, lr}
	I2C_Bus_State * busI2cState;
	struct i2c_master_packet *writePacket = NULL;
	struct i2c_master_packet *readPacket = NULL;
	
	//Check parameters
	if(data == NULL || data->msgOut == NULL){
     ae2:	2800      	cmp	r0, #0
     ae4:	d012      	beq.n	b0c <I2cWriteData+0x2c>
     ae6:	6843      	ldr	r3, [r0, #4]
     ae8:	2b00      	cmp	r3, #0
     aea:	d012      	beq.n	b12 <I2cWriteData+0x32>
		error = ERR_INVALID_ARG;
		goto exit;
	}

	//Prepare to write
	sensorPacketWrite.address = data->address;
     aec:	490a      	ldr	r1, [pc, #40]	; (b18 <I2cWriteData+0x38>)
     aee:	7802      	ldrb	r2, [r0, #0]
     af0:	800a      	strh	r2, [r1, #0]
	sensorPacketWrite.data = (uint8_t*) data->msgOut;
     af2:	604b      	str	r3, [r1, #4]
	sensorPacketWrite.data_length = data->lenOut;
     af4:	89c3      	ldrh	r3, [r0, #14]
     af6:	804b      	strh	r3, [r1, #2]
	
	//Write

	 hwError = i2c_master_write_packet_job(&i2cSensorBusInstance, &sensorPacketWrite);
     af8:	4808      	ldr	r0, [pc, #32]	; (b1c <I2cWriteData+0x3c>)
     afa:	4b09      	ldr	r3, [pc, #36]	; (b20 <I2cWriteData+0x40>)
     afc:	4798      	blx	r3
	int32_t error = ERROR_NONE;
     afe:	2300      	movs	r3, #0
	
	if(STATUS_OK != hwError)
     b00:	2800      	cmp	r0, #0
     b02:	d101      	bne.n	b08 <I2cWriteData+0x28>
		goto exit;
	}
	
	exit:
	return error;
}
     b04:	0018      	movs	r0, r3
     b06:	bd10      	pop	{r4, pc}
		error = ERROR_IO;
     b08:	3b06      	subs	r3, #6
     b0a:	e7fb      	b.n	b04 <I2cWriteData+0x24>
		error = ERR_INVALID_ARG;
     b0c:	2308      	movs	r3, #8
     b0e:	425b      	negs	r3, r3
     b10:	e7f8      	b.n	b04 <I2cWriteData+0x24>
     b12:	2308      	movs	r3, #8
     b14:	425b      	negs	r3, r3
     b16:	e7f5      	b.n	b04 <I2cWriteData+0x24>
     b18:	20003898 	.word	0x20003898
     b1c:	2000386c 	.word	0x2000386c
     b20:	00000351 	.word	0x00000351

00000b24 <I2cReadData>:
 * @details     
 * @param[in]   data Pointer to I2C data structure which has all the information needed to send an I2C message
 * @return      Returns an error message in case of error. See ErrCodes.h
 * @note        
 *****************************************************************************/
int32_t I2cReadData(I2C_Data *data){
     b24:	b510      	push	{r4, lr}
	struct i2c_master_packet *writePacket = NULL;
	struct i2c_master_packet *readPacket = NULL;
	
	
	//Check parameters
	if(data == NULL || data->msgOut == NULL){
     b26:	2800      	cmp	r0, #0
     b28:	d013      	beq.n	b52 <I2cReadData+0x2e>
     b2a:	6843      	ldr	r3, [r0, #4]
     b2c:	2b00      	cmp	r3, #0
     b2e:	d013      	beq.n	b58 <I2cReadData+0x34>
		error = ERR_INVALID_ARG;
		goto exit;
	}

	//Prepare to read
	sensorPacketWrite.address = data->address;
     b30:	490b      	ldr	r1, [pc, #44]	; (b60 <I2cReadData+0x3c>)
     b32:	7803      	ldrb	r3, [r0, #0]
     b34:	800b      	strh	r3, [r1, #0]
	sensorPacketWrite.data = data->msgIn;
     b36:	6883      	ldr	r3, [r0, #8]
     b38:	604b      	str	r3, [r1, #4]
	sensorPacketWrite.data_length = data->lenIn;
     b3a:	8983      	ldrh	r3, [r0, #12]
     b3c:	804b      	strh	r3, [r1, #2]
	
	//Read

	hwError = i2c_master_read_packet_job(&i2cSensorBusInstance, &sensorPacketWrite);
     b3e:	4809      	ldr	r0, [pc, #36]	; (b64 <I2cReadData+0x40>)
     b40:	4b09      	ldr	r3, [pc, #36]	; (b68 <I2cReadData+0x44>)
     b42:	4798      	blx	r3
	int32_t error = ERROR_NONE;
     b44:	2300      	movs	r3, #0
	
	if(STATUS_OK != hwError)
     b46:	2800      	cmp	r0, #0
     b48:	d101      	bne.n	b4e <I2cReadData+0x2a>
		goto exit;
	}
	
	exit:
	return error;
}
     b4a:	0018      	movs	r0, r3
     b4c:	bd10      	pop	{r4, pc}
		error = ERROR_IO;
     b4e:	3b06      	subs	r3, #6
     b50:	e7fb      	b.n	b4a <I2cReadData+0x26>
		error = ERR_INVALID_ARG;
     b52:	2308      	movs	r3, #8
     b54:	425b      	negs	r3, r3
     b56:	e7f8      	b.n	b4a <I2cReadData+0x26>
     b58:	2308      	movs	r3, #8
     b5a:	425b      	negs	r3, r3
     b5c:	e7f5      	b.n	b4a <I2cReadData+0x26>
     b5e:	46c0      	nop			; (mov r8, r8)
     b60:	20003898 	.word	0x20003898
     b64:	2000386c 	.word	0x2000386c
     b68:	0000032d 	.word	0x0000032d

00000b6c <I2cFreeMutex>:
 * @details     
 * @param[in]   bus Enum that represents the bus in which we are interested to free the mutex of.
 * @return      Returns (ERROR_NONE) if the bus is ready, (ERROR_NOT_INITIALIZED) if it is busy.
 * @note        STUDENTS TO FILL OUT!
 *****************************************************************************/
int32_t I2cFreeMutex(void){
     b6c:	b510      	push	{r4, lr}
	
	int32_t error = ERROR_NONE;
	
	//students to fill out. Check what the function has to return
	
	if(I2cSensorBusState.i2cState == I2C_BUS_READY)
     b6e:	4b08      	ldr	r3, [pc, #32]	; (b90 <I2cFreeMutex+0x24>)
     b70:	781b      	ldrb	r3, [r3, #0]
     b72:	2b00      	cmp	r3, #0
     b74:	d108      	bne.n	b88 <I2cFreeMutex+0x1c>
	{
		xSemaphoreGive(sensorI2cMutexHandle);
     b76:	4b07      	ldr	r3, [pc, #28]	; (b94 <I2cFreeMutex+0x28>)
     b78:	6818      	ldr	r0, [r3, #0]
     b7a:	2300      	movs	r3, #0
     b7c:	2200      	movs	r2, #0
     b7e:	2100      	movs	r1, #0
     b80:	4c05      	ldr	r4, [pc, #20]	; (b98 <I2cFreeMutex+0x2c>)
     b82:	47a0      	blx	r4
	int32_t error = ERROR_NONE;
     b84:	2000      	movs	r0, #0
	{
		error = ERROR_NOT_INITIALIZED;
	}
	
	return error;
}
     b86:	bd10      	pop	{r4, pc}
		error = ERROR_NOT_INITIALIZED;
     b88:	2014      	movs	r0, #20
     b8a:	4240      	negs	r0, r0
	return error;
     b8c:	e7fb      	b.n	b86 <I2cFreeMutex+0x1a>
     b8e:	46c0      	nop			; (mov r8, r8)
     b90:	20000314 	.word	0x20000314
     b94:	20003868 	.word	0x20003868
     b98:	00003435 	.word	0x00003435

00000b9c <I2cGetMutex>:
 * @details     
 * @param[in]   waitTime Time to wait for the mutex to be freed.
 * @return      Returns (ERROR_NONE) if we got the mutex, (ERROR_NOT_READY) if we time out before we got it
 * @note        
 *****************************************************************************/
int32_t I2cGetMutex(TickType_t waitTime){
     b9c:	b570      	push	{r4, r5, r6, lr}
	
	int32_t error = ERROR_NONE;
	
	//students to fill out. Check what the function has to return
	
	xSemaphoreTake(sensorI2cMutexHandle, portMAX_DELAY);
     b9e:	2501      	movs	r5, #1
     ba0:	426d      	negs	r5, r5
     ba2:	4e07      	ldr	r6, [pc, #28]	; (bc0 <I2cGetMutex+0x24>)
     ba4:	0029      	movs	r1, r5
     ba6:	6830      	ldr	r0, [r6, #0]
     ba8:	4c06      	ldr	r4, [pc, #24]	; (bc4 <I2cGetMutex+0x28>)
     baa:	47a0      	blx	r4
	
	if(xSemaphoreTake(sensorI2cMutexHandle, portMAX_DELAY) != pdTRUE)
     bac:	6830      	ldr	r0, [r6, #0]
     bae:	0029      	movs	r1, r5
     bb0:	47a0      	blx	r4
	int32_t error = ERROR_NONE;
     bb2:	2300      	movs	r3, #0
	if(xSemaphoreTake(sensorI2cMutexHandle, portMAX_DELAY) != pdTRUE)
     bb4:	2801      	cmp	r0, #1
     bb6:	d101      	bne.n	bbc <I2cGetMutex+0x20>
	{
		error = ERROR_NOT_READY;
	}
	
	return error;
}
     bb8:	0018      	movs	r0, r3
     bba:	bd70      	pop	{r4, r5, r6, pc}
		error = ERROR_NOT_READY;
     bbc:	3b1d      	subs	r3, #29
     bbe:	e7fb      	b.n	bb8 <I2cGetMutex+0x1c>
     bc0:	20003868 	.word	0x20003868
     bc4:	00003ddd 	.word	0x00003ddd

00000bc8 <I2cWriteDataWait>:
				the delay an I2C device needs to make a measurement.
 * @param[in]   xMaxBlockTime Maximum time for the thread to wait until the I2C mutex is free.
 * @return      Returns an error message in case of error.
 * @note        
 *****************************************************************************/
int32_t I2cWriteDataWait(I2C_Data *data, const TickType_t xMaxBlockTime){
     bc8:	b570      	push	{r4, r5, r6, lr}
     bca:	0005      	movs	r5, r0
     bcc:	000c      	movs	r4, r1
int32_t error = ERROR_NONE;
SemaphoreHandle_t semHandle = NULL;


//---0. Get Mutex
error = I2cGetMutex(xMaxBlockTime); //Students to fill out
     bce:	0008      	movs	r0, r1
     bd0:	4b0f      	ldr	r3, [pc, #60]	; (c10 <I2cWriteDataWait+0x48>)
     bd2:	4798      	blx	r3
if(ERROR_NONE != error) goto exit;
     bd4:	2800      	cmp	r0, #0
     bd6:	d000      	beq.n	bda <I2cWriteDataWait+0x12>
exitError0:
error = I2cFreeMutex();

return error;

}
     bd8:	bd70      	pop	{r4, r5, r6, pc}
	*handle = sensorI2cSemaphoreHandle;
     bda:	4b0e      	ldr	r3, [pc, #56]	; (c14 <I2cWriteDataWait+0x4c>)
     bdc:	681e      	ldr	r6, [r3, #0]
error = I2cWriteData(data);
     bde:	0028      	movs	r0, r5
     be0:	4b0d      	ldr	r3, [pc, #52]	; (c18 <I2cWriteDataWait+0x50>)
     be2:	4798      	blx	r3
if (ERROR_NONE != error){
     be4:	2800      	cmp	r0, #0
     be6:	d105      	bne.n	bf4 <I2cWriteDataWait+0x2c>
if( xSemaphoreTake( semHandle, xMaxBlockTime ) == pdTRUE ){
     be8:	0021      	movs	r1, r4
     bea:	0030      	movs	r0, r6
     bec:	4b0b      	ldr	r3, [pc, #44]	; (c1c <I2cWriteDataWait+0x54>)
     bee:	4798      	blx	r3
     bf0:	2801      	cmp	r0, #1
     bf2:	d002      	beq.n	bfa <I2cWriteDataWait+0x32>
error = I2cFreeMutex();
     bf4:	4b0a      	ldr	r3, [pc, #40]	; (c20 <I2cWriteDataWait+0x58>)
     bf6:	4798      	blx	r3
return error;
     bf8:	e7ee      	b.n	bd8 <I2cWriteDataWait+0x10>
	 return sensorTransmitError;
     bfa:	4b0a      	ldr	r3, [pc, #40]	; (c24 <I2cWriteDataWait+0x5c>)
	if(I2cGetTaskErrorStatus()){
     bfc:	781b      	ldrb	r3, [r3, #0]
     bfe:	2b00      	cmp	r3, #0
     c00:	d003      	beq.n	c0a <I2cWriteDataWait+0x42>
	sensorTransmitError = value;
     c02:	2200      	movs	r2, #0
     c04:	4b07      	ldr	r3, [pc, #28]	; (c24 <I2cWriteDataWait+0x5c>)
     c06:	701a      	strb	r2, [r3, #0]
     c08:	e7f4      	b.n	bf4 <I2cWriteDataWait+0x2c>
error |= I2cFreeMutex();
     c0a:	4b05      	ldr	r3, [pc, #20]	; (c20 <I2cWriteDataWait+0x58>)
     c0c:	4798      	blx	r3
     c0e:	e7e3      	b.n	bd8 <I2cWriteDataWait+0x10>
     c10:	00000b9d 	.word	0x00000b9d
     c14:	20003894 	.word	0x20003894
     c18:	00000ae1 	.word	0x00000ae1
     c1c:	00003ddd 	.word	0x00003ddd
     c20:	00000b6d 	.word	0x00000b6d
     c24:	20000328 	.word	0x20000328

00000c28 <I2cReadDataWait>:
 * @param[in]   xMaxBlockTime Maximum time for the thread to wait until the I2C mutex is free.
 * @return      Returns an error message in case of error. See ErrCodes.h
 * @note        THIS IS THE FREERTOS VERSION! DO NOT Declare #define USE_FREERTOS if you wish to use the baremetal version!      
				students to fill!
 *****************************************************************************/
int32_t I2cReadDataWait(I2C_Data *data, const TickType_t delay, const TickType_t xMaxBlockTime){
     c28:	b530      	push	{r4, r5, lr}
     c2a:	b083      	sub	sp, #12
     c2c:	9001      	str	r0, [sp, #4]
     c2e:	0014      	movs	r4, r2
	SemaphoreHandle_t semHandle = NULL;
	
	//STUDENTS FILL

	//---0. Get Mutex
	error = I2cGetMutex(xMaxBlockTime);
     c30:	0010      	movs	r0, r2
     c32:	4b13      	ldr	r3, [pc, #76]	; (c80 <I2cReadDataWait+0x58>)
     c34:	4798      	blx	r3
	if(ERROR_NONE != error)
     c36:	2800      	cmp	r0, #0
     c38:	d001      	beq.n	c3e <I2cReadDataWait+0x16>
	error = I2cFreeMutex();

	return error;

	
}
     c3a:	b003      	add	sp, #12
     c3c:	bd30      	pop	{r4, r5, pc}
	*handle = sensorI2cSemaphoreHandle;
     c3e:	4b11      	ldr	r3, [pc, #68]	; (c84 <I2cReadDataWait+0x5c>)
     c40:	681d      	ldr	r5, [r3, #0]
	error = I2cReadData(data);
     c42:	9801      	ldr	r0, [sp, #4]
     c44:	4b10      	ldr	r3, [pc, #64]	; (c88 <I2cReadDataWait+0x60>)
     c46:	4798      	blx	r3
	if (ERROR_NONE != error)
     c48:	2800      	cmp	r0, #0
     c4a:	d105      	bne.n	c58 <I2cReadDataWait+0x30>
	if( xSemaphoreTake( semHandle, xMaxBlockTime ) == pdTRUE ){
     c4c:	0021      	movs	r1, r4
     c4e:	0028      	movs	r0, r5
     c50:	4b0e      	ldr	r3, [pc, #56]	; (c8c <I2cReadDataWait+0x64>)
     c52:	4798      	blx	r3
     c54:	2801      	cmp	r0, #1
     c56:	d002      	beq.n	c5e <I2cReadDataWait+0x36>
	error = I2cFreeMutex();
     c58:	4b0d      	ldr	r3, [pc, #52]	; (c90 <I2cReadDataWait+0x68>)
     c5a:	4798      	blx	r3
	return error;
     c5c:	e7ed      	b.n	c3a <I2cReadDataWait+0x12>
	 return sensorTransmitError;
     c5e:	4b0d      	ldr	r3, [pc, #52]	; (c94 <I2cReadDataWait+0x6c>)
		if(I2cGetTaskErrorStatus()){
     c60:	781b      	ldrb	r3, [r3, #0]
     c62:	2b00      	cmp	r3, #0
     c64:	d003      	beq.n	c6e <I2cReadDataWait+0x46>
	sensorTransmitError = value;
     c66:	2200      	movs	r2, #0
     c68:	4b0a      	ldr	r3, [pc, #40]	; (c94 <I2cReadDataWait+0x6c>)
     c6a:	701a      	strb	r2, [r3, #0]
     c6c:	e7f4      	b.n	c58 <I2cReadDataWait+0x30>
	error = I2cReadData(&data);
     c6e:	a801      	add	r0, sp, #4
     c70:	4b05      	ldr	r3, [pc, #20]	; (c88 <I2cReadDataWait+0x60>)
     c72:	4798      	blx	r3
     c74:	0004      	movs	r4, r0
	error |= I2cFreeMutex();
     c76:	4b06      	ldr	r3, [pc, #24]	; (c90 <I2cReadDataWait+0x68>)
     c78:	4798      	blx	r3
     c7a:	4320      	orrs	r0, r4
     c7c:	e7dd      	b.n	c3a <I2cReadDataWait+0x12>
     c7e:	46c0      	nop			; (mov r8, r8)
     c80:	00000b9d 	.word	0x00000b9d
     c84:	20003894 	.word	0x20003894
     c88:	00000b25 	.word	0x00000b25
     c8c:	00003ddd 	.word	0x00003ddd
     c90:	00000b6d 	.word	0x00000b6d
     c94:	20000328 	.word	0x20000328

00000c98 <platform_read>:
	//TIP: Check the structure "imuData" and notice that it has a msgOut and msgIn parameter. How do we fill this to our advantage?


	return 0;

}
     c98:	2000      	movs	r0, #0
     c9a:	4770      	bx	lr

00000c9c <platform_write>:
{
     c9c:	b5f8      	push	{r3, r4, r5, r6, r7, lr}
     c9e:	0008      	movs	r0, r1
     ca0:	0014      	movs	r4, r2
     ca2:	001f      	movs	r7, r3
	msgOutImu[0] = reg;
     ca4:	4b0a      	ldr	r3, [pc, #40]	; (cd0 <platform_write+0x34>)
     ca6:	7019      	strb	r1, [r3, #0]
	error = I2cWriteDataWait(msgOutImu[0], portMAX_DELAY);
     ca8:	2101      	movs	r1, #1
     caa:	4249      	negs	r1, r1
     cac:	4b09      	ldr	r3, [pc, #36]	; (cd4 <platform_write+0x38>)
     cae:	4798      	blx	r3
	for(int i = 0; i < len; i++)
     cb0:	2f00      	cmp	r7, #0
     cb2:	dd0c      	ble.n	cce <platform_write+0x32>
     cb4:	4d08      	ldr	r5, [pc, #32]	; (cd8 <platform_write+0x3c>)
     cb6:	19ef      	adds	r7, r5, r7
		error = I2cWriteDataWait(bufp[i], portMAX_DELAY);
     cb8:	4e06      	ldr	r6, [pc, #24]	; (cd4 <platform_write+0x38>)
		msgOutImu[i+1] = bufp[i];
     cba:	7822      	ldrb	r2, [r4, #0]
     cbc:	702a      	strb	r2, [r5, #0]
		error = I2cWriteDataWait(bufp[i], portMAX_DELAY);
     cbe:	7820      	ldrb	r0, [r4, #0]
     cc0:	2101      	movs	r1, #1
     cc2:	4249      	negs	r1, r1
     cc4:	47b0      	blx	r6
     cc6:	3401      	adds	r4, #1
     cc8:	3501      	adds	r5, #1
	for(int i = 0; i < len; i++)
     cca:	42bd      	cmp	r5, r7
     ccc:	d1f5      	bne.n	cba <platform_write+0x1e>
}
     cce:	bdf8      	pop	{r3, r4, r5, r6, r7, pc}
     cd0:	200038a4 	.word	0x200038a4
     cd4:	00000bc9 	.word	0x00000bc9
     cd8:	200038a5 	.word	0x200038a5

00000cdc <lsm6dso_read_reg>:
{
     cdc:	b570      	push	{r4, r5, r6, lr}
  ret = ctx->read_reg(ctx->handle, reg, data, len);
     cde:	6885      	ldr	r5, [r0, #8]
     ce0:	6844      	ldr	r4, [r0, #4]
     ce2:	0028      	movs	r0, r5
     ce4:	47a0      	blx	r4
}
     ce6:	bd70      	pop	{r4, r5, r6, pc}

00000ce8 <lsm6dso_write_reg>:
{
     ce8:	b570      	push	{r4, r5, r6, lr}
  ret = ctx->write_reg(ctx->handle, reg, data, len);
     cea:	6885      	ldr	r5, [r0, #8]
     cec:	6804      	ldr	r4, [r0, #0]
     cee:	0028      	movs	r0, r5
     cf0:	47a0      	blx	r4
}
     cf2:	bd70      	pop	{r4, r5, r6, pc}

00000cf4 <lsm6dso_from_fs2_to_mg>:
{
     cf4:	b510      	push	{r4, lr}
  return ((float_t)lsb) * 0.061f;
     cf6:	4b03      	ldr	r3, [pc, #12]	; (d04 <lsm6dso_from_fs2_to_mg+0x10>)
     cf8:	4798      	blx	r3
     cfa:	4903      	ldr	r1, [pc, #12]	; (d08 <lsm6dso_from_fs2_to_mg+0x14>)
     cfc:	4b03      	ldr	r3, [pc, #12]	; (d0c <lsm6dso_from_fs2_to_mg+0x18>)
     cfe:	4798      	blx	r3
}
     d00:	bd10      	pop	{r4, pc}
     d02:	46c0      	nop			; (mov r8, r8)
     d04:	000072ed 	.word	0x000072ed
     d08:	3d79db23 	.word	0x3d79db23
     d0c:	0000706d 	.word	0x0000706d

00000d10 <lsm6dso_xl_full_scale_set>:
{
     d10:	b570      	push	{r4, r5, r6, lr}
     d12:	b082      	sub	sp, #8
     d14:	0004      	movs	r4, r0
     d16:	000d      	movs	r5, r1
  ret = lsm6dso_read_reg(ctx, LSM6DSO_CTRL1_XL, (uint8_t *)&reg, 1);
     d18:	2301      	movs	r3, #1
     d1a:	aa01      	add	r2, sp, #4
     d1c:	2110      	movs	r1, #16
     d1e:	4e0a      	ldr	r6, [pc, #40]	; (d48 <lsm6dso_xl_full_scale_set+0x38>)
     d20:	47b0      	blx	r6
  if (ret == 0)
     d22:	2800      	cmp	r0, #0
     d24:	d001      	beq.n	d2a <lsm6dso_xl_full_scale_set+0x1a>
}
     d26:	b002      	add	sp, #8
     d28:	bd70      	pop	{r4, r5, r6, pc}
    reg.fs_xl = (uint8_t) val;
     d2a:	aa01      	add	r2, sp, #4
     d2c:	2103      	movs	r1, #3
     d2e:	4029      	ands	r1, r5
     d30:	008b      	lsls	r3, r1, #2
     d32:	7811      	ldrb	r1, [r2, #0]
     d34:	300c      	adds	r0, #12
     d36:	4381      	bics	r1, r0
     d38:	4319      	orrs	r1, r3
     d3a:	7011      	strb	r1, [r2, #0]
    ret = lsm6dso_write_reg(ctx, LSM6DSO_CTRL1_XL, (uint8_t *)&reg, 1);
     d3c:	2301      	movs	r3, #1
     d3e:	2110      	movs	r1, #16
     d40:	0020      	movs	r0, r4
     d42:	4c02      	ldr	r4, [pc, #8]	; (d4c <lsm6dso_xl_full_scale_set+0x3c>)
     d44:	47a0      	blx	r4
  return ret;
     d46:	e7ee      	b.n	d26 <lsm6dso_xl_full_scale_set+0x16>
     d48:	00000cdd 	.word	0x00000cdd
     d4c:	00000ce9 	.word	0x00000ce9

00000d50 <lsm6dso_gy_full_scale_set>:
{
     d50:	b570      	push	{r4, r5, r6, lr}
     d52:	b082      	sub	sp, #8
     d54:	0004      	movs	r4, r0
     d56:	000d      	movs	r5, r1
  ret = lsm6dso_read_reg(ctx, LSM6DSO_CTRL2_G, (uint8_t *)&reg, 1);
     d58:	2301      	movs	r3, #1
     d5a:	aa01      	add	r2, sp, #4
     d5c:	2111      	movs	r1, #17
     d5e:	4e0a      	ldr	r6, [pc, #40]	; (d88 <lsm6dso_gy_full_scale_set+0x38>)
     d60:	47b0      	blx	r6
  if (ret == 0)
     d62:	2800      	cmp	r0, #0
     d64:	d001      	beq.n	d6a <lsm6dso_gy_full_scale_set+0x1a>
}
     d66:	b002      	add	sp, #8
     d68:	bd70      	pop	{r4, r5, r6, pc}
    reg.fs_g = (uint8_t) val;
     d6a:	aa01      	add	r2, sp, #4
     d6c:	2107      	movs	r1, #7
     d6e:	4029      	ands	r1, r5
     d70:	004b      	lsls	r3, r1, #1
     d72:	7811      	ldrb	r1, [r2, #0]
     d74:	300e      	adds	r0, #14
     d76:	4381      	bics	r1, r0
     d78:	4319      	orrs	r1, r3
     d7a:	7011      	strb	r1, [r2, #0]
    ret = lsm6dso_write_reg(ctx, LSM6DSO_CTRL2_G, (uint8_t *)&reg, 1);
     d7c:	2301      	movs	r3, #1
     d7e:	2111      	movs	r1, #17
     d80:	0020      	movs	r0, r4
     d82:	4c02      	ldr	r4, [pc, #8]	; (d8c <lsm6dso_gy_full_scale_set+0x3c>)
     d84:	47a0      	blx	r4
  return ret;
     d86:	e7ee      	b.n	d66 <lsm6dso_gy_full_scale_set+0x16>
     d88:	00000cdd 	.word	0x00000cdd
     d8c:	00000ce9 	.word	0x00000ce9

00000d90 <lsm6dso_block_data_update_set>:
{
     d90:	b570      	push	{r4, r5, r6, lr}
     d92:	b082      	sub	sp, #8
     d94:	0004      	movs	r4, r0
     d96:	000d      	movs	r5, r1
  ret = lsm6dso_read_reg(ctx, LSM6DSO_CTRL3_C, (uint8_t *)&reg, 1);
     d98:	2301      	movs	r3, #1
     d9a:	aa01      	add	r2, sp, #4
     d9c:	2112      	movs	r1, #18
     d9e:	4e0a      	ldr	r6, [pc, #40]	; (dc8 <lsm6dso_block_data_update_set+0x38>)
     da0:	47b0      	blx	r6
  if (ret == 0)
     da2:	2800      	cmp	r0, #0
     da4:	d001      	beq.n	daa <lsm6dso_block_data_update_set+0x1a>
}
     da6:	b002      	add	sp, #8
     da8:	bd70      	pop	{r4, r5, r6, pc}
    reg.bdu = val;
     daa:	aa01      	add	r2, sp, #4
     dac:	2101      	movs	r1, #1
     dae:	4029      	ands	r1, r5
     db0:	018b      	lsls	r3, r1, #6
     db2:	7811      	ldrb	r1, [r2, #0]
     db4:	3040      	adds	r0, #64	; 0x40
     db6:	4381      	bics	r1, r0
     db8:	4319      	orrs	r1, r3
     dba:	7011      	strb	r1, [r2, #0]
    ret = lsm6dso_write_reg(ctx, LSM6DSO_CTRL3_C, (uint8_t *)&reg, 1);
     dbc:	2301      	movs	r3, #1
     dbe:	2112      	movs	r1, #18
     dc0:	0020      	movs	r0, r4
     dc2:	4c02      	ldr	r4, [pc, #8]	; (dcc <lsm6dso_block_data_update_set+0x3c>)
     dc4:	47a0      	blx	r4
  return ret;
     dc6:	e7ee      	b.n	da6 <lsm6dso_block_data_update_set+0x16>
     dc8:	00000cdd 	.word	0x00000cdd
     dcc:	00000ce9 	.word	0x00000ce9

00000dd0 <lsm6dso_xl_offset_weight_set>:
{
     dd0:	b570      	push	{r4, r5, r6, lr}
     dd2:	b082      	sub	sp, #8
     dd4:	0004      	movs	r4, r0
     dd6:	000d      	movs	r5, r1
  ret = lsm6dso_read_reg(ctx, LSM6DSO_CTRL6_C, (uint8_t *)&reg, 1);
     dd8:	2301      	movs	r3, #1
     dda:	aa01      	add	r2, sp, #4
     ddc:	2115      	movs	r1, #21
     dde:	4e0a      	ldr	r6, [pc, #40]	; (e08 <lsm6dso_xl_offset_weight_set+0x38>)
     de0:	47b0      	blx	r6
  if (ret == 0)
     de2:	2800      	cmp	r0, #0
     de4:	d001      	beq.n	dea <lsm6dso_xl_offset_weight_set+0x1a>
}
     de6:	b002      	add	sp, #8
     de8:	bd70      	pop	{r4, r5, r6, pc}
    reg.usr_off_w = (uint8_t)val;
     dea:	aa01      	add	r2, sp, #4
     dec:	2101      	movs	r1, #1
     dee:	4029      	ands	r1, r5
     df0:	00cb      	lsls	r3, r1, #3
     df2:	7811      	ldrb	r1, [r2, #0]
     df4:	3008      	adds	r0, #8
     df6:	4381      	bics	r1, r0
     df8:	4319      	orrs	r1, r3
     dfa:	7011      	strb	r1, [r2, #0]
    ret = lsm6dso_write_reg(ctx, LSM6DSO_CTRL6_C, (uint8_t *)&reg, 1);
     dfc:	2301      	movs	r3, #1
     dfe:	2115      	movs	r1, #21
     e00:	0020      	movs	r0, r4
     e02:	4c02      	ldr	r4, [pc, #8]	; (e0c <lsm6dso_xl_offset_weight_set+0x3c>)
     e04:	47a0      	blx	r4
  return ret;
     e06:	e7ee      	b.n	de6 <lsm6dso_xl_offset_weight_set+0x16>
     e08:	00000cdd 	.word	0x00000cdd
     e0c:	00000ce9 	.word	0x00000ce9

00000e10 <lsm6dso_xl_flag_data_ready_get>:
{
     e10:	b570      	push	{r4, r5, r6, lr}
     e12:	b082      	sub	sp, #8
     e14:	000d      	movs	r5, r1
  ret = lsm6dso_read_reg(ctx, LSM6DSO_STATUS_REG, (uint8_t *)&reg, 1);
     e16:	ac01      	add	r4, sp, #4
     e18:	2301      	movs	r3, #1
     e1a:	0022      	movs	r2, r4
     e1c:	211e      	movs	r1, #30
     e1e:	4e04      	ldr	r6, [pc, #16]	; (e30 <lsm6dso_xl_flag_data_ready_get+0x20>)
     e20:	47b0      	blx	r6
  *val = reg.xlda;
     e22:	7823      	ldrb	r3, [r4, #0]
     e24:	07db      	lsls	r3, r3, #31
     e26:	0fdb      	lsrs	r3, r3, #31
     e28:	702b      	strb	r3, [r5, #0]
}
     e2a:	b002      	add	sp, #8
     e2c:	bd70      	pop	{r4, r5, r6, pc}
     e2e:	46c0      	nop			; (mov r8, r8)
     e30:	00000cdd 	.word	0x00000cdd

00000e34 <lsm6dso_acceleration_raw_get>:
{
     e34:	b530      	push	{r4, r5, lr}
     e36:	b083      	sub	sp, #12
     e38:	000c      	movs	r4, r1
  ret = lsm6dso_read_reg(ctx, LSM6DSO_OUTX_L_A, buff, 6);
     e3a:	2306      	movs	r3, #6
     e3c:	466a      	mov	r2, sp
     e3e:	2128      	movs	r1, #40	; 0x28
     e40:	4d0a      	ldr	r5, [pc, #40]	; (e6c <lsm6dso_acceleration_raw_get+0x38>)
     e42:	47a8      	blx	r5
  val[0] = (val[0] * 256) + (int16_t)buff[0];
     e44:	466b      	mov	r3, sp
     e46:	785a      	ldrb	r2, [r3, #1]
     e48:	0212      	lsls	r2, r2, #8
     e4a:	781b      	ldrb	r3, [r3, #0]
     e4c:	189b      	adds	r3, r3, r2
     e4e:	8023      	strh	r3, [r4, #0]
  val[1] = (val[1] * 256) + (int16_t)buff[2];
     e50:	466b      	mov	r3, sp
     e52:	78da      	ldrb	r2, [r3, #3]
     e54:	0212      	lsls	r2, r2, #8
     e56:	789b      	ldrb	r3, [r3, #2]
     e58:	189b      	adds	r3, r3, r2
     e5a:	8063      	strh	r3, [r4, #2]
  val[2] = (val[2] * 256) + (int16_t)buff[4];
     e5c:	466b      	mov	r3, sp
     e5e:	795a      	ldrb	r2, [r3, #5]
     e60:	0212      	lsls	r2, r2, #8
     e62:	791b      	ldrb	r3, [r3, #4]
     e64:	189b      	adds	r3, r3, r2
     e66:	80a3      	strh	r3, [r4, #4]
}
     e68:	b003      	add	sp, #12
     e6a:	bd30      	pop	{r4, r5, pc}
     e6c:	00000cdd 	.word	0x00000cdd

00000e70 <lsm6dso_mem_bank_set>:
{
     e70:	b570      	push	{r4, r5, r6, lr}
     e72:	b082      	sub	sp, #8
     e74:	0004      	movs	r4, r0
     e76:	000d      	movs	r5, r1
  ret = lsm6dso_read_reg(ctx, LSM6DSO_FUNC_CFG_ACCESS, (uint8_t *)&reg, 1);
     e78:	2301      	movs	r3, #1
     e7a:	aa01      	add	r2, sp, #4
     e7c:	2101      	movs	r1, #1
     e7e:	4e09      	ldr	r6, [pc, #36]	; (ea4 <lsm6dso_mem_bank_set+0x34>)
     e80:	47b0      	blx	r6
  if (ret == 0)
     e82:	2800      	cmp	r0, #0
     e84:	d001      	beq.n	e8a <lsm6dso_mem_bank_set+0x1a>
}
     e86:	b002      	add	sp, #8
     e88:	bd70      	pop	{r4, r5, r6, pc}
    reg.reg_access = (uint8_t)val;
     e8a:	aa01      	add	r2, sp, #4
     e8c:	01ad      	lsls	r5, r5, #6
     e8e:	7813      	ldrb	r3, [r2, #0]
     e90:	213f      	movs	r1, #63	; 0x3f
     e92:	4019      	ands	r1, r3
     e94:	4329      	orrs	r1, r5
     e96:	7011      	strb	r1, [r2, #0]
    ret = lsm6dso_write_reg(ctx, LSM6DSO_FUNC_CFG_ACCESS, (uint8_t *)&reg, 1);
     e98:	2301      	movs	r3, #1
     e9a:	2101      	movs	r1, #1
     e9c:	0020      	movs	r0, r4
     e9e:	4c02      	ldr	r4, [pc, #8]	; (ea8 <lsm6dso_mem_bank_set+0x38>)
     ea0:	47a0      	blx	r4
  return ret;
     ea2:	e7f0      	b.n	e86 <lsm6dso_mem_bank_set+0x16>
     ea4:	00000cdd 	.word	0x00000cdd
     ea8:	00000ce9 	.word	0x00000ce9

00000eac <lsm6dso_device_id_get>:
{
     eac:	b510      	push	{r4, lr}
     eae:	000a      	movs	r2, r1
  ret = lsm6dso_read_reg(ctx, LSM6DSO_WHO_AM_I, buff, 1);
     eb0:	2301      	movs	r3, #1
     eb2:	210f      	movs	r1, #15
     eb4:	4c01      	ldr	r4, [pc, #4]	; (ebc <lsm6dso_device_id_get+0x10>)
     eb6:	47a0      	blx	r4
}
     eb8:	bd10      	pop	{r4, pc}
     eba:	46c0      	nop			; (mov r8, r8)
     ebc:	00000cdd 	.word	0x00000cdd

00000ec0 <lsm6dso_reset_set>:
{
     ec0:	b570      	push	{r4, r5, r6, lr}
     ec2:	b082      	sub	sp, #8
     ec4:	0004      	movs	r4, r0
     ec6:	000e      	movs	r6, r1
  ret = lsm6dso_read_reg(ctx, LSM6DSO_CTRL3_C, (uint8_t *)&reg, 1);
     ec8:	2301      	movs	r3, #1
     eca:	aa01      	add	r2, sp, #4
     ecc:	2112      	movs	r1, #18
     ece:	4d09      	ldr	r5, [pc, #36]	; (ef4 <lsm6dso_reset_set+0x34>)
     ed0:	47a8      	blx	r5
  if (ret == 0)
     ed2:	2800      	cmp	r0, #0
     ed4:	d001      	beq.n	eda <lsm6dso_reset_set+0x1a>
}
     ed6:	b002      	add	sp, #8
     ed8:	bd70      	pop	{r4, r5, r6, pc}
    reg.sw_reset = val;
     eda:	aa01      	add	r2, sp, #4
     edc:	2101      	movs	r1, #1
     ede:	400e      	ands	r6, r1
     ee0:	7811      	ldrb	r1, [r2, #0]
     ee2:	2301      	movs	r3, #1
     ee4:	4399      	bics	r1, r3
     ee6:	4331      	orrs	r1, r6
     ee8:	7011      	strb	r1, [r2, #0]
    ret = lsm6dso_write_reg(ctx, LSM6DSO_CTRL3_C, (uint8_t *)&reg, 1);
     eea:	2112      	movs	r1, #18
     eec:	0020      	movs	r0, r4
     eee:	4c02      	ldr	r4, [pc, #8]	; (ef8 <lsm6dso_reset_set+0x38>)
     ef0:	47a0      	blx	r4
  return ret;
     ef2:	e7f0      	b.n	ed6 <lsm6dso_reset_set+0x16>
     ef4:	00000cdd 	.word	0x00000cdd
     ef8:	00000ce9 	.word	0x00000ce9

00000efc <lsm6dso_reset_get>:
{
     efc:	b570      	push	{r4, r5, r6, lr}
     efe:	b082      	sub	sp, #8
     f00:	000d      	movs	r5, r1
  ret = lsm6dso_read_reg(ctx, LSM6DSO_CTRL3_C, (uint8_t *)&reg, 1);
     f02:	ac01      	add	r4, sp, #4
     f04:	2301      	movs	r3, #1
     f06:	0022      	movs	r2, r4
     f08:	2112      	movs	r1, #18
     f0a:	4e04      	ldr	r6, [pc, #16]	; (f1c <lsm6dso_reset_get+0x20>)
     f0c:	47b0      	blx	r6
  *val = reg.sw_reset;
     f0e:	7823      	ldrb	r3, [r4, #0]
     f10:	07db      	lsls	r3, r3, #31
     f12:	0fdb      	lsrs	r3, r3, #31
     f14:	702b      	strb	r3, [r5, #0]
}
     f16:	b002      	add	sp, #8
     f18:	bd70      	pop	{r4, r5, r6, pc}
     f1a:	46c0      	nop			; (mov r8, r8)
     f1c:	00000cdd 	.word	0x00000cdd

00000f20 <lsm6dso_xl_filter_lp2_set>:
{
     f20:	b570      	push	{r4, r5, r6, lr}
     f22:	b082      	sub	sp, #8
     f24:	0004      	movs	r4, r0
     f26:	000d      	movs	r5, r1
  ret = lsm6dso_read_reg(ctx, LSM6DSO_CTRL1_XL, (uint8_t *)&reg, 1);
     f28:	2301      	movs	r3, #1
     f2a:	aa01      	add	r2, sp, #4
     f2c:	2110      	movs	r1, #16
     f2e:	4e0a      	ldr	r6, [pc, #40]	; (f58 <lsm6dso_xl_filter_lp2_set+0x38>)
     f30:	47b0      	blx	r6
  if (ret == 0)
     f32:	2800      	cmp	r0, #0
     f34:	d001      	beq.n	f3a <lsm6dso_xl_filter_lp2_set+0x1a>
}
     f36:	b002      	add	sp, #8
     f38:	bd70      	pop	{r4, r5, r6, pc}
    reg.lpf2_xl_en = val;
     f3a:	aa01      	add	r2, sp, #4
     f3c:	2101      	movs	r1, #1
     f3e:	4029      	ands	r1, r5
     f40:	004b      	lsls	r3, r1, #1
     f42:	7811      	ldrb	r1, [r2, #0]
     f44:	3002      	adds	r0, #2
     f46:	4381      	bics	r1, r0
     f48:	4319      	orrs	r1, r3
     f4a:	7011      	strb	r1, [r2, #0]
    ret = lsm6dso_write_reg(ctx, LSM6DSO_CTRL1_XL, (uint8_t *)&reg, 1);
     f4c:	2301      	movs	r3, #1
     f4e:	2110      	movs	r1, #16
     f50:	0020      	movs	r0, r4
     f52:	4c02      	ldr	r4, [pc, #8]	; (f5c <lsm6dso_xl_filter_lp2_set+0x3c>)
     f54:	47a0      	blx	r4
  return ret;
     f56:	e7ee      	b.n	f36 <lsm6dso_xl_filter_lp2_set+0x16>
     f58:	00000cdd 	.word	0x00000cdd
     f5c:	00000ce9 	.word	0x00000ce9

00000f60 <lsm6dso_xl_hp_path_on_out_set>:
{
     f60:	b570      	push	{r4, r5, r6, lr}
     f62:	b082      	sub	sp, #8
     f64:	0004      	movs	r4, r0
     f66:	000d      	movs	r5, r1
  ret = lsm6dso_read_reg(ctx, LSM6DSO_CTRL8_XL, (uint8_t *)&reg, 1);
     f68:	2301      	movs	r3, #1
     f6a:	aa01      	add	r2, sp, #4
     f6c:	2117      	movs	r1, #23
     f6e:	4e10      	ldr	r6, [pc, #64]	; (fb0 <lsm6dso_xl_hp_path_on_out_set+0x50>)
     f70:	47b0      	blx	r6
  if (ret == 0)
     f72:	2800      	cmp	r0, #0
     f74:	d001      	beq.n	f7a <lsm6dso_xl_hp_path_on_out_set+0x1a>
}
     f76:	b002      	add	sp, #8
     f78:	bd70      	pop	{r4, r5, r6, pc}
    reg.hp_slope_xl_en = ((uint8_t)val & 0x10U) >> 4;
     f7a:	aa01      	add	r2, sp, #4
     f7c:	092b      	lsrs	r3, r5, #4
     f7e:	2101      	movs	r1, #1
     f80:	400b      	ands	r3, r1
     f82:	0098      	lsls	r0, r3, #2
     f84:	7813      	ldrb	r3, [r2, #0]
     f86:	2604      	movs	r6, #4
     f88:	43b3      	bics	r3, r6
    reg.hp_ref_mode_xl = ((uint8_t)val & 0x20U) >> 5;
     f8a:	096e      	lsrs	r6, r5, #5
     f8c:	4031      	ands	r1, r6
     f8e:	0109      	lsls	r1, r1, #4
     f90:	4303      	orrs	r3, r0
     f92:	2010      	movs	r0, #16
     f94:	4383      	bics	r3, r0
    reg.hpcf_xl = (uint8_t)val & 0x07U;
     f96:	016d      	lsls	r5, r5, #5
     f98:	430b      	orrs	r3, r1
     f9a:	211f      	movs	r1, #31
     f9c:	400b      	ands	r3, r1
     f9e:	431d      	orrs	r5, r3
     fa0:	7015      	strb	r5, [r2, #0]
    ret = lsm6dso_write_reg(ctx, LSM6DSO_CTRL8_XL, (uint8_t *)&reg, 1);
     fa2:	2301      	movs	r3, #1
     fa4:	3908      	subs	r1, #8
     fa6:	0020      	movs	r0, r4
     fa8:	4c02      	ldr	r4, [pc, #8]	; (fb4 <lsm6dso_xl_hp_path_on_out_set+0x54>)
     faa:	47a0      	blx	r4
  return ret;
     fac:	e7e3      	b.n	f76 <lsm6dso_xl_hp_path_on_out_set+0x16>
     fae:	46c0      	nop			; (mov r8, r8)
     fb0:	00000cdd 	.word	0x00000cdd
     fb4:	00000ce9 	.word	0x00000ce9

00000fb8 <lsm6dso_i3c_disable_set>:
{
     fb8:	b570      	push	{r4, r5, r6, lr}
     fba:	b082      	sub	sp, #8
     fbc:	0004      	movs	r4, r0
     fbe:	000d      	movs	r5, r1
  ret = lsm6dso_read_reg(ctx, LSM6DSO_CTRL9_XL, (uint8_t *)&ctrl9_xl, 1);
     fc0:	2301      	movs	r3, #1
     fc2:	466a      	mov	r2, sp
     fc4:	2118      	movs	r1, #24
     fc6:	4e16      	ldr	r6, [pc, #88]	; (1020 <lsm6dso_i3c_disable_set+0x68>)
     fc8:	47b0      	blx	r6
  if (ret == 0)
     fca:	2800      	cmp	r0, #0
     fcc:	d001      	beq.n	fd2 <lsm6dso_i3c_disable_set+0x1a>
}
     fce:	b002      	add	sp, #8
     fd0:	bd70      	pop	{r4, r5, r6, pc}
    ctrl9_xl.i3c_disable = ((uint8_t)val & 0x80U) >> 7;
     fd2:	09ea      	lsrs	r2, r5, #7
     fd4:	0052      	lsls	r2, r2, #1
     fd6:	466b      	mov	r3, sp
     fd8:	781b      	ldrb	r3, [r3, #0]
     fda:	2102      	movs	r1, #2
     fdc:	438b      	bics	r3, r1
     fde:	4313      	orrs	r3, r2
     fe0:	466a      	mov	r2, sp
     fe2:	7013      	strb	r3, [r2, #0]
    ret = lsm6dso_write_reg(ctx, LSM6DSO_CTRL9_XL, (uint8_t *)&ctrl9_xl, 1);
     fe4:	2301      	movs	r3, #1
     fe6:	3116      	adds	r1, #22
     fe8:	0020      	movs	r0, r4
     fea:	4e0e      	ldr	r6, [pc, #56]	; (1024 <lsm6dso_i3c_disable_set+0x6c>)
     fec:	47b0      	blx	r6
  if (ret == 0)
     fee:	2800      	cmp	r0, #0
     ff0:	d1ed      	bne.n	fce <lsm6dso_i3c_disable_set+0x16>
    ret = lsm6dso_read_reg(ctx, LSM6DSO_I3C_BUS_AVB,
     ff2:	2301      	movs	r3, #1
     ff4:	aa01      	add	r2, sp, #4
     ff6:	2162      	movs	r1, #98	; 0x62
     ff8:	0020      	movs	r0, r4
     ffa:	4e09      	ldr	r6, [pc, #36]	; (1020 <lsm6dso_i3c_disable_set+0x68>)
     ffc:	47b0      	blx	r6
  if (ret == 0)
     ffe:	2800      	cmp	r0, #0
    1000:	d1e5      	bne.n	fce <lsm6dso_i3c_disable_set+0x16>
    i3c_bus_avb.i3c_bus_avb_sel = (uint8_t)val & 0x03U;
    1002:	aa01      	add	r2, sp, #4
    1004:	2103      	movs	r1, #3
    1006:	4029      	ands	r1, r5
    1008:	00cb      	lsls	r3, r1, #3
    100a:	7811      	ldrb	r1, [r2, #0]
    100c:	3018      	adds	r0, #24
    100e:	4381      	bics	r1, r0
    1010:	4319      	orrs	r1, r3
    1012:	7011      	strb	r1, [r2, #0]
    ret = lsm6dso_write_reg(ctx, LSM6DSO_I3C_BUS_AVB,
    1014:	2301      	movs	r3, #1
    1016:	2162      	movs	r1, #98	; 0x62
    1018:	0020      	movs	r0, r4
    101a:	4c02      	ldr	r4, [pc, #8]	; (1024 <lsm6dso_i3c_disable_set+0x6c>)
    101c:	47a0      	blx	r4
  return ret;
    101e:	e7d6      	b.n	fce <lsm6dso_i3c_disable_set+0x16>
    1020:	00000cdd 	.word	0x00000cdd
    1024:	00000ce9 	.word	0x00000ce9

00001028 <lsm6dso_fsm_enable_get>:
{
    1028:	b570      	push	{r4, r5, r6, lr}
    102a:	0004      	movs	r4, r0
    102c:	000d      	movs	r5, r1
  ret = lsm6dso_mem_bank_set(ctx, LSM6DSO_EMBEDDED_FUNC_BANK);
    102e:	2102      	movs	r1, #2
    1030:	4b08      	ldr	r3, [pc, #32]	; (1054 <lsm6dso_fsm_enable_get+0x2c>)
    1032:	4798      	blx	r3
  if (ret == 0)
    1034:	2800      	cmp	r0, #0
    1036:	d000      	beq.n	103a <lsm6dso_fsm_enable_get+0x12>
}
    1038:	bd70      	pop	{r4, r5, r6, pc}
    ret = lsm6dso_read_reg(ctx, LSM6DSO_FSM_ENABLE_A, (uint8_t *) val, 2);
    103a:	2302      	movs	r3, #2
    103c:	002a      	movs	r2, r5
    103e:	2146      	movs	r1, #70	; 0x46
    1040:	0020      	movs	r0, r4
    1042:	4d05      	ldr	r5, [pc, #20]	; (1058 <lsm6dso_fsm_enable_get+0x30>)
    1044:	47a8      	blx	r5
  if (ret == 0)
    1046:	2800      	cmp	r0, #0
    1048:	d1f6      	bne.n	1038 <lsm6dso_fsm_enable_get+0x10>
    ret = lsm6dso_mem_bank_set(ctx, LSM6DSO_USER_BANK);
    104a:	2100      	movs	r1, #0
    104c:	0020      	movs	r0, r4
    104e:	4b01      	ldr	r3, [pc, #4]	; (1054 <lsm6dso_fsm_enable_get+0x2c>)
    1050:	4798      	blx	r3
  return ret;
    1052:	e7f1      	b.n	1038 <lsm6dso_fsm_enable_get+0x10>
    1054:	00000e71 	.word	0x00000e71
    1058:	00000cdd 	.word	0x00000cdd

0000105c <lsm6dso_fsm_data_rate_get>:
{
    105c:	b570      	push	{r4, r5, r6, lr}
    105e:	b082      	sub	sp, #8
    1060:	0004      	movs	r4, r0
    1062:	000d      	movs	r5, r1
  ret = lsm6dso_mem_bank_set(ctx, LSM6DSO_EMBEDDED_FUNC_BANK);
    1064:	2102      	movs	r1, #2
    1066:	4b17      	ldr	r3, [pc, #92]	; (10c4 <lsm6dso_fsm_data_rate_get+0x68>)
    1068:	4798      	blx	r3
  if (ret == 0)
    106a:	2800      	cmp	r0, #0
    106c:	d001      	beq.n	1072 <lsm6dso_fsm_data_rate_get+0x16>
}
    106e:	b002      	add	sp, #8
    1070:	bd70      	pop	{r4, r5, r6, pc}
    ret = lsm6dso_read_reg(ctx, LSM6DSO_EMB_FUNC_ODR_CFG_B,
    1072:	2301      	movs	r3, #1
    1074:	aa01      	add	r2, sp, #4
    1076:	215f      	movs	r1, #95	; 0x5f
    1078:	0020      	movs	r0, r4
    107a:	4e13      	ldr	r6, [pc, #76]	; (10c8 <lsm6dso_fsm_data_rate_get+0x6c>)
    107c:	47b0      	blx	r6
  if (ret == 0)
    107e:	2800      	cmp	r0, #0
    1080:	d1f5      	bne.n	106e <lsm6dso_fsm_data_rate_get+0x12>
    switch (reg.fsm_odr)
    1082:	ab01      	add	r3, sp, #4
    1084:	781b      	ldrb	r3, [r3, #0]
    1086:	06db      	lsls	r3, r3, #27
    1088:	0f9b      	lsrs	r3, r3, #30
    108a:	b2da      	uxtb	r2, r3
    108c:	2a01      	cmp	r2, #1
    108e:	d00f      	beq.n	10b0 <lsm6dso_fsm_data_rate_get+0x54>
    1090:	2a00      	cmp	r2, #0
    1092:	d006      	beq.n	10a2 <lsm6dso_fsm_data_rate_get+0x46>
    1094:	2a02      	cmp	r2, #2
    1096:	d00e      	beq.n	10b6 <lsm6dso_fsm_data_rate_get+0x5a>
    1098:	2a03      	cmp	r2, #3
    109a:	d00f      	beq.n	10bc <lsm6dso_fsm_data_rate_get+0x60>
        *val = LSM6DSO_ODR_FSM_12Hz5;
    109c:	2300      	movs	r3, #0
    109e:	702b      	strb	r3, [r5, #0]
        break;
    10a0:	e001      	b.n	10a6 <lsm6dso_fsm_data_rate_get+0x4a>
        *val = LSM6DSO_ODR_FSM_12Hz5;
    10a2:	2300      	movs	r3, #0
    10a4:	702b      	strb	r3, [r5, #0]
    ret = lsm6dso_mem_bank_set(ctx, LSM6DSO_USER_BANK);
    10a6:	2100      	movs	r1, #0
    10a8:	0020      	movs	r0, r4
    10aa:	4b06      	ldr	r3, [pc, #24]	; (10c4 <lsm6dso_fsm_data_rate_get+0x68>)
    10ac:	4798      	blx	r3
  return ret;
    10ae:	e7de      	b.n	106e <lsm6dso_fsm_data_rate_get+0x12>
        *val = LSM6DSO_ODR_FSM_26Hz;
    10b0:	2301      	movs	r3, #1
    10b2:	702b      	strb	r3, [r5, #0]
        break;
    10b4:	e7f7      	b.n	10a6 <lsm6dso_fsm_data_rate_get+0x4a>
        *val = LSM6DSO_ODR_FSM_52Hz;
    10b6:	2302      	movs	r3, #2
    10b8:	702b      	strb	r3, [r5, #0]
        break;
    10ba:	e7f4      	b.n	10a6 <lsm6dso_fsm_data_rate_get+0x4a>
        *val = LSM6DSO_ODR_FSM_104Hz;
    10bc:	2303      	movs	r3, #3
    10be:	702b      	strb	r3, [r5, #0]
        break;
    10c0:	e7f1      	b.n	10a6 <lsm6dso_fsm_data_rate_get+0x4a>
    10c2:	46c0      	nop			; (mov r8, r8)
    10c4:	00000e71 	.word	0x00000e71
    10c8:	00000cdd 	.word	0x00000cdd

000010cc <lsm6dso_xl_data_rate_set>:
{
    10cc:	b570      	push	{r4, r5, r6, lr}
    10ce:	b082      	sub	sp, #8
    10d0:	0004      	movs	r4, r0
    10d2:	000d      	movs	r5, r1
  ret =  lsm6dso_fsm_enable_get(ctx, &fsm_enable);
    10d4:	a901      	add	r1, sp, #4
    10d6:	4b38      	ldr	r3, [pc, #224]	; (11b8 <lsm6dso_xl_data_rate_set+0xec>)
    10d8:	4798      	blx	r3
  if (ret == 0)
    10da:	2800      	cmp	r0, #0
    10dc:	d142      	bne.n	1164 <lsm6dso_xl_data_rate_set+0x98>
    if ((fsm_enable.fsm_enable_a.fsm1_en  |
    10de:	a901      	add	r1, sp, #4
    10e0:	780a      	ldrb	r2, [r1, #0]
    10e2:	07d0      	lsls	r0, r2, #31
         fsm_enable.fsm_enable_a.fsm2_en  |
    10e4:	0793      	lsls	r3, r2, #30
    10e6:	4318      	orrs	r0, r3
         fsm_enable.fsm_enable_a.fsm3_en  |
    10e8:	0753      	lsls	r3, r2, #29
    10ea:	4303      	orrs	r3, r0
         fsm_enable.fsm_enable_a.fsm4_en  |
    10ec:	0710      	lsls	r0, r2, #28
    10ee:	4303      	orrs	r3, r0
         fsm_enable.fsm_enable_a.fsm5_en  |
    10f0:	06d0      	lsls	r0, r2, #27
    10f2:	4318      	orrs	r0, r3
         fsm_enable.fsm_enable_a.fsm6_en  |
    10f4:	0693      	lsls	r3, r2, #26
    10f6:	4318      	orrs	r0, r3
         fsm_enable.fsm_enable_a.fsm7_en  |
    10f8:	0653      	lsls	r3, r2, #25
    10fa:	4303      	orrs	r3, r0
         fsm_enable.fsm_enable_a.fsm6_en  |
    10fc:	0fdb      	lsrs	r3, r3, #31
         fsm_enable.fsm_enable_a.fsm8_en  |
    10fe:	09d2      	lsrs	r2, r2, #7
         fsm_enable.fsm_enable_a.fsm7_en  |
    1100:	4313      	orrs	r3, r2
         fsm_enable.fsm_enable_b.fsm9_en  |
    1102:	784a      	ldrb	r2, [r1, #1]
    1104:	07d1      	lsls	r1, r2, #31
    1106:	0fc9      	lsrs	r1, r1, #31
         fsm_enable.fsm_enable_a.fsm8_en  |
    1108:	430b      	orrs	r3, r1
         fsm_enable.fsm_enable_b.fsm10_en |
    110a:	0791      	lsls	r1, r2, #30
    110c:	0fc9      	lsrs	r1, r1, #31
         fsm_enable.fsm_enable_b.fsm9_en  |
    110e:	430b      	orrs	r3, r1
         fsm_enable.fsm_enable_b.fsm11_en |
    1110:	0751      	lsls	r1, r2, #29
    1112:	0fc9      	lsrs	r1, r1, #31
         fsm_enable.fsm_enable_b.fsm10_en |
    1114:	430b      	orrs	r3, r1
         fsm_enable.fsm_enable_b.fsm12_en |
    1116:	0711      	lsls	r1, r2, #28
    1118:	0fc9      	lsrs	r1, r1, #31
         fsm_enable.fsm_enable_b.fsm11_en |
    111a:	430b      	orrs	r3, r1
         fsm_enable.fsm_enable_b.fsm13_en |
    111c:	06d1      	lsls	r1, r2, #27
    111e:	0fc9      	lsrs	r1, r1, #31
         fsm_enable.fsm_enable_b.fsm12_en |
    1120:	430b      	orrs	r3, r1
         fsm_enable.fsm_enable_b.fsm14_en |
    1122:	0691      	lsls	r1, r2, #26
    1124:	0fc9      	lsrs	r1, r1, #31
         fsm_enable.fsm_enable_b.fsm13_en |
    1126:	430b      	orrs	r3, r1
         fsm_enable.fsm_enable_b.fsm15_en |
    1128:	0651      	lsls	r1, r2, #25
    112a:	0fc9      	lsrs	r1, r1, #31
         fsm_enable.fsm_enable_b.fsm14_en |
    112c:	430b      	orrs	r3, r1
         fsm_enable.fsm_enable_b.fsm16_en) == PROPERTY_ENABLE)
    112e:	09d2      	lsrs	r2, r2, #7
         fsm_enable.fsm_enable_b.fsm15_en |
    1130:	4313      	orrs	r3, r2
    if ((fsm_enable.fsm_enable_a.fsm1_en  |
    1132:	b2db      	uxtb	r3, r3
    1134:	2b01      	cmp	r3, #1
    1136:	d017      	beq.n	1168 <lsm6dso_xl_data_rate_set+0x9c>
    ret = lsm6dso_read_reg(ctx, LSM6DSO_CTRL1_XL, (uint8_t *)&reg, 1);
    1138:	2301      	movs	r3, #1
    113a:	466a      	mov	r2, sp
    113c:	2110      	movs	r1, #16
    113e:	0020      	movs	r0, r4
    1140:	4e1e      	ldr	r6, [pc, #120]	; (11bc <lsm6dso_xl_data_rate_set+0xf0>)
    1142:	47b0      	blx	r6
  if (ret == 0)
    1144:	2800      	cmp	r0, #0
    1146:	d10d      	bne.n	1164 <lsm6dso_xl_data_rate_set+0x98>
    reg.odr_xl = (uint8_t) odr_xl;
    1148:	012b      	lsls	r3, r5, #4
    114a:	466a      	mov	r2, sp
    114c:	7812      	ldrb	r2, [r2, #0]
    114e:	250f      	movs	r5, #15
    1150:	4015      	ands	r5, r2
    1152:	431d      	orrs	r5, r3
    1154:	466b      	mov	r3, sp
    1156:	701d      	strb	r5, [r3, #0]
    ret = lsm6dso_write_reg(ctx, LSM6DSO_CTRL1_XL, (uint8_t *)&reg, 1);
    1158:	2301      	movs	r3, #1
    115a:	466a      	mov	r2, sp
    115c:	2110      	movs	r1, #16
    115e:	0020      	movs	r0, r4
    1160:	4c17      	ldr	r4, [pc, #92]	; (11c0 <lsm6dso_xl_data_rate_set+0xf4>)
    1162:	47a0      	blx	r4
}
    1164:	b002      	add	sp, #8
    1166:	bd70      	pop	{r4, r5, r6, pc}
      ret =  lsm6dso_fsm_data_rate_get(ctx, &fsm_odr);
    1168:	466b      	mov	r3, sp
    116a:	1cd9      	adds	r1, r3, #3
    116c:	0020      	movs	r0, r4
    116e:	4b15      	ldr	r3, [pc, #84]	; (11c4 <lsm6dso_xl_data_rate_set+0xf8>)
    1170:	4798      	blx	r3
      if (ret == 0)
    1172:	2800      	cmp	r0, #0
    1174:	d1f6      	bne.n	1164 <lsm6dso_xl_data_rate_set+0x98>
        switch (fsm_odr)
    1176:	466b      	mov	r3, sp
    1178:	3303      	adds	r3, #3
    117a:	781b      	ldrb	r3, [r3, #0]
    117c:	2b01      	cmp	r3, #1
    117e:	d00f      	beq.n	11a0 <lsm6dso_xl_data_rate_set+0xd4>
    1180:	2b00      	cmp	r3, #0
    1182:	d009      	beq.n	1198 <lsm6dso_xl_data_rate_set+0xcc>
    1184:	2b02      	cmp	r3, #2
    1186:	d011      	beq.n	11ac <lsm6dso_xl_data_rate_set+0xe0>
    1188:	2b03      	cmp	r3, #3
    118a:	d1d5      	bne.n	1138 <lsm6dso_xl_data_rate_set+0x6c>
    118c:	1c2b      	adds	r3, r5, #0
    118e:	2d03      	cmp	r5, #3
    1190:	d800      	bhi.n	1194 <lsm6dso_xl_data_rate_set+0xc8>
    1192:	2304      	movs	r3, #4
    1194:	b2dd      	uxtb	r5, r3
    1196:	e7cf      	b.n	1138 <lsm6dso_xl_data_rate_set+0x6c>
            if (val == LSM6DSO_XL_ODR_OFF)
    1198:	2d00      	cmp	r5, #0
    119a:	d1cd      	bne.n	1138 <lsm6dso_xl_data_rate_set+0x6c>
              odr_xl = LSM6DSO_XL_ODR_12Hz5;
    119c:	2501      	movs	r5, #1
    119e:	e7cb      	b.n	1138 <lsm6dso_xl_data_rate_set+0x6c>
    11a0:	1c2b      	adds	r3, r5, #0
    11a2:	2d01      	cmp	r5, #1
    11a4:	d800      	bhi.n	11a8 <lsm6dso_xl_data_rate_set+0xdc>
    11a6:	2302      	movs	r3, #2
    11a8:	b2dd      	uxtb	r5, r3
    11aa:	e7c5      	b.n	1138 <lsm6dso_xl_data_rate_set+0x6c>
    11ac:	1c2b      	adds	r3, r5, #0
    11ae:	2d02      	cmp	r5, #2
    11b0:	d800      	bhi.n	11b4 <lsm6dso_xl_data_rate_set+0xe8>
    11b2:	2303      	movs	r3, #3
    11b4:	b2dd      	uxtb	r5, r3
    11b6:	e7bf      	b.n	1138 <lsm6dso_xl_data_rate_set+0x6c>
    11b8:	00001029 	.word	0x00001029
    11bc:	00000cdd 	.word	0x00000cdd
    11c0:	00000ce9 	.word	0x00000ce9
    11c4:	0000105d 	.word	0x0000105d

000011c8 <lsm6dso_gy_data_rate_set>:
{
    11c8:	b570      	push	{r4, r5, r6, lr}
    11ca:	b082      	sub	sp, #8
    11cc:	0004      	movs	r4, r0
    11ce:	000d      	movs	r5, r1
  ret =  lsm6dso_fsm_enable_get(ctx, &fsm_enable);
    11d0:	a901      	add	r1, sp, #4
    11d2:	4b38      	ldr	r3, [pc, #224]	; (12b4 <lsm6dso_gy_data_rate_set+0xec>)
    11d4:	4798      	blx	r3
  if (ret == 0)
    11d6:	2800      	cmp	r0, #0
    11d8:	d142      	bne.n	1260 <lsm6dso_gy_data_rate_set+0x98>
    if ((fsm_enable.fsm_enable_a.fsm1_en  |
    11da:	a901      	add	r1, sp, #4
    11dc:	780a      	ldrb	r2, [r1, #0]
    11de:	07d0      	lsls	r0, r2, #31
         fsm_enable.fsm_enable_a.fsm2_en  |
    11e0:	0793      	lsls	r3, r2, #30
    11e2:	4318      	orrs	r0, r3
         fsm_enable.fsm_enable_a.fsm3_en  |
    11e4:	0753      	lsls	r3, r2, #29
    11e6:	4303      	orrs	r3, r0
         fsm_enable.fsm_enable_a.fsm4_en  |
    11e8:	0710      	lsls	r0, r2, #28
    11ea:	4303      	orrs	r3, r0
         fsm_enable.fsm_enable_a.fsm5_en  |
    11ec:	06d0      	lsls	r0, r2, #27
    11ee:	4318      	orrs	r0, r3
         fsm_enable.fsm_enable_a.fsm6_en  |
    11f0:	0693      	lsls	r3, r2, #26
    11f2:	4318      	orrs	r0, r3
         fsm_enable.fsm_enable_a.fsm7_en  |
    11f4:	0653      	lsls	r3, r2, #25
    11f6:	4303      	orrs	r3, r0
         fsm_enable.fsm_enable_a.fsm6_en  |
    11f8:	0fdb      	lsrs	r3, r3, #31
         fsm_enable.fsm_enable_a.fsm8_en  |
    11fa:	09d2      	lsrs	r2, r2, #7
         fsm_enable.fsm_enable_a.fsm7_en  |
    11fc:	4313      	orrs	r3, r2
         fsm_enable.fsm_enable_b.fsm9_en  |
    11fe:	784a      	ldrb	r2, [r1, #1]
    1200:	07d1      	lsls	r1, r2, #31
    1202:	0fc9      	lsrs	r1, r1, #31
         fsm_enable.fsm_enable_a.fsm8_en  |
    1204:	430b      	orrs	r3, r1
         fsm_enable.fsm_enable_b.fsm10_en |
    1206:	0791      	lsls	r1, r2, #30
    1208:	0fc9      	lsrs	r1, r1, #31
         fsm_enable.fsm_enable_b.fsm9_en  |
    120a:	430b      	orrs	r3, r1
         fsm_enable.fsm_enable_b.fsm11_en |
    120c:	0751      	lsls	r1, r2, #29
    120e:	0fc9      	lsrs	r1, r1, #31
         fsm_enable.fsm_enable_b.fsm10_en |
    1210:	430b      	orrs	r3, r1
         fsm_enable.fsm_enable_b.fsm12_en |
    1212:	0711      	lsls	r1, r2, #28
    1214:	0fc9      	lsrs	r1, r1, #31
         fsm_enable.fsm_enable_b.fsm11_en |
    1216:	430b      	orrs	r3, r1
         fsm_enable.fsm_enable_b.fsm13_en |
    1218:	06d1      	lsls	r1, r2, #27
    121a:	0fc9      	lsrs	r1, r1, #31
         fsm_enable.fsm_enable_b.fsm12_en |
    121c:	430b      	orrs	r3, r1
         fsm_enable.fsm_enable_b.fsm14_en |
    121e:	0691      	lsls	r1, r2, #26
    1220:	0fc9      	lsrs	r1, r1, #31
         fsm_enable.fsm_enable_b.fsm13_en |
    1222:	430b      	orrs	r3, r1
         fsm_enable.fsm_enable_b.fsm15_en |
    1224:	0651      	lsls	r1, r2, #25
    1226:	0fc9      	lsrs	r1, r1, #31
         fsm_enable.fsm_enable_b.fsm14_en |
    1228:	430b      	orrs	r3, r1
         fsm_enable.fsm_enable_b.fsm16_en) == PROPERTY_ENABLE)
    122a:	09d2      	lsrs	r2, r2, #7
         fsm_enable.fsm_enable_b.fsm15_en |
    122c:	4313      	orrs	r3, r2
    if ((fsm_enable.fsm_enable_a.fsm1_en  |
    122e:	b2db      	uxtb	r3, r3
    1230:	2b01      	cmp	r3, #1
    1232:	d017      	beq.n	1264 <lsm6dso_gy_data_rate_set+0x9c>
    ret = lsm6dso_read_reg(ctx, LSM6DSO_CTRL2_G, (uint8_t *)&reg, 1);
    1234:	2301      	movs	r3, #1
    1236:	466a      	mov	r2, sp
    1238:	2111      	movs	r1, #17
    123a:	0020      	movs	r0, r4
    123c:	4e1e      	ldr	r6, [pc, #120]	; (12b8 <lsm6dso_gy_data_rate_set+0xf0>)
    123e:	47b0      	blx	r6
  if (ret == 0)
    1240:	2800      	cmp	r0, #0
    1242:	d10d      	bne.n	1260 <lsm6dso_gy_data_rate_set+0x98>
    reg.odr_g = (uint8_t) odr_gy;
    1244:	012b      	lsls	r3, r5, #4
    1246:	466a      	mov	r2, sp
    1248:	7812      	ldrb	r2, [r2, #0]
    124a:	250f      	movs	r5, #15
    124c:	4015      	ands	r5, r2
    124e:	431d      	orrs	r5, r3
    1250:	466b      	mov	r3, sp
    1252:	701d      	strb	r5, [r3, #0]
    ret = lsm6dso_write_reg(ctx, LSM6DSO_CTRL2_G, (uint8_t *)&reg, 1);
    1254:	2301      	movs	r3, #1
    1256:	466a      	mov	r2, sp
    1258:	2111      	movs	r1, #17
    125a:	0020      	movs	r0, r4
    125c:	4c17      	ldr	r4, [pc, #92]	; (12bc <lsm6dso_gy_data_rate_set+0xf4>)
    125e:	47a0      	blx	r4
}
    1260:	b002      	add	sp, #8
    1262:	bd70      	pop	{r4, r5, r6, pc}
      ret =  lsm6dso_fsm_data_rate_get(ctx, &fsm_odr);
    1264:	466b      	mov	r3, sp
    1266:	1cd9      	adds	r1, r3, #3
    1268:	0020      	movs	r0, r4
    126a:	4b15      	ldr	r3, [pc, #84]	; (12c0 <lsm6dso_gy_data_rate_set+0xf8>)
    126c:	4798      	blx	r3
      if (ret == 0)
    126e:	2800      	cmp	r0, #0
    1270:	d1f6      	bne.n	1260 <lsm6dso_gy_data_rate_set+0x98>
        switch (fsm_odr)
    1272:	466b      	mov	r3, sp
    1274:	3303      	adds	r3, #3
    1276:	781b      	ldrb	r3, [r3, #0]
    1278:	2b01      	cmp	r3, #1
    127a:	d00f      	beq.n	129c <lsm6dso_gy_data_rate_set+0xd4>
    127c:	2b00      	cmp	r3, #0
    127e:	d009      	beq.n	1294 <lsm6dso_gy_data_rate_set+0xcc>
    1280:	2b02      	cmp	r3, #2
    1282:	d011      	beq.n	12a8 <lsm6dso_gy_data_rate_set+0xe0>
    1284:	2b03      	cmp	r3, #3
    1286:	d1d5      	bne.n	1234 <lsm6dso_gy_data_rate_set+0x6c>
    1288:	1c2b      	adds	r3, r5, #0
    128a:	2d03      	cmp	r5, #3
    128c:	d800      	bhi.n	1290 <lsm6dso_gy_data_rate_set+0xc8>
    128e:	2304      	movs	r3, #4
    1290:	b2dd      	uxtb	r5, r3
    1292:	e7cf      	b.n	1234 <lsm6dso_gy_data_rate_set+0x6c>
            if (val == LSM6DSO_GY_ODR_OFF)
    1294:	2d00      	cmp	r5, #0
    1296:	d1cd      	bne.n	1234 <lsm6dso_gy_data_rate_set+0x6c>
              odr_gy = LSM6DSO_GY_ODR_12Hz5;
    1298:	2501      	movs	r5, #1
    129a:	e7cb      	b.n	1234 <lsm6dso_gy_data_rate_set+0x6c>
    129c:	1c2b      	adds	r3, r5, #0
    129e:	2d01      	cmp	r5, #1
    12a0:	d800      	bhi.n	12a4 <lsm6dso_gy_data_rate_set+0xdc>
    12a2:	2302      	movs	r3, #2
    12a4:	b2dd      	uxtb	r5, r3
    12a6:	e7c5      	b.n	1234 <lsm6dso_gy_data_rate_set+0x6c>
    12a8:	1c2b      	adds	r3, r5, #0
    12aa:	2d02      	cmp	r5, #2
    12ac:	d800      	bhi.n	12b0 <lsm6dso_gy_data_rate_set+0xe8>
    12ae:	2303      	movs	r3, #3
    12b0:	b2dd      	uxtb	r5, r3
    12b2:	e7bf      	b.n	1234 <lsm6dso_gy_data_rate_set+0x6c>
    12b4:	00001029 	.word	0x00001029
    12b8:	00000cdd 	.word	0x00000cdd
    12bc:	00000ce9 	.word	0x00000ce9
    12c0:	0000105d 	.word	0x0000105d

000012c4 <GetImuStruct>:


stmdev_ctx_t * GetImuStruct(void)
{
return &dev_ctx;
}
    12c4:	4800      	ldr	r0, [pc, #0]	; (12c8 <GetImuStruct+0x4>)
    12c6:	4770      	bx	lr
    12c8:	20000000 	.word	0x20000000

000012cc <InitImu>:



int32_t InitImu(void)
{
    12cc:	b5f0      	push	{r4, r5, r6, r7, lr}
    12ce:	b083      	sub	sp, #12
uint8_t rst;
int32_t error = 0;
/*
   * Restore default configuration
   */
  error = lsm6dso_reset_set(&dev_ctx, PROPERTY_ENABLE);
    12d0:	2101      	movs	r1, #1
    12d2:	481b      	ldr	r0, [pc, #108]	; (1340 <InitImu+0x74>)
    12d4:	4b1b      	ldr	r3, [pc, #108]	; (1344 <InitImu+0x78>)
    12d6:	4798      	blx	r3
    12d8:	0004      	movs	r4, r0
  do {
    error |= lsm6dso_reset_get(&dev_ctx, &rst);
    12da:	466b      	mov	r3, sp
    12dc:	1ddd      	adds	r5, r3, #7
    12de:	4e18      	ldr	r6, [pc, #96]	; (1340 <InitImu+0x74>)
    12e0:	4f19      	ldr	r7, [pc, #100]	; (1348 <InitImu+0x7c>)
    12e2:	0029      	movs	r1, r5
    12e4:	0030      	movs	r0, r6
    12e6:	47b8      	blx	r7
    12e8:	4304      	orrs	r4, r0
  } while (rst);
    12ea:	782b      	ldrb	r3, [r5, #0]
    12ec:	2b00      	cmp	r3, #0
    12ee:	d1f8      	bne.n	12e2 <InitImu+0x16>

  /* Disable I3C interface */
  lsm6dso_i3c_disable_set(&dev_ctx, LSM6DSO_I3C_DISABLE);
    12f0:	4d13      	ldr	r5, [pc, #76]	; (1340 <InitImu+0x74>)
    12f2:	2180      	movs	r1, #128	; 0x80
    12f4:	0028      	movs	r0, r5
    12f6:	4b15      	ldr	r3, [pc, #84]	; (134c <InitImu+0x80>)
    12f8:	4798      	blx	r3
  /* Enable Block Data Update */
  lsm6dso_block_data_update_set(&dev_ctx, PROPERTY_ENABLE);
    12fa:	2101      	movs	r1, #1
    12fc:	0028      	movs	r0, r5
    12fe:	4b14      	ldr	r3, [pc, #80]	; (1350 <InitImu+0x84>)
    1300:	4798      	blx	r3
  /* Weight of XL user offset to 2^(-10) g/LSB */
  lsm6dso_xl_offset_weight_set(&dev_ctx, LSM6DSO_LSb_1mg);
    1302:	2100      	movs	r1, #0
    1304:	0028      	movs	r0, r5
    1306:	4b13      	ldr	r3, [pc, #76]	; (1354 <InitImu+0x88>)
    1308:	4798      	blx	r3
  /* Accelerometer X,Y,Z axis user offset correction expressed
   * in twos complement. Set X to 48mg, Y tp 64 mg, Z to -127 mg
   */

  /* Set Output Data Rate */
  lsm6dso_xl_data_rate_set(&dev_ctx, LSM6DSO_XL_ODR_12Hz5);
    130a:	2101      	movs	r1, #1
    130c:	0028      	movs	r0, r5
    130e:	4b12      	ldr	r3, [pc, #72]	; (1358 <InitImu+0x8c>)
    1310:	4798      	blx	r3
  lsm6dso_gy_data_rate_set(&dev_ctx, LSM6DSO_GY_ODR_12Hz5);
    1312:	2101      	movs	r1, #1
    1314:	0028      	movs	r0, r5
    1316:	4b11      	ldr	r3, [pc, #68]	; (135c <InitImu+0x90>)
    1318:	4798      	blx	r3
  /* Set full scale */
  lsm6dso_xl_full_scale_set(&dev_ctx, LSM6DSO_2g);
    131a:	2100      	movs	r1, #0
    131c:	0028      	movs	r0, r5
    131e:	4b10      	ldr	r3, [pc, #64]	; (1360 <InitImu+0x94>)
    1320:	4798      	blx	r3
  lsm6dso_gy_full_scale_set(&dev_ctx, LSM6DSO_2000dps);
    1322:	2106      	movs	r1, #6
    1324:	0028      	movs	r0, r5
    1326:	4b0f      	ldr	r3, [pc, #60]	; (1364 <InitImu+0x98>)
    1328:	4798      	blx	r3
  /* Configure filtering chain(No aux interface). */
  /* Accelerometer - LPF1 + LPF2 path */
  lsm6dso_xl_hp_path_on_out_set(&dev_ctx, LSM6DSO_LP_ODR_DIV_100);
    132a:	2104      	movs	r1, #4
    132c:	0028      	movs	r0, r5
    132e:	4b0e      	ldr	r3, [pc, #56]	; (1368 <InitImu+0x9c>)
    1330:	4798      	blx	r3
  lsm6dso_xl_filter_lp2_set(&dev_ctx, PROPERTY_ENABLE);
    1332:	2101      	movs	r1, #1
    1334:	0028      	movs	r0, r5
    1336:	4b0d      	ldr	r3, [pc, #52]	; (136c <InitImu+0xa0>)
    1338:	4798      	blx	r3

  return error;
}
    133a:	0020      	movs	r0, r4
    133c:	b003      	add	sp, #12
    133e:	bdf0      	pop	{r4, r5, r6, r7, pc}
    1340:	20000000 	.word	0x20000000
    1344:	00000ec1 	.word	0x00000ec1
    1348:	00000efd 	.word	0x00000efd
    134c:	00000fb9 	.word	0x00000fb9
    1350:	00000d91 	.word	0x00000d91
    1354:	00000dd1 	.word	0x00000dd1
    1358:	000010cd 	.word	0x000010cd
    135c:	000011c9 	.word	0x000011c9
    1360:	00000d11 	.word	0x00000d11
    1364:	00000d51 	.word	0x00000d51
    1368:	00000f61 	.word	0x00000f61
    136c:	00000f21 	.word	0x00000f21

00001370 <SeesawActivateKey>:
                				
* @return		Returns zero if no I2C errors occurred. Other number in case of error
* @note         
*****************************************************************************/
int32_t SeesawActivateKey(uint8_t key, uint8_t edge, bool enable)
	{
    1370:	b510      	push	{r4, lr}
    1372:	b082      	sub	sp, #8
	union keyState ks;
	ks.bit.STATE = enable;
    1374:	2401      	movs	r4, #1
	ks.bit.ACTIVE = (1 << edge);
    1376:	0023      	movs	r3, r4
    1378:	408b      	lsls	r3, r1
    137a:	210f      	movs	r1, #15
    137c:	4019      	ands	r1, r3
    137e:	0049      	lsls	r1, r1, #1
    1380:	2301      	movs	r3, #1
    1382:	401a      	ands	r2, r3
    1384:	430a      	orrs	r2, r1
	uint8_t cmd[] = {SEESAW_KEYPAD_BASE, SEESAW_KEYPAD_EVENT, key, ks.reg};
    1386:	ab01      	add	r3, sp, #4
    1388:	2110      	movs	r1, #16
    138a:	7019      	strb	r1, [r3, #0]
    138c:	705c      	strb	r4, [r3, #1]
    138e:	7098      	strb	r0, [r3, #2]
    1390:	70da      	strb	r2, [r3, #3]

	seesawData.address = NEO_TRELLIS_ADDR;
    1392:	4806      	ldr	r0, [pc, #24]	; (13ac <SeesawActivateKey+0x3c>)
    1394:	222e      	movs	r2, #46	; 0x2e
    1396:	7002      	strb	r2, [r0, #0]
	seesawData.msgOut = &cmd;
    1398:	6043      	str	r3, [r0, #4]
	seesawData.lenOut = sizeof(cmd);
    139a:	2304      	movs	r3, #4
    139c:	81c3      	strh	r3, [r0, #14]
	seesawData.lenIn = 0;
    139e:	2300      	movs	r3, #0
    13a0:	8183      	strh	r3, [r0, #12]
	int32_t error = I2cWriteDataWait(&seesawData, 100);
    13a2:	3154      	adds	r1, #84	; 0x54
    13a4:	4b02      	ldr	r3, [pc, #8]	; (13b0 <SeesawActivateKey+0x40>)
    13a6:	4798      	blx	r3
	return error;
}
    13a8:	b002      	add	sp, #8
    13aa:	bd10      	pop	{r4, pc}
    13ac:	200038f4 	.word	0x200038f4
    13b0:	00000bc9 	.word	0x00000bc9

000013b4 <SeesawSetLed>:
* @return		Returns zero if no I2C errors occurred. Other number in case of error
* @note         Note that the LEDs wont turn on until you send a "SeesawOrderLedUpdate" command.
	FOR ESE516 Board, please do not turn ALL the LEDs to maximum brightness (255,255,255)!
*****************************************************************************/
int32_t SeesawSetLed(uint8_t key, uint8_t red, uint8_t green, uint8_t blue)
{
    13b4:	b530      	push	{r4, r5, lr}
    13b6:	b083      	sub	sp, #12
	uint8_t write_buffer1[7] = {SEESAW_NEOPIXEL_BASE, SEESAW_NEOPIXEL_BUF, 0, 0, green, red, blue};
    13b8:	240e      	movs	r4, #14
    13ba:	466d      	mov	r5, sp
    13bc:	702c      	strb	r4, [r5, #0]
    13be:	3c0a      	subs	r4, #10
    13c0:	706c      	strb	r4, [r5, #1]
    13c2:	712a      	strb	r2, [r5, #4]
    13c4:	7169      	strb	r1, [r5, #5]
    13c6:	71ab      	strb	r3, [r5, #6]
	uint8_t orderBuffer[2] = {SEESAW_NEOPIXEL_BASE, SEESAW_NEOPIXEL_SHOW};

	uint16_t offset = 3 * key; //RGB LED
    13c8:	0043      	lsls	r3, r0, #1
    13ca:	18c0      	adds	r0, r0, r3
	write_buffer1[2] = (offset >> 8);
    13cc:	0a03      	lsrs	r3, r0, #8
    13ce:	70ab      	strb	r3, [r5, #2]
	write_buffer1[3] = (offset);
    13d0:	70e8      	strb	r0, [r5, #3]

	seesawData.msgOut = &write_buffer1;
    13d2:	4804      	ldr	r0, [pc, #16]	; (13e4 <SeesawSetLed+0x30>)
    13d4:	6045      	str	r5, [r0, #4]
	seesawData.lenOut = sizeof(write_buffer1);
    13d6:	2307      	movs	r3, #7
    13d8:	81c3      	strh	r3, [r0, #14]
	int error = I2cWriteDataWait(&seesawData, 100);
    13da:	2164      	movs	r1, #100	; 0x64
    13dc:	4b02      	ldr	r3, [pc, #8]	; (13e8 <SeesawSetLed+0x34>)
    13de:	4798      	blx	r3
	return error;

}
    13e0:	b003      	add	sp, #12
    13e2:	bd30      	pop	{r4, r5, pc}
    13e4:	200038f4 	.word	0x200038f4
    13e8:	00000bc9 	.word	0x00000bc9

000013ec <SeesawOrderLedUpdate>:
* @return		Returns zero if no I2C errors occurred. Other number in case of error
* @note         Use "SeesawSetLed" to send LED Data. The data will not be use to update the display until this function has been called!

*****************************************************************************/
int32_t SeesawOrderLedUpdate(void)
{
    13ec:	b500      	push	{lr}
    13ee:	b083      	sub	sp, #12
	uint8_t orderBuffer[2] = {SEESAW_NEOPIXEL_BASE, SEESAW_NEOPIXEL_SHOW};
    13f0:	ab01      	add	r3, sp, #4
    13f2:	4a06      	ldr	r2, [pc, #24]	; (140c <SeesawOrderLedUpdate+0x20>)
    13f4:	8892      	ldrh	r2, [r2, #4]
    13f6:	801a      	strh	r2, [r3, #0]

	seesawData.msgOut = &orderBuffer;
    13f8:	4805      	ldr	r0, [pc, #20]	; (1410 <SeesawOrderLedUpdate+0x24>)
    13fa:	6043      	str	r3, [r0, #4]
	seesawData.lenOut = sizeof(orderBuffer);
    13fc:	2302      	movs	r3, #2
    13fe:	81c3      	strh	r3, [r0, #14]
	int error = I2cWriteDataWait(&seesawData, 100);
    1400:	2164      	movs	r1, #100	; 0x64
    1402:	4b04      	ldr	r3, [pc, #16]	; (1414 <SeesawOrderLedUpdate+0x28>)
    1404:	4798      	blx	r3
	return error;
}
    1406:	b003      	add	sp, #12
    1408:	bd00      	pop	{pc}
    140a:	46c0      	nop			; (mov r8, r8)
    140c:	00009890 	.word	0x00009890
    1410:	200038f4 	.word	0x200038f4
    1414:	00000bc9 	.word	0x00000bc9

00001418 <InitializeSeesaw>:
{
    1418:	b5f0      	push	{r4, r5, r6, r7, lr}
    141a:	46ce      	mov	lr, r9
    141c:	b500      	push	{lr}
    141e:	b084      	sub	sp, #16
	seesawData.address = NEO_TRELLIS_ADDR;
    1420:	484b      	ldr	r0, [pc, #300]	; (1550 <InitializeSeesaw+0x138>)
    1422:	232e      	movs	r3, #46	; 0x2e
    1424:	7003      	strb	r3, [r0, #0]
	seesawData.msgOut = &msgBaseGetHWID;
    1426:	4b4b      	ldr	r3, [pc, #300]	; (1554 <InitializeSeesaw+0x13c>)
    1428:	6043      	str	r3, [r0, #4]
	seesawData.lenOut = sizeof(msgBaseGetHWID);
    142a:	2302      	movs	r3, #2
    142c:	81c3      	strh	r3, [r0, #14]
	seesawData.msgIn = &readData;
    142e:	ab03      	add	r3, sp, #12
    1430:	6083      	str	r3, [r0, #8]
	seesawData.lenIn = 1;
    1432:	2301      	movs	r3, #1
    1434:	8183      	strh	r3, [r0, #12]
	int error = I2cReadDataWait(&seesawData, 0, 100);
    1436:	2264      	movs	r2, #100	; 0x64
    1438:	2100      	movs	r1, #0
    143a:	4b47      	ldr	r3, [pc, #284]	; (1558 <InitializeSeesaw+0x140>)
    143c:	4798      	blx	r3
	if(ERROR_NONE != error)
    143e:	2800      	cmp	r0, #0
    1440:	d10d      	bne.n	145e <InitializeSeesaw+0x46>
		if(readData[0] != SEESAW_HW_ID_CODE )
    1442:	ab03      	add	r3, sp, #12
    1444:	781b      	ldrb	r3, [r3, #0]
    1446:	2b55      	cmp	r3, #85	; 0x55
    1448:	d04f      	beq.n	14ea <InitializeSeesaw+0xd2>
			SerialConsoleWriteString("Error/r/n");
    144a:	4844      	ldr	r0, [pc, #272]	; (155c <InitializeSeesaw+0x144>)
    144c:	4b44      	ldr	r3, [pc, #272]	; (1560 <InitializeSeesaw+0x148>)
    144e:	4798      	blx	r3
			return 1;
    1450:	2301      	movs	r3, #1
    1452:	9301      	str	r3, [sp, #4]
}
    1454:	9801      	ldr	r0, [sp, #4]
    1456:	b004      	add	sp, #16
    1458:	bc04      	pop	{r2}
    145a:	4691      	mov	r9, r2
    145c:	bdf0      	pop	{r4, r5, r6, r7, pc}
		SerialConsoleWriteString("Error initializing Seesaw!\r\n");
    145e:	4841      	ldr	r0, [pc, #260]	; (1564 <InitializeSeesaw+0x14c>)
    1460:	4b3f      	ldr	r3, [pc, #252]	; (1560 <InitializeSeesaw+0x148>)
    1462:	4798      	blx	r3
	seesawData.msgOut = &msgNeopixelPin;
    1464:	483a      	ldr	r0, [pc, #232]	; (1550 <InitializeSeesaw+0x138>)
    1466:	4b40      	ldr	r3, [pc, #256]	; (1568 <InitializeSeesaw+0x150>)
    1468:	6043      	str	r3, [r0, #4]
	seesawData.lenOut = sizeof(msgNeopixelPin);
    146a:	2303      	movs	r3, #3
    146c:	81c3      	strh	r3, [r0, #14]
	error = I2cWriteDataWait(&seesawData, 100);
    146e:	2164      	movs	r1, #100	; 0x64
    1470:	4b3e      	ldr	r3, [pc, #248]	; (156c <InitializeSeesaw+0x154>)
    1472:	4798      	blx	r3
	if(ERROR_NONE != error)
    1474:	2800      	cmp	r0, #0
    1476:	d13c      	bne.n	14f2 <InitializeSeesaw+0xda>
	seesawData.msgOut = &msgNeopixelSpeed;
    1478:	4835      	ldr	r0, [pc, #212]	; (1550 <InitializeSeesaw+0x138>)
    147a:	4b3d      	ldr	r3, [pc, #244]	; (1570 <InitializeSeesaw+0x158>)
    147c:	6043      	str	r3, [r0, #4]
	seesawData.lenOut = sizeof(msgNeopixelSpeed);
    147e:	2303      	movs	r3, #3
    1480:	81c3      	strh	r3, [r0, #14]
	error = I2cWriteDataWait(&seesawData, 100);
    1482:	2164      	movs	r1, #100	; 0x64
    1484:	4b39      	ldr	r3, [pc, #228]	; (156c <InitializeSeesaw+0x154>)
    1486:	4798      	blx	r3
	if(ERROR_NONE != error)
    1488:	2800      	cmp	r0, #0
    148a:	d136      	bne.n	14fa <InitializeSeesaw+0xe2>
	seesawData.msgOut = &msgNeopixelBufLength;
    148c:	4830      	ldr	r0, [pc, #192]	; (1550 <InitializeSeesaw+0x138>)
    148e:	4b39      	ldr	r3, [pc, #228]	; (1574 <InitializeSeesaw+0x15c>)
    1490:	6043      	str	r3, [r0, #4]
	seesawData.lenOut = sizeof(msgNeopixelBufLength);
    1492:	2304      	movs	r3, #4
    1494:	81c3      	strh	r3, [r0, #14]
	error = I2cWriteDataWait(&seesawData, 100);
    1496:	2164      	movs	r1, #100	; 0x64
    1498:	4b34      	ldr	r3, [pc, #208]	; (156c <InitializeSeesaw+0x154>)
    149a:	4798      	blx	r3
    149c:	9001      	str	r0, [sp, #4]
	if(ERROR_NONE != error)
    149e:	2800      	cmp	r0, #0
    14a0:	d12f      	bne.n	1502 <InitializeSeesaw+0xea>
}


static void SeesawTurnOnLedTest(void)
{
	SeesawSetLed(15, 255, 255, 255);
    14a2:	23ff      	movs	r3, #255	; 0xff
    14a4:	22ff      	movs	r2, #255	; 0xff
    14a6:	21ff      	movs	r1, #255	; 0xff
    14a8:	200f      	movs	r0, #15
    14aa:	4e33      	ldr	r6, [pc, #204]	; (1578 <InitializeSeesaw+0x160>)
    14ac:	47b0      	blx	r6
	SeesawOrderLedUpdate();
    14ae:	4c33      	ldr	r4, [pc, #204]	; (157c <InitializeSeesaw+0x164>)
    14b0:	47a0      	blx	r4
	vTaskDelay(400);
    14b2:	20c8      	movs	r0, #200	; 0xc8
    14b4:	0040      	lsls	r0, r0, #1
    14b6:	4b32      	ldr	r3, [pc, #200]	; (1580 <InitializeSeesaw+0x168>)
    14b8:	4798      	blx	r3

	SeesawSetLed(15, 0, 0, 0);
    14ba:	2300      	movs	r3, #0
    14bc:	2200      	movs	r2, #0
    14be:	2100      	movs	r1, #0
    14c0:	200f      	movs	r0, #15
    14c2:	47b0      	blx	r6
	SeesawOrderLedUpdate();
    14c4:	47a0      	blx	r4
	seesawData.address = NEO_TRELLIS_ADDR;
    14c6:	4822      	ldr	r0, [pc, #136]	; (1550 <InitializeSeesaw+0x138>)
    14c8:	232e      	movs	r3, #46	; 0x2e
    14ca:	7003      	strb	r3, [r0, #0]
	seesawData.msgOut = &msgKeypadEnableInt;
    14cc:	4b2d      	ldr	r3, [pc, #180]	; (1584 <InitializeSeesaw+0x16c>)
    14ce:	6043      	str	r3, [r0, #4]
	seesawData.lenOut = sizeof(msgKeypadEnableInt);
    14d0:	2303      	movs	r3, #3
    14d2:	81c3      	strh	r3, [r0, #14]
	seesawData.lenIn = 0;
    14d4:	2300      	movs	r3, #0
    14d6:	8183      	strh	r3, [r0, #12]
	int32_t error = I2cWriteDataWait(&seesawData, 100);
    14d8:	2164      	movs	r1, #100	; 0x64
    14da:	4b24      	ldr	r3, [pc, #144]	; (156c <InitializeSeesaw+0x154>)
    14dc:	4798      	blx	r3
	if(ERROR_NONE != error)
    14de:	2800      	cmp	r0, #0
    14e0:	d113      	bne.n	150a <InitializeSeesaw+0xf2>
{
    14e2:	2600      	movs	r6, #0
		error = SeesawActivateKey(NEO_TRELLIS_KEY(i), SEESAW_KEYPAD_EDGE_RISING, true);
    14e4:	2703      	movs	r7, #3
    14e6:	4d28      	ldr	r5, [pc, #160]	; (1588 <InitializeSeesaw+0x170>)
    14e8:	e016      	b.n	1518 <InitializeSeesaw+0x100>
		SerialConsoleWriteString("Found Seesaw!/r/n");
    14ea:	4828      	ldr	r0, [pc, #160]	; (158c <InitializeSeesaw+0x174>)
    14ec:	4b1c      	ldr	r3, [pc, #112]	; (1560 <InitializeSeesaw+0x148>)
    14ee:	4798      	blx	r3
    14f0:	e7b8      	b.n	1464 <InitializeSeesaw+0x4c>
		SerialConsoleWriteString("Could not write Seesaw pin!/r/n");
    14f2:	4827      	ldr	r0, [pc, #156]	; (1590 <InitializeSeesaw+0x178>)
    14f4:	4b1a      	ldr	r3, [pc, #104]	; (1560 <InitializeSeesaw+0x148>)
    14f6:	4798      	blx	r3
    14f8:	e7be      	b.n	1478 <InitializeSeesaw+0x60>
		SerialConsoleWriteString("Could not set seesaw Neopixel speed!/r/n");
    14fa:	4826      	ldr	r0, [pc, #152]	; (1594 <InitializeSeesaw+0x17c>)
    14fc:	4b18      	ldr	r3, [pc, #96]	; (1560 <InitializeSeesaw+0x148>)
    14fe:	4798      	blx	r3
    1500:	e7c4      	b.n	148c <InitializeSeesaw+0x74>
		SerialConsoleWriteString("Could not set seesaw Neopixel number of devices/r/n");
    1502:	4825      	ldr	r0, [pc, #148]	; (1598 <InitializeSeesaw+0x180>)
    1504:	4b16      	ldr	r3, [pc, #88]	; (1560 <InitializeSeesaw+0x148>)
    1506:	4798      	blx	r3
    1508:	e7cb      	b.n	14a2 <InitializeSeesaw+0x8a>
		SerialConsoleWriteString("Could not initialize Keypad!/r/n");
    150a:	4824      	ldr	r0, [pc, #144]	; (159c <InitializeSeesaw+0x184>)
    150c:	4b14      	ldr	r3, [pc, #80]	; (1560 <InitializeSeesaw+0x148>)
    150e:	4798      	blx	r3
    1510:	e7e7      	b.n	14e2 <InitializeSeesaw+0xca>
	for(int i=0; i<16; i++){
    1512:	3601      	adds	r6, #1
    1514:	2e10      	cmp	r6, #16
    1516:	d09d      	beq.n	1454 <InitializeSeesaw+0x3c>
		error = SeesawActivateKey(NEO_TRELLIS_KEY(i), SEESAW_KEYPAD_EDGE_RISING, true);
    1518:	17f2      	asrs	r2, r6, #31
    151a:	003c      	movs	r4, r7
    151c:	4014      	ands	r4, r2
    151e:	19a4      	adds	r4, r4, r6
    1520:	10a4      	asrs	r4, r4, #2
    1522:	00e4      	lsls	r4, r4, #3
    1524:	0f92      	lsrs	r2, r2, #30
    1526:	18b3      	adds	r3, r6, r2
    1528:	403b      	ands	r3, r7
    152a:	1a9b      	subs	r3, r3, r2
    152c:	18e4      	adds	r4, r4, r3
    152e:	b2e4      	uxtb	r4, r4
    1530:	2201      	movs	r2, #1
    1532:	0039      	movs	r1, r7
    1534:	0020      	movs	r0, r4
    1536:	47a8      	blx	r5
    1538:	4681      	mov	r9, r0
		error |= SeesawActivateKey(NEO_TRELLIS_KEY(i), SEESAW_KEYPAD_EDGE_FALLING, true);
    153a:	2201      	movs	r2, #1
    153c:	2102      	movs	r1, #2
    153e:	0020      	movs	r0, r4
    1540:	47a8      	blx	r5
    1542:	464b      	mov	r3, r9
    1544:	4303      	orrs	r3, r0
		if(ERROR_NONE != error)
    1546:	d0e4      	beq.n	1512 <InitializeSeesaw+0xfa>
			SerialConsoleWriteString("Could not initialize Keypad!/r/n");
    1548:	4814      	ldr	r0, [pc, #80]	; (159c <InitializeSeesaw+0x184>)
    154a:	4b05      	ldr	r3, [pc, #20]	; (1560 <InitializeSeesaw+0x148>)
    154c:	4798      	blx	r3
    154e:	e7e0      	b.n	1512 <InitializeSeesaw+0xfa>
    1550:	200038f4 	.word	0x200038f4
    1554:	0000997c 	.word	0x0000997c
    1558:	00000c29 	.word	0x00000c29
    155c:	000098b8 	.word	0x000098b8
    1560:	000056dd 	.word	0x000056dd
    1564:	00009898 	.word	0x00009898
    1568:	00009988 	.word	0x00009988
    156c:	00000bc9 	.word	0x00000bc9
    1570:	0000998c 	.word	0x0000998c
    1574:	00009984 	.word	0x00009984
    1578:	000013b5 	.word	0x000013b5
    157c:	000013ed 	.word	0x000013ed
    1580:	000048b9 	.word	0x000048b9
    1584:	00009980 	.word	0x00009980
    1588:	00001371 	.word	0x00001371
    158c:	000098c4 	.word	0x000098c4
    1590:	000098d8 	.word	0x000098d8
    1594:	000098f8 	.word	0x000098f8
    1598:	00009924 	.word	0x00009924
    159c:	00009958 	.word	0x00009958

000015a0 <vUiHandlerTask>:
* @param[in]	Parameters passed when task is initialized. In this case we can ignore them!
* @return		Should not return! This is a task defining function.
* @note         
*****************************************************************************/
void vUiHandlerTask( void *pvParameters )
{
    15a0:	b570      	push	{r4, r5, r6, lr}
//Do initialization code here
SerialConsoleWriteString("UI Task Started!");
    15a2:	4808      	ldr	r0, [pc, #32]	; (15c4 <vUiHandlerTask+0x24>)
    15a4:	4b08      	ldr	r3, [pc, #32]	; (15c8 <vUiHandlerTask+0x28>)
    15a6:	4798      	blx	r3
uiState = UI_STATE_HANDLE_BUTTONS;
    15a8:	2200      	movs	r2, #0
    15aa:	4b08      	ldr	r3, [pc, #32]	; (15cc <vUiHandlerTask+0x2c>)
    15ac:	701a      	strb	r2, [r3, #0]
			uiState = UI_STATE_HANDLE_BUTTONS;
		break;
	}

	//After execution, you can put a thread to sleep for some time.
	vTaskDelay(50);
    15ae:	4d08      	ldr	r5, [pc, #32]	; (15d0 <vUiHandlerTask+0x30>)
	switch(uiState)
    15b0:	001c      	movs	r4, r3
			uiState = UI_STATE_HANDLE_BUTTONS;
    15b2:	001e      	movs	r6, r3
	vTaskDelay(50);
    15b4:	2032      	movs	r0, #50	; 0x32
    15b6:	47a8      	blx	r5
	switch(uiState)
    15b8:	7823      	ldrb	r3, [r4, #0]
    15ba:	2b02      	cmp	r3, #2
    15bc:	d9fa      	bls.n	15b4 <vUiHandlerTask+0x14>
			uiState = UI_STATE_HANDLE_BUTTONS;
    15be:	2300      	movs	r3, #0
    15c0:	7033      	strb	r3, [r6, #0]
		break;
    15c2:	e7f7      	b.n	15b4 <vUiHandlerTask+0x14>
    15c4:	00009990 	.word	0x00009990
    15c8:	000056dd 	.word	0x000056dd
    15cc:	20003904 	.word	0x20003904
    15d0:	000048b9 	.word	0x000048b9

000015d4 <_i2c_master_wait_for_sync>:
	SercomI2cm *const i2c_hw = &(module->hw->I2CM);
    15d4:	6801      	ldr	r1, [r0, #0]
	return (i2c_hw->SYNCBUSY.reg & SERCOM_I2CM_SYNCBUSY_MASK);
    15d6:	2207      	movs	r2, #7
    15d8:	69cb      	ldr	r3, [r1, #28]
	while (i2c_master_is_syncing(module)) {
    15da:	421a      	tst	r2, r3
    15dc:	d1fc      	bne.n	15d8 <_i2c_master_wait_for_sync+0x4>
}
    15de:	4770      	bx	lr

000015e0 <i2c_master_init>:
 */
enum status_code i2c_master_init(
		struct i2c_master_module *const module,
		Sercom *const hw,
		const struct i2c_master_config *const config)
{
    15e0:	b5f0      	push	{r4, r5, r6, r7, lr}
    15e2:	46d6      	mov	lr, sl
    15e4:	464f      	mov	r7, r9
    15e6:	4646      	mov	r6, r8
    15e8:	b5c0      	push	{r6, r7, lr}
    15ea:	b08a      	sub	sp, #40	; 0x28
    15ec:	0006      	movs	r6, r0
    15ee:	000f      	movs	r7, r1
    15f0:	0014      	movs	r4, r2
	Assert(module);
	Assert(hw);
	Assert(config);

	/* Initialize software module */
	module->hw = hw;
    15f2:	6031      	str	r1, [r6, #0]

	SercomI2cm *const i2c_module = &(module->hw->I2CM);

	uint32_t sercom_index = _sercom_get_sercom_inst_index(module->hw);
    15f4:	0008      	movs	r0, r1
    15f6:	4ba0      	ldr	r3, [pc, #640]	; (1878 <i2c_master_init+0x298>)
    15f8:	4798      	blx	r3
		case SYSTEM_CLOCK_APB_APBB:
			PM->APBBMASK.reg |= mask;
			break;

		case SYSTEM_CLOCK_APB_APBC:
			PM->APBCMASK.reg |= mask;
    15fa:	4aa0      	ldr	r2, [pc, #640]	; (187c <i2c_master_init+0x29c>)
    15fc:	6a11      	ldr	r1, [r2, #32]
		gclk_index   = SERCOM5_GCLK_ID_CORE;
	} else {
		gclk_index   = sercom_index + SERCOM0_GCLK_ID_CORE;
	}
#else
	pm_index     = sercom_index + PM_APBCMASK_SERCOM0_Pos;
    15fe:	1c85      	adds	r5, r0, #2
		system_apb_clock_set_mask(SYSTEM_CLOCK_APB_APBD, 1 << pm_index);
	} else {
		system_apb_clock_set_mask(SYSTEM_CLOCK_APB_APBC, 1 << pm_index);
	}
#else
	system_apb_clock_set_mask(SYSTEM_CLOCK_APB_APBC, 1 << pm_index);
    1600:	2301      	movs	r3, #1
    1602:	40ab      	lsls	r3, r5
    1604:	430b      	orrs	r3, r1
    1606:	6213      	str	r3, [r2, #32]
#endif

	/* Set up the GCLK for the module */
	struct system_gclk_chan_config gclk_chan_conf;
	system_gclk_chan_get_config_defaults(&gclk_chan_conf);
	gclk_chan_conf.source_generator = config->generator_source;
    1608:	a909      	add	r1, sp, #36	; 0x24
    160a:	7b23      	ldrb	r3, [r4, #12]
    160c:	700b      	strb	r3, [r1, #0]
	gclk_index   = sercom_index + SERCOM0_GCLK_ID_CORE;
    160e:	3014      	adds	r0, #20
	system_gclk_chan_set_config(gclk_index, &gclk_chan_conf);
    1610:	b2c5      	uxtb	r5, r0
    1612:	0028      	movs	r0, r5
    1614:	4b9a      	ldr	r3, [pc, #616]	; (1880 <i2c_master_init+0x2a0>)
    1616:	4798      	blx	r3
	system_gclk_chan_enable(gclk_index);
    1618:	0028      	movs	r0, r5
    161a:	4b9a      	ldr	r3, [pc, #616]	; (1884 <i2c_master_init+0x2a4>)
    161c:	4798      	blx	r3
	sercom_set_gclk_generator(config->generator_source, false);
    161e:	7b20      	ldrb	r0, [r4, #12]
    1620:	2100      	movs	r1, #0
    1622:	4b99      	ldr	r3, [pc, #612]	; (1888 <i2c_master_init+0x2a8>)
    1624:	4798      	blx	r3

	/* Check if module is enabled. */
	if (i2c_module->CTRLA.reg & SERCOM_I2CM_CTRLA_ENABLE) {
    1626:	683b      	ldr	r3, [r7, #0]
		return STATUS_ERR_DENIED;
    1628:	201c      	movs	r0, #28
	if (i2c_module->CTRLA.reg & SERCOM_I2CM_CTRLA_ENABLE) {
    162a:	079b      	lsls	r3, r3, #30
    162c:	d505      	bpl.n	163a <i2c_master_init+0x5a>
	/* Set sercom module to operate in I2C master mode. */
	i2c_module->CTRLA.reg = SERCOM_I2CM_CTRLA_MODE(0x5);

	/* Set config and return status. */
	return _i2c_master_set_config(module, config);
}
    162e:	b00a      	add	sp, #40	; 0x28
    1630:	bc1c      	pop	{r2, r3, r4}
    1632:	4690      	mov	r8, r2
    1634:	4699      	mov	r9, r3
    1636:	46a2      	mov	sl, r4
    1638:	bdf0      	pop	{r4, r5, r6, r7, pc}
	if (i2c_module->CTRLA.reg & SERCOM_I2CM_CTRLA_SWRST) {
    163a:	683b      	ldr	r3, [r7, #0]
		return STATUS_BUSY;
    163c:	3817      	subs	r0, #23
	if (i2c_module->CTRLA.reg & SERCOM_I2CM_CTRLA_SWRST) {
    163e:	07db      	lsls	r3, r3, #31
    1640:	d4f5      	bmi.n	162e <i2c_master_init+0x4e>
	uint8_t instance_index = _sercom_get_sercom_inst_index(module->hw);
    1642:	6830      	ldr	r0, [r6, #0]
    1644:	4b8c      	ldr	r3, [pc, #560]	; (1878 <i2c_master_init+0x298>)
    1646:	4699      	mov	r9, r3
    1648:	4798      	blx	r3
    164a:	0005      	movs	r5, r0
	_sercom_set_handler(instance_index, _i2c_master_interrupt_handler);
    164c:	498f      	ldr	r1, [pc, #572]	; (188c <i2c_master_init+0x2ac>)
    164e:	4b90      	ldr	r3, [pc, #576]	; (1890 <i2c_master_init+0x2b0>)
    1650:	4798      	blx	r3
	_sercom_instances[instance_index] = module;
    1652:	00ad      	lsls	r5, r5, #2
    1654:	4b8f      	ldr	r3, [pc, #572]	; (1894 <i2c_master_init+0x2b4>)
    1656:	50ee      	str	r6, [r5, r3]
	module->registered_callback = 0;
    1658:	2300      	movs	r3, #0
    165a:	7633      	strb	r3, [r6, #24]
	module->enabled_callback = 0;
    165c:	7673      	strb	r3, [r6, #25]
	module->buffer_length = 0;
    165e:	2500      	movs	r5, #0
    1660:	8373      	strh	r3, [r6, #26]
	module->buffer_remaining = 0;
    1662:	83b3      	strh	r3, [r6, #28]
	module->status = STATUS_OK;
    1664:	2225      	movs	r2, #37	; 0x25
    1666:	54b5      	strb	r5, [r6, r2]
	module->buffer = NULL;
    1668:	6233      	str	r3, [r6, #32]
	i2c_module->CTRLA.reg = SERCOM_I2CM_CTRLA_MODE(0x5);
    166a:	3314      	adds	r3, #20
    166c:	603b      	str	r3, [r7, #0]
	SercomI2cm *const i2c_module = &(module->hw->I2CM);
    166e:	6833      	ldr	r3, [r6, #0]
    1670:	4698      	mov	r8, r3
	uint8_t sercom_index = _sercom_get_sercom_inst_index(sercom_hw);
    1672:	0018      	movs	r0, r3
    1674:	47c8      	blx	r9
    1676:	4681      	mov	r9, r0
{
	/* Sanity check arguments */
	Assert(config);

	/* Default configuration values */
	config->mux_position = SYSTEM_PINMUX_GPIO;
    1678:	2380      	movs	r3, #128	; 0x80
    167a:	aa08      	add	r2, sp, #32
    167c:	7013      	strb	r3, [r2, #0]
	config->direction    = SYSTEM_PINMUX_PIN_DIR_INPUT;
    167e:	7055      	strb	r5, [r2, #1]
	config->input_pull   = SYSTEM_PINMUX_PIN_PULL_UP;
    1680:	2301      	movs	r3, #1
    1682:	7093      	strb	r3, [r2, #2]
	config->powersave    = false;
    1684:	70d5      	strb	r5, [r2, #3]
	uint32_t pad0 = config->pinmux_pad0;
    1686:	69e0      	ldr	r0, [r4, #28]
	uint32_t pad1 = config->pinmux_pad1;
    1688:	6a27      	ldr	r7, [r4, #32]
	if (pad0 == PINMUX_DEFAULT) {
    168a:	2800      	cmp	r0, #0
    168c:	d100      	bne.n	1690 <i2c_master_init+0xb0>
    168e:	e0af      	b.n	17f0 <i2c_master_init+0x210>
	pin_conf.mux_position = pad0 & 0xFFFF;
    1690:	ab08      	add	r3, sp, #32
    1692:	7018      	strb	r0, [r3, #0]
	pin_conf.direction    = SYSTEM_PINMUX_PIN_DIR_OUTPUT_WITH_READBACK;
    1694:	2302      	movs	r3, #2
    1696:	aa08      	add	r2, sp, #32
    1698:	7053      	strb	r3, [r2, #1]
	system_pinmux_pin_set_config(pad0 >> 16, &pin_conf);
    169a:	0c00      	lsrs	r0, r0, #16
    169c:	b2c0      	uxtb	r0, r0
    169e:	0011      	movs	r1, r2
    16a0:	4b7d      	ldr	r3, [pc, #500]	; (1898 <i2c_master_init+0x2b8>)
    16a2:	4798      	blx	r3
	if (pad1 == PINMUX_DEFAULT) {
    16a4:	2f00      	cmp	r7, #0
    16a6:	d100      	bne.n	16aa <i2c_master_init+0xca>
    16a8:	e0a7      	b.n	17fa <i2c_master_init+0x21a>
	pin_conf.mux_position = pad1 & 0xFFFF;
    16aa:	ab08      	add	r3, sp, #32
    16ac:	701f      	strb	r7, [r3, #0]
	pin_conf.direction    = SYSTEM_PINMUX_PIN_DIR_OUTPUT_WITH_READBACK;
    16ae:	2302      	movs	r3, #2
    16b0:	aa08      	add	r2, sp, #32
    16b2:	7053      	strb	r3, [r2, #1]
	system_pinmux_pin_set_config(pad1 >> 16, &pin_conf);
    16b4:	0c3f      	lsrs	r7, r7, #16
    16b6:	b2f8      	uxtb	r0, r7
    16b8:	0011      	movs	r1, r2
    16ba:	4b77      	ldr	r3, [pc, #476]	; (1898 <i2c_master_init+0x2b8>)
    16bc:	4798      	blx	r3
	module->unknown_bus_state_timeout = config->unknown_bus_state_timeout;
    16be:	8aa3      	ldrh	r3, [r4, #20]
    16c0:	80f3      	strh	r3, [r6, #6]
	module->buffer_timeout = config->buffer_timeout;
    16c2:	8ae3      	ldrh	r3, [r4, #22]
    16c4:	8133      	strh	r3, [r6, #8]
	if (config->run_in_standby || system_is_debugger_present()) {
    16c6:	7e23      	ldrb	r3, [r4, #24]
		tmp_ctrla = SERCOM_I2CM_CTRLA_RUNSTDBY;
    16c8:	2280      	movs	r2, #128	; 0x80
	if (config->run_in_standby || system_is_debugger_present()) {
    16ca:	2b00      	cmp	r3, #0
    16cc:	d104      	bne.n	16d8 <i2c_master_init+0xf8>
 * \retval false Debugger is not connected to the system
 *
 */
static inline bool system_is_debugger_present(void)
{
	return DSU->STATUSB.reg & DSU_STATUSB_DBGPRES;
    16ce:	4b73      	ldr	r3, [pc, #460]	; (189c <i2c_master_init+0x2bc>)
    16d0:	789b      	ldrb	r3, [r3, #2]
    16d2:	079b      	lsls	r3, r3, #30
		tmp_ctrla = SERCOM_I2CM_CTRLA_RUNSTDBY;
    16d4:	0fdb      	lsrs	r3, r3, #31
    16d6:	01da      	lsls	r2, r3, #7
	tmp_ctrla |= config->transfer_speed;
    16d8:	68a1      	ldr	r1, [r4, #8]
    16da:	6923      	ldr	r3, [r4, #16]
    16dc:	430b      	orrs	r3, r1
    16de:	4313      	orrs	r3, r2
	if (config->scl_low_timeout) {
    16e0:	2224      	movs	r2, #36	; 0x24
    16e2:	5ca2      	ldrb	r2, [r4, r2]
    16e4:	2a00      	cmp	r2, #0
    16e6:	d002      	beq.n	16ee <i2c_master_init+0x10e>
		tmp_ctrla |= SERCOM_I2CM_CTRLA_LOWTOUTEN;
    16e8:	2280      	movs	r2, #128	; 0x80
    16ea:	05d2      	lsls	r2, r2, #23
    16ec:	4313      	orrs	r3, r2
		tmp_ctrla |= config->inactive_timeout;
    16ee:	6aa2      	ldr	r2, [r4, #40]	; 0x28
    16f0:	4313      	orrs	r3, r2
	if (config->scl_stretch_only_after_ack_bit || (config->transfer_speed == I2C_MASTER_SPEED_HIGH_SPEED)) {
    16f2:	222c      	movs	r2, #44	; 0x2c
    16f4:	5ca2      	ldrb	r2, [r4, r2]
    16f6:	2a00      	cmp	r2, #0
    16f8:	d103      	bne.n	1702 <i2c_master_init+0x122>
    16fa:	2280      	movs	r2, #128	; 0x80
    16fc:	0492      	lsls	r2, r2, #18
    16fe:	4291      	cmp	r1, r2
    1700:	d102      	bne.n	1708 <i2c_master_init+0x128>
		tmp_ctrla |= SERCOM_I2CM_CTRLA_SCLSM;
    1702:	2280      	movs	r2, #128	; 0x80
    1704:	0512      	lsls	r2, r2, #20
    1706:	4313      	orrs	r3, r2
	if (config->slave_scl_low_extend_timeout) {
    1708:	222d      	movs	r2, #45	; 0x2d
    170a:	5ca2      	ldrb	r2, [r4, r2]
    170c:	2a00      	cmp	r2, #0
    170e:	d002      	beq.n	1716 <i2c_master_init+0x136>
		tmp_ctrla |= SERCOM_I2CM_CTRLA_SEXTTOEN;
    1710:	2280      	movs	r2, #128	; 0x80
    1712:	0412      	lsls	r2, r2, #16
    1714:	4313      	orrs	r3, r2
	if (config->master_scl_low_extend_timeout) {
    1716:	222e      	movs	r2, #46	; 0x2e
    1718:	5ca2      	ldrb	r2, [r4, r2]
    171a:	2a00      	cmp	r2, #0
    171c:	d002      	beq.n	1724 <i2c_master_init+0x144>
		tmp_ctrla |= SERCOM_I2CM_CTRLA_MEXTTOEN;
    171e:	2280      	movs	r2, #128	; 0x80
    1720:	03d2      	lsls	r2, r2, #15
    1722:	4313      	orrs	r3, r2
	i2c_module->CTRLA.reg |= tmp_ctrla;
    1724:	4642      	mov	r2, r8
    1726:	6812      	ldr	r2, [r2, #0]
    1728:	4313      	orrs	r3, r2
    172a:	4642      	mov	r2, r8
    172c:	6013      	str	r3, [r2, #0]
	i2c_module->CTRLB.reg = SERCOM_I2CM_CTRLB_SMEN;
    172e:	2380      	movs	r3, #128	; 0x80
    1730:	005b      	lsls	r3, r3, #1
    1732:	6053      	str	r3, [r2, #4]
	uint32_t fgclk       = system_gclk_chan_get_hz(SERCOM0_GCLK_ID_CORE + sercom_index);
    1734:	4648      	mov	r0, r9
    1736:	3014      	adds	r0, #20
    1738:	b2c0      	uxtb	r0, r0
    173a:	4b59      	ldr	r3, [pc, #356]	; (18a0 <i2c_master_init+0x2c0>)
    173c:	4798      	blx	r3
    173e:	9007      	str	r0, [sp, #28]
	uint32_t fscl        = 1000 * config->baud_rate;
    1740:	23fa      	movs	r3, #250	; 0xfa
    1742:	009b      	lsls	r3, r3, #2
    1744:	6822      	ldr	r2, [r4, #0]
    1746:	435a      	muls	r2, r3
    1748:	4691      	mov	r9, r2
	uint32_t fscl_hs     = 1000 * config->baud_rate_high_speed;
    174a:	6863      	ldr	r3, [r4, #4]
    174c:	469a      	mov	sl, r3
	tmp_baud = (int32_t)(div_ceil(
    174e:	4d55      	ldr	r5, [pc, #340]	; (18a4 <i2c_master_init+0x2c4>)
    1750:	47a8      	blx	r5
    1752:	9000      	str	r0, [sp, #0]
    1754:	9101      	str	r1, [sp, #4]
    1756:	464b      	mov	r3, r9
    1758:	0058      	lsls	r0, r3, #1
    175a:	47a8      	blx	r5
    175c:	9002      	str	r0, [sp, #8]
    175e:	9103      	str	r1, [sp, #12]
    1760:	8e20      	ldrh	r0, [r4, #48]	; 0x30
    1762:	47a8      	blx	r5
    1764:	9004      	str	r0, [sp, #16]
    1766:	9105      	str	r1, [sp, #20]
    1768:	4f4f      	ldr	r7, [pc, #316]	; (18a8 <i2c_master_init+0x2c8>)
    176a:	4a50      	ldr	r2, [pc, #320]	; (18ac <i2c_master_init+0x2cc>)
    176c:	4b50      	ldr	r3, [pc, #320]	; (18b0 <i2c_master_init+0x2d0>)
    176e:	9800      	ldr	r0, [sp, #0]
    1770:	9901      	ldr	r1, [sp, #4]
    1772:	47b8      	blx	r7
    1774:	0002      	movs	r2, r0
    1776:	000b      	movs	r3, r1
    1778:	9804      	ldr	r0, [sp, #16]
    177a:	9905      	ldr	r1, [sp, #20]
    177c:	47b8      	blx	r7
    177e:	4e4d      	ldr	r6, [pc, #308]	; (18b4 <i2c_master_init+0x2d4>)
    1780:	2200      	movs	r2, #0
    1782:	4b4d      	ldr	r3, [pc, #308]	; (18b8 <i2c_master_init+0x2d8>)
    1784:	47b0      	blx	r6
    1786:	9004      	str	r0, [sp, #16]
    1788:	9105      	str	r1, [sp, #20]
    178a:	4648      	mov	r0, r9
    178c:	47a8      	blx	r5
    178e:	0002      	movs	r2, r0
    1790:	000b      	movs	r3, r1
    1792:	9804      	ldr	r0, [sp, #16]
    1794:	9905      	ldr	r1, [sp, #20]
    1796:	47b8      	blx	r7
    1798:	0002      	movs	r2, r0
    179a:	000b      	movs	r3, r1
    179c:	4d47      	ldr	r5, [pc, #284]	; (18bc <i2c_master_init+0x2dc>)
    179e:	9800      	ldr	r0, [sp, #0]
    17a0:	9901      	ldr	r1, [sp, #4]
    17a2:	47a8      	blx	r5
    17a4:	9a02      	ldr	r2, [sp, #8]
    17a6:	9b03      	ldr	r3, [sp, #12]
    17a8:	47b0      	blx	r6
    17aa:	2200      	movs	r2, #0
    17ac:	4b44      	ldr	r3, [pc, #272]	; (18c0 <i2c_master_init+0x2e0>)
    17ae:	47a8      	blx	r5
    17b0:	9a02      	ldr	r2, [sp, #8]
    17b2:	9b03      	ldr	r3, [sp, #12]
    17b4:	4d43      	ldr	r5, [pc, #268]	; (18c4 <i2c_master_init+0x2e4>)
    17b6:	47a8      	blx	r5
    17b8:	4b43      	ldr	r3, [pc, #268]	; (18c8 <i2c_master_init+0x2e8>)
    17ba:	4798      	blx	r3
    17bc:	0005      	movs	r5, r0
	if (config->transfer_speed == I2C_MASTER_SPEED_HIGH_SPEED) {
    17be:	2380      	movs	r3, #128	; 0x80
    17c0:	049b      	lsls	r3, r3, #18
    17c2:	68a2      	ldr	r2, [r4, #8]
    17c4:	429a      	cmp	r2, r3
    17c6:	d01e      	beq.n	1806 <i2c_master_init+0x226>
	if (tmp_baud > 255 || tmp_baud < 0 || tmp_baud_hs > 255 || tmp_baud_hs < 0) {
    17c8:	0003      	movs	r3, r0
    17ca:	2040      	movs	r0, #64	; 0x40
    17cc:	2dff      	cmp	r5, #255	; 0xff
    17ce:	d900      	bls.n	17d2 <i2c_master_init+0x1f2>
    17d0:	e72d      	b.n	162e <i2c_master_init+0x4e>
	int32_t tmp_baudlow_hs = 0;
    17d2:	2400      	movs	r4, #0
	int32_t tmp_baud_hs = 0;
    17d4:	2000      	movs	r0, #0
		i2c_module->BAUD.reg = SERCOM_I2CM_BAUD_BAUD(tmp_baud) |
    17d6:	25ff      	movs	r5, #255	; 0xff
    17d8:	401d      	ands	r5, r3
			SERCOM_I2CM_BAUD_HSBAUD(tmp_baud_hs) | SERCOM_I2CM_BAUD_HSBAUDLOW(tmp_baudlow_hs);
    17da:	0624      	lsls	r4, r4, #24
    17dc:	4325      	orrs	r5, r4
    17de:	0400      	lsls	r0, r0, #16
    17e0:	23ff      	movs	r3, #255	; 0xff
    17e2:	041b      	lsls	r3, r3, #16
    17e4:	4018      	ands	r0, r3
    17e6:	4305      	orrs	r5, r0
		i2c_module->BAUD.reg = SERCOM_I2CM_BAUD_BAUD(tmp_baud) |
    17e8:	4643      	mov	r3, r8
    17ea:	60dd      	str	r5, [r3, #12]
	enum status_code tmp_status_code = STATUS_OK;
    17ec:	2000      	movs	r0, #0
    17ee:	e71e      	b.n	162e <i2c_master_init+0x4e>
		pad0 = _sercom_get_default_pad(sercom_hw, 0);
    17f0:	2100      	movs	r1, #0
    17f2:	4640      	mov	r0, r8
    17f4:	4b35      	ldr	r3, [pc, #212]	; (18cc <i2c_master_init+0x2ec>)
    17f6:	4798      	blx	r3
    17f8:	e74a      	b.n	1690 <i2c_master_init+0xb0>
		pad1 = _sercom_get_default_pad(sercom_hw, 1);
    17fa:	2101      	movs	r1, #1
    17fc:	4640      	mov	r0, r8
    17fe:	4b33      	ldr	r3, [pc, #204]	; (18cc <i2c_master_init+0x2ec>)
    1800:	4798      	blx	r3
    1802:	0007      	movs	r7, r0
    1804:	e751      	b.n	16aa <i2c_master_init+0xca>
	uint32_t fscl_hs     = 1000 * config->baud_rate_high_speed;
    1806:	26fa      	movs	r6, #250	; 0xfa
    1808:	00b6      	lsls	r6, r6, #2
    180a:	4653      	mov	r3, sl
    180c:	435e      	muls	r6, r3
		tmp_baudlow_hs = (int32_t)((fgclk * 2.0) / (3.0 * fscl_hs) - 1);
    180e:	9800      	ldr	r0, [sp, #0]
    1810:	9901      	ldr	r1, [sp, #4]
    1812:	0002      	movs	r2, r0
    1814:	000b      	movs	r3, r1
    1816:	4c27      	ldr	r4, [pc, #156]	; (18b4 <i2c_master_init+0x2d4>)
    1818:	47a0      	blx	r4
    181a:	9000      	str	r0, [sp, #0]
    181c:	9101      	str	r1, [sp, #4]
    181e:	0030      	movs	r0, r6
    1820:	4b20      	ldr	r3, [pc, #128]	; (18a4 <i2c_master_init+0x2c4>)
    1822:	4798      	blx	r3
    1824:	2200      	movs	r2, #0
    1826:	4b2a      	ldr	r3, [pc, #168]	; (18d0 <i2c_master_init+0x2f0>)
    1828:	47b8      	blx	r7
    182a:	0002      	movs	r2, r0
    182c:	000b      	movs	r3, r1
    182e:	9800      	ldr	r0, [sp, #0]
    1830:	9901      	ldr	r1, [sp, #4]
    1832:	4c24      	ldr	r4, [pc, #144]	; (18c4 <i2c_master_init+0x2e4>)
    1834:	47a0      	blx	r4
    1836:	2200      	movs	r2, #0
    1838:	4b21      	ldr	r3, [pc, #132]	; (18c0 <i2c_master_init+0x2e0>)
    183a:	4c20      	ldr	r4, [pc, #128]	; (18bc <i2c_master_init+0x2dc>)
    183c:	47a0      	blx	r4
    183e:	4b22      	ldr	r3, [pc, #136]	; (18c8 <i2c_master_init+0x2e8>)
    1840:	4798      	blx	r3
    1842:	1e04      	subs	r4, r0, #0
		if (tmp_baudlow_hs) {
    1844:	d00c      	beq.n	1860 <i2c_master_init+0x280>
			tmp_baud_hs = (int32_t)(fgclk / fscl_hs) - 2 - tmp_baudlow_hs;
    1846:	0031      	movs	r1, r6
    1848:	9807      	ldr	r0, [sp, #28]
    184a:	4b22      	ldr	r3, [pc, #136]	; (18d4 <i2c_master_init+0x2f4>)
    184c:	4798      	blx	r3
    184e:	3802      	subs	r0, #2
    1850:	1b00      	subs	r0, r0, r4
	if (tmp_baud > 255 || tmp_baud < 0 || tmp_baud_hs > 255 || tmp_baud_hs < 0) {
    1852:	002b      	movs	r3, r5
    1854:	2dff      	cmp	r5, #255	; 0xff
    1856:	d80c      	bhi.n	1872 <i2c_master_init+0x292>
    1858:	28ff      	cmp	r0, #255	; 0xff
    185a:	d9bc      	bls.n	17d6 <i2c_master_init+0x1f6>
    185c:	2040      	movs	r0, #64	; 0x40
    185e:	e6e6      	b.n	162e <i2c_master_init+0x4e>
			tmp_baud_hs = (int32_t)(div_ceil(fgclk, 2 * fscl_hs)) - 1;
    1860:	0071      	lsls	r1, r6, #1
    1862:	1e48      	subs	r0, r1, #1
    1864:	9b07      	ldr	r3, [sp, #28]
    1866:	469c      	mov	ip, r3
    1868:	4460      	add	r0, ip
    186a:	4b1a      	ldr	r3, [pc, #104]	; (18d4 <i2c_master_init+0x2f4>)
    186c:	4798      	blx	r3
    186e:	3801      	subs	r0, #1
    1870:	e7ef      	b.n	1852 <i2c_master_init+0x272>
	if (tmp_baud > 255 || tmp_baud < 0 || tmp_baud_hs > 255 || tmp_baud_hs < 0) {
    1872:	2040      	movs	r0, #64	; 0x40
    1874:	e6db      	b.n	162e <i2c_master_init+0x4e>
    1876:	46c0      	nop			; (mov r8, r8)
    1878:	00005cf1 	.word	0x00005cf1
    187c:	40000400 	.word	0x40000400
    1880:	0000699d 	.word	0x0000699d
    1884:	00006911 	.word	0x00006911
    1888:	00005b2d 	.word	0x00005b2d
    188c:	00000375 	.word	0x00000375
    1890:	00005d2d 	.word	0x00005d2d
    1894:	20004ddc 	.word	0x20004ddc
    1898:	00006ac5 	.word	0x00006ac5
    189c:	41002000 	.word	0x41002000
    18a0:	000069b9 	.word	0x000069b9
    18a4:	00008ba9 	.word	0x00008ba9
    18a8:	00008015 	.word	0x00008015
    18ac:	e826d695 	.word	0xe826d695
    18b0:	3e112e0b 	.word	0x3e112e0b
    18b4:	0000738d 	.word	0x0000738d
    18b8:	40240000 	.word	0x40240000
    18bc:	00008515 	.word	0x00008515
    18c0:	3ff00000 	.word	0x3ff00000
    18c4:	000079ad 	.word	0x000079ad
    18c8:	00008b41 	.word	0x00008b41
    18cc:	00005b79 	.word	0x00005b79
    18d0:	40080000 	.word	0x40080000
    18d4:	00006f01 	.word	0x00006f01

000018d8 <i2c_master_reset>:
 * Reset the module to hardware defaults.
 *
 * \param[in,out] module Pointer to software module structure
 */
void i2c_master_reset(struct i2c_master_module *const module)
{
    18d8:	b5f8      	push	{r3, r4, r5, r6, r7, lr}
    18da:	46ce      	mov	lr, r9
    18dc:	4647      	mov	r7, r8
    18de:	b580      	push	{r7, lr}
    18e0:	0004      	movs	r4, r0
	/* Sanity check arguments */
	Assert(module);
	Assert(module->hw);

	SercomI2cm *const i2c_module = &(module->hw->I2CM);
    18e2:	6803      	ldr	r3, [r0, #0]
    18e4:	4699      	mov	r9, r3

	/* Wait for sync */
	_i2c_master_wait_for_sync(module);
    18e6:	4e14      	ldr	r6, [pc, #80]	; (1938 <i2c_master_reset+0x60>)
    18e8:	47b0      	blx	r6
{
	/* Sanity check of arguments */
	Assert(module);
	Assert(module->hw);

	SercomI2cm *const i2c_module = &(module->hw->I2CM);
    18ea:	6825      	ldr	r5, [r4, #0]

#if I2C_MASTER_CALLBACK_MODE == true
		/* Disable module interrupts */
		system_interrupt_disable(_sercom_get_interrupt_vector(module->hw));
    18ec:	0028      	movs	r0, r5
    18ee:	4b13      	ldr	r3, [pc, #76]	; (193c <i2c_master_reset+0x64>)
    18f0:	4698      	mov	r8, r3
    18f2:	4798      	blx	r3
 * \param[in] vector  Interrupt vector to disable
 */
static inline void system_interrupt_disable(
		const enum system_interrupt_vector vector)
{
	NVIC->ICER[0] = (uint32_t)(1 << ((uint32_t)vector & 0x0000001f));
    18f4:	231f      	movs	r3, #31
    18f6:	4018      	ands	r0, r3
    18f8:	2701      	movs	r7, #1
    18fa:	0039      	movs	r1, r7
    18fc:	4081      	lsls	r1, r0
    18fe:	3361      	adds	r3, #97	; 0x61
    1900:	4a0f      	ldr	r2, [pc, #60]	; (1940 <i2c_master_reset+0x68>)
    1902:	50d1      	str	r1, [r2, r3]
#endif

	/* Wait for module to sync */
	_i2c_master_wait_for_sync(module);
    1904:	0020      	movs	r0, r4
    1906:	47b0      	blx	r6

	/* Disbale interrupt */
	i2c_module->INTENCLR.reg = SERCOM_I2CM_INTENCLR_MASK;
    1908:	2383      	movs	r3, #131	; 0x83
    190a:	752b      	strb	r3, [r5, #20]
	/* Clear interrupt flag */
	i2c_module->INTFLAG.reg = SERCOM_I2CM_INTFLAG_MASK;
    190c:	762b      	strb	r3, [r5, #24]

	/* Disable module */
	i2c_module->CTRLA.reg &= ~SERCOM_I2CM_CTRLA_ENABLE;
    190e:	682b      	ldr	r3, [r5, #0]
    1910:	2202      	movs	r2, #2
    1912:	4393      	bics	r3, r2
    1914:	602b      	str	r3, [r5, #0]
	cpu_irq_enter_critical();
    1916:	4b0b      	ldr	r3, [pc, #44]	; (1944 <i2c_master_reset+0x6c>)
    1918:	4798      	blx	r3
	i2c_master_disable(module);

#if I2C_MASTER_CALLBACK_MODE == true
	/* Clear all pending interrupts */
	system_interrupt_enter_critical_section();
	system_interrupt_clear_pending(_sercom_get_interrupt_vector(module->hw));
    191a:	6820      	ldr	r0, [r4, #0]
    191c:	47c0      	blx	r8
    191e:	4b0a      	ldr	r3, [pc, #40]	; (1948 <i2c_master_reset+0x70>)
    1920:	4798      	blx	r3
	cpu_irq_leave_critical();
    1922:	4b0a      	ldr	r3, [pc, #40]	; (194c <i2c_master_reset+0x74>)
    1924:	4798      	blx	r3
	system_interrupt_leave_critical_section();
#endif

	/* Wait for sync */
	_i2c_master_wait_for_sync(module);
    1926:	0020      	movs	r0, r4
    1928:	47b0      	blx	r6

	/* Reset module */
	i2c_module->CTRLA.reg = SERCOM_I2CM_CTRLA_SWRST;
    192a:	464b      	mov	r3, r9
    192c:	601f      	str	r7, [r3, #0]
}
    192e:	bc0c      	pop	{r2, r3}
    1930:	4690      	mov	r8, r2
    1932:	4699      	mov	r9, r3
    1934:	bdf8      	pop	{r3, r4, r5, r6, r7, pc}
    1936:	46c0      	nop			; (mov r8, r8)
    1938:	000015d5 	.word	0x000015d5
    193c:	00005d69 	.word	0x00005d69
    1940:	e000e100 	.word	0xe000e100
    1944:	000057cd 	.word	0x000057cd
    1948:	000069ed 	.word	0x000069ed
    194c:	0000580d 	.word	0x0000580d

00001950 <_i2c_master_address_response>:
{
	/* Sanity check arguments */
	Assert(module);
	Assert(module->hw);

	SercomI2cm *const i2c_module = &(module->hw->I2CM);
    1950:	6803      	ldr	r3, [r0, #0]

	/* Check for error and ignore bus-error; workaround for BUSSTATE stuck in
	 * BUSY */
	if (i2c_module->INTFLAG.reg & SERCOM_I2CM_INTFLAG_SB) {
    1952:	7e1a      	ldrb	r2, [r3, #24]
    1954:	0792      	lsls	r2, r2, #30
    1956:	d507      	bpl.n	1968 <_i2c_master_address_response+0x18>

		/* Clear write interrupt flag */
		i2c_module->INTFLAG.reg = SERCOM_I2CM_INTFLAG_SB;
    1958:	2202      	movs	r2, #2
    195a:	761a      	strb	r2, [r3, #24]

		/* Check arbitration. */
		if (i2c_module->STATUS.reg & SERCOM_I2CM_STATUS_ARBLOST) {
    195c:	8b5b      	ldrh	r3, [r3, #26]
    195e:	079b      	lsls	r3, r3, #30
			/* Return packet collision. */
			return STATUS_ERR_PACKET_COLLISION;
    1960:	2041      	movs	r0, #65	; 0x41

		/* Return bad address value. */
		return STATUS_ERR_BAD_ADDRESS;
	}

	return STATUS_OK;
    1962:	17db      	asrs	r3, r3, #31
    1964:	4018      	ands	r0, r3
}
    1966:	4770      	bx	lr
	} else if (i2c_module->STATUS.reg & SERCOM_I2CM_STATUS_RXNACK) {
    1968:	8b5a      	ldrh	r2, [r3, #26]
    196a:	0752      	lsls	r2, r2, #29
    196c:	d506      	bpl.n	197c <_i2c_master_address_response+0x2c>
		i2c_module->CTRLB.reg |= SERCOM_I2CM_CTRLB_CMD(3);
    196e:	6859      	ldr	r1, [r3, #4]
    1970:	22c0      	movs	r2, #192	; 0xc0
    1972:	0292      	lsls	r2, r2, #10
    1974:	430a      	orrs	r2, r1
    1976:	605a      	str	r2, [r3, #4]
		return STATUS_ERR_BAD_ADDRESS;
    1978:	2018      	movs	r0, #24
    197a:	e7f4      	b.n	1966 <_i2c_master_address_response+0x16>
	return STATUS_OK;
    197c:	2000      	movs	r0, #0
    197e:	e7f2      	b.n	1966 <_i2c_master_address_response+0x16>

00001980 <_i2c_master_wait_for_bus>:
 * \retval STATUS_ERR_TIMEOUT  If no response was given within specified timeout
 *                             period
 */
enum status_code _i2c_master_wait_for_bus(
		struct i2c_master_module *const module)
{
    1980:	b530      	push	{r4, r5, lr}
	/* Sanity check arguments */
	Assert(module);
	Assert(module->hw);

	SercomI2cm *const i2c_module = &(module->hw->I2CM);
    1982:	6802      	ldr	r2, [r0, #0]

	/* Wait for reply. */
	uint16_t timeout_counter = 0;
    1984:	2300      	movs	r3, #0
	while (!(i2c_module->INTFLAG.reg & SERCOM_I2CM_INTFLAG_MB) &&
    1986:	2401      	movs	r4, #1
    1988:	2502      	movs	r5, #2
    198a:	7e11      	ldrb	r1, [r2, #24]
    198c:	4221      	tst	r1, r4
    198e:	d10b      	bne.n	19a8 <_i2c_master_wait_for_bus+0x28>
			!(i2c_module->INTFLAG.reg & SERCOM_I2CM_INTFLAG_SB)) {
    1990:	7e11      	ldrb	r1, [r2, #24]
	while (!(i2c_module->INTFLAG.reg & SERCOM_I2CM_INTFLAG_MB) &&
    1992:	4229      	tst	r1, r5
    1994:	d106      	bne.n	19a4 <_i2c_master_wait_for_bus+0x24>

		/* Check timeout condition. */
		if (++timeout_counter >= module->buffer_timeout) {
    1996:	3301      	adds	r3, #1
    1998:	b29b      	uxth	r3, r3
    199a:	8901      	ldrh	r1, [r0, #8]
    199c:	4299      	cmp	r1, r3
    199e:	d8f4      	bhi.n	198a <_i2c_master_wait_for_bus+0xa>
			return STATUS_ERR_TIMEOUT;
    19a0:	2012      	movs	r0, #18
    19a2:	e002      	b.n	19aa <_i2c_master_wait_for_bus+0x2a>
		}
	}
	return STATUS_OK;
    19a4:	2000      	movs	r0, #0
    19a6:	e000      	b.n	19aa <_i2c_master_wait_for_bus+0x2a>
    19a8:	2000      	movs	r0, #0
}
    19aa:	bd30      	pop	{r4, r5, pc}

000019ac <_i2c_master_send_hs_master_code>:
 * \retval STATUS_OK           No error happen
 */
enum status_code _i2c_master_send_hs_master_code(
		struct i2c_master_module *const module,
		uint8_t hs_master_code)
{
    19ac:	b510      	push	{r4, lr}
	SercomI2cm *const i2c_module = &(module->hw->I2CM);
    19ae:	6804      	ldr	r4, [r0, #0]
	/* Return value. */
	enum status_code tmp_status;

	/* Set NACK for high speed code */
	i2c_module->CTRLB.reg |= SERCOM_I2CM_CTRLB_ACKACT;
    19b0:	6862      	ldr	r2, [r4, #4]
    19b2:	2380      	movs	r3, #128	; 0x80
    19b4:	02db      	lsls	r3, r3, #11
    19b6:	4313      	orrs	r3, r2
    19b8:	6063      	str	r3, [r4, #4]
	/* Send high speed code */
	i2c_module->ADDR.reg = hs_master_code;
    19ba:	6261      	str	r1, [r4, #36]	; 0x24
	/* Wait for response on bus. */
	tmp_status = _i2c_master_wait_for_bus(module);
    19bc:	4b02      	ldr	r3, [pc, #8]	; (19c8 <_i2c_master_send_hs_master_code+0x1c>)
    19be:	4798      	blx	r3
	/* Clear write interrupt flag */
	i2c_module->INTFLAG.reg = SERCOM_I2CM_INTENCLR_MB;
    19c0:	2301      	movs	r3, #1
    19c2:	7623      	strb	r3, [r4, #24]

	return tmp_status;
}
    19c4:	bd10      	pop	{r4, pc}
    19c6:	46c0      	nop			; (mov r8, r8)
    19c8:	00001981 	.word	0x00001981

000019cc <_tc_interrupt_handler>:
 * \param[in]  instance  ID of the TC instance calling the interrupt
 *                       handler
 */
void _tc_interrupt_handler(
		uint8_t instance)
{
    19cc:	b570      	push	{r4, r5, r6, lr}
	/* Temporary variable */
	uint8_t interrupt_and_callback_status_mask;

	/* Get device instance from the look-up table */
	struct tc_module *module
    19ce:	0080      	lsls	r0, r0, #2
    19d0:	4b16      	ldr	r3, [pc, #88]	; (1a2c <_tc_interrupt_handler+0x60>)
    19d2:	58c4      	ldr	r4, [r0, r3]
			= (struct tc_module *)_tc_instances[instance];

	/* Read and mask interrupt flag register */
	interrupt_and_callback_status_mask = module->hw->COUNT8.INTFLAG.reg &
    19d4:	6823      	ldr	r3, [r4, #0]
    19d6:	7b9d      	ldrb	r5, [r3, #14]
    19d8:	7e22      	ldrb	r2, [r4, #24]
    19da:	7e63      	ldrb	r3, [r4, #25]
    19dc:	4013      	ands	r3, r2
    19de:	401d      	ands	r5, r3
			module->register_callback_mask &
			module->enable_callback_mask;

	/* Check if an Overflow interrupt has occurred */
	if (interrupt_and_callback_status_mask & TC_INTFLAG_OVF) {
    19e0:	07eb      	lsls	r3, r5, #31
    19e2:	d406      	bmi.n	19f2 <_tc_interrupt_handler+0x26>
		/* Clear interrupt flag */
		module->hw->COUNT8.INTFLAG.reg = TC_INTFLAG_OVF;
	}

	/* Check if an Error interrupt has occurred */
	if (interrupt_and_callback_status_mask & TC_INTFLAG_ERR) {
    19e4:	07ab      	lsls	r3, r5, #30
    19e6:	d40b      	bmi.n	1a00 <_tc_interrupt_handler+0x34>
		/* Clear interrupt flag */
		module->hw->COUNT8.INTFLAG.reg = TC_INTFLAG_ERR;
	}

	/* Check if an Match/Capture Channel 0 interrupt has occurred */
	if (interrupt_and_callback_status_mask & TC_INTFLAG_MC(1)) {
    19e8:	06eb      	lsls	r3, r5, #27
    19ea:	d410      	bmi.n	1a0e <_tc_interrupt_handler+0x42>
		/* Clear interrupt flag */
		module->hw->COUNT8.INTFLAG.reg = TC_INTFLAG_MC(1);
	}

	/* Check if an Match/Capture Channel 1 interrupt has occurred */
	if (interrupt_and_callback_status_mask & TC_INTFLAG_MC(2)) {
    19ec:	06ab      	lsls	r3, r5, #26
    19ee:	d415      	bmi.n	1a1c <_tc_interrupt_handler+0x50>
		/* Invoke registered and enabled callback function */
		(module->callback[TC_CALLBACK_CC_CHANNEL1])(module);
		/* Clear interrupt flag */
		module->hw->COUNT8.INTFLAG.reg = TC_INTFLAG_MC(2);
	}
}
    19f0:	bd70      	pop	{r4, r5, r6, pc}
		(module->callback[TC_CALLBACK_OVERFLOW])(module);
    19f2:	0020      	movs	r0, r4
    19f4:	68a3      	ldr	r3, [r4, #8]
    19f6:	4798      	blx	r3
		module->hw->COUNT8.INTFLAG.reg = TC_INTFLAG_OVF;
    19f8:	2301      	movs	r3, #1
    19fa:	6822      	ldr	r2, [r4, #0]
    19fc:	7393      	strb	r3, [r2, #14]
    19fe:	e7f1      	b.n	19e4 <_tc_interrupt_handler+0x18>
		(module->callback[TC_CALLBACK_ERROR])(module);
    1a00:	0020      	movs	r0, r4
    1a02:	68e3      	ldr	r3, [r4, #12]
    1a04:	4798      	blx	r3
		module->hw->COUNT8.INTFLAG.reg = TC_INTFLAG_ERR;
    1a06:	2302      	movs	r3, #2
    1a08:	6822      	ldr	r2, [r4, #0]
    1a0a:	7393      	strb	r3, [r2, #14]
    1a0c:	e7ec      	b.n	19e8 <_tc_interrupt_handler+0x1c>
		(module->callback[TC_CALLBACK_CC_CHANNEL0])(module);
    1a0e:	0020      	movs	r0, r4
    1a10:	6923      	ldr	r3, [r4, #16]
    1a12:	4798      	blx	r3
		module->hw->COUNT8.INTFLAG.reg = TC_INTFLAG_MC(1);
    1a14:	2310      	movs	r3, #16
    1a16:	6822      	ldr	r2, [r4, #0]
    1a18:	7393      	strb	r3, [r2, #14]
    1a1a:	e7e7      	b.n	19ec <_tc_interrupt_handler+0x20>
		(module->callback[TC_CALLBACK_CC_CHANNEL1])(module);
    1a1c:	0020      	movs	r0, r4
    1a1e:	6963      	ldr	r3, [r4, #20]
    1a20:	4798      	blx	r3
		module->hw->COUNT8.INTFLAG.reg = TC_INTFLAG_MC(2);
    1a22:	6823      	ldr	r3, [r4, #0]
    1a24:	2220      	movs	r2, #32
    1a26:	739a      	strb	r2, [r3, #14]
}
    1a28:	e7e2      	b.n	19f0 <_tc_interrupt_handler+0x24>
    1a2a:	46c0      	nop			; (mov r8, r8)
    1a2c:	20003908 	.word	0x20003908

00001a30 <TC3_Handler>:
	MRECURSION(TC_INST_NUM, _TC_INTERRUPT_HANDLER, TC_INST_MAX_ID)
    1a30:	b510      	push	{r4, lr}
    1a32:	2000      	movs	r0, #0
    1a34:	4b01      	ldr	r3, [pc, #4]	; (1a3c <TC3_Handler+0xc>)
    1a36:	4798      	blx	r3
    1a38:	bd10      	pop	{r4, pc}
    1a3a:	46c0      	nop			; (mov r8, r8)
    1a3c:	000019cd 	.word	0x000019cd

00001a40 <TC4_Handler>:
    1a40:	b510      	push	{r4, lr}
    1a42:	2001      	movs	r0, #1
    1a44:	4b01      	ldr	r3, [pc, #4]	; (1a4c <TC4_Handler+0xc>)
    1a46:	4798      	blx	r3
    1a48:	bd10      	pop	{r4, pc}
    1a4a:	46c0      	nop			; (mov r8, r8)
    1a4c:	000019cd 	.word	0x000019cd

00001a50 <TC5_Handler>:
    1a50:	b510      	push	{r4, lr}
    1a52:	2002      	movs	r0, #2
    1a54:	4b01      	ldr	r3, [pc, #4]	; (1a5c <TC5_Handler+0xc>)
    1a56:	4798      	blx	r3
    1a58:	bd10      	pop	{r4, pc}
    1a5a:	46c0      	nop			; (mov r8, r8)
    1a5c:	000019cd 	.word	0x000019cd

00001a60 <prvHelpCommand>:
	return pcReturn;
}
/*-----------------------------------------------------------*/

static BaseType_t prvHelpCommand( char *pcWriteBuffer, size_t xWriteBufferLen, const char *pcCommandString )
{
    1a60:	b570      	push	{r4, r5, r6, lr}
    1a62:	000a      	movs	r2, r1
static const CLI_Definition_List_Item_t * pxCommand = NULL;
BaseType_t xReturn;

	( void ) pcCommandString;

	if( pxCommand == NULL )
    1a64:	4b09      	ldr	r3, [pc, #36]	; (1a8c <prvHelpCommand+0x2c>)
    1a66:	681b      	ldr	r3, [r3, #0]
    1a68:	2b00      	cmp	r3, #0
    1a6a:	d00a      	beq.n	1a82 <prvHelpCommand+0x22>
		pxCommand = &xRegisteredCommands;
	}

	/* Return the next command help string, before moving the pointer on to
	the next command in the list. */
	strncpy( pcWriteBuffer, pxCommand->pxCommandLineDefinition->pcHelpString, xWriteBufferLen );
    1a6c:	4c07      	ldr	r4, [pc, #28]	; (1a8c <prvHelpCommand+0x2c>)
    1a6e:	6825      	ldr	r5, [r4, #0]
    1a70:	682b      	ldr	r3, [r5, #0]
    1a72:	6859      	ldr	r1, [r3, #4]
    1a74:	4b06      	ldr	r3, [pc, #24]	; (1a90 <prvHelpCommand+0x30>)
    1a76:	4798      	blx	r3
	pxCommand = pxCommand->pxNext;
    1a78:	6868      	ldr	r0, [r5, #4]
    1a7a:	6020      	str	r0, [r4, #0]

	if( pxCommand == NULL )
    1a7c:	1e43      	subs	r3, r0, #1
    1a7e:	4198      	sbcs	r0, r3
	{
		xReturn = pdTRUE;
	}

	return xReturn;
}
    1a80:	bd70      	pop	{r4, r5, r6, pc}
		pxCommand = &xRegisteredCommands;
    1a82:	4904      	ldr	r1, [pc, #16]	; (1a94 <prvHelpCommand+0x34>)
    1a84:	4b01      	ldr	r3, [pc, #4]	; (1a8c <prvHelpCommand+0x2c>)
    1a86:	6019      	str	r1, [r3, #0]
    1a88:	e7f0      	b.n	1a6c <prvHelpCommand+0xc>
    1a8a:	46c0      	nop			; (mov r8, r8)
    1a8c:	20000330 	.word	0x20000330
    1a90:	00008f5d 	.word	0x00008f5d
    1a94:	20000010 	.word	0x20000010

00001a98 <FreeRTOS_CLIRegisterCommand>:
{
    1a98:	b570      	push	{r4, r5, r6, lr}
    1a9a:	1e05      	subs	r5, r0, #0
	configASSERT( pxCommandToRegister );
    1a9c:	d006      	beq.n	1aac <FreeRTOS_CLIRegisterCommand+0x14>
	pxNewListItem = ( CLI_Definition_List_Item_t * ) pvPortMalloc( sizeof( CLI_Definition_List_Item_t ) );
    1a9e:	2008      	movs	r0, #8
    1aa0:	4b0a      	ldr	r3, [pc, #40]	; (1acc <FreeRTOS_CLIRegisterCommand+0x34>)
    1aa2:	4798      	blx	r3
    1aa4:	1e04      	subs	r4, r0, #0
	configASSERT( pxNewListItem );
    1aa6:	d103      	bne.n	1ab0 <FreeRTOS_CLIRegisterCommand+0x18>
    1aa8:	b672      	cpsid	i
    1aaa:	e7fe      	b.n	1aaa <FreeRTOS_CLIRegisterCommand+0x12>
	configASSERT( pxCommandToRegister );
    1aac:	b672      	cpsid	i
    1aae:	e7fe      	b.n	1aae <FreeRTOS_CLIRegisterCommand+0x16>
		taskENTER_CRITICAL();
    1ab0:	4b07      	ldr	r3, [pc, #28]	; (1ad0 <FreeRTOS_CLIRegisterCommand+0x38>)
    1ab2:	4798      	blx	r3
			pxNewListItem->pxCommandLineDefinition = pxCommandToRegister;
    1ab4:	6025      	str	r5, [r4, #0]
			pxNewListItem->pxNext = NULL;
    1ab6:	2300      	movs	r3, #0
    1ab8:	6063      	str	r3, [r4, #4]
			pxLastCommandInList->pxNext = pxNewListItem;
    1aba:	4b06      	ldr	r3, [pc, #24]	; (1ad4 <FreeRTOS_CLIRegisterCommand+0x3c>)
    1abc:	681a      	ldr	r2, [r3, #0]
    1abe:	6054      	str	r4, [r2, #4]
			pxLastCommandInList = pxNewListItem;
    1ac0:	601c      	str	r4, [r3, #0]
		taskEXIT_CRITICAL();
    1ac2:	4b05      	ldr	r3, [pc, #20]	; (1ad8 <FreeRTOS_CLIRegisterCommand+0x40>)
    1ac4:	4798      	blx	r3
}
    1ac6:	2001      	movs	r0, #1
    1ac8:	bd70      	pop	{r4, r5, r6, pc}
    1aca:	46c0      	nop			; (mov r8, r8)
    1acc:	00002f45 	.word	0x00002f45
    1ad0:	00002e81 	.word	0x00002e81
    1ad4:	2000000c 	.word	0x2000000c
    1ad8:	00002e99 	.word	0x00002e99

00001adc <FreeRTOS_CLIProcessCommand>:
{
    1adc:	b5f0      	push	{r4, r5, r6, r7, lr}
    1ade:	46de      	mov	lr, fp
    1ae0:	4657      	mov	r7, sl
    1ae2:	464e      	mov	r6, r9
    1ae4:	4645      	mov	r5, r8
    1ae6:	b5e0      	push	{r5, r6, r7, lr}
    1ae8:	b083      	sub	sp, #12
    1aea:	0006      	movs	r6, r0
    1aec:	9100      	str	r1, [sp, #0]
    1aee:	9201      	str	r2, [sp, #4]
	if( pxCommand == NULL )
    1af0:	4b39      	ldr	r3, [pc, #228]	; (1bd8 <FreeRTOS_CLIProcessCommand+0xfc>)
    1af2:	681b      	ldr	r3, [r3, #0]
    1af4:	2b00      	cmp	r3, #0
    1af6:	d011      	beq.n	1b1c <FreeRTOS_CLIProcessCommand+0x40>
		xReturn = pxCommand->pxCommandLineDefinition->pxCommandInterpreter( pcWriteBuffer, xWriteBufferLen, pcCommandInput );
    1af8:	681b      	ldr	r3, [r3, #0]
    1afa:	689b      	ldr	r3, [r3, #8]
    1afc:	0032      	movs	r2, r6
    1afe:	9901      	ldr	r1, [sp, #4]
    1b00:	9800      	ldr	r0, [sp, #0]
    1b02:	4798      	blx	r3
		if( xReturn == pdFALSE )
    1b04:	2800      	cmp	r0, #0
    1b06:	d102      	bne.n	1b0e <FreeRTOS_CLIProcessCommand+0x32>
			pxCommand = NULL;
    1b08:	2200      	movs	r2, #0
    1b0a:	4b33      	ldr	r3, [pc, #204]	; (1bd8 <FreeRTOS_CLIProcessCommand+0xfc>)
    1b0c:	601a      	str	r2, [r3, #0]
}
    1b0e:	b003      	add	sp, #12
    1b10:	bc3c      	pop	{r2, r3, r4, r5}
    1b12:	4690      	mov	r8, r2
    1b14:	4699      	mov	r9, r3
    1b16:	46a2      	mov	sl, r4
    1b18:	46ab      	mov	fp, r5
    1b1a:	bdf0      	pop	{r4, r5, r6, r7, pc}
		for( pxCommand = &xRegisteredCommands; pxCommand != NULL; pxCommand = pxCommand->pxNext )
    1b1c:	4c2f      	ldr	r4, [pc, #188]	; (1bdc <FreeRTOS_CLIProcessCommand+0x100>)
    1b1e:	4b2e      	ldr	r3, [pc, #184]	; (1bd8 <FreeRTOS_CLIProcessCommand+0xfc>)
    1b20:	601c      	str	r4, [r3, #0]
			xCommandStringLength = strlen( pcRegisteredCommandString );
    1b22:	4b2f      	ldr	r3, [pc, #188]	; (1be0 <FreeRTOS_CLIProcessCommand+0x104>)
    1b24:	4699      	mov	r9, r3
			if( ( pcCommandInput[ xCommandStringLength ] == ' ' ) || ( pcCommandInput[ xCommandStringLength ] == 0x00 ) )
    1b26:	2320      	movs	r3, #32
    1b28:	4698      	mov	r8, r3
				if( strncmp( pcCommandInput, pcRegisteredCommandString, xCommandStringLength ) == 0 )
    1b2a:	4b2e      	ldr	r3, [pc, #184]	; (1be4 <FreeRTOS_CLIProcessCommand+0x108>)
    1b2c:	469b      	mov	fp, r3
		for( pxCommand = &xRegisteredCommands; pxCommand != NULL; pxCommand = pxCommand->pxNext )
    1b2e:	4b2a      	ldr	r3, [pc, #168]	; (1bd8 <FreeRTOS_CLIProcessCommand+0xfc>)
    1b30:	469a      	mov	sl, r3
    1b32:	e00a      	b.n	1b4a <FreeRTOS_CLIProcessCommand+0x6e>
				if( strncmp( pcCommandInput, pcRegisteredCommandString, xCommandStringLength ) == 0 )
    1b34:	0002      	movs	r2, r0
    1b36:	0029      	movs	r1, r5
    1b38:	0030      	movs	r0, r6
    1b3a:	47d8      	blx	fp
    1b3c:	2800      	cmp	r0, #0
    1b3e:	d00d      	beq.n	1b5c <FreeRTOS_CLIProcessCommand+0x80>
		for( pxCommand = &xRegisteredCommands; pxCommand != NULL; pxCommand = pxCommand->pxNext )
    1b40:	6864      	ldr	r4, [r4, #4]
    1b42:	4653      	mov	r3, sl
    1b44:	601c      	str	r4, [r3, #0]
    1b46:	2c00      	cmp	r4, #0
    1b48:	d03e      	beq.n	1bc8 <FreeRTOS_CLIProcessCommand+0xec>
			pcRegisteredCommandString = pxCommand->pxCommandLineDefinition->pcCommand;
    1b4a:	6827      	ldr	r7, [r4, #0]
    1b4c:	683d      	ldr	r5, [r7, #0]
			xCommandStringLength = strlen( pcRegisteredCommandString );
    1b4e:	0028      	movs	r0, r5
    1b50:	47c8      	blx	r9
			if( ( pcCommandInput[ xCommandStringLength ] == ' ' ) || ( pcCommandInput[ xCommandStringLength ] == 0x00 ) )
    1b52:	5c33      	ldrb	r3, [r6, r0]
    1b54:	4642      	mov	r2, r8
    1b56:	4393      	bics	r3, r2
    1b58:	d1f2      	bne.n	1b40 <FreeRTOS_CLIProcessCommand+0x64>
    1b5a:	e7eb      	b.n	1b34 <FreeRTOS_CLIProcessCommand+0x58>
					if( pxCommand->pxCommandLineDefinition->cExpectedNumberOfParameters >= 0 )
    1b5c:	7b3f      	ldrb	r7, [r7, #12]
    1b5e:	b27f      	sxtb	r7, r7
    1b60:	2f00      	cmp	r7, #0
    1b62:	db2d      	blt.n	1bc0 <FreeRTOS_CLIProcessCommand+0xe4>
{
int8_t cParameters = 0;
BaseType_t xLastCharacterWasSpace = pdFALSE;

	/* Count the number of space delimited words in pcCommandString. */
	while( *pcCommandString != 0x00 )
    1b64:	7833      	ldrb	r3, [r6, #0]
    1b66:	2b00      	cmp	r3, #0
    1b68:	d028      	beq.n	1bbc <FreeRTOS_CLIProcessCommand+0xe0>
    1b6a:	0032      	movs	r2, r6
    1b6c:	2500      	movs	r5, #0
    1b6e:	2100      	movs	r1, #0
	{
		if( ( *pcCommandString ) == ' ' )
		{
			if( xLastCharacterWasSpace != pdTRUE )
    1b70:	2401      	movs	r4, #1
    1b72:	e008      	b.n	1b86 <FreeRTOS_CLIProcessCommand+0xaa>
    1b74:	2901      	cmp	r1, #1
    1b76:	d00a      	beq.n	1b8e <FreeRTOS_CLIProcessCommand+0xb2>
			{
				cParameters++;
    1b78:	3501      	adds	r5, #1
    1b7a:	b26d      	sxtb	r5, r5
				xLastCharacterWasSpace = pdTRUE;
    1b7c:	0021      	movs	r1, r4
		else
		{
			xLastCharacterWasSpace = pdFALSE;
		}

		pcCommandString++;
    1b7e:	3201      	adds	r2, #1
	while( *pcCommandString != 0x00 )
    1b80:	7813      	ldrb	r3, [r2, #0]
    1b82:	2b00      	cmp	r3, #0
    1b84:	d005      	beq.n	1b92 <FreeRTOS_CLIProcessCommand+0xb6>
		if( ( *pcCommandString ) == ' ' )
    1b86:	2b20      	cmp	r3, #32
    1b88:	d0f4      	beq.n	1b74 <FreeRTOS_CLIProcessCommand+0x98>
			xLastCharacterWasSpace = pdFALSE;
    1b8a:	0001      	movs	r1, r0
    1b8c:	e7f7      	b.n	1b7e <FreeRTOS_CLIProcessCommand+0xa2>
			if( xLastCharacterWasSpace != pdTRUE )
    1b8e:	0021      	movs	r1, r4
    1b90:	e7f5      	b.n	1b7e <FreeRTOS_CLIProcessCommand+0xa2>
	}

	/* If the command string ended with spaces, then there will have been too
	many parameters counted. */
	if( xLastCharacterWasSpace == pdTRUE )
    1b92:	2901      	cmp	r1, #1
    1b94:	d00f      	beq.n	1bb6 <FreeRTOS_CLIProcessCommand+0xda>
	if( ( pxCommand != NULL ) && ( xReturn == pdFALSE ) )
    1b96:	4b10      	ldr	r3, [pc, #64]	; (1bd8 <FreeRTOS_CLIProcessCommand+0xfc>)
    1b98:	681b      	ldr	r3, [r3, #0]
    1b9a:	2b00      	cmp	r3, #0
    1b9c:	d014      	beq.n	1bc8 <FreeRTOS_CLIProcessCommand+0xec>
    1b9e:	42af      	cmp	r7, r5
    1ba0:	d0aa      	beq.n	1af8 <FreeRTOS_CLIProcessCommand+0x1c>
		strncpy( pcWriteBuffer, "Incorrect command parameter(s).  Enter \"help\" to view a list of available commands.\r\n\r\n", xWriteBufferLen );
    1ba2:	9a01      	ldr	r2, [sp, #4]
    1ba4:	4910      	ldr	r1, [pc, #64]	; (1be8 <FreeRTOS_CLIProcessCommand+0x10c>)
    1ba6:	9800      	ldr	r0, [sp, #0]
    1ba8:	4b10      	ldr	r3, [pc, #64]	; (1bec <FreeRTOS_CLIProcessCommand+0x110>)
    1baa:	4798      	blx	r3
		pxCommand = NULL;
    1bac:	2200      	movs	r2, #0
    1bae:	4b0a      	ldr	r3, [pc, #40]	; (1bd8 <FreeRTOS_CLIProcessCommand+0xfc>)
    1bb0:	601a      	str	r2, [r3, #0]
    1bb2:	2000      	movs	r0, #0
    1bb4:	e7ab      	b.n	1b0e <FreeRTOS_CLIProcessCommand+0x32>
	{
		cParameters--;
    1bb6:	3d01      	subs	r5, #1
    1bb8:	b26d      	sxtb	r5, r5
    1bba:	e7ec      	b.n	1b96 <FreeRTOS_CLIProcessCommand+0xba>
	while( *pcCommandString != 0x00 )
    1bbc:	2500      	movs	r5, #0
    1bbe:	e7ea      	b.n	1b96 <FreeRTOS_CLIProcessCommand+0xba>
	if( ( pxCommand != NULL ) && ( xReturn == pdFALSE ) )
    1bc0:	4b05      	ldr	r3, [pc, #20]	; (1bd8 <FreeRTOS_CLIProcessCommand+0xfc>)
    1bc2:	681b      	ldr	r3, [r3, #0]
    1bc4:	2b00      	cmp	r3, #0
    1bc6:	d197      	bne.n	1af8 <FreeRTOS_CLIProcessCommand+0x1c>
		strncpy( pcWriteBuffer, "Command not recognised.  Enter 'help' to view a list of available commands.\r\n\r\n", xWriteBufferLen );
    1bc8:	9a01      	ldr	r2, [sp, #4]
    1bca:	4909      	ldr	r1, [pc, #36]	; (1bf0 <FreeRTOS_CLIProcessCommand+0x114>)
    1bcc:	9800      	ldr	r0, [sp, #0]
    1bce:	4b07      	ldr	r3, [pc, #28]	; (1bec <FreeRTOS_CLIProcessCommand+0x110>)
    1bd0:	4798      	blx	r3
		xReturn = pdFALSE;
    1bd2:	2000      	movs	r0, #0
	return xReturn;
    1bd4:	e79b      	b.n	1b0e <FreeRTOS_CLIProcessCommand+0x32>
    1bd6:	46c0      	nop			; (mov r8, r8)
    1bd8:	2000032c 	.word	0x2000032c
    1bdc:	20000010 	.word	0x20000010
    1be0:	00008f2d 	.word	0x00008f2d
    1be4:	00008f3b 	.word	0x00008f3b
    1be8:	000099a4 	.word	0x000099a4
    1bec:	00008f5d 	.word	0x00008f5d
    1bf0:	000099fc 	.word	0x000099fc

00001bf4 <prvTraceGetQueueType>:
	return (uint32_t)uxQueueGetQueueNumber(handle);
}
#endif /* (TRC_CFG_FREERTOS_VERSION < TRC_FREERTOS_VERSION_8_X) */

uint8_t prvTraceGetQueueType(void* handle)
{
    1bf4:	b510      	push	{r4, lr}
	// This is either declared in header file in FreeRTOS 8 and later, or as extern above
	return ucQueueGetQueueType(handle);
    1bf6:	4b01      	ldr	r3, [pc, #4]	; (1bfc <prvTraceGetQueueType+0x8>)
    1bf8:	4798      	blx	r3
}
    1bfa:	bd10      	pop	{r4, pc}
    1bfc:	00004135 	.word	0x00004135

00001c00 <prvTraceGetTaskNumberLow16>:

/* Tasks */
uint16_t prvTraceGetTaskNumberLow16(void* handle)
{
    1c00:	b510      	push	{r4, lr}
	return TRACE_GET_LOW16(uxTaskGetTaskNumber(handle));
    1c02:	4b02      	ldr	r3, [pc, #8]	; (1c0c <prvTraceGetTaskNumberLow16+0xc>)
    1c04:	4798      	blx	r3
    1c06:	b280      	uxth	r0, r0
}
    1c08:	bd10      	pop	{r4, pc}
    1c0a:	46c0      	nop			; (mov r8, r8)
    1c0c:	00004d85 	.word	0x00004d85

00001c10 <prvTraceGetTaskNumberHigh16>:

uint16_t prvTraceGetTaskNumberHigh16(void* handle)
{
    1c10:	b510      	push	{r4, lr}
	return TRACE_GET_HIGH16(uxTaskGetTaskNumber(handle));
    1c12:	4b02      	ldr	r3, [pc, #8]	; (1c1c <prvTraceGetTaskNumberHigh16+0xc>)
    1c14:	4798      	blx	r3
    1c16:	0c00      	lsrs	r0, r0, #16
}
    1c18:	bd10      	pop	{r4, pc}
    1c1a:	46c0      	nop			; (mov r8, r8)
    1c1c:	00004d85 	.word	0x00004d85

00001c20 <prvTraceSetTaskNumberLow16>:

void prvTraceSetTaskNumberLow16(void* handle, uint16_t value)
{
    1c20:	b570      	push	{r4, r5, r6, lr}
    1c22:	0004      	movs	r4, r0
    1c24:	000d      	movs	r5, r1
	vTaskSetTaskNumber(handle, TRACE_SET_LOW16(uxTaskGetTaskNumber(handle), value));
    1c26:	4b04      	ldr	r3, [pc, #16]	; (1c38 <prvTraceSetTaskNumberLow16+0x18>)
    1c28:	4798      	blx	r3
    1c2a:	0c01      	lsrs	r1, r0, #16
    1c2c:	0409      	lsls	r1, r1, #16
    1c2e:	4329      	orrs	r1, r5
    1c30:	0020      	movs	r0, r4
    1c32:	4b02      	ldr	r3, [pc, #8]	; (1c3c <prvTraceSetTaskNumberLow16+0x1c>)
    1c34:	4798      	blx	r3
}
    1c36:	bd70      	pop	{r4, r5, r6, pc}
    1c38:	00004d85 	.word	0x00004d85
    1c3c:	00004d91 	.word	0x00004d91

00001c40 <prvTraceSetTaskNumberHigh16>:

void prvTraceSetTaskNumberHigh16(void* handle, uint16_t value)
{
    1c40:	b570      	push	{r4, r5, r6, lr}
    1c42:	0004      	movs	r4, r0
    1c44:	000d      	movs	r5, r1
	vTaskSetTaskNumber(handle, TRACE_SET_HIGH16(uxTaskGetTaskNumber(handle), value));
    1c46:	4b05      	ldr	r3, [pc, #20]	; (1c5c <prvTraceSetTaskNumberHigh16+0x1c>)
    1c48:	4798      	blx	r3
    1c4a:	0401      	lsls	r1, r0, #16
    1c4c:	0c09      	lsrs	r1, r1, #16
    1c4e:	042d      	lsls	r5, r5, #16
    1c50:	4329      	orrs	r1, r5
    1c52:	0020      	movs	r0, r4
    1c54:	4b02      	ldr	r3, [pc, #8]	; (1c60 <prvTraceSetTaskNumberHigh16+0x20>)
    1c56:	4798      	blx	r3
}
    1c58:	bd70      	pop	{r4, r5, r6, pc}
    1c5a:	46c0      	nop			; (mov r8, r8)
    1c5c:	00004d85 	.word	0x00004d85
    1c60:	00004d91 	.word	0x00004d91

00001c64 <prvTraceGetQueueNumberLow16>:

uint16_t prvTraceGetQueueNumberLow16(void* handle)
{
    1c64:	b510      	push	{r4, lr}
	return (uint32_t)uxQueueGetQueueNumber(handle);
    1c66:	4b02      	ldr	r3, [pc, #8]	; (1c70 <prvTraceGetQueueNumberLow16+0xc>)
    1c68:	4798      	blx	r3
	return TRACE_GET_LOW16(prvTraceGetQueueNumber(handle));
    1c6a:	b280      	uxth	r0, r0
}
    1c6c:	bd10      	pop	{r4, pc}
    1c6e:	46c0      	nop			; (mov r8, r8)
    1c70:	0000412d 	.word	0x0000412d

00001c74 <prvTraceGetQueueNumberHigh16>:

uint16_t prvTraceGetQueueNumberHigh16(void* handle)
{
    1c74:	b510      	push	{r4, lr}
	return (uint32_t)uxQueueGetQueueNumber(handle);
    1c76:	4b02      	ldr	r3, [pc, #8]	; (1c80 <prvTraceGetQueueNumberHigh16+0xc>)
    1c78:	4798      	blx	r3
	return TRACE_GET_HIGH16(prvTraceGetQueueNumber(handle));
    1c7a:	0c00      	lsrs	r0, r0, #16
}
    1c7c:	bd10      	pop	{r4, pc}
    1c7e:	46c0      	nop			; (mov r8, r8)
    1c80:	0000412d 	.word	0x0000412d

00001c84 <prvTraceSetQueueNumberLow16>:

void prvTraceSetQueueNumberLow16(void* handle, uint16_t value)
{
    1c84:	b570      	push	{r4, r5, r6, lr}
    1c86:	0004      	movs	r4, r0
    1c88:	000d      	movs	r5, r1
	return (uint32_t)uxQueueGetQueueNumber(handle);
    1c8a:	4b04      	ldr	r3, [pc, #16]	; (1c9c <prvTraceSetQueueNumberLow16+0x18>)
    1c8c:	4798      	blx	r3
	vQueueSetQueueNumber(handle, TRACE_SET_LOW16(prvTraceGetQueueNumber(handle), value));
    1c8e:	0c01      	lsrs	r1, r0, #16
    1c90:	0409      	lsls	r1, r1, #16
    1c92:	4329      	orrs	r1, r5
    1c94:	0020      	movs	r0, r4
    1c96:	4b02      	ldr	r3, [pc, #8]	; (1ca0 <prvTraceSetQueueNumberLow16+0x1c>)
    1c98:	4798      	blx	r3
}
    1c9a:	bd70      	pop	{r4, r5, r6, pc}
    1c9c:	0000412d 	.word	0x0000412d
    1ca0:	00004131 	.word	0x00004131

00001ca4 <prvTraceSetQueueNumberHigh16>:

void prvTraceSetQueueNumberHigh16(void* handle, uint16_t value)
{
    1ca4:	b570      	push	{r4, r5, r6, lr}
    1ca6:	0004      	movs	r4, r0
    1ca8:	000d      	movs	r5, r1
	return (uint32_t)uxQueueGetQueueNumber(handle);
    1caa:	4b05      	ldr	r3, [pc, #20]	; (1cc0 <prvTraceSetQueueNumberHigh16+0x1c>)
    1cac:	4798      	blx	r3
	vQueueSetQueueNumber(handle, TRACE_SET_HIGH16(prvTraceGetQueueNumber(handle), value));
    1cae:	0401      	lsls	r1, r0, #16
    1cb0:	0c09      	lsrs	r1, r1, #16
    1cb2:	042d      	lsls	r5, r5, #16
    1cb4:	4329      	orrs	r1, r5
    1cb6:	0020      	movs	r0, r4
    1cb8:	4b02      	ldr	r3, [pc, #8]	; (1cc4 <prvTraceSetQueueNumberHigh16+0x20>)
    1cba:	4798      	blx	r3
}
    1cbc:	bd70      	pop	{r4, r5, r6, pc}
    1cbe:	46c0      	nop			; (mov r8, r8)
    1cc0:	0000412d 	.word	0x0000412d
    1cc4:	00004131 	.word	0x00004131

00001cc8 <prvTraceGetCurrentTaskHandle>:
#endif /* (TRC_CFG_INCLUDE_STREAM_BUFFER_EVENTS == 1 && TRC_CFG_FREERTOS_VERSION >= TRC_FREERTOS_VERSION_10_0_0) */

#endif /* (TRC_CFG_SCHEDULING_ONLY == 0) */

void* prvTraceGetCurrentTaskHandle()
{
    1cc8:	b510      	push	{r4, lr}
	return xTaskGetCurrentTaskHandle();
    1cca:	4b01      	ldr	r3, [pc, #4]	; (1cd0 <prvTraceGetCurrentTaskHandle+0x8>)
    1ccc:	4798      	blx	r3
}
    1cce:	bd10      	pop	{r4, pc}
    1cd0:	00004d99 	.word	0x00004d99

00001cd4 <vTraceEnable>:
*
*
* Note: See other implementation of vTraceEnable in trcStreamingRecorder.c
******************************************************************************/
void vTraceEnable(int startOption)
{
    1cd4:	b510      	push	{r4, lr}
    1cd6:	0004      	movs	r4, r0
	prvTraceInitTraceData();
    1cd8:	4b09      	ldr	r3, [pc, #36]	; (1d00 <vTraceEnable+0x2c>)
    1cda:	4798      	blx	r3

	if (startOption == TRC_START)
    1cdc:	2c01      	cmp	r4, #1
    1cde:	d004      	beq.n	1cea <vTraceEnable+0x16>
	{
		vTraceStart();
	}
	else if (startOption == TRC_START_AWAIT_HOST)
    1ce0:	2c02      	cmp	r4, #2
    1ce2:	d005      	beq.n	1cf0 <vTraceEnable+0x1c>
	{
		prvTraceError("vTraceEnable(TRC_START_AWAIT_HOST) not allowed in Snapshot mode");
	}
	else if (startOption != TRC_INIT)
    1ce4:	2c00      	cmp	r4, #0
    1ce6:	d107      	bne.n	1cf8 <vTraceEnable+0x24>
		xTaskCreate(TzCtrl, STRING_CAST("TzCtrl"), TRC_CFG_CTRL_TASK_STACK_SIZE, NULL, TRC_CFG_CTRL_TASK_PRIORITY, &HandleTzCtrl);
#endif /* defined(configSUPPORT_STATIC_ALLOCATION) && (configSUPPORT_STATIC_ALLOCATION == 1) */
	}

#endif /* defined(TRC_CFG_ENABLE_STACK_MONITOR) && (TRC_CFG_ENABLE_STACK_MONITOR == 1) && (TRC_CFG_SCHEDULING_ONLY == 0) */
}
    1ce8:	bd10      	pop	{r4, pc}
		vTraceStart();
    1cea:	4b06      	ldr	r3, [pc, #24]	; (1d04 <vTraceEnable+0x30>)
    1cec:	4798      	blx	r3
    1cee:	e7fb      	b.n	1ce8 <vTraceEnable+0x14>
		prvTraceError("vTraceEnable(TRC_START_AWAIT_HOST) not allowed in Snapshot mode");
    1cf0:	4805      	ldr	r0, [pc, #20]	; (1d08 <vTraceEnable+0x34>)
    1cf2:	4b06      	ldr	r3, [pc, #24]	; (1d0c <vTraceEnable+0x38>)
    1cf4:	4798      	blx	r3
    1cf6:	e7f7      	b.n	1ce8 <vTraceEnable+0x14>
		prvTraceError("Unexpected argument to vTraceEnable (snapshot mode)");
    1cf8:	4805      	ldr	r0, [pc, #20]	; (1d10 <vTraceEnable+0x3c>)
    1cfa:	4b04      	ldr	r3, [pc, #16]	; (1d0c <vTraceEnable+0x38>)
    1cfc:	4798      	blx	r3
}
    1cfe:	e7f3      	b.n	1ce8 <vTraceEnable+0x14>
    1d00:	00001ef9 	.word	0x00001ef9
    1d04:	00002cd9 	.word	0x00002cd9
    1d08:	00009db8 	.word	0x00009db8
    1d0c:	000020d1 	.word	0x000020d1
    1d10:	00009df8 	.word	0x00009df8

00001d14 <vTraceInitObjectPropertyTable>:
}
#endif

/* Initialization of the object property table */
void vTraceInitObjectPropertyTable()
{
    1d14:	b510      	push	{r4, lr}
	RecorderDataPtr->ObjectPropertyTable.NumberOfObjectClasses = TRACE_NCLASSES;
    1d16:	4b2f      	ldr	r3, [pc, #188]	; (1dd4 <vTraceInitObjectPropertyTable+0xc0>)
    1d18:	681b      	ldr	r3, [r3, #0]
    1d1a:	2209      	movs	r2, #9
    1d1c:	65da      	str	r2, [r3, #92]	; 0x5c
	RecorderDataPtr->ObjectPropertyTable.NumberOfObjectsPerClass[0] = TRC_CFG_NQUEUE;
    1d1e:	3201      	adds	r2, #1
    1d20:	2164      	movs	r1, #100	; 0x64
    1d22:	545a      	strb	r2, [r3, r1]
	RecorderDataPtr->ObjectPropertyTable.NumberOfObjectsPerClass[1] = TRC_CFG_NSEMAPHORE;
    1d24:	3101      	adds	r1, #1
    1d26:	545a      	strb	r2, [r3, r1]
	RecorderDataPtr->ObjectPropertyTable.NumberOfObjectsPerClass[2] = TRC_CFG_NMUTEX;
    1d28:	3101      	adds	r1, #1
    1d2a:	545a      	strb	r2, [r3, r1]
	RecorderDataPtr->ObjectPropertyTable.NumberOfObjectsPerClass[3] = TRC_CFG_NTASK;
    1d2c:	3205      	adds	r2, #5
    1d2e:	3101      	adds	r1, #1
    1d30:	545a      	strb	r2, [r3, r1]
	RecorderDataPtr->ObjectPropertyTable.NumberOfObjectsPerClass[4] = TRC_CFG_NISR;
    1d32:	3962      	subs	r1, #98	; 0x62
    1d34:	2068      	movs	r0, #104	; 0x68
    1d36:	5419      	strb	r1, [r3, r0]
	RecorderDataPtr->ObjectPropertyTable.NumberOfObjectsPerClass[5] = TRC_CFG_NTIMER;
    1d38:	3001      	adds	r0, #1
    1d3a:	5419      	strb	r1, [r3, r0]
	RecorderDataPtr->ObjectPropertyTable.NumberOfObjectsPerClass[6] = TRC_CFG_NEVENTGROUP;
    1d3c:	3001      	adds	r0, #1
    1d3e:	5419      	strb	r1, [r3, r0]
	RecorderDataPtr->ObjectPropertyTable.NumberOfObjectsPerClass[7] = TRC_CFG_NSTREAMBUFFER;
    1d40:	3001      	adds	r0, #1
    1d42:	5419      	strb	r1, [r3, r0]
	RecorderDataPtr->ObjectPropertyTable.NumberOfObjectsPerClass[8] = TRC_CFG_NMESSAGEBUFFER;
    1d44:	3001      	adds	r0, #1
    1d46:	5419      	strb	r1, [r3, r0]
	RecorderDataPtr->ObjectPropertyTable.NameLengthPerClass[0] = TRC_CFG_NAME_LEN_QUEUE;
    1d48:	316b      	adds	r1, #107	; 0x6b
    1d4a:	545a      	strb	r2, [r3, r1]
	RecorderDataPtr->ObjectPropertyTable.NameLengthPerClass[1] = TRC_CFG_NAME_LEN_SEMAPHORE;
    1d4c:	3101      	adds	r1, #1
    1d4e:	545a      	strb	r2, [r3, r1]
	RecorderDataPtr->ObjectPropertyTable.NameLengthPerClass[2] = TRC_CFG_NAME_LEN_MUTEX;
    1d50:	3101      	adds	r1, #1
    1d52:	545a      	strb	r2, [r3, r1]
	RecorderDataPtr->ObjectPropertyTable.NameLengthPerClass[3] = TRC_CFG_NAME_LEN_TASK;
    1d54:	3101      	adds	r1, #1
    1d56:	545a      	strb	r2, [r3, r1]
	RecorderDataPtr->ObjectPropertyTable.NameLengthPerClass[4] = TRC_CFG_NAME_LEN_ISR;
    1d58:	3101      	adds	r1, #1
    1d5a:	545a      	strb	r2, [r3, r1]
	RecorderDataPtr->ObjectPropertyTable.NameLengthPerClass[5] = TRC_CFG_NAME_LEN_TIMER;
    1d5c:	3101      	adds	r1, #1
    1d5e:	545a      	strb	r2, [r3, r1]
	RecorderDataPtr->ObjectPropertyTable.NameLengthPerClass[6] = TRC_CFG_NAME_LEN_EVENTGROUP;
    1d60:	3101      	adds	r1, #1
    1d62:	545a      	strb	r2, [r3, r1]
	RecorderDataPtr->ObjectPropertyTable.NameLengthPerClass[7] = TRC_CFG_NAME_LEN_STREAMBUFFER;
    1d64:	3101      	adds	r1, #1
    1d66:	545a      	strb	r2, [r3, r1]
	RecorderDataPtr->ObjectPropertyTable.NameLengthPerClass[8] = TRC_CFG_NAME_LEN_MESSAGEBUFFER;
    1d68:	3101      	adds	r1, #1
    1d6a:	545a      	strb	r2, [r3, r1]
	RecorderDataPtr->ObjectPropertyTable.TotalPropertyBytesPerClass[0] = PropertyTableSizeQueue;
    1d6c:	3968      	subs	r1, #104	; 0x68
    1d6e:	326d      	adds	r2, #109	; 0x6d
    1d70:	5499      	strb	r1, [r3, r2]
	RecorderDataPtr->ObjectPropertyTable.TotalPropertyBytesPerClass[1] = PropertyTableSizeSemaphore;
    1d72:	3201      	adds	r2, #1
    1d74:	5499      	strb	r1, [r3, r2]
	RecorderDataPtr->ObjectPropertyTable.TotalPropertyBytesPerClass[2] = PropertyTableSizeMutex;
    1d76:	3201      	adds	r2, #1
    1d78:	5499      	strb	r1, [r3, r2]
	RecorderDataPtr->ObjectPropertyTable.TotalPropertyBytesPerClass[3] = PropertyTableSizeTask;
    1d7a:	3a6b      	subs	r2, #107	; 0x6b
    1d7c:	3013      	adds	r0, #19
    1d7e:	541a      	strb	r2, [r3, r0]
	RecorderDataPtr->ObjectPropertyTable.TotalPropertyBytesPerClass[4] = PropertyTableSizeISR;
    1d80:	2411      	movs	r4, #17
    1d82:	3001      	adds	r0, #1
    1d84:	541c      	strb	r4, [r3, r0]
	RecorderDataPtr->ObjectPropertyTable.TotalPropertyBytesPerClass[5] = PropertyTableSizeTimer;
    1d86:	3001      	adds	r0, #1
    1d88:	5419      	strb	r1, [r3, r0]
	RecorderDataPtr->ObjectPropertyTable.TotalPropertyBytesPerClass[6] = PropertyTableSizeEventGroup;
    1d8a:	3172      	adds	r1, #114	; 0x72
    1d8c:	545a      	strb	r2, [r3, r1]
	RecorderDataPtr->ObjectPropertyTable.TotalPropertyBytesPerClass[7] = PropertyTableSizeStreamBuffer;
    1d8e:	3101      	adds	r1, #1
    1d90:	545a      	strb	r2, [r3, r1]
	RecorderDataPtr->ObjectPropertyTable.TotalPropertyBytesPerClass[8] = PropertyTableSizeMessageBuffer;
    1d92:	3101      	adds	r1, #1
    1d94:	545a      	strb	r2, [r3, r1]
	RecorderDataPtr->ObjectPropertyTable.StartIndexOfClass[0] = StartIndexQueue;
    1d96:	2100      	movs	r1, #0
    1d98:	3275      	adds	r2, #117	; 0x75
    1d9a:	5299      	strh	r1, [r3, r2]
	RecorderDataPtr->ObjectPropertyTable.StartIndexOfClass[1] = StartIndexSemaphore;
    1d9c:	31a0      	adds	r1, #160	; 0xa0
    1d9e:	3202      	adds	r2, #2
    1da0:	5299      	strh	r1, [r3, r2]
	RecorderDataPtr->ObjectPropertyTable.StartIndexOfClass[2] = StartIndexMutex;
    1da2:	31a0      	adds	r1, #160	; 0xa0
    1da4:	3202      	adds	r2, #2
    1da6:	5299      	strh	r1, [r3, r2]
	RecorderDataPtr->ObjectPropertyTable.StartIndexOfClass[3] = StartIndexTask;
    1da8:	31a0      	adds	r1, #160	; 0xa0
    1daa:	3202      	adds	r2, #2
    1dac:	5299      	strh	r1, [r3, r2]
	RecorderDataPtr->ObjectPropertyTable.StartIndexOfClass[4] = StartIndexISR;
    1dae:	490a      	ldr	r1, [pc, #40]	; (1dd8 <vTraceInitObjectPropertyTable+0xc4>)
    1db0:	3202      	adds	r2, #2
    1db2:	5299      	strh	r1, [r3, r2]
	RecorderDataPtr->ObjectPropertyTable.StartIndexOfClass[5] = StartIndexTimer;
    1db4:	4909      	ldr	r1, [pc, #36]	; (1ddc <vTraceInitObjectPropertyTable+0xc8>)
    1db6:	3202      	adds	r2, #2
    1db8:	5299      	strh	r1, [r3, r2]
	RecorderDataPtr->ObjectPropertyTable.StartIndexOfClass[6] = StartIndexEventGroup;
    1dba:	4909      	ldr	r1, [pc, #36]	; (1de0 <vTraceInitObjectPropertyTable+0xcc>)
    1dbc:	3202      	adds	r2, #2
    1dbe:	5299      	strh	r1, [r3, r2]
	RecorderDataPtr->ObjectPropertyTable.StartIndexOfClass[7] = StartIndexStreamBuffer;
    1dc0:	4908      	ldr	r1, [pc, #32]	; (1de4 <vTraceInitObjectPropertyTable+0xd0>)
    1dc2:	3202      	adds	r2, #2
    1dc4:	5299      	strh	r1, [r3, r2]
	RecorderDataPtr->ObjectPropertyTable.StartIndexOfClass[8] = StartIndexMessageBuffer;
    1dc6:	315f      	adds	r1, #95	; 0x5f
    1dc8:	3202      	adds	r2, #2
    1dca:	5299      	strh	r1, [r3, r2]
	RecorderDataPtr->ObjectPropertyTable.ObjectPropertyTableSizeInBytes = TRACE_OBJECT_TABLE_SIZE;
    1dcc:	4a06      	ldr	r2, [pc, #24]	; (1de8 <vTraceInitObjectPropertyTable+0xd4>)
    1dce:	661a      	str	r2, [r3, #96]	; 0x60
}
    1dd0:	bd10      	pop	{r4, pc}
    1dd2:	46c0      	nop			; (mov r8, r8)
    1dd4:	20000334 	.word	0x20000334
    1dd8:	000002fd 	.word	0x000002fd
    1ddc:	00000352 	.word	0x00000352
    1de0:	000003a2 	.word	0x000003a2
    1de4:	00000401 	.word	0x00000401
    1de8:	000004bf 	.word	0x000004bf

00001dec <vTraceInitObjectHandleStack>:

/* Initialization of the handle mechanism, see e.g, prvTraceGetObjectHandle */
void vTraceInitObjectHandleStack()
{
	objectHandleStacks.indexOfNextAvailableHandle[0] = objectHandleStacks.lowestIndexOfClass[0] = 0;
    1dec:	4b17      	ldr	r3, [pc, #92]	; (1e4c <vTraceInitObjectHandleStack+0x60>)
    1dee:	2200      	movs	r2, #0
    1df0:	825a      	strh	r2, [r3, #18]
    1df2:	801a      	strh	r2, [r3, #0]
	objectHandleStacks.indexOfNextAvailableHandle[1] = objectHandleStacks.lowestIndexOfClass[1] = (TRC_CFG_NQUEUE);
    1df4:	320a      	adds	r2, #10
    1df6:	829a      	strh	r2, [r3, #20]
    1df8:	805a      	strh	r2, [r3, #2]
	objectHandleStacks.indexOfNextAvailableHandle[2] = objectHandleStacks.lowestIndexOfClass[2] = (TRC_CFG_NQUEUE) + (TRC_CFG_NSEMAPHORE);
    1dfa:	320a      	adds	r2, #10
    1dfc:	82da      	strh	r2, [r3, #22]
    1dfe:	809a      	strh	r2, [r3, #4]
	objectHandleStacks.indexOfNextAvailableHandle[3] = objectHandleStacks.lowestIndexOfClass[3] = (TRC_CFG_NQUEUE) + (TRC_CFG_NSEMAPHORE) + (TRC_CFG_NMUTEX);
    1e00:	320a      	adds	r2, #10
    1e02:	831a      	strh	r2, [r3, #24]
    1e04:	80da      	strh	r2, [r3, #6]
	objectHandleStacks.indexOfNextAvailableHandle[4] = objectHandleStacks.lowestIndexOfClass[4] = (TRC_CFG_NQUEUE) + (TRC_CFG_NSEMAPHORE) + (TRC_CFG_NMUTEX) + (TRC_CFG_NTASK);
    1e06:	320f      	adds	r2, #15
    1e08:	835a      	strh	r2, [r3, #26]
    1e0a:	811a      	strh	r2, [r3, #8]
	objectHandleStacks.indexOfNextAvailableHandle[5] = objectHandleStacks.lowestIndexOfClass[5] = (TRC_CFG_NQUEUE) + (TRC_CFG_NSEMAPHORE) + (TRC_CFG_NMUTEX) + (TRC_CFG_NTASK) + (TRC_CFG_NISR);
    1e0c:	3205      	adds	r2, #5
    1e0e:	839a      	strh	r2, [r3, #28]
    1e10:	815a      	strh	r2, [r3, #10]
	objectHandleStacks.indexOfNextAvailableHandle[6] = objectHandleStacks.lowestIndexOfClass[6] = (TRC_CFG_NQUEUE) + (TRC_CFG_NSEMAPHORE) + (TRC_CFG_NMUTEX) + (TRC_CFG_NTASK) + (TRC_CFG_NISR) + (TRC_CFG_NTIMER);
    1e12:	3205      	adds	r2, #5
    1e14:	83da      	strh	r2, [r3, #30]
    1e16:	819a      	strh	r2, [r3, #12]
	objectHandleStacks.indexOfNextAvailableHandle[7] = objectHandleStacks.lowestIndexOfClass[7] = (TRC_CFG_NQUEUE) + (TRC_CFG_NSEMAPHORE) + (TRC_CFG_NMUTEX) + (TRC_CFG_NTASK) + (TRC_CFG_NISR) + (TRC_CFG_NTIMER) + (TRC_CFG_NEVENTGROUP);
    1e18:	3205      	adds	r2, #5
    1e1a:	841a      	strh	r2, [r3, #32]
    1e1c:	81da      	strh	r2, [r3, #14]
	objectHandleStacks.indexOfNextAvailableHandle[8] = objectHandleStacks.lowestIndexOfClass[8] = (TRC_CFG_NQUEUE) + (TRC_CFG_NSEMAPHORE) + (TRC_CFG_NMUTEX) + (TRC_CFG_NTASK) + (TRC_CFG_NISR) + (TRC_CFG_NTIMER) + (TRC_CFG_NEVENTGROUP) + (TRC_CFG_NSTREAMBUFFER);
    1e1e:	3205      	adds	r2, #5
    1e20:	845a      	strh	r2, [r3, #34]	; 0x22
    1e22:	821a      	strh	r2, [r3, #16]

	objectHandleStacks.highestIndexOfClass[0] = (TRC_CFG_NQUEUE) - 1;
    1e24:	3a38      	subs	r2, #56	; 0x38
    1e26:	849a      	strh	r2, [r3, #36]	; 0x24
	objectHandleStacks.highestIndexOfClass[1] = (TRC_CFG_NQUEUE) + (TRC_CFG_NSEMAPHORE) - 1;
    1e28:	320a      	adds	r2, #10
    1e2a:	84da      	strh	r2, [r3, #38]	; 0x26
	objectHandleStacks.highestIndexOfClass[2] = (TRC_CFG_NQUEUE) + (TRC_CFG_NSEMAPHORE) + (TRC_CFG_NMUTEX) - 1;
    1e2c:	320a      	adds	r2, #10
    1e2e:	851a      	strh	r2, [r3, #40]	; 0x28
	objectHandleStacks.highestIndexOfClass[3] = (TRC_CFG_NQUEUE) + (TRC_CFG_NSEMAPHORE) + (TRC_CFG_NMUTEX) + (TRC_CFG_NTASK) - 1;
    1e30:	320f      	adds	r2, #15
    1e32:	855a      	strh	r2, [r3, #42]	; 0x2a
	objectHandleStacks.highestIndexOfClass[4] = (TRC_CFG_NQUEUE) + (TRC_CFG_NSEMAPHORE) + (TRC_CFG_NMUTEX) + (TRC_CFG_NTASK) + (TRC_CFG_NISR) - 1;
    1e34:	3205      	adds	r2, #5
    1e36:	859a      	strh	r2, [r3, #44]	; 0x2c
	objectHandleStacks.highestIndexOfClass[5] = (TRC_CFG_NQUEUE) + (TRC_CFG_NSEMAPHORE) + (TRC_CFG_NMUTEX) + (TRC_CFG_NTASK) + (TRC_CFG_NISR) + (TRC_CFG_NTIMER) - 1;
    1e38:	3205      	adds	r2, #5
    1e3a:	85da      	strh	r2, [r3, #46]	; 0x2e
	objectHandleStacks.highestIndexOfClass[6] = (TRC_CFG_NQUEUE) + (TRC_CFG_NSEMAPHORE) + (TRC_CFG_NMUTEX) + (TRC_CFG_NTASK) + (TRC_CFG_NISR) + (TRC_CFG_NTIMER) + (TRC_CFG_NEVENTGROUP) - 1;
    1e3c:	3205      	adds	r2, #5
    1e3e:	861a      	strh	r2, [r3, #48]	; 0x30
	objectHandleStacks.highestIndexOfClass[7] = (TRC_CFG_NQUEUE) + (TRC_CFG_NSEMAPHORE) + (TRC_CFG_NMUTEX) + (TRC_CFG_NTASK) + (TRC_CFG_NISR) + (TRC_CFG_NTIMER) + (TRC_CFG_NEVENTGROUP) + (TRC_CFG_NSTREAMBUFFER) - 1;
    1e40:	3205      	adds	r2, #5
    1e42:	865a      	strh	r2, [r3, #50]	; 0x32
	objectHandleStacks.highestIndexOfClass[8] = (TRC_CFG_NQUEUE) + (TRC_CFG_NSEMAPHORE) + (TRC_CFG_NMUTEX) + (TRC_CFG_NTASK) + (TRC_CFG_NISR) + (TRC_CFG_NTIMER) + (TRC_CFG_NEVENTGROUP) + (TRC_CFG_NSTREAMBUFFER) + (TRC_CFG_NMESSAGEBUFFER) - 1;
    1e44:	3205      	adds	r2, #5
    1e46:	869a      	strh	r2, [r3, #52]	; 0x34
}
    1e48:	4770      	bx	lr
    1e4a:	46c0      	nop			; (mov r8, r8)
    1e4c:	20000350 	.word	0x20000350

00001e50 <pszTraceGetErrorNotEnoughHandles>:

/* Returns the "Not enough handles" error message for this object class */
const char* pszTraceGetErrorNotEnoughHandles(traceObjectClass objectclass)
{
	switch(objectclass)
    1e50:	2808      	cmp	r0, #8
    1e52:	d813      	bhi.n	1e7c <pszTraceGetErrorNotEnoughHandles+0x2c>
    1e54:	0080      	lsls	r0, r0, #2
    1e56:	4b0b      	ldr	r3, [pc, #44]	; (1e84 <pszTraceGetErrorNotEnoughHandles+0x34>)
    1e58:	581b      	ldr	r3, [r3, r0]
    1e5a:	469f      	mov	pc, r3
	{
	case TRACE_CLASS_TASK:
		return "Not enough TASK handles - increase TRC_CFG_NTASK in trcSnapshotConfig.h";
	case TRACE_CLASS_ISR:
		return "Not enough ISR handles - increase TRC_CFG_NISR in trcSnapshotConfig.h";
    1e5c:	480a      	ldr	r0, [pc, #40]	; (1e88 <pszTraceGetErrorNotEnoughHandles+0x38>)
    1e5e:	e010      	b.n	1e82 <pszTraceGetErrorNotEnoughHandles+0x32>
	case TRACE_CLASS_SEMAPHORE:
		return "Not enough SEMAPHORE handles - increase TRC_CFG_NSEMAPHORE in trcSnapshotConfig.h";
    1e60:	480a      	ldr	r0, [pc, #40]	; (1e8c <pszTraceGetErrorNotEnoughHandles+0x3c>)
    1e62:	e00e      	b.n	1e82 <pszTraceGetErrorNotEnoughHandles+0x32>
	case TRACE_CLASS_MUTEX:
		return "Not enough MUTEX handles - increase TRC_CFG_NMUTEX in trcSnapshotConfig.h";
    1e64:	480a      	ldr	r0, [pc, #40]	; (1e90 <pszTraceGetErrorNotEnoughHandles+0x40>)
    1e66:	e00c      	b.n	1e82 <pszTraceGetErrorNotEnoughHandles+0x32>
	case TRACE_CLASS_QUEUE:
		return "Not enough QUEUE handles - increase TRC_CFG_NQUEUE in trcSnapshotConfig.h";
    1e68:	480a      	ldr	r0, [pc, #40]	; (1e94 <pszTraceGetErrorNotEnoughHandles+0x44>)
    1e6a:	e00a      	b.n	1e82 <pszTraceGetErrorNotEnoughHandles+0x32>
	case TRACE_CLASS_TIMER:
		return "Not enough TIMER handles - increase TRC_CFG_NTIMER in trcSnapshotConfig.h";
    1e6c:	480a      	ldr	r0, [pc, #40]	; (1e98 <pszTraceGetErrorNotEnoughHandles+0x48>)
    1e6e:	e008      	b.n	1e82 <pszTraceGetErrorNotEnoughHandles+0x32>
	case TRACE_CLASS_EVENTGROUP:
		return "Not enough EVENTGROUP handles - increase TRC_CFG_NEVENTGROUP in trcSnapshotConfig.h";
    1e70:	480a      	ldr	r0, [pc, #40]	; (1e9c <pszTraceGetErrorNotEnoughHandles+0x4c>)
    1e72:	e006      	b.n	1e82 <pszTraceGetErrorNotEnoughHandles+0x32>
	case TRACE_CLASS_STREAMBUFFER:
		return "Not enough STREAMBUFFER handles - increase TRC_CFG_NSTREAMBUFFER in trcSnapshotConfig.h";
    1e74:	480a      	ldr	r0, [pc, #40]	; (1ea0 <pszTraceGetErrorNotEnoughHandles+0x50>)
    1e76:	e004      	b.n	1e82 <pszTraceGetErrorNotEnoughHandles+0x32>
	case TRACE_CLASS_MESSAGEBUFFER:
		return "Not enough MESSAGEBUFFER handles - increase TRC_CFG_NMESSAGEBUFFER in trcSnapshotConfig.h";
    1e78:	480a      	ldr	r0, [pc, #40]	; (1ea4 <pszTraceGetErrorNotEnoughHandles+0x54>)
    1e7a:	e002      	b.n	1e82 <pszTraceGetErrorNotEnoughHandles+0x32>
	default:
		return "pszTraceGetErrorHandles: Invalid objectclass!";
    1e7c:	480a      	ldr	r0, [pc, #40]	; (1ea8 <pszTraceGetErrorNotEnoughHandles+0x58>)
    1e7e:	e000      	b.n	1e82 <pszTraceGetErrorNotEnoughHandles+0x32>
		return "Not enough TASK handles - increase TRC_CFG_NTASK in trcSnapshotConfig.h";
    1e80:	480a      	ldr	r0, [pc, #40]	; (1eac <pszTraceGetErrorNotEnoughHandles+0x5c>)
	}
}
    1e82:	4770      	bx	lr
    1e84:	00009a94 	.word	0x00009a94
    1e88:	00009b00 	.word	0x00009b00
    1e8c:	00009b48 	.word	0x00009b48
    1e90:	00009b9c 	.word	0x00009b9c
    1e94:	00009be8 	.word	0x00009be8
    1e98:	00009c34 	.word	0x00009c34
    1e9c:	00009c80 	.word	0x00009c80
    1ea0:	00009cd4 	.word	0x00009cd4
    1ea4:	00009d2c 	.word	0x00009d2c
    1ea8:	00009d88 	.word	0x00009d88
    1eac:	00009ab8 	.word	0x00009ab8

00001eb0 <prvStrncpy>:
 * prvStrncpy
 *
 * Private string copy function, to improve portability between compilers.
 ******************************************************************************/
static void prvStrncpy(char* dst, const char* src, uint32_t maxLength)
{
    1eb0:	b510      	push	{r4, lr}
	uint32_t i;
	for (i = 0; i < maxLength; i++)
    1eb2:	2a00      	cmp	r2, #0
    1eb4:	d00d      	beq.n	1ed2 <prvStrncpy+0x22>
	{
		dst[i] = src[i];
    1eb6:	780b      	ldrb	r3, [r1, #0]
    1eb8:	7003      	strb	r3, [r0, #0]
		if (src[i] == 0)
    1eba:	780b      	ldrb	r3, [r1, #0]
    1ebc:	2b00      	cmp	r3, #0
    1ebe:	d008      	beq.n	1ed2 <prvStrncpy+0x22>
    1ec0:	2300      	movs	r3, #0
	for (i = 0; i < maxLength; i++)
    1ec2:	3301      	adds	r3, #1
    1ec4:	429a      	cmp	r2, r3
    1ec6:	d004      	beq.n	1ed2 <prvStrncpy+0x22>
		dst[i] = src[i];
    1ec8:	5ccc      	ldrb	r4, [r1, r3]
    1eca:	54c4      	strb	r4, [r0, r3]
		if (src[i] == 0)
    1ecc:	5ccc      	ldrb	r4, [r1, r3]
    1ece:	2c00      	cmp	r4, #0
    1ed0:	d1f7      	bne.n	1ec2 <prvStrncpy+0x12>
			break;
	}
}
    1ed2:	bd10      	pop	{r4, pc}

00001ed4 <vTraceStop>:
{
    1ed4:	b510      	push	{r4, lr}
	if (RecorderDataPtr != NULL)
    1ed6:	4b06      	ldr	r3, [pc, #24]	; (1ef0 <vTraceStop+0x1c>)
    1ed8:	681b      	ldr	r3, [r3, #0]
    1eda:	2b00      	cmp	r3, #0
    1edc:	d001      	beq.n	1ee2 <vTraceStop+0xe>
		RecorderDataPtr->recorderActive = 0;
    1ede:	2200      	movs	r2, #0
    1ee0:	631a      	str	r2, [r3, #48]	; 0x30
	if (vTraceStopHookPtr != (TRACE_STOP_HOOK)0)
    1ee2:	4b04      	ldr	r3, [pc, #16]	; (1ef4 <vTraceStop+0x20>)
    1ee4:	681b      	ldr	r3, [r3, #0]
    1ee6:	2b00      	cmp	r3, #0
    1ee8:	d000      	beq.n	1eec <vTraceStop+0x18>
		(*vTraceStopHookPtr)();			/* An application call-back function. */
    1eea:	4798      	blx	r3
}
    1eec:	bd10      	pop	{r4, pc}
    1eee:	46c0      	nop			; (mov r8, r8)
    1ef0:	20000334 	.word	0x20000334
    1ef4:	200003fc 	.word	0x200003fc

00001ef8 <prvTraceInitTraceData>:
{	
    1ef8:	b5f8      	push	{r3, r4, r5, r6, r7, lr}
    1efa:	46de      	mov	lr, fp
    1efc:	4657      	mov	r7, sl
    1efe:	464e      	mov	r6, r9
    1f00:	4645      	mov	r5, r8
    1f02:	b5e0      	push	{r5, r6, r7, lr}
	if (RecorderDataPtr == NULL)
    1f04:	4b51      	ldr	r3, [pc, #324]	; (204c <STACK_SIZE+0x4c>)
    1f06:	681b      	ldr	r3, [r3, #0]
    1f08:	2b00      	cmp	r3, #0
    1f0a:	d100      	bne.n	1f0e <prvTraceInitTraceData+0x16>
    1f0c:	e099      	b.n	2042 <STACK_SIZE+0x42>
		if (RecorderDataPtr->startmarker0 == 1)
    1f0e:	781b      	ldrb	r3, [r3, #0]
    1f10:	2b01      	cmp	r3, #1
    1f12:	d100      	bne.n	1f16 <prvTraceInitTraceData+0x1e>
    1f14:	e08f      	b.n	2036 <STACK_SIZE+0x36>
	init_hwtc_count = TRC_HWTC_COUNT;
    1f16:	4b4e      	ldr	r3, [pc, #312]	; (2050 <STACK_SIZE+0x50>)
    1f18:	681a      	ldr	r2, [r3, #0]
    1f1a:	4b4e      	ldr	r3, [pc, #312]	; (2054 <STACK_SIZE+0x54>)
    1f1c:	601a      	str	r2, [r3, #0]
	(void)memset(RecorderDataPtr, 0, sizeof(RecorderDataType));
    1f1e:	4c4b      	ldr	r4, [pc, #300]	; (204c <STACK_SIZE+0x4c>)
    1f20:	4d4d      	ldr	r5, [pc, #308]	; (2058 <STACK_SIZE+0x58>)
    1f22:	002a      	movs	r2, r5
    1f24:	2100      	movs	r1, #0
    1f26:	6820      	ldr	r0, [r4, #0]
    1f28:	4b4c      	ldr	r3, [pc, #304]	; (205c <STACK_SIZE+0x5c>)
    1f2a:	4798      	blx	r3
	RecorderDataPtr->version = TRACE_KERNEL_VERSION;
    1f2c:	6823      	ldr	r3, [r4, #0]
    1f2e:	4a4c      	ldr	r2, [pc, #304]	; (2060 <STACK_SIZE+0x60>)
    1f30:	819a      	strh	r2, [r3, #12]
	RecorderDataPtr->minor_version = TRACE_MINOR_VERSION;
    1f32:	2205      	movs	r2, #5
    1f34:	739a      	strb	r2, [r3, #14]
	RecorderDataPtr->irq_priority_order = TRC_IRQ_PRIORITY_ORDER;
    1f36:	2200      	movs	r2, #0
    1f38:	73da      	strb	r2, [r3, #15]
	RecorderDataPtr->filesize = sizeof(RecorderDataType);
    1f3a:	611d      	str	r5, [r3, #16]
	RecorderDataPtr->maxEvents = (TRC_CFG_EVENT_BUFFER_SIZE);
    1f3c:	21c8      	movs	r1, #200	; 0xc8
    1f3e:	0049      	lsls	r1, r1, #1
    1f40:	6199      	str	r1, [r3, #24]
	RecorderDataPtr->debugMarker0 = (int32_t) 0xF0F0F0F0;
    1f42:	4948      	ldr	r1, [pc, #288]	; (2064 <STACK_SIZE+0x64>)
    1f44:	6559      	str	r1, [r3, #84]	; 0x54
	RecorderDataPtr->isUsing16bitHandles = TRC_CFG_USE_16BIT_OBJECT_HANDLES;
    1f46:	659a      	str	r2, [r3, #88]	; 0x58
	RecorderDataPtr->isrTailchainingThreshold = TRC_CFG_ISR_TAILCHAINING_THRESHOLD;
    1f48:	635a      	str	r2, [r3, #52]	; 0x34
	vTraceInitObjectPropertyTable();
    1f4a:	4b47      	ldr	r3, [pc, #284]	; (2068 <STACK_SIZE+0x68>)
    1f4c:	4798      	blx	r3
	RecorderDataPtr->debugMarker1 = (int32_t)0xF1F1F1F1;
    1f4e:	6820      	ldr	r0, [r4, #0]
    1f50:	4a46      	ldr	r2, [pc, #280]	; (206c <STACK_SIZE+0x6c>)
    1f52:	4b47      	ldr	r3, [pc, #284]	; (2070 <STACK_SIZE+0x70>)
    1f54:	50c2      	str	r2, [r0, r3]
	RecorderDataPtr->SymbolTable.symTableSize = (TRC_CFG_SYMBOL_TABLE_SIZE);
    1f56:	22c8      	movs	r2, #200	; 0xc8
    1f58:	0092      	lsls	r2, r2, #2
    1f5a:	3304      	adds	r3, #4
    1f5c:	50c2      	str	r2, [r0, r3]
	RecorderDataPtr->SymbolTable.nextFreeSymbolIndex = 1;
    1f5e:	4b45      	ldr	r3, [pc, #276]	; (2074 <STACK_SIZE+0x74>)
    1f60:	2201      	movs	r2, #1
    1f62:	50c2      	str	r2, [r0, r3]
	RecorderDataPtr->debugMarker2 = (int32_t)0xF2F2F2F2;
    1f64:	4a44      	ldr	r2, [pc, #272]	; (2078 <STACK_SIZE+0x78>)
    1f66:	2391      	movs	r3, #145	; 0x91
    1f68:	011b      	lsls	r3, r3, #4
    1f6a:	50c2      	str	r2, [r0, r3]
	prvStrncpy(RecorderDataPtr->systemInfo, "Trace Recorder Demo", 80);
    1f6c:	4b43      	ldr	r3, [pc, #268]	; (207c <STACK_SIZE+0x7c>)
    1f6e:	469c      	mov	ip, r3
    1f70:	4460      	add	r0, ip
    1f72:	2250      	movs	r2, #80	; 0x50
    1f74:	4942      	ldr	r1, [pc, #264]	; (2080 <STACK_SIZE+0x80>)
    1f76:	4b43      	ldr	r3, [pc, #268]	; (2084 <STACK_SIZE+0x84>)
    1f78:	4798      	blx	r3
	RecorderDataPtr->debugMarker3 = (int32_t)0xF3F3F3F3;
    1f7a:	6823      	ldr	r3, [r4, #0]
    1f7c:	4942      	ldr	r1, [pc, #264]	; (2088 <STACK_SIZE+0x88>)
    1f7e:	4a43      	ldr	r2, [pc, #268]	; (208c <STACK_SIZE+0x8c>)
    1f80:	5099      	str	r1, [r3, r2]
	RecorderDataPtr->endmarker0 = 0x0A;
    1f82:	210a      	movs	r1, #10
    1f84:	4a42      	ldr	r2, [pc, #264]	; (2090 <STACK_SIZE+0x90>)
    1f86:	5499      	strb	r1, [r3, r2]
	RecorderDataPtr->endmarker1 = 0x0B;
    1f88:	3101      	adds	r1, #1
    1f8a:	4a42      	ldr	r2, [pc, #264]	; (2094 <STACK_SIZE+0x94>)
    1f8c:	5499      	strb	r1, [r3, r2]
	RecorderDataPtr->endmarker2 = 0x0C;
    1f8e:	3101      	adds	r1, #1
    1f90:	4a41      	ldr	r2, [pc, #260]	; (2098 <STACK_SIZE+0x98>)
    1f92:	5499      	strb	r1, [r3, r2]
	RecorderDataPtr->endmarker3 = 0x0D;
    1f94:	3101      	adds	r1, #1
    1f96:	4a41      	ldr	r2, [pc, #260]	; (209c <STACK_SIZE+0x9c>)
    1f98:	5499      	strb	r1, [r3, r2]
	RecorderDataPtr->endmarker4 = 0x71;
    1f9a:	3201      	adds	r2, #1
    1f9c:	3164      	adds	r1, #100	; 0x64
    1f9e:	5499      	strb	r1, [r3, r2]
	RecorderDataPtr->endmarker5 = 0x72;
    1fa0:	2572      	movs	r5, #114	; 0x72
    1fa2:	4a3f      	ldr	r2, [pc, #252]	; (20a0 <STACK_SIZE+0xa0>)
    1fa4:	549d      	strb	r5, [r3, r2]
	RecorderDataPtr->endmarker6 = 0x73;
    1fa6:	2673      	movs	r6, #115	; 0x73
    1fa8:	4a3e      	ldr	r2, [pc, #248]	; (20a4 <STACK_SIZE+0xa4>)
    1faa:	549e      	strb	r6, [r3, r2]
	RecorderDataPtr->endmarker7 = 0x74;
    1fac:	2774      	movs	r7, #116	; 0x74
    1fae:	4a3e      	ldr	r2, [pc, #248]	; (20a8 <STACK_SIZE+0xa8>)
    1fb0:	549f      	strb	r7, [r3, r2]
	RecorderDataPtr->endmarker8 = 0xF1;
    1fb2:	22f1      	movs	r2, #241	; 0xf1
    1fb4:	4690      	mov	r8, r2
    1fb6:	4a3d      	ldr	r2, [pc, #244]	; (20ac <STACK_SIZE+0xac>)
    1fb8:	4641      	mov	r1, r8
    1fba:	5499      	strb	r1, [r3, r2]
	RecorderDataPtr->endmarker9 = 0xF2;
    1fbc:	22f2      	movs	r2, #242	; 0xf2
    1fbe:	4691      	mov	r9, r2
    1fc0:	4a3b      	ldr	r2, [pc, #236]	; (20b0 <STACK_SIZE+0xb0>)
    1fc2:	4649      	mov	r1, r9
    1fc4:	5499      	strb	r1, [r3, r2]
	RecorderDataPtr->endmarker10 = 0xF3;
    1fc6:	22f3      	movs	r2, #243	; 0xf3
    1fc8:	4692      	mov	sl, r2
    1fca:	4a3a      	ldr	r2, [pc, #232]	; (20b4 <STACK_SIZE+0xb4>)
    1fcc:	4651      	mov	r1, sl
    1fce:	5499      	strb	r1, [r3, r2]
	RecorderDataPtr->endmarker11 = 0xF4;
    1fd0:	22f4      	movs	r2, #244	; 0xf4
    1fd2:	4693      	mov	fp, r2
    1fd4:	4a38      	ldr	r2, [pc, #224]	; (20b8 <STACK_SIZE+0xb8>)
    1fd6:	4659      	mov	r1, fp
    1fd8:	5499      	strb	r1, [r3, r2]
	vTraceInitObjectHandleStack();
    1fda:	4b38      	ldr	r3, [pc, #224]	; (20bc <STACK_SIZE+0xbc>)
    1fdc:	4798      	blx	r3
	RecorderDataPtr->startmarker11 = 0xF4;
    1fde:	6823      	ldr	r3, [r4, #0]
    1fe0:	465a      	mov	r2, fp
    1fe2:	72da      	strb	r2, [r3, #11]
	RecorderDataPtr->startmarker10 = 0xF3;
    1fe4:	4652      	mov	r2, sl
    1fe6:	729a      	strb	r2, [r3, #10]
	RecorderDataPtr->startmarker9 = 0xF2;
    1fe8:	464a      	mov	r2, r9
    1fea:	725a      	strb	r2, [r3, #9]
	RecorderDataPtr->startmarker8 = 0xF1;
    1fec:	4642      	mov	r2, r8
    1fee:	721a      	strb	r2, [r3, #8]
	RecorderDataPtr->startmarker7 = 0x74;
    1ff0:	71df      	strb	r7, [r3, #7]
	RecorderDataPtr->startmarker6 = 0x73;
    1ff2:	719e      	strb	r6, [r3, #6]
	RecorderDataPtr->startmarker5 = 0x72;
    1ff4:	715d      	strb	r5, [r3, #5]
	RecorderDataPtr->startmarker4 = 0x71;
    1ff6:	2271      	movs	r2, #113	; 0x71
    1ff8:	711a      	strb	r2, [r3, #4]
	RecorderDataPtr->startmarker3 = 0x04;
    1ffa:	2204      	movs	r2, #4
    1ffc:	70da      	strb	r2, [r3, #3]
	RecorderDataPtr->startmarker2 = 0x03;
    1ffe:	2303      	movs	r3, #3
    2000:	6822      	ldr	r2, [r4, #0]
    2002:	7093      	strb	r3, [r2, #2]
	RecorderDataPtr->startmarker1 = 0x02;	
    2004:	3b01      	subs	r3, #1
    2006:	6822      	ldr	r2, [r4, #0]
    2008:	7053      	strb	r3, [r2, #1]
	RecorderDataPtr->startmarker0 = 0x01; 
    200a:	6823      	ldr	r3, [r4, #0]
    200c:	2201      	movs	r2, #1
    200e:	701a      	strb	r2, [r3, #0]
	if (traceErrorMessage != NULL)
    2010:	4b2b      	ldr	r3, [pc, #172]	; (20c0 <STACK_SIZE+0xc0>)
    2012:	6819      	ldr	r1, [r3, #0]
    2014:	2900      	cmp	r1, #0
    2016:	d00e      	beq.n	2036 <STACK_SIZE+0x36>
		prvStrncpy(RecorderDataPtr->systemInfo, traceErrorMessage, 80);
    2018:	4c0c      	ldr	r4, [pc, #48]	; (204c <STACK_SIZE+0x4c>)
    201a:	6823      	ldr	r3, [r4, #0]
    201c:	4a17      	ldr	r2, [pc, #92]	; (207c <STACK_SIZE+0x7c>)
    201e:	4694      	mov	ip, r2
    2020:	4463      	add	r3, ip
    2022:	0018      	movs	r0, r3
    2024:	2250      	movs	r2, #80	; 0x50
    2026:	4b17      	ldr	r3, [pc, #92]	; (2084 <STACK_SIZE+0x84>)
    2028:	4798      	blx	r3
		RecorderDataPtr->internalErrorOccured = 1;
    202a:	6822      	ldr	r2, [r4, #0]
    202c:	2101      	movs	r1, #1
    202e:	4b25      	ldr	r3, [pc, #148]	; (20c4 <STACK_SIZE+0xc4>)
    2030:	50d1      	str	r1, [r2, r3]
		vTraceStop();
    2032:	4b25      	ldr	r3, [pc, #148]	; (20c8 <STACK_SIZE+0xc8>)
    2034:	4798      	blx	r3
}
    2036:	bc3c      	pop	{r2, r3, r4, r5}
    2038:	4690      	mov	r8, r2
    203a:	4699      	mov	r9, r3
    203c:	46a2      	mov	sl, r4
    203e:	46ab      	mov	fp, r5
    2040:	bdf8      	pop	{r3, r4, r5, r6, r7, pc}
	RecorderDataPtr = &RecorderData;
    2042:	4a22      	ldr	r2, [pc, #136]	; (20cc <STACK_SIZE+0xcc>)
    2044:	4b01      	ldr	r3, [pc, #4]	; (204c <STACK_SIZE+0x4c>)
    2046:	601a      	str	r2, [r3, #0]
    2048:	e765      	b.n	1f16 <prvTraceInitTraceData+0x1e>
    204a:	46c0      	nop			; (mov r8, r8)
    204c:	20000334 	.word	0x20000334
    2050:	e000e018 	.word	0xe000e018
    2054:	200048cc 	.word	0x200048cc
    2058:	00000fb8 	.word	0x00000fb8
    205c:	00008cc3 	.word	0x00008cc3
    2060:	00001aa1 	.word	0x00001aa1
    2064:	f0f0f0f0 	.word	0xf0f0f0f0
    2068:	00001d15 	.word	0x00001d15
    206c:	f1f1f1f1 	.word	0xf1f1f1f1
    2070:	0000055c 	.word	0x0000055c
    2074:	00000564 	.word	0x00000564
    2078:	f2f2f2f2 	.word	0xf2f2f2f2
    207c:	00000914 	.word	0x00000914
    2080:	00009ff8 	.word	0x00009ff8
    2084:	00001eb1 	.word	0x00001eb1
    2088:	f3f3f3f3 	.word	0xf3f3f3f3
    208c:	00000964 	.word	0x00000964
    2090:	00000fac 	.word	0x00000fac
    2094:	00000fad 	.word	0x00000fad
    2098:	00000fae 	.word	0x00000fae
    209c:	00000faf 	.word	0x00000faf
    20a0:	00000fb1 	.word	0x00000fb1
    20a4:	00000fb2 	.word	0x00000fb2
    20a8:	00000fb3 	.word	0x00000fb3
    20ac:	00000fb4 	.word	0x00000fb4
    20b0:	00000fb5 	.word	0x00000fb5
    20b4:	00000fb6 	.word	0x00000fb6
    20b8:	00000fb7 	.word	0x00000fb7
    20bc:	00001ded 	.word	0x00001ded
    20c0:	200003ec 	.word	0x200003ec
    20c4:	0000090c 	.word	0x0000090c
    20c8:	00001ed5 	.word	0x00001ed5
    20cc:	20003914 	.word	0x20003914

000020d0 <prvTraceError>:
 * Note: If a recorder error is registered before vTraceStart is called, the
 * trace start will be aborted. This can occur if any of the Nxxxx constants
 * (e.g., TRC_CFG_NTASK) in trcConfig.h is too small.
 ******************************************************************************/
void prvTraceError(const char* msg)
{
    20d0:	b510      	push	{r4, lr}
    20d2:	0004      	movs	r4, r0
	/* Stop the recorder */
	if (RecorderDataPtr != NULL)
    20d4:	4b0e      	ldr	r3, [pc, #56]	; (2110 <prvTraceError+0x40>)
    20d6:	681b      	ldr	r3, [r3, #0]
    20d8:	2b00      	cmp	r3, #0
    20da:	d001      	beq.n	20e0 <prvTraceError+0x10>
	{
		vTraceStop();
    20dc:	4b0d      	ldr	r3, [pc, #52]	; (2114 <prvTraceError+0x44>)
    20de:	4798      	blx	r3
	}

	/* If first error only... */
	if (traceErrorMessage == NULL)
    20e0:	4b0d      	ldr	r3, [pc, #52]	; (2118 <prvTraceError+0x48>)
    20e2:	681b      	ldr	r3, [r3, #0]
    20e4:	2b00      	cmp	r3, #0
    20e6:	d000      	beq.n	20ea <prvTraceError+0x1a>
		{
			prvStrncpy(RecorderDataPtr->systemInfo, traceErrorMessage, 80);
			RecorderDataPtr->internalErrorOccured = 1;
		}
	}
}
    20e8:	bd10      	pop	{r4, pc}
		traceErrorMessage = (char*)(intptr_t) msg;
    20ea:	4b0b      	ldr	r3, [pc, #44]	; (2118 <prvTraceError+0x48>)
    20ec:	601c      	str	r4, [r3, #0]
		if (RecorderDataPtr != NULL)
    20ee:	4b08      	ldr	r3, [pc, #32]	; (2110 <prvTraceError+0x40>)
    20f0:	6818      	ldr	r0, [r3, #0]
    20f2:	2800      	cmp	r0, #0
    20f4:	d0f8      	beq.n	20e8 <prvTraceError+0x18>
			prvStrncpy(RecorderDataPtr->systemInfo, traceErrorMessage, 80);
    20f6:	4b09      	ldr	r3, [pc, #36]	; (211c <prvTraceError+0x4c>)
    20f8:	469c      	mov	ip, r3
    20fa:	4460      	add	r0, ip
    20fc:	2250      	movs	r2, #80	; 0x50
    20fe:	0021      	movs	r1, r4
    2100:	4b07      	ldr	r3, [pc, #28]	; (2120 <prvTraceError+0x50>)
    2102:	4798      	blx	r3
			RecorderDataPtr->internalErrorOccured = 1;
    2104:	4b02      	ldr	r3, [pc, #8]	; (2110 <prvTraceError+0x40>)
    2106:	681a      	ldr	r2, [r3, #0]
    2108:	2101      	movs	r1, #1
    210a:	4b06      	ldr	r3, [pc, #24]	; (2124 <prvTraceError+0x54>)
    210c:	50d1      	str	r1, [r2, r3]
}
    210e:	e7eb      	b.n	20e8 <prvTraceError+0x18>
    2110:	20000334 	.word	0x20000334
    2114:	00001ed5 	.word	0x00001ed5
    2118:	200003ec 	.word	0x200003ec
    211c:	00000914 	.word	0x00000914
    2120:	00001eb1 	.word	0x00001eb1
    2124:	0000090c 	.word	0x0000090c

00002128 <prvTraceNextFreeEventBufferSlot>:
{
    2128:	b510      	push	{r4, lr}
	if (! RecorderDataPtr->recorderActive)
    212a:	4b0b      	ldr	r3, [pc, #44]	; (2158 <prvTraceNextFreeEventBufferSlot+0x30>)
    212c:	6818      	ldr	r0, [r3, #0]
    212e:	6b03      	ldr	r3, [r0, #48]	; 0x30
    2130:	2b00      	cmp	r3, #0
    2132:	d00f      	beq.n	2154 <prvTraceNextFreeEventBufferSlot+0x2c>
	if (RecorderDataPtr->nextFreeIndex >= (TRC_CFG_EVENT_BUFFER_SIZE))
    2134:	69c3      	ldr	r3, [r0, #28]
    2136:	2290      	movs	r2, #144	; 0x90
    2138:	32ff      	adds	r2, #255	; 0xff
    213a:	4293      	cmp	r3, r2
    213c:	d805      	bhi.n	214a <prvTraceNextFreeEventBufferSlot+0x22>
	return (void*)(&RecorderDataPtr->eventData[RecorderDataPtr->nextFreeIndex*4]);
    213e:	009b      	lsls	r3, r3, #2
    2140:	4a06      	ldr	r2, [pc, #24]	; (215c <prvTraceNextFreeEventBufferSlot+0x34>)
    2142:	4694      	mov	ip, r2
    2144:	4463      	add	r3, ip
    2146:	18c0      	adds	r0, r0, r3
}
    2148:	bd10      	pop	{r4, pc}
		prvTraceError("Attempt to index outside event buffer!");
    214a:	4805      	ldr	r0, [pc, #20]	; (2160 <prvTraceNextFreeEventBufferSlot+0x38>)
    214c:	4b05      	ldr	r3, [pc, #20]	; (2164 <prvTraceNextFreeEventBufferSlot+0x3c>)
    214e:	4798      	blx	r3
		return NULL;
    2150:	2000      	movs	r0, #0
    2152:	e7f9      	b.n	2148 <prvTraceNextFreeEventBufferSlot+0x20>
		return NULL;
    2154:	2000      	movs	r0, #0
    2156:	e7f7      	b.n	2148 <prvTraceNextFreeEventBufferSlot+0x20>
    2158:	20000334 	.word	0x20000334
    215c:	00000968 	.word	0x00000968
    2160:	0000a00c 	.word	0x0000a00c
    2164:	000020d1 	.word	0x000020d1

00002168 <prvCheckDataToBeOverwrittenForMultiEntryEvents>:
 * This is assumed to execute within a critical section...
 *****************************************************************************/

#if (TRC_CFG_SNAPSHOT_MODE == TRC_SNAPSHOT_MODE_RING_BUFFER)
void prvCheckDataToBeOverwrittenForMultiEntryEvents(uint8_t nofEntriesToCheck)
{
    2168:	b5f0      	push	{r4, r5, r6, r7, lr}
    216a:	46c6      	mov	lr, r8
    216c:	b500      	push	{lr}
	/* Generic "int" type is desired - should be 16 bit variable on 16 bit HW */
	unsigned int i = 0;
	unsigned int e = 0;

	TRACE_ASSERT(nofEntriesToCheck != 0, 
    216e:	2800      	cmp	r0, #0
    2170:	d006      	beq.n	2180 <prvCheckDataToBeOverwrittenForMultiEntryEvents+0x18>
		"prvCheckDataToBeOverwrittenForMultiEntryEvents: nofEntriesToCheck == 0", TRC_UNUSED);

	while (i < nofEntriesToCheck)
    2172:	0007      	movs	r7, r0
    2174:	2500      	movs	r5, #0
    2176:	2800      	cmp	r0, #0
    2178:	d005      	beq.n	2186 <prvCheckDataToBeOverwrittenForMultiEntryEvents+0x1e>
	{
		e = RecorderDataPtr->nextFreeIndex + i;
    217a:	4b23      	ldr	r3, [pc, #140]	; (2208 <prvCheckDataToBeOverwrittenForMultiEntryEvents+0xa0>)
    217c:	4698      	mov	r8, r3
    217e:	e00a      	b.n	2196 <prvCheckDataToBeOverwrittenForMultiEntryEvents+0x2e>
	TRACE_ASSERT(nofEntriesToCheck != 0, 
    2180:	4822      	ldr	r0, [pc, #136]	; (220c <prvCheckDataToBeOverwrittenForMultiEntryEvents+0xa4>)
    2182:	4b23      	ldr	r3, [pc, #140]	; (2210 <prvCheckDataToBeOverwrittenForMultiEntryEvents+0xa8>)
    2184:	4798      	blx	r3
				(void)memset(& RecorderDataPtr->eventData[e*4], 0, 4);
			}
		}
		i++;
	}
}
    2186:	bc04      	pop	{r2}
    2188:	4690      	mov	r8, r2
    218a:	bdf0      	pop	{r4, r5, r6, r7, pc}
		else if (RecorderDataPtr->eventData[e*4] == DIV_XPS)
    218c:	2a01      	cmp	r2, #1
    218e:	d020      	beq.n	21d2 <prvCheckDataToBeOverwrittenForMultiEntryEvents+0x6a>
		i++;
    2190:	3501      	adds	r5, #1
	while (i < nofEntriesToCheck)
    2192:	42bd      	cmp	r5, r7
    2194:	d2f7      	bcs.n	2186 <prvCheckDataToBeOverwrittenForMultiEntryEvents+0x1e>
		e = RecorderDataPtr->nextFreeIndex + i;
    2196:	4643      	mov	r3, r8
    2198:	681c      	ldr	r4, [r3, #0]
    219a:	69e3      	ldr	r3, [r4, #28]
    219c:	18eb      	adds	r3, r5, r3
		if ((RecorderDataPtr->eventData[e*4] > USER_EVENT) &&
    219e:	009e      	lsls	r6, r3, #2
    21a0:	19a2      	adds	r2, r4, r6
    21a2:	491c      	ldr	r1, [pc, #112]	; (2214 <prvCheckDataToBeOverwrittenForMultiEntryEvents+0xac>)
    21a4:	468c      	mov	ip, r1
    21a6:	4462      	add	r2, ip
    21a8:	7812      	ldrb	r2, [r2, #0]
    21aa:	0011      	movs	r1, r2
    21ac:	3167      	adds	r1, #103	; 0x67
    21ae:	b2c9      	uxtb	r1, r1
    21b0:	290e      	cmp	r1, #14
    21b2:	d8eb      	bhi.n	218c <prvCheckDataToBeOverwrittenForMultiEntryEvents+0x24>
			uint8_t nDataEvents = (uint8_t)(RecorderDataPtr->eventData[e*4] - USER_EVENT);
    21b4:	3268      	adds	r2, #104	; 0x68
    21b6:	b2d2      	uxtb	r2, r2
			if ((e + nDataEvents) < RecorderDataPtr->maxEvents)
    21b8:	18d3      	adds	r3, r2, r3
    21ba:	69a1      	ldr	r1, [r4, #24]
    21bc:	428b      	cmp	r3, r1
    21be:	d2e7      	bcs.n	2190 <prvCheckDataToBeOverwrittenForMultiEntryEvents+0x28>
				(void)memset(& RecorderDataPtr->eventData[e*4], 0, (size_t) (4 + 4 * nDataEvents));
    21c0:	3201      	adds	r2, #1
    21c2:	0092      	lsls	r2, r2, #2
    21c4:	4663      	mov	r3, ip
    21c6:	18f0      	adds	r0, r6, r3
    21c8:	1820      	adds	r0, r4, r0
    21ca:	2100      	movs	r1, #0
    21cc:	4b12      	ldr	r3, [pc, #72]	; (2218 <prvCheckDataToBeOverwrittenForMultiEntryEvents+0xb0>)
    21ce:	4798      	blx	r3
    21d0:	e7de      	b.n	2190 <prvCheckDataToBeOverwrittenForMultiEntryEvents+0x28>
			if ((e + 1) < RecorderDataPtr->maxEvents)
    21d2:	3301      	adds	r3, #1
    21d4:	69a2      	ldr	r2, [r4, #24]
    21d6:	4293      	cmp	r3, r2
    21d8:	d207      	bcs.n	21ea <prvCheckDataToBeOverwrittenForMultiEntryEvents+0x82>
				(void)memset(& RecorderDataPtr->eventData[e*4], 0, 4 + 4);
    21da:	4b0e      	ldr	r3, [pc, #56]	; (2214 <prvCheckDataToBeOverwrittenForMultiEntryEvents+0xac>)
    21dc:	18f0      	adds	r0, r6, r3
    21de:	1820      	adds	r0, r4, r0
    21e0:	2208      	movs	r2, #8
    21e2:	2100      	movs	r1, #0
    21e4:	4b0c      	ldr	r3, [pc, #48]	; (2218 <prvCheckDataToBeOverwrittenForMultiEntryEvents+0xb0>)
    21e6:	4798      	blx	r3
    21e8:	e7d2      	b.n	2190 <prvCheckDataToBeOverwrittenForMultiEntryEvents+0x28>
				(void)memset(& RecorderDataPtr->eventData[0], 0, 4);
    21ea:	4b0a      	ldr	r3, [pc, #40]	; (2214 <prvCheckDataToBeOverwrittenForMultiEntryEvents+0xac>)
    21ec:	18e0      	adds	r0, r4, r3
    21ee:	2204      	movs	r2, #4
    21f0:	2100      	movs	r1, #0
    21f2:	4b09      	ldr	r3, [pc, #36]	; (2218 <prvCheckDataToBeOverwrittenForMultiEntryEvents+0xb0>)
    21f4:	4798      	blx	r3
				(void)memset(& RecorderDataPtr->eventData[e*4], 0, 4);
    21f6:	4b07      	ldr	r3, [pc, #28]	; (2214 <prvCheckDataToBeOverwrittenForMultiEntryEvents+0xac>)
    21f8:	18f0      	adds	r0, r6, r3
    21fa:	1820      	adds	r0, r4, r0
    21fc:	2204      	movs	r2, #4
    21fe:	2100      	movs	r1, #0
    2200:	4b05      	ldr	r3, [pc, #20]	; (2218 <prvCheckDataToBeOverwrittenForMultiEntryEvents+0xb0>)
    2202:	4798      	blx	r3
    2204:	e7c4      	b.n	2190 <prvCheckDataToBeOverwrittenForMultiEntryEvents+0x28>
    2206:	46c0      	nop			; (mov r8, r8)
    2208:	20000334 	.word	0x20000334
    220c:	00009e2c 	.word	0x00009e2c
    2210:	000020d1 	.word	0x000020d1
    2214:	00000968 	.word	0x00000968
    2218:	00008cc3 	.word	0x00008cc3

0000221c <prvTraceUpdateCounters>:
 * prvTraceUpdateCounters
 *
 * Updates the index of the event buffer.
 ******************************************************************************/
void prvTraceUpdateCounters(void)
{	
    221c:	b510      	push	{r4, lr}
	if (RecorderDataPtr->recorderActive == 0)
    221e:	4b0b      	ldr	r3, [pc, #44]	; (224c <prvTraceUpdateCounters+0x30>)
    2220:	681b      	ldr	r3, [r3, #0]
    2222:	6b1a      	ldr	r2, [r3, #48]	; 0x30
    2224:	2a00      	cmp	r2, #0
    2226:	d010      	beq.n	224a <prvTraceUpdateCounters+0x2e>
	{
		return;
	}
	
	RecorderDataPtr->numEvents++;
    2228:	695a      	ldr	r2, [r3, #20]
    222a:	3201      	adds	r2, #1
    222c:	615a      	str	r2, [r3, #20]

	RecorderDataPtr->nextFreeIndex++;
    222e:	69da      	ldr	r2, [r3, #28]
    2230:	3201      	adds	r2, #1
    2232:	61da      	str	r2, [r3, #28]

	if (RecorderDataPtr->nextFreeIndex >= (TRC_CFG_EVENT_BUFFER_SIZE))
    2234:	2190      	movs	r1, #144	; 0x90
    2236:	31ff      	adds	r1, #255	; 0xff
    2238:	428a      	cmp	r2, r1
    223a:	d903      	bls.n	2244 <prvTraceUpdateCounters+0x28>
	{
#if (TRC_CFG_SNAPSHOT_MODE == TRC_SNAPSHOT_MODE_RING_BUFFER)
		RecorderDataPtr->bufferIsFull = 1;
    223c:	2201      	movs	r2, #1
    223e:	621a      	str	r2, [r3, #32]
		RecorderDataPtr->nextFreeIndex = 0;
    2240:	2200      	movs	r2, #0
    2242:	61da      	str	r2, [r3, #28]
		vTraceStop();
#endif
	}

#if (TRC_CFG_SNAPSHOT_MODE == TRC_SNAPSHOT_MODE_RING_BUFFER)
	prvCheckDataToBeOverwrittenForMultiEntryEvents(1);
    2244:	2001      	movs	r0, #1
    2246:	4b02      	ldr	r3, [pc, #8]	; (2250 <prvTraceUpdateCounters+0x34>)
    2248:	4798      	blx	r3
#endif
}
    224a:	bd10      	pop	{r4, pc}
    224c:	20000334 	.word	0x20000334
    2250:	00002169 	.word	0x00002169

00002254 <prvTraceGetParam>:
{
    2254:	b570      	push	{r4, r5, r6, lr}
    2256:	0004      	movs	r4, r0
    2258:	000d      	movs	r5, r1
	TRACE_ASSERT(param_max == 0xFF || param_max == 0xFFFF,
    225a:	28ff      	cmp	r0, #255	; 0xff
    225c:	d002      	beq.n	2264 <prvTraceGetParam+0x10>
    225e:	4b0d      	ldr	r3, [pc, #52]	; (2294 <prvTraceGetParam+0x40>)
    2260:	4298      	cmp	r0, r3
    2262:	d103      	bne.n	226c <prvTraceGetParam+0x18>
	if (param <= param_max)
    2264:	42ac      	cmp	r4, r5
    2266:	d305      	bcc.n	2274 <prvTraceGetParam+0x20>
}
    2268:	0028      	movs	r0, r5
    226a:	bd70      	pop	{r4, r5, r6, pc}
	TRACE_ASSERT(param_max == 0xFF || param_max == 0xFFFF,
    226c:	480a      	ldr	r0, [pc, #40]	; (2298 <prvTraceGetParam+0x44>)
    226e:	4b0b      	ldr	r3, [pc, #44]	; (229c <prvTraceGetParam+0x48>)
    2270:	4798      	blx	r3
    2272:	e7f9      	b.n	2268 <prvTraceGetParam+0x14>
		xps = (XPSEvent*) prvTraceNextFreeEventBufferSlot();
    2274:	4b0a      	ldr	r3, [pc, #40]	; (22a0 <prvTraceGetParam+0x4c>)
    2276:	4798      	blx	r3
		if (xps != NULL)
    2278:	2800      	cmp	r0, #0
    227a:	d009      	beq.n	2290 <prvTraceGetParam+0x3c>
			xps->type = DIV_XPS;
    227c:	2301      	movs	r3, #1
    227e:	7003      	strb	r3, [r0, #0]
			xps->xps_8 = (uint8_t)((param & (0xFF00 & ~param_max)) >> 8);
    2280:	002b      	movs	r3, r5
    2282:	43a3      	bics	r3, r4
    2284:	0a1a      	lsrs	r2, r3, #8
    2286:	7042      	strb	r2, [r0, #1]
			xps->xps_16 = (uint16_t)((param & (0xFFFF0000 & ~param_max)) >> 16);
    2288:	0c1b      	lsrs	r3, r3, #16
    228a:	8043      	strh	r3, [r0, #2]
			prvTraceUpdateCounters();
    228c:	4b05      	ldr	r3, [pc, #20]	; (22a4 <prvTraceGetParam+0x50>)
    228e:	4798      	blx	r3
		return param & param_max;
    2290:	4025      	ands	r5, r4
    2292:	e7e9      	b.n	2268 <prvTraceGetParam+0x14>
    2294:	0000ffff 	.word	0x0000ffff
    2298:	00009f30 	.word	0x00009f30
    229c:	000020d1 	.word	0x000020d1
    22a0:	00002129 	.word	0x00002129
    22a4:	0000221d 	.word	0x0000221d

000022a8 <uiIndexOfObject>:
{
    22a8:	b510      	push	{r4, lr}
	TRACE_ASSERT(objectclass < TRACE_NCLASSES, 
    22aa:	2908      	cmp	r1, #8
    22ac:	d814      	bhi.n	22d8 <uiIndexOfObject+0x30>
	TRACE_ASSERT(objecthandle > 0 && objecthandle <= RecorderDataPtr->ObjectPropertyTable.NumberOfObjectsPerClass[objectclass], 
    22ae:	2800      	cmp	r0, #0
    22b0:	d017      	beq.n	22e2 <uiIndexOfObject+0x3a>
    22b2:	4b0e      	ldr	r3, [pc, #56]	; (22ec <uiIndexOfObject+0x44>)
    22b4:	681a      	ldr	r2, [r3, #0]
    22b6:	1853      	adds	r3, r2, r1
    22b8:	3364      	adds	r3, #100	; 0x64
    22ba:	781b      	ldrb	r3, [r3, #0]
    22bc:	4283      	cmp	r3, r0
    22be:	d310      	bcc.n	22e2 <uiIndexOfObject+0x3a>
			(RecorderDataPtr->ObjectPropertyTable.TotalPropertyBytesPerClass[objectclass] * (objecthandle-1)));
    22c0:	1853      	adds	r3, r2, r1
    22c2:	337c      	adds	r3, #124	; 0x7c
		return (uint16_t)(RecorderDataPtr->ObjectPropertyTable.StartIndexOfClass[objectclass] + 
    22c4:	781b      	ldrb	r3, [r3, #0]
			(RecorderDataPtr->ObjectPropertyTable.TotalPropertyBytesPerClass[objectclass] * (objecthandle-1)));
    22c6:	3801      	subs	r0, #1
		return (uint16_t)(RecorderDataPtr->ObjectPropertyTable.StartIndexOfClass[objectclass] + 
    22c8:	4358      	muls	r0, r3
    22ca:	3140      	adds	r1, #64	; 0x40
    22cc:	0049      	lsls	r1, r1, #1
    22ce:	1851      	adds	r1, r2, r1
    22d0:	890b      	ldrh	r3, [r1, #8]
    22d2:	18c0      	adds	r0, r0, r3
    22d4:	b280      	uxth	r0, r0
    22d6:	e008      	b.n	22ea <uiIndexOfObject+0x42>
	TRACE_ASSERT(objectclass < TRACE_NCLASSES, 
    22d8:	4805      	ldr	r0, [pc, #20]	; (22f0 <uiIndexOfObject+0x48>)
    22da:	4b06      	ldr	r3, [pc, #24]	; (22f4 <uiIndexOfObject+0x4c>)
    22dc:	4798      	blx	r3
    22de:	2000      	movs	r0, #0
    22e0:	e003      	b.n	22ea <uiIndexOfObject+0x42>
	TRACE_ASSERT(objecthandle > 0 && objecthandle <= RecorderDataPtr->ObjectPropertyTable.NumberOfObjectsPerClass[objectclass], 
    22e2:	4805      	ldr	r0, [pc, #20]	; (22f8 <uiIndexOfObject+0x50>)
    22e4:	4b03      	ldr	r3, [pc, #12]	; (22f4 <uiIndexOfObject+0x4c>)
    22e6:	4798      	blx	r3
    22e8:	2000      	movs	r0, #0
}
    22ea:	bd10      	pop	{r4, pc}
    22ec:	20000334 	.word	0x20000334
    22f0:	0000a5c0 	.word	0x0000a5c0
    22f4:	000020d1 	.word	0x000020d1
    22f8:	0000a600 	.word	0x0000a600

000022fc <prvMarkObjectAsUsed>:
{
    22fc:	b510      	push	{r4, lr}
    22fe:	000b      	movs	r3, r1
	uint16_t idx = uiIndexOfObject(handle, objectclass);
    2300:	0001      	movs	r1, r0
    2302:	0018      	movs	r0, r3
    2304:	4b04      	ldr	r3, [pc, #16]	; (2318 <prvMarkObjectAsUsed+0x1c>)
    2306:	4798      	blx	r3
	RecorderDataPtr->ObjectPropertyTable.objbytes[idx] = 1;
    2308:	4b04      	ldr	r3, [pc, #16]	; (231c <prvMarkObjectAsUsed+0x20>)
    230a:	681b      	ldr	r3, [r3, #0]
    230c:	1818      	adds	r0, r3, r0
    230e:	309c      	adds	r0, #156	; 0x9c
    2310:	2301      	movs	r3, #1
    2312:	7003      	strb	r3, [r0, #0]
}
    2314:	bd10      	pop	{r4, pc}
    2316:	46c0      	nop			; (mov r8, r8)
    2318:	000022a9 	.word	0x000022a9
    231c:	20000334 	.word	0x20000334

00002320 <prvTraceSetPriorityProperty>:
{
    2320:	b570      	push	{r4, r5, r6, lr}
    2322:	0004      	movs	r4, r0
    2324:	0008      	movs	r0, r1
    2326:	0015      	movs	r5, r2
	TRACE_ASSERT(objectclass < TRACE_NCLASSES,
    2328:	2c08      	cmp	r4, #8
    232a:	d813      	bhi.n	2354 <prvTraceSetPriorityProperty+0x34>
	TRACE_ASSERT(id <= RecorderDataPtr->ObjectPropertyTable.NumberOfObjectsPerClass[objectclass],
    232c:	4b0d      	ldr	r3, [pc, #52]	; (2364 <prvTraceSetPriorityProperty+0x44>)
    232e:	681b      	ldr	r3, [r3, #0]
    2330:	191b      	adds	r3, r3, r4
    2332:	3364      	adds	r3, #100	; 0x64
    2334:	781b      	ldrb	r3, [r3, #0]
    2336:	428b      	cmp	r3, r1
    2338:	d310      	bcc.n	235c <prvTraceSetPriorityProperty+0x3c>
	TRACE_PROPERTY_ACTOR_PRIORITY(objectclass, id) = value;
    233a:	0021      	movs	r1, r4
    233c:	4b0a      	ldr	r3, [pc, #40]	; (2368 <prvTraceSetPriorityProperty+0x48>)
    233e:	4798      	blx	r3
    2340:	4b08      	ldr	r3, [pc, #32]	; (2364 <prvTraceSetPriorityProperty+0x44>)
    2342:	681b      	ldr	r3, [r3, #0]
    2344:	191c      	adds	r4, r3, r4
    2346:	3470      	adds	r4, #112	; 0x70
    2348:	7822      	ldrb	r2, [r4, #0]
    234a:	181b      	adds	r3, r3, r0
    234c:	189b      	adds	r3, r3, r2
    234e:	339d      	adds	r3, #157	; 0x9d
    2350:	701d      	strb	r5, [r3, #0]
}
    2352:	bd70      	pop	{r4, r5, r6, pc}
	TRACE_ASSERT(objectclass < TRACE_NCLASSES,
    2354:	4805      	ldr	r0, [pc, #20]	; (236c <prvTraceSetPriorityProperty+0x4c>)
    2356:	4b06      	ldr	r3, [pc, #24]	; (2370 <prvTraceSetPriorityProperty+0x50>)
    2358:	4798      	blx	r3
    235a:	e7fa      	b.n	2352 <prvTraceSetPriorityProperty+0x32>
	TRACE_ASSERT(id <= RecorderDataPtr->ObjectPropertyTable.NumberOfObjectsPerClass[objectclass],
    235c:	4805      	ldr	r0, [pc, #20]	; (2374 <prvTraceSetPriorityProperty+0x54>)
    235e:	4b04      	ldr	r3, [pc, #16]	; (2370 <prvTraceSetPriorityProperty+0x50>)
    2360:	4798      	blx	r3
    2362:	e7f6      	b.n	2352 <prvTraceSetPriorityProperty+0x32>
    2364:	20000334 	.word	0x20000334
    2368:	000022a9 	.word	0x000022a9
    236c:	0000a148 	.word	0x0000a148
    2370:	000020d1 	.word	0x000020d1
    2374:	0000a194 	.word	0x0000a194

00002378 <prvTraceGetPriorityProperty>:
{
    2378:	b510      	push	{r4, lr}
    237a:	0004      	movs	r4, r0
    237c:	0008      	movs	r0, r1
	TRACE_ASSERT(objectclass < TRACE_NCLASSES,
    237e:	2c08      	cmp	r4, #8
    2380:	d813      	bhi.n	23aa <prvTraceGetPriorityProperty+0x32>
	TRACE_ASSERT(id <= RecorderDataPtr->ObjectPropertyTable.NumberOfObjectsPerClass[objectclass],
    2382:	4b0f      	ldr	r3, [pc, #60]	; (23c0 <prvTraceGetPriorityProperty+0x48>)
    2384:	681b      	ldr	r3, [r3, #0]
    2386:	191b      	adds	r3, r3, r4
    2388:	3364      	adds	r3, #100	; 0x64
    238a:	781b      	ldrb	r3, [r3, #0]
    238c:	428b      	cmp	r3, r1
    238e:	d311      	bcc.n	23b4 <prvTraceGetPriorityProperty+0x3c>
	return TRACE_PROPERTY_ACTOR_PRIORITY(objectclass, id);
    2390:	0021      	movs	r1, r4
    2392:	4b0c      	ldr	r3, [pc, #48]	; (23c4 <prvTraceGetPriorityProperty+0x4c>)
    2394:	4798      	blx	r3
    2396:	4b0a      	ldr	r3, [pc, #40]	; (23c0 <prvTraceGetPriorityProperty+0x48>)
    2398:	681b      	ldr	r3, [r3, #0]
    239a:	191c      	adds	r4, r3, r4
    239c:	3470      	adds	r4, #112	; 0x70
    239e:	7822      	ldrb	r2, [r4, #0]
    23a0:	181b      	adds	r3, r3, r0
    23a2:	189b      	adds	r3, r3, r2
    23a4:	339d      	adds	r3, #157	; 0x9d
    23a6:	7818      	ldrb	r0, [r3, #0]
}
    23a8:	bd10      	pop	{r4, pc}
	TRACE_ASSERT(objectclass < TRACE_NCLASSES,
    23aa:	4807      	ldr	r0, [pc, #28]	; (23c8 <prvTraceGetPriorityProperty+0x50>)
    23ac:	4b07      	ldr	r3, [pc, #28]	; (23cc <prvTraceGetPriorityProperty+0x54>)
    23ae:	4798      	blx	r3
    23b0:	2000      	movs	r0, #0
    23b2:	e7f9      	b.n	23a8 <prvTraceGetPriorityProperty+0x30>
	TRACE_ASSERT(id <= RecorderDataPtr->ObjectPropertyTable.NumberOfObjectsPerClass[objectclass],
    23b4:	4806      	ldr	r0, [pc, #24]	; (23d0 <prvTraceGetPriorityProperty+0x58>)
    23b6:	4b05      	ldr	r3, [pc, #20]	; (23cc <prvTraceGetPriorityProperty+0x54>)
    23b8:	4798      	blx	r3
    23ba:	2000      	movs	r0, #0
    23bc:	e7f4      	b.n	23a8 <prvTraceGetPriorityProperty+0x30>
    23be:	46c0      	nop			; (mov r8, r8)
    23c0:	20000334 	.word	0x20000334
    23c4:	000022a9 	.word	0x000022a9
    23c8:	00009f6c 	.word	0x00009f6c
    23cc:	000020d1 	.word	0x000020d1
    23d0:	00009fb8 	.word	0x00009fb8

000023d4 <prvTraceSetObjectState>:
{
    23d4:	b570      	push	{r4, r5, r6, lr}
    23d6:	0004      	movs	r4, r0
    23d8:	0008      	movs	r0, r1
    23da:	0015      	movs	r5, r2
	TRACE_ASSERT(objectclass < TRACE_NCLASSES,
    23dc:	2c08      	cmp	r4, #8
    23de:	d813      	bhi.n	2408 <prvTraceSetObjectState+0x34>
	TRACE_ASSERT(id <= RecorderDataPtr->ObjectPropertyTable.NumberOfObjectsPerClass[objectclass],
    23e0:	4b0d      	ldr	r3, [pc, #52]	; (2418 <prvTraceSetObjectState+0x44>)
    23e2:	681b      	ldr	r3, [r3, #0]
    23e4:	191b      	adds	r3, r3, r4
    23e6:	3364      	adds	r3, #100	; 0x64
    23e8:	781b      	ldrb	r3, [r3, #0]
    23ea:	428b      	cmp	r3, r1
    23ec:	d310      	bcc.n	2410 <prvTraceSetObjectState+0x3c>
	TRACE_PROPERTY_OBJECT_STATE(objectclass, id) = value;
    23ee:	0021      	movs	r1, r4
    23f0:	4b0a      	ldr	r3, [pc, #40]	; (241c <prvTraceSetObjectState+0x48>)
    23f2:	4798      	blx	r3
    23f4:	4b08      	ldr	r3, [pc, #32]	; (2418 <prvTraceSetObjectState+0x44>)
    23f6:	681b      	ldr	r3, [r3, #0]
    23f8:	191c      	adds	r4, r3, r4
    23fa:	3470      	adds	r4, #112	; 0x70
    23fc:	7822      	ldrb	r2, [r4, #0]
    23fe:	181b      	adds	r3, r3, r0
    2400:	189b      	adds	r3, r3, r2
    2402:	339c      	adds	r3, #156	; 0x9c
    2404:	701d      	strb	r5, [r3, #0]
}
    2406:	bd70      	pop	{r4, r5, r6, pc}
	TRACE_ASSERT(objectclass < TRACE_NCLASSES,
    2408:	4805      	ldr	r0, [pc, #20]	; (2420 <prvTraceSetObjectState+0x4c>)
    240a:	4b06      	ldr	r3, [pc, #24]	; (2424 <prvTraceSetObjectState+0x50>)
    240c:	4798      	blx	r3
    240e:	e7fa      	b.n	2406 <prvTraceSetObjectState+0x32>
	TRACE_ASSERT(id <= RecorderDataPtr->ObjectPropertyTable.NumberOfObjectsPerClass[objectclass],
    2410:	4805      	ldr	r0, [pc, #20]	; (2428 <prvTraceSetObjectState+0x54>)
    2412:	4b04      	ldr	r3, [pc, #16]	; (2424 <prvTraceSetObjectState+0x50>)
    2414:	4798      	blx	r3
    2416:	e7f6      	b.n	2406 <prvTraceSetObjectState+0x32>
    2418:	20000334 	.word	0x20000334
    241c:	000022a9 	.word	0x000022a9
    2420:	0000a0c8 	.word	0x0000a0c8
    2424:	000020d1 	.word	0x000020d1
    2428:	0000a10c 	.word	0x0000a10c

0000242c <prvTraceSetTaskInstanceFinished>:
{
    242c:	b510      	push	{r4, lr}
	TRACE_ASSERT(handle <= RecorderDataPtr->ObjectPropertyTable.NumberOfObjectsPerClass[TRACE_CLASS_TASK],
    242e:	4b0b      	ldr	r3, [pc, #44]	; (245c <prvTraceSetTaskInstanceFinished+0x30>)
    2430:	681a      	ldr	r2, [r3, #0]
    2432:	2367      	movs	r3, #103	; 0x67
    2434:	5cd3      	ldrb	r3, [r2, r3]
    2436:	4283      	cmp	r3, r0
    2438:	d30c      	bcc.n	2454 <prvTraceSetTaskInstanceFinished+0x28>
	TRACE_PROPERTY_OBJECT_STATE(TRACE_CLASS_TASK, handle) = 0;
    243a:	2103      	movs	r1, #3
    243c:	4b08      	ldr	r3, [pc, #32]	; (2460 <prvTraceSetTaskInstanceFinished+0x34>)
    243e:	4798      	blx	r3
    2440:	4b06      	ldr	r3, [pc, #24]	; (245c <prvTraceSetTaskInstanceFinished+0x30>)
    2442:	681b      	ldr	r3, [r3, #0]
    2444:	2273      	movs	r2, #115	; 0x73
    2446:	5c9a      	ldrb	r2, [r3, r2]
    2448:	181b      	adds	r3, r3, r0
    244a:	189b      	adds	r3, r3, r2
    244c:	339c      	adds	r3, #156	; 0x9c
    244e:	2200      	movs	r2, #0
    2450:	701a      	strb	r2, [r3, #0]
}
    2452:	bd10      	pop	{r4, pc}
	TRACE_ASSERT(handle <= RecorderDataPtr->ObjectPropertyTable.NumberOfObjectsPerClass[TRACE_CLASS_TASK],
    2454:	4803      	ldr	r0, [pc, #12]	; (2464 <prvTraceSetTaskInstanceFinished+0x38>)
    2456:	4b04      	ldr	r3, [pc, #16]	; (2468 <prvTraceSetTaskInstanceFinished+0x3c>)
    2458:	4798      	blx	r3
    245a:	e7fa      	b.n	2452 <prvTraceSetTaskInstanceFinished+0x26>
    245c:	20000334 	.word	0x20000334
    2460:	000022a9 	.word	0x000022a9
    2464:	0000a1d4 	.word	0x0000a1d4
    2468:	000020d1 	.word	0x000020d1

0000246c <prvTraceGetObjectHandle>:
{
    246c:	b570      	push	{r4, r5, r6, lr}
	TRACE_ASSERT(RecorderDataPtr != NULL, "Recorder not initialized, call vTraceEnable() first!", (traceHandle)0);
    246e:	4b2d      	ldr	r3, [pc, #180]	; (2524 <prvTraceGetObjectHandle+0xb8>)
    2470:	681b      	ldr	r3, [r3, #0]
    2472:	2b00      	cmp	r3, #0
    2474:	d046      	beq.n	2504 <prvTraceGetObjectHandle+0x98>
	TRACE_ASSERT(objectclass < TRACE_NCLASSES, 
    2476:	2808      	cmp	r0, #8
    2478:	d849      	bhi.n	250e <prvTraceGetObjectHandle+0xa2>
 */
__attribute__( ( always_inline ) ) __STATIC_INLINE uint32_t __get_PRIMASK(void)
{
  uint32_t result;

  __ASM volatile ("MRS %0, primask" : "=r" (result) );
    247a:	f3ef 8410 	mrs	r4, PRIMASK

    \param [in]    priMask  Priority Mask
 */
__attribute__( ( always_inline ) ) __STATIC_INLINE void __set_PRIMASK(uint32_t priMask)
{
  __ASM volatile ("MSR primask, %0" : : "r" (priMask) : "memory");
    247e:	2301      	movs	r3, #1
    2480:	f383 8810 	msr	PRIMASK, r3
	trcCRITICAL_SECTION_BEGIN();
    2484:	4a28      	ldr	r2, [pc, #160]	; (2528 <prvTraceGetObjectHandle+0xbc>)
    2486:	6813      	ldr	r3, [r2, #0]
    2488:	3301      	adds	r3, #1
    248a:	6013      	str	r3, [r2, #0]
	indexOfHandle = objectHandleStacks.indexOfNextAvailableHandle[objectclass];
    248c:	4a27      	ldr	r2, [pc, #156]	; (252c <prvTraceGetObjectHandle+0xc0>)
    248e:	0043      	lsls	r3, r0, #1
    2490:	5a9b      	ldrh	r3, [r3, r2]
	if (objectHandleStacks.objectHandles[indexOfHandle] == 0)
    2492:	18d2      	adds	r2, r2, r3
    2494:	3248      	adds	r2, #72	; 0x48
    2496:	7812      	ldrb	r2, [r2, #0]
    2498:	2a00      	cmp	r2, #0
    249a:	d10a      	bne.n	24b2 <prvTraceGetObjectHandle+0x46>
		objectHandleStacks.objectHandles[indexOfHandle] =
    249c:	4923      	ldr	r1, [pc, #140]	; (252c <prvTraceGetObjectHandle+0xc0>)
    249e:	18cd      	adds	r5, r1, r3
    24a0:	3548      	adds	r5, #72	; 0x48
			(traceHandle)(1 + indexOfHandle -
    24a2:	1c5a      	adds	r2, r3, #1
			objectHandleStacks.lowestIndexOfClass[objectclass]);
    24a4:	0006      	movs	r6, r0
    24a6:	3608      	adds	r6, #8
    24a8:	0076      	lsls	r6, r6, #1
    24aa:	1989      	adds	r1, r1, r6
			(traceHandle)(1 + indexOfHandle -
    24ac:	8849      	ldrh	r1, [r1, #2]
    24ae:	1a52      	subs	r2, r2, r1
		objectHandleStacks.objectHandles[indexOfHandle] =
    24b0:	702a      	strb	r2, [r5, #0]
		> objectHandleStacks.highestIndexOfClass[objectclass])
    24b2:	0001      	movs	r1, r0
    24b4:	3110      	adds	r1, #16
    24b6:	0049      	lsls	r1, r1, #1
    24b8:	4a1c      	ldr	r2, [pc, #112]	; (252c <prvTraceGetObjectHandle+0xc0>)
    24ba:	1852      	adds	r2, r2, r1
	if (objectHandleStacks.indexOfNextAvailableHandle[objectclass]
    24bc:	8892      	ldrh	r2, [r2, #4]
    24be:	429a      	cmp	r2, r3
    24c0:	d32a      	bcc.n	2518 <prvTraceGetObjectHandle+0xac>
	handle = objectHandleStacks.objectHandles[indexOfHandle];
    24c2:	491a      	ldr	r1, [pc, #104]	; (252c <prvTraceGetObjectHandle+0xc0>)
    24c4:	18ca      	adds	r2, r1, r3
    24c6:	3248      	adds	r2, #72	; 0x48
    24c8:	7812      	ldrb	r2, [r2, #0]
		objectHandleStacks.indexOfNextAvailableHandle[objectclass]++;
    24ca:	3301      	adds	r3, #1
    24cc:	b29b      	uxth	r3, r3
    24ce:	0045      	lsls	r5, r0, #1
    24d0:	526b      	strh	r3, [r5, r1]
			objectHandleStacks.lowestIndexOfClass[objectclass];
    24d2:	0005      	movs	r5, r0
    24d4:	3508      	adds	r5, #8
    24d6:	006d      	lsls	r5, r5, #1
    24d8:	194d      	adds	r5, r1, r5
    24da:	886d      	ldrh	r5, [r5, #2]
		hndCount = objectHandleStacks.indexOfNextAvailableHandle[objectclass] -
    24dc:	1b5b      	subs	r3, r3, r5
			objectHandleStacks.handleCountWaterMarksOfClass[objectclass])
    24de:	0005      	movs	r5, r0
    24e0:	3518      	adds	r5, #24
    24e2:	006d      	lsls	r5, r5, #1
    24e4:	1949      	adds	r1, r1, r5
    24e6:	88c9      	ldrh	r1, [r1, #6]
		if (hndCount >
    24e8:	428b      	cmp	r3, r1
    24ea:	dd03      	ble.n	24f4 <prvTraceGetObjectHandle+0x88>
			objectHandleStacks.handleCountWaterMarksOfClass[objectclass] =
    24ec:	490f      	ldr	r1, [pc, #60]	; (252c <prvTraceGetObjectHandle+0xc0>)
    24ee:	1948      	adds	r0, r1, r5
				(traceHandle)hndCount;
    24f0:	b2db      	uxtb	r3, r3
			objectHandleStacks.handleCountWaterMarksOfClass[objectclass] =
    24f2:	80c3      	strh	r3, [r0, #6]
	trcCRITICAL_SECTION_END();
    24f4:	490c      	ldr	r1, [pc, #48]	; (2528 <prvTraceGetObjectHandle+0xbc>)
    24f6:	680b      	ldr	r3, [r1, #0]
    24f8:	3b01      	subs	r3, #1
    24fa:	600b      	str	r3, [r1, #0]
    24fc:	f384 8810 	msr	PRIMASK, r4
}
    2500:	0010      	movs	r0, r2
    2502:	bd70      	pop	{r4, r5, r6, pc}
	TRACE_ASSERT(RecorderDataPtr != NULL, "Recorder not initialized, call vTraceEnable() first!", (traceHandle)0);
    2504:	480a      	ldr	r0, [pc, #40]	; (2530 <prvTraceGetObjectHandle+0xc4>)
    2506:	4b0b      	ldr	r3, [pc, #44]	; (2534 <prvTraceGetObjectHandle+0xc8>)
    2508:	4798      	blx	r3
    250a:	2200      	movs	r2, #0
    250c:	e7f8      	b.n	2500 <prvTraceGetObjectHandle+0x94>
	TRACE_ASSERT(objectclass < TRACE_NCLASSES, 
    250e:	480a      	ldr	r0, [pc, #40]	; (2538 <prvTraceGetObjectHandle+0xcc>)
    2510:	4b08      	ldr	r3, [pc, #32]	; (2534 <prvTraceGetObjectHandle+0xc8>)
    2512:	4798      	blx	r3
    2514:	2200      	movs	r2, #0
    2516:	e7f3      	b.n	2500 <prvTraceGetObjectHandle+0x94>
		prvTraceError(pszTraceGetErrorNotEnoughHandles(objectclass));
    2518:	4b08      	ldr	r3, [pc, #32]	; (253c <prvTraceGetObjectHandle+0xd0>)
    251a:	4798      	blx	r3
    251c:	4b05      	ldr	r3, [pc, #20]	; (2534 <prvTraceGetObjectHandle+0xc8>)
    251e:	4798      	blx	r3
		handle = 0;
    2520:	2200      	movs	r2, #0
    2522:	e7e7      	b.n	24f4 <prvTraceGetObjectHandle+0x88>
    2524:	20000334 	.word	0x20000334
    2528:	200003e4 	.word	0x200003e4
    252c:	20000350 	.word	0x20000350
    2530:	0000a6c4 	.word	0x0000a6c4
    2534:	000020d1 	.word	0x000020d1
    2538:	00009ee8 	.word	0x00009ee8
    253c:	00001e51 	.word	0x00001e51

00002540 <prvTraceSetObjectName>:
{
    2540:	b570      	push	{r4, r5, r6, lr}
    2542:	0004      	movs	r4, r0
    2544:	0008      	movs	r0, r1
    2546:	1e15      	subs	r5, r2, #0
	TRACE_ASSERT(name != NULL, "prvTraceSetObjectName: name == NULL", TRC_UNUSED);
    2548:	d012      	beq.n	2570 <prvTraceSetObjectName+0x30>
	if (objectclass >= TRACE_NCLASSES)
    254a:	2c08      	cmp	r4, #8
    254c:	d814      	bhi.n	2578 <prvTraceSetObjectName+0x38>
	if (handle == 0)
    254e:	2900      	cmp	r1, #0
    2550:	d016      	beq.n	2580 <prvTraceSetObjectName+0x40>
	if (handle > RecorderDataPtr->ObjectPropertyTable.NumberOfObjectsPerClass[objectclass])
    2552:	4b16      	ldr	r3, [pc, #88]	; (25ac <prvTraceSetObjectName+0x6c>)
    2554:	681b      	ldr	r3, [r3, #0]
    2556:	191b      	adds	r3, r3, r4
    2558:	3364      	adds	r3, #100	; 0x64
    255a:	781b      	ldrb	r3, [r3, #0]
    255c:	428b      	cmp	r3, r1
    255e:	d313      	bcc.n	2588 <prvTraceSetObjectName+0x48>
		idx = uiIndexOfObject(handle, objectclass);
    2560:	0021      	movs	r1, r4
    2562:	4b13      	ldr	r3, [pc, #76]	; (25b0 <prvTraceSetObjectName+0x70>)
    2564:	4798      	blx	r3
		if (traceErrorMessage == NULL)
    2566:	4b13      	ldr	r3, [pc, #76]	; (25b4 <prvTraceSetObjectName+0x74>)
    2568:	681b      	ldr	r3, [r3, #0]
    256a:	2b00      	cmp	r3, #0
    256c:	d012      	beq.n	2594 <prvTraceSetObjectName+0x54>
}
    256e:	bd70      	pop	{r4, r5, r6, pc}
	TRACE_ASSERT(name != NULL, "prvTraceSetObjectName: name == NULL", TRC_UNUSED);
    2570:	4811      	ldr	r0, [pc, #68]	; (25b8 <prvTraceSetObjectName+0x78>)
    2572:	4b12      	ldr	r3, [pc, #72]	; (25bc <prvTraceSetObjectName+0x7c>)
    2574:	4798      	blx	r3
    2576:	e7fa      	b.n	256e <prvTraceSetObjectName+0x2e>
		prvTraceError("Illegal object class in prvTraceSetObjectName");
    2578:	4811      	ldr	r0, [pc, #68]	; (25c0 <prvTraceSetObjectName+0x80>)
    257a:	4b10      	ldr	r3, [pc, #64]	; (25bc <prvTraceSetObjectName+0x7c>)
    257c:	4798      	blx	r3
		return;
    257e:	e7f6      	b.n	256e <prvTraceSetObjectName+0x2e>
		prvTraceError("Illegal handle (0) in prvTraceSetObjectName.");
    2580:	4810      	ldr	r0, [pc, #64]	; (25c4 <prvTraceSetObjectName+0x84>)
    2582:	4b0e      	ldr	r3, [pc, #56]	; (25bc <prvTraceSetObjectName+0x7c>)
    2584:	4798      	blx	r3
		return;
    2586:	e7f2      	b.n	256e <prvTraceSetObjectName+0x2e>
		prvTraceError(pszTraceGetErrorNotEnoughHandles(objectclass));
    2588:	0020      	movs	r0, r4
    258a:	4b0f      	ldr	r3, [pc, #60]	; (25c8 <prvTraceSetObjectName+0x88>)
    258c:	4798      	blx	r3
    258e:	4b0b      	ldr	r3, [pc, #44]	; (25bc <prvTraceSetObjectName+0x7c>)
    2590:	4798      	blx	r3
    2592:	e7ec      	b.n	256e <prvTraceSetObjectName+0x2e>
			prvStrncpy((char*)&(RecorderDataPtr->ObjectPropertyTable.objbytes[idx]),
    2594:	4b05      	ldr	r3, [pc, #20]	; (25ac <prvTraceSetObjectName+0x6c>)
    2596:	681b      	ldr	r3, [r3, #0]
				RecorderDataPtr->ObjectPropertyTable.NameLengthPerClass[ objectclass ]);
    2598:	191c      	adds	r4, r3, r4
    259a:	3470      	adds	r4, #112	; 0x70
			prvStrncpy((char*)&(RecorderDataPtr->ObjectPropertyTable.objbytes[idx]),
    259c:	7822      	ldrb	r2, [r4, #0]
    259e:	309c      	adds	r0, #156	; 0x9c
    25a0:	1818      	adds	r0, r3, r0
    25a2:	0029      	movs	r1, r5
    25a4:	4b09      	ldr	r3, [pc, #36]	; (25cc <prvTraceSetObjectName+0x8c>)
    25a6:	4798      	blx	r3
    25a8:	e7e1      	b.n	256e <prvTraceSetObjectName+0x2e>
    25aa:	46c0      	nop			; (mov r8, r8)
    25ac:	20000334 	.word	0x20000334
    25b0:	000022a9 	.word	0x000022a9
    25b4:	200003ec 	.word	0x200003ec
    25b8:	0000a034 	.word	0x0000a034
    25bc:	000020d1 	.word	0x000020d1
    25c0:	0000a068 	.word	0x0000a068
    25c4:	0000a098 	.word	0x0000a098
    25c8:	00001e51 	.word	0x00001e51
    25cc:	00001eb1 	.word	0x00001eb1

000025d0 <prvTracePortGetTimeStamp>:
 * or the trace recorder library. Typically you should not need to change
 * the code of prvTracePortGetTimeStamp if using the HWTC macros.
 *
 ******************************************************************************/
void prvTracePortGetTimeStamp(uint32_t *pTimestamp)
{
    25d0:	b570      	push	{r4, r5, r6, lr}
	static uint32_t last_hwtc_rest = 0;
	uint32_t diff = 0;
	uint32_t diff_scaled = 0;
#endif /*TRC_HWTC_TYPE == TRC_OS_TIMER_INCR || TRC_HWTC_TYPE == TRC_OS_TIMER_DECR*/

	if (trace_disable_timestamp == 1)
    25d2:	4b1e      	ldr	r3, [pc, #120]	; (264c <prvTracePortGetTimeStamp+0x7c>)
    25d4:	681b      	ldr	r3, [r3, #0]
    25d6:	2b01      	cmp	r3, #1
    25d8:	d02b      	beq.n	2632 <prvTracePortGetTimeStamp+0x62>
#if (TRC_HWTC_TYPE == TRC_OS_TIMER_INCR || TRC_HWTC_TYPE == TRC_FREE_RUNNING_32BIT_INCR)
	/* Get the increasing tick count */
	hwtc_count = (TRC_HWTC_COUNT);
#elif (TRC_HWTC_TYPE == TRC_OS_TIMER_DECR || TRC_HWTC_TYPE == TRC_FREE_RUNNING_32BIT_DECR)
	/* Convert decreasing tick count into increasing tick count */
	hwtc_count = (TRC_HWTC_PERIOD) - (TRC_HWTC_COUNT);
    25da:	4b1d      	ldr	r3, [pc, #116]	; (2650 <prvTracePortGetTimeStamp+0x80>)
    25dc:	6819      	ldr	r1, [r3, #0]
    25de:	4b1d      	ldr	r3, [pc, #116]	; (2654 <prvTracePortGetTimeStamp+0x84>)
    25e0:	681b      	ldr	r3, [r3, #0]
    25e2:	3101      	adds	r1, #1
    25e4:	1ac9      	subs	r1, r1, r3
	}
#endif

#if (TRC_HWTC_TYPE == TRC_OS_TIMER_INCR || TRC_HWTC_TYPE == TRC_OS_TIMER_DECR)
	/* Timestamping is based on a timer that wraps at TRC_HWTC_PERIOD */
	if (last_traceTickCount - uiTraceTickCount - 1 < 0x80000000)
    25e6:	4b1c      	ldr	r3, [pc, #112]	; (2658 <prvTracePortGetTimeStamp+0x88>)
    25e8:	681b      	ldr	r3, [r3, #0]
    25ea:	4a1c      	ldr	r2, [pc, #112]	; (265c <prvTracePortGetTimeStamp+0x8c>)
    25ec:	6814      	ldr	r4, [r2, #0]
    25ee:	43e2      	mvns	r2, r4
    25f0:	42da      	cmn	r2, r3
    25f2:	d424      	bmi.n	263e <prvTracePortGetTimeStamp+0x6e>
		traceTickCount = uiTraceTickCount;
	}

	/* Check for overflow. May occur if the update of uiTraceTickCount has been
	delayed due to disabled interrupts. */
	if (traceTickCount == last_traceTickCount && hwtc_count < last_hwtc_count)
    25f4:	4a1a      	ldr	r2, [pc, #104]	; (2660 <prvTracePortGetTimeStamp+0x90>)
    25f6:	6814      	ldr	r4, [r2, #0]
	{
		/* A trace tick has occurred but not been executed by the kernel, so we compensate manually. */
		traceTickCount++;
    25f8:	42a1      	cmp	r1, r4
    25fa:	41a4      	sbcs	r4, r4
    25fc:	4264      	negs	r4, r4
    25fe:	191c      	adds	r4, r3, r4
	}

	/* Check if the return address is OK, then we perform the calculation. */
	if (pTimestamp)
    2600:	2800      	cmp	r0, #0
    2602:	d01f      	beq.n	2644 <prvTracePortGetTimeStamp+0x74>
	{
		/* Get timestamp from trace ticks. Scale down the period to avoid unwanted overflows. */
		last_timestamp = traceTickCount * ((TRC_HWTC_PERIOD) / (TRC_HWTC_DIVISOR));
    2604:	4d12      	ldr	r5, [pc, #72]	; (2650 <prvTracePortGetTimeStamp+0x80>)
    2606:	682b      	ldr	r3, [r5, #0]
    2608:	3301      	adds	r3, #1
    260a:	089b      	lsrs	r3, r3, #2
    260c:	4363      	muls	r3, r4
    260e:	001a      	movs	r2, r3
    2610:	4e14      	ldr	r6, [pc, #80]	; (2664 <prvTracePortGetTimeStamp+0x94>)
    2612:	6033      	str	r3, [r6, #0]
		/* Increase timestamp by (hwtc_count + "lost hardware ticks from scaling down period") / TRC_HWTC_DIVISOR. */
		last_timestamp += (hwtc_count + traceTickCount * ((TRC_HWTC_PERIOD) % (TRC_HWTC_DIVISOR))) / (TRC_HWTC_DIVISOR);
    2614:	682d      	ldr	r5, [r5, #0]
    2616:	3501      	adds	r5, #1
    2618:	2303      	movs	r3, #3
    261a:	402b      	ands	r3, r5
    261c:	4363      	muls	r3, r4
    261e:	185b      	adds	r3, r3, r1
    2620:	089b      	lsrs	r3, r3, #2
    2622:	189b      	adds	r3, r3, r2
    2624:	6033      	str	r3, [r6, #0]
	}
	/* Store the previous value */
	last_traceTickCount = traceTickCount;
    2626:	4a0c      	ldr	r2, [pc, #48]	; (2658 <prvTracePortGetTimeStamp+0x88>)
    2628:	6014      	str	r4, [r2, #0]
	last_timestamp += diff_scaled;
#endif /*(TRC_HWTC_TYPE == TRC_OS_TIMER_INCR || TRC_HWTC_TYPE == TRC_OS_TIMER_DECR)*/

	/* Is anyone interested in the results? */
	if (pTimestamp)
		*pTimestamp = last_timestamp;
    262a:	6003      	str	r3, [r0, #0]

	/* Store the previous value */
	last_hwtc_count = hwtc_count;
    262c:	4b0c      	ldr	r3, [pc, #48]	; (2660 <prvTracePortGetTimeStamp+0x90>)
    262e:	6019      	str	r1, [r3, #0]
}
    2630:	bd70      	pop	{r4, r5, r6, pc}
		if (pTimestamp)
    2632:	2800      	cmp	r0, #0
    2634:	d0fc      	beq.n	2630 <prvTracePortGetTimeStamp+0x60>
			*pTimestamp = last_timestamp;
    2636:	4b0b      	ldr	r3, [pc, #44]	; (2664 <prvTracePortGetTimeStamp+0x94>)
    2638:	681b      	ldr	r3, [r3, #0]
    263a:	6003      	str	r3, [r0, #0]
    263c:	e7f8      	b.n	2630 <prvTracePortGetTimeStamp+0x60>
	if (traceTickCount == last_traceTickCount && hwtc_count < last_hwtc_count)
    263e:	42a3      	cmp	r3, r4
    2640:	d1de      	bne.n	2600 <prvTracePortGetTimeStamp+0x30>
    2642:	e7d7      	b.n	25f4 <prvTracePortGetTimeStamp+0x24>
	last_traceTickCount = traceTickCount;
    2644:	4b04      	ldr	r3, [pc, #16]	; (2658 <prvTracePortGetTimeStamp+0x88>)
    2646:	601c      	str	r4, [r3, #0]
    2648:	e7f0      	b.n	262c <prvTracePortGetTimeStamp+0x5c>
    264a:	46c0      	nop			; (mov r8, r8)
    264c:	200003f0 	.word	0x200003f0
    2650:	e000e014 	.word	0xe000e014
    2654:	e000e018 	.word	0xe000e018
    2658:	2000034c 	.word	0x2000034c
    265c:	200003f8 	.word	0x200003f8
    2660:	20000344 	.word	0x20000344
    2664:	20000348 	.word	0x20000348

00002668 <prvTraceGetDTS>:
{
    2668:	b5f0      	push	{r4, r5, r6, r7, lr}
    266a:	b083      	sub	sp, #12
    266c:	0005      	movs	r5, r0
	uint32_t timestamp = 0;
    266e:	2300      	movs	r3, #0
    2670:	9301      	str	r3, [sp, #4]
	TRACE_ASSERT(param_maxDTS == 0xFF || param_maxDTS == 0xFFFF, "prvTraceGetDTS: Invalid value for param_maxDTS", 0);
    2672:	28ff      	cmp	r0, #255	; 0xff
    2674:	d002      	beq.n	267c <prvTraceGetDTS+0x14>
    2676:	4b39      	ldr	r3, [pc, #228]	; (275c <prvTraceGetDTS+0xf4>)
    2678:	4298      	cmp	r0, r3
    267a:	d135      	bne.n	26e8 <prvTraceGetDTS+0x80>
	if (RecorderDataPtr->frequency == 0)
    267c:	4b38      	ldr	r3, [pc, #224]	; (2760 <prvTraceGetDTS+0xf8>)
    267e:	681c      	ldr	r4, [r3, #0]
    2680:	6a63      	ldr	r3, [r4, #36]	; 0x24
    2682:	2b00      	cmp	r3, #0
    2684:	d105      	bne.n	2692 <prvTraceGetDTS+0x2a>
		if (timestampFrequency != 0)
    2686:	4b37      	ldr	r3, [pc, #220]	; (2764 <prvTraceGetDTS+0xfc>)
    2688:	681b      	ldr	r3, [r3, #0]
    268a:	2b00      	cmp	r3, #0
    268c:	d031      	beq.n	26f2 <prvTraceGetDTS+0x8a>
			RecorderDataPtr->frequency = timestampFrequency / (TRC_HWTC_DIVISOR);
    268e:	089b      	lsrs	r3, r3, #2
    2690:	6263      	str	r3, [r4, #36]	; 0x24
	prvTracePortGetTimeStamp(&timestamp);	
    2692:	a801      	add	r0, sp, #4
    2694:	4b34      	ldr	r3, [pc, #208]	; (2768 <prvTraceGetDTS+0x100>)
    2696:	4798      	blx	r3
	dts = timestamp - old_timestamp;
    2698:	9b01      	ldr	r3, [sp, #4]
    269a:	4a34      	ldr	r2, [pc, #208]	; (276c <prvTraceGetDTS+0x104>)
    269c:	6811      	ldr	r1, [r2, #0]
    269e:	1a5c      	subs	r4, r3, r1
	old_timestamp = timestamp;
    26a0:	6013      	str	r3, [r2, #0]
	if (RecorderDataPtr->frequency > 0)
    26a2:	4a2f      	ldr	r2, [pc, #188]	; (2760 <prvTraceGetDTS+0xf8>)
    26a4:	6816      	ldr	r6, [r2, #0]
    26a6:	6a77      	ldr	r7, [r6, #36]	; 0x24
    26a8:	2f00      	cmp	r7, #0
    26aa:	d032      	beq.n	2712 <prvTraceGetDTS+0xaa>
		if (dts > RecorderDataPtr->frequency)
    26ac:	42bc      	cmp	r4, r7
    26ae:	d92c      	bls.n	270a <prvTraceGetDTS+0xa2>
			RecorderDataPtr->absTimeLastEventSecond += dts / RecorderDataPtr->frequency;
    26b0:	0039      	movs	r1, r7
    26b2:	0020      	movs	r0, r4
    26b4:	4b2e      	ldr	r3, [pc, #184]	; (2770 <prvTraceGetDTS+0x108>)
    26b6:	4798      	blx	r3
    26b8:	6af3      	ldr	r3, [r6, #44]	; 0x2c
    26ba:	469c      	mov	ip, r3
    26bc:	4460      	add	r0, ip
    26be:	62f0      	str	r0, [r6, #44]	; 0x2c
			RecorderDataPtr->absTimeLastEvent += dts % RecorderDataPtr->frequency;
    26c0:	0039      	movs	r1, r7
    26c2:	0020      	movs	r0, r4
    26c4:	4b2b      	ldr	r3, [pc, #172]	; (2774 <prvTraceGetDTS+0x10c>)
    26c6:	4798      	blx	r3
    26c8:	6ab3      	ldr	r3, [r6, #40]	; 0x28
    26ca:	469c      	mov	ip, r3
    26cc:	4461      	add	r1, ip
    26ce:	62b1      	str	r1, [r6, #40]	; 0x28
		if (RecorderDataPtr->absTimeLastEvent >= RecorderDataPtr->frequency)
    26d0:	4b23      	ldr	r3, [pc, #140]	; (2760 <prvTraceGetDTS+0xf8>)
    26d2:	681b      	ldr	r3, [r3, #0]
    26d4:	6a9a      	ldr	r2, [r3, #40]	; 0x28
    26d6:	6a59      	ldr	r1, [r3, #36]	; 0x24
    26d8:	428a      	cmp	r2, r1
    26da:	d31b      	bcc.n	2714 <prvTraceGetDTS+0xac>
			RecorderDataPtr->absTimeLastEventSecond++;
    26dc:	6ad8      	ldr	r0, [r3, #44]	; 0x2c
    26de:	3001      	adds	r0, #1
    26e0:	62d8      	str	r0, [r3, #44]	; 0x2c
			RecorderDataPtr->absTimeLastEvent -= RecorderDataPtr->frequency;
    26e2:	1a52      	subs	r2, r2, r1
    26e4:	629a      	str	r2, [r3, #40]	; 0x28
    26e6:	e015      	b.n	2714 <prvTraceGetDTS+0xac>
	TRACE_ASSERT(param_maxDTS == 0xFF || param_maxDTS == 0xFFFF, "prvTraceGetDTS: Invalid value for param_maxDTS", 0);
    26e8:	4823      	ldr	r0, [pc, #140]	; (2778 <prvTraceGetDTS+0x110>)
    26ea:	4b24      	ldr	r3, [pc, #144]	; (277c <prvTraceGetDTS+0x114>)
    26ec:	4798      	blx	r3
    26ee:	2000      	movs	r0, #0
    26f0:	e014      	b.n	271c <prvTraceGetDTS+0xb4>
		else if (init_hwtc_count != (TRC_HWTC_COUNT))
    26f2:	4b23      	ldr	r3, [pc, #140]	; (2780 <prvTraceGetDTS+0x118>)
    26f4:	681a      	ldr	r2, [r3, #0]
    26f6:	4b23      	ldr	r3, [pc, #140]	; (2784 <prvTraceGetDTS+0x11c>)
    26f8:	681b      	ldr	r3, [r3, #0]
    26fa:	429a      	cmp	r2, r3
    26fc:	d0c9      	beq.n	2692 <prvTraceGetDTS+0x2a>
			RecorderDataPtr->frequency = (TRC_HWTC_FREQ_HZ) / (TRC_HWTC_DIVISOR);		
    26fe:	2000      	movs	r0, #0
    2700:	4b21      	ldr	r3, [pc, #132]	; (2788 <prvTraceGetDTS+0x120>)
    2702:	4798      	blx	r3
    2704:	0880      	lsrs	r0, r0, #2
    2706:	6260      	str	r0, [r4, #36]	; 0x24
    2708:	e7c3      	b.n	2692 <prvTraceGetDTS+0x2a>
			RecorderDataPtr->absTimeLastEvent += dts;
    270a:	6ab3      	ldr	r3, [r6, #40]	; 0x28
    270c:	191b      	adds	r3, r3, r4
    270e:	62b3      	str	r3, [r6, #40]	; 0x28
    2710:	e7de      	b.n	26d0 <prvTraceGetDTS+0x68>
		RecorderDataPtr->absTimeLastEvent = timestamp;
    2712:	62b3      	str	r3, [r6, #40]	; 0x28
	if (dts > param_maxDTS)
    2714:	42ac      	cmp	r4, r5
    2716:	d803      	bhi.n	2720 <prvTraceGetDTS+0xb8>
	return (uint16_t)dts & param_maxDTS;
    2718:	0020      	movs	r0, r4
    271a:	4028      	ands	r0, r5
}
    271c:	b003      	add	sp, #12
    271e:	bdf0      	pop	{r4, r5, r6, r7, pc}
		xts = (XTSEvent*) prvTraceNextFreeEventBufferSlot();
    2720:	4b1a      	ldr	r3, [pc, #104]	; (278c <prvTraceGetDTS+0x124>)
    2722:	4798      	blx	r3
		if (xts != NULL)
    2724:	2800      	cmp	r0, #0
    2726:	d0f7      	beq.n	2718 <prvTraceGetDTS+0xb0>
			if (param_maxDTS == 0xFFFF)
    2728:	4b0c      	ldr	r3, [pc, #48]	; (275c <prvTraceGetDTS+0xf4>)
    272a:	429d      	cmp	r5, r3
    272c:	d007      	beq.n	273e <prvTraceGetDTS+0xd6>
			else if (param_maxDTS == 0xFF)
    272e:	2dff      	cmp	r5, #255	; 0xff
    2730:	d00c      	beq.n	274c <prvTraceGetDTS+0xe4>
				prvTraceError("Bad param_maxDTS in prvTraceGetDTS");
    2732:	4817      	ldr	r0, [pc, #92]	; (2790 <prvTraceGetDTS+0x128>)
    2734:	4b11      	ldr	r3, [pc, #68]	; (277c <prvTraceGetDTS+0x114>)
    2736:	4798      	blx	r3
			prvTraceUpdateCounters();
    2738:	4b16      	ldr	r3, [pc, #88]	; (2794 <prvTraceGetDTS+0x12c>)
    273a:	4798      	blx	r3
    273c:	e7ec      	b.n	2718 <prvTraceGetDTS+0xb0>
				xts->type = XTS16;
    273e:	23a9      	movs	r3, #169	; 0xa9
    2740:	7003      	strb	r3, [r0, #0]
				xts->xts_16 = (uint16_t)((dts / 0x10000) & 0xFFFF);
    2742:	0c23      	lsrs	r3, r4, #16
    2744:	8043      	strh	r3, [r0, #2]
				xts->xts_8 = 0;
    2746:	2300      	movs	r3, #0
    2748:	7043      	strb	r3, [r0, #1]
    274a:	e7f5      	b.n	2738 <prvTraceGetDTS+0xd0>
				xts->type = XTS8;
    274c:	23a8      	movs	r3, #168	; 0xa8
    274e:	7003      	strb	r3, [r0, #0]
				xts->xts_16 = (uint16_t)((dts / 0x100) & 0xFFFF);
    2750:	0a23      	lsrs	r3, r4, #8
    2752:	8043      	strh	r3, [r0, #2]
				xts->xts_8 = (uint8_t)((dts / 0x1000000) & 0xFF);
    2754:	0e23      	lsrs	r3, r4, #24
    2756:	7043      	strb	r3, [r0, #1]
    2758:	e7ee      	b.n	2738 <prvTraceGetDTS+0xd0>
    275a:	46c0      	nop			; (mov r8, r8)
    275c:	0000ffff 	.word	0x0000ffff
    2760:	20000334 	.word	0x20000334
    2764:	200003e8 	.word	0x200003e8
    2768:	000025d1 	.word	0x000025d1
    276c:	200003e0 	.word	0x200003e0
    2770:	00006f01 	.word	0x00006f01
    2774:	0000700d 	.word	0x0000700d
    2778:	00009e84 	.word	0x00009e84
    277c:	000020d1 	.word	0x000020d1
    2780:	e000e018 	.word	0xe000e018
    2784:	200048cc 	.word	0x200048cc
    2788:	00006885 	.word	0x00006885
    278c:	00002129 	.word	0x00002129
    2790:	00009ec4 	.word	0x00009ec4
    2794:	0000221d 	.word	0x0000221d

00002798 <prvTraceStoreTaskReady>:
{
    2798:	b570      	push	{r4, r5, r6, lr}
    279a:	1e04      	subs	r4, r0, #0
	if (handle == 0)
    279c:	d01d      	beq.n	27da <prvTraceStoreTaskReady+0x42>
	if (! readyEventsEnabled)
    279e:	4b1b      	ldr	r3, [pc, #108]	; (280c <prvTraceStoreTaskReady+0x74>)
    27a0:	681b      	ldr	r3, [r3, #0]
    27a2:	2b00      	cmp	r3, #0
    27a4:	d019      	beq.n	27da <prvTraceStoreTaskReady+0x42>
	TRACE_ASSERT(handle <= (TRC_CFG_NTASK), "prvTraceStoreTaskReady: Invalid value for handle", TRC_UNUSED);
    27a6:	280f      	cmp	r0, #15
    27a8:	d818      	bhi.n	27dc <prvTraceStoreTaskReady+0x44>
	if (recorder_busy)
    27aa:	4b19      	ldr	r3, [pc, #100]	; (2810 <prvTraceStoreTaskReady+0x78>)
    27ac:	681b      	ldr	r3, [r3, #0]
    27ae:	2b00      	cmp	r3, #0
    27b0:	d118      	bne.n	27e4 <prvTraceStoreTaskReady+0x4c>
  __ASM volatile ("MRS %0, primask" : "=r" (result) );
    27b2:	f3ef 8510 	mrs	r5, PRIMASK
  __ASM volatile ("MSR primask, %0" : : "r" (priMask) : "memory");
    27b6:	2301      	movs	r3, #1
    27b8:	f383 8810 	msr	PRIMASK, r3
	trcCRITICAL_SECTION_BEGIN();
    27bc:	4a14      	ldr	r2, [pc, #80]	; (2810 <prvTraceStoreTaskReady+0x78>)
    27be:	6813      	ldr	r3, [r2, #0]
    27c0:	3301      	adds	r3, #1
    27c2:	6013      	str	r3, [r2, #0]
	if (RecorderDataPtr->recorderActive) /* Need to repeat this check! */
    27c4:	4b13      	ldr	r3, [pc, #76]	; (2814 <prvTraceStoreTaskReady+0x7c>)
    27c6:	681b      	ldr	r3, [r3, #0]
    27c8:	6b1b      	ldr	r3, [r3, #48]	; 0x30
    27ca:	2b00      	cmp	r3, #0
    27cc:	d10e      	bne.n	27ec <prvTraceStoreTaskReady+0x54>
	trcCRITICAL_SECTION_END();
    27ce:	4a10      	ldr	r2, [pc, #64]	; (2810 <prvTraceStoreTaskReady+0x78>)
    27d0:	6813      	ldr	r3, [r2, #0]
    27d2:	3b01      	subs	r3, #1
    27d4:	6013      	str	r3, [r2, #0]
    27d6:	f385 8810 	msr	PRIMASK, r5
}
    27da:	bd70      	pop	{r4, r5, r6, pc}
	TRACE_ASSERT(handle <= (TRC_CFG_NTASK), "prvTraceStoreTaskReady: Invalid value for handle", TRC_UNUSED);
    27dc:	480e      	ldr	r0, [pc, #56]	; (2818 <prvTraceStoreTaskReady+0x80>)
    27de:	4b0f      	ldr	r3, [pc, #60]	; (281c <prvTraceStoreTaskReady+0x84>)
    27e0:	4798      	blx	r3
    27e2:	e7fa      	b.n	27da <prvTraceStoreTaskReady+0x42>
		prvTraceError("Recorder busy - high priority ISR using syscall? (1)");
    27e4:	480e      	ldr	r0, [pc, #56]	; (2820 <prvTraceStoreTaskReady+0x88>)
    27e6:	4b0d      	ldr	r3, [pc, #52]	; (281c <prvTraceStoreTaskReady+0x84>)
    27e8:	4798      	blx	r3
		return;
    27ea:	e7f6      	b.n	27da <prvTraceStoreTaskReady+0x42>
		dts3 = (uint16_t)prvTraceGetDTS(0xFFFF);
    27ec:	480d      	ldr	r0, [pc, #52]	; (2824 <prvTraceStoreTaskReady+0x8c>)
    27ee:	4b0e      	ldr	r3, [pc, #56]	; (2828 <prvTraceStoreTaskReady+0x90>)
    27f0:	4798      	blx	r3
    27f2:	0006      	movs	r6, r0
		tr = (TREvent*)prvTraceNextFreeEventBufferSlot();
    27f4:	4b0d      	ldr	r3, [pc, #52]	; (282c <prvTraceStoreTaskReady+0x94>)
    27f6:	4798      	blx	r3
		if (tr != NULL)
    27f8:	2800      	cmp	r0, #0
    27fa:	d0e8      	beq.n	27ce <prvTraceStoreTaskReady+0x36>
			tr->type = DIV_TASK_READY;
    27fc:	2302      	movs	r3, #2
    27fe:	7003      	strb	r3, [r0, #0]
			tr->dts = dts3;
    2800:	8046      	strh	r6, [r0, #2]
			tr->objHandle = hnd8;
    2802:	7044      	strb	r4, [r0, #1]
			prvTraceUpdateCounters();
    2804:	4b0a      	ldr	r3, [pc, #40]	; (2830 <prvTraceStoreTaskReady+0x98>)
    2806:	4798      	blx	r3
    2808:	e7e1      	b.n	27ce <prvTraceStoreTaskReady+0x36>
    280a:	46c0      	nop			; (mov r8, r8)
    280c:	20000024 	.word	0x20000024
    2810:	200003e4 	.word	0x200003e4
    2814:	20000334 	.word	0x20000334
    2818:	0000a4c4 	.word	0x0000a4c4
    281c:	000020d1 	.word	0x000020d1
    2820:	0000a504 	.word	0x0000a504
    2824:	0000ffff 	.word	0x0000ffff
    2828:	00002669 	.word	0x00002669
    282c:	00002129 	.word	0x00002129
    2830:	0000221d 	.word	0x0000221d

00002834 <vTraceStoreMemMangEvent>:
{
    2834:	b5f0      	push	{r4, r5, r6, r7, lr}
    2836:	b083      	sub	sp, #12
    2838:	9000      	str	r0, [sp, #0]
    283a:	000c      	movs	r4, r1
	if (RecorderDataPtr == NULL)
    283c:	4b28      	ldr	r3, [pc, #160]	; (28e0 <vTraceStoreMemMangEvent+0xac>)
    283e:	681b      	ldr	r3, [r3, #0]
    2840:	2b00      	cmp	r3, #0
    2842:	d01d      	beq.n	2880 <vTraceStoreMemMangEvent+0x4c>
		size = (uint32_t)(- signed_size);
    2844:	17d3      	asrs	r3, r2, #31
    2846:	18d6      	adds	r6, r2, r3
    2848:	405e      	eors	r6, r3
  __ASM volatile ("MRS %0, primask" : "=r" (result) );
    284a:	f3ef 8510 	mrs	r5, PRIMASK
  __ASM volatile ("MSR primask, %0" : : "r" (priMask) : "memory");
    284e:	2301      	movs	r3, #1
    2850:	f383 8810 	msr	PRIMASK, r3
	trcCRITICAL_SECTION_BEGIN();
    2854:	4923      	ldr	r1, [pc, #140]	; (28e4 <vTraceStoreMemMangEvent+0xb0>)
    2856:	680b      	ldr	r3, [r1, #0]
    2858:	3301      	adds	r3, #1
    285a:	600b      	str	r3, [r1, #0]
	if (address != 0)
    285c:	2c00      	cmp	r4, #0
    285e:	d004      	beq.n	286a <vTraceStoreMemMangEvent+0x36>
		heapMemUsage += (uint32_t)signed_size;
    2860:	4b21      	ldr	r3, [pc, #132]	; (28e8 <vTraceStoreMemMangEvent+0xb4>)
    2862:	6819      	ldr	r1, [r3, #0]
    2864:	468c      	mov	ip, r1
    2866:	4462      	add	r2, ip
    2868:	601a      	str	r2, [r3, #0]
	if (RecorderDataPtr->recorderActive)
    286a:	4b1d      	ldr	r3, [pc, #116]	; (28e0 <vTraceStoreMemMangEvent+0xac>)
    286c:	681b      	ldr	r3, [r3, #0]
    286e:	6b1b      	ldr	r3, [r3, #48]	; 0x30
    2870:	2b00      	cmp	r3, #0
    2872:	d107      	bne.n	2884 <vTraceStoreMemMangEvent+0x50>
	trcCRITICAL_SECTION_END();
    2874:	4a1b      	ldr	r2, [pc, #108]	; (28e4 <vTraceStoreMemMangEvent+0xb0>)
    2876:	6813      	ldr	r3, [r2, #0]
    2878:	3b01      	subs	r3, #1
    287a:	6013      	str	r3, [r2, #0]
    287c:	f385 8810 	msr	PRIMASK, r5
}
    2880:	b003      	add	sp, #12
    2882:	bdf0      	pop	{r4, r5, r6, r7, pc}
		dts1 = (uint8_t)prvTraceGetDTS(0xFF);
    2884:	20ff      	movs	r0, #255	; 0xff
    2886:	4b19      	ldr	r3, [pc, #100]	; (28ec <vTraceStoreMemMangEvent+0xb8>)
    2888:	4798      	blx	r3
    288a:	9001      	str	r0, [sp, #4]
		size_low = (uint16_t)prvTraceGetParam(0xFFFF, size);
    288c:	0031      	movs	r1, r6
    288e:	4818      	ldr	r0, [pc, #96]	; (28f0 <vTraceStoreMemMangEvent+0xbc>)
    2890:	4b18      	ldr	r3, [pc, #96]	; (28f4 <vTraceStoreMemMangEvent+0xc0>)
    2892:	4798      	blx	r3
    2894:	0006      	movs	r6, r0
		ms = (MemEventSize *)prvTraceNextFreeEventBufferSlot();
    2896:	4b18      	ldr	r3, [pc, #96]	; (28f8 <vTraceStoreMemMangEvent+0xc4>)
    2898:	4798      	blx	r3
    289a:	1e07      	subs	r7, r0, #0
		if (ms != NULL)
    289c:	d0ea      	beq.n	2874 <vTraceStoreMemMangEvent+0x40>
			ms->dts = dts1;
    289e:	466b      	mov	r3, sp
    28a0:	791b      	ldrb	r3, [r3, #4]
    28a2:	7043      	strb	r3, [r0, #1]
			ms->type = NULL_EVENT; /* Updated when all events are written */
    28a4:	2300      	movs	r3, #0
    28a6:	7003      	strb	r3, [r0, #0]
			ms->size = size_low;
    28a8:	8046      	strh	r6, [r0, #2]
			prvTraceUpdateCounters();
    28aa:	4b14      	ldr	r3, [pc, #80]	; (28fc <vTraceStoreMemMangEvent+0xc8>)
    28ac:	4798      	blx	r3
				addr_low = (uint16_t)prvTraceGetParam(0xFFFF, address);
    28ae:	0021      	movs	r1, r4
    28b0:	480f      	ldr	r0, [pc, #60]	; (28f0 <vTraceStoreMemMangEvent+0xbc>)
    28b2:	4b10      	ldr	r3, [pc, #64]	; (28f4 <vTraceStoreMemMangEvent+0xc0>)
    28b4:	4798      	blx	r3
    28b6:	0006      	movs	r6, r0
			ma = (MemEventAddr *) prvTraceNextFreeEventBufferSlot();
    28b8:	4b0f      	ldr	r3, [pc, #60]	; (28f8 <vTraceStoreMemMangEvent+0xc4>)
    28ba:	4798      	blx	r3
			if (ma != NULL)
    28bc:	2800      	cmp	r0, #0
    28be:	d0d9      	beq.n	2874 <vTraceStoreMemMangEvent+0x40>
				ma->addr_low = addr_low;
    28c0:	8046      	strh	r6, [r0, #2]
				ma->addr_high = addr_high;
    28c2:	2300      	movs	r3, #0
    28c4:	7043      	strb	r3, [r0, #1]
				ma->type = (uint8_t) (ecode  + 1); /* Note this! */
    28c6:	466b      	mov	r3, sp
    28c8:	781c      	ldrb	r4, [r3, #0]
    28ca:	1c63      	adds	r3, r4, #1
    28cc:	7003      	strb	r3, [r0, #0]
				ms->type = (uint8_t) ecode;
    28ce:	703c      	strb	r4, [r7, #0]
				prvTraceUpdateCounters();					
    28d0:	4b0a      	ldr	r3, [pc, #40]	; (28fc <vTraceStoreMemMangEvent+0xc8>)
    28d2:	4798      	blx	r3
				RecorderDataPtr->heapMemUsage = heapMemUsage;
    28d4:	4b02      	ldr	r3, [pc, #8]	; (28e0 <vTraceStoreMemMangEvent+0xac>)
    28d6:	681b      	ldr	r3, [r3, #0]
    28d8:	4a03      	ldr	r2, [pc, #12]	; (28e8 <vTraceStoreMemMangEvent+0xb4>)
    28da:	6812      	ldr	r2, [r2, #0]
    28dc:	651a      	str	r2, [r3, #80]	; 0x50
    28de:	e7c9      	b.n	2874 <vTraceStoreMemMangEvent+0x40>
    28e0:	20000334 	.word	0x20000334
    28e4:	200003e4 	.word	0x200003e4
    28e8:	2000033c 	.word	0x2000033c
    28ec:	00002669 	.word	0x00002669
    28f0:	0000ffff 	.word	0x0000ffff
    28f4:	00002255 	.word	0x00002255
    28f8:	00002129 	.word	0x00002129
    28fc:	0000221d 	.word	0x0000221d

00002900 <prvTraceStoreKernelCall>:
{
    2900:	b5f8      	push	{r3, r4, r5, r6, r7, lr}
    2902:	0005      	movs	r5, r0
    2904:	0014      	movs	r4, r2
	TRACE_ASSERT(ecode < 0xFF, "prvTraceStoreKernelCall: ecode >= 0xFF", TRC_UNUSED);
    2906:	28fe      	cmp	r0, #254	; 0xfe
    2908:	d825      	bhi.n	2956 <prvTraceStoreKernelCall+0x56>
	TRACE_ASSERT(objectClass < TRACE_NCLASSES, "prvTraceStoreKernelCall: objectClass >= TRACE_NCLASSES", TRC_UNUSED);
    290a:	2908      	cmp	r1, #8
    290c:	d827      	bhi.n	295e <prvTraceStoreKernelCall+0x5e>
	TRACE_ASSERT(objectNumber <= RecorderDataPtr->ObjectPropertyTable.NumberOfObjectsPerClass[objectClass], "prvTraceStoreKernelCall: Invalid value for objectNumber", TRC_UNUSED);
    290e:	4b21      	ldr	r3, [pc, #132]	; (2994 <prvTraceStoreKernelCall+0x94>)
    2910:	681b      	ldr	r3, [r3, #0]
    2912:	1859      	adds	r1, r3, r1
    2914:	3164      	adds	r1, #100	; 0x64
    2916:	780b      	ldrb	r3, [r1, #0]
    2918:	4293      	cmp	r3, r2
    291a:	d324      	bcc.n	2966 <prvTraceStoreKernelCall+0x66>
	if (recorder_busy)
    291c:	4b1e      	ldr	r3, [pc, #120]	; (2998 <prvTraceStoreKernelCall+0x98>)
    291e:	681b      	ldr	r3, [r3, #0]
    2920:	2b00      	cmp	r3, #0
    2922:	d124      	bne.n	296e <prvTraceStoreKernelCall+0x6e>
	if (handle_of_last_logged_task == 0)
    2924:	4b1d      	ldr	r3, [pc, #116]	; (299c <prvTraceStoreKernelCall+0x9c>)
    2926:	781b      	ldrb	r3, [r3, #0]
    2928:	2b00      	cmp	r3, #0
    292a:	d013      	beq.n	2954 <prvTraceStoreKernelCall+0x54>
  __ASM volatile ("MRS %0, primask" : "=r" (result) );
    292c:	f3ef 8610 	mrs	r6, PRIMASK
  __ASM volatile ("MSR primask, %0" : : "r" (priMask) : "memory");
    2930:	2301      	movs	r3, #1
    2932:	f383 8810 	msr	PRIMASK, r3
	trcCRITICAL_SECTION_BEGIN();
    2936:	4a18      	ldr	r2, [pc, #96]	; (2998 <prvTraceStoreKernelCall+0x98>)
    2938:	6813      	ldr	r3, [r2, #0]
    293a:	3301      	adds	r3, #1
    293c:	6013      	str	r3, [r2, #0]
	if (RecorderDataPtr->recorderActive)
    293e:	4b15      	ldr	r3, [pc, #84]	; (2994 <prvTraceStoreKernelCall+0x94>)
    2940:	681b      	ldr	r3, [r3, #0]
    2942:	6b1b      	ldr	r3, [r3, #48]	; 0x30
    2944:	2b00      	cmp	r3, #0
    2946:	d116      	bne.n	2976 <prvTraceStoreKernelCall+0x76>
	trcCRITICAL_SECTION_END();
    2948:	4a13      	ldr	r2, [pc, #76]	; (2998 <prvTraceStoreKernelCall+0x98>)
    294a:	6813      	ldr	r3, [r2, #0]
    294c:	3b01      	subs	r3, #1
    294e:	6013      	str	r3, [r2, #0]
    2950:	f386 8810 	msr	PRIMASK, r6
}
    2954:	bdf8      	pop	{r3, r4, r5, r6, r7, pc}
	TRACE_ASSERT(ecode < 0xFF, "prvTraceStoreKernelCall: ecode >= 0xFF", TRC_UNUSED);
    2956:	4812      	ldr	r0, [pc, #72]	; (29a0 <prvTraceStoreKernelCall+0xa0>)
    2958:	4b12      	ldr	r3, [pc, #72]	; (29a4 <prvTraceStoreKernelCall+0xa4>)
    295a:	4798      	blx	r3
    295c:	e7fa      	b.n	2954 <prvTraceStoreKernelCall+0x54>
	TRACE_ASSERT(objectClass < TRACE_NCLASSES, "prvTraceStoreKernelCall: objectClass >= TRACE_NCLASSES", TRC_UNUSED);
    295e:	4812      	ldr	r0, [pc, #72]	; (29a8 <prvTraceStoreKernelCall+0xa8>)
    2960:	4b10      	ldr	r3, [pc, #64]	; (29a4 <prvTraceStoreKernelCall+0xa4>)
    2962:	4798      	blx	r3
    2964:	e7f6      	b.n	2954 <prvTraceStoreKernelCall+0x54>
	TRACE_ASSERT(objectNumber <= RecorderDataPtr->ObjectPropertyTable.NumberOfObjectsPerClass[objectClass], "prvTraceStoreKernelCall: Invalid value for objectNumber", TRC_UNUSED);
    2966:	4811      	ldr	r0, [pc, #68]	; (29ac <prvTraceStoreKernelCall+0xac>)
    2968:	4b0e      	ldr	r3, [pc, #56]	; (29a4 <prvTraceStoreKernelCall+0xa4>)
    296a:	4798      	blx	r3
    296c:	e7f2      	b.n	2954 <prvTraceStoreKernelCall+0x54>
		prvTraceError("Recorder busy - high priority ISR using syscall? (2)");
    296e:	4810      	ldr	r0, [pc, #64]	; (29b0 <prvTraceStoreKernelCall+0xb0>)
    2970:	4b0c      	ldr	r3, [pc, #48]	; (29a4 <prvTraceStoreKernelCall+0xa4>)
    2972:	4798      	blx	r3
		return;
    2974:	e7ee      	b.n	2954 <prvTraceStoreKernelCall+0x54>
		dts1 = (uint16_t)prvTraceGetDTS(0xFFFF);
    2976:	480f      	ldr	r0, [pc, #60]	; (29b4 <prvTraceStoreKernelCall+0xb4>)
    2978:	4b0f      	ldr	r3, [pc, #60]	; (29b8 <prvTraceStoreKernelCall+0xb8>)
    297a:	4798      	blx	r3
    297c:	0007      	movs	r7, r0
		kse = (KernelCall*) prvTraceNextFreeEventBufferSlot();
    297e:	4b0f      	ldr	r3, [pc, #60]	; (29bc <prvTraceStoreKernelCall+0xbc>)
    2980:	4798      	blx	r3
		if (kse != NULL)
    2982:	2800      	cmp	r0, #0
    2984:	d0e0      	beq.n	2948 <prvTraceStoreKernelCall+0x48>
			kse->dts = dts1;
    2986:	8047      	strh	r7, [r0, #2]
			kse->type = (uint8_t)ecode;
    2988:	7005      	strb	r5, [r0, #0]
			kse->objHandle = hnd8;
    298a:	7044      	strb	r4, [r0, #1]
			prvTraceUpdateCounters();
    298c:	4b0c      	ldr	r3, [pc, #48]	; (29c0 <prvTraceStoreKernelCall+0xc0>)
    298e:	4798      	blx	r3
    2990:	e7da      	b.n	2948 <prvTraceStoreKernelCall+0x48>
    2992:	46c0      	nop			; (mov r8, r8)
    2994:	20000334 	.word	0x20000334
    2998:	200003e4 	.word	0x200003e4
    299c:	20000338 	.word	0x20000338
    29a0:	0000a21c 	.word	0x0000a21c
    29a4:	000020d1 	.word	0x000020d1
    29a8:	0000a254 	.word	0x0000a254
    29ac:	0000a29c 	.word	0x0000a29c
    29b0:	0000a2e4 	.word	0x0000a2e4
    29b4:	0000ffff 	.word	0x0000ffff
    29b8:	00002669 	.word	0x00002669
    29bc:	00002129 	.word	0x00002129
    29c0:	0000221d 	.word	0x0000221d

000029c4 <prvTraceStoreKernelCallWithParam>:
{
    29c4:	b5f0      	push	{r4, r5, r6, r7, lr}
    29c6:	46c6      	mov	lr, r8
    29c8:	b500      	push	{lr}
    29ca:	0006      	movs	r6, r0
    29cc:	0014      	movs	r4, r2
    29ce:	001d      	movs	r5, r3
	TRACE_ASSERT(evtcode < 0xFF, "prvTraceStoreKernelCallWithParam: evtcode >= 0xFF", TRC_UNUSED);
    29d0:	28fe      	cmp	r0, #254	; 0xfe
    29d2:	d827      	bhi.n	2a24 <prvTraceStoreKernelCallWithParam+0x60>
	TRACE_ASSERT(objectClass < TRACE_NCLASSES, "prvTraceStoreKernelCallWithParam: objectClass >= TRACE_NCLASSES", TRC_UNUSED);
    29d4:	2908      	cmp	r1, #8
    29d6:	d829      	bhi.n	2a2c <prvTraceStoreKernelCallWithParam+0x68>
	TRACE_ASSERT(objectNumber <= RecorderDataPtr->ObjectPropertyTable.NumberOfObjectsPerClass[objectClass], "prvTraceStoreKernelCallWithParam: Invalid value for objectNumber", TRC_UNUSED);
    29d8:	4b24      	ldr	r3, [pc, #144]	; (2a6c <prvTraceStoreKernelCallWithParam+0xa8>)
    29da:	681b      	ldr	r3, [r3, #0]
    29dc:	1859      	adds	r1, r3, r1
    29de:	3164      	adds	r1, #100	; 0x64
    29e0:	780b      	ldrb	r3, [r1, #0]
    29e2:	4293      	cmp	r3, r2
    29e4:	d326      	bcc.n	2a34 <prvTraceStoreKernelCallWithParam+0x70>
	if (recorder_busy)
    29e6:	4b22      	ldr	r3, [pc, #136]	; (2a70 <prvTraceStoreKernelCallWithParam+0xac>)
    29e8:	681b      	ldr	r3, [r3, #0]
    29ea:	2b00      	cmp	r3, #0
    29ec:	d126      	bne.n	2a3c <prvTraceStoreKernelCallWithParam+0x78>
  __ASM volatile ("MRS %0, primask" : "=r" (result) );
    29ee:	f3ef 8810 	mrs	r8, PRIMASK
  __ASM volatile ("MSR primask, %0" : : "r" (priMask) : "memory");
    29f2:	2301      	movs	r3, #1
    29f4:	f383 8810 	msr	PRIMASK, r3
	trcCRITICAL_SECTION_BEGIN();
    29f8:	4a1d      	ldr	r2, [pc, #116]	; (2a70 <prvTraceStoreKernelCallWithParam+0xac>)
    29fa:	6813      	ldr	r3, [r2, #0]
    29fc:	3301      	adds	r3, #1
    29fe:	6013      	str	r3, [r2, #0]
	if (RecorderDataPtr->recorderActive && handle_of_last_logged_task)
    2a00:	4b1a      	ldr	r3, [pc, #104]	; (2a6c <prvTraceStoreKernelCallWithParam+0xa8>)
    2a02:	681b      	ldr	r3, [r3, #0]
    2a04:	6b1b      	ldr	r3, [r3, #48]	; 0x30
    2a06:	2b00      	cmp	r3, #0
    2a08:	d003      	beq.n	2a12 <prvTraceStoreKernelCallWithParam+0x4e>
    2a0a:	4b1a      	ldr	r3, [pc, #104]	; (2a74 <prvTraceStoreKernelCallWithParam+0xb0>)
    2a0c:	781b      	ldrb	r3, [r3, #0]
    2a0e:	2b00      	cmp	r3, #0
    2a10:	d118      	bne.n	2a44 <prvTraceStoreKernelCallWithParam+0x80>
	trcCRITICAL_SECTION_END();
    2a12:	4a17      	ldr	r2, [pc, #92]	; (2a70 <prvTraceStoreKernelCallWithParam+0xac>)
    2a14:	6813      	ldr	r3, [r2, #0]
    2a16:	3b01      	subs	r3, #1
    2a18:	6013      	str	r3, [r2, #0]
    2a1a:	f388 8810 	msr	PRIMASK, r8
}
    2a1e:	bc04      	pop	{r2}
    2a20:	4690      	mov	r8, r2
    2a22:	bdf0      	pop	{r4, r5, r6, r7, pc}
	TRACE_ASSERT(evtcode < 0xFF, "prvTraceStoreKernelCallWithParam: evtcode >= 0xFF", TRC_UNUSED);
    2a24:	4814      	ldr	r0, [pc, #80]	; (2a78 <prvTraceStoreKernelCallWithParam+0xb4>)
    2a26:	4b15      	ldr	r3, [pc, #84]	; (2a7c <prvTraceStoreKernelCallWithParam+0xb8>)
    2a28:	4798      	blx	r3
    2a2a:	e7f8      	b.n	2a1e <prvTraceStoreKernelCallWithParam+0x5a>
	TRACE_ASSERT(objectClass < TRACE_NCLASSES, "prvTraceStoreKernelCallWithParam: objectClass >= TRACE_NCLASSES", TRC_UNUSED);
    2a2c:	4814      	ldr	r0, [pc, #80]	; (2a80 <prvTraceStoreKernelCallWithParam+0xbc>)
    2a2e:	4b13      	ldr	r3, [pc, #76]	; (2a7c <prvTraceStoreKernelCallWithParam+0xb8>)
    2a30:	4798      	blx	r3
    2a32:	e7f4      	b.n	2a1e <prvTraceStoreKernelCallWithParam+0x5a>
	TRACE_ASSERT(objectNumber <= RecorderDataPtr->ObjectPropertyTable.NumberOfObjectsPerClass[objectClass], "prvTraceStoreKernelCallWithParam: Invalid value for objectNumber", TRC_UNUSED);
    2a34:	4813      	ldr	r0, [pc, #76]	; (2a84 <prvTraceStoreKernelCallWithParam+0xc0>)
    2a36:	4b11      	ldr	r3, [pc, #68]	; (2a7c <prvTraceStoreKernelCallWithParam+0xb8>)
    2a38:	4798      	blx	r3
    2a3a:	e7f0      	b.n	2a1e <prvTraceStoreKernelCallWithParam+0x5a>
		prvTraceError("Recorder busy - high priority ISR using syscall? (3)");
    2a3c:	4812      	ldr	r0, [pc, #72]	; (2a88 <prvTraceStoreKernelCallWithParam+0xc4>)
    2a3e:	4b0f      	ldr	r3, [pc, #60]	; (2a7c <prvTraceStoreKernelCallWithParam+0xb8>)
    2a40:	4798      	blx	r3
		return;
    2a42:	e7ec      	b.n	2a1e <prvTraceStoreKernelCallWithParam+0x5a>
		dts2 = (uint8_t)prvTraceGetDTS(0xFF);
    2a44:	20ff      	movs	r0, #255	; 0xff
    2a46:	4b11      	ldr	r3, [pc, #68]	; (2a8c <prvTraceStoreKernelCallWithParam+0xc8>)
    2a48:	4798      	blx	r3
    2a4a:	0007      	movs	r7, r0
		p8 = (uint8_t) prvTraceGetParam(0xFF, param);
    2a4c:	0029      	movs	r1, r5
    2a4e:	20ff      	movs	r0, #255	; 0xff
    2a50:	4b0f      	ldr	r3, [pc, #60]	; (2a90 <prvTraceStoreKernelCallWithParam+0xcc>)
    2a52:	4798      	blx	r3
    2a54:	0005      	movs	r5, r0
		kse = (KernelCallWithParamAndHandle*) prvTraceNextFreeEventBufferSlot();
    2a56:	4b0f      	ldr	r3, [pc, #60]	; (2a94 <prvTraceStoreKernelCallWithParam+0xd0>)
    2a58:	4798      	blx	r3
		if (kse != NULL)
    2a5a:	2800      	cmp	r0, #0
    2a5c:	d0d9      	beq.n	2a12 <prvTraceStoreKernelCallWithParam+0x4e>
			kse->dts = dts2;
    2a5e:	70c7      	strb	r7, [r0, #3]
			kse->type = (uint8_t)evtcode;
    2a60:	7006      	strb	r6, [r0, #0]
			kse->objHandle = hnd8;
    2a62:	7044      	strb	r4, [r0, #1]
			kse->param = p8;
    2a64:	7085      	strb	r5, [r0, #2]
			prvTraceUpdateCounters();
    2a66:	4b0c      	ldr	r3, [pc, #48]	; (2a98 <prvTraceStoreKernelCallWithParam+0xd4>)
    2a68:	4798      	blx	r3
    2a6a:	e7d2      	b.n	2a12 <prvTraceStoreKernelCallWithParam+0x4e>
    2a6c:	20000334 	.word	0x20000334
    2a70:	200003e4 	.word	0x200003e4
    2a74:	20000338 	.word	0x20000338
    2a78:	0000a3ac 	.word	0x0000a3ac
    2a7c:	000020d1 	.word	0x000020d1
    2a80:	0000a3ec 	.word	0x0000a3ec
    2a84:	0000a43c 	.word	0x0000a43c
    2a88:	0000a48c 	.word	0x0000a48c
    2a8c:	00002669 	.word	0x00002669
    2a90:	00002255 	.word	0x00002255
    2a94:	00002129 	.word	0x00002129
    2a98:	0000221d 	.word	0x0000221d

00002a9c <prvTraceStoreKernelCallWithNumericParamOnly>:
{
    2a9c:	b5f8      	push	{r3, r4, r5, r6, r7, lr}
    2a9e:	0004      	movs	r4, r0
    2aa0:	000d      	movs	r5, r1
	TRACE_ASSERT(evtcode < 0xFF, "prvTraceStoreKernelCallWithNumericParamOnly: Invalid value for evtcode", TRC_UNUSED);
    2aa2:	28fe      	cmp	r0, #254	; 0xfe
    2aa4:	d81c      	bhi.n	2ae0 <prvTraceStoreKernelCallWithNumericParamOnly+0x44>
	if (recorder_busy)
    2aa6:	4b1c      	ldr	r3, [pc, #112]	; (2b18 <prvTraceStoreKernelCallWithNumericParamOnly+0x7c>)
    2aa8:	681b      	ldr	r3, [r3, #0]
    2aaa:	2b00      	cmp	r3, #0
    2aac:	d11c      	bne.n	2ae8 <prvTraceStoreKernelCallWithNumericParamOnly+0x4c>
  __ASM volatile ("MRS %0, primask" : "=r" (result) );
    2aae:	f3ef 8610 	mrs	r6, PRIMASK
  __ASM volatile ("MSR primask, %0" : : "r" (priMask) : "memory");
    2ab2:	2301      	movs	r3, #1
    2ab4:	f383 8810 	msr	PRIMASK, r3
	trcCRITICAL_SECTION_BEGIN();
    2ab8:	4a17      	ldr	r2, [pc, #92]	; (2b18 <prvTraceStoreKernelCallWithNumericParamOnly+0x7c>)
    2aba:	6813      	ldr	r3, [r2, #0]
    2abc:	3301      	adds	r3, #1
    2abe:	6013      	str	r3, [r2, #0]
	if (RecorderDataPtr->recorderActive && handle_of_last_logged_task)
    2ac0:	4b16      	ldr	r3, [pc, #88]	; (2b1c <prvTraceStoreKernelCallWithNumericParamOnly+0x80>)
    2ac2:	681b      	ldr	r3, [r3, #0]
    2ac4:	6b1b      	ldr	r3, [r3, #48]	; 0x30
    2ac6:	2b00      	cmp	r3, #0
    2ac8:	d003      	beq.n	2ad2 <prvTraceStoreKernelCallWithNumericParamOnly+0x36>
    2aca:	4b15      	ldr	r3, [pc, #84]	; (2b20 <prvTraceStoreKernelCallWithNumericParamOnly+0x84>)
    2acc:	781b      	ldrb	r3, [r3, #0]
    2ace:	2b00      	cmp	r3, #0
    2ad0:	d10e      	bne.n	2af0 <prvTraceStoreKernelCallWithNumericParamOnly+0x54>
	trcCRITICAL_SECTION_END();
    2ad2:	4a11      	ldr	r2, [pc, #68]	; (2b18 <prvTraceStoreKernelCallWithNumericParamOnly+0x7c>)
    2ad4:	6813      	ldr	r3, [r2, #0]
    2ad6:	3b01      	subs	r3, #1
    2ad8:	6013      	str	r3, [r2, #0]
    2ada:	f386 8810 	msr	PRIMASK, r6
}
    2ade:	bdf8      	pop	{r3, r4, r5, r6, r7, pc}
	TRACE_ASSERT(evtcode < 0xFF, "prvTraceStoreKernelCallWithNumericParamOnly: Invalid value for evtcode", TRC_UNUSED);
    2ae0:	4810      	ldr	r0, [pc, #64]	; (2b24 <prvTraceStoreKernelCallWithNumericParamOnly+0x88>)
    2ae2:	4b11      	ldr	r3, [pc, #68]	; (2b28 <prvTraceStoreKernelCallWithNumericParamOnly+0x8c>)
    2ae4:	4798      	blx	r3
    2ae6:	e7fa      	b.n	2ade <prvTraceStoreKernelCallWithNumericParamOnly+0x42>
		prvTraceError("Recorder busy - high priority ISR using syscall? (4)");
    2ae8:	4810      	ldr	r0, [pc, #64]	; (2b2c <prvTraceStoreKernelCallWithNumericParamOnly+0x90>)
    2aea:	4b0f      	ldr	r3, [pc, #60]	; (2b28 <prvTraceStoreKernelCallWithNumericParamOnly+0x8c>)
    2aec:	4798      	blx	r3
		return;
    2aee:	e7f6      	b.n	2ade <prvTraceStoreKernelCallWithNumericParamOnly+0x42>
		dts6 = (uint8_t)prvTraceGetDTS(0xFF);
    2af0:	20ff      	movs	r0, #255	; 0xff
    2af2:	4b0f      	ldr	r3, [pc, #60]	; (2b30 <prvTraceStoreKernelCallWithNumericParamOnly+0x94>)
    2af4:	4798      	blx	r3
    2af6:	0007      	movs	r7, r0
		restParam = (uint16_t)prvTraceGetParam(0xFFFF, param);
    2af8:	0029      	movs	r1, r5
    2afa:	480e      	ldr	r0, [pc, #56]	; (2b34 <prvTraceStoreKernelCallWithNumericParamOnly+0x98>)
    2afc:	4b0e      	ldr	r3, [pc, #56]	; (2b38 <prvTraceStoreKernelCallWithNumericParamOnly+0x9c>)
    2afe:	4798      	blx	r3
    2b00:	0005      	movs	r5, r0
		kse = (KernelCallWithParam16*) prvTraceNextFreeEventBufferSlot();
    2b02:	4b0e      	ldr	r3, [pc, #56]	; (2b3c <prvTraceStoreKernelCallWithNumericParamOnly+0xa0>)
    2b04:	4798      	blx	r3
		if (kse != NULL)
    2b06:	2800      	cmp	r0, #0
    2b08:	d0e3      	beq.n	2ad2 <prvTraceStoreKernelCallWithNumericParamOnly+0x36>
			kse->dts = dts6;
    2b0a:	7047      	strb	r7, [r0, #1]
			kse->type = (uint8_t)evtcode;
    2b0c:	7004      	strb	r4, [r0, #0]
			kse->param = restParam;
    2b0e:	8045      	strh	r5, [r0, #2]
			prvTraceUpdateCounters();
    2b10:	4b0b      	ldr	r3, [pc, #44]	; (2b40 <prvTraceStoreKernelCallWithNumericParamOnly+0xa4>)
    2b12:	4798      	blx	r3
    2b14:	e7dd      	b.n	2ad2 <prvTraceStoreKernelCallWithNumericParamOnly+0x36>
    2b16:	46c0      	nop			; (mov r8, r8)
    2b18:	200003e4 	.word	0x200003e4
    2b1c:	20000334 	.word	0x20000334
    2b20:	20000338 	.word	0x20000338
    2b24:	0000a31c 	.word	0x0000a31c
    2b28:	000020d1 	.word	0x000020d1
    2b2c:	0000a374 	.word	0x0000a374
    2b30:	00002669 	.word	0x00002669
    2b34:	0000ffff 	.word	0x0000ffff
    2b38:	00002255 	.word	0x00002255
    2b3c:	00002129 	.word	0x00002129
    2b40:	0000221d 	.word	0x0000221d

00002b44 <prvTraceStoreTaskswitch>:
{
    2b44:	b5f8      	push	{r3, r4, r5, r6, r7, lr}
    2b46:	0004      	movs	r4, r0
	TRACE_ASSERT(task_handle <= (TRC_CFG_NTASK),
    2b48:	280f      	cmp	r0, #15
    2b4a:	d818      	bhi.n	2b7e <prvTraceStoreTaskswitch+0x3a>
  __ASM volatile ("MRS %0, primask" : "=r" (result) );
    2b4c:	f3ef 8510 	mrs	r5, PRIMASK
  __ASM volatile ("MSR primask, %0" : : "r" (priMask) : "memory");
    2b50:	2301      	movs	r3, #1
    2b52:	f383 8810 	msr	PRIMASK, r3
	trcCRITICAL_SECTION_BEGIN_ON_CORTEX_M_ONLY();
    2b56:	4a26      	ldr	r2, [pc, #152]	; (2bf0 <prvTraceStoreTaskswitch+0xac>)
    2b58:	6813      	ldr	r3, [r2, #0]
    2b5a:	3301      	adds	r3, #1
    2b5c:	6013      	str	r3, [r2, #0]
	if ((task_handle != handle_of_last_logged_task) && (RecorderDataPtr->recorderActive))
    2b5e:	4b25      	ldr	r3, [pc, #148]	; (2bf4 <prvTraceStoreTaskswitch+0xb0>)
    2b60:	781b      	ldrb	r3, [r3, #0]
    2b62:	4283      	cmp	r3, r0
    2b64:	d004      	beq.n	2b70 <prvTraceStoreTaskswitch+0x2c>
    2b66:	4b24      	ldr	r3, [pc, #144]	; (2bf8 <prvTraceStoreTaskswitch+0xb4>)
    2b68:	681b      	ldr	r3, [r3, #0]
    2b6a:	6b1b      	ldr	r3, [r3, #48]	; 0x30
    2b6c:	2b00      	cmp	r3, #0
    2b6e:	d10a      	bne.n	2b86 <prvTraceStoreTaskswitch+0x42>
	trcCRITICAL_SECTION_END_ON_CORTEX_M_ONLY();
    2b70:	4a1f      	ldr	r2, [pc, #124]	; (2bf0 <prvTraceStoreTaskswitch+0xac>)
    2b72:	6813      	ldr	r3, [r2, #0]
    2b74:	3b01      	subs	r3, #1
    2b76:	6013      	str	r3, [r2, #0]
    2b78:	f385 8810 	msr	PRIMASK, r5
}
    2b7c:	bdf8      	pop	{r3, r4, r5, r6, r7, pc}
	TRACE_ASSERT(task_handle <= (TRC_CFG_NTASK),
    2b7e:	481f      	ldr	r0, [pc, #124]	; (2bfc <prvTraceStoreTaskswitch+0xb8>)
    2b80:	4b1f      	ldr	r3, [pc, #124]	; (2c00 <prvTraceStoreTaskswitch+0xbc>)
    2b82:	4798      	blx	r3
    2b84:	e7fa      	b.n	2b7c <prvTraceStoreTaskswitch+0x38>
		isPendingContextSwitch = 0;
    2b86:	2200      	movs	r2, #0
    2b88:	4b1e      	ldr	r3, [pc, #120]	; (2c04 <prvTraceStoreTaskswitch+0xc0>)
    2b8a:	601a      	str	r2, [r3, #0]
		dts3 = (uint16_t)prvTraceGetDTS(0xFFFF);
    2b8c:	481e      	ldr	r0, [pc, #120]	; (2c08 <prvTraceStoreTaskswitch+0xc4>)
    2b8e:	4b1f      	ldr	r3, [pc, #124]	; (2c0c <prvTraceStoreTaskswitch+0xc8>)
    2b90:	4798      	blx	r3
    2b92:	0007      	movs	r7, r0
		handle_of_last_logged_task = task_handle;
    2b94:	4b17      	ldr	r3, [pc, #92]	; (2bf4 <prvTraceStoreTaskswitch+0xb0>)
    2b96:	701c      	strb	r4, [r3, #0]
		ts = (TSEvent*)prvTraceNextFreeEventBufferSlot();
    2b98:	4b1d      	ldr	r3, [pc, #116]	; (2c10 <prvTraceStoreTaskswitch+0xcc>)
    2b9a:	4798      	blx	r3
    2b9c:	1e06      	subs	r6, r0, #0
		if (ts != NULL)
    2b9e:	d0e7      	beq.n	2b70 <prvTraceStoreTaskswitch+0x2c>
			if (prvTraceGetObjectState(TRACE_CLASS_TASK,
    2ba0:	4b14      	ldr	r3, [pc, #80]	; (2bf4 <prvTraceStoreTaskswitch+0xb0>)
    2ba2:	7818      	ldrb	r0, [r3, #0]
	TRACE_ASSERT(id <= RecorderDataPtr->ObjectPropertyTable.NumberOfObjectsPerClass[objectclass],
    2ba4:	4b14      	ldr	r3, [pc, #80]	; (2bf8 <prvTraceStoreTaskswitch+0xb4>)
    2ba6:	681a      	ldr	r2, [r3, #0]
    2ba8:	2367      	movs	r3, #103	; 0x67
    2baa:	5cd3      	ldrb	r3, [r2, r3]
    2bac:	4283      	cmp	r3, r0
    2bae:	d30f      	bcc.n	2bd0 <prvTraceStoreTaskswitch+0x8c>
	return TRACE_PROPERTY_OBJECT_STATE(objectclass, id);
    2bb0:	2103      	movs	r1, #3
    2bb2:	4b18      	ldr	r3, [pc, #96]	; (2c14 <prvTraceStoreTaskswitch+0xd0>)
    2bb4:	4798      	blx	r3
    2bb6:	4b10      	ldr	r3, [pc, #64]	; (2bf8 <prvTraceStoreTaskswitch+0xb4>)
    2bb8:	681b      	ldr	r3, [r3, #0]
    2bba:	2273      	movs	r2, #115	; 0x73
    2bbc:	5c9a      	ldrb	r2, [r3, r2]
    2bbe:	181b      	adds	r3, r3, r0
    2bc0:	189b      	adds	r3, r3, r2
    2bc2:	339c      	adds	r3, #156	; 0x9c
			if (prvTraceGetObjectState(TRACE_CLASS_TASK,
    2bc4:	781b      	ldrb	r3, [r3, #0]
    2bc6:	2b01      	cmp	r3, #1
    2bc8:	d105      	bne.n	2bd6 <prvTraceStoreTaskswitch+0x92>
				ts->type = TS_TASK_RESUME;
    2bca:	3306      	adds	r3, #6
    2bcc:	7033      	strb	r3, [r6, #0]
    2bce:	e004      	b.n	2bda <prvTraceStoreTaskswitch+0x96>
	TRACE_ASSERT(id <= RecorderDataPtr->ObjectPropertyTable.NumberOfObjectsPerClass[objectclass],
    2bd0:	4811      	ldr	r0, [pc, #68]	; (2c18 <prvTraceStoreTaskswitch+0xd4>)
    2bd2:	4b0b      	ldr	r3, [pc, #44]	; (2c00 <prvTraceStoreTaskswitch+0xbc>)
    2bd4:	4798      	blx	r3
				ts->type = TS_TASK_BEGIN;
    2bd6:	2306      	movs	r3, #6
    2bd8:	7033      	strb	r3, [r6, #0]
			ts->dts = dts3;
    2bda:	8077      	strh	r7, [r6, #2]
			ts->objHandle = hnd8;
    2bdc:	7074      	strb	r4, [r6, #1]
			prvTraceSetObjectState(TRACE_CLASS_TASK,
    2bde:	4b05      	ldr	r3, [pc, #20]	; (2bf4 <prvTraceStoreTaskswitch+0xb0>)
    2be0:	7819      	ldrb	r1, [r3, #0]
    2be2:	2201      	movs	r2, #1
    2be4:	2003      	movs	r0, #3
    2be6:	4b0d      	ldr	r3, [pc, #52]	; (2c1c <prvTraceStoreTaskswitch+0xd8>)
    2be8:	4798      	blx	r3
			prvTraceUpdateCounters();
    2bea:	4b0d      	ldr	r3, [pc, #52]	; (2c20 <prvTraceStoreTaskswitch+0xdc>)
    2bec:	4798      	blx	r3
    2bee:	e7bf      	b.n	2b70 <prvTraceStoreTaskswitch+0x2c>
    2bf0:	200003e4 	.word	0x200003e4
    2bf4:	20000338 	.word	0x20000338
    2bf8:	20000334 	.word	0x20000334
    2bfc:	0000a53c 	.word	0x0000a53c
    2c00:	000020d1 	.word	0x000020d1
    2c04:	20000340 	.word	0x20000340
    2c08:	0000ffff 	.word	0x0000ffff
    2c0c:	00002669 	.word	0x00002669
    2c10:	00002129 	.word	0x00002129
    2c14:	000022a9 	.word	0x000022a9
    2c18:	0000a584 	.word	0x0000a584
    2c1c:	000023d5 	.word	0x000023d5
    2c20:	0000221d 	.word	0x0000221d

00002c24 <uiTraceStart>:
{
    2c24:	b570      	push	{r4, r5, r6, lr}
	if (RecorderDataPtr == NULL)
    2c26:	4b20      	ldr	r3, [pc, #128]	; (2ca8 <uiTraceStart+0x84>)
    2c28:	681b      	ldr	r3, [r3, #0]
    2c2a:	2b00      	cmp	r3, #0
    2c2c:	d00a      	beq.n	2c44 <uiTraceStart+0x20>
	if (RecorderDataPtr->recorderActive == 1)
    2c2e:	6b18      	ldr	r0, [r3, #48]	; 0x30
    2c30:	2801      	cmp	r0, #1
    2c32:	d006      	beq.n	2c42 <uiTraceStart+0x1e>
	if (traceErrorMessage == NULL)
    2c34:	4b1d      	ldr	r3, [pc, #116]	; (2cac <uiTraceStart+0x88>)
    2c36:	681b      	ldr	r3, [r3, #0]
    2c38:	2b00      	cmp	r3, #0
    2c3a:	d008      	beq.n	2c4e <uiTraceStart+0x2a>
	return RecorderDataPtr->recorderActive;
    2c3c:	4b1a      	ldr	r3, [pc, #104]	; (2ca8 <uiTraceStart+0x84>)
    2c3e:	681b      	ldr	r3, [r3, #0]
    2c40:	6b18      	ldr	r0, [r3, #48]	; 0x30
}
    2c42:	bd70      	pop	{r4, r5, r6, pc}
		TRACE_ASSERT(RecorderDataPtr != NULL, "Recorder not initialized. Use vTraceEnable() instead!", 0);
    2c44:	481a      	ldr	r0, [pc, #104]	; (2cb0 <uiTraceStart+0x8c>)
    2c46:	4b1b      	ldr	r3, [pc, #108]	; (2cb4 <uiTraceStart+0x90>)
    2c48:	4798      	blx	r3
    2c4a:	2000      	movs	r0, #0
    2c4c:	e7f9      	b.n	2c42 <uiTraceStart+0x1e>
  __ASM volatile ("MRS %0, primask" : "=r" (result) );
    2c4e:	f3ef 8510 	mrs	r5, PRIMASK
  __ASM volatile ("MSR primask, %0" : : "r" (priMask) : "memory");
    2c52:	2201      	movs	r2, #1
    2c54:	f382 8810 	msr	PRIMASK, r2
		trcCRITICAL_SECTION_BEGIN();
    2c58:	4917      	ldr	r1, [pc, #92]	; (2cb8 <uiTraceStart+0x94>)
    2c5a:	680b      	ldr	r3, [r1, #0]
    2c5c:	3301      	adds	r3, #1
    2c5e:	600b      	str	r3, [r1, #0]
		RecorderDataPtr->recorderActive = 1;
    2c60:	4b11      	ldr	r3, [pc, #68]	; (2ca8 <uiTraceStart+0x84>)
    2c62:	681b      	ldr	r3, [r3, #0]
    2c64:	631a      	str	r2, [r3, #48]	; 0x30
		handle = TRACE_GET_TASK_NUMBER(TRACE_GET_CURRENT_TASK());
    2c66:	4b15      	ldr	r3, [pc, #84]	; (2cbc <uiTraceStart+0x98>)
    2c68:	4798      	blx	r3
    2c6a:	4b15      	ldr	r3, [pc, #84]	; (2cc0 <uiTraceStart+0x9c>)
    2c6c:	4798      	blx	r3
    2c6e:	b2c4      	uxtb	r4, r0
		if (handle == 0)
    2c70:	2c00      	cmp	r4, #0
    2c72:	d009      	beq.n	2c88 <uiTraceStart+0x64>
		prvTraceStoreTaskswitch(handle); /* Register the currently running task */
    2c74:	0020      	movs	r0, r4
    2c76:	4b13      	ldr	r3, [pc, #76]	; (2cc4 <uiTraceStart+0xa0>)
    2c78:	4798      	blx	r3
		trcCRITICAL_SECTION_END();
    2c7a:	4a0f      	ldr	r2, [pc, #60]	; (2cb8 <uiTraceStart+0x94>)
    2c7c:	6813      	ldr	r3, [r2, #0]
    2c7e:	3b01      	subs	r3, #1
    2c80:	6013      	str	r3, [r2, #0]
    2c82:	f385 8810 	msr	PRIMASK, r5
    2c86:	e7d9      	b.n	2c3c <uiTraceStart+0x18>
			handle = prvTraceGetObjectHandle(TRACE_CLASS_TASK);
    2c88:	2003      	movs	r0, #3
    2c8a:	4b0f      	ldr	r3, [pc, #60]	; (2cc8 <uiTraceStart+0xa4>)
    2c8c:	4798      	blx	r3
    2c8e:	0006      	movs	r6, r0
    2c90:	0004      	movs	r4, r0
			prvTraceSetObjectName(TRACE_CLASS_TASK, handle, "(startup)");
    2c92:	4a0e      	ldr	r2, [pc, #56]	; (2ccc <uiTraceStart+0xa8>)
    2c94:	0001      	movs	r1, r0
    2c96:	2003      	movs	r0, #3
    2c98:	4b0d      	ldr	r3, [pc, #52]	; (2cd0 <uiTraceStart+0xac>)
    2c9a:	4798      	blx	r3
			prvTraceSetPriorityProperty(TRACE_CLASS_TASK, handle, 0);
    2c9c:	2200      	movs	r2, #0
    2c9e:	0031      	movs	r1, r6
    2ca0:	2003      	movs	r0, #3
    2ca2:	4b0c      	ldr	r3, [pc, #48]	; (2cd4 <uiTraceStart+0xb0>)
    2ca4:	4798      	blx	r3
    2ca6:	e7e5      	b.n	2c74 <uiTraceStart+0x50>
    2ca8:	20000334 	.word	0x20000334
    2cac:	200003ec 	.word	0x200003ec
    2cb0:	0000a640 	.word	0x0000a640
    2cb4:	000020d1 	.word	0x000020d1
    2cb8:	200003e4 	.word	0x200003e4
    2cbc:	00001cc9 	.word	0x00001cc9
    2cc0:	00001c01 	.word	0x00001c01
    2cc4:	00002b45 	.word	0x00002b45
    2cc8:	0000246d 	.word	0x0000246d
    2ccc:	0000a684 	.word	0x0000a684
    2cd0:	00002541 	.word	0x00002541
    2cd4:	00002321 	.word	0x00002321

00002cd8 <vTraceStart>:
{
    2cd8:	b510      	push	{r4, lr}
	(void)uiTraceStart();
    2cda:	4b01      	ldr	r3, [pc, #4]	; (2ce0 <vTraceStart+0x8>)
    2cdc:	4798      	blx	r3
}
    2cde:	bd10      	pop	{r4, pc}
    2ce0:	00002c25 	.word	0x00002c25

00002ce4 <vListInitialise>:
void vListInitialise( List_t * const pxList )
{
	/* The list structure contains a list item which is used to mark the
	end of the list.  To initialise the list the list end is inserted
	as the only list entry. */
	pxList->pxIndex = ( ListItem_t * ) &( pxList->xListEnd );			/*lint !e826 !e740 The mini list structure is used as the list end to save RAM.  This is checked and valid. */
    2ce4:	0003      	movs	r3, r0
    2ce6:	3308      	adds	r3, #8
    2ce8:	6043      	str	r3, [r0, #4]

	/* The list end value is the highest possible value in the list to
	ensure it remains at the end of the list. */
	pxList->xListEnd.xItemValue = portMAX_DELAY;
    2cea:	2201      	movs	r2, #1
    2cec:	4252      	negs	r2, r2
    2cee:	6082      	str	r2, [r0, #8]

	/* The list end next and previous pointers point to itself so we know
	when the list is empty. */
	pxList->xListEnd.pxNext = ( ListItem_t * ) &( pxList->xListEnd );	/*lint !e826 !e740 The mini list structure is used as the list end to save RAM.  This is checked and valid. */
    2cf0:	60c3      	str	r3, [r0, #12]
	pxList->xListEnd.pxPrevious = ( ListItem_t * ) &( pxList->xListEnd );/*lint !e826 !e740 The mini list structure is used as the list end to save RAM.  This is checked and valid. */
    2cf2:	6103      	str	r3, [r0, #16]

	pxList->uxNumberOfItems = ( UBaseType_t ) 0U;
    2cf4:	2300      	movs	r3, #0
    2cf6:	6003      	str	r3, [r0, #0]

	/* Write known values into the list if
	configUSE_LIST_DATA_INTEGRITY_CHECK_BYTES is set to 1. */
	listSET_LIST_INTEGRITY_CHECK_1_VALUE( pxList );
	listSET_LIST_INTEGRITY_CHECK_2_VALUE( pxList );
}
    2cf8:	4770      	bx	lr

00002cfa <vListInitialiseItem>:
/*-----------------------------------------------------------*/

void vListInitialiseItem( ListItem_t * const pxItem )
{
	/* Make sure the list item is not recorded as being on a list. */
	pxItem->pvContainer = NULL;
    2cfa:	2300      	movs	r3, #0
    2cfc:	6103      	str	r3, [r0, #16]

	/* Write known values into the list item if
	configUSE_LIST_DATA_INTEGRITY_CHECK_BYTES is set to 1. */
	listSET_FIRST_LIST_ITEM_INTEGRITY_CHECK_VALUE( pxItem );
	listSET_SECOND_LIST_ITEM_INTEGRITY_CHECK_VALUE( pxItem );
}
    2cfe:	4770      	bx	lr

00002d00 <vListInsertEnd>:
/*-----------------------------------------------------------*/

void vListInsertEnd( List_t * const pxList, ListItem_t * const pxNewListItem )
{
ListItem_t * const pxIndex = pxList->pxIndex;
    2d00:	6843      	ldr	r3, [r0, #4]
	listTEST_LIST_ITEM_INTEGRITY( pxNewListItem );

	/* Insert a new list item into pxList, but rather than sort the list,
	makes the new list item the last item to be removed by a call to
	listGET_OWNER_OF_NEXT_ENTRY(). */
	pxNewListItem->pxNext = pxIndex;
    2d02:	604b      	str	r3, [r1, #4]
	pxNewListItem->pxPrevious = pxIndex->pxPrevious;
    2d04:	689a      	ldr	r2, [r3, #8]
    2d06:	608a      	str	r2, [r1, #8]

	/* Only used during decision coverage testing. */
	mtCOVERAGE_TEST_DELAY();

	pxIndex->pxPrevious->pxNext = pxNewListItem;
    2d08:	689a      	ldr	r2, [r3, #8]
    2d0a:	6051      	str	r1, [r2, #4]
	pxIndex->pxPrevious = pxNewListItem;
    2d0c:	6099      	str	r1, [r3, #8]

	/* Remember which list the item is in. */
	pxNewListItem->pvContainer = ( void * ) pxList;
    2d0e:	6108      	str	r0, [r1, #16]

	( pxList->uxNumberOfItems )++;
    2d10:	6803      	ldr	r3, [r0, #0]
    2d12:	3301      	adds	r3, #1
    2d14:	6003      	str	r3, [r0, #0]
}
    2d16:	4770      	bx	lr

00002d18 <vListInsert>:
/*-----------------------------------------------------------*/

void vListInsert( List_t * const pxList, ListItem_t * const pxNewListItem )
{
    2d18:	b530      	push	{r4, r5, lr}
ListItem_t *pxIterator;
const TickType_t xValueOfInsertion = pxNewListItem->xItemValue;
    2d1a:	680c      	ldr	r4, [r1, #0]
			4) Using a queue or semaphore before it has been initialised or
			   before the scheduler has been started (are interrupts firing
			   before vTaskStartScheduler() has been called?).
		**********************************************************************/

		for( pxIterator = ( ListItem_t * ) &( pxList->xListEnd ); pxIterator->pxNext->xItemValue <= xValueOfInsertion; pxIterator = pxIterator->pxNext ) /*lint !e826 !e740 The mini list structure is used as the list end to save RAM.  This is checked and valid. */
    2d1c:	0002      	movs	r2, r0
    2d1e:	3208      	adds	r2, #8
	if( xValueOfInsertion == portMAX_DELAY )
    2d20:	1c63      	adds	r3, r4, #1
    2d22:	d102      	bne.n	2d2a <vListInsert+0x12>
		pxIterator = pxList->xListEnd.pxPrevious;
    2d24:	6902      	ldr	r2, [r0, #16]
    2d26:	e004      	b.n	2d32 <vListInsert+0x1a>
		for( pxIterator = ( ListItem_t * ) &( pxList->xListEnd ); pxIterator->pxNext->xItemValue <= xValueOfInsertion; pxIterator = pxIterator->pxNext ) /*lint !e826 !e740 The mini list structure is used as the list end to save RAM.  This is checked and valid. */
    2d28:	001a      	movs	r2, r3
    2d2a:	6853      	ldr	r3, [r2, #4]
    2d2c:	681d      	ldr	r5, [r3, #0]
    2d2e:	42ac      	cmp	r4, r5
    2d30:	d2fa      	bcs.n	2d28 <vListInsert+0x10>
			/* There is nothing to do here, just iterating to the wanted
			insertion position. */
		}
	}

	pxNewListItem->pxNext = pxIterator->pxNext;
    2d32:	6853      	ldr	r3, [r2, #4]
    2d34:	604b      	str	r3, [r1, #4]
	pxNewListItem->pxNext->pxPrevious = pxNewListItem;
    2d36:	6099      	str	r1, [r3, #8]
	pxNewListItem->pxPrevious = pxIterator;
    2d38:	608a      	str	r2, [r1, #8]
	pxIterator->pxNext = pxNewListItem;
    2d3a:	6051      	str	r1, [r2, #4]

	/* Remember which list the item is in.  This allows fast removal of the
	item later. */
	pxNewListItem->pvContainer = ( void * ) pxList;
    2d3c:	6108      	str	r0, [r1, #16]

	( pxList->uxNumberOfItems )++;
    2d3e:	6803      	ldr	r3, [r0, #0]
    2d40:	3301      	adds	r3, #1
    2d42:	6003      	str	r3, [r0, #0]
}
    2d44:	bd30      	pop	{r4, r5, pc}

00002d46 <uxListRemove>:

UBaseType_t uxListRemove( ListItem_t * const pxItemToRemove )
{
/* The list item knows which list it is in.  Obtain the list from the list
item. */
List_t * const pxList = ( List_t * ) pxItemToRemove->pvContainer;
    2d46:	6903      	ldr	r3, [r0, #16]

	pxItemToRemove->pxNext->pxPrevious = pxItemToRemove->pxPrevious;
    2d48:	6842      	ldr	r2, [r0, #4]
    2d4a:	6881      	ldr	r1, [r0, #8]
    2d4c:	6091      	str	r1, [r2, #8]
	pxItemToRemove->pxPrevious->pxNext = pxItemToRemove->pxNext;
    2d4e:	6882      	ldr	r2, [r0, #8]
    2d50:	6841      	ldr	r1, [r0, #4]
    2d52:	6051      	str	r1, [r2, #4]

	/* Only used during decision coverage testing. */
	mtCOVERAGE_TEST_DELAY();

	/* Make sure the index is left pointing to a valid item. */
	if( pxList->pxIndex == pxItemToRemove )
    2d54:	685a      	ldr	r2, [r3, #4]
    2d56:	4290      	cmp	r0, r2
    2d58:	d006      	beq.n	2d68 <uxListRemove+0x22>
	else
	{
		mtCOVERAGE_TEST_MARKER();
	}

	pxItemToRemove->pvContainer = NULL;
    2d5a:	2200      	movs	r2, #0
    2d5c:	6102      	str	r2, [r0, #16]
	( pxList->uxNumberOfItems )--;
    2d5e:	681a      	ldr	r2, [r3, #0]
    2d60:	3a01      	subs	r2, #1
    2d62:	601a      	str	r2, [r3, #0]

	return pxList->uxNumberOfItems;
    2d64:	6818      	ldr	r0, [r3, #0]
}
    2d66:	4770      	bx	lr
		pxList->pxIndex = pxItemToRemove->pxPrevious;
    2d68:	6882      	ldr	r2, [r0, #8]
    2d6a:	605a      	str	r2, [r3, #4]
    2d6c:	e7f5      	b.n	2d5a <uxListRemove+0x14>
	...

00002d70 <prvTaskExitError>:
	return pxTopOfStack;
}
/*-----------------------------------------------------------*/

static void prvTaskExitError( void )
{
    2d70:	b082      	sub	sp, #8
volatile uint32_t ulDummy = 0UL;
    2d72:	2300      	movs	r3, #0
    2d74:	9301      	str	r3, [sp, #4]
	its caller as there is nothing to return to.  If a task wants to exit it
	should instead call vTaskDelete( NULL ).

	Artificially force an assert() to be triggered if configASSERT() is
	defined, then stop here so application writers can catch the error. */
	configASSERT( uxCriticalNesting == ~0UL );
    2d76:	4b06      	ldr	r3, [pc, #24]	; (2d90 <prvTaskExitError+0x20>)
    2d78:	681b      	ldr	r3, [r3, #0]
    2d7a:	3301      	adds	r3, #1
    2d7c:	d001      	beq.n	2d82 <prvTaskExitError+0x12>
    2d7e:	b672      	cpsid	i
    2d80:	e7fe      	b.n	2d80 <prvTaskExitError+0x10>
	portDISABLE_INTERRUPTS();
    2d82:	b672      	cpsid	i
	while( ulDummy == 0 )
    2d84:	9b01      	ldr	r3, [sp, #4]
    2d86:	2b00      	cmp	r3, #0
    2d88:	d0fc      	beq.n	2d84 <prvTaskExitError+0x14>
		about code appearing after this function is called - making ulDummy
		volatile makes the compiler think the function could return and
		therefore not output an 'unreachable code' warning for code that appears
		after it. */
	}
}
    2d8a:	b002      	add	sp, #8
    2d8c:	4770      	bx	lr
    2d8e:	46c0      	nop			; (mov r8, r8)
    2d90:	20000028 	.word	0x20000028
	...

00002da0 <vPortStartFirstTask>:
void vPortStartFirstTask( void )
{
	/* The MSP stack is not reset as, unlike on M3/4 parts, there is no vector
	table offset register that can be used to locate the initial stack value.
	Not all M0 parts have the application vector table at address 0. */
	__asm volatile(
    2da0:	4a0b      	ldr	r2, [pc, #44]	; (2dd0 <pxCurrentTCBConst2>)
    2da2:	6813      	ldr	r3, [r2, #0]
    2da4:	6818      	ldr	r0, [r3, #0]
    2da6:	3020      	adds	r0, #32
    2da8:	f380 8809 	msr	PSP, r0
    2dac:	2002      	movs	r0, #2
    2dae:	f380 8814 	msr	CONTROL, r0
    2db2:	f3bf 8f6f 	isb	sy
    2db6:	bc3f      	pop	{r0, r1, r2, r3, r4, r5}
    2db8:	46ae      	mov	lr, r5
    2dba:	bc08      	pop	{r3}
    2dbc:	bc04      	pop	{r2}
    2dbe:	b662      	cpsie	i
    2dc0:	4718      	bx	r3
    2dc2:	46c0      	nop			; (mov r8, r8)
    2dc4:	46c0      	nop			; (mov r8, r8)
    2dc6:	46c0      	nop			; (mov r8, r8)
    2dc8:	46c0      	nop			; (mov r8, r8)
    2dca:	46c0      	nop			; (mov r8, r8)
    2dcc:	46c0      	nop			; (mov r8, r8)
    2dce:	46c0      	nop			; (mov r8, r8)

00002dd0 <pxCurrentTCBConst2>:
    2dd0:	200036d0 	.word	0x200036d0

00002dd4 <pxPortInitialiseStack>:
{
    2dd4:	b510      	push	{r4, lr}
	*pxTopOfStack = portINITIAL_XPSR;	/* xPSR */
    2dd6:	1f03      	subs	r3, r0, #4
    2dd8:	2480      	movs	r4, #128	; 0x80
    2dda:	0464      	lsls	r4, r4, #17
    2ddc:	601c      	str	r4, [r3, #0]
	*pxTopOfStack = ( StackType_t ) pxCode;	/* PC */
    2dde:	3b04      	subs	r3, #4
    2de0:	6019      	str	r1, [r3, #0]
	*pxTopOfStack = ( StackType_t ) portTASK_RETURN_ADDRESS;	/* LR */
    2de2:	3b04      	subs	r3, #4
    2de4:	4902      	ldr	r1, [pc, #8]	; (2df0 <pxPortInitialiseStack+0x1c>)
    2de6:	6019      	str	r1, [r3, #0]
	*pxTopOfStack = ( StackType_t ) pvParameters;	/* R0 */
    2de8:	3b14      	subs	r3, #20
    2dea:	601a      	str	r2, [r3, #0]
	pxTopOfStack -= 8; /* R11..R4. */
    2dec:	3840      	subs	r0, #64	; 0x40
}
    2dee:	bd10      	pop	{r4, pc}
    2df0:	00002d71 	.word	0x00002d71

00002df4 <SVC_Handler>:
}
    2df4:	4770      	bx	lr
	...

00002df8 <xPortStartScheduler>:

/*
 * See header file for description.
 */
BaseType_t xPortStartScheduler( void )
{
    2df8:	b570      	push	{r4, r5, r6, lr}
	/* Make PendSV, CallSV and SysTick the same priroity as the kernel. */
	*(portNVIC_SYSPRI2) |= portNVIC_PENDSV_PRI;
    2dfa:	4b13      	ldr	r3, [pc, #76]	; (2e48 <xPortStartScheduler+0x50>)
    2dfc:	6819      	ldr	r1, [r3, #0]
    2dfe:	22ff      	movs	r2, #255	; 0xff
    2e00:	0412      	lsls	r2, r2, #16
    2e02:	430a      	orrs	r2, r1
    2e04:	601a      	str	r2, [r3, #0]
	*(portNVIC_SYSPRI2) |= portNVIC_SYSTICK_PRI;
    2e06:	6819      	ldr	r1, [r3, #0]
    2e08:	22ff      	movs	r2, #255	; 0xff
    2e0a:	0612      	lsls	r2, r2, #24
    2e0c:	430a      	orrs	r2, r1
    2e0e:	601a      	str	r2, [r3, #0]
 * frequency.
 */
void prvSetupTimerInterrupt( void )
{
	/* Stop and reset the SysTick. */
	*(portNVIC_SYSTICK_CTRL) = 0UL;
    2e10:	4d0e      	ldr	r5, [pc, #56]	; (2e4c <xPortStartScheduler+0x54>)
    2e12:	2400      	movs	r4, #0
    2e14:	602c      	str	r4, [r5, #0]
	*(portNVIC_SYSTICK_CURRENT_VALUE) = 0UL;
    2e16:	4b0e      	ldr	r3, [pc, #56]	; (2e50 <xPortStartScheduler+0x58>)
    2e18:	601c      	str	r4, [r3, #0]

	/* Configure SysTick to interrupt at the requested rate. */
	*(portNVIC_SYSTICK_LOAD) = ( configCPU_CLOCK_HZ / configTICK_RATE_HZ ) - 1UL;
    2e1a:	2000      	movs	r0, #0
    2e1c:	4b0d      	ldr	r3, [pc, #52]	; (2e54 <xPortStartScheduler+0x5c>)
    2e1e:	4798      	blx	r3
    2e20:	21fa      	movs	r1, #250	; 0xfa
    2e22:	0089      	lsls	r1, r1, #2
    2e24:	4b0c      	ldr	r3, [pc, #48]	; (2e58 <xPortStartScheduler+0x60>)
    2e26:	4798      	blx	r3
    2e28:	3801      	subs	r0, #1
    2e2a:	4b0c      	ldr	r3, [pc, #48]	; (2e5c <xPortStartScheduler+0x64>)
    2e2c:	6018      	str	r0, [r3, #0]
	*(portNVIC_SYSTICK_CTRL) = portNVIC_SYSTICK_CLK | portNVIC_SYSTICK_INT | portNVIC_SYSTICK_ENABLE;
    2e2e:	2307      	movs	r3, #7
    2e30:	602b      	str	r3, [r5, #0]
	uxCriticalNesting = 0;
    2e32:	4b0b      	ldr	r3, [pc, #44]	; (2e60 <xPortStartScheduler+0x68>)
    2e34:	601c      	str	r4, [r3, #0]
	vPortStartFirstTask();
    2e36:	4b0b      	ldr	r3, [pc, #44]	; (2e64 <xPortStartScheduler+0x6c>)
    2e38:	4798      	blx	r3
	vTaskSwitchContext();
    2e3a:	4b0b      	ldr	r3, [pc, #44]	; (2e68 <xPortStartScheduler+0x70>)
    2e3c:	4798      	blx	r3
	prvTaskExitError();
    2e3e:	4b0b      	ldr	r3, [pc, #44]	; (2e6c <xPortStartScheduler+0x74>)
    2e40:	4798      	blx	r3
}
    2e42:	2000      	movs	r0, #0
    2e44:	bd70      	pop	{r4, r5, r6, pc}
    2e46:	46c0      	nop			; (mov r8, r8)
    2e48:	e000ed20 	.word	0xe000ed20
    2e4c:	e000e010 	.word	0xe000e010
    2e50:	e000e018 	.word	0xe000e018
    2e54:	00006885 	.word	0x00006885
    2e58:	00006f01 	.word	0x00006f01
    2e5c:	e000e014 	.word	0xe000e014
    2e60:	20000028 	.word	0x20000028
    2e64:	00002da1 	.word	0x00002da1
    2e68:	00004959 	.word	0x00004959
    2e6c:	00002d71 	.word	0x00002d71

00002e70 <vPortYield>:
	*( portNVIC_INT_CTRL ) = portNVIC_PENDSVSET;
    2e70:	2280      	movs	r2, #128	; 0x80
    2e72:	0552      	lsls	r2, r2, #21
    2e74:	4b01      	ldr	r3, [pc, #4]	; (2e7c <vPortYield+0xc>)
    2e76:	601a      	str	r2, [r3, #0]
}
    2e78:	4770      	bx	lr
    2e7a:	46c0      	nop			; (mov r8, r8)
    2e7c:	e000ed04 	.word	0xe000ed04

00002e80 <vPortEnterCritical>:
    portDISABLE_INTERRUPTS();
    2e80:	b672      	cpsid	i
    uxCriticalNesting++;
    2e82:	4a04      	ldr	r2, [pc, #16]	; (2e94 <vPortEnterCritical+0x14>)
    2e84:	6813      	ldr	r3, [r2, #0]
    2e86:	3301      	adds	r3, #1
    2e88:	6013      	str	r3, [r2, #0]
	__asm volatile( "dsb" ::: "memory" );
    2e8a:	f3bf 8f4f 	dsb	sy
	__asm volatile( "isb" );
    2e8e:	f3bf 8f6f 	isb	sy
}
    2e92:	4770      	bx	lr
    2e94:	20000028 	.word	0x20000028

00002e98 <vPortExitCritical>:
	configASSERT( uxCriticalNesting );
    2e98:	4b06      	ldr	r3, [pc, #24]	; (2eb4 <vPortExitCritical+0x1c>)
    2e9a:	681b      	ldr	r3, [r3, #0]
    2e9c:	2b00      	cmp	r3, #0
    2e9e:	d101      	bne.n	2ea4 <vPortExitCritical+0xc>
    2ea0:	b672      	cpsid	i
    2ea2:	e7fe      	b.n	2ea2 <vPortExitCritical+0xa>
    uxCriticalNesting--;
    2ea4:	3b01      	subs	r3, #1
    2ea6:	4a03      	ldr	r2, [pc, #12]	; (2eb4 <vPortExitCritical+0x1c>)
    2ea8:	6013      	str	r3, [r2, #0]
    if( uxCriticalNesting == 0 )
    2eaa:	2b00      	cmp	r3, #0
    2eac:	d100      	bne.n	2eb0 <vPortExitCritical+0x18>
        portENABLE_INTERRUPTS();
    2eae:	b662      	cpsie	i
}
    2eb0:	4770      	bx	lr
    2eb2:	46c0      	nop			; (mov r8, r8)
    2eb4:	20000028 	.word	0x20000028

00002eb8 <ulSetInterruptMaskFromISR>:
	__asm volatile(
    2eb8:	f3ef 8010 	mrs	r0, PRIMASK
    2ebc:	b672      	cpsid	i
    2ebe:	4770      	bx	lr

00002ec0 <vClearInterruptMaskFromISR>:
	__asm volatile(
    2ec0:	f380 8810 	msr	PRIMASK, r0
    2ec4:	4770      	bx	lr
	...

00002ed0 <PendSV_Handler>:
	__asm volatile
    2ed0:	f3ef 8009 	mrs	r0, PSP
    2ed4:	4b0e      	ldr	r3, [pc, #56]	; (2f10 <pxCurrentTCBConst>)
    2ed6:	681a      	ldr	r2, [r3, #0]
    2ed8:	3820      	subs	r0, #32
    2eda:	6010      	str	r0, [r2, #0]
    2edc:	c0f0      	stmia	r0!, {r4, r5, r6, r7}
    2ede:	4644      	mov	r4, r8
    2ee0:	464d      	mov	r5, r9
    2ee2:	4656      	mov	r6, sl
    2ee4:	465f      	mov	r7, fp
    2ee6:	c0f0      	stmia	r0!, {r4, r5, r6, r7}
    2ee8:	b508      	push	{r3, lr}
    2eea:	b672      	cpsid	i
    2eec:	f001 fd34 	bl	4958 <vTaskSwitchContext>
    2ef0:	b662      	cpsie	i
    2ef2:	bc0c      	pop	{r2, r3}
    2ef4:	6811      	ldr	r1, [r2, #0]
    2ef6:	6808      	ldr	r0, [r1, #0]
    2ef8:	3010      	adds	r0, #16
    2efa:	c8f0      	ldmia	r0!, {r4, r5, r6, r7}
    2efc:	46a0      	mov	r8, r4
    2efe:	46a9      	mov	r9, r5
    2f00:	46b2      	mov	sl, r6
    2f02:	46bb      	mov	fp, r7
    2f04:	f380 8809 	msr	PSP, r0
    2f08:	3820      	subs	r0, #32
    2f0a:	c8f0      	ldmia	r0!, {r4, r5, r6, r7}
    2f0c:	4718      	bx	r3
    2f0e:	46c0      	nop			; (mov r8, r8)

00002f10 <pxCurrentTCBConst>:
    2f10:	200036d0 	.word	0x200036d0

00002f14 <SysTick_Handler>:
{
    2f14:	b510      	push	{r4, lr}
	ulPreviousMask = portSET_INTERRUPT_MASK_FROM_ISR();
    2f16:	4b07      	ldr	r3, [pc, #28]	; (2f34 <SysTick_Handler+0x20>)
    2f18:	4798      	blx	r3
    2f1a:	0004      	movs	r4, r0
		if( xTaskIncrementTick() != pdFALSE )
    2f1c:	4b06      	ldr	r3, [pc, #24]	; (2f38 <SysTick_Handler+0x24>)
    2f1e:	4798      	blx	r3
    2f20:	2800      	cmp	r0, #0
    2f22:	d003      	beq.n	2f2c <SysTick_Handler+0x18>
			*(portNVIC_INT_CTRL) = portNVIC_PENDSVSET;
    2f24:	2280      	movs	r2, #128	; 0x80
    2f26:	0552      	lsls	r2, r2, #21
    2f28:	4b04      	ldr	r3, [pc, #16]	; (2f3c <SysTick_Handler+0x28>)
    2f2a:	601a      	str	r2, [r3, #0]
	portCLEAR_INTERRUPT_MASK_FROM_ISR( ulPreviousMask );
    2f2c:	0020      	movs	r0, r4
    2f2e:	4b04      	ldr	r3, [pc, #16]	; (2f40 <SysTick_Handler+0x2c>)
    2f30:	4798      	blx	r3
}
    2f32:	bd10      	pop	{r4, pc}
    2f34:	00002eb9 	.word	0x00002eb9
    2f38:	00004601 	.word	0x00004601
    2f3c:	e000ed04 	.word	0xe000ed04
    2f40:	00002ec1 	.word	0x00002ec1

00002f44 <pvPortMalloc>:
static size_t xNextFreeByte = ( size_t ) 0;

/*-----------------------------------------------------------*/

void *pvPortMalloc( size_t xWantedSize )
{
    2f44:	b570      	push	{r4, r5, r6, lr}
    2f46:	0004      	movs	r4, r0
static uint8_t *pucAlignedHeap = NULL;

	/* Ensure that blocks are always aligned to the required number of bytes. */
	#if( portBYTE_ALIGNMENT != 1 )
	{
		if( xWantedSize & portBYTE_ALIGNMENT_MASK )
    2f48:	0743      	lsls	r3, r0, #29
    2f4a:	d002      	beq.n	2f52 <pvPortMalloc+0xe>
		{
			/* Byte alignment required. */
			xWantedSize += ( portBYTE_ALIGNMENT - ( xWantedSize & portBYTE_ALIGNMENT_MASK ) );
    2f4c:	2307      	movs	r3, #7
    2f4e:	439c      	bics	r4, r3
    2f50:	3408      	adds	r4, #8
		}
	}
	#endif

	vTaskSuspendAll();
    2f52:	4b18      	ldr	r3, [pc, #96]	; (2fb4 <pvPortMalloc+0x70>)
    2f54:	4798      	blx	r3
	{
		if( pucAlignedHeap == NULL )
    2f56:	4b18      	ldr	r3, [pc, #96]	; (2fb8 <pvPortMalloc+0x74>)
    2f58:	681b      	ldr	r3, [r3, #0]
    2f5a:	2b00      	cmp	r3, #0
    2f5c:	d017      	beq.n	2f8e <pvPortMalloc+0x4a>
			/* Ensure the heap starts on a correctly aligned boundary. */
			pucAlignedHeap = ( uint8_t * ) ( ( ( portPOINTER_SIZE_TYPE ) &ucHeap[ portBYTE_ALIGNMENT ] ) & ( ~( ( portPOINTER_SIZE_TYPE ) portBYTE_ALIGNMENT_MASK ) ) );
		}

		/* Check there is enough room left for the allocation. */
		if( ( ( xNextFreeByte + xWantedSize ) < configADJUSTED_HEAP_SIZE ) &&
    2f5e:	4b17      	ldr	r3, [pc, #92]	; (2fbc <pvPortMalloc+0x78>)
    2f60:	681a      	ldr	r2, [r3, #0]
    2f62:	18a3      	adds	r3, r4, r2
    2f64:	4916      	ldr	r1, [pc, #88]	; (2fc0 <pvPortMalloc+0x7c>)
    2f66:	428b      	cmp	r3, r1
    2f68:	d818      	bhi.n	2f9c <pvPortMalloc+0x58>
    2f6a:	429a      	cmp	r2, r3
    2f6c:	d216      	bcs.n	2f9c <pvPortMalloc+0x58>
			( ( xNextFreeByte + xWantedSize ) > xNextFreeByte )	)/* Check for overflow. */
		{
			/* Return the next free byte then increment the index past this
			block. */
			pvReturn = pucAlignedHeap + xNextFreeByte;
    2f6e:	4912      	ldr	r1, [pc, #72]	; (2fb8 <pvPortMalloc+0x74>)
    2f70:	680d      	ldr	r5, [r1, #0]
    2f72:	18ad      	adds	r5, r5, r2
			xNextFreeByte += xWantedSize;
    2f74:	4a11      	ldr	r2, [pc, #68]	; (2fbc <pvPortMalloc+0x78>)
    2f76:	6013      	str	r3, [r2, #0]
		}

		traceMALLOC( pvReturn, xWantedSize );
    2f78:	2d00      	cmp	r5, #0
    2f7a:	d00f      	beq.n	2f9c <pvPortMalloc+0x58>
    2f7c:	0022      	movs	r2, r4
    2f7e:	0029      	movs	r1, r5
    2f80:	2094      	movs	r0, #148	; 0x94
    2f82:	4b10      	ldr	r3, [pc, #64]	; (2fc4 <pvPortMalloc+0x80>)
    2f84:	4798      	blx	r3
	}
	( void ) xTaskResumeAll();
    2f86:	4b10      	ldr	r3, [pc, #64]	; (2fc8 <pvPortMalloc+0x84>)
    2f88:	4798      	blx	r3
		}
	}
	#endif

	return pvReturn;
}
    2f8a:	0028      	movs	r0, r5
    2f8c:	bd70      	pop	{r4, r5, r6, pc}
			pucAlignedHeap = ( uint8_t * ) ( ( ( portPOINTER_SIZE_TYPE ) &ucHeap[ portBYTE_ALIGNMENT ] ) & ( ~( ( portPOINTER_SIZE_TYPE ) portBYTE_ALIGNMENT_MASK ) ) );
    2f8e:	2207      	movs	r2, #7
    2f90:	4b0e      	ldr	r3, [pc, #56]	; (2fcc <pvPortMalloc+0x88>)
    2f92:	3308      	adds	r3, #8
    2f94:	4393      	bics	r3, r2
    2f96:	4a08      	ldr	r2, [pc, #32]	; (2fb8 <pvPortMalloc+0x74>)
    2f98:	6013      	str	r3, [r2, #0]
    2f9a:	e7e0      	b.n	2f5e <pvPortMalloc+0x1a>
		traceMALLOC( pvReturn, xWantedSize );
    2f9c:	0022      	movs	r2, r4
    2f9e:	2100      	movs	r1, #0
    2fa0:	20e8      	movs	r0, #232	; 0xe8
    2fa2:	4b08      	ldr	r3, [pc, #32]	; (2fc4 <pvPortMalloc+0x80>)
    2fa4:	4798      	blx	r3
	( void ) xTaskResumeAll();
    2fa6:	4b08      	ldr	r3, [pc, #32]	; (2fc8 <pvPortMalloc+0x84>)
    2fa8:	4798      	blx	r3
			vApplicationMallocFailedHook();
    2faa:	4b09      	ldr	r3, [pc, #36]	; (2fd0 <pvPortMalloc+0x8c>)
    2fac:	4798      	blx	r3
    2fae:	2500      	movs	r5, #0
	return pvReturn;
    2fb0:	e7eb      	b.n	2f8a <pvPortMalloc+0x46>
    2fb2:	46c0      	nop			; (mov r8, r8)
    2fb4:	000045e5 	.word	0x000045e5
    2fb8:	20000400 	.word	0x20000400
    2fbc:	200036cc 	.word	0x200036cc
    2fc0:	000032bf 	.word	0x000032bf
    2fc4:	00002835 	.word	0x00002835
    2fc8:	0000478d 	.word	0x0000478d
    2fcc:	20000404 	.word	0x20000404
    2fd0:	00006ed9 	.word	0x00006ed9

00002fd4 <vPortFree>:
	heap_4.c for alternative implementations, and the memory management pages of
	http://www.FreeRTOS.org for more information. */
	( void ) pv;

	/* Force an assert as it is invalid to call this function. */
	configASSERT( pv == NULL );
    2fd4:	2800      	cmp	r0, #0
    2fd6:	d001      	beq.n	2fdc <vPortFree+0x8>
    2fd8:	b672      	cpsid	i
    2fda:	e7fe      	b.n	2fda <vPortFree+0x6>
}
    2fdc:	4770      	bx	lr
	...

00002fe0 <xPortGetFreeHeapSize>:
}
/*-----------------------------------------------------------*/

size_t xPortGetFreeHeapSize( void )
{
	return ( configADJUSTED_HEAP_SIZE - xNextFreeByte );
    2fe0:	4b02      	ldr	r3, [pc, #8]	; (2fec <xPortGetFreeHeapSize+0xc>)
    2fe2:	681b      	ldr	r3, [r3, #0]
    2fe4:	20cb      	movs	r0, #203	; 0xcb
    2fe6:	0180      	lsls	r0, r0, #6
    2fe8:	1ac0      	subs	r0, r0, r3
}
    2fea:	4770      	bx	lr
    2fec:	200036cc 	.word	0x200036cc

00002ff0 <prvIsQueueEmpty>:
	taskEXIT_CRITICAL();
}
/*-----------------------------------------------------------*/

static BaseType_t prvIsQueueEmpty( const Queue_t *pxQueue )
{
    2ff0:	b510      	push	{r4, lr}
    2ff2:	0004      	movs	r4, r0
BaseType_t xReturn;

	taskENTER_CRITICAL();
    2ff4:	4b03      	ldr	r3, [pc, #12]	; (3004 <prvIsQueueEmpty+0x14>)
    2ff6:	4798      	blx	r3
	{
		if( pxQueue->uxMessagesWaiting == ( UBaseType_t )  0 )
    2ff8:	6ba4      	ldr	r4, [r4, #56]	; 0x38
		else
		{
			xReturn = pdFALSE;
		}
	}
	taskEXIT_CRITICAL();
    2ffa:	4b03      	ldr	r3, [pc, #12]	; (3008 <prvIsQueueEmpty+0x18>)
    2ffc:	4798      	blx	r3
		if( pxQueue->uxMessagesWaiting == ( UBaseType_t )  0 )
    2ffe:	4260      	negs	r0, r4
    3000:	4160      	adcs	r0, r4

	return xReturn;
}
    3002:	bd10      	pop	{r4, pc}
    3004:	00002e81 	.word	0x00002e81
    3008:	00002e99 	.word	0x00002e99

0000300c <prvCopyDataToQueue>:
{
    300c:	b570      	push	{r4, r5, r6, lr}
    300e:	0004      	movs	r4, r0
    3010:	0016      	movs	r6, r2
	uxMessagesWaiting = pxQueue->uxMessagesWaiting;
    3012:	6b85      	ldr	r5, [r0, #56]	; 0x38
	if( pxQueue->uxItemSize == ( UBaseType_t ) 0 )
    3014:	6c02      	ldr	r2, [r0, #64]	; 0x40
    3016:	2a00      	cmp	r2, #0
    3018:	d10b      	bne.n	3032 <prvCopyDataToQueue+0x26>
BaseType_t xReturn = pdFALSE;
    301a:	2000      	movs	r0, #0
			if( pxQueue->uxQueueType == queueQUEUE_IS_MUTEX )
    301c:	6823      	ldr	r3, [r4, #0]
    301e:	4283      	cmp	r3, r0
    3020:	d104      	bne.n	302c <prvCopyDataToQueue+0x20>
				xReturn = xTaskPriorityDisinherit( ( void * ) pxQueue->pxMutexHolder );
    3022:	6860      	ldr	r0, [r4, #4]
    3024:	4b16      	ldr	r3, [pc, #88]	; (3080 <prvCopyDataToQueue+0x74>)
    3026:	4798      	blx	r3
				pxQueue->pxMutexHolder = NULL;
    3028:	2300      	movs	r3, #0
    302a:	6063      	str	r3, [r4, #4]
	pxQueue->uxMessagesWaiting = uxMessagesWaiting + ( UBaseType_t ) 1;
    302c:	3501      	adds	r5, #1
    302e:	63a5      	str	r5, [r4, #56]	; 0x38
}
    3030:	bd70      	pop	{r4, r5, r6, pc}
	else if( xPosition == queueSEND_TO_BACK )
    3032:	2e00      	cmp	r6, #0
    3034:	d10e      	bne.n	3054 <prvCopyDataToQueue+0x48>
		( void ) memcpy( ( void * ) pxQueue->pcWriteTo, pvItemToQueue, ( size_t ) pxQueue->uxItemSize ); /*lint !e961 !e418 MISRA exception as the casts are only redundant for some ports, plus previous logic ensures a null pointer can only be passed to memcpy() if the copy size is 0. */
    3036:	6880      	ldr	r0, [r0, #8]
    3038:	4b12      	ldr	r3, [pc, #72]	; (3084 <prvCopyDataToQueue+0x78>)
    303a:	4798      	blx	r3
		pxQueue->pcWriteTo += pxQueue->uxItemSize;
    303c:	68a3      	ldr	r3, [r4, #8]
    303e:	6c22      	ldr	r2, [r4, #64]	; 0x40
    3040:	4694      	mov	ip, r2
    3042:	4463      	add	r3, ip
    3044:	60a3      	str	r3, [r4, #8]
BaseType_t xReturn = pdFALSE;
    3046:	2000      	movs	r0, #0
		if( pxQueue->pcWriteTo >= pxQueue->pcTail ) /*lint !e946 MISRA exception justified as comparison of pointers is the cleanest solution. */
    3048:	6862      	ldr	r2, [r4, #4]
    304a:	4293      	cmp	r3, r2
    304c:	d3ee      	bcc.n	302c <prvCopyDataToQueue+0x20>
			pxQueue->pcWriteTo = pxQueue->pcHead;
    304e:	6823      	ldr	r3, [r4, #0]
    3050:	60a3      	str	r3, [r4, #8]
    3052:	e7eb      	b.n	302c <prvCopyDataToQueue+0x20>
		( void ) memcpy( ( void * ) pxQueue->u.pcReadFrom, pvItemToQueue, ( size_t ) pxQueue->uxItemSize ); /*lint !e961 MISRA exception as the casts are only redundant for some ports. */
    3054:	68c0      	ldr	r0, [r0, #12]
    3056:	4b0b      	ldr	r3, [pc, #44]	; (3084 <prvCopyDataToQueue+0x78>)
    3058:	4798      	blx	r3
		pxQueue->u.pcReadFrom -= pxQueue->uxItemSize;
    305a:	6c23      	ldr	r3, [r4, #64]	; 0x40
    305c:	425b      	negs	r3, r3
    305e:	68e2      	ldr	r2, [r4, #12]
    3060:	18d2      	adds	r2, r2, r3
    3062:	60e2      	str	r2, [r4, #12]
		if( pxQueue->u.pcReadFrom < pxQueue->pcHead ) /*lint !e946 MISRA exception justified as comparison of pointers is the cleanest solution. */
    3064:	6821      	ldr	r1, [r4, #0]
    3066:	428a      	cmp	r2, r1
    3068:	d203      	bcs.n	3072 <prvCopyDataToQueue+0x66>
			pxQueue->u.pcReadFrom = ( pxQueue->pcTail - pxQueue->uxItemSize );
    306a:	6862      	ldr	r2, [r4, #4]
    306c:	4694      	mov	ip, r2
    306e:	4463      	add	r3, ip
    3070:	60e3      	str	r3, [r4, #12]
BaseType_t xReturn = pdFALSE;
    3072:	2000      	movs	r0, #0
		if( xPosition == queueOVERWRITE )
    3074:	2e02      	cmp	r6, #2
    3076:	d1d9      	bne.n	302c <prvCopyDataToQueue+0x20>
			if( uxMessagesWaiting > ( UBaseType_t ) 0 )
    3078:	4285      	cmp	r5, r0
    307a:	d0d7      	beq.n	302c <prvCopyDataToQueue+0x20>
				--uxMessagesWaiting;
    307c:	3d01      	subs	r5, #1
    307e:	e7d5      	b.n	302c <prvCopyDataToQueue+0x20>
    3080:	00004edd 	.word	0x00004edd
    3084:	00008cb1 	.word	0x00008cb1

00003088 <prvNotifyQueueSetContainer>:
/*-----------------------------------------------------------*/

#if ( configUSE_QUEUE_SETS == 1 )

	static BaseType_t prvNotifyQueueSetContainer( const Queue_t * const pxQueue, const BaseType_t xCopyPosition )
	{
    3088:	b5f0      	push	{r4, r5, r6, r7, lr}
    308a:	46ce      	mov	lr, r9
    308c:	4647      	mov	r7, r8
    308e:	b580      	push	{r7, lr}
    3090:	b083      	sub	sp, #12
    3092:	9001      	str	r0, [sp, #4]
    3094:	9100      	str	r1, [sp, #0]
	Queue_t *pxQueueSetContainer = pxQueue->pxQueueSetContainer;
    3096:	6c84      	ldr	r4, [r0, #72]	; 0x48
	BaseType_t xReturn = pdFALSE;

		/* This function must be called form a critical section. */

		configASSERT( pxQueueSetContainer );
    3098:	2c00      	cmp	r4, #0
    309a:	d005      	beq.n	30a8 <prvNotifyQueueSetContainer+0x20>
		configASSERT( pxQueueSetContainer->uxMessagesWaiting < pxQueueSetContainer->uxLength );
    309c:	6ba2      	ldr	r2, [r4, #56]	; 0x38
    309e:	6be3      	ldr	r3, [r4, #60]	; 0x3c
    30a0:	429a      	cmp	r2, r3
    30a2:	d303      	bcc.n	30ac <prvNotifyQueueSetContainer+0x24>
    30a4:	b672      	cpsid	i
    30a6:	e7fe      	b.n	30a6 <prvNotifyQueueSetContainer+0x1e>
		configASSERT( pxQueueSetContainer );
    30a8:	b672      	cpsid	i
    30aa:	e7fe      	b.n	30aa <prvNotifyQueueSetContainer+0x22>

		if( pxQueueSetContainer->uxMessagesWaiting < pxQueueSetContainer->uxLength )
    30ac:	6ba2      	ldr	r2, [r4, #56]	; 0x38
	BaseType_t xReturn = pdFALSE;
    30ae:	2600      	movs	r6, #0
		if( pxQueueSetContainer->uxMessagesWaiting < pxQueueSetContainer->uxLength )
    30b0:	4293      	cmp	r3, r2
    30b2:	d805      	bhi.n	30c0 <prvNotifyQueueSetContainer+0x38>
		{
			mtCOVERAGE_TEST_MARKER();
		}

		return xReturn;
	}
    30b4:	0030      	movs	r0, r6
    30b6:	b003      	add	sp, #12
    30b8:	bc0c      	pop	{r2, r3}
    30ba:	4690      	mov	r8, r2
    30bc:	4699      	mov	r9, r3
    30be:	bdf0      	pop	{r4, r5, r6, r7, pc}
			const int8_t cTxLock = pxQueueSetContainer->cTxLock;
    30c0:	2345      	movs	r3, #69	; 0x45
    30c2:	5ce5      	ldrb	r5, [r4, r3]
    30c4:	b26d      	sxtb	r5, r5
			traceQUEUE_SEND( pxQueueSetContainer );
    30c6:	4b2c      	ldr	r3, [pc, #176]	; (3178 <prvNotifyQueueSetContainer+0xf0>)
    30c8:	4798      	blx	r3
    30ca:	4b2c      	ldr	r3, [pc, #176]	; (317c <prvNotifyQueueSetContainer+0xf4>)
    30cc:	4798      	blx	r3
    30ce:	4b2c      	ldr	r3, [pc, #176]	; (3180 <prvNotifyQueueSetContainer+0xf8>)
    30d0:	881b      	ldrh	r3, [r3, #0]
    30d2:	4203      	tst	r3, r0
    30d4:	d01e      	beq.n	3114 <prvNotifyQueueSetContainer+0x8c>
    30d6:	0020      	movs	r0, r4
    30d8:	4b2a      	ldr	r3, [pc, #168]	; (3184 <prvNotifyQueueSetContainer+0xfc>)
    30da:	4798      	blx	r3
    30dc:	4b28      	ldr	r3, [pc, #160]	; (3180 <prvNotifyQueueSetContainer+0xf8>)
    30de:	881b      	ldrh	r3, [r3, #0]
    30e0:	4203      	tst	r3, r0
    30e2:	d017      	beq.n	3114 <prvNotifyQueueSetContainer+0x8c>
    30e4:	3625      	adds	r6, #37	; 0x25
    30e6:	9b00      	ldr	r3, [sp, #0]
    30e8:	2b00      	cmp	r3, #0
    30ea:	d106      	bne.n	30fa <prvNotifyQueueSetContainer+0x72>
    30ec:	0020      	movs	r0, r4
    30ee:	4b26      	ldr	r3, [pc, #152]	; (3188 <prvNotifyQueueSetContainer+0x100>)
    30f0:	4798      	blx	r3
    30f2:	4b26      	ldr	r3, [pc, #152]	; (318c <prvNotifyQueueSetContainer+0x104>)
    30f4:	5c1e      	ldrb	r6, [r3, r0]
    30f6:	3620      	adds	r6, #32
    30f8:	b2f6      	uxtb	r6, r6
    30fa:	0020      	movs	r0, r4
    30fc:	4b22      	ldr	r3, [pc, #136]	; (3188 <prvNotifyQueueSetContainer+0x100>)
    30fe:	4798      	blx	r3
    3100:	4b22      	ldr	r3, [pc, #136]	; (318c <prvNotifyQueueSetContainer+0x104>)
    3102:	5c1f      	ldrb	r7, [r3, r0]
    3104:	0020      	movs	r0, r4
    3106:	4b22      	ldr	r3, [pc, #136]	; (3190 <prvNotifyQueueSetContainer+0x108>)
    3108:	4798      	blx	r3
    310a:	b2c2      	uxtb	r2, r0
    310c:	0039      	movs	r1, r7
    310e:	0030      	movs	r0, r6
    3110:	4b20      	ldr	r3, [pc, #128]	; (3194 <prvNotifyQueueSetContainer+0x10c>)
    3112:	4798      	blx	r3
    3114:	0020      	movs	r0, r4
    3116:	4f1c      	ldr	r7, [pc, #112]	; (3188 <prvNotifyQueueSetContainer+0x100>)
    3118:	47b8      	blx	r7
    311a:	4e1c      	ldr	r6, [pc, #112]	; (318c <prvNotifyQueueSetContainer+0x104>)
    311c:	5c33      	ldrb	r3, [r6, r0]
    311e:	4698      	mov	r8, r3
    3120:	0020      	movs	r0, r4
    3122:	4b1b      	ldr	r3, [pc, #108]	; (3190 <prvNotifyQueueSetContainer+0x108>)
    3124:	4798      	blx	r3
    3126:	b2c3      	uxtb	r3, r0
    3128:	4699      	mov	r9, r3
    312a:	0020      	movs	r0, r4
    312c:	47b8      	blx	r7
    312e:	5c33      	ldrb	r3, [r6, r0]
    3130:	2b02      	cmp	r3, #2
    3132:	d019      	beq.n	3168 <prvNotifyQueueSetContainer+0xe0>
    3134:	6ba2      	ldr	r2, [r4, #56]	; 0x38
    3136:	3201      	adds	r2, #1
    3138:	b2d2      	uxtb	r2, r2
    313a:	4649      	mov	r1, r9
    313c:	4640      	mov	r0, r8
    313e:	4b16      	ldr	r3, [pc, #88]	; (3198 <prvNotifyQueueSetContainer+0x110>)
    3140:	4798      	blx	r3
			xReturn = prvCopyDataToQueue( pxQueueSetContainer, &pxQueue, xCopyPosition );
    3142:	9a00      	ldr	r2, [sp, #0]
    3144:	a901      	add	r1, sp, #4
    3146:	0020      	movs	r0, r4
    3148:	4b14      	ldr	r3, [pc, #80]	; (319c <prvNotifyQueueSetContainer+0x114>)
    314a:	4798      	blx	r3
    314c:	0006      	movs	r6, r0
			if( cTxLock == queueUNLOCKED )
    314e:	1c6b      	adds	r3, r5, #1
    3150:	d10c      	bne.n	316c <prvNotifyQueueSetContainer+0xe4>
				if( listLIST_IS_EMPTY( &( pxQueueSetContainer->xTasksWaitingToReceive ) ) == pdFALSE )
    3152:	6a63      	ldr	r3, [r4, #36]	; 0x24
    3154:	2b00      	cmp	r3, #0
    3156:	d0ad      	beq.n	30b4 <prvNotifyQueueSetContainer+0x2c>
					if( xTaskRemoveFromEventList( &( pxQueueSetContainer->xTasksWaitingToReceive ) ) != pdFALSE )
    3158:	0020      	movs	r0, r4
    315a:	3024      	adds	r0, #36	; 0x24
    315c:	4b10      	ldr	r3, [pc, #64]	; (31a0 <prvNotifyQueueSetContainer+0x118>)
    315e:	4798      	blx	r3
    3160:	2800      	cmp	r0, #0
    3162:	d0a7      	beq.n	30b4 <prvNotifyQueueSetContainer+0x2c>
						xReturn = pdTRUE;
    3164:	2601      	movs	r6, #1
    3166:	e7a5      	b.n	30b4 <prvNotifyQueueSetContainer+0x2c>
			traceQUEUE_SEND( pxQueueSetContainer );
    3168:	2200      	movs	r2, #0
    316a:	e7e6      	b.n	313a <prvNotifyQueueSetContainer+0xb2>
				pxQueueSetContainer->cTxLock = ( int8_t ) ( cTxLock + 1 );
    316c:	3501      	adds	r5, #1
    316e:	b26d      	sxtb	r5, r5
    3170:	2345      	movs	r3, #69	; 0x45
    3172:	54e5      	strb	r5, [r4, r3]
    3174:	e79e      	b.n	30b4 <prvNotifyQueueSetContainer+0x2c>
    3176:	46c0      	nop			; (mov r8, r8)
    3178:	00001cc9 	.word	0x00001cc9
    317c:	00001c11 	.word	0x00001c11
    3180:	20000020 	.word	0x20000020
    3184:	00001c75 	.word	0x00001c75
    3188:	00001bf5 	.word	0x00001bf5
    318c:	20000018 	.word	0x20000018
    3190:	00001c65 	.word	0x00001c65
    3194:	00002901 	.word	0x00002901
    3198:	000023d5 	.word	0x000023d5
    319c:	0000300d 	.word	0x0000300d
    31a0:	00004c3d 	.word	0x00004c3d

000031a4 <prvCopyDataFromQueue>:
{
    31a4:	b510      	push	{r4, lr}
    31a6:	000c      	movs	r4, r1
	if( pxQueue->uxItemSize != ( UBaseType_t ) 0 )
    31a8:	6c02      	ldr	r2, [r0, #64]	; 0x40
    31aa:	2a00      	cmp	r2, #0
    31ac:	d00b      	beq.n	31c6 <prvCopyDataFromQueue+0x22>
		pxQueue->u.pcReadFrom += pxQueue->uxItemSize;
    31ae:	68c3      	ldr	r3, [r0, #12]
    31b0:	189b      	adds	r3, r3, r2
    31b2:	60c3      	str	r3, [r0, #12]
		if( pxQueue->u.pcReadFrom >= pxQueue->pcTail ) /*lint !e946 MISRA exception justified as use of the relational operator is the cleanest solutions. */
    31b4:	6841      	ldr	r1, [r0, #4]
    31b6:	428b      	cmp	r3, r1
    31b8:	d301      	bcc.n	31be <prvCopyDataFromQueue+0x1a>
			pxQueue->u.pcReadFrom = pxQueue->pcHead;
    31ba:	6803      	ldr	r3, [r0, #0]
    31bc:	60c3      	str	r3, [r0, #12]
		( void ) memcpy( ( void * ) pvBuffer, ( void * ) pxQueue->u.pcReadFrom, ( size_t ) pxQueue->uxItemSize ); /*lint !e961 !e418 MISRA exception as the casts are only redundant for some ports.  Also previous logic ensures a null pointer can only be passed to memcpy() when the count is 0. */
    31be:	68c1      	ldr	r1, [r0, #12]
    31c0:	0020      	movs	r0, r4
    31c2:	4b01      	ldr	r3, [pc, #4]	; (31c8 <prvCopyDataFromQueue+0x24>)
    31c4:	4798      	blx	r3
}
    31c6:	bd10      	pop	{r4, pc}
    31c8:	00008cb1 	.word	0x00008cb1

000031cc <prvUnlockQueue>:
{
    31cc:	b5f8      	push	{r3, r4, r5, r6, r7, lr}
    31ce:	0007      	movs	r7, r0
	taskENTER_CRITICAL();
    31d0:	4b25      	ldr	r3, [pc, #148]	; (3268 <prvUnlockQueue+0x9c>)
    31d2:	4798      	blx	r3
		int8_t cTxLock = pxQueue->cTxLock;
    31d4:	2345      	movs	r3, #69	; 0x45
    31d6:	5cfc      	ldrb	r4, [r7, r3]
    31d8:	b264      	sxtb	r4, r4
		while( cTxLock > queueLOCKED_UNMODIFIED )
    31da:	2c00      	cmp	r4, #0
    31dc:	dd1c      	ble.n	3218 <prvUnlockQueue+0x4c>
					if( prvNotifyQueueSetContainer( pxQueue, queueSEND_TO_BACK ) != pdFALSE )
    31de:	4e23      	ldr	r6, [pc, #140]	; (326c <prvUnlockQueue+0xa0>)
						if( xTaskRemoveFromEventList( &( pxQueue->xTasksWaitingToReceive ) ) != pdFALSE )
    31e0:	4d23      	ldr	r5, [pc, #140]	; (3270 <prvUnlockQueue+0xa4>)
    31e2:	e00b      	b.n	31fc <prvUnlockQueue+0x30>
					if( listLIST_IS_EMPTY( &( pxQueue->xTasksWaitingToReceive ) ) == pdFALSE )
    31e4:	6a7b      	ldr	r3, [r7, #36]	; 0x24
    31e6:	2b00      	cmp	r3, #0
    31e8:	d016      	beq.n	3218 <prvUnlockQueue+0x4c>
						if( xTaskRemoveFromEventList( &( pxQueue->xTasksWaitingToReceive ) ) != pdFALSE )
    31ea:	0038      	movs	r0, r7
    31ec:	3024      	adds	r0, #36	; 0x24
    31ee:	47a8      	blx	r5
    31f0:	2800      	cmp	r0, #0
    31f2:	d10e      	bne.n	3212 <prvUnlockQueue+0x46>
    31f4:	3c01      	subs	r4, #1
    31f6:	b264      	sxtb	r4, r4
		while( cTxLock > queueLOCKED_UNMODIFIED )
    31f8:	2c00      	cmp	r4, #0
    31fa:	d00d      	beq.n	3218 <prvUnlockQueue+0x4c>
				if( pxQueue->pxQueueSetContainer != NULL )
    31fc:	6cbb      	ldr	r3, [r7, #72]	; 0x48
    31fe:	2b00      	cmp	r3, #0
    3200:	d0f0      	beq.n	31e4 <prvUnlockQueue+0x18>
					if( prvNotifyQueueSetContainer( pxQueue, queueSEND_TO_BACK ) != pdFALSE )
    3202:	2100      	movs	r1, #0
    3204:	0038      	movs	r0, r7
    3206:	47b0      	blx	r6
    3208:	2800      	cmp	r0, #0
    320a:	d0f3      	beq.n	31f4 <prvUnlockQueue+0x28>
						vTaskMissedYield();
    320c:	4b19      	ldr	r3, [pc, #100]	; (3274 <prvUnlockQueue+0xa8>)
    320e:	4798      	blx	r3
    3210:	e7f0      	b.n	31f4 <prvUnlockQueue+0x28>
							vTaskMissedYield();
    3212:	4b18      	ldr	r3, [pc, #96]	; (3274 <prvUnlockQueue+0xa8>)
    3214:	4798      	blx	r3
    3216:	e7ed      	b.n	31f4 <prvUnlockQueue+0x28>
		pxQueue->cTxLock = queueUNLOCKED;
    3218:	22ff      	movs	r2, #255	; 0xff
    321a:	2345      	movs	r3, #69	; 0x45
    321c:	54fa      	strb	r2, [r7, r3]
	taskEXIT_CRITICAL();
    321e:	4b16      	ldr	r3, [pc, #88]	; (3278 <prvUnlockQueue+0xac>)
    3220:	4798      	blx	r3
	taskENTER_CRITICAL();
    3222:	4b11      	ldr	r3, [pc, #68]	; (3268 <prvUnlockQueue+0x9c>)
    3224:	4798      	blx	r3
		int8_t cRxLock = pxQueue->cRxLock;
    3226:	2344      	movs	r3, #68	; 0x44
    3228:	5cfc      	ldrb	r4, [r7, r3]
    322a:	b264      	sxtb	r4, r4
		while( cRxLock > queueLOCKED_UNMODIFIED )
    322c:	2c00      	cmp	r4, #0
    322e:	dd14      	ble.n	325a <prvUnlockQueue+0x8e>
			if( listLIST_IS_EMPTY( &( pxQueue->xTasksWaitingToSend ) ) == pdFALSE )
    3230:	693b      	ldr	r3, [r7, #16]
    3232:	2b00      	cmp	r3, #0
    3234:	d011      	beq.n	325a <prvUnlockQueue+0x8e>
				if( xTaskRemoveFromEventList( &( pxQueue->xTasksWaitingToSend ) ) != pdFALSE )
    3236:	003d      	movs	r5, r7
    3238:	3510      	adds	r5, #16
    323a:	4e0d      	ldr	r6, [pc, #52]	; (3270 <prvUnlockQueue+0xa4>)
    323c:	e006      	b.n	324c <prvUnlockQueue+0x80>
    323e:	3c01      	subs	r4, #1
    3240:	b264      	sxtb	r4, r4
		while( cRxLock > queueLOCKED_UNMODIFIED )
    3242:	2c00      	cmp	r4, #0
    3244:	d009      	beq.n	325a <prvUnlockQueue+0x8e>
			if( listLIST_IS_EMPTY( &( pxQueue->xTasksWaitingToSend ) ) == pdFALSE )
    3246:	693b      	ldr	r3, [r7, #16]
    3248:	2b00      	cmp	r3, #0
    324a:	d006      	beq.n	325a <prvUnlockQueue+0x8e>
				if( xTaskRemoveFromEventList( &( pxQueue->xTasksWaitingToSend ) ) != pdFALSE )
    324c:	0028      	movs	r0, r5
    324e:	47b0      	blx	r6
    3250:	2800      	cmp	r0, #0
    3252:	d0f4      	beq.n	323e <prvUnlockQueue+0x72>
					vTaskMissedYield();
    3254:	4b07      	ldr	r3, [pc, #28]	; (3274 <prvUnlockQueue+0xa8>)
    3256:	4798      	blx	r3
    3258:	e7f1      	b.n	323e <prvUnlockQueue+0x72>
		pxQueue->cRxLock = queueUNLOCKED;
    325a:	22ff      	movs	r2, #255	; 0xff
    325c:	2344      	movs	r3, #68	; 0x44
    325e:	54fa      	strb	r2, [r7, r3]
	taskEXIT_CRITICAL();
    3260:	4b05      	ldr	r3, [pc, #20]	; (3278 <prvUnlockQueue+0xac>)
    3262:	4798      	blx	r3
}
    3264:	bdf8      	pop	{r3, r4, r5, r6, r7, pc}
    3266:	46c0      	nop			; (mov r8, r8)
    3268:	00002e81 	.word	0x00002e81
    326c:	00003089 	.word	0x00003089
    3270:	00004c3d 	.word	0x00004c3d
    3274:	00004d79 	.word	0x00004d79
    3278:	00002e99 	.word	0x00002e99

0000327c <xQueueGenericReset>:
{
    327c:	b570      	push	{r4, r5, r6, lr}
    327e:	0004      	movs	r4, r0
    3280:	000d      	movs	r5, r1
	configASSERT( pxQueue );
    3282:	2800      	cmp	r0, #0
    3284:	d021      	beq.n	32ca <xQueueGenericReset+0x4e>
	taskENTER_CRITICAL();
    3286:	4b17      	ldr	r3, [pc, #92]	; (32e4 <xQueueGenericReset+0x68>)
    3288:	4798      	blx	r3
		pxQueue->pcTail = pxQueue->pcHead + ( pxQueue->uxLength * pxQueue->uxItemSize );
    328a:	6822      	ldr	r2, [r4, #0]
    328c:	6c21      	ldr	r1, [r4, #64]	; 0x40
    328e:	6be3      	ldr	r3, [r4, #60]	; 0x3c
    3290:	434b      	muls	r3, r1
    3292:	18d0      	adds	r0, r2, r3
    3294:	6060      	str	r0, [r4, #4]
		pxQueue->uxMessagesWaiting = ( UBaseType_t ) 0U;
    3296:	2000      	movs	r0, #0
    3298:	63a0      	str	r0, [r4, #56]	; 0x38
		pxQueue->pcWriteTo = pxQueue->pcHead;
    329a:	60a2      	str	r2, [r4, #8]
		pxQueue->u.pcReadFrom = pxQueue->pcHead + ( ( pxQueue->uxLength - ( UBaseType_t ) 1U ) * pxQueue->uxItemSize );
    329c:	1a5b      	subs	r3, r3, r1
    329e:	18d3      	adds	r3, r2, r3
    32a0:	60e3      	str	r3, [r4, #12]
		pxQueue->cRxLock = queueUNLOCKED;
    32a2:	23ff      	movs	r3, #255	; 0xff
    32a4:	2244      	movs	r2, #68	; 0x44
    32a6:	54a3      	strb	r3, [r4, r2]
		pxQueue->cTxLock = queueUNLOCKED;
    32a8:	3201      	adds	r2, #1
    32aa:	54a3      	strb	r3, [r4, r2]
		if( xNewQueue == pdFALSE )
    32ac:	2d00      	cmp	r5, #0
    32ae:	d111      	bne.n	32d4 <xQueueGenericReset+0x58>
			if( listLIST_IS_EMPTY( &( pxQueue->xTasksWaitingToSend ) ) == pdFALSE )
    32b0:	6923      	ldr	r3, [r4, #16]
    32b2:	2b00      	cmp	r3, #0
    32b4:	d005      	beq.n	32c2 <xQueueGenericReset+0x46>
				if( xTaskRemoveFromEventList( &( pxQueue->xTasksWaitingToSend ) ) != pdFALSE )
    32b6:	0020      	movs	r0, r4
    32b8:	3010      	adds	r0, #16
    32ba:	4b0b      	ldr	r3, [pc, #44]	; (32e8 <xQueueGenericReset+0x6c>)
    32bc:	4798      	blx	r3
    32be:	2800      	cmp	r0, #0
    32c0:	d105      	bne.n	32ce <xQueueGenericReset+0x52>
	taskEXIT_CRITICAL();
    32c2:	4b0a      	ldr	r3, [pc, #40]	; (32ec <xQueueGenericReset+0x70>)
    32c4:	4798      	blx	r3
}
    32c6:	2001      	movs	r0, #1
    32c8:	bd70      	pop	{r4, r5, r6, pc}
	configASSERT( pxQueue );
    32ca:	b672      	cpsid	i
    32cc:	e7fe      	b.n	32cc <xQueueGenericReset+0x50>
					queueYIELD_IF_USING_PREEMPTION();
    32ce:	4b08      	ldr	r3, [pc, #32]	; (32f0 <xQueueGenericReset+0x74>)
    32d0:	4798      	blx	r3
    32d2:	e7f6      	b.n	32c2 <xQueueGenericReset+0x46>
			vListInitialise( &( pxQueue->xTasksWaitingToSend ) );
    32d4:	0020      	movs	r0, r4
    32d6:	3010      	adds	r0, #16
    32d8:	4d06      	ldr	r5, [pc, #24]	; (32f4 <xQueueGenericReset+0x78>)
    32da:	47a8      	blx	r5
			vListInitialise( &( pxQueue->xTasksWaitingToReceive ) );
    32dc:	0020      	movs	r0, r4
    32de:	3024      	adds	r0, #36	; 0x24
    32e0:	47a8      	blx	r5
    32e2:	e7ee      	b.n	32c2 <xQueueGenericReset+0x46>
    32e4:	00002e81 	.word	0x00002e81
    32e8:	00004c3d 	.word	0x00004c3d
    32ec:	00002e99 	.word	0x00002e99
    32f0:	00002e71 	.word	0x00002e71
    32f4:	00002ce5 	.word	0x00002ce5

000032f8 <xQueueGenericCreate>:
	{
    32f8:	b5f8      	push	{r3, r4, r5, r6, r7, lr}
    32fa:	0006      	movs	r6, r0
    32fc:	000d      	movs	r5, r1
    32fe:	0017      	movs	r7, r2
		configASSERT( uxQueueLength > ( UBaseType_t ) 0 );
    3300:	2800      	cmp	r0, #0
    3302:	d101      	bne.n	3308 <xQueueGenericCreate+0x10>
    3304:	b672      	cpsid	i
    3306:	e7fe      	b.n	3306 <xQueueGenericCreate+0xe>
			xQueueSizeInBytes = ( size_t ) ( uxQueueLength * uxItemSize ); /*lint !e961 MISRA exception as the casts are only redundant for some ports. */
    3308:	0008      	movs	r0, r1
    330a:	4370      	muls	r0, r6
		pxNewQueue = ( Queue_t * ) pvPortMalloc( sizeof( Queue_t ) + xQueueSizeInBytes );
    330c:	3054      	adds	r0, #84	; 0x54
    330e:	4b38      	ldr	r3, [pc, #224]	; (33f0 <xQueueGenericCreate+0xf8>)
    3310:	4798      	blx	r3
    3312:	1e04      	subs	r4, r0, #0
		if( pxNewQueue != NULL )
    3314:	d05b      	beq.n	33ce <xQueueGenericCreate+0xd6>
	if( uxItemSize == ( UBaseType_t ) 0 )
    3316:	2d00      	cmp	r5, #0
    3318:	d13b      	bne.n	3392 <xQueueGenericCreate+0x9a>
		pxNewQueue->pcHead = ( int8_t * ) pxNewQueue;
    331a:	6020      	str	r0, [r4, #0]
	pxNewQueue->uxLength = uxQueueLength;
    331c:	63e6      	str	r6, [r4, #60]	; 0x3c
	pxNewQueue->uxItemSize = uxItemSize;
    331e:	6425      	str	r5, [r4, #64]	; 0x40
	( void ) xQueueGenericReset( pxNewQueue, pdTRUE );
    3320:	2101      	movs	r1, #1
    3322:	0020      	movs	r0, r4
    3324:	4b33      	ldr	r3, [pc, #204]	; (33f4 <xQueueGenericCreate+0xfc>)
    3326:	4798      	blx	r3
		pxNewQueue->ucQueueType = ucQueueType;
    3328:	2350      	movs	r3, #80	; 0x50
    332a:	54e7      	strb	r7, [r4, r3]
		pxNewQueue->pxQueueSetContainer = NULL;
    332c:	2300      	movs	r3, #0
    332e:	64a3      	str	r3, [r4, #72]	; 0x48
	traceQUEUE_CREATE( pxNewQueue );
    3330:	0020      	movs	r0, r4
    3332:	4e31      	ldr	r6, [pc, #196]	; (33f8 <xQueueGenericCreate+0x100>)
    3334:	47b0      	blx	r6
    3336:	4d31      	ldr	r5, [pc, #196]	; (33fc <xQueueGenericCreate+0x104>)
    3338:	5c28      	ldrb	r0, [r5, r0]
    333a:	4b31      	ldr	r3, [pc, #196]	; (3400 <xQueueGenericCreate+0x108>)
    333c:	4798      	blx	r3
    333e:	b281      	uxth	r1, r0
    3340:	0020      	movs	r0, r4
    3342:	4b30      	ldr	r3, [pc, #192]	; (3404 <xQueueGenericCreate+0x10c>)
    3344:	4798      	blx	r3
    3346:	4b30      	ldr	r3, [pc, #192]	; (3408 <xQueueGenericCreate+0x110>)
    3348:	8819      	ldrh	r1, [r3, #0]
    334a:	0020      	movs	r0, r4
    334c:	4b2f      	ldr	r3, [pc, #188]	; (340c <xQueueGenericCreate+0x114>)
    334e:	4798      	blx	r3
    3350:	0020      	movs	r0, r4
    3352:	47b0      	blx	r6
    3354:	5c2d      	ldrb	r5, [r5, r0]
    3356:	0020      	movs	r0, r4
    3358:	4b2d      	ldr	r3, [pc, #180]	; (3410 <xQueueGenericCreate+0x118>)
    335a:	4798      	blx	r3
    335c:	b2c1      	uxtb	r1, r0
    335e:	0028      	movs	r0, r5
    3360:	4b2c      	ldr	r3, [pc, #176]	; (3414 <xQueueGenericCreate+0x11c>)
    3362:	4798      	blx	r3
    3364:	4b2c      	ldr	r3, [pc, #176]	; (3418 <xQueueGenericCreate+0x120>)
    3366:	4798      	blx	r3
    3368:	4b2c      	ldr	r3, [pc, #176]	; (341c <xQueueGenericCreate+0x124>)
    336a:	4798      	blx	r3
    336c:	4b2c      	ldr	r3, [pc, #176]	; (3420 <xQueueGenericCreate+0x128>)
    336e:	881b      	ldrh	r3, [r3, #0]
    3370:	4203      	tst	r3, r0
    3372:	d112      	bne.n	339a <xQueueGenericCreate+0xa2>
    3374:	0020      	movs	r0, r4
    3376:	4b20      	ldr	r3, [pc, #128]	; (33f8 <xQueueGenericCreate+0x100>)
    3378:	4798      	blx	r3
    337a:	4b20      	ldr	r3, [pc, #128]	; (33fc <xQueueGenericCreate+0x104>)
    337c:	5c1d      	ldrb	r5, [r3, r0]
    337e:	0020      	movs	r0, r4
    3380:	4b23      	ldr	r3, [pc, #140]	; (3410 <xQueueGenericCreate+0x118>)
    3382:	4798      	blx	r3
    3384:	b2c1      	uxtb	r1, r0
    3386:	2200      	movs	r2, #0
    3388:	0028      	movs	r0, r5
    338a:	4b26      	ldr	r3, [pc, #152]	; (3424 <xQueueGenericCreate+0x12c>)
    338c:	4798      	blx	r3
	}
    338e:	0020      	movs	r0, r4
    3390:	bdf8      	pop	{r3, r4, r5, r6, r7, pc}
			pucQueueStorage = ( ( uint8_t * ) pxNewQueue ) + sizeof( Queue_t );
    3392:	0003      	movs	r3, r0
    3394:	3354      	adds	r3, #84	; 0x54
		pxNewQueue->pcHead = ( int8_t * ) pucQueueStorage;
    3396:	6003      	str	r3, [r0, #0]
    3398:	e7c0      	b.n	331c <xQueueGenericCreate+0x24>
	traceQUEUE_CREATE( pxNewQueue );
    339a:	0020      	movs	r0, r4
    339c:	4b22      	ldr	r3, [pc, #136]	; (3428 <xQueueGenericCreate+0x130>)
    339e:	4798      	blx	r3
    33a0:	4b1f      	ldr	r3, [pc, #124]	; (3420 <xQueueGenericCreate+0x128>)
    33a2:	881b      	ldrh	r3, [r3, #0]
    33a4:	4203      	tst	r3, r0
    33a6:	d0e5      	beq.n	3374 <xQueueGenericCreate+0x7c>
    33a8:	0020      	movs	r0, r4
    33aa:	4f13      	ldr	r7, [pc, #76]	; (33f8 <xQueueGenericCreate+0x100>)
    33ac:	47b8      	blx	r7
    33ae:	4e13      	ldr	r6, [pc, #76]	; (33fc <xQueueGenericCreate+0x104>)
    33b0:	5c35      	ldrb	r5, [r6, r0]
    33b2:	3518      	adds	r5, #24
    33b4:	b2ed      	uxtb	r5, r5
    33b6:	0020      	movs	r0, r4
    33b8:	47b8      	blx	r7
    33ba:	5c36      	ldrb	r6, [r6, r0]
    33bc:	0020      	movs	r0, r4
    33be:	4b14      	ldr	r3, [pc, #80]	; (3410 <xQueueGenericCreate+0x118>)
    33c0:	4798      	blx	r3
    33c2:	b2c2      	uxtb	r2, r0
    33c4:	0031      	movs	r1, r6
    33c6:	0028      	movs	r0, r5
    33c8:	4b18      	ldr	r3, [pc, #96]	; (342c <xQueueGenericCreate+0x134>)
    33ca:	4798      	blx	r3
    33cc:	e7d2      	b.n	3374 <xQueueGenericCreate+0x7c>
			traceQUEUE_CREATE_FAILED( ucQueueType );
    33ce:	4b12      	ldr	r3, [pc, #72]	; (3418 <xQueueGenericCreate+0x120>)
    33d0:	4798      	blx	r3
    33d2:	4b12      	ldr	r3, [pc, #72]	; (341c <xQueueGenericCreate+0x124>)
    33d4:	4798      	blx	r3
    33d6:	4b12      	ldr	r3, [pc, #72]	; (3420 <xQueueGenericCreate+0x128>)
    33d8:	881b      	ldrh	r3, [r3, #0]
    33da:	4203      	tst	r3, r0
    33dc:	d0d7      	beq.n	338e <xQueueGenericCreate+0x96>
    33de:	4b07      	ldr	r3, [pc, #28]	; (33fc <xQueueGenericCreate+0x104>)
    33e0:	5dd8      	ldrb	r0, [r3, r7]
    33e2:	3040      	adds	r0, #64	; 0x40
    33e4:	b2c0      	uxtb	r0, r0
    33e6:	2100      	movs	r1, #0
    33e8:	4b11      	ldr	r3, [pc, #68]	; (3430 <xQueueGenericCreate+0x138>)
    33ea:	4798      	blx	r3
    33ec:	e7cf      	b.n	338e <xQueueGenericCreate+0x96>
    33ee:	46c0      	nop			; (mov r8, r8)
    33f0:	00002f45 	.word	0x00002f45
    33f4:	0000327d 	.word	0x0000327d
    33f8:	00001bf5 	.word	0x00001bf5
    33fc:	20000018 	.word	0x20000018
    3400:	0000246d 	.word	0x0000246d
    3404:	00001c85 	.word	0x00001c85
    3408:	2000001e 	.word	0x2000001e
    340c:	00001ca5 	.word	0x00001ca5
    3410:	00001c65 	.word	0x00001c65
    3414:	000022fd 	.word	0x000022fd
    3418:	00001cc9 	.word	0x00001cc9
    341c:	00001c11 	.word	0x00001c11
    3420:	20000020 	.word	0x20000020
    3424:	000023d5 	.word	0x000023d5
    3428:	00001c75 	.word	0x00001c75
    342c:	00002901 	.word	0x00002901
    3430:	00002a9d 	.word	0x00002a9d

00003434 <xQueueGenericSend>:
{
    3434:	b5f0      	push	{r4, r5, r6, r7, lr}
    3436:	46ce      	mov	lr, r9
    3438:	4647      	mov	r7, r8
    343a:	b580      	push	{r7, lr}
    343c:	b085      	sub	sp, #20
    343e:	0004      	movs	r4, r0
    3440:	9100      	str	r1, [sp, #0]
    3442:	9201      	str	r2, [sp, #4]
    3444:	001d      	movs	r5, r3
	configASSERT( pxQueue );
    3446:	2800      	cmp	r0, #0
    3448:	d00d      	beq.n	3466 <xQueueGenericSend+0x32>
	configASSERT( !( ( pvItemToQueue == NULL ) && ( pxQueue->uxItemSize != ( UBaseType_t ) 0U ) ) );
    344a:	9b00      	ldr	r3, [sp, #0]
    344c:	2b00      	cmp	r3, #0
    344e:	d00c      	beq.n	346a <xQueueGenericSend+0x36>
	configASSERT( !( ( xCopyPosition == queueOVERWRITE ) && ( pxQueue->uxLength != 1 ) ) );
    3450:	2d02      	cmp	r5, #2
    3452:	d00f      	beq.n	3474 <xQueueGenericSend+0x40>
		configASSERT( !( ( xTaskGetSchedulerState() == taskSCHEDULER_SUSPENDED ) && ( xTicksToWait != 0 ) ) );
    3454:	4bab      	ldr	r3, [pc, #684]	; (3704 <xQueueGenericSend+0x2d0>)
    3456:	4798      	blx	r3
    3458:	2800      	cmp	r0, #0
    345a:	d110      	bne.n	347e <xQueueGenericSend+0x4a>
    345c:	9b01      	ldr	r3, [sp, #4]
    345e:	2b00      	cmp	r3, #0
    3460:	d010      	beq.n	3484 <xQueueGenericSend+0x50>
    3462:	b672      	cpsid	i
    3464:	e7fe      	b.n	3464 <xQueueGenericSend+0x30>
	configASSERT( pxQueue );
    3466:	b672      	cpsid	i
    3468:	e7fe      	b.n	3468 <xQueueGenericSend+0x34>
	configASSERT( !( ( pvItemToQueue == NULL ) && ( pxQueue->uxItemSize != ( UBaseType_t ) 0U ) ) );
    346a:	6c03      	ldr	r3, [r0, #64]	; 0x40
    346c:	2b00      	cmp	r3, #0
    346e:	d0ef      	beq.n	3450 <xQueueGenericSend+0x1c>
    3470:	b672      	cpsid	i
    3472:	e7fe      	b.n	3472 <xQueueGenericSend+0x3e>
	configASSERT( !( ( xCopyPosition == queueOVERWRITE ) && ( pxQueue->uxLength != 1 ) ) );
    3474:	6be3      	ldr	r3, [r4, #60]	; 0x3c
    3476:	2b01      	cmp	r3, #1
    3478:	d0ec      	beq.n	3454 <xQueueGenericSend+0x20>
    347a:	b672      	cpsid	i
    347c:	e7fe      	b.n	347c <xQueueGenericSend+0x48>
    347e:	2700      	movs	r7, #0
		taskENTER_CRITICAL();
    3480:	4ea1      	ldr	r6, [pc, #644]	; (3708 <xQueueGenericSend+0x2d4>)
    3482:	e0bc      	b.n	35fe <xQueueGenericSend+0x1ca>
    3484:	2700      	movs	r7, #0
    3486:	e7fb      	b.n	3480 <xQueueGenericSend+0x4c>
				traceQUEUE_SEND( pxQueue );
    3488:	4ba0      	ldr	r3, [pc, #640]	; (370c <xQueueGenericSend+0x2d8>)
    348a:	4798      	blx	r3
    348c:	4ba0      	ldr	r3, [pc, #640]	; (3710 <xQueueGenericSend+0x2dc>)
    348e:	4798      	blx	r3
    3490:	4ba0      	ldr	r3, [pc, #640]	; (3714 <xQueueGenericSend+0x2e0>)
    3492:	881b      	ldrh	r3, [r3, #0]
    3494:	4203      	tst	r3, r0
    3496:	d01d      	beq.n	34d4 <xQueueGenericSend+0xa0>
    3498:	0020      	movs	r0, r4
    349a:	4b9f      	ldr	r3, [pc, #636]	; (3718 <xQueueGenericSend+0x2e4>)
    349c:	4798      	blx	r3
    349e:	4b9d      	ldr	r3, [pc, #628]	; (3714 <xQueueGenericSend+0x2e0>)
    34a0:	881b      	ldrh	r3, [r3, #0]
    34a2:	4203      	tst	r3, r0
    34a4:	d016      	beq.n	34d4 <xQueueGenericSend+0xa0>
    34a6:	2725      	movs	r7, #37	; 0x25
    34a8:	2d00      	cmp	r5, #0
    34aa:	d106      	bne.n	34ba <xQueueGenericSend+0x86>
    34ac:	0020      	movs	r0, r4
    34ae:	4b9b      	ldr	r3, [pc, #620]	; (371c <xQueueGenericSend+0x2e8>)
    34b0:	4798      	blx	r3
    34b2:	4b9b      	ldr	r3, [pc, #620]	; (3720 <xQueueGenericSend+0x2ec>)
    34b4:	5c1f      	ldrb	r7, [r3, r0]
    34b6:	3720      	adds	r7, #32
    34b8:	b2ff      	uxtb	r7, r7
    34ba:	0020      	movs	r0, r4
    34bc:	4b97      	ldr	r3, [pc, #604]	; (371c <xQueueGenericSend+0x2e8>)
    34be:	4798      	blx	r3
    34c0:	4b97      	ldr	r3, [pc, #604]	; (3720 <xQueueGenericSend+0x2ec>)
    34c2:	5c1e      	ldrb	r6, [r3, r0]
    34c4:	0020      	movs	r0, r4
    34c6:	4b97      	ldr	r3, [pc, #604]	; (3724 <xQueueGenericSend+0x2f0>)
    34c8:	4798      	blx	r3
    34ca:	b2c2      	uxtb	r2, r0
    34cc:	0031      	movs	r1, r6
    34ce:	0038      	movs	r0, r7
    34d0:	4b95      	ldr	r3, [pc, #596]	; (3728 <xQueueGenericSend+0x2f4>)
    34d2:	4798      	blx	r3
    34d4:	0020      	movs	r0, r4
    34d6:	4e91      	ldr	r6, [pc, #580]	; (371c <xQueueGenericSend+0x2e8>)
    34d8:	47b0      	blx	r6
    34da:	4f91      	ldr	r7, [pc, #580]	; (3720 <xQueueGenericSend+0x2ec>)
    34dc:	5c3b      	ldrb	r3, [r7, r0]
    34de:	4698      	mov	r8, r3
    34e0:	0020      	movs	r0, r4
    34e2:	4b90      	ldr	r3, [pc, #576]	; (3724 <xQueueGenericSend+0x2f0>)
    34e4:	4798      	blx	r3
    34e6:	b2c3      	uxtb	r3, r0
    34e8:	4699      	mov	r9, r3
    34ea:	0020      	movs	r0, r4
    34ec:	47b0      	blx	r6
    34ee:	5c3b      	ldrb	r3, [r7, r0]
    34f0:	2b02      	cmp	r3, #2
    34f2:	d01f      	beq.n	3534 <xQueueGenericSend+0x100>
    34f4:	6ba2      	ldr	r2, [r4, #56]	; 0x38
    34f6:	3201      	adds	r2, #1
    34f8:	b2d2      	uxtb	r2, r2
    34fa:	4649      	mov	r1, r9
    34fc:	4640      	mov	r0, r8
    34fe:	4b8b      	ldr	r3, [pc, #556]	; (372c <xQueueGenericSend+0x2f8>)
    3500:	4798      	blx	r3
				xYieldRequired = prvCopyDataToQueue( pxQueue, pvItemToQueue, xCopyPosition );
    3502:	002a      	movs	r2, r5
    3504:	9900      	ldr	r1, [sp, #0]
    3506:	0020      	movs	r0, r4
    3508:	4b89      	ldr	r3, [pc, #548]	; (3730 <xQueueGenericSend+0x2fc>)
    350a:	4798      	blx	r3
					if( pxQueue->pxQueueSetContainer != NULL )
    350c:	6ca3      	ldr	r3, [r4, #72]	; 0x48
    350e:	2b00      	cmp	r3, #0
    3510:	d012      	beq.n	3538 <xQueueGenericSend+0x104>
						if( prvNotifyQueueSetContainer( pxQueue, xCopyPosition ) != pdFALSE )
    3512:	0029      	movs	r1, r5
    3514:	0020      	movs	r0, r4
    3516:	4b87      	ldr	r3, [pc, #540]	; (3734 <xQueueGenericSend+0x300>)
    3518:	4798      	blx	r3
    351a:	2800      	cmp	r0, #0
    351c:	d001      	beq.n	3522 <xQueueGenericSend+0xee>
							queueYIELD_IF_USING_PREEMPTION();
    351e:	4b86      	ldr	r3, [pc, #536]	; (3738 <xQueueGenericSend+0x304>)
    3520:	4798      	blx	r3
				taskEXIT_CRITICAL();
    3522:	4b86      	ldr	r3, [pc, #536]	; (373c <xQueueGenericSend+0x308>)
    3524:	4798      	blx	r3
				return pdPASS;
    3526:	2301      	movs	r3, #1
}
    3528:	0018      	movs	r0, r3
    352a:	b005      	add	sp, #20
    352c:	bc0c      	pop	{r2, r3}
    352e:	4690      	mov	r8, r2
    3530:	4699      	mov	r9, r3
    3532:	bdf0      	pop	{r4, r5, r6, r7, pc}
				traceQUEUE_SEND( pxQueue );
    3534:	2200      	movs	r2, #0
    3536:	e7e0      	b.n	34fa <xQueueGenericSend+0xc6>
						if( listLIST_IS_EMPTY( &( pxQueue->xTasksWaitingToReceive ) ) == pdFALSE )
    3538:	6a63      	ldr	r3, [r4, #36]	; 0x24
    353a:	2b00      	cmp	r3, #0
    353c:	d008      	beq.n	3550 <xQueueGenericSend+0x11c>
							if( xTaskRemoveFromEventList( &( pxQueue->xTasksWaitingToReceive ) ) != pdFALSE )
    353e:	0020      	movs	r0, r4
    3540:	3024      	adds	r0, #36	; 0x24
    3542:	4b7f      	ldr	r3, [pc, #508]	; (3740 <xQueueGenericSend+0x30c>)
    3544:	4798      	blx	r3
    3546:	2800      	cmp	r0, #0
    3548:	d0eb      	beq.n	3522 <xQueueGenericSend+0xee>
								queueYIELD_IF_USING_PREEMPTION();
    354a:	4b7b      	ldr	r3, [pc, #492]	; (3738 <xQueueGenericSend+0x304>)
    354c:	4798      	blx	r3
    354e:	e7e8      	b.n	3522 <xQueueGenericSend+0xee>
						else if( xYieldRequired != pdFALSE )
    3550:	2800      	cmp	r0, #0
    3552:	d0e6      	beq.n	3522 <xQueueGenericSend+0xee>
							queueYIELD_IF_USING_PREEMPTION();
    3554:	4b78      	ldr	r3, [pc, #480]	; (3738 <xQueueGenericSend+0x304>)
    3556:	4798      	blx	r3
    3558:	e7e3      	b.n	3522 <xQueueGenericSend+0xee>
					taskEXIT_CRITICAL();
    355a:	4b78      	ldr	r3, [pc, #480]	; (373c <xQueueGenericSend+0x308>)
    355c:	4798      	blx	r3
					traceQUEUE_SEND_FAILED( pxQueue );
    355e:	4b6b      	ldr	r3, [pc, #428]	; (370c <xQueueGenericSend+0x2d8>)
    3560:	4798      	blx	r3
    3562:	4b6b      	ldr	r3, [pc, #428]	; (3710 <xQueueGenericSend+0x2dc>)
    3564:	4798      	blx	r3
    3566:	4b6b      	ldr	r3, [pc, #428]	; (3714 <xQueueGenericSend+0x2e0>)
    3568:	881a      	ldrh	r2, [r3, #0]
					return errQUEUE_FULL;
    356a:	2300      	movs	r3, #0
					traceQUEUE_SEND_FAILED( pxQueue );
    356c:	4202      	tst	r2, r0
    356e:	d0db      	beq.n	3528 <xQueueGenericSend+0xf4>
    3570:	0020      	movs	r0, r4
    3572:	4b69      	ldr	r3, [pc, #420]	; (3718 <xQueueGenericSend+0x2e4>)
    3574:	4798      	blx	r3
    3576:	4b67      	ldr	r3, [pc, #412]	; (3714 <xQueueGenericSend+0x2e0>)
    3578:	881a      	ldrh	r2, [r3, #0]
					return errQUEUE_FULL;
    357a:	2300      	movs	r3, #0
					traceQUEUE_SEND_FAILED( pxQueue );
    357c:	4202      	tst	r2, r0
    357e:	d0d3      	beq.n	3528 <xQueueGenericSend+0xf4>
    3580:	264d      	movs	r6, #77	; 0x4d
    3582:	2d00      	cmp	r5, #0
    3584:	d106      	bne.n	3594 <xQueueGenericSend+0x160>
    3586:	0020      	movs	r0, r4
    3588:	4b64      	ldr	r3, [pc, #400]	; (371c <xQueueGenericSend+0x2e8>)
    358a:	4798      	blx	r3
    358c:	4b64      	ldr	r3, [pc, #400]	; (3720 <xQueueGenericSend+0x2ec>)
    358e:	5c1e      	ldrb	r6, [r3, r0]
    3590:	3648      	adds	r6, #72	; 0x48
    3592:	b2f6      	uxtb	r6, r6
    3594:	0020      	movs	r0, r4
    3596:	4b61      	ldr	r3, [pc, #388]	; (371c <xQueueGenericSend+0x2e8>)
    3598:	4798      	blx	r3
    359a:	4b61      	ldr	r3, [pc, #388]	; (3720 <xQueueGenericSend+0x2ec>)
    359c:	5c1d      	ldrb	r5, [r3, r0]
    359e:	0020      	movs	r0, r4
    35a0:	4b60      	ldr	r3, [pc, #384]	; (3724 <xQueueGenericSend+0x2f0>)
    35a2:	4798      	blx	r3
    35a4:	b2c2      	uxtb	r2, r0
    35a6:	0029      	movs	r1, r5
    35a8:	0030      	movs	r0, r6
    35aa:	4b5f      	ldr	r3, [pc, #380]	; (3728 <xQueueGenericSend+0x2f4>)
    35ac:	4798      	blx	r3
					return errQUEUE_FULL;
    35ae:	2300      	movs	r3, #0
    35b0:	e7ba      	b.n	3528 <xQueueGenericSend+0xf4>
		prvLockQueue( pxQueue );
    35b2:	4b62      	ldr	r3, [pc, #392]	; (373c <xQueueGenericSend+0x308>)
    35b4:	4798      	blx	r3
		if( xTaskCheckForTimeOut( &xTimeOut, &xTicksToWait ) == pdFALSE )
    35b6:	a901      	add	r1, sp, #4
    35b8:	a802      	add	r0, sp, #8
    35ba:	4b62      	ldr	r3, [pc, #392]	; (3744 <xQueueGenericSend+0x310>)
    35bc:	4798      	blx	r3
    35be:	2800      	cmp	r0, #0
    35c0:	d16e      	bne.n	36a0 <xQueueGenericSend+0x26c>
	taskENTER_CRITICAL();
    35c2:	4b51      	ldr	r3, [pc, #324]	; (3708 <xQueueGenericSend+0x2d4>)
    35c4:	4798      	blx	r3
		if( pxQueue->uxMessagesWaiting == pxQueue->uxLength )
    35c6:	6ba3      	ldr	r3, [r4, #56]	; 0x38
    35c8:	4699      	mov	r9, r3
    35ca:	6be7      	ldr	r7, [r4, #60]	; 0x3c
	taskEXIT_CRITICAL();
    35cc:	4b5b      	ldr	r3, [pc, #364]	; (373c <xQueueGenericSend+0x308>)
    35ce:	4798      	blx	r3
			if( prvIsQueueFull( pxQueue ) != pdFALSE )
    35d0:	45b9      	cmp	r9, r7
    35d2:	d15f      	bne.n	3694 <xQueueGenericSend+0x260>
				traceBLOCKING_ON_QUEUE_SEND( pxQueue );
    35d4:	4b4d      	ldr	r3, [pc, #308]	; (370c <xQueueGenericSend+0x2d8>)
    35d6:	4798      	blx	r3
    35d8:	4b4d      	ldr	r3, [pc, #308]	; (3710 <xQueueGenericSend+0x2dc>)
    35da:	4798      	blx	r3
    35dc:	4b4d      	ldr	r3, [pc, #308]	; (3714 <xQueueGenericSend+0x2e0>)
    35de:	881b      	ldrh	r3, [r3, #0]
    35e0:	4203      	tst	r3, r0
    35e2:	d134      	bne.n	364e <xQueueGenericSend+0x21a>
				vTaskPlaceOnEventList( &( pxQueue->xTasksWaitingToSend ), xTicksToWait );
    35e4:	0020      	movs	r0, r4
    35e6:	3010      	adds	r0, #16
    35e8:	9901      	ldr	r1, [sp, #4]
    35ea:	4b57      	ldr	r3, [pc, #348]	; (3748 <xQueueGenericSend+0x314>)
    35ec:	4798      	blx	r3
				prvUnlockQueue( pxQueue );
    35ee:	0020      	movs	r0, r4
    35f0:	4b56      	ldr	r3, [pc, #344]	; (374c <xQueueGenericSend+0x318>)
    35f2:	4798      	blx	r3
				if( xTaskResumeAll() == pdFALSE )
    35f4:	4b56      	ldr	r3, [pc, #344]	; (3750 <xQueueGenericSend+0x31c>)
    35f6:	4798      	blx	r3
    35f8:	2800      	cmp	r0, #0
    35fa:	d048      	beq.n	368e <xQueueGenericSend+0x25a>
    35fc:	2701      	movs	r7, #1
		taskENTER_CRITICAL();
    35fe:	47b0      	blx	r6
			if( ( pxQueue->uxMessagesWaiting < pxQueue->uxLength ) || ( xCopyPosition == queueOVERWRITE ) )
    3600:	6ba3      	ldr	r3, [r4, #56]	; 0x38
    3602:	6be2      	ldr	r2, [r4, #60]	; 0x3c
    3604:	4293      	cmp	r3, r2
    3606:	d200      	bcs.n	360a <xQueueGenericSend+0x1d6>
    3608:	e73e      	b.n	3488 <xQueueGenericSend+0x54>
    360a:	2d02      	cmp	r5, #2
    360c:	d100      	bne.n	3610 <xQueueGenericSend+0x1dc>
    360e:	e73b      	b.n	3488 <xQueueGenericSend+0x54>
				if( xTicksToWait == ( TickType_t ) 0 )
    3610:	9b01      	ldr	r3, [sp, #4]
    3612:	2b00      	cmp	r3, #0
    3614:	d0a1      	beq.n	355a <xQueueGenericSend+0x126>
				else if( xEntryTimeSet == pdFALSE )
    3616:	2f00      	cmp	r7, #0
    3618:	d102      	bne.n	3620 <xQueueGenericSend+0x1ec>
					vTaskInternalSetTimeOutState( &xTimeOut );
    361a:	a802      	add	r0, sp, #8
    361c:	4b4d      	ldr	r3, [pc, #308]	; (3754 <xQueueGenericSend+0x320>)
    361e:	4798      	blx	r3
		taskEXIT_CRITICAL();
    3620:	4b46      	ldr	r3, [pc, #280]	; (373c <xQueueGenericSend+0x308>)
    3622:	4798      	blx	r3
		vTaskSuspendAll();
    3624:	4b4c      	ldr	r3, [pc, #304]	; (3758 <xQueueGenericSend+0x324>)
    3626:	4798      	blx	r3
		prvLockQueue( pxQueue );
    3628:	4b37      	ldr	r3, [pc, #220]	; (3708 <xQueueGenericSend+0x2d4>)
    362a:	4798      	blx	r3
    362c:	2344      	movs	r3, #68	; 0x44
    362e:	5ce3      	ldrb	r3, [r4, r3]
    3630:	b25b      	sxtb	r3, r3
    3632:	3301      	adds	r3, #1
    3634:	d102      	bne.n	363c <xQueueGenericSend+0x208>
    3636:	2200      	movs	r2, #0
    3638:	2344      	movs	r3, #68	; 0x44
    363a:	54e2      	strb	r2, [r4, r3]
    363c:	2345      	movs	r3, #69	; 0x45
    363e:	5ce3      	ldrb	r3, [r4, r3]
    3640:	b25b      	sxtb	r3, r3
    3642:	3301      	adds	r3, #1
    3644:	d1b5      	bne.n	35b2 <xQueueGenericSend+0x17e>
    3646:	2200      	movs	r2, #0
    3648:	2345      	movs	r3, #69	; 0x45
    364a:	54e2      	strb	r2, [r4, r3]
    364c:	e7b1      	b.n	35b2 <xQueueGenericSend+0x17e>
				traceBLOCKING_ON_QUEUE_SEND( pxQueue );
    364e:	0020      	movs	r0, r4
    3650:	4b31      	ldr	r3, [pc, #196]	; (3718 <xQueueGenericSend+0x2e4>)
    3652:	4798      	blx	r3
    3654:	4b2f      	ldr	r3, [pc, #188]	; (3714 <xQueueGenericSend+0x2e0>)
    3656:	881b      	ldrh	r3, [r3, #0]
    3658:	4203      	tst	r3, r0
    365a:	d0c3      	beq.n	35e4 <xQueueGenericSend+0x1b0>
    365c:	2775      	movs	r7, #117	; 0x75
    365e:	2d00      	cmp	r5, #0
    3660:	d106      	bne.n	3670 <xQueueGenericSend+0x23c>
    3662:	0020      	movs	r0, r4
    3664:	4b2d      	ldr	r3, [pc, #180]	; (371c <xQueueGenericSend+0x2e8>)
    3666:	4798      	blx	r3
    3668:	4b2d      	ldr	r3, [pc, #180]	; (3720 <xQueueGenericSend+0x2ec>)
    366a:	5c1f      	ldrb	r7, [r3, r0]
    366c:	3770      	adds	r7, #112	; 0x70
    366e:	b2ff      	uxtb	r7, r7
    3670:	0020      	movs	r0, r4
    3672:	4b2a      	ldr	r3, [pc, #168]	; (371c <xQueueGenericSend+0x2e8>)
    3674:	4798      	blx	r3
    3676:	4b2a      	ldr	r3, [pc, #168]	; (3720 <xQueueGenericSend+0x2ec>)
    3678:	5c1b      	ldrb	r3, [r3, r0]
    367a:	4699      	mov	r9, r3
    367c:	0020      	movs	r0, r4
    367e:	4b29      	ldr	r3, [pc, #164]	; (3724 <xQueueGenericSend+0x2f0>)
    3680:	4798      	blx	r3
    3682:	b2c2      	uxtb	r2, r0
    3684:	4649      	mov	r1, r9
    3686:	0038      	movs	r0, r7
    3688:	4b27      	ldr	r3, [pc, #156]	; (3728 <xQueueGenericSend+0x2f4>)
    368a:	4798      	blx	r3
    368c:	e7aa      	b.n	35e4 <xQueueGenericSend+0x1b0>
					portYIELD_WITHIN_API();
    368e:	4b2a      	ldr	r3, [pc, #168]	; (3738 <xQueueGenericSend+0x304>)
    3690:	4798      	blx	r3
    3692:	e7b3      	b.n	35fc <xQueueGenericSend+0x1c8>
				prvUnlockQueue( pxQueue );
    3694:	0020      	movs	r0, r4
    3696:	4b2d      	ldr	r3, [pc, #180]	; (374c <xQueueGenericSend+0x318>)
    3698:	4798      	blx	r3
				( void ) xTaskResumeAll();
    369a:	4b2d      	ldr	r3, [pc, #180]	; (3750 <xQueueGenericSend+0x31c>)
    369c:	4798      	blx	r3
    369e:	e7ad      	b.n	35fc <xQueueGenericSend+0x1c8>
			prvUnlockQueue( pxQueue );
    36a0:	0020      	movs	r0, r4
    36a2:	4b2a      	ldr	r3, [pc, #168]	; (374c <xQueueGenericSend+0x318>)
    36a4:	4798      	blx	r3
			( void ) xTaskResumeAll();
    36a6:	4b2a      	ldr	r3, [pc, #168]	; (3750 <xQueueGenericSend+0x31c>)
    36a8:	4798      	blx	r3
			traceQUEUE_SEND_FAILED( pxQueue );
    36aa:	4b18      	ldr	r3, [pc, #96]	; (370c <xQueueGenericSend+0x2d8>)
    36ac:	4798      	blx	r3
    36ae:	4b18      	ldr	r3, [pc, #96]	; (3710 <xQueueGenericSend+0x2dc>)
    36b0:	4798      	blx	r3
    36b2:	4b18      	ldr	r3, [pc, #96]	; (3714 <xQueueGenericSend+0x2e0>)
    36b4:	881a      	ldrh	r2, [r3, #0]
			return errQUEUE_FULL;
    36b6:	2300      	movs	r3, #0
			traceQUEUE_SEND_FAILED( pxQueue );
    36b8:	4202      	tst	r2, r0
    36ba:	d100      	bne.n	36be <xQueueGenericSend+0x28a>
    36bc:	e734      	b.n	3528 <xQueueGenericSend+0xf4>
    36be:	0020      	movs	r0, r4
    36c0:	4b15      	ldr	r3, [pc, #84]	; (3718 <xQueueGenericSend+0x2e4>)
    36c2:	4798      	blx	r3
    36c4:	4b13      	ldr	r3, [pc, #76]	; (3714 <xQueueGenericSend+0x2e0>)
    36c6:	881a      	ldrh	r2, [r3, #0]
			return errQUEUE_FULL;
    36c8:	2300      	movs	r3, #0
			traceQUEUE_SEND_FAILED( pxQueue );
    36ca:	4202      	tst	r2, r0
    36cc:	d100      	bne.n	36d0 <xQueueGenericSend+0x29c>
    36ce:	e72b      	b.n	3528 <xQueueGenericSend+0xf4>
    36d0:	264d      	movs	r6, #77	; 0x4d
    36d2:	2d00      	cmp	r5, #0
    36d4:	d106      	bne.n	36e4 <xQueueGenericSend+0x2b0>
    36d6:	0020      	movs	r0, r4
    36d8:	4b10      	ldr	r3, [pc, #64]	; (371c <xQueueGenericSend+0x2e8>)
    36da:	4798      	blx	r3
    36dc:	4b10      	ldr	r3, [pc, #64]	; (3720 <xQueueGenericSend+0x2ec>)
    36de:	5c1e      	ldrb	r6, [r3, r0]
    36e0:	3648      	adds	r6, #72	; 0x48
    36e2:	b2f6      	uxtb	r6, r6
    36e4:	0020      	movs	r0, r4
    36e6:	4b0d      	ldr	r3, [pc, #52]	; (371c <xQueueGenericSend+0x2e8>)
    36e8:	4798      	blx	r3
    36ea:	4b0d      	ldr	r3, [pc, #52]	; (3720 <xQueueGenericSend+0x2ec>)
    36ec:	5c1d      	ldrb	r5, [r3, r0]
    36ee:	0020      	movs	r0, r4
    36f0:	4b0c      	ldr	r3, [pc, #48]	; (3724 <xQueueGenericSend+0x2f0>)
    36f2:	4798      	blx	r3
    36f4:	b2c2      	uxtb	r2, r0
    36f6:	0029      	movs	r1, r5
    36f8:	0030      	movs	r0, r6
    36fa:	4b0b      	ldr	r3, [pc, #44]	; (3728 <xQueueGenericSend+0x2f4>)
    36fc:	4798      	blx	r3
			return errQUEUE_FULL;
    36fe:	2300      	movs	r3, #0
    3700:	e712      	b.n	3528 <xQueueGenericSend+0xf4>
    3702:	46c0      	nop			; (mov r8, r8)
    3704:	00004da5 	.word	0x00004da5
    3708:	00002e81 	.word	0x00002e81
    370c:	00001cc9 	.word	0x00001cc9
    3710:	00001c11 	.word	0x00001c11
    3714:	20000020 	.word	0x20000020
    3718:	00001c75 	.word	0x00001c75
    371c:	00001bf5 	.word	0x00001bf5
    3720:	20000018 	.word	0x20000018
    3724:	00001c65 	.word	0x00001c65
    3728:	00002901 	.word	0x00002901
    372c:	000023d5 	.word	0x000023d5
    3730:	0000300d 	.word	0x0000300d
    3734:	00003089 	.word	0x00003089
    3738:	00002e71 	.word	0x00002e71
    373c:	00002e99 	.word	0x00002e99
    3740:	00004c3d 	.word	0x00004c3d
    3744:	00004d09 	.word	0x00004d09
    3748:	00004b75 	.word	0x00004b75
    374c:	000031cd 	.word	0x000031cd
    3750:	0000478d 	.word	0x0000478d
    3754:	00004cf1 	.word	0x00004cf1
    3758:	000045e5 	.word	0x000045e5

0000375c <xQueueCreateMutex>:
	{
    375c:	b570      	push	{r4, r5, r6, lr}
    375e:	0002      	movs	r2, r0
		pxNewQueue = ( Queue_t * ) xQueueGenericCreate( uxMutexLength, uxMutexSize, ucQueueType );
    3760:	2100      	movs	r1, #0
    3762:	2001      	movs	r0, #1
    3764:	4b06      	ldr	r3, [pc, #24]	; (3780 <xQueueCreateMutex+0x24>)
    3766:	4798      	blx	r3
    3768:	1e04      	subs	r4, r0, #0
		if( pxNewQueue != NULL )
    376a:	d007      	beq.n	377c <xQueueCreateMutex+0x20>
			pxNewQueue->pxMutexHolder = NULL;
    376c:	2300      	movs	r3, #0
    376e:	6043      	str	r3, [r0, #4]
			pxNewQueue->uxQueueType = queueQUEUE_IS_MUTEX;
    3770:	6003      	str	r3, [r0, #0]
			pxNewQueue->u.uxRecursiveCallCount = 0;
    3772:	60c3      	str	r3, [r0, #12]
			( void ) xQueueGenericSend( pxNewQueue, NULL, ( TickType_t ) 0U, queueSEND_TO_BACK );
    3774:	2200      	movs	r2, #0
    3776:	2100      	movs	r1, #0
    3778:	4d02      	ldr	r5, [pc, #8]	; (3784 <xQueueCreateMutex+0x28>)
    377a:	47a8      	blx	r5
	}
    377c:	0020      	movs	r0, r4
    377e:	bd70      	pop	{r4, r5, r6, pc}
    3780:	000032f9 	.word	0x000032f9
    3784:	00003435 	.word	0x00003435

00003788 <xQueueGenericSendFromISR>:
{
    3788:	b5f0      	push	{r4, r5, r6, r7, lr}
    378a:	46de      	mov	lr, fp
    378c:	4647      	mov	r7, r8
    378e:	b580      	push	{r7, lr}
    3790:	b083      	sub	sp, #12
    3792:	0004      	movs	r4, r0
    3794:	9101      	str	r1, [sp, #4]
    3796:	0016      	movs	r6, r2
    3798:	001f      	movs	r7, r3
	configASSERT( pxQueue );
    379a:	2800      	cmp	r0, #0
    379c:	d02d      	beq.n	37fa <xQueueGenericSendFromISR+0x72>
	configASSERT( !( ( pvItemToQueue == NULL ) && ( pxQueue->uxItemSize != ( UBaseType_t ) 0U ) ) );
    379e:	9b01      	ldr	r3, [sp, #4]
    37a0:	2b00      	cmp	r3, #0
    37a2:	d02c      	beq.n	37fe <xQueueGenericSendFromISR+0x76>
	configASSERT( !( ( xCopyPosition == queueOVERWRITE ) && ( pxQueue->uxLength != 1 ) ) );
    37a4:	2f02      	cmp	r7, #2
    37a6:	d02f      	beq.n	3808 <xQueueGenericSendFromISR+0x80>
	uxSavedInterruptStatus = portSET_INTERRUPT_MASK_FROM_ISR();
    37a8:	4b59      	ldr	r3, [pc, #356]	; (3910 <xQueueGenericSendFromISR+0x188>)
    37aa:	4798      	blx	r3
    37ac:	9000      	str	r0, [sp, #0]
		if( ( pxQueue->uxMessagesWaiting < pxQueue->uxLength ) || ( xCopyPosition == queueOVERWRITE ) )
    37ae:	6ba3      	ldr	r3, [r4, #56]	; 0x38
    37b0:	6be2      	ldr	r2, [r4, #60]	; 0x3c
    37b2:	429a      	cmp	r2, r3
    37b4:	d85a      	bhi.n	386c <xQueueGenericSendFromISR+0xe4>
			traceQUEUE_SEND_FROM_ISR_FAILED( pxQueue );
    37b6:	0020      	movs	r0, r4
    37b8:	4b56      	ldr	r3, [pc, #344]	; (3914 <xQueueGenericSendFromISR+0x18c>)
    37ba:	4798      	blx	r3
    37bc:	4b56      	ldr	r3, [pc, #344]	; (3918 <xQueueGenericSendFromISR+0x190>)
    37be:	881b      	ldrh	r3, [r3, #0]
			xReturn = errQUEUE_FULL;
    37c0:	2500      	movs	r5, #0
			traceQUEUE_SEND_FROM_ISR_FAILED( pxQueue );
    37c2:	4203      	tst	r3, r0
    37c4:	d100      	bne.n	37c8 <xQueueGenericSendFromISR+0x40>
    37c6:	e09a      	b.n	38fe <xQueueGenericSendFromISR+0x176>
    37c8:	355d      	adds	r5, #93	; 0x5d
    37ca:	2f00      	cmp	r7, #0
    37cc:	d106      	bne.n	37dc <xQueueGenericSendFromISR+0x54>
    37ce:	0020      	movs	r0, r4
    37d0:	4b52      	ldr	r3, [pc, #328]	; (391c <xQueueGenericSendFromISR+0x194>)
    37d2:	4798      	blx	r3
    37d4:	4b52      	ldr	r3, [pc, #328]	; (3920 <xQueueGenericSendFromISR+0x198>)
    37d6:	5c1d      	ldrb	r5, [r3, r0]
    37d8:	3558      	adds	r5, #88	; 0x58
    37da:	b2ed      	uxtb	r5, r5
    37dc:	0020      	movs	r0, r4
    37de:	4b4f      	ldr	r3, [pc, #316]	; (391c <xQueueGenericSendFromISR+0x194>)
    37e0:	4798      	blx	r3
    37e2:	4b4f      	ldr	r3, [pc, #316]	; (3920 <xQueueGenericSendFromISR+0x198>)
    37e4:	5c1f      	ldrb	r7, [r3, r0]
    37e6:	0020      	movs	r0, r4
    37e8:	4b4e      	ldr	r3, [pc, #312]	; (3924 <xQueueGenericSendFromISR+0x19c>)
    37ea:	4798      	blx	r3
    37ec:	b2c2      	uxtb	r2, r0
    37ee:	0039      	movs	r1, r7
    37f0:	0028      	movs	r0, r5
    37f2:	4b4d      	ldr	r3, [pc, #308]	; (3928 <xQueueGenericSendFromISR+0x1a0>)
    37f4:	4798      	blx	r3
			xReturn = errQUEUE_FULL;
    37f6:	2500      	movs	r5, #0
    37f8:	e081      	b.n	38fe <xQueueGenericSendFromISR+0x176>
	configASSERT( pxQueue );
    37fa:	b672      	cpsid	i
    37fc:	e7fe      	b.n	37fc <xQueueGenericSendFromISR+0x74>
	configASSERT( !( ( pvItemToQueue == NULL ) && ( pxQueue->uxItemSize != ( UBaseType_t ) 0U ) ) );
    37fe:	6c03      	ldr	r3, [r0, #64]	; 0x40
    3800:	2b00      	cmp	r3, #0
    3802:	d0cf      	beq.n	37a4 <xQueueGenericSendFromISR+0x1c>
    3804:	b672      	cpsid	i
    3806:	e7fe      	b.n	3806 <xQueueGenericSendFromISR+0x7e>
	configASSERT( !( ( xCopyPosition == queueOVERWRITE ) && ( pxQueue->uxLength != 1 ) ) );
    3808:	6be3      	ldr	r3, [r4, #60]	; 0x3c
    380a:	2b01      	cmp	r3, #1
    380c:	d027      	beq.n	385e <xQueueGenericSendFromISR+0xd6>
    380e:	b672      	cpsid	i
    3810:	e7fe      	b.n	3810 <xQueueGenericSendFromISR+0x88>
						if( listLIST_IS_EMPTY( &( pxQueue->xTasksWaitingToReceive ) ) == pdFALSE )
    3812:	6a63      	ldr	r3, [r4, #36]	; 0x24
			xReturn = pdPASS;
    3814:	2501      	movs	r5, #1
						if( listLIST_IS_EMPTY( &( pxQueue->xTasksWaitingToReceive ) ) == pdFALSE )
    3816:	2b00      	cmp	r3, #0
    3818:	d071      	beq.n	38fe <xQueueGenericSendFromISR+0x176>
							if( xTaskRemoveFromEventList( &( pxQueue->xTasksWaitingToReceive ) ) != pdFALSE )
    381a:	0020      	movs	r0, r4
    381c:	3024      	adds	r0, #36	; 0x24
    381e:	4b43      	ldr	r3, [pc, #268]	; (392c <xQueueGenericSendFromISR+0x1a4>)
    3820:	4798      	blx	r3
    3822:	2800      	cmp	r0, #0
    3824:	d06b      	beq.n	38fe <xQueueGenericSendFromISR+0x176>
								if( pxHigherPriorityTaskWoken != NULL )
    3826:	2e00      	cmp	r6, #0
    3828:	d00a      	beq.n	3840 <xQueueGenericSendFromISR+0xb8>
									*pxHigherPriorityTaskWoken = pdTRUE;
    382a:	2301      	movs	r3, #1
    382c:	6033      	str	r3, [r6, #0]
    382e:	e066      	b.n	38fe <xQueueGenericSendFromISR+0x176>
				pxQueue->cTxLock = ( int8_t ) ( cTxLock + 1 );
    3830:	3501      	adds	r5, #1
    3832:	b26d      	sxtb	r5, r5
    3834:	2345      	movs	r3, #69	; 0x45
    3836:	54e5      	strb	r5, [r4, r3]
			xReturn = pdPASS;
    3838:	2501      	movs	r5, #1
    383a:	e060      	b.n	38fe <xQueueGenericSendFromISR+0x176>
    383c:	2501      	movs	r5, #1
    383e:	e05e      	b.n	38fe <xQueueGenericSendFromISR+0x176>
    3840:	2501      	movs	r5, #1
    3842:	e05c      	b.n	38fe <xQueueGenericSendFromISR+0x176>
			const int8_t cTxLock = pxQueue->cTxLock;
    3844:	2345      	movs	r3, #69	; 0x45
    3846:	5ce5      	ldrb	r5, [r4, r3]
    3848:	b26d      	sxtb	r5, r5
			traceQUEUE_SEND_FROM_ISR( pxQueue );
    384a:	0020      	movs	r0, r4
    384c:	4b31      	ldr	r3, [pc, #196]	; (3914 <xQueueGenericSendFromISR+0x18c>)
    384e:	4798      	blx	r3
    3850:	4b31      	ldr	r3, [pc, #196]	; (3918 <xQueueGenericSendFromISR+0x190>)
    3852:	881b      	ldrh	r3, [r3, #0]
    3854:	4203      	tst	r3, r0
    3856:	d02d      	beq.n	38b4 <xQueueGenericSendFromISR+0x12c>
    3858:	2335      	movs	r3, #53	; 0x35
    385a:	4698      	mov	r8, r3
    385c:	e01c      	b.n	3898 <xQueueGenericSendFromISR+0x110>
	uxSavedInterruptStatus = portSET_INTERRUPT_MASK_FROM_ISR();
    385e:	4b2c      	ldr	r3, [pc, #176]	; (3910 <xQueueGenericSendFromISR+0x188>)
    3860:	4798      	blx	r3
    3862:	9000      	str	r0, [sp, #0]
		if( ( pxQueue->uxMessagesWaiting < pxQueue->uxLength ) || ( xCopyPosition == queueOVERWRITE ) )
    3864:	6ba3      	ldr	r3, [r4, #56]	; 0x38
    3866:	6be2      	ldr	r2, [r4, #60]	; 0x3c
    3868:	429a      	cmp	r2, r3
    386a:	d9eb      	bls.n	3844 <xQueueGenericSendFromISR+0xbc>
			const int8_t cTxLock = pxQueue->cTxLock;
    386c:	2345      	movs	r3, #69	; 0x45
    386e:	5ce5      	ldrb	r5, [r4, r3]
    3870:	b26d      	sxtb	r5, r5
			traceQUEUE_SEND_FROM_ISR( pxQueue );
    3872:	0020      	movs	r0, r4
    3874:	4b27      	ldr	r3, [pc, #156]	; (3914 <xQueueGenericSendFromISR+0x18c>)
    3876:	4798      	blx	r3
    3878:	4b27      	ldr	r3, [pc, #156]	; (3918 <xQueueGenericSendFromISR+0x190>)
    387a:	881b      	ldrh	r3, [r3, #0]
    387c:	4203      	tst	r3, r0
    387e:	d019      	beq.n	38b4 <xQueueGenericSendFromISR+0x12c>
    3880:	2335      	movs	r3, #53	; 0x35
    3882:	4698      	mov	r8, r3
    3884:	2f00      	cmp	r7, #0
    3886:	d107      	bne.n	3898 <xQueueGenericSendFromISR+0x110>
    3888:	0020      	movs	r0, r4
    388a:	4b24      	ldr	r3, [pc, #144]	; (391c <xQueueGenericSendFromISR+0x194>)
    388c:	4798      	blx	r3
    388e:	4b24      	ldr	r3, [pc, #144]	; (3920 <xQueueGenericSendFromISR+0x198>)
    3890:	5c1b      	ldrb	r3, [r3, r0]
    3892:	3330      	adds	r3, #48	; 0x30
    3894:	b2db      	uxtb	r3, r3
    3896:	4698      	mov	r8, r3
    3898:	0020      	movs	r0, r4
    389a:	4b20      	ldr	r3, [pc, #128]	; (391c <xQueueGenericSendFromISR+0x194>)
    389c:	4798      	blx	r3
    389e:	4b20      	ldr	r3, [pc, #128]	; (3920 <xQueueGenericSendFromISR+0x198>)
    38a0:	5c1b      	ldrb	r3, [r3, r0]
    38a2:	469b      	mov	fp, r3
    38a4:	0020      	movs	r0, r4
    38a6:	4b1f      	ldr	r3, [pc, #124]	; (3924 <xQueueGenericSendFromISR+0x19c>)
    38a8:	4798      	blx	r3
    38aa:	b2c2      	uxtb	r2, r0
    38ac:	4659      	mov	r1, fp
    38ae:	4640      	mov	r0, r8
    38b0:	4b1d      	ldr	r3, [pc, #116]	; (3928 <xQueueGenericSendFromISR+0x1a0>)
    38b2:	4798      	blx	r3
    38b4:	0020      	movs	r0, r4
    38b6:	4b19      	ldr	r3, [pc, #100]	; (391c <xQueueGenericSendFromISR+0x194>)
    38b8:	4798      	blx	r3
    38ba:	4b19      	ldr	r3, [pc, #100]	; (3920 <xQueueGenericSendFromISR+0x198>)
    38bc:	5c1b      	ldrb	r3, [r3, r0]
    38be:	4698      	mov	r8, r3
    38c0:	0020      	movs	r0, r4
    38c2:	4b18      	ldr	r3, [pc, #96]	; (3924 <xQueueGenericSendFromISR+0x19c>)
    38c4:	4798      	blx	r3
    38c6:	6ba2      	ldr	r2, [r4, #56]	; 0x38
    38c8:	3201      	adds	r2, #1
    38ca:	b2d2      	uxtb	r2, r2
    38cc:	b2c1      	uxtb	r1, r0
    38ce:	4640      	mov	r0, r8
    38d0:	4b17      	ldr	r3, [pc, #92]	; (3930 <xQueueGenericSendFromISR+0x1a8>)
    38d2:	4798      	blx	r3
			( void ) prvCopyDataToQueue( pxQueue, pvItemToQueue, xCopyPosition );
    38d4:	003a      	movs	r2, r7
    38d6:	9901      	ldr	r1, [sp, #4]
    38d8:	0020      	movs	r0, r4
    38da:	4b16      	ldr	r3, [pc, #88]	; (3934 <xQueueGenericSendFromISR+0x1ac>)
    38dc:	4798      	blx	r3
			if( cTxLock == queueUNLOCKED )
    38de:	1c6b      	adds	r3, r5, #1
    38e0:	d1a6      	bne.n	3830 <xQueueGenericSendFromISR+0xa8>
					if( pxQueue->pxQueueSetContainer != NULL )
    38e2:	6ca3      	ldr	r3, [r4, #72]	; 0x48
    38e4:	2b00      	cmp	r3, #0
    38e6:	d094      	beq.n	3812 <xQueueGenericSendFromISR+0x8a>
						if( prvNotifyQueueSetContainer( pxQueue, xCopyPosition ) != pdFALSE )
    38e8:	0039      	movs	r1, r7
    38ea:	0020      	movs	r0, r4
    38ec:	4b12      	ldr	r3, [pc, #72]	; (3938 <xQueueGenericSendFromISR+0x1b0>)
    38ee:	4798      	blx	r3
			xReturn = pdPASS;
    38f0:	3502      	adds	r5, #2
						if( prvNotifyQueueSetContainer( pxQueue, xCopyPosition ) != pdFALSE )
    38f2:	2800      	cmp	r0, #0
    38f4:	d003      	beq.n	38fe <xQueueGenericSendFromISR+0x176>
							if( pxHigherPriorityTaskWoken != NULL )
    38f6:	2e00      	cmp	r6, #0
    38f8:	d0a0      	beq.n	383c <xQueueGenericSendFromISR+0xb4>
								*pxHigherPriorityTaskWoken = pdTRUE;
    38fa:	2301      	movs	r3, #1
    38fc:	6033      	str	r3, [r6, #0]
	portCLEAR_INTERRUPT_MASK_FROM_ISR( uxSavedInterruptStatus );
    38fe:	9800      	ldr	r0, [sp, #0]
    3900:	4b0e      	ldr	r3, [pc, #56]	; (393c <xQueueGenericSendFromISR+0x1b4>)
    3902:	4798      	blx	r3
}
    3904:	0028      	movs	r0, r5
    3906:	b003      	add	sp, #12
    3908:	bc0c      	pop	{r2, r3}
    390a:	4690      	mov	r8, r2
    390c:	469b      	mov	fp, r3
    390e:	bdf0      	pop	{r4, r5, r6, r7, pc}
    3910:	00002eb9 	.word	0x00002eb9
    3914:	00001c75 	.word	0x00001c75
    3918:	20000020 	.word	0x20000020
    391c:	00001bf5 	.word	0x00001bf5
    3920:	20000018 	.word	0x20000018
    3924:	00001c65 	.word	0x00001c65
    3928:	00002901 	.word	0x00002901
    392c:	00004c3d 	.word	0x00004c3d
    3930:	000023d5 	.word	0x000023d5
    3934:	0000300d 	.word	0x0000300d
    3938:	00003089 	.word	0x00003089
    393c:	00002ec1 	.word	0x00002ec1

00003940 <MyWrapper>:
{
    3940:	b5f0      	push	{r4, r5, r6, r7, lr}
    3942:	46d6      	mov	lr, sl
    3944:	4647      	mov	r7, r8
    3946:	b580      	push	{r7, lr}
    3948:	b083      	sub	sp, #12
    394a:	0004      	movs	r4, r0
    394c:	000f      	movs	r7, r1
    394e:	0016      	movs	r6, r2
	configASSERT( pxQueue );
    3950:	2800      	cmp	r0, #0
    3952:	d004      	beq.n	395e <MyWrapper+0x1e>
	configASSERT( pxQueue->uxItemSize == 0 );
    3954:	6c03      	ldr	r3, [r0, #64]	; 0x40
    3956:	2b00      	cmp	r3, #0
    3958:	d003      	beq.n	3962 <MyWrapper+0x22>
    395a:	b672      	cpsid	i
    395c:	e7fe      	b.n	395c <MyWrapper+0x1c>
	configASSERT( pxQueue );
    395e:	b672      	cpsid	i
    3960:	e7fe      	b.n	3960 <MyWrapper+0x20>
	configASSERT( !( ( pxQueue->uxQueueType == queueQUEUE_IS_MUTEX ) && ( pxQueue->pxMutexHolder != NULL ) ) );
    3962:	6803      	ldr	r3, [r0, #0]
    3964:	2b00      	cmp	r3, #0
    3966:	d055      	beq.n	3a14 <MyWrapper+0xd4>
	uxSavedInterruptStatus = portSET_INTERRUPT_MASK_FROM_ISR();
    3968:	4b4a      	ldr	r3, [pc, #296]	; (3a94 <MyWrapper+0x154>)
    396a:	4798      	blx	r3
    396c:	9001      	str	r0, [sp, #4]
		const UBaseType_t uxMessagesWaiting = pxQueue->uxMessagesWaiting;
    396e:	6ba3      	ldr	r3, [r4, #56]	; 0x38
    3970:	4698      	mov	r8, r3
		if( uxMessagesWaiting < pxQueue->uxLength )
    3972:	6be3      	ldr	r3, [r4, #60]	; 0x3c
    3974:	4598      	cmp	r8, r3
    3976:	d267      	bcs.n	3a48 <MyWrapper+0x108>
			const int8_t cTxLock = pxQueue->cTxLock;
    3978:	2345      	movs	r3, #69	; 0x45
    397a:	5ce5      	ldrb	r5, [r4, r3]
    397c:	b26d      	sxtb	r5, r5
			traceQUEUE_SEND_FROM_ISR( pxQueue );
    397e:	0020      	movs	r0, r4
    3980:	4b45      	ldr	r3, [pc, #276]	; (3a98 <MyWrapper+0x158>)
    3982:	4798      	blx	r3
    3984:	4b45      	ldr	r3, [pc, #276]	; (3a9c <MyWrapper+0x15c>)
    3986:	881b      	ldrh	r3, [r3, #0]
    3988:	4203      	tst	r3, r0
    398a:	d018      	beq.n	39be <MyWrapper+0x7e>
    398c:	2335      	movs	r3, #53	; 0x35
    398e:	469a      	mov	sl, r3
    3990:	2e00      	cmp	r6, #0
    3992:	d107      	bne.n	39a4 <MyWrapper+0x64>
    3994:	0020      	movs	r0, r4
    3996:	4b42      	ldr	r3, [pc, #264]	; (3aa0 <MyWrapper+0x160>)
    3998:	4798      	blx	r3
    399a:	4b42      	ldr	r3, [pc, #264]	; (3aa4 <MyWrapper+0x164>)
    399c:	5c1b      	ldrb	r3, [r3, r0]
    399e:	3330      	adds	r3, #48	; 0x30
    39a0:	b2db      	uxtb	r3, r3
    39a2:	469a      	mov	sl, r3
    39a4:	0020      	movs	r0, r4
    39a6:	4b3e      	ldr	r3, [pc, #248]	; (3aa0 <MyWrapper+0x160>)
    39a8:	4798      	blx	r3
    39aa:	4b3e      	ldr	r3, [pc, #248]	; (3aa4 <MyWrapper+0x164>)
    39ac:	5c1e      	ldrb	r6, [r3, r0]
    39ae:	0020      	movs	r0, r4
    39b0:	4b3d      	ldr	r3, [pc, #244]	; (3aa8 <MyWrapper+0x168>)
    39b2:	4798      	blx	r3
    39b4:	b2c2      	uxtb	r2, r0
    39b6:	0031      	movs	r1, r6
    39b8:	4650      	mov	r0, sl
    39ba:	4b3c      	ldr	r3, [pc, #240]	; (3aac <MyWrapper+0x16c>)
    39bc:	4798      	blx	r3
    39be:	0020      	movs	r0, r4
    39c0:	4b37      	ldr	r3, [pc, #220]	; (3aa0 <MyWrapper+0x160>)
    39c2:	4798      	blx	r3
    39c4:	4b37      	ldr	r3, [pc, #220]	; (3aa4 <MyWrapper+0x164>)
    39c6:	5c1e      	ldrb	r6, [r3, r0]
    39c8:	0020      	movs	r0, r4
    39ca:	4b37      	ldr	r3, [pc, #220]	; (3aa8 <MyWrapper+0x168>)
    39cc:	4798      	blx	r3
    39ce:	6ba2      	ldr	r2, [r4, #56]	; 0x38
    39d0:	3201      	adds	r2, #1
    39d2:	b2d2      	uxtb	r2, r2
    39d4:	b2c1      	uxtb	r1, r0
    39d6:	0030      	movs	r0, r6
    39d8:	4b35      	ldr	r3, [pc, #212]	; (3ab0 <MyWrapper+0x170>)
    39da:	4798      	blx	r3
			pxQueue->uxMessagesWaiting = uxMessagesWaiting + ( UBaseType_t ) 1;
    39dc:	4643      	mov	r3, r8
    39de:	3301      	adds	r3, #1
    39e0:	63a3      	str	r3, [r4, #56]	; 0x38
			if( cTxLock == queueUNLOCKED )
    39e2:	1c6b      	adds	r3, r5, #1
    39e4:	d12a      	bne.n	3a3c <MyWrapper+0xfc>
					if( pxQueue->pxQueueSetContainer != NULL )
    39e6:	6ca3      	ldr	r3, [r4, #72]	; 0x48
    39e8:	2b00      	cmp	r3, #0
    39ea:	d018      	beq.n	3a1e <MyWrapper+0xde>
						if( prvNotifyQueueSetContainer( pxQueue, queueSEND_TO_BACK ) != pdFALSE )
    39ec:	2100      	movs	r1, #0
    39ee:	0020      	movs	r0, r4
    39f0:	4b30      	ldr	r3, [pc, #192]	; (3ab4 <MyWrapper+0x174>)
    39f2:	4798      	blx	r3
			xReturn = pdPASS;
    39f4:	3502      	adds	r5, #2
						if( prvNotifyQueueSetContainer( pxQueue, queueSEND_TO_BACK ) != pdFALSE )
    39f6:	2800      	cmp	r0, #0
    39f8:	d003      	beq.n	3a02 <MyWrapper+0xc2>
							if( pxHigherPriorityTaskWoken != NULL )
    39fa:	2f00      	cmp	r7, #0
    39fc:	d045      	beq.n	3a8a <MyWrapper+0x14a>
								*pxHigherPriorityTaskWoken = pdTRUE;
    39fe:	2301      	movs	r3, #1
    3a00:	603b      	str	r3, [r7, #0]
	portCLEAR_INTERRUPT_MASK_FROM_ISR( uxSavedInterruptStatus );
    3a02:	9801      	ldr	r0, [sp, #4]
    3a04:	4b2c      	ldr	r3, [pc, #176]	; (3ab8 <MyWrapper+0x178>)
    3a06:	4798      	blx	r3
}
    3a08:	0028      	movs	r0, r5
    3a0a:	b003      	add	sp, #12
    3a0c:	bc0c      	pop	{r2, r3}
    3a0e:	4690      	mov	r8, r2
    3a10:	469a      	mov	sl, r3
    3a12:	bdf0      	pop	{r4, r5, r6, r7, pc}
	configASSERT( !( ( pxQueue->uxQueueType == queueQUEUE_IS_MUTEX ) && ( pxQueue->pxMutexHolder != NULL ) ) );
    3a14:	6843      	ldr	r3, [r0, #4]
    3a16:	2b00      	cmp	r3, #0
    3a18:	d0a6      	beq.n	3968 <MyWrapper+0x28>
    3a1a:	b672      	cpsid	i
    3a1c:	e7fe      	b.n	3a1c <MyWrapper+0xdc>
						if( listLIST_IS_EMPTY( &( pxQueue->xTasksWaitingToReceive ) ) == pdFALSE )
    3a1e:	6a63      	ldr	r3, [r4, #36]	; 0x24
			xReturn = pdPASS;
    3a20:	2501      	movs	r5, #1
						if( listLIST_IS_EMPTY( &( pxQueue->xTasksWaitingToReceive ) ) == pdFALSE )
    3a22:	2b00      	cmp	r3, #0
    3a24:	d0ed      	beq.n	3a02 <MyWrapper+0xc2>
							if( xTaskRemoveFromEventList( &( pxQueue->xTasksWaitingToReceive ) ) != pdFALSE )
    3a26:	0020      	movs	r0, r4
    3a28:	3024      	adds	r0, #36	; 0x24
    3a2a:	4b24      	ldr	r3, [pc, #144]	; (3abc <MyWrapper+0x17c>)
    3a2c:	4798      	blx	r3
    3a2e:	2800      	cmp	r0, #0
    3a30:	d0e7      	beq.n	3a02 <MyWrapper+0xc2>
								if( pxHigherPriorityTaskWoken != NULL )
    3a32:	2f00      	cmp	r7, #0
    3a34:	d02b      	beq.n	3a8e <MyWrapper+0x14e>
									*pxHigherPriorityTaskWoken = pdTRUE;
    3a36:	2301      	movs	r3, #1
    3a38:	603b      	str	r3, [r7, #0]
    3a3a:	e7e2      	b.n	3a02 <MyWrapper+0xc2>
				pxQueue->cTxLock = ( int8_t ) ( cTxLock + 1 );
    3a3c:	3501      	adds	r5, #1
    3a3e:	b26d      	sxtb	r5, r5
    3a40:	2345      	movs	r3, #69	; 0x45
    3a42:	54e5      	strb	r5, [r4, r3]
			xReturn = pdPASS;
    3a44:	2501      	movs	r5, #1
    3a46:	e7dc      	b.n	3a02 <MyWrapper+0xc2>
			traceQUEUE_SEND_FROM_ISR_FAILED( pxQueue );
    3a48:	0020      	movs	r0, r4
    3a4a:	4b13      	ldr	r3, [pc, #76]	; (3a98 <MyWrapper+0x158>)
    3a4c:	4798      	blx	r3
    3a4e:	4b13      	ldr	r3, [pc, #76]	; (3a9c <MyWrapper+0x15c>)
    3a50:	881b      	ldrh	r3, [r3, #0]
			xReturn = errQUEUE_FULL;
    3a52:	2500      	movs	r5, #0
			traceQUEUE_SEND_FROM_ISR_FAILED( pxQueue );
    3a54:	4203      	tst	r3, r0
    3a56:	d0d4      	beq.n	3a02 <MyWrapper+0xc2>
    3a58:	355d      	adds	r5, #93	; 0x5d
    3a5a:	2e00      	cmp	r6, #0
    3a5c:	d106      	bne.n	3a6c <MyWrapper+0x12c>
    3a5e:	0020      	movs	r0, r4
    3a60:	4b0f      	ldr	r3, [pc, #60]	; (3aa0 <MyWrapper+0x160>)
    3a62:	4798      	blx	r3
    3a64:	4b0f      	ldr	r3, [pc, #60]	; (3aa4 <MyWrapper+0x164>)
    3a66:	5c1d      	ldrb	r5, [r3, r0]
    3a68:	3558      	adds	r5, #88	; 0x58
    3a6a:	b2ed      	uxtb	r5, r5
    3a6c:	0020      	movs	r0, r4
    3a6e:	4b0c      	ldr	r3, [pc, #48]	; (3aa0 <MyWrapper+0x160>)
    3a70:	4798      	blx	r3
    3a72:	4b0c      	ldr	r3, [pc, #48]	; (3aa4 <MyWrapper+0x164>)
    3a74:	5c1f      	ldrb	r7, [r3, r0]
    3a76:	0020      	movs	r0, r4
    3a78:	4b0b      	ldr	r3, [pc, #44]	; (3aa8 <MyWrapper+0x168>)
    3a7a:	4798      	blx	r3
    3a7c:	b2c2      	uxtb	r2, r0
    3a7e:	0039      	movs	r1, r7
    3a80:	0028      	movs	r0, r5
    3a82:	4b0a      	ldr	r3, [pc, #40]	; (3aac <MyWrapper+0x16c>)
    3a84:	4798      	blx	r3
			xReturn = errQUEUE_FULL;
    3a86:	2500      	movs	r5, #0
    3a88:	e7bb      	b.n	3a02 <MyWrapper+0xc2>
			xReturn = pdPASS;
    3a8a:	2501      	movs	r5, #1
    3a8c:	e7b9      	b.n	3a02 <MyWrapper+0xc2>
    3a8e:	2501      	movs	r5, #1
    3a90:	e7b7      	b.n	3a02 <MyWrapper+0xc2>
    3a92:	46c0      	nop			; (mov r8, r8)
    3a94:	00002eb9 	.word	0x00002eb9
    3a98:	00001c75 	.word	0x00001c75
    3a9c:	20000020 	.word	0x20000020
    3aa0:	00001bf5 	.word	0x00001bf5
    3aa4:	20000018 	.word	0x20000018
    3aa8:	00001c65 	.word	0x00001c65
    3aac:	00002901 	.word	0x00002901
    3ab0:	000023d5 	.word	0x000023d5
    3ab4:	00003089 	.word	0x00003089
    3ab8:	00002ec1 	.word	0x00002ec1
    3abc:	00004c3d 	.word	0x00004c3d

00003ac0 <xQueueGiveFromISR>:
BaseType_t xQueueGiveFromISR( QueueHandle_t xQueue, BaseType_t * const pxHigherPriorityTaskWoken )
    3ac0:	b510      	push	{r4, lr}
    3ac2:	2200      	movs	r2, #0
    3ac4:	4b01      	ldr	r3, [pc, #4]	; (3acc <xQueueGiveFromISR+0xc>)
    3ac6:	4798      	blx	r3
    3ac8:	bd10      	pop	{r4, pc}
    3aca:	46c0      	nop			; (mov r8, r8)
    3acc:	00003941 	.word	0x00003941

00003ad0 <xQueueReceive>:
{
    3ad0:	b5f0      	push	{r4, r5, r6, r7, lr}
    3ad2:	46ce      	mov	lr, r9
    3ad4:	4647      	mov	r7, r8
    3ad6:	b580      	push	{r7, lr}
    3ad8:	b085      	sub	sp, #20
    3ada:	1e04      	subs	r4, r0, #0
    3adc:	9100      	str	r1, [sp, #0]
    3ade:	9201      	str	r2, [sp, #4]
	configASSERT( ( pxQueue ) );
    3ae0:	d00b      	beq.n	3afa <xQueueReceive+0x2a>
	configASSERT( !( ( ( pvBuffer ) == NULL ) && ( ( pxQueue )->uxItemSize != ( UBaseType_t ) 0U ) ) );
    3ae2:	9b00      	ldr	r3, [sp, #0]
    3ae4:	2b00      	cmp	r3, #0
    3ae6:	d00a      	beq.n	3afe <xQueueReceive+0x2e>
		configASSERT( !( ( xTaskGetSchedulerState() == taskSCHEDULER_SUSPENDED ) && ( xTicksToWait != 0 ) ) );
    3ae8:	4ba4      	ldr	r3, [pc, #656]	; (3d7c <xQueueReceive+0x2ac>)
    3aea:	4798      	blx	r3
    3aec:	2800      	cmp	r0, #0
    3aee:	d10b      	bne.n	3b08 <xQueueReceive+0x38>
    3af0:	9b01      	ldr	r3, [sp, #4]
    3af2:	2b00      	cmp	r3, #0
    3af4:	d00c      	beq.n	3b10 <xQueueReceive+0x40>
    3af6:	b672      	cpsid	i
    3af8:	e7fe      	b.n	3af8 <xQueueReceive+0x28>
	configASSERT( ( pxQueue ) );
    3afa:	b672      	cpsid	i
    3afc:	e7fe      	b.n	3afc <xQueueReceive+0x2c>
	configASSERT( !( ( ( pvBuffer ) == NULL ) && ( ( pxQueue )->uxItemSize != ( UBaseType_t ) 0U ) ) );
    3afe:	6c03      	ldr	r3, [r0, #64]	; 0x40
    3b00:	2b00      	cmp	r3, #0
    3b02:	d0f1      	beq.n	3ae8 <xQueueReceive+0x18>
    3b04:	b672      	cpsid	i
    3b06:	e7fe      	b.n	3b06 <xQueueReceive+0x36>
    3b08:	2500      	movs	r5, #0
		taskENTER_CRITICAL();
    3b0a:	4b9d      	ldr	r3, [pc, #628]	; (3d80 <xQueueReceive+0x2b0>)
    3b0c:	4698      	mov	r8, r3
    3b0e:	e0b4      	b.n	3c7a <xQueueReceive+0x1aa>
    3b10:	2500      	movs	r5, #0
    3b12:	e7fa      	b.n	3b0a <xQueueReceive+0x3a>
				prvCopyDataFromQueue( pxQueue, pvBuffer );
    3b14:	9900      	ldr	r1, [sp, #0]
    3b16:	0020      	movs	r0, r4
    3b18:	4b9a      	ldr	r3, [pc, #616]	; (3d84 <xQueueReceive+0x2b4>)
    3b1a:	4798      	blx	r3
				traceQUEUE_RECEIVE( pxQueue );
    3b1c:	4b9a      	ldr	r3, [pc, #616]	; (3d88 <xQueueReceive+0x2b8>)
    3b1e:	4798      	blx	r3
    3b20:	4b9a      	ldr	r3, [pc, #616]	; (3d8c <xQueueReceive+0x2bc>)
    3b22:	4798      	blx	r3
    3b24:	4b9a      	ldr	r3, [pc, #616]	; (3d90 <xQueueReceive+0x2c0>)
    3b26:	881b      	ldrh	r3, [r3, #0]
    3b28:	4203      	tst	r3, r0
    3b2a:	d019      	beq.n	3b60 <xQueueReceive+0x90>
    3b2c:	0020      	movs	r0, r4
    3b2e:	4b99      	ldr	r3, [pc, #612]	; (3d94 <xQueueReceive+0x2c4>)
    3b30:	4798      	blx	r3
    3b32:	4b97      	ldr	r3, [pc, #604]	; (3d90 <xQueueReceive+0x2c0>)
    3b34:	881b      	ldrh	r3, [r3, #0]
    3b36:	4203      	tst	r3, r0
    3b38:	d012      	beq.n	3b60 <xQueueReceive+0x90>
    3b3a:	0020      	movs	r0, r4
    3b3c:	4b96      	ldr	r3, [pc, #600]	; (3d98 <xQueueReceive+0x2c8>)
    3b3e:	4698      	mov	r8, r3
    3b40:	4798      	blx	r3
    3b42:	4f96      	ldr	r7, [pc, #600]	; (3d9c <xQueueReceive+0x2cc>)
    3b44:	5c3d      	ldrb	r5, [r7, r0]
    3b46:	3528      	adds	r5, #40	; 0x28
    3b48:	b2ed      	uxtb	r5, r5
    3b4a:	0020      	movs	r0, r4
    3b4c:	47c0      	blx	r8
    3b4e:	5c3f      	ldrb	r7, [r7, r0]
    3b50:	0020      	movs	r0, r4
    3b52:	4b93      	ldr	r3, [pc, #588]	; (3da0 <xQueueReceive+0x2d0>)
    3b54:	4798      	blx	r3
    3b56:	b2c2      	uxtb	r2, r0
    3b58:	0039      	movs	r1, r7
    3b5a:	0028      	movs	r0, r5
    3b5c:	4b91      	ldr	r3, [pc, #580]	; (3da4 <xQueueReceive+0x2d4>)
    3b5e:	4798      	blx	r3
    3b60:	0020      	movs	r0, r4
    3b62:	4f8d      	ldr	r7, [pc, #564]	; (3d98 <xQueueReceive+0x2c8>)
    3b64:	47b8      	blx	r7
    3b66:	4d8d      	ldr	r5, [pc, #564]	; (3d9c <xQueueReceive+0x2cc>)
    3b68:	5c2b      	ldrb	r3, [r5, r0]
    3b6a:	4699      	mov	r9, r3
    3b6c:	0020      	movs	r0, r4
    3b6e:	4b8c      	ldr	r3, [pc, #560]	; (3da0 <xQueueReceive+0x2d0>)
    3b70:	4798      	blx	r3
    3b72:	b2c3      	uxtb	r3, r0
    3b74:	4698      	mov	r8, r3
    3b76:	0020      	movs	r0, r4
    3b78:	47b8      	blx	r7
    3b7a:	5c2b      	ldrb	r3, [r5, r0]
    3b7c:	2b02      	cmp	r3, #2
    3b7e:	d11e      	bne.n	3bbe <xQueueReceive+0xee>
    3b80:	4b81      	ldr	r3, [pc, #516]	; (3d88 <xQueueReceive+0x2b8>)
    3b82:	4798      	blx	r3
    3b84:	4b88      	ldr	r3, [pc, #544]	; (3da8 <xQueueReceive+0x2d8>)
    3b86:	4798      	blx	r3
    3b88:	b2c2      	uxtb	r2, r0
    3b8a:	4641      	mov	r1, r8
    3b8c:	4648      	mov	r0, r9
    3b8e:	4b87      	ldr	r3, [pc, #540]	; (3dac <xQueueReceive+0x2dc>)
    3b90:	4798      	blx	r3
				pxQueue->uxMessagesWaiting = uxMessagesWaiting - ( UBaseType_t ) 1;
    3b92:	3e01      	subs	r6, #1
    3b94:	63a6      	str	r6, [r4, #56]	; 0x38
				if( listLIST_IS_EMPTY( &( pxQueue->xTasksWaitingToSend ) ) == pdFALSE )
    3b96:	6923      	ldr	r3, [r4, #16]
    3b98:	2b00      	cmp	r3, #0
    3b9a:	d007      	beq.n	3bac <xQueueReceive+0xdc>
					if( xTaskRemoveFromEventList( &( pxQueue->xTasksWaitingToSend ) ) != pdFALSE )
    3b9c:	0020      	movs	r0, r4
    3b9e:	3010      	adds	r0, #16
    3ba0:	4b83      	ldr	r3, [pc, #524]	; (3db0 <xQueueReceive+0x2e0>)
    3ba2:	4798      	blx	r3
    3ba4:	2800      	cmp	r0, #0
    3ba6:	d001      	beq.n	3bac <xQueueReceive+0xdc>
						queueYIELD_IF_USING_PREEMPTION();
    3ba8:	4b82      	ldr	r3, [pc, #520]	; (3db4 <xQueueReceive+0x2e4>)
    3baa:	4798      	blx	r3
				taskEXIT_CRITICAL();
    3bac:	4b82      	ldr	r3, [pc, #520]	; (3db8 <xQueueReceive+0x2e8>)
    3bae:	4798      	blx	r3
				return pdPASS;
    3bb0:	2301      	movs	r3, #1
}
    3bb2:	0018      	movs	r0, r3
    3bb4:	b005      	add	sp, #20
    3bb6:	bc0c      	pop	{r2, r3}
    3bb8:	4690      	mov	r8, r2
    3bba:	4699      	mov	r9, r3
    3bbc:	bdf0      	pop	{r4, r5, r6, r7, pc}
				traceQUEUE_RECEIVE( pxQueue );
    3bbe:	6ba2      	ldr	r2, [r4, #56]	; 0x38
    3bc0:	3a01      	subs	r2, #1
    3bc2:	b2d2      	uxtb	r2, r2
    3bc4:	e7e1      	b.n	3b8a <xQueueReceive+0xba>
					taskEXIT_CRITICAL();
    3bc6:	4b7c      	ldr	r3, [pc, #496]	; (3db8 <xQueueReceive+0x2e8>)
    3bc8:	4798      	blx	r3
					traceQUEUE_RECEIVE_FAILED( pxQueue );
    3bca:	4b6f      	ldr	r3, [pc, #444]	; (3d88 <xQueueReceive+0x2b8>)
    3bcc:	4798      	blx	r3
    3bce:	4b6f      	ldr	r3, [pc, #444]	; (3d8c <xQueueReceive+0x2bc>)
    3bd0:	4798      	blx	r3
    3bd2:	4b6f      	ldr	r3, [pc, #444]	; (3d90 <xQueueReceive+0x2c0>)
    3bd4:	881a      	ldrh	r2, [r3, #0]
					return errQUEUE_EMPTY;
    3bd6:	2300      	movs	r3, #0
					traceQUEUE_RECEIVE_FAILED( pxQueue );
    3bd8:	4202      	tst	r2, r0
    3bda:	d0ea      	beq.n	3bb2 <xQueueReceive+0xe2>
    3bdc:	0020      	movs	r0, r4
    3bde:	4b6d      	ldr	r3, [pc, #436]	; (3d94 <xQueueReceive+0x2c4>)
    3be0:	4798      	blx	r3
    3be2:	4b6b      	ldr	r3, [pc, #428]	; (3d90 <xQueueReceive+0x2c0>)
    3be4:	881a      	ldrh	r2, [r3, #0]
					return errQUEUE_EMPTY;
    3be6:	2300      	movs	r3, #0
					traceQUEUE_RECEIVE_FAILED( pxQueue );
    3be8:	4202      	tst	r2, r0
    3bea:	d0e2      	beq.n	3bb2 <xQueueReceive+0xe2>
    3bec:	0020      	movs	r0, r4
    3bee:	4f6a      	ldr	r7, [pc, #424]	; (3d98 <xQueueReceive+0x2c8>)
    3bf0:	47b8      	blx	r7
    3bf2:	4e6a      	ldr	r6, [pc, #424]	; (3d9c <xQueueReceive+0x2cc>)
    3bf4:	5c35      	ldrb	r5, [r6, r0]
    3bf6:	3550      	adds	r5, #80	; 0x50
    3bf8:	b2ed      	uxtb	r5, r5
    3bfa:	0020      	movs	r0, r4
    3bfc:	47b8      	blx	r7
    3bfe:	5c36      	ldrb	r6, [r6, r0]
    3c00:	0020      	movs	r0, r4
    3c02:	4b67      	ldr	r3, [pc, #412]	; (3da0 <xQueueReceive+0x2d0>)
    3c04:	4798      	blx	r3
    3c06:	b2c2      	uxtb	r2, r0
    3c08:	0031      	movs	r1, r6
    3c0a:	0028      	movs	r0, r5
    3c0c:	4b65      	ldr	r3, [pc, #404]	; (3da4 <xQueueReceive+0x2d4>)
    3c0e:	4798      	blx	r3
					return errQUEUE_EMPTY;
    3c10:	2300      	movs	r3, #0
    3c12:	e7ce      	b.n	3bb2 <xQueueReceive+0xe2>
					vTaskInternalSetTimeOutState( &xTimeOut );
    3c14:	a802      	add	r0, sp, #8
    3c16:	4b69      	ldr	r3, [pc, #420]	; (3dbc <xQueueReceive+0x2ec>)
    3c18:	4798      	blx	r3
    3c1a:	e038      	b.n	3c8e <xQueueReceive+0x1be>
		prvLockQueue( pxQueue );
    3c1c:	2200      	movs	r2, #0
    3c1e:	2344      	movs	r3, #68	; 0x44
    3c20:	54e2      	strb	r2, [r4, r3]
    3c22:	e03f      	b.n	3ca4 <xQueueReceive+0x1d4>
    3c24:	2200      	movs	r2, #0
    3c26:	2345      	movs	r3, #69	; 0x45
    3c28:	54e2      	strb	r2, [r4, r3]
    3c2a:	e040      	b.n	3cae <xQueueReceive+0x1de>
				traceBLOCKING_ON_QUEUE_RECEIVE( pxQueue );
    3c2c:	0020      	movs	r0, r4
    3c2e:	4b59      	ldr	r3, [pc, #356]	; (3d94 <xQueueReceive+0x2c4>)
    3c30:	4798      	blx	r3
    3c32:	4b57      	ldr	r3, [pc, #348]	; (3d90 <xQueueReceive+0x2c0>)
    3c34:	881b      	ldrh	r3, [r3, #0]
    3c36:	4203      	tst	r3, r0
    3c38:	d04e      	beq.n	3cd8 <xQueueReceive+0x208>
    3c3a:	0020      	movs	r0, r4
    3c3c:	4f56      	ldr	r7, [pc, #344]	; (3d98 <xQueueReceive+0x2c8>)
    3c3e:	47b8      	blx	r7
    3c40:	4e56      	ldr	r6, [pc, #344]	; (3d9c <xQueueReceive+0x2cc>)
    3c42:	5c35      	ldrb	r5, [r6, r0]
    3c44:	3568      	adds	r5, #104	; 0x68
    3c46:	b2ed      	uxtb	r5, r5
    3c48:	0020      	movs	r0, r4
    3c4a:	47b8      	blx	r7
    3c4c:	5c36      	ldrb	r6, [r6, r0]
    3c4e:	0020      	movs	r0, r4
    3c50:	4b53      	ldr	r3, [pc, #332]	; (3da0 <xQueueReceive+0x2d0>)
    3c52:	4798      	blx	r3
    3c54:	b2c2      	uxtb	r2, r0
    3c56:	0031      	movs	r1, r6
    3c58:	0028      	movs	r0, r5
    3c5a:	4b52      	ldr	r3, [pc, #328]	; (3da4 <xQueueReceive+0x2d4>)
    3c5c:	4798      	blx	r3
    3c5e:	e03b      	b.n	3cd8 <xQueueReceive+0x208>
				vTaskPlaceOnEventList( &( pxQueue->xTasksWaitingToReceive ), xTicksToWait );
    3c60:	0020      	movs	r0, r4
    3c62:	3024      	adds	r0, #36	; 0x24
    3c64:	9901      	ldr	r1, [sp, #4]
    3c66:	4b56      	ldr	r3, [pc, #344]	; (3dc0 <xQueueReceive+0x2f0>)
    3c68:	4798      	blx	r3
				prvUnlockQueue( pxQueue );
    3c6a:	0020      	movs	r0, r4
    3c6c:	4b55      	ldr	r3, [pc, #340]	; (3dc4 <xQueueReceive+0x2f4>)
    3c6e:	4798      	blx	r3
				if( xTaskResumeAll() == pdFALSE )
    3c70:	4b55      	ldr	r3, [pc, #340]	; (3dc8 <xQueueReceive+0x2f8>)
    3c72:	4798      	blx	r3
    3c74:	2800      	cmp	r0, #0
    3c76:	d046      	beq.n	3d06 <xQueueReceive+0x236>
    3c78:	2501      	movs	r5, #1
		taskENTER_CRITICAL();
    3c7a:	47c0      	blx	r8
			const UBaseType_t uxMessagesWaiting = pxQueue->uxMessagesWaiting;
    3c7c:	6ba6      	ldr	r6, [r4, #56]	; 0x38
			if( uxMessagesWaiting > ( UBaseType_t ) 0 )
    3c7e:	2e00      	cmp	r6, #0
    3c80:	d000      	beq.n	3c84 <xQueueReceive+0x1b4>
    3c82:	e747      	b.n	3b14 <xQueueReceive+0x44>
				if( xTicksToWait == ( TickType_t ) 0 )
    3c84:	9b01      	ldr	r3, [sp, #4]
    3c86:	2b00      	cmp	r3, #0
    3c88:	d09d      	beq.n	3bc6 <xQueueReceive+0xf6>
				else if( xEntryTimeSet == pdFALSE )
    3c8a:	2d00      	cmp	r5, #0
    3c8c:	d0c2      	beq.n	3c14 <xQueueReceive+0x144>
		taskEXIT_CRITICAL();
    3c8e:	4b4a      	ldr	r3, [pc, #296]	; (3db8 <xQueueReceive+0x2e8>)
    3c90:	4798      	blx	r3
		vTaskSuspendAll();
    3c92:	4b4e      	ldr	r3, [pc, #312]	; (3dcc <xQueueReceive+0x2fc>)
    3c94:	4798      	blx	r3
		prvLockQueue( pxQueue );
    3c96:	4b3a      	ldr	r3, [pc, #232]	; (3d80 <xQueueReceive+0x2b0>)
    3c98:	4798      	blx	r3
    3c9a:	2344      	movs	r3, #68	; 0x44
    3c9c:	5ce3      	ldrb	r3, [r4, r3]
    3c9e:	b25b      	sxtb	r3, r3
    3ca0:	3301      	adds	r3, #1
    3ca2:	d0bb      	beq.n	3c1c <xQueueReceive+0x14c>
    3ca4:	2345      	movs	r3, #69	; 0x45
    3ca6:	5ce3      	ldrb	r3, [r4, r3]
    3ca8:	b25b      	sxtb	r3, r3
    3caa:	3301      	adds	r3, #1
    3cac:	d0ba      	beq.n	3c24 <xQueueReceive+0x154>
    3cae:	4b42      	ldr	r3, [pc, #264]	; (3db8 <xQueueReceive+0x2e8>)
    3cb0:	4798      	blx	r3
		if( xTaskCheckForTimeOut( &xTimeOut, &xTicksToWait ) == pdFALSE )
    3cb2:	a901      	add	r1, sp, #4
    3cb4:	a802      	add	r0, sp, #8
    3cb6:	4b46      	ldr	r3, [pc, #280]	; (3dd0 <xQueueReceive+0x300>)
    3cb8:	4798      	blx	r3
    3cba:	2800      	cmp	r0, #0
    3cbc:	d12c      	bne.n	3d18 <xQueueReceive+0x248>
			if( prvIsQueueEmpty( pxQueue ) != pdFALSE )
    3cbe:	0020      	movs	r0, r4
    3cc0:	4b44      	ldr	r3, [pc, #272]	; (3dd4 <xQueueReceive+0x304>)
    3cc2:	4798      	blx	r3
    3cc4:	2800      	cmp	r0, #0
    3cc6:	d021      	beq.n	3d0c <xQueueReceive+0x23c>
				traceBLOCKING_ON_QUEUE_RECEIVE( pxQueue );
    3cc8:	4b2f      	ldr	r3, [pc, #188]	; (3d88 <xQueueReceive+0x2b8>)
    3cca:	4798      	blx	r3
    3ccc:	4b2f      	ldr	r3, [pc, #188]	; (3d8c <xQueueReceive+0x2bc>)
    3cce:	4798      	blx	r3
    3cd0:	4b2f      	ldr	r3, [pc, #188]	; (3d90 <xQueueReceive+0x2c0>)
    3cd2:	881b      	ldrh	r3, [r3, #0]
    3cd4:	4203      	tst	r3, r0
    3cd6:	d1a9      	bne.n	3c2c <xQueueReceive+0x15c>
    3cd8:	0020      	movs	r0, r4
    3cda:	4b2f      	ldr	r3, [pc, #188]	; (3d98 <xQueueReceive+0x2c8>)
    3cdc:	4798      	blx	r3
    3cde:	4b2f      	ldr	r3, [pc, #188]	; (3d9c <xQueueReceive+0x2cc>)
    3ce0:	5c1b      	ldrb	r3, [r3, r0]
    3ce2:	2b02      	cmp	r3, #2
    3ce4:	d0bc      	beq.n	3c60 <xQueueReceive+0x190>
    3ce6:	4b28      	ldr	r3, [pc, #160]	; (3d88 <xQueueReceive+0x2b8>)
    3ce8:	4798      	blx	r3
    3cea:	4b28      	ldr	r3, [pc, #160]	; (3d8c <xQueueReceive+0x2bc>)
    3cec:	4798      	blx	r3
    3cee:	4b28      	ldr	r3, [pc, #160]	; (3d90 <xQueueReceive+0x2c0>)
    3cf0:	881b      	ldrh	r3, [r3, #0]
    3cf2:	4203      	tst	r3, r0
    3cf4:	d0b4      	beq.n	3c60 <xQueueReceive+0x190>
    3cf6:	4b24      	ldr	r3, [pc, #144]	; (3d88 <xQueueReceive+0x2b8>)
    3cf8:	4798      	blx	r3
    3cfa:	4b2b      	ldr	r3, [pc, #172]	; (3da8 <xQueueReceive+0x2d8>)
    3cfc:	4798      	blx	r3
    3cfe:	b2c0      	uxtb	r0, r0
    3d00:	4b35      	ldr	r3, [pc, #212]	; (3dd8 <xQueueReceive+0x308>)
    3d02:	4798      	blx	r3
    3d04:	e7ac      	b.n	3c60 <xQueueReceive+0x190>
					portYIELD_WITHIN_API();
    3d06:	4b2b      	ldr	r3, [pc, #172]	; (3db4 <xQueueReceive+0x2e4>)
    3d08:	4798      	blx	r3
    3d0a:	e7b5      	b.n	3c78 <xQueueReceive+0x1a8>
				prvUnlockQueue( pxQueue );
    3d0c:	0020      	movs	r0, r4
    3d0e:	4b2d      	ldr	r3, [pc, #180]	; (3dc4 <xQueueReceive+0x2f4>)
    3d10:	4798      	blx	r3
				( void ) xTaskResumeAll();
    3d12:	4b2d      	ldr	r3, [pc, #180]	; (3dc8 <xQueueReceive+0x2f8>)
    3d14:	4798      	blx	r3
    3d16:	e7af      	b.n	3c78 <xQueueReceive+0x1a8>
			prvUnlockQueue( pxQueue );
    3d18:	0020      	movs	r0, r4
    3d1a:	4b2a      	ldr	r3, [pc, #168]	; (3dc4 <xQueueReceive+0x2f4>)
    3d1c:	4798      	blx	r3
			( void ) xTaskResumeAll();
    3d1e:	4b2a      	ldr	r3, [pc, #168]	; (3dc8 <xQueueReceive+0x2f8>)
    3d20:	4798      	blx	r3
			if( prvIsQueueEmpty( pxQueue ) != pdFALSE )
    3d22:	0020      	movs	r0, r4
    3d24:	4b2b      	ldr	r3, [pc, #172]	; (3dd4 <xQueueReceive+0x304>)
    3d26:	4798      	blx	r3
    3d28:	2800      	cmp	r0, #0
    3d2a:	d0a5      	beq.n	3c78 <xQueueReceive+0x1a8>
				traceQUEUE_RECEIVE_FAILED( pxQueue );
    3d2c:	4b16      	ldr	r3, [pc, #88]	; (3d88 <xQueueReceive+0x2b8>)
    3d2e:	4798      	blx	r3
    3d30:	4b16      	ldr	r3, [pc, #88]	; (3d8c <xQueueReceive+0x2bc>)
    3d32:	4798      	blx	r3
    3d34:	4b16      	ldr	r3, [pc, #88]	; (3d90 <xQueueReceive+0x2c0>)
    3d36:	881a      	ldrh	r2, [r3, #0]
				return errQUEUE_EMPTY;
    3d38:	2300      	movs	r3, #0
				traceQUEUE_RECEIVE_FAILED( pxQueue );
    3d3a:	4202      	tst	r2, r0
    3d3c:	d100      	bne.n	3d40 <xQueueReceive+0x270>
    3d3e:	e738      	b.n	3bb2 <xQueueReceive+0xe2>
    3d40:	0020      	movs	r0, r4
    3d42:	4b14      	ldr	r3, [pc, #80]	; (3d94 <xQueueReceive+0x2c4>)
    3d44:	4798      	blx	r3
    3d46:	4b12      	ldr	r3, [pc, #72]	; (3d90 <xQueueReceive+0x2c0>)
    3d48:	881a      	ldrh	r2, [r3, #0]
				return errQUEUE_EMPTY;
    3d4a:	2300      	movs	r3, #0
				traceQUEUE_RECEIVE_FAILED( pxQueue );
    3d4c:	4202      	tst	r2, r0
    3d4e:	d100      	bne.n	3d52 <xQueueReceive+0x282>
    3d50:	e72f      	b.n	3bb2 <xQueueReceive+0xe2>
    3d52:	0020      	movs	r0, r4
    3d54:	4f10      	ldr	r7, [pc, #64]	; (3d98 <xQueueReceive+0x2c8>)
    3d56:	47b8      	blx	r7
    3d58:	4e10      	ldr	r6, [pc, #64]	; (3d9c <xQueueReceive+0x2cc>)
    3d5a:	5c35      	ldrb	r5, [r6, r0]
    3d5c:	3550      	adds	r5, #80	; 0x50
    3d5e:	b2ed      	uxtb	r5, r5
    3d60:	0020      	movs	r0, r4
    3d62:	47b8      	blx	r7
    3d64:	5c36      	ldrb	r6, [r6, r0]
    3d66:	0020      	movs	r0, r4
    3d68:	4b0d      	ldr	r3, [pc, #52]	; (3da0 <xQueueReceive+0x2d0>)
    3d6a:	4798      	blx	r3
    3d6c:	b2c2      	uxtb	r2, r0
    3d6e:	0031      	movs	r1, r6
    3d70:	0028      	movs	r0, r5
    3d72:	4b0c      	ldr	r3, [pc, #48]	; (3da4 <xQueueReceive+0x2d4>)
    3d74:	4798      	blx	r3
				return errQUEUE_EMPTY;
    3d76:	2300      	movs	r3, #0
    3d78:	e71b      	b.n	3bb2 <xQueueReceive+0xe2>
    3d7a:	46c0      	nop			; (mov r8, r8)
    3d7c:	00004da5 	.word	0x00004da5
    3d80:	00002e81 	.word	0x00002e81
    3d84:	000031a5 	.word	0x000031a5
    3d88:	00001cc9 	.word	0x00001cc9
    3d8c:	00001c11 	.word	0x00001c11
    3d90:	20000020 	.word	0x20000020
    3d94:	00001c75 	.word	0x00001c75
    3d98:	00001bf5 	.word	0x00001bf5
    3d9c:	20000018 	.word	0x20000018
    3da0:	00001c65 	.word	0x00001c65
    3da4:	00002901 	.word	0x00002901
    3da8:	00001c01 	.word	0x00001c01
    3dac:	000023d5 	.word	0x000023d5
    3db0:	00004c3d 	.word	0x00004c3d
    3db4:	00002e71 	.word	0x00002e71
    3db8:	00002e99 	.word	0x00002e99
    3dbc:	00004cf1 	.word	0x00004cf1
    3dc0:	00004b75 	.word	0x00004b75
    3dc4:	000031cd 	.word	0x000031cd
    3dc8:	0000478d 	.word	0x0000478d
    3dcc:	000045e5 	.word	0x000045e5
    3dd0:	00004d09 	.word	0x00004d09
    3dd4:	00002ff1 	.word	0x00002ff1
    3dd8:	0000242d 	.word	0x0000242d

00003ddc <xQueueSemaphoreTake>:
{
    3ddc:	b5f0      	push	{r4, r5, r6, r7, lr}
    3dde:	46ce      	mov	lr, r9
    3de0:	4647      	mov	r7, r8
    3de2:	b580      	push	{r7, lr}
    3de4:	b085      	sub	sp, #20
    3de6:	1e04      	subs	r4, r0, #0
    3de8:	9101      	str	r1, [sp, #4]
	configASSERT( ( pxQueue ) );
    3dea:	d004      	beq.n	3df6 <xQueueSemaphoreTake+0x1a>
	configASSERT( pxQueue->uxItemSize == 0 );
    3dec:	6c03      	ldr	r3, [r0, #64]	; 0x40
    3dee:	2b00      	cmp	r3, #0
    3df0:	d003      	beq.n	3dfa <xQueueSemaphoreTake+0x1e>
    3df2:	b672      	cpsid	i
    3df4:	e7fe      	b.n	3df4 <xQueueSemaphoreTake+0x18>
	configASSERT( ( pxQueue ) );
    3df6:	b672      	cpsid	i
    3df8:	e7fe      	b.n	3df8 <xQueueSemaphoreTake+0x1c>
		configASSERT( !( ( xTaskGetSchedulerState() == taskSCHEDULER_SUSPENDED ) && ( xTicksToWait != 0 ) ) );
    3dfa:	4bb2      	ldr	r3, [pc, #712]	; (40c4 <xQueueSemaphoreTake+0x2e8>)
    3dfc:	4798      	blx	r3
    3dfe:	2800      	cmp	r0, #0
    3e00:	d104      	bne.n	3e0c <xQueueSemaphoreTake+0x30>
    3e02:	9b01      	ldr	r3, [sp, #4]
    3e04:	2b00      	cmp	r3, #0
    3e06:	d006      	beq.n	3e16 <xQueueSemaphoreTake+0x3a>
    3e08:	b672      	cpsid	i
    3e0a:	e7fe      	b.n	3e0a <xQueueSemaphoreTake+0x2e>
    3e0c:	2500      	movs	r5, #0
    3e0e:	2700      	movs	r7, #0
		taskENTER_CRITICAL();
    3e10:	4bad      	ldr	r3, [pc, #692]	; (40c8 <xQueueSemaphoreTake+0x2ec>)
    3e12:	4698      	mov	r8, r3
    3e14:	e0bd      	b.n	3f92 <xQueueSemaphoreTake+0x1b6>
    3e16:	2500      	movs	r5, #0
    3e18:	2700      	movs	r7, #0
    3e1a:	e7f9      	b.n	3e10 <xQueueSemaphoreTake+0x34>
				traceQUEUE_RECEIVE( pxQueue );
    3e1c:	4bab      	ldr	r3, [pc, #684]	; (40cc <xQueueSemaphoreTake+0x2f0>)
    3e1e:	4798      	blx	r3
    3e20:	4bab      	ldr	r3, [pc, #684]	; (40d0 <xQueueSemaphoreTake+0x2f4>)
    3e22:	4798      	blx	r3
    3e24:	4bab      	ldr	r3, [pc, #684]	; (40d4 <xQueueSemaphoreTake+0x2f8>)
    3e26:	881b      	ldrh	r3, [r3, #0]
    3e28:	4203      	tst	r3, r0
    3e2a:	d019      	beq.n	3e60 <xQueueSemaphoreTake+0x84>
    3e2c:	0020      	movs	r0, r4
    3e2e:	4baa      	ldr	r3, [pc, #680]	; (40d8 <xQueueSemaphoreTake+0x2fc>)
    3e30:	4798      	blx	r3
    3e32:	4ba8      	ldr	r3, [pc, #672]	; (40d4 <xQueueSemaphoreTake+0x2f8>)
    3e34:	881b      	ldrh	r3, [r3, #0]
    3e36:	4203      	tst	r3, r0
    3e38:	d012      	beq.n	3e60 <xQueueSemaphoreTake+0x84>
    3e3a:	0020      	movs	r0, r4
    3e3c:	4ba7      	ldr	r3, [pc, #668]	; (40dc <xQueueSemaphoreTake+0x300>)
    3e3e:	4698      	mov	r8, r3
    3e40:	4798      	blx	r3
    3e42:	4fa7      	ldr	r7, [pc, #668]	; (40e0 <xQueueSemaphoreTake+0x304>)
    3e44:	5c3d      	ldrb	r5, [r7, r0]
    3e46:	3528      	adds	r5, #40	; 0x28
    3e48:	b2ed      	uxtb	r5, r5
    3e4a:	0020      	movs	r0, r4
    3e4c:	47c0      	blx	r8
    3e4e:	5c3f      	ldrb	r7, [r7, r0]
    3e50:	0020      	movs	r0, r4
    3e52:	4ba4      	ldr	r3, [pc, #656]	; (40e4 <xQueueSemaphoreTake+0x308>)
    3e54:	4798      	blx	r3
    3e56:	b2c2      	uxtb	r2, r0
    3e58:	0039      	movs	r1, r7
    3e5a:	0028      	movs	r0, r5
    3e5c:	4ba2      	ldr	r3, [pc, #648]	; (40e8 <xQueueSemaphoreTake+0x30c>)
    3e5e:	4798      	blx	r3
    3e60:	0020      	movs	r0, r4
    3e62:	4f9e      	ldr	r7, [pc, #632]	; (40dc <xQueueSemaphoreTake+0x300>)
    3e64:	47b8      	blx	r7
    3e66:	4d9e      	ldr	r5, [pc, #632]	; (40e0 <xQueueSemaphoreTake+0x304>)
    3e68:	5c2b      	ldrb	r3, [r5, r0]
    3e6a:	4699      	mov	r9, r3
    3e6c:	0020      	movs	r0, r4
    3e6e:	4b9d      	ldr	r3, [pc, #628]	; (40e4 <xQueueSemaphoreTake+0x308>)
    3e70:	4798      	blx	r3
    3e72:	b2c3      	uxtb	r3, r0
    3e74:	4698      	mov	r8, r3
    3e76:	0020      	movs	r0, r4
    3e78:	47b8      	blx	r7
    3e7a:	5c2b      	ldrb	r3, [r5, r0]
    3e7c:	2b02      	cmp	r3, #2
    3e7e:	d124      	bne.n	3eca <xQueueSemaphoreTake+0xee>
    3e80:	4b92      	ldr	r3, [pc, #584]	; (40cc <xQueueSemaphoreTake+0x2f0>)
    3e82:	4798      	blx	r3
    3e84:	4b99      	ldr	r3, [pc, #612]	; (40ec <xQueueSemaphoreTake+0x310>)
    3e86:	4798      	blx	r3
    3e88:	b2c2      	uxtb	r2, r0
    3e8a:	4641      	mov	r1, r8
    3e8c:	4648      	mov	r0, r9
    3e8e:	4b98      	ldr	r3, [pc, #608]	; (40f0 <xQueueSemaphoreTake+0x314>)
    3e90:	4798      	blx	r3
				pxQueue->uxMessagesWaiting = uxSemaphoreCount - ( UBaseType_t ) 1;
    3e92:	3e01      	subs	r6, #1
    3e94:	63a6      	str	r6, [r4, #56]	; 0x38
					if( pxQueue->uxQueueType == queueQUEUE_IS_MUTEX )
    3e96:	6823      	ldr	r3, [r4, #0]
    3e98:	2b00      	cmp	r3, #0
    3e9a:	d102      	bne.n	3ea2 <xQueueSemaphoreTake+0xc6>
						pxQueue->pxMutexHolder = ( int8_t * ) pvTaskIncrementMutexHeldCount(); /*lint !e961 Cast is not redundant as TaskHandle_t is a typedef. */
    3e9c:	4b95      	ldr	r3, [pc, #596]	; (40f4 <xQueueSemaphoreTake+0x318>)
    3e9e:	4798      	blx	r3
    3ea0:	6060      	str	r0, [r4, #4]
				if( listLIST_IS_EMPTY( &( pxQueue->xTasksWaitingToSend ) ) == pdFALSE )
    3ea2:	6923      	ldr	r3, [r4, #16]
    3ea4:	2b00      	cmp	r3, #0
    3ea6:	d007      	beq.n	3eb8 <xQueueSemaphoreTake+0xdc>
					if( xTaskRemoveFromEventList( &( pxQueue->xTasksWaitingToSend ) ) != pdFALSE )
    3ea8:	0020      	movs	r0, r4
    3eaa:	3010      	adds	r0, #16
    3eac:	4b92      	ldr	r3, [pc, #584]	; (40f8 <xQueueSemaphoreTake+0x31c>)
    3eae:	4798      	blx	r3
    3eb0:	2800      	cmp	r0, #0
    3eb2:	d001      	beq.n	3eb8 <xQueueSemaphoreTake+0xdc>
						queueYIELD_IF_USING_PREEMPTION();
    3eb4:	4b91      	ldr	r3, [pc, #580]	; (40fc <xQueueSemaphoreTake+0x320>)
    3eb6:	4798      	blx	r3
				taskEXIT_CRITICAL();
    3eb8:	4b91      	ldr	r3, [pc, #580]	; (4100 <xQueueSemaphoreTake+0x324>)
    3eba:	4798      	blx	r3
				return pdPASS;
    3ebc:	2501      	movs	r5, #1
}
    3ebe:	0028      	movs	r0, r5
    3ec0:	b005      	add	sp, #20
    3ec2:	bc0c      	pop	{r2, r3}
    3ec4:	4690      	mov	r8, r2
    3ec6:	4699      	mov	r9, r3
    3ec8:	bdf0      	pop	{r4, r5, r6, r7, pc}
				traceQUEUE_RECEIVE( pxQueue );
    3eca:	6ba2      	ldr	r2, [r4, #56]	; 0x38
    3ecc:	3a01      	subs	r2, #1
    3ece:	b2d2      	uxtb	r2, r2
    3ed0:	e7db      	b.n	3e8a <xQueueSemaphoreTake+0xae>
						configASSERT( xInheritanceOccurred == pdFALSE );
    3ed2:	2d00      	cmp	r5, #0
    3ed4:	d001      	beq.n	3eda <xQueueSemaphoreTake+0xfe>
    3ed6:	b672      	cpsid	i
    3ed8:	e7fe      	b.n	3ed8 <xQueueSemaphoreTake+0xfc>
					taskEXIT_CRITICAL();
    3eda:	4b89      	ldr	r3, [pc, #548]	; (4100 <xQueueSemaphoreTake+0x324>)
    3edc:	4798      	blx	r3
					traceQUEUE_RECEIVE_FAILED( pxQueue );
    3ede:	4b7b      	ldr	r3, [pc, #492]	; (40cc <xQueueSemaphoreTake+0x2f0>)
    3ee0:	4798      	blx	r3
    3ee2:	4b7b      	ldr	r3, [pc, #492]	; (40d0 <xQueueSemaphoreTake+0x2f4>)
    3ee4:	4798      	blx	r3
    3ee6:	4b7b      	ldr	r3, [pc, #492]	; (40d4 <xQueueSemaphoreTake+0x2f8>)
    3ee8:	881b      	ldrh	r3, [r3, #0]
    3eea:	4203      	tst	r3, r0
    3eec:	d0e7      	beq.n	3ebe <xQueueSemaphoreTake+0xe2>
    3eee:	0020      	movs	r0, r4
    3ef0:	4b79      	ldr	r3, [pc, #484]	; (40d8 <xQueueSemaphoreTake+0x2fc>)
    3ef2:	4798      	blx	r3
    3ef4:	4b77      	ldr	r3, [pc, #476]	; (40d4 <xQueueSemaphoreTake+0x2f8>)
    3ef6:	881b      	ldrh	r3, [r3, #0]
    3ef8:	4203      	tst	r3, r0
    3efa:	d0e0      	beq.n	3ebe <xQueueSemaphoreTake+0xe2>
    3efc:	0020      	movs	r0, r4
    3efe:	4b77      	ldr	r3, [pc, #476]	; (40dc <xQueueSemaphoreTake+0x300>)
    3f00:	4698      	mov	r8, r3
    3f02:	4798      	blx	r3
    3f04:	4f76      	ldr	r7, [pc, #472]	; (40e0 <xQueueSemaphoreTake+0x304>)
    3f06:	5c3e      	ldrb	r6, [r7, r0]
    3f08:	3650      	adds	r6, #80	; 0x50
    3f0a:	b2f6      	uxtb	r6, r6
    3f0c:	0020      	movs	r0, r4
    3f0e:	47c0      	blx	r8
    3f10:	5c3f      	ldrb	r7, [r7, r0]
    3f12:	0020      	movs	r0, r4
    3f14:	4b73      	ldr	r3, [pc, #460]	; (40e4 <xQueueSemaphoreTake+0x308>)
    3f16:	4798      	blx	r3
    3f18:	b2c2      	uxtb	r2, r0
    3f1a:	0039      	movs	r1, r7
    3f1c:	0030      	movs	r0, r6
    3f1e:	4b72      	ldr	r3, [pc, #456]	; (40e8 <xQueueSemaphoreTake+0x30c>)
    3f20:	4798      	blx	r3
    3f22:	e7cc      	b.n	3ebe <xQueueSemaphoreTake+0xe2>
					vTaskInternalSetTimeOutState( &xTimeOut );
    3f24:	a802      	add	r0, sp, #8
    3f26:	4b77      	ldr	r3, [pc, #476]	; (4104 <xQueueSemaphoreTake+0x328>)
    3f28:	4798      	blx	r3
    3f2a:	e03c      	b.n	3fa6 <xQueueSemaphoreTake+0x1ca>
		prvLockQueue( pxQueue );
    3f2c:	2200      	movs	r2, #0
    3f2e:	2344      	movs	r3, #68	; 0x44
    3f30:	54e2      	strb	r2, [r4, r3]
    3f32:	e043      	b.n	3fbc <xQueueSemaphoreTake+0x1e0>
    3f34:	2200      	movs	r2, #0
    3f36:	2345      	movs	r3, #69	; 0x45
    3f38:	54e2      	strb	r2, [r4, r3]
    3f3a:	e044      	b.n	3fc6 <xQueueSemaphoreTake+0x1ea>
				traceBLOCKING_ON_QUEUE_RECEIVE( pxQueue );
    3f3c:	0020      	movs	r0, r4
    3f3e:	4b66      	ldr	r3, [pc, #408]	; (40d8 <xQueueSemaphoreTake+0x2fc>)
    3f40:	4798      	blx	r3
    3f42:	4b64      	ldr	r3, [pc, #400]	; (40d4 <xQueueSemaphoreTake+0x2f8>)
    3f44:	881b      	ldrh	r3, [r3, #0]
    3f46:	4203      	tst	r3, r0
    3f48:	d052      	beq.n	3ff0 <xQueueSemaphoreTake+0x214>
    3f4a:	0020      	movs	r0, r4
    3f4c:	4b63      	ldr	r3, [pc, #396]	; (40dc <xQueueSemaphoreTake+0x300>)
    3f4e:	4699      	mov	r9, r3
    3f50:	4798      	blx	r3
    3f52:	4f63      	ldr	r7, [pc, #396]	; (40e0 <xQueueSemaphoreTake+0x304>)
    3f54:	5c3e      	ldrb	r6, [r7, r0]
    3f56:	3668      	adds	r6, #104	; 0x68
    3f58:	b2f6      	uxtb	r6, r6
    3f5a:	0020      	movs	r0, r4
    3f5c:	47c8      	blx	r9
    3f5e:	5c3f      	ldrb	r7, [r7, r0]
    3f60:	0020      	movs	r0, r4
    3f62:	4b60      	ldr	r3, [pc, #384]	; (40e4 <xQueueSemaphoreTake+0x308>)
    3f64:	4798      	blx	r3
    3f66:	b2c2      	uxtb	r2, r0
    3f68:	0039      	movs	r1, r7
    3f6a:	0030      	movs	r0, r6
    3f6c:	4b5e      	ldr	r3, [pc, #376]	; (40e8 <xQueueSemaphoreTake+0x30c>)
    3f6e:	4798      	blx	r3
    3f70:	e03e      	b.n	3ff0 <xQueueSemaphoreTake+0x214>
					if( pxQueue->uxQueueType == queueQUEUE_IS_MUTEX )
    3f72:	6823      	ldr	r3, [r4, #0]
    3f74:	2b00      	cmp	r3, #0
    3f76:	d052      	beq.n	401e <xQueueSemaphoreTake+0x242>
				vTaskPlaceOnEventList( &( pxQueue->xTasksWaitingToReceive ), xTicksToWait );
    3f78:	0020      	movs	r0, r4
    3f7a:	3024      	adds	r0, #36	; 0x24
    3f7c:	9901      	ldr	r1, [sp, #4]
    3f7e:	4b62      	ldr	r3, [pc, #392]	; (4108 <xQueueSemaphoreTake+0x32c>)
    3f80:	4798      	blx	r3
				prvUnlockQueue( pxQueue );
    3f82:	0020      	movs	r0, r4
    3f84:	4b61      	ldr	r3, [pc, #388]	; (410c <xQueueSemaphoreTake+0x330>)
    3f86:	4798      	blx	r3
				if( xTaskResumeAll() == pdFALSE )
    3f88:	4b61      	ldr	r3, [pc, #388]	; (4110 <xQueueSemaphoreTake+0x334>)
    3f8a:	4798      	blx	r3
    3f8c:	2800      	cmp	r0, #0
    3f8e:	d04f      	beq.n	4030 <xQueueSemaphoreTake+0x254>
    3f90:	2701      	movs	r7, #1
		taskENTER_CRITICAL();
    3f92:	47c0      	blx	r8
			const UBaseType_t uxSemaphoreCount = pxQueue->uxMessagesWaiting;
    3f94:	6ba6      	ldr	r6, [r4, #56]	; 0x38
			if( uxSemaphoreCount > ( UBaseType_t ) 0 )
    3f96:	2e00      	cmp	r6, #0
    3f98:	d000      	beq.n	3f9c <xQueueSemaphoreTake+0x1c0>
    3f9a:	e73f      	b.n	3e1c <xQueueSemaphoreTake+0x40>
				if( xTicksToWait == ( TickType_t ) 0 )
    3f9c:	9b01      	ldr	r3, [sp, #4]
    3f9e:	2b00      	cmp	r3, #0
    3fa0:	d097      	beq.n	3ed2 <xQueueSemaphoreTake+0xf6>
				else if( xEntryTimeSet == pdFALSE )
    3fa2:	2f00      	cmp	r7, #0
    3fa4:	d0be      	beq.n	3f24 <xQueueSemaphoreTake+0x148>
		taskEXIT_CRITICAL();
    3fa6:	4b56      	ldr	r3, [pc, #344]	; (4100 <xQueueSemaphoreTake+0x324>)
    3fa8:	4798      	blx	r3
		vTaskSuspendAll();
    3faa:	4b5a      	ldr	r3, [pc, #360]	; (4114 <xQueueSemaphoreTake+0x338>)
    3fac:	4798      	blx	r3
		prvLockQueue( pxQueue );
    3fae:	4b46      	ldr	r3, [pc, #280]	; (40c8 <xQueueSemaphoreTake+0x2ec>)
    3fb0:	4798      	blx	r3
    3fb2:	2344      	movs	r3, #68	; 0x44
    3fb4:	5ce3      	ldrb	r3, [r4, r3]
    3fb6:	b25b      	sxtb	r3, r3
    3fb8:	3301      	adds	r3, #1
    3fba:	d0b7      	beq.n	3f2c <xQueueSemaphoreTake+0x150>
    3fbc:	2345      	movs	r3, #69	; 0x45
    3fbe:	5ce3      	ldrb	r3, [r4, r3]
    3fc0:	b25b      	sxtb	r3, r3
    3fc2:	3301      	adds	r3, #1
    3fc4:	d0b6      	beq.n	3f34 <xQueueSemaphoreTake+0x158>
    3fc6:	4b4e      	ldr	r3, [pc, #312]	; (4100 <xQueueSemaphoreTake+0x324>)
    3fc8:	4798      	blx	r3
		if( xTaskCheckForTimeOut( &xTimeOut, &xTicksToWait ) == pdFALSE )
    3fca:	a901      	add	r1, sp, #4
    3fcc:	a802      	add	r0, sp, #8
    3fce:	4b52      	ldr	r3, [pc, #328]	; (4118 <xQueueSemaphoreTake+0x33c>)
    3fd0:	4798      	blx	r3
    3fd2:	2800      	cmp	r0, #0
    3fd4:	d135      	bne.n	4042 <xQueueSemaphoreTake+0x266>
			if( prvIsQueueEmpty( pxQueue ) != pdFALSE )
    3fd6:	0020      	movs	r0, r4
    3fd8:	4b50      	ldr	r3, [pc, #320]	; (411c <xQueueSemaphoreTake+0x340>)
    3fda:	4798      	blx	r3
    3fdc:	2800      	cmp	r0, #0
    3fde:	d02a      	beq.n	4036 <xQueueSemaphoreTake+0x25a>
				traceBLOCKING_ON_QUEUE_RECEIVE( pxQueue );
    3fe0:	4b3a      	ldr	r3, [pc, #232]	; (40cc <xQueueSemaphoreTake+0x2f0>)
    3fe2:	4798      	blx	r3
    3fe4:	4b3a      	ldr	r3, [pc, #232]	; (40d0 <xQueueSemaphoreTake+0x2f4>)
    3fe6:	4798      	blx	r3
    3fe8:	4b3a      	ldr	r3, [pc, #232]	; (40d4 <xQueueSemaphoreTake+0x2f8>)
    3fea:	881b      	ldrh	r3, [r3, #0]
    3fec:	4203      	tst	r3, r0
    3fee:	d1a5      	bne.n	3f3c <xQueueSemaphoreTake+0x160>
    3ff0:	0020      	movs	r0, r4
    3ff2:	4b3a      	ldr	r3, [pc, #232]	; (40dc <xQueueSemaphoreTake+0x300>)
    3ff4:	4798      	blx	r3
    3ff6:	4b3a      	ldr	r3, [pc, #232]	; (40e0 <xQueueSemaphoreTake+0x304>)
    3ff8:	5c1b      	ldrb	r3, [r3, r0]
    3ffa:	2b02      	cmp	r3, #2
    3ffc:	d0b9      	beq.n	3f72 <xQueueSemaphoreTake+0x196>
    3ffe:	4b33      	ldr	r3, [pc, #204]	; (40cc <xQueueSemaphoreTake+0x2f0>)
    4000:	4798      	blx	r3
    4002:	4b33      	ldr	r3, [pc, #204]	; (40d0 <xQueueSemaphoreTake+0x2f4>)
    4004:	4798      	blx	r3
    4006:	4b33      	ldr	r3, [pc, #204]	; (40d4 <xQueueSemaphoreTake+0x2f8>)
    4008:	881b      	ldrh	r3, [r3, #0]
    400a:	4203      	tst	r3, r0
    400c:	d0b1      	beq.n	3f72 <xQueueSemaphoreTake+0x196>
    400e:	4b2f      	ldr	r3, [pc, #188]	; (40cc <xQueueSemaphoreTake+0x2f0>)
    4010:	4798      	blx	r3
    4012:	4b36      	ldr	r3, [pc, #216]	; (40ec <xQueueSemaphoreTake+0x310>)
    4014:	4798      	blx	r3
    4016:	b2c0      	uxtb	r0, r0
    4018:	4b41      	ldr	r3, [pc, #260]	; (4120 <xQueueSemaphoreTake+0x344>)
    401a:	4798      	blx	r3
    401c:	e7a9      	b.n	3f72 <xQueueSemaphoreTake+0x196>
						taskENTER_CRITICAL();
    401e:	4b2a      	ldr	r3, [pc, #168]	; (40c8 <xQueueSemaphoreTake+0x2ec>)
    4020:	4798      	blx	r3
							xInheritanceOccurred = xTaskPriorityInherit( ( void * ) pxQueue->pxMutexHolder );
    4022:	6860      	ldr	r0, [r4, #4]
    4024:	4b3f      	ldr	r3, [pc, #252]	; (4124 <xQueueSemaphoreTake+0x348>)
    4026:	4798      	blx	r3
    4028:	0005      	movs	r5, r0
						taskEXIT_CRITICAL();
    402a:	4b35      	ldr	r3, [pc, #212]	; (4100 <xQueueSemaphoreTake+0x324>)
    402c:	4798      	blx	r3
    402e:	e7a3      	b.n	3f78 <xQueueSemaphoreTake+0x19c>
					portYIELD_WITHIN_API();
    4030:	4b32      	ldr	r3, [pc, #200]	; (40fc <xQueueSemaphoreTake+0x320>)
    4032:	4798      	blx	r3
    4034:	e7ac      	b.n	3f90 <xQueueSemaphoreTake+0x1b4>
				prvUnlockQueue( pxQueue );
    4036:	0020      	movs	r0, r4
    4038:	4b34      	ldr	r3, [pc, #208]	; (410c <xQueueSemaphoreTake+0x330>)
    403a:	4798      	blx	r3
				( void ) xTaskResumeAll();
    403c:	4b34      	ldr	r3, [pc, #208]	; (4110 <xQueueSemaphoreTake+0x334>)
    403e:	4798      	blx	r3
    4040:	e7a6      	b.n	3f90 <xQueueSemaphoreTake+0x1b4>
			prvUnlockQueue( pxQueue );
    4042:	0020      	movs	r0, r4
    4044:	4b31      	ldr	r3, [pc, #196]	; (410c <xQueueSemaphoreTake+0x330>)
    4046:	4798      	blx	r3
			( void ) xTaskResumeAll();
    4048:	4b31      	ldr	r3, [pc, #196]	; (4110 <xQueueSemaphoreTake+0x334>)
    404a:	4798      	blx	r3
			if( prvIsQueueEmpty( pxQueue ) != pdFALSE )
    404c:	0020      	movs	r0, r4
    404e:	4b33      	ldr	r3, [pc, #204]	; (411c <xQueueSemaphoreTake+0x340>)
    4050:	4798      	blx	r3
    4052:	2800      	cmp	r0, #0
    4054:	d09c      	beq.n	3f90 <xQueueSemaphoreTake+0x1b4>
					if( xInheritanceOccurred != pdFALSE )
    4056:	2d00      	cmp	r5, #0
    4058:	d00e      	beq.n	4078 <xQueueSemaphoreTake+0x29c>
						taskENTER_CRITICAL();
    405a:	4b1b      	ldr	r3, [pc, #108]	; (40c8 <xQueueSemaphoreTake+0x2ec>)
    405c:	4798      	blx	r3
		if( listCURRENT_LIST_LENGTH( &( pxQueue->xTasksWaitingToReceive ) ) > 0 )
    405e:	6a63      	ldr	r3, [r4, #36]	; 0x24
			uxHighestPriorityOfWaitingTasks = tskIDLE_PRIORITY;
    4060:	2100      	movs	r1, #0
		if( listCURRENT_LIST_LENGTH( &( pxQueue->xTasksWaitingToReceive ) ) > 0 )
    4062:	2b00      	cmp	r3, #0
    4064:	d003      	beq.n	406e <xQueueSemaphoreTake+0x292>
			uxHighestPriorityOfWaitingTasks = configMAX_PRIORITIES - listGET_ITEM_VALUE_OF_HEAD_ENTRY( &( pxQueue->xTasksWaitingToReceive ) );
    4066:	6b23      	ldr	r3, [r4, #48]	; 0x30
    4068:	681b      	ldr	r3, [r3, #0]
    406a:	3105      	adds	r1, #5
    406c:	1ac9      	subs	r1, r1, r3
							vTaskPriorityDisinheritAfterTimeout( ( void * ) pxQueue->pxMutexHolder, uxHighestWaitingPriority );
    406e:	6860      	ldr	r0, [r4, #4]
    4070:	4b2d      	ldr	r3, [pc, #180]	; (4128 <xQueueSemaphoreTake+0x34c>)
    4072:	4798      	blx	r3
						taskEXIT_CRITICAL();
    4074:	4b22      	ldr	r3, [pc, #136]	; (4100 <xQueueSemaphoreTake+0x324>)
    4076:	4798      	blx	r3
				traceQUEUE_RECEIVE_FAILED( pxQueue );
    4078:	4b14      	ldr	r3, [pc, #80]	; (40cc <xQueueSemaphoreTake+0x2f0>)
    407a:	4798      	blx	r3
    407c:	4b14      	ldr	r3, [pc, #80]	; (40d0 <xQueueSemaphoreTake+0x2f4>)
    407e:	4798      	blx	r3
    4080:	4b14      	ldr	r3, [pc, #80]	; (40d4 <xQueueSemaphoreTake+0x2f8>)
    4082:	881b      	ldrh	r3, [r3, #0]
				return errQUEUE_EMPTY;
    4084:	2500      	movs	r5, #0
				traceQUEUE_RECEIVE_FAILED( pxQueue );
    4086:	4203      	tst	r3, r0
    4088:	d100      	bne.n	408c <xQueueSemaphoreTake+0x2b0>
    408a:	e718      	b.n	3ebe <xQueueSemaphoreTake+0xe2>
    408c:	0020      	movs	r0, r4
    408e:	4b12      	ldr	r3, [pc, #72]	; (40d8 <xQueueSemaphoreTake+0x2fc>)
    4090:	4798      	blx	r3
    4092:	4b10      	ldr	r3, [pc, #64]	; (40d4 <xQueueSemaphoreTake+0x2f8>)
    4094:	881b      	ldrh	r3, [r3, #0]
    4096:	4203      	tst	r3, r0
    4098:	d100      	bne.n	409c <xQueueSemaphoreTake+0x2c0>
    409a:	e710      	b.n	3ebe <xQueueSemaphoreTake+0xe2>
    409c:	0020      	movs	r0, r4
    409e:	4f0f      	ldr	r7, [pc, #60]	; (40dc <xQueueSemaphoreTake+0x300>)
    40a0:	47b8      	blx	r7
    40a2:	4e0f      	ldr	r6, [pc, #60]	; (40e0 <xQueueSemaphoreTake+0x304>)
    40a4:	5c35      	ldrb	r5, [r6, r0]
    40a6:	3550      	adds	r5, #80	; 0x50
    40a8:	b2ed      	uxtb	r5, r5
    40aa:	0020      	movs	r0, r4
    40ac:	47b8      	blx	r7
    40ae:	5c36      	ldrb	r6, [r6, r0]
    40b0:	0020      	movs	r0, r4
    40b2:	4b0c      	ldr	r3, [pc, #48]	; (40e4 <xQueueSemaphoreTake+0x308>)
    40b4:	4798      	blx	r3
    40b6:	b2c2      	uxtb	r2, r0
    40b8:	0031      	movs	r1, r6
    40ba:	0028      	movs	r0, r5
    40bc:	4b0a      	ldr	r3, [pc, #40]	; (40e8 <xQueueSemaphoreTake+0x30c>)
    40be:	4798      	blx	r3
				return errQUEUE_EMPTY;
    40c0:	2500      	movs	r5, #0
    40c2:	e6fc      	b.n	3ebe <xQueueSemaphoreTake+0xe2>
    40c4:	00004da5 	.word	0x00004da5
    40c8:	00002e81 	.word	0x00002e81
    40cc:	00001cc9 	.word	0x00001cc9
    40d0:	00001c11 	.word	0x00001c11
    40d4:	20000020 	.word	0x20000020
    40d8:	00001c75 	.word	0x00001c75
    40dc:	00001bf5 	.word	0x00001bf5
    40e0:	20000018 	.word	0x20000018
    40e4:	00001c65 	.word	0x00001c65
    40e8:	00002901 	.word	0x00002901
    40ec:	00001c01 	.word	0x00001c01
    40f0:	000023d5 	.word	0x000023d5
    40f4:	000050d5 	.word	0x000050d5
    40f8:	00004c3d 	.word	0x00004c3d
    40fc:	00002e71 	.word	0x00002e71
    4100:	00002e99 	.word	0x00002e99
    4104:	00004cf1 	.word	0x00004cf1
    4108:	00004b75 	.word	0x00004b75
    410c:	000031cd 	.word	0x000031cd
    4110:	0000478d 	.word	0x0000478d
    4114:	000045e5 	.word	0x000045e5
    4118:	00004d09 	.word	0x00004d09
    411c:	00002ff1 	.word	0x00002ff1
    4120:	0000242d 	.word	0x0000242d
    4124:	00004dc5 	.word	0x00004dc5
    4128:	00004fd1 	.word	0x00004fd1

0000412c <uxQueueGetQueueNumber>:
		return ( ( Queue_t * ) xQueue )->uxQueueNumber;
    412c:	6cc0      	ldr	r0, [r0, #76]	; 0x4c
	}
    412e:	4770      	bx	lr

00004130 <vQueueSetQueueNumber>:
		( ( Queue_t * ) xQueue )->uxQueueNumber = uxQueueNumber;
    4130:	64c1      	str	r1, [r0, #76]	; 0x4c
	}
    4132:	4770      	bx	lr

00004134 <ucQueueGetQueueType>:
		return ( ( Queue_t * ) xQueue )->ucQueueType;
    4134:	2350      	movs	r3, #80	; 0x50
    4136:	5cc0      	ldrb	r0, [r0, r3]
	}
    4138:	4770      	bx	lr
	...

0000413c <vQueueWaitForMessageRestricted>:
	{
    413c:	b570      	push	{r4, r5, r6, lr}
    413e:	0004      	movs	r4, r0
    4140:	000d      	movs	r5, r1
    4142:	0016      	movs	r6, r2
		prvLockQueue( pxQueue );
    4144:	4b11      	ldr	r3, [pc, #68]	; (418c <vQueueWaitForMessageRestricted+0x50>)
    4146:	4798      	blx	r3
    4148:	2344      	movs	r3, #68	; 0x44
    414a:	5ce3      	ldrb	r3, [r4, r3]
    414c:	b25b      	sxtb	r3, r3
    414e:	3301      	adds	r3, #1
    4150:	d00d      	beq.n	416e <vQueueWaitForMessageRestricted+0x32>
    4152:	2345      	movs	r3, #69	; 0x45
    4154:	5ce3      	ldrb	r3, [r4, r3]
    4156:	b25b      	sxtb	r3, r3
    4158:	3301      	adds	r3, #1
    415a:	d00c      	beq.n	4176 <vQueueWaitForMessageRestricted+0x3a>
    415c:	4b0c      	ldr	r3, [pc, #48]	; (4190 <vQueueWaitForMessageRestricted+0x54>)
    415e:	4798      	blx	r3
		if( pxQueue->uxMessagesWaiting == ( UBaseType_t ) 0U )
    4160:	6ba3      	ldr	r3, [r4, #56]	; 0x38
    4162:	2b00      	cmp	r3, #0
    4164:	d00b      	beq.n	417e <vQueueWaitForMessageRestricted+0x42>
		prvUnlockQueue( pxQueue );
    4166:	0020      	movs	r0, r4
    4168:	4b0a      	ldr	r3, [pc, #40]	; (4194 <vQueueWaitForMessageRestricted+0x58>)
    416a:	4798      	blx	r3
	}
    416c:	bd70      	pop	{r4, r5, r6, pc}
		prvLockQueue( pxQueue );
    416e:	2200      	movs	r2, #0
    4170:	2344      	movs	r3, #68	; 0x44
    4172:	54e2      	strb	r2, [r4, r3]
    4174:	e7ed      	b.n	4152 <vQueueWaitForMessageRestricted+0x16>
    4176:	2200      	movs	r2, #0
    4178:	2345      	movs	r3, #69	; 0x45
    417a:	54e2      	strb	r2, [r4, r3]
    417c:	e7ee      	b.n	415c <vQueueWaitForMessageRestricted+0x20>
			vTaskPlaceOnEventListRestricted( &( pxQueue->xTasksWaitingToReceive ), xTicksToWait, xWaitIndefinitely );
    417e:	0020      	movs	r0, r4
    4180:	3024      	adds	r0, #36	; 0x24
    4182:	0032      	movs	r2, r6
    4184:	0029      	movs	r1, r5
    4186:	4b04      	ldr	r3, [pc, #16]	; (4198 <vQueueWaitForMessageRestricted+0x5c>)
    4188:	4798      	blx	r3
    418a:	e7ec      	b.n	4166 <vQueueWaitForMessageRestricted+0x2a>
    418c:	00002e81 	.word	0x00002e81
    4190:	00002e99 	.word	0x00002e99
    4194:	000031cd 	.word	0x000031cd
    4198:	00004ba1 	.word	0x00004ba1

0000419c <prvResetNextTaskUnblockTime>:

static void prvResetNextTaskUnblockTime( void )
{
TCB_t *pxTCB;

	if( listLIST_IS_EMPTY( pxDelayedTaskList ) != pdFALSE )
    419c:	4b08      	ldr	r3, [pc, #32]	; (41c0 <prvResetNextTaskUnblockTime+0x24>)
    419e:	681b      	ldr	r3, [r3, #0]
    41a0:	681b      	ldr	r3, [r3, #0]
    41a2:	2b00      	cmp	r3, #0
    41a4:	d007      	beq.n	41b6 <prvResetNextTaskUnblockTime+0x1a>
	{
		/* The new current delayed list is not empty, get the value of
		the item at the head of the delayed list.  This is the time at
		which the task at the head of the delayed list should be removed
		from the Blocked state. */
		( pxTCB ) = ( TCB_t * ) listGET_OWNER_OF_HEAD_ENTRY( pxDelayedTaskList );
    41a6:	4b06      	ldr	r3, [pc, #24]	; (41c0 <prvResetNextTaskUnblockTime+0x24>)
    41a8:	681b      	ldr	r3, [r3, #0]
    41aa:	68db      	ldr	r3, [r3, #12]
		xNextTaskUnblockTime = listGET_LIST_ITEM_VALUE( &( ( pxTCB )->xStateListItem ) );
    41ac:	68db      	ldr	r3, [r3, #12]
    41ae:	685a      	ldr	r2, [r3, #4]
    41b0:	4b04      	ldr	r3, [pc, #16]	; (41c4 <prvResetNextTaskUnblockTime+0x28>)
    41b2:	601a      	str	r2, [r3, #0]
	}
}
    41b4:	4770      	bx	lr
		xNextTaskUnblockTime = portMAX_DELAY;
    41b6:	2201      	movs	r2, #1
    41b8:	4252      	negs	r2, r2
    41ba:	4b02      	ldr	r3, [pc, #8]	; (41c4 <prvResetNextTaskUnblockTime+0x28>)
    41bc:	601a      	str	r2, [r3, #0]
    41be:	e7f9      	b.n	41b4 <prvResetNextTaskUnblockTime+0x18>
    41c0:	200036d4 	.word	0x200036d4
    41c4:	20003784 	.word	0x20003784

000041c8 <prvIdleTask>:
{
    41c8:	b5f0      	push	{r4, r5, r6, r7, lr}
    41ca:	46d6      	mov	lr, sl
    41cc:	464f      	mov	r7, r9
    41ce:	4646      	mov	r6, r8
    41d0:	b5c0      	push	{r6, r7, lr}
		while( uxDeletedTasksWaitingCleanUp > ( UBaseType_t ) 0U )
    41d2:	4b14      	ldr	r3, [pc, #80]	; (4224 <prvIdleTask+0x5c>)
    41d4:	4699      	mov	r9, r3
			taskENTER_CRITICAL();
    41d6:	4b14      	ldr	r3, [pc, #80]	; (4228 <prvIdleTask+0x60>)
    41d8:	4698      	mov	r8, r3
				pxTCB = ( TCB_t * ) listGET_OWNER_OF_HEAD_ENTRY( ( &xTasksWaitingTermination ) );
    41da:	4f14      	ldr	r7, [pc, #80]	; (422c <prvIdleTask+0x64>)
				( void ) uxListRemove( &( pxTCB->xStateListItem ) );
    41dc:	4b14      	ldr	r3, [pc, #80]	; (4230 <prvIdleTask+0x68>)
    41de:	469a      	mov	sl, r3
		while( uxDeletedTasksWaitingCleanUp > ( UBaseType_t ) 0U )
    41e0:	464b      	mov	r3, r9
    41e2:	681b      	ldr	r3, [r3, #0]
    41e4:	2b00      	cmp	r3, #0
    41e6:	d016      	beq.n	4216 <prvIdleTask+0x4e>
			taskENTER_CRITICAL();
    41e8:	47c0      	blx	r8
				pxTCB = ( TCB_t * ) listGET_OWNER_OF_HEAD_ENTRY( ( &xTasksWaitingTermination ) );
    41ea:	68fb      	ldr	r3, [r7, #12]
    41ec:	68dd      	ldr	r5, [r3, #12]
				( void ) uxListRemove( &( pxTCB->xStateListItem ) );
    41ee:	1d28      	adds	r0, r5, #4
    41f0:	47d0      	blx	sl
				--uxCurrentNumberOfTasks;
    41f2:	4a10      	ldr	r2, [pc, #64]	; (4234 <prvIdleTask+0x6c>)
    41f4:	6813      	ldr	r3, [r2, #0]
    41f6:	3b01      	subs	r3, #1
    41f8:	6013      	str	r3, [r2, #0]
				--uxDeletedTasksWaitingCleanUp;
    41fa:	4c0a      	ldr	r4, [pc, #40]	; (4224 <prvIdleTask+0x5c>)
    41fc:	6823      	ldr	r3, [r4, #0]
    41fe:	3b01      	subs	r3, #1
    4200:	6023      	str	r3, [r4, #0]
			taskEXIT_CRITICAL();
    4202:	4b0d      	ldr	r3, [pc, #52]	; (4238 <prvIdleTask+0x70>)
    4204:	4798      	blx	r3
			vPortFree( pxTCB->pxStack );
    4206:	6b28      	ldr	r0, [r5, #48]	; 0x30
    4208:	4e0c      	ldr	r6, [pc, #48]	; (423c <prvIdleTask+0x74>)
    420a:	47b0      	blx	r6
			vPortFree( pxTCB );
    420c:	0028      	movs	r0, r5
    420e:	47b0      	blx	r6
		while( uxDeletedTasksWaitingCleanUp > ( UBaseType_t ) 0U )
    4210:	6823      	ldr	r3, [r4, #0]
    4212:	2b00      	cmp	r3, #0
    4214:	d1e8      	bne.n	41e8 <prvIdleTask+0x20>
			if( listCURRENT_LIST_LENGTH( &( pxReadyTasksLists[ tskIDLE_PRIORITY ] ) ) > ( UBaseType_t ) 1 )
    4216:	4b0a      	ldr	r3, [pc, #40]	; (4240 <prvIdleTask+0x78>)
    4218:	681b      	ldr	r3, [r3, #0]
    421a:	2b01      	cmp	r3, #1
    421c:	d9e0      	bls.n	41e0 <prvIdleTask+0x18>
				taskYIELD();
    421e:	4b09      	ldr	r3, [pc, #36]	; (4244 <prvIdleTask+0x7c>)
    4220:	4798      	blx	r3
    4222:	e7dd      	b.n	41e0 <prvIdleTask+0x18>
    4224:	20003744 	.word	0x20003744
    4228:	00002e81 	.word	0x00002e81
    422c:	200037b8 	.word	0x200037b8
    4230:	00002d47 	.word	0x00002d47
    4234:	20003740 	.word	0x20003740
    4238:	00002e99 	.word	0x00002e99
    423c:	00002fd5 	.word	0x00002fd5
    4240:	200036dc 	.word	0x200036dc
    4244:	00002e71 	.word	0x00002e71

00004248 <prvAddCurrentTaskToDelayedList>:
#endif /* configUSE_TASK_NOTIFICATIONS */
/*-----------------------------------------------------------*/


static void prvAddCurrentTaskToDelayedList( TickType_t xTicksToWait, const BaseType_t xCanBlockIndefinitely )
{
    4248:	b570      	push	{r4, r5, r6, lr}
    424a:	0004      	movs	r4, r0
    424c:	000d      	movs	r5, r1
TickType_t xTimeToWake;
const TickType_t xConstTickCount = xTickCount;
    424e:	4b17      	ldr	r3, [pc, #92]	; (42ac <prvAddCurrentTaskToDelayedList+0x64>)
    4250:	681e      	ldr	r6, [r3, #0]
	}
	#endif

	/* Remove the task from the ready list before adding it to the blocked list
	as the same list item is used for both lists. */
	if( uxListRemove( &( pxCurrentTCB->xStateListItem ) ) == ( UBaseType_t ) 0 )
    4252:	4b17      	ldr	r3, [pc, #92]	; (42b0 <prvAddCurrentTaskToDelayedList+0x68>)
    4254:	6818      	ldr	r0, [r3, #0]
    4256:	3004      	adds	r0, #4
    4258:	4b16      	ldr	r3, [pc, #88]	; (42b4 <prvAddCurrentTaskToDelayedList+0x6c>)
    425a:	4798      	blx	r3
		mtCOVERAGE_TEST_MARKER();
	}

	#if ( INCLUDE_vTaskSuspend == 1 )
	{
		if( ( xTicksToWait == portMAX_DELAY ) && ( xCanBlockIndefinitely != pdFALSE ) )
    425c:	1c63      	adds	r3, r4, #1
    425e:	d013      	beq.n	4288 <prvAddCurrentTaskToDelayedList+0x40>
		else
		{
			/* Calculate the time at which the task should be woken if the event
			does not occur.  This may overflow but this doesn't matter, the
			kernel will manage it correctly. */
			xTimeToWake = xConstTickCount + xTicksToWait;
    4260:	1934      	adds	r4, r6, r4

			/* The list item will be inserted in wake time order. */
			listSET_LIST_ITEM_VALUE( &( pxCurrentTCB->xStateListItem ), xTimeToWake );
    4262:	4b13      	ldr	r3, [pc, #76]	; (42b0 <prvAddCurrentTaskToDelayedList+0x68>)
    4264:	681b      	ldr	r3, [r3, #0]
    4266:	605c      	str	r4, [r3, #4]

			if( xTimeToWake < xConstTickCount )
    4268:	42a6      	cmp	r6, r4
    426a:	d816      	bhi.n	429a <prvAddCurrentTaskToDelayedList+0x52>
			}
			else
			{
				/* The wake time has not overflowed, so the current block list
				is used. */
				vListInsert( pxDelayedTaskList, &( pxCurrentTCB->xStateListItem ) );
    426c:	4b12      	ldr	r3, [pc, #72]	; (42b8 <prvAddCurrentTaskToDelayedList+0x70>)
    426e:	6818      	ldr	r0, [r3, #0]
    4270:	4b0f      	ldr	r3, [pc, #60]	; (42b0 <prvAddCurrentTaskToDelayedList+0x68>)
    4272:	6819      	ldr	r1, [r3, #0]
    4274:	3104      	adds	r1, #4
    4276:	4b11      	ldr	r3, [pc, #68]	; (42bc <prvAddCurrentTaskToDelayedList+0x74>)
    4278:	4798      	blx	r3

				/* If the task entering the blocked state was placed at the
				head of the list of blocked tasks then xNextTaskUnblockTime
				needs to be updated too. */
				if( xTimeToWake < xNextTaskUnblockTime )
    427a:	4b11      	ldr	r3, [pc, #68]	; (42c0 <prvAddCurrentTaskToDelayedList+0x78>)
    427c:	681b      	ldr	r3, [r3, #0]
    427e:	429c      	cmp	r4, r3
    4280:	d212      	bcs.n	42a8 <prvAddCurrentTaskToDelayedList+0x60>
				{
					xNextTaskUnblockTime = xTimeToWake;
    4282:	4b0f      	ldr	r3, [pc, #60]	; (42c0 <prvAddCurrentTaskToDelayedList+0x78>)
    4284:	601c      	str	r4, [r3, #0]

		/* Avoid compiler warning when INCLUDE_vTaskSuspend is not 1. */
		( void ) xCanBlockIndefinitely;
	}
	#endif /* INCLUDE_vTaskSuspend */
}
    4286:	e00f      	b.n	42a8 <prvAddCurrentTaskToDelayedList+0x60>
		if( ( xTicksToWait == portMAX_DELAY ) && ( xCanBlockIndefinitely != pdFALSE ) )
    4288:	2d00      	cmp	r5, #0
    428a:	d0e9      	beq.n	4260 <prvAddCurrentTaskToDelayedList+0x18>
			vListInsertEnd( &xSuspendedTaskList, &( pxCurrentTCB->xStateListItem ) );
    428c:	4b08      	ldr	r3, [pc, #32]	; (42b0 <prvAddCurrentTaskToDelayedList+0x68>)
    428e:	6819      	ldr	r1, [r3, #0]
    4290:	3104      	adds	r1, #4
    4292:	480c      	ldr	r0, [pc, #48]	; (42c4 <prvAddCurrentTaskToDelayedList+0x7c>)
    4294:	4b0c      	ldr	r3, [pc, #48]	; (42c8 <prvAddCurrentTaskToDelayedList+0x80>)
    4296:	4798      	blx	r3
    4298:	e006      	b.n	42a8 <prvAddCurrentTaskToDelayedList+0x60>
				vListInsert( pxOverflowDelayedTaskList, &( pxCurrentTCB->xStateListItem ) );
    429a:	4b0c      	ldr	r3, [pc, #48]	; (42cc <prvAddCurrentTaskToDelayedList+0x84>)
    429c:	6818      	ldr	r0, [r3, #0]
    429e:	4b04      	ldr	r3, [pc, #16]	; (42b0 <prvAddCurrentTaskToDelayedList+0x68>)
    42a0:	6819      	ldr	r1, [r3, #0]
    42a2:	3104      	adds	r1, #4
    42a4:	4b05      	ldr	r3, [pc, #20]	; (42bc <prvAddCurrentTaskToDelayedList+0x74>)
    42a6:	4798      	blx	r3
}
    42a8:	bd70      	pop	{r4, r5, r6, pc}
    42aa:	46c0      	nop			; (mov r8, r8)
    42ac:	200037cc 	.word	0x200037cc
    42b0:	200036d0 	.word	0x200036d0
    42b4:	00002d47 	.word	0x00002d47
    42b8:	200036d4 	.word	0x200036d4
    42bc:	00002d19 	.word	0x00002d19
    42c0:	20003784 	.word	0x20003784
    42c4:	200037a4 	.word	0x200037a4
    42c8:	00002d01 	.word	0x00002d01
    42cc:	200036d8 	.word	0x200036d8

000042d0 <xTaskCreate>:
	{
    42d0:	b5f0      	push	{r4, r5, r6, r7, lr}
    42d2:	46c6      	mov	lr, r8
    42d4:	b500      	push	{lr}
    42d6:	b084      	sub	sp, #16
    42d8:	9001      	str	r0, [sp, #4]
    42da:	000d      	movs	r5, r1
    42dc:	9302      	str	r3, [sp, #8]
			pxStack = ( StackType_t * ) pvPortMalloc( ( ( ( size_t ) usStackDepth ) * sizeof( StackType_t ) ) ); /*lint !e961 MISRA exception as the casts are only redundant for some ports. */
    42de:	0097      	lsls	r7, r2, #2
    42e0:	0038      	movs	r0, r7
    42e2:	4b81      	ldr	r3, [pc, #516]	; (44e8 <xTaskCreate+0x218>)
    42e4:	4798      	blx	r3
    42e6:	1e06      	subs	r6, r0, #0
			if( pxStack != NULL )
    42e8:	d100      	bne.n	42ec <xTaskCreate+0x1c>
    42ea:	e0b6      	b.n	445a <xTaskCreate+0x18a>
				pxNewTCB = ( TCB_t * ) pvPortMalloc( sizeof( TCB_t ) ); /*lint !e961 MISRA exception as the casts are only redundant for some paths. */
    42ec:	2054      	movs	r0, #84	; 0x54
    42ee:	4b7e      	ldr	r3, [pc, #504]	; (44e8 <xTaskCreate+0x218>)
    42f0:	4798      	blx	r3
    42f2:	1e04      	subs	r4, r0, #0
				if( pxNewTCB != NULL )
    42f4:	d100      	bne.n	42f8 <xTaskCreate+0x28>
    42f6:	e0ad      	b.n	4454 <xTaskCreate+0x184>
					pxNewTCB->pxStack = pxStack;
    42f8:	6306      	str	r6, [r0, #48]	; 0x30
		( void ) memset( pxNewTCB->pxStack, ( int ) tskSTACK_FILL_BYTE, ( size_t ) ulStackDepth * sizeof( StackType_t ) );
    42fa:	003a      	movs	r2, r7
    42fc:	21a5      	movs	r1, #165	; 0xa5
    42fe:	0030      	movs	r0, r6
    4300:	4b7a      	ldr	r3, [pc, #488]	; (44ec <xTaskCreate+0x21c>)
    4302:	4798      	blx	r3
		pxTopOfStack = pxNewTCB->pxStack + ( ulStackDepth - ( uint32_t ) 1 );
    4304:	1f3a      	subs	r2, r7, #4
    4306:	6b23      	ldr	r3, [r4, #48]	; 0x30
    4308:	469c      	mov	ip, r3
    430a:	4462      	add	r2, ip
		pxTopOfStack = ( StackType_t * ) ( ( ( portPOINTER_SIZE_TYPE ) pxTopOfStack ) & ( ~( ( portPOINTER_SIZE_TYPE ) portBYTE_ALIGNMENT_MASK ) ) ); /*lint !e923 MISRA exception.  Avoiding casts between pointers and integers is not practical.  Size differences accounted for using portPOINTER_SIZE_TYPE type. */
    430c:	2307      	movs	r3, #7
    430e:	439a      	bics	r2, r3
    4310:	4690      	mov	r8, r2
		pxNewTCB->pcTaskName[ x ] = pcName[ x ];
    4312:	782a      	ldrb	r2, [r5, #0]
    4314:	332d      	adds	r3, #45	; 0x2d
    4316:	54e2      	strb	r2, [r4, r3]
		if( pcName[ x ] == 0x00 )
    4318:	782b      	ldrb	r3, [r5, #0]
    431a:	2b00      	cmp	r3, #0
    431c:	d00d      	beq.n	433a <xTaskCreate+0x6a>
    431e:	3501      	adds	r5, #1
    4320:	0023      	movs	r3, r4
    4322:	3335      	adds	r3, #53	; 0x35
    4324:	0020      	movs	r0, r4
    4326:	303c      	adds	r0, #60	; 0x3c
		pxNewTCB->pcTaskName[ x ] = pcName[ x ];
    4328:	782a      	ldrb	r2, [r5, #0]
    432a:	701a      	strb	r2, [r3, #0]
		if( pcName[ x ] == 0x00 )
    432c:	782a      	ldrb	r2, [r5, #0]
    432e:	2a00      	cmp	r2, #0
    4330:	d003      	beq.n	433a <xTaskCreate+0x6a>
    4332:	3501      	adds	r5, #1
    4334:	3301      	adds	r3, #1
	for( x = ( UBaseType_t ) 0; x < ( UBaseType_t ) configMAX_TASK_NAME_LEN; x++ )
    4336:	4283      	cmp	r3, r0
    4338:	d1f6      	bne.n	4328 <xTaskCreate+0x58>
	pxNewTCB->pcTaskName[ configMAX_TASK_NAME_LEN - 1 ] = '\0';
    433a:	2200      	movs	r2, #0
    433c:	233b      	movs	r3, #59	; 0x3b
    433e:	54e2      	strb	r2, [r4, r3]
    4340:	9f0a      	ldr	r7, [sp, #40]	; 0x28
    4342:	2f04      	cmp	r7, #4
    4344:	d900      	bls.n	4348 <xTaskCreate+0x78>
    4346:	2704      	movs	r7, #4
	pxNewTCB->uxPriority = uxPriority;
    4348:	62e7      	str	r7, [r4, #44]	; 0x2c
		pxNewTCB->uxBasePriority = uxPriority;
    434a:	6467      	str	r7, [r4, #68]	; 0x44
		pxNewTCB->uxMutexesHeld = 0;
    434c:	2600      	movs	r6, #0
    434e:	64a6      	str	r6, [r4, #72]	; 0x48
	vListInitialiseItem( &( pxNewTCB->xStateListItem ) );
    4350:	1d23      	adds	r3, r4, #4
    4352:	9303      	str	r3, [sp, #12]
    4354:	0018      	movs	r0, r3
    4356:	4d66      	ldr	r5, [pc, #408]	; (44f0 <xTaskCreate+0x220>)
    4358:	47a8      	blx	r5
	vListInitialiseItem( &( pxNewTCB->xEventListItem ) );
    435a:	0020      	movs	r0, r4
    435c:	3018      	adds	r0, #24
    435e:	47a8      	blx	r5
	listSET_LIST_ITEM_OWNER( &( pxNewTCB->xStateListItem ), pxNewTCB );
    4360:	6124      	str	r4, [r4, #16]
	listSET_LIST_ITEM_VALUE( &( pxNewTCB->xEventListItem ), ( TickType_t ) configMAX_PRIORITIES - ( TickType_t ) uxPriority ); /*lint !e961 MISRA exception as the casts are only redundant for some ports. */
    4362:	2305      	movs	r3, #5
    4364:	1bdb      	subs	r3, r3, r7
    4366:	61a3      	str	r3, [r4, #24]
	listSET_LIST_ITEM_OWNER( &( pxNewTCB->xEventListItem ), pxNewTCB );
    4368:	6264      	str	r4, [r4, #36]	; 0x24
		pxNewTCB->ulNotifiedValue = 0;
    436a:	64e6      	str	r6, [r4, #76]	; 0x4c
		pxNewTCB->ucNotifyState = taskNOT_WAITING_NOTIFICATION;
    436c:	2350      	movs	r3, #80	; 0x50
    436e:	54e6      	strb	r6, [r4, r3]
		pxNewTCB->pxTopOfStack = pxPortInitialiseStack( pxTopOfStack, pxTaskCode, pvParameters );
    4370:	9a02      	ldr	r2, [sp, #8]
    4372:	9901      	ldr	r1, [sp, #4]
    4374:	4640      	mov	r0, r8
    4376:	4b5f      	ldr	r3, [pc, #380]	; (44f4 <xTaskCreate+0x224>)
    4378:	4798      	blx	r3
    437a:	6020      	str	r0, [r4, #0]
	if( ( void * ) pxCreatedTask != NULL )
    437c:	9b0b      	ldr	r3, [sp, #44]	; 0x2c
    437e:	2b00      	cmp	r3, #0
    4380:	d000      	beq.n	4384 <xTaskCreate+0xb4>
		*pxCreatedTask = ( TaskHandle_t ) pxNewTCB;
    4382:	601c      	str	r4, [r3, #0]
	taskENTER_CRITICAL();
    4384:	4b5c      	ldr	r3, [pc, #368]	; (44f8 <xTaskCreate+0x228>)
    4386:	4798      	blx	r3
		uxCurrentNumberOfTasks++;
    4388:	4a5c      	ldr	r2, [pc, #368]	; (44fc <xTaskCreate+0x22c>)
    438a:	6813      	ldr	r3, [r2, #0]
    438c:	3301      	adds	r3, #1
    438e:	6013      	str	r3, [r2, #0]
		if( pxCurrentTCB == NULL )
    4390:	4b5b      	ldr	r3, [pc, #364]	; (4500 <xTaskCreate+0x230>)
    4392:	681b      	ldr	r3, [r3, #0]
    4394:	2b00      	cmp	r3, #0
    4396:	d063      	beq.n	4460 <xTaskCreate+0x190>
			if( xSchedulerRunning == pdFALSE )
    4398:	4b5a      	ldr	r3, [pc, #360]	; (4504 <xTaskCreate+0x234>)
    439a:	681b      	ldr	r3, [r3, #0]
    439c:	2b00      	cmp	r3, #0
    439e:	d107      	bne.n	43b0 <xTaskCreate+0xe0>
				if( pxCurrentTCB->uxPriority <= pxNewTCB->uxPriority )
    43a0:	4b57      	ldr	r3, [pc, #348]	; (4500 <xTaskCreate+0x230>)
    43a2:	681b      	ldr	r3, [r3, #0]
    43a4:	6adb      	ldr	r3, [r3, #44]	; 0x2c
    43a6:	6ae2      	ldr	r2, [r4, #44]	; 0x2c
    43a8:	4293      	cmp	r3, r2
    43aa:	d801      	bhi.n	43b0 <xTaskCreate+0xe0>
					pxCurrentTCB = pxNewTCB;
    43ac:	4b54      	ldr	r3, [pc, #336]	; (4500 <xTaskCreate+0x230>)
    43ae:	601c      	str	r4, [r3, #0]
		uxTaskNumber++;
    43b0:	4a55      	ldr	r2, [pc, #340]	; (4508 <xTaskCreate+0x238>)
    43b2:	6813      	ldr	r3, [r2, #0]
    43b4:	3301      	adds	r3, #1
    43b6:	6013      	str	r3, [r2, #0]
			pxNewTCB->uxTCBNumber = uxTaskNumber;
    43b8:	63e3      	str	r3, [r4, #60]	; 0x3c
		traceTASK_CREATE( pxNewTCB );
    43ba:	2003      	movs	r0, #3
    43bc:	4b53      	ldr	r3, [pc, #332]	; (450c <xTaskCreate+0x23c>)
    43be:	4798      	blx	r3
    43c0:	b281      	uxth	r1, r0
    43c2:	0020      	movs	r0, r4
    43c4:	4b52      	ldr	r3, [pc, #328]	; (4510 <xTaskCreate+0x240>)
    43c6:	4798      	blx	r3
    43c8:	4b52      	ldr	r3, [pc, #328]	; (4514 <xTaskCreate+0x244>)
    43ca:	8819      	ldrh	r1, [r3, #0]
    43cc:	0020      	movs	r0, r4
    43ce:	4b52      	ldr	r3, [pc, #328]	; (4518 <xTaskCreate+0x248>)
    43d0:	4798      	blx	r3
    43d2:	0020      	movs	r0, r4
    43d4:	4e51      	ldr	r6, [pc, #324]	; (451c <xTaskCreate+0x24c>)
    43d6:	47b0      	blx	r6
    43d8:	0022      	movs	r2, r4
    43da:	3234      	adds	r2, #52	; 0x34
    43dc:	b2c1      	uxtb	r1, r0
    43de:	2003      	movs	r0, #3
    43e0:	4b4f      	ldr	r3, [pc, #316]	; (4520 <xTaskCreate+0x250>)
    43e2:	4798      	blx	r3
    43e4:	0020      	movs	r0, r4
    43e6:	47b0      	blx	r6
    43e8:	232c      	movs	r3, #44	; 0x2c
    43ea:	18e3      	adds	r3, r4, r3
    43ec:	781a      	ldrb	r2, [r3, #0]
    43ee:	b2c1      	uxtb	r1, r0
    43f0:	2003      	movs	r0, #3
    43f2:	4b4c      	ldr	r3, [pc, #304]	; (4524 <xTaskCreate+0x254>)
    43f4:	4798      	blx	r3
    43f6:	4b4c      	ldr	r3, [pc, #304]	; (4528 <xTaskCreate+0x258>)
    43f8:	4798      	blx	r3
    43fa:	4b4c      	ldr	r3, [pc, #304]	; (452c <xTaskCreate+0x25c>)
    43fc:	4798      	blx	r3
    43fe:	4b4c      	ldr	r3, [pc, #304]	; (4530 <xTaskCreate+0x260>)
    4400:	881b      	ldrh	r3, [r3, #0]
    4402:	4203      	tst	r3, r0
    4404:	d154      	bne.n	44b0 <xTaskCreate+0x1e0>
		prvAddTaskToReadyList( pxNewTCB );
    4406:	0020      	movs	r0, r4
    4408:	4b48      	ldr	r3, [pc, #288]	; (452c <xTaskCreate+0x25c>)
    440a:	4798      	blx	r3
    440c:	4b48      	ldr	r3, [pc, #288]	; (4530 <xTaskCreate+0x260>)
    440e:	881b      	ldrh	r3, [r3, #0]
    4410:	4203      	tst	r3, r0
    4412:	d15d      	bne.n	44d0 <xTaskCreate+0x200>
    4414:	6ae3      	ldr	r3, [r4, #44]	; 0x2c
    4416:	4a47      	ldr	r2, [pc, #284]	; (4534 <xTaskCreate+0x264>)
    4418:	6812      	ldr	r2, [r2, #0]
    441a:	4293      	cmp	r3, r2
    441c:	d901      	bls.n	4422 <xTaskCreate+0x152>
    441e:	4a45      	ldr	r2, [pc, #276]	; (4534 <xTaskCreate+0x264>)
    4420:	6013      	str	r3, [r2, #0]
    4422:	0098      	lsls	r0, r3, #2
    4424:	18c0      	adds	r0, r0, r3
    4426:	0080      	lsls	r0, r0, #2
    4428:	4b43      	ldr	r3, [pc, #268]	; (4538 <xTaskCreate+0x268>)
    442a:	1818      	adds	r0, r3, r0
    442c:	9903      	ldr	r1, [sp, #12]
    442e:	4b43      	ldr	r3, [pc, #268]	; (453c <xTaskCreate+0x26c>)
    4430:	4798      	blx	r3
	taskEXIT_CRITICAL();
    4432:	4b43      	ldr	r3, [pc, #268]	; (4540 <xTaskCreate+0x270>)
    4434:	4798      	blx	r3
	if( xSchedulerRunning != pdFALSE )
    4436:	4b33      	ldr	r3, [pc, #204]	; (4504 <xTaskCreate+0x234>)
    4438:	681b      	ldr	r3, [r3, #0]
			xReturn = pdPASS;
    443a:	2001      	movs	r0, #1
	if( xSchedulerRunning != pdFALSE )
    443c:	2b00      	cmp	r3, #0
    443e:	d005      	beq.n	444c <xTaskCreate+0x17c>
		if( pxCurrentTCB->uxPriority < pxNewTCB->uxPriority )
    4440:	4b2f      	ldr	r3, [pc, #188]	; (4500 <xTaskCreate+0x230>)
    4442:	681b      	ldr	r3, [r3, #0]
    4444:	6ada      	ldr	r2, [r3, #44]	; 0x2c
    4446:	6ae3      	ldr	r3, [r4, #44]	; 0x2c
    4448:	429a      	cmp	r2, r3
    444a:	d348      	bcc.n	44de <xTaskCreate+0x20e>
	}
    444c:	b004      	add	sp, #16
    444e:	bc04      	pop	{r2}
    4450:	4690      	mov	r8, r2
    4452:	bdf0      	pop	{r4, r5, r6, r7, pc}
					vPortFree( pxStack );
    4454:	0030      	movs	r0, r6
    4456:	4b3b      	ldr	r3, [pc, #236]	; (4544 <xTaskCreate+0x274>)
    4458:	4798      	blx	r3
			xReturn = errCOULD_NOT_ALLOCATE_REQUIRED_MEMORY;
    445a:	2001      	movs	r0, #1
    445c:	4240      	negs	r0, r0
    445e:	e7f5      	b.n	444c <xTaskCreate+0x17c>
			pxCurrentTCB = pxNewTCB;
    4460:	4b27      	ldr	r3, [pc, #156]	; (4500 <xTaskCreate+0x230>)
    4462:	601c      	str	r4, [r3, #0]
			if( uxCurrentNumberOfTasks == ( UBaseType_t ) 1 )
    4464:	6813      	ldr	r3, [r2, #0]
    4466:	2b01      	cmp	r3, #1
    4468:	d1a2      	bne.n	43b0 <xTaskCreate+0xe0>
		vListInitialise( &( pxReadyTasksLists[ uxPriority ] ) );
    446a:	4f33      	ldr	r7, [pc, #204]	; (4538 <xTaskCreate+0x268>)
    446c:	0038      	movs	r0, r7
    446e:	4e36      	ldr	r6, [pc, #216]	; (4548 <xTaskCreate+0x278>)
    4470:	47b0      	blx	r6
    4472:	0038      	movs	r0, r7
    4474:	3014      	adds	r0, #20
    4476:	47b0      	blx	r6
    4478:	0038      	movs	r0, r7
    447a:	3028      	adds	r0, #40	; 0x28
    447c:	47b0      	blx	r6
    447e:	0038      	movs	r0, r7
    4480:	303c      	adds	r0, #60	; 0x3c
    4482:	47b0      	blx	r6
    4484:	0038      	movs	r0, r7
    4486:	3050      	adds	r0, #80	; 0x50
    4488:	47b0      	blx	r6
	vListInitialise( &xDelayedTaskList1 );
    448a:	4b30      	ldr	r3, [pc, #192]	; (454c <xTaskCreate+0x27c>)
    448c:	4698      	mov	r8, r3
    448e:	0018      	movs	r0, r3
    4490:	47b0      	blx	r6
	vListInitialise( &xDelayedTaskList2 );
    4492:	4f2f      	ldr	r7, [pc, #188]	; (4550 <xTaskCreate+0x280>)
    4494:	0038      	movs	r0, r7
    4496:	47b0      	blx	r6
	vListInitialise( &xPendingReadyList );
    4498:	482e      	ldr	r0, [pc, #184]	; (4554 <xTaskCreate+0x284>)
    449a:	47b0      	blx	r6
		vListInitialise( &xTasksWaitingTermination );
    449c:	482e      	ldr	r0, [pc, #184]	; (4558 <xTaskCreate+0x288>)
    449e:	47b0      	blx	r6
		vListInitialise( &xSuspendedTaskList );
    44a0:	482e      	ldr	r0, [pc, #184]	; (455c <xTaskCreate+0x28c>)
    44a2:	47b0      	blx	r6
	pxDelayedTaskList = &xDelayedTaskList1;
    44a4:	4b2e      	ldr	r3, [pc, #184]	; (4560 <xTaskCreate+0x290>)
    44a6:	4642      	mov	r2, r8
    44a8:	601a      	str	r2, [r3, #0]
	pxOverflowDelayedTaskList = &xDelayedTaskList2;
    44aa:	4b2e      	ldr	r3, [pc, #184]	; (4564 <xTaskCreate+0x294>)
    44ac:	601f      	str	r7, [r3, #0]
    44ae:	e77f      	b.n	43b0 <xTaskCreate+0xe0>
		traceTASK_CREATE( pxNewTCB );
    44b0:	0020      	movs	r0, r4
    44b2:	4b1e      	ldr	r3, [pc, #120]	; (452c <xTaskCreate+0x25c>)
    44b4:	4798      	blx	r3
    44b6:	4b1e      	ldr	r3, [pc, #120]	; (4530 <xTaskCreate+0x260>)
    44b8:	881b      	ldrh	r3, [r3, #0]
    44ba:	4203      	tst	r3, r0
    44bc:	d0a3      	beq.n	4406 <xTaskCreate+0x136>
    44be:	0020      	movs	r0, r4
    44c0:	4b16      	ldr	r3, [pc, #88]	; (451c <xTaskCreate+0x24c>)
    44c2:	4798      	blx	r3
    44c4:	b2c2      	uxtb	r2, r0
    44c6:	2103      	movs	r1, #3
    44c8:	201b      	movs	r0, #27
    44ca:	4b27      	ldr	r3, [pc, #156]	; (4568 <xTaskCreate+0x298>)
    44cc:	4798      	blx	r3
    44ce:	e79a      	b.n	4406 <xTaskCreate+0x136>
		prvAddTaskToReadyList( pxNewTCB );
    44d0:	0020      	movs	r0, r4
    44d2:	4b12      	ldr	r3, [pc, #72]	; (451c <xTaskCreate+0x24c>)
    44d4:	4798      	blx	r3
    44d6:	b2c0      	uxtb	r0, r0
    44d8:	4b24      	ldr	r3, [pc, #144]	; (456c <xTaskCreate+0x29c>)
    44da:	4798      	blx	r3
    44dc:	e79a      	b.n	4414 <xTaskCreate+0x144>
			taskYIELD_IF_USING_PREEMPTION();
    44de:	4b24      	ldr	r3, [pc, #144]	; (4570 <xTaskCreate+0x2a0>)
    44e0:	4798      	blx	r3
			xReturn = pdPASS;
    44e2:	2001      	movs	r0, #1
    44e4:	e7b2      	b.n	444c <xTaskCreate+0x17c>
    44e6:	46c0      	nop			; (mov r8, r8)
    44e8:	00002f45 	.word	0x00002f45
    44ec:	00008cc3 	.word	0x00008cc3
    44f0:	00002cfb 	.word	0x00002cfb
    44f4:	00002dd5 	.word	0x00002dd5
    44f8:	00002e81 	.word	0x00002e81
    44fc:	20003740 	.word	0x20003740
    4500:	200036d0 	.word	0x200036d0
    4504:	200037a0 	.word	0x200037a0
    4508:	20003750 	.word	0x20003750
    450c:	0000246d 	.word	0x0000246d
    4510:	00001c21 	.word	0x00001c21
    4514:	2000001e 	.word	0x2000001e
    4518:	00001c41 	.word	0x00001c41
    451c:	00001c01 	.word	0x00001c01
    4520:	00002541 	.word	0x00002541
    4524:	00002321 	.word	0x00002321
    4528:	00001cc9 	.word	0x00001cc9
    452c:	00001c11 	.word	0x00001c11
    4530:	20000020 	.word	0x20000020
    4534:	20003754 	.word	0x20003754
    4538:	200036dc 	.word	0x200036dc
    453c:	00002d01 	.word	0x00002d01
    4540:	00002e99 	.word	0x00002e99
    4544:	00002fd5 	.word	0x00002fd5
    4548:	00002ce5 	.word	0x00002ce5
    454c:	20003758 	.word	0x20003758
    4550:	2000376c 	.word	0x2000376c
    4554:	2000378c 	.word	0x2000378c
    4558:	200037b8 	.word	0x200037b8
    455c:	200037a4 	.word	0x200037a4
    4560:	200036d4 	.word	0x200036d4
    4564:	200036d8 	.word	0x200036d8
    4568:	00002901 	.word	0x00002901
    456c:	00002799 	.word	0x00002799
    4570:	00002e71 	.word	0x00002e71

00004574 <vTaskStartScheduler>:
{
    4574:	b510      	push	{r4, lr}
    4576:	b082      	sub	sp, #8
		xReturn = xTaskCreate(	prvIdleTask,
    4578:	4b11      	ldr	r3, [pc, #68]	; (45c0 <vTaskStartScheduler+0x4c>)
    457a:	9301      	str	r3, [sp, #4]
    457c:	2300      	movs	r3, #0
    457e:	9300      	str	r3, [sp, #0]
    4580:	22fa      	movs	r2, #250	; 0xfa
    4582:	0052      	lsls	r2, r2, #1
    4584:	490f      	ldr	r1, [pc, #60]	; (45c4 <vTaskStartScheduler+0x50>)
    4586:	4810      	ldr	r0, [pc, #64]	; (45c8 <vTaskStartScheduler+0x54>)
    4588:	4c10      	ldr	r4, [pc, #64]	; (45cc <vTaskStartScheduler+0x58>)
    458a:	47a0      	blx	r4
		if( xReturn == pdPASS )
    458c:	2801      	cmp	r0, #1
    458e:	d003      	beq.n	4598 <vTaskStartScheduler+0x24>
		configASSERT( xReturn != errCOULD_NOT_ALLOCATE_REQUIRED_MEMORY );
    4590:	1c43      	adds	r3, r0, #1
    4592:	d013      	beq.n	45bc <vTaskStartScheduler+0x48>
}
    4594:	b002      	add	sp, #8
    4596:	bd10      	pop	{r4, pc}
			xReturn = xTimerCreateTimerTask();
    4598:	4b0d      	ldr	r3, [pc, #52]	; (45d0 <vTaskStartScheduler+0x5c>)
    459a:	4798      	blx	r3
	if( xReturn == pdPASS )
    459c:	2801      	cmp	r0, #1
    459e:	d1f7      	bne.n	4590 <vTaskStartScheduler+0x1c>
		portDISABLE_INTERRUPTS();
    45a0:	b672      	cpsid	i
		xNextTaskUnblockTime = portMAX_DELAY;
    45a2:	2201      	movs	r2, #1
    45a4:	4252      	negs	r2, r2
    45a6:	4b0b      	ldr	r3, [pc, #44]	; (45d4 <vTaskStartScheduler+0x60>)
    45a8:	601a      	str	r2, [r3, #0]
		xSchedulerRunning = pdTRUE;
    45aa:	3202      	adds	r2, #2
    45ac:	4b0a      	ldr	r3, [pc, #40]	; (45d8 <vTaskStartScheduler+0x64>)
    45ae:	601a      	str	r2, [r3, #0]
		xTickCount = ( TickType_t ) 0U;
    45b0:	2200      	movs	r2, #0
    45b2:	4b0a      	ldr	r3, [pc, #40]	; (45dc <vTaskStartScheduler+0x68>)
    45b4:	601a      	str	r2, [r3, #0]
		if( xPortStartScheduler() != pdFALSE )
    45b6:	4b0a      	ldr	r3, [pc, #40]	; (45e0 <vTaskStartScheduler+0x6c>)
    45b8:	4798      	blx	r3
    45ba:	e7eb      	b.n	4594 <vTaskStartScheduler+0x20>
		configASSERT( xReturn != errCOULD_NOT_ALLOCATE_REQUIRED_MEMORY );
    45bc:	b672      	cpsid	i
    45be:	e7fe      	b.n	45be <vTaskStartScheduler+0x4a>
    45c0:	20003780 	.word	0x20003780
    45c4:	0000a708 	.word	0x0000a708
    45c8:	000041c9 	.word	0x000041c9
    45cc:	000042d1 	.word	0x000042d1
    45d0:	00005199 	.word	0x00005199
    45d4:	20003784 	.word	0x20003784
    45d8:	200037a0 	.word	0x200037a0
    45dc:	200037cc 	.word	0x200037cc
    45e0:	00002df9 	.word	0x00002df9

000045e4 <vTaskSuspendAll>:
	++uxSchedulerSuspended;
    45e4:	4a02      	ldr	r2, [pc, #8]	; (45f0 <vTaskSuspendAll+0xc>)
    45e6:	6813      	ldr	r3, [r2, #0]
    45e8:	3301      	adds	r3, #1
    45ea:	6013      	str	r3, [r2, #0]
}
    45ec:	4770      	bx	lr
    45ee:	46c0      	nop			; (mov r8, r8)
    45f0:	2000374c 	.word	0x2000374c

000045f4 <xTaskGetTickCount>:
		xTicks = xTickCount;
    45f4:	4b01      	ldr	r3, [pc, #4]	; (45fc <xTaskGetTickCount+0x8>)
    45f6:	6818      	ldr	r0, [r3, #0]
}
    45f8:	4770      	bx	lr
    45fa:	46c0      	nop			; (mov r8, r8)
    45fc:	200037cc 	.word	0x200037cc

00004600 <xTaskIncrementTick>:
{
    4600:	b5f0      	push	{r4, r5, r6, r7, lr}
    4602:	b083      	sub	sp, #12
	traceTASK_INCREMENT_TICK( xTickCount );
    4604:	4b4c      	ldr	r3, [pc, #304]	; (4738 <xTaskIncrementTick+0x138>)
    4606:	681b      	ldr	r3, [r3, #0]
    4608:	2b01      	cmp	r3, #1
    460a:	d003      	beq.n	4614 <xTaskIncrementTick+0x14>
    460c:	4b4b      	ldr	r3, [pc, #300]	; (473c <xTaskIncrementTick+0x13c>)
    460e:	681b      	ldr	r3, [r3, #0]
    4610:	2b00      	cmp	r3, #0
    4612:	d106      	bne.n	4622 <xTaskIncrementTick+0x22>
    4614:	4a4a      	ldr	r2, [pc, #296]	; (4740 <xTaskIncrementTick+0x140>)
    4616:	6813      	ldr	r3, [r2, #0]
    4618:	3301      	adds	r3, #1
    461a:	6013      	str	r3, [r2, #0]
    461c:	2000      	movs	r0, #0
    461e:	4b49      	ldr	r3, [pc, #292]	; (4744 <xTaskIncrementTick+0x144>)
    4620:	4798      	blx	r3
    4622:	4b45      	ldr	r3, [pc, #276]	; (4738 <xTaskIncrementTick+0x138>)
    4624:	681b      	ldr	r3, [r3, #0]
    4626:	2b00      	cmp	r3, #0
    4628:	d010      	beq.n	464c <xTaskIncrementTick+0x4c>
	if( uxSchedulerSuspended == ( UBaseType_t ) pdFALSE )
    462a:	4b43      	ldr	r3, [pc, #268]	; (4738 <xTaskIncrementTick+0x138>)
    462c:	681b      	ldr	r3, [r3, #0]
    462e:	2b00      	cmp	r3, #0
    4630:	d175      	bne.n	471e <xTaskIncrementTick+0x11e>
		const TickType_t xConstTickCount = xTickCount + ( TickType_t ) 1;
    4632:	4b45      	ldr	r3, [pc, #276]	; (4748 <xTaskIncrementTick+0x148>)
    4634:	681e      	ldr	r6, [r3, #0]
    4636:	3601      	adds	r6, #1
		xTickCount = xConstTickCount;
    4638:	601e      	str	r6, [r3, #0]
		if( xConstTickCount == ( TickType_t ) 0U ) /*lint !e774 'if' does not always evaluate to false as it is looking for an overflow. */
    463a:	2e00      	cmp	r6, #0
    463c:	d119      	bne.n	4672 <xTaskIncrementTick+0x72>
			taskSWITCH_DELAYED_LISTS();
    463e:	4b43      	ldr	r3, [pc, #268]	; (474c <xTaskIncrementTick+0x14c>)
    4640:	681b      	ldr	r3, [r3, #0]
    4642:	681b      	ldr	r3, [r3, #0]
    4644:	2b00      	cmp	r3, #0
    4646:	d008      	beq.n	465a <xTaskIncrementTick+0x5a>
    4648:	b672      	cpsid	i
    464a:	e7fe      	b.n	464a <xTaskIncrementTick+0x4a>
	traceTASK_INCREMENT_TICK( xTickCount );
    464c:	4b3e      	ldr	r3, [pc, #248]	; (4748 <xTaskIncrementTick+0x148>)
    464e:	6819      	ldr	r1, [r3, #0]
    4650:	3101      	adds	r1, #1
    4652:	2003      	movs	r0, #3
    4654:	4b3e      	ldr	r3, [pc, #248]	; (4750 <xTaskIncrementTick+0x150>)
    4656:	4798      	blx	r3
    4658:	e7e7      	b.n	462a <xTaskIncrementTick+0x2a>
			taskSWITCH_DELAYED_LISTS();
    465a:	4a3c      	ldr	r2, [pc, #240]	; (474c <xTaskIncrementTick+0x14c>)
    465c:	6811      	ldr	r1, [r2, #0]
    465e:	4b3d      	ldr	r3, [pc, #244]	; (4754 <xTaskIncrementTick+0x154>)
    4660:	6818      	ldr	r0, [r3, #0]
    4662:	6010      	str	r0, [r2, #0]
    4664:	6019      	str	r1, [r3, #0]
    4666:	4a3c      	ldr	r2, [pc, #240]	; (4758 <xTaskIncrementTick+0x158>)
    4668:	6813      	ldr	r3, [r2, #0]
    466a:	3301      	adds	r3, #1
    466c:	6013      	str	r3, [r2, #0]
    466e:	4b3b      	ldr	r3, [pc, #236]	; (475c <xTaskIncrementTick+0x15c>)
    4670:	4798      	blx	r3
		if( xConstTickCount >= xNextTaskUnblockTime )
    4672:	4b3b      	ldr	r3, [pc, #236]	; (4760 <xTaskIncrementTick+0x160>)
    4674:	681b      	ldr	r3, [r3, #0]
BaseType_t xSwitchRequired = pdFALSE;
    4676:	2500      	movs	r5, #0
		if( xConstTickCount >= xNextTaskUnblockTime )
    4678:	429e      	cmp	r6, r3
    467a:	d33a      	bcc.n	46f2 <xTaskIncrementTick+0xf2>
    467c:	2500      	movs	r5, #0
				if( listLIST_IS_EMPTY( pxDelayedTaskList ) != pdFALSE )
    467e:	4f33      	ldr	r7, [pc, #204]	; (474c <xTaskIncrementTick+0x14c>)
    4680:	683b      	ldr	r3, [r7, #0]
    4682:	681b      	ldr	r3, [r3, #0]
    4684:	2b00      	cmp	r3, #0
    4686:	d030      	beq.n	46ea <xTaskIncrementTick+0xea>
					pxTCB = ( TCB_t * ) listGET_OWNER_OF_HEAD_ENTRY( pxDelayedTaskList );
    4688:	4b30      	ldr	r3, [pc, #192]	; (474c <xTaskIncrementTick+0x14c>)
    468a:	681b      	ldr	r3, [r3, #0]
    468c:	68db      	ldr	r3, [r3, #12]
    468e:	68dc      	ldr	r4, [r3, #12]
					xItemValue = listGET_LIST_ITEM_VALUE( &( pxTCB->xStateListItem ) );
    4690:	6863      	ldr	r3, [r4, #4]
					if( xConstTickCount < xItemValue )
    4692:	429e      	cmp	r6, r3
    4694:	d339      	bcc.n	470a <xTaskIncrementTick+0x10a>
					( void ) uxListRemove( &( pxTCB->xStateListItem ) );
    4696:	1d23      	adds	r3, r4, #4
    4698:	9301      	str	r3, [sp, #4]
    469a:	0018      	movs	r0, r3
    469c:	4b31      	ldr	r3, [pc, #196]	; (4764 <xTaskIncrementTick+0x164>)
    469e:	4798      	blx	r3
					if( listLIST_ITEM_CONTAINER( &( pxTCB->xEventListItem ) ) != NULL )
    46a0:	6aa3      	ldr	r3, [r4, #40]	; 0x28
    46a2:	2b00      	cmp	r3, #0
    46a4:	d003      	beq.n	46ae <xTaskIncrementTick+0xae>
						( void ) uxListRemove( &( pxTCB->xEventListItem ) );
    46a6:	0020      	movs	r0, r4
    46a8:	3018      	adds	r0, #24
    46aa:	4b2e      	ldr	r3, [pc, #184]	; (4764 <xTaskIncrementTick+0x164>)
    46ac:	4798      	blx	r3
					prvAddTaskToReadyList( pxTCB );
    46ae:	0020      	movs	r0, r4
    46b0:	4b2d      	ldr	r3, [pc, #180]	; (4768 <xTaskIncrementTick+0x168>)
    46b2:	4798      	blx	r3
    46b4:	4b2d      	ldr	r3, [pc, #180]	; (476c <xTaskIncrementTick+0x16c>)
    46b6:	881b      	ldrh	r3, [r3, #0]
    46b8:	4203      	tst	r3, r0
    46ba:	d129      	bne.n	4710 <xTaskIncrementTick+0x110>
    46bc:	6ae3      	ldr	r3, [r4, #44]	; 0x2c
    46be:	4a2c      	ldr	r2, [pc, #176]	; (4770 <xTaskIncrementTick+0x170>)
    46c0:	6812      	ldr	r2, [r2, #0]
    46c2:	4293      	cmp	r3, r2
    46c4:	d901      	bls.n	46ca <xTaskIncrementTick+0xca>
    46c6:	4a2a      	ldr	r2, [pc, #168]	; (4770 <xTaskIncrementTick+0x170>)
    46c8:	6013      	str	r3, [r2, #0]
    46ca:	0098      	lsls	r0, r3, #2
    46cc:	18c0      	adds	r0, r0, r3
    46ce:	0080      	lsls	r0, r0, #2
    46d0:	4b28      	ldr	r3, [pc, #160]	; (4774 <xTaskIncrementTick+0x174>)
    46d2:	1818      	adds	r0, r3, r0
    46d4:	9901      	ldr	r1, [sp, #4]
    46d6:	4b28      	ldr	r3, [pc, #160]	; (4778 <xTaskIncrementTick+0x178>)
    46d8:	4798      	blx	r3
						if( pxTCB->uxPriority >= pxCurrentTCB->uxPriority )
    46da:	4b28      	ldr	r3, [pc, #160]	; (477c <xTaskIncrementTick+0x17c>)
    46dc:	681b      	ldr	r3, [r3, #0]
    46de:	6ae2      	ldr	r2, [r4, #44]	; 0x2c
    46e0:	6adb      	ldr	r3, [r3, #44]	; 0x2c
    46e2:	429a      	cmp	r2, r3
    46e4:	d3cc      	bcc.n	4680 <xTaskIncrementTick+0x80>
							xSwitchRequired = pdTRUE;
    46e6:	2501      	movs	r5, #1
    46e8:	e7ca      	b.n	4680 <xTaskIncrementTick+0x80>
					xNextTaskUnblockTime = portMAX_DELAY; /*lint !e961 MISRA exception as the casts are only redundant for some ports. */
    46ea:	2201      	movs	r2, #1
    46ec:	4252      	negs	r2, r2
    46ee:	4b1c      	ldr	r3, [pc, #112]	; (4760 <xTaskIncrementTick+0x160>)
    46f0:	601a      	str	r2, [r3, #0]
			if( listCURRENT_LIST_LENGTH( &( pxReadyTasksLists[ pxCurrentTCB->uxPriority ] ) ) > ( UBaseType_t ) 1 )
    46f2:	4b22      	ldr	r3, [pc, #136]	; (477c <xTaskIncrementTick+0x17c>)
    46f4:	681b      	ldr	r3, [r3, #0]
    46f6:	6ada      	ldr	r2, [r3, #44]	; 0x2c
    46f8:	0093      	lsls	r3, r2, #2
    46fa:	189b      	adds	r3, r3, r2
    46fc:	009b      	lsls	r3, r3, #2
    46fe:	4a1d      	ldr	r2, [pc, #116]	; (4774 <xTaskIncrementTick+0x174>)
    4700:	589b      	ldr	r3, [r3, r2]
    4702:	2b01      	cmp	r3, #1
    4704:	d910      	bls.n	4728 <xTaskIncrementTick+0x128>
				xSwitchRequired = pdTRUE;
    4706:	2501      	movs	r5, #1
    4708:	e00e      	b.n	4728 <xTaskIncrementTick+0x128>
						xNextTaskUnblockTime = xItemValue;
    470a:	4a15      	ldr	r2, [pc, #84]	; (4760 <xTaskIncrementTick+0x160>)
    470c:	6013      	str	r3, [r2, #0]
						break;
    470e:	e7f0      	b.n	46f2 <xTaskIncrementTick+0xf2>
					prvAddTaskToReadyList( pxTCB );
    4710:	0020      	movs	r0, r4
    4712:	4b1b      	ldr	r3, [pc, #108]	; (4780 <xTaskIncrementTick+0x180>)
    4714:	4798      	blx	r3
    4716:	b2c0      	uxtb	r0, r0
    4718:	4b1a      	ldr	r3, [pc, #104]	; (4784 <xTaskIncrementTick+0x184>)
    471a:	4798      	blx	r3
    471c:	e7ce      	b.n	46bc <xTaskIncrementTick+0xbc>
		++uxPendedTicks;
    471e:	4a07      	ldr	r2, [pc, #28]	; (473c <xTaskIncrementTick+0x13c>)
    4720:	6813      	ldr	r3, [r2, #0]
    4722:	3301      	adds	r3, #1
    4724:	6013      	str	r3, [r2, #0]
BaseType_t xSwitchRequired = pdFALSE;
    4726:	2500      	movs	r5, #0
		if( xYieldPending != pdFALSE )
    4728:	4b17      	ldr	r3, [pc, #92]	; (4788 <xTaskIncrementTick+0x188>)
    472a:	681b      	ldr	r3, [r3, #0]
    472c:	2b00      	cmp	r3, #0
    472e:	d000      	beq.n	4732 <xTaskIncrementTick+0x132>
			xSwitchRequired = pdTRUE;
    4730:	2501      	movs	r5, #1
}
    4732:	0028      	movs	r0, r5
    4734:	b003      	add	sp, #12
    4736:	bdf0      	pop	{r4, r5, r6, r7, pc}
    4738:	2000374c 	.word	0x2000374c
    473c:	20003748 	.word	0x20003748
    4740:	200003f8 	.word	0x200003f8
    4744:	000025d1 	.word	0x000025d1
    4748:	200037cc 	.word	0x200037cc
    474c:	200036d4 	.word	0x200036d4
    4750:	00002a9d 	.word	0x00002a9d
    4754:	200036d8 	.word	0x200036d8
    4758:	20003788 	.word	0x20003788
    475c:	0000419d 	.word	0x0000419d
    4760:	20003784 	.word	0x20003784
    4764:	00002d47 	.word	0x00002d47
    4768:	00001c11 	.word	0x00001c11
    476c:	20000020 	.word	0x20000020
    4770:	20003754 	.word	0x20003754
    4774:	200036dc 	.word	0x200036dc
    4778:	00002d01 	.word	0x00002d01
    477c:	200036d0 	.word	0x200036d0
    4780:	00001c01 	.word	0x00001c01
    4784:	00002799 	.word	0x00002799
    4788:	200037d0 	.word	0x200037d0

0000478c <xTaskResumeAll>:
{
    478c:	b5f8      	push	{r3, r4, r5, r6, r7, lr}
	configASSERT( uxSchedulerSuspended );
    478e:	4b37      	ldr	r3, [pc, #220]	; (486c <xTaskResumeAll+0xe0>)
    4790:	681b      	ldr	r3, [r3, #0]
    4792:	2b00      	cmp	r3, #0
    4794:	d101      	bne.n	479a <xTaskResumeAll+0xe>
    4796:	b672      	cpsid	i
    4798:	e7fe      	b.n	4798 <xTaskResumeAll+0xc>
	taskENTER_CRITICAL();
    479a:	4b35      	ldr	r3, [pc, #212]	; (4870 <xTaskResumeAll+0xe4>)
    479c:	4798      	blx	r3
		--uxSchedulerSuspended;
    479e:	4b33      	ldr	r3, [pc, #204]	; (486c <xTaskResumeAll+0xe0>)
    47a0:	681a      	ldr	r2, [r3, #0]
    47a2:	3a01      	subs	r2, #1
    47a4:	601a      	str	r2, [r3, #0]
		if( uxSchedulerSuspended == ( UBaseType_t ) pdFALSE )
    47a6:	681b      	ldr	r3, [r3, #0]
BaseType_t xAlreadyYielded = pdFALSE;
    47a8:	2400      	movs	r4, #0
		if( uxSchedulerSuspended == ( UBaseType_t ) pdFALSE )
    47aa:	2b00      	cmp	r3, #0
    47ac:	d103      	bne.n	47b6 <xTaskResumeAll+0x2a>
			if( uxCurrentNumberOfTasks > ( UBaseType_t ) 0U )
    47ae:	4b31      	ldr	r3, [pc, #196]	; (4874 <xTaskResumeAll+0xe8>)
    47b0:	681b      	ldr	r3, [r3, #0]
    47b2:	2b00      	cmp	r3, #0
    47b4:	d136      	bne.n	4824 <xTaskResumeAll+0x98>
	taskEXIT_CRITICAL();
    47b6:	4b30      	ldr	r3, [pc, #192]	; (4878 <xTaskResumeAll+0xec>)
    47b8:	4798      	blx	r3
}
    47ba:	0020      	movs	r0, r4
    47bc:	bdf8      	pop	{r3, r4, r5, r6, r7, pc}
					prvAddTaskToReadyList( pxTCB );
    47be:	6ae3      	ldr	r3, [r4, #44]	; 0x2c
    47c0:	4a2e      	ldr	r2, [pc, #184]	; (487c <xTaskResumeAll+0xf0>)
    47c2:	6812      	ldr	r2, [r2, #0]
    47c4:	4293      	cmp	r3, r2
    47c6:	d901      	bls.n	47cc <xTaskResumeAll+0x40>
    47c8:	4a2c      	ldr	r2, [pc, #176]	; (487c <xTaskResumeAll+0xf0>)
    47ca:	6013      	str	r3, [r2, #0]
    47cc:	0098      	lsls	r0, r3, #2
    47ce:	18c0      	adds	r0, r0, r3
    47d0:	0080      	lsls	r0, r0, #2
    47d2:	4b2b      	ldr	r3, [pc, #172]	; (4880 <xTaskResumeAll+0xf4>)
    47d4:	1818      	adds	r0, r3, r0
    47d6:	0031      	movs	r1, r6
    47d8:	4b2a      	ldr	r3, [pc, #168]	; (4884 <xTaskResumeAll+0xf8>)
    47da:	4798      	blx	r3
					if( pxTCB->uxPriority >= pxCurrentTCB->uxPriority )
    47dc:	4b2a      	ldr	r3, [pc, #168]	; (4888 <xTaskResumeAll+0xfc>)
    47de:	681b      	ldr	r3, [r3, #0]
    47e0:	6adb      	ldr	r3, [r3, #44]	; 0x2c
    47e2:	6ae2      	ldr	r2, [r4, #44]	; 0x2c
    47e4:	429a      	cmp	r2, r3
    47e6:	d302      	bcc.n	47ee <xTaskResumeAll+0x62>
						xYieldPending = pdTRUE;
    47e8:	2201      	movs	r2, #1
    47ea:	4b28      	ldr	r3, [pc, #160]	; (488c <xTaskResumeAll+0x100>)
    47ec:	601a      	str	r2, [r3, #0]
				while( listLIST_IS_EMPTY( &xPendingReadyList ) == pdFALSE )
    47ee:	682b      	ldr	r3, [r5, #0]
    47f0:	2b00      	cmp	r3, #0
    47f2:	d01a      	beq.n	482a <xTaskResumeAll+0x9e>
					pxTCB = ( TCB_t * ) listGET_OWNER_OF_HEAD_ENTRY( ( &xPendingReadyList ) );
    47f4:	68fb      	ldr	r3, [r7, #12]
    47f6:	68dc      	ldr	r4, [r3, #12]
					( void ) uxListRemove( &( pxTCB->xEventListItem ) );
    47f8:	0020      	movs	r0, r4
    47fa:	3018      	adds	r0, #24
    47fc:	4b24      	ldr	r3, [pc, #144]	; (4890 <xTaskResumeAll+0x104>)
    47fe:	4798      	blx	r3
					( void ) uxListRemove( &( pxTCB->xStateListItem ) );
    4800:	1d26      	adds	r6, r4, #4
    4802:	0030      	movs	r0, r6
    4804:	4b22      	ldr	r3, [pc, #136]	; (4890 <xTaskResumeAll+0x104>)
    4806:	4798      	blx	r3
					prvAddTaskToReadyList( pxTCB );
    4808:	0020      	movs	r0, r4
    480a:	4b22      	ldr	r3, [pc, #136]	; (4894 <xTaskResumeAll+0x108>)
    480c:	4798      	blx	r3
    480e:	4b22      	ldr	r3, [pc, #136]	; (4898 <xTaskResumeAll+0x10c>)
    4810:	881b      	ldrh	r3, [r3, #0]
    4812:	4203      	tst	r3, r0
    4814:	d0d3      	beq.n	47be <xTaskResumeAll+0x32>
    4816:	0020      	movs	r0, r4
    4818:	4b20      	ldr	r3, [pc, #128]	; (489c <xTaskResumeAll+0x110>)
    481a:	4798      	blx	r3
    481c:	b2c0      	uxtb	r0, r0
    481e:	4b20      	ldr	r3, [pc, #128]	; (48a0 <xTaskResumeAll+0x114>)
    4820:	4798      	blx	r3
    4822:	e7cc      	b.n	47be <xTaskResumeAll+0x32>
				while( listLIST_IS_EMPTY( &xPendingReadyList ) == pdFALSE )
    4824:	4d1f      	ldr	r5, [pc, #124]	; (48a4 <xTaskResumeAll+0x118>)
					pxTCB = ( TCB_t * ) listGET_OWNER_OF_HEAD_ENTRY( ( &xPendingReadyList ) );
    4826:	002f      	movs	r7, r5
    4828:	e7e1      	b.n	47ee <xTaskResumeAll+0x62>
				if( pxTCB != NULL )
    482a:	2c00      	cmp	r4, #0
    482c:	d001      	beq.n	4832 <xTaskResumeAll+0xa6>
					prvResetNextTaskUnblockTime();
    482e:	4b1e      	ldr	r3, [pc, #120]	; (48a8 <xTaskResumeAll+0x11c>)
    4830:	4798      	blx	r3
					UBaseType_t uxPendedCounts = uxPendedTicks; /* Non-volatile copy. */
    4832:	4b1e      	ldr	r3, [pc, #120]	; (48ac <xTaskResumeAll+0x120>)
    4834:	681c      	ldr	r4, [r3, #0]
					if( uxPendedCounts > ( UBaseType_t ) 0U )
    4836:	2c00      	cmp	r4, #0
    4838:	d00e      	beq.n	4858 <xTaskResumeAll+0xcc>
							if( xTaskIncrementTick() != pdFALSE )
    483a:	4f1d      	ldr	r7, [pc, #116]	; (48b0 <xTaskResumeAll+0x124>)
								xYieldPending = pdTRUE;
    483c:	4e13      	ldr	r6, [pc, #76]	; (488c <xTaskResumeAll+0x100>)
    483e:	2501      	movs	r5, #1
    4840:	e002      	b.n	4848 <xTaskResumeAll+0xbc>
							--uxPendedCounts;
    4842:	3c01      	subs	r4, #1
						} while( uxPendedCounts > ( UBaseType_t ) 0U );
    4844:	2c00      	cmp	r4, #0
    4846:	d004      	beq.n	4852 <xTaskResumeAll+0xc6>
							if( xTaskIncrementTick() != pdFALSE )
    4848:	47b8      	blx	r7
    484a:	2800      	cmp	r0, #0
    484c:	d0f9      	beq.n	4842 <xTaskResumeAll+0xb6>
								xYieldPending = pdTRUE;
    484e:	6035      	str	r5, [r6, #0]
    4850:	e7f7      	b.n	4842 <xTaskResumeAll+0xb6>
						uxPendedTicks = 0;
    4852:	2200      	movs	r2, #0
    4854:	4b15      	ldr	r3, [pc, #84]	; (48ac <xTaskResumeAll+0x120>)
    4856:	601a      	str	r2, [r3, #0]
				if( xYieldPending != pdFALSE )
    4858:	4b0c      	ldr	r3, [pc, #48]	; (488c <xTaskResumeAll+0x100>)
    485a:	681b      	ldr	r3, [r3, #0]
BaseType_t xAlreadyYielded = pdFALSE;
    485c:	2400      	movs	r4, #0
				if( xYieldPending != pdFALSE )
    485e:	2b00      	cmp	r3, #0
    4860:	d0a9      	beq.n	47b6 <xTaskResumeAll+0x2a>
					taskYIELD_IF_USING_PREEMPTION();
    4862:	4b14      	ldr	r3, [pc, #80]	; (48b4 <xTaskResumeAll+0x128>)
    4864:	4798      	blx	r3
						xAlreadyYielded = pdTRUE;
    4866:	3401      	adds	r4, #1
    4868:	e7a5      	b.n	47b6 <xTaskResumeAll+0x2a>
    486a:	46c0      	nop			; (mov r8, r8)
    486c:	2000374c 	.word	0x2000374c
    4870:	00002e81 	.word	0x00002e81
    4874:	20003740 	.word	0x20003740
    4878:	00002e99 	.word	0x00002e99
    487c:	20003754 	.word	0x20003754
    4880:	200036dc 	.word	0x200036dc
    4884:	00002d01 	.word	0x00002d01
    4888:	200036d0 	.word	0x200036d0
    488c:	200037d0 	.word	0x200037d0
    4890:	00002d47 	.word	0x00002d47
    4894:	00001c11 	.word	0x00001c11
    4898:	20000020 	.word	0x20000020
    489c:	00001c01 	.word	0x00001c01
    48a0:	00002799 	.word	0x00002799
    48a4:	2000378c 	.word	0x2000378c
    48a8:	0000419d 	.word	0x0000419d
    48ac:	20003748 	.word	0x20003748
    48b0:	00004601 	.word	0x00004601
    48b4:	00002e71 	.word	0x00002e71

000048b8 <vTaskDelay>:
	{
    48b8:	b510      	push	{r4, lr}
    48ba:	1e04      	subs	r4, r0, #0
		if( xTicksToDelay > ( TickType_t ) 0U )
    48bc:	d031      	beq.n	4922 <vTaskDelay+0x6a>
			configASSERT( uxSchedulerSuspended == 0 );
    48be:	4b1a      	ldr	r3, [pc, #104]	; (4928 <vTaskDelay+0x70>)
    48c0:	681b      	ldr	r3, [r3, #0]
    48c2:	2b00      	cmp	r3, #0
    48c4:	d001      	beq.n	48ca <vTaskDelay+0x12>
    48c6:	b672      	cpsid	i
    48c8:	e7fe      	b.n	48c8 <vTaskDelay+0x10>
			vTaskSuspendAll();
    48ca:	4b18      	ldr	r3, [pc, #96]	; (492c <vTaskDelay+0x74>)
    48cc:	4798      	blx	r3
				traceTASK_DELAY();
    48ce:	4b18      	ldr	r3, [pc, #96]	; (4930 <vTaskDelay+0x78>)
    48d0:	6818      	ldr	r0, [r3, #0]
    48d2:	4b18      	ldr	r3, [pc, #96]	; (4934 <vTaskDelay+0x7c>)
    48d4:	4798      	blx	r3
    48d6:	4b18      	ldr	r3, [pc, #96]	; (4938 <vTaskDelay+0x80>)
    48d8:	881b      	ldrh	r3, [r3, #0]
    48da:	4203      	tst	r3, r0
    48dc:	d00a      	beq.n	48f4 <vTaskDelay+0x3c>
    48de:	0021      	movs	r1, r4
    48e0:	2089      	movs	r0, #137	; 0x89
    48e2:	4b16      	ldr	r3, [pc, #88]	; (493c <vTaskDelay+0x84>)
    48e4:	4798      	blx	r3
    48e6:	4b12      	ldr	r3, [pc, #72]	; (4930 <vTaskDelay+0x78>)
    48e8:	6818      	ldr	r0, [r3, #0]
    48ea:	4b15      	ldr	r3, [pc, #84]	; (4940 <vTaskDelay+0x88>)
    48ec:	4798      	blx	r3
    48ee:	b2c0      	uxtb	r0, r0
    48f0:	4b14      	ldr	r3, [pc, #80]	; (4944 <vTaskDelay+0x8c>)
    48f2:	4798      	blx	r3
    48f4:	4b14      	ldr	r3, [pc, #80]	; (4948 <vTaskDelay+0x90>)
    48f6:	4798      	blx	r3
    48f8:	4b0e      	ldr	r3, [pc, #56]	; (4934 <vTaskDelay+0x7c>)
    48fa:	4798      	blx	r3
    48fc:	4b0e      	ldr	r3, [pc, #56]	; (4938 <vTaskDelay+0x80>)
    48fe:	881b      	ldrh	r3, [r3, #0]
    4900:	4203      	tst	r3, r0
    4902:	d006      	beq.n	4912 <vTaskDelay+0x5a>
    4904:	4b10      	ldr	r3, [pc, #64]	; (4948 <vTaskDelay+0x90>)
    4906:	4798      	blx	r3
    4908:	4b0d      	ldr	r3, [pc, #52]	; (4940 <vTaskDelay+0x88>)
    490a:	4798      	blx	r3
    490c:	b2c0      	uxtb	r0, r0
    490e:	4b0d      	ldr	r3, [pc, #52]	; (4944 <vTaskDelay+0x8c>)
    4910:	4798      	blx	r3
				prvAddCurrentTaskToDelayedList( xTicksToDelay, pdFALSE );
    4912:	2100      	movs	r1, #0
    4914:	0020      	movs	r0, r4
    4916:	4b0d      	ldr	r3, [pc, #52]	; (494c <vTaskDelay+0x94>)
    4918:	4798      	blx	r3
			xAlreadyYielded = xTaskResumeAll();
    491a:	4b0d      	ldr	r3, [pc, #52]	; (4950 <vTaskDelay+0x98>)
    491c:	4798      	blx	r3
		if( xAlreadyYielded == pdFALSE )
    491e:	2800      	cmp	r0, #0
    4920:	d101      	bne.n	4926 <vTaskDelay+0x6e>
			portYIELD_WITHIN_API();
    4922:	4b0c      	ldr	r3, [pc, #48]	; (4954 <vTaskDelay+0x9c>)
    4924:	4798      	blx	r3
	}
    4926:	bd10      	pop	{r4, pc}
    4928:	2000374c 	.word	0x2000374c
    492c:	000045e5 	.word	0x000045e5
    4930:	200036d0 	.word	0x200036d0
    4934:	00001c11 	.word	0x00001c11
    4938:	20000020 	.word	0x20000020
    493c:	00002a9d 	.word	0x00002a9d
    4940:	00001c01 	.word	0x00001c01
    4944:	0000242d 	.word	0x0000242d
    4948:	00001cc9 	.word	0x00001cc9
    494c:	00004249 	.word	0x00004249
    4950:	0000478d 	.word	0x0000478d
    4954:	00002e71 	.word	0x00002e71

00004958 <vTaskSwitchContext>:
{
    4958:	b510      	push	{r4, lr}
	if( uxSchedulerSuspended != ( UBaseType_t ) pdFALSE )
    495a:	4b33      	ldr	r3, [pc, #204]	; (4a28 <vTaskSwitchContext+0xd0>)
    495c:	681b      	ldr	r3, [r3, #0]
    495e:	2b00      	cmp	r3, #0
    4960:	d125      	bne.n	49ae <vTaskSwitchContext+0x56>
		xYieldPending = pdFALSE;
    4962:	2200      	movs	r2, #0
    4964:	4b31      	ldr	r3, [pc, #196]	; (4a2c <vTaskSwitchContext+0xd4>)
    4966:	601a      	str	r2, [r3, #0]
		taskCHECK_FOR_STACK_OVERFLOW();
    4968:	4b31      	ldr	r3, [pc, #196]	; (4a30 <vTaskSwitchContext+0xd8>)
    496a:	681a      	ldr	r2, [r3, #0]
    496c:	681b      	ldr	r3, [r3, #0]
    496e:	6812      	ldr	r2, [r2, #0]
    4970:	6b1b      	ldr	r3, [r3, #48]	; 0x30
    4972:	429a      	cmp	r2, r3
    4974:	d805      	bhi.n	4982 <vTaskSwitchContext+0x2a>
    4976:	4b2e      	ldr	r3, [pc, #184]	; (4a30 <vTaskSwitchContext+0xd8>)
    4978:	6818      	ldr	r0, [r3, #0]
    497a:	6819      	ldr	r1, [r3, #0]
    497c:	3134      	adds	r1, #52	; 0x34
    497e:	4b2d      	ldr	r3, [pc, #180]	; (4a34 <vTaskSwitchContext+0xdc>)
    4980:	4798      	blx	r3
		taskSELECT_HIGHEST_PRIORITY_TASK();
    4982:	4b2d      	ldr	r3, [pc, #180]	; (4a38 <vTaskSwitchContext+0xe0>)
    4984:	681b      	ldr	r3, [r3, #0]
    4986:	009a      	lsls	r2, r3, #2
    4988:	18d2      	adds	r2, r2, r3
    498a:	0092      	lsls	r2, r2, #2
    498c:	492b      	ldr	r1, [pc, #172]	; (4a3c <vTaskSwitchContext+0xe4>)
    498e:	5852      	ldr	r2, [r2, r1]
    4990:	2a00      	cmp	r2, #0
    4992:	d110      	bne.n	49b6 <vTaskSwitchContext+0x5e>
    4994:	2b00      	cmp	r3, #0
    4996:	d008      	beq.n	49aa <vTaskSwitchContext+0x52>
    4998:	3b01      	subs	r3, #1
    499a:	009a      	lsls	r2, r3, #2
    499c:	18d2      	adds	r2, r2, r3
    499e:	0092      	lsls	r2, r2, #2
    49a0:	5852      	ldr	r2, [r2, r1]
    49a2:	2a00      	cmp	r2, #0
    49a4:	d107      	bne.n	49b6 <vTaskSwitchContext+0x5e>
    49a6:	2b00      	cmp	r3, #0
    49a8:	d1f6      	bne.n	4998 <vTaskSwitchContext+0x40>
    49aa:	b672      	cpsid	i
    49ac:	e7fe      	b.n	49ac <vTaskSwitchContext+0x54>
		xYieldPending = pdTRUE;
    49ae:	2201      	movs	r2, #1
    49b0:	4b1e      	ldr	r3, [pc, #120]	; (4a2c <vTaskSwitchContext+0xd4>)
    49b2:	601a      	str	r2, [r3, #0]
}
    49b4:	bd10      	pop	{r4, pc}
		taskSELECT_HIGHEST_PRIORITY_TASK();
    49b6:	4821      	ldr	r0, [pc, #132]	; (4a3c <vTaskSwitchContext+0xe4>)
    49b8:	009a      	lsls	r2, r3, #2
    49ba:	18d1      	adds	r1, r2, r3
    49bc:	0089      	lsls	r1, r1, #2
    49be:	1841      	adds	r1, r0, r1
    49c0:	684c      	ldr	r4, [r1, #4]
    49c2:	6864      	ldr	r4, [r4, #4]
    49c4:	604c      	str	r4, [r1, #4]
    49c6:	18d2      	adds	r2, r2, r3
    49c8:	0092      	lsls	r2, r2, #2
    49ca:	3208      	adds	r2, #8
    49cc:	1882      	adds	r2, r0, r2
    49ce:	4294      	cmp	r4, r2
    49d0:	d019      	beq.n	4a06 <vTaskSwitchContext+0xae>
    49d2:	009a      	lsls	r2, r3, #2
    49d4:	18d2      	adds	r2, r2, r3
    49d6:	0092      	lsls	r2, r2, #2
    49d8:	4918      	ldr	r1, [pc, #96]	; (4a3c <vTaskSwitchContext+0xe4>)
    49da:	188a      	adds	r2, r1, r2
    49dc:	6852      	ldr	r2, [r2, #4]
    49de:	68d1      	ldr	r1, [r2, #12]
    49e0:	4a13      	ldr	r2, [pc, #76]	; (4a30 <vTaskSwitchContext+0xd8>)
    49e2:	6011      	str	r1, [r2, #0]
    49e4:	4a14      	ldr	r2, [pc, #80]	; (4a38 <vTaskSwitchContext+0xe0>)
    49e6:	6013      	str	r3, [r2, #0]
		traceTASK_SWITCHED_IN();
    49e8:	2201      	movs	r2, #1
    49ea:	4b15      	ldr	r3, [pc, #84]	; (4a40 <vTaskSwitchContext+0xe8>)
    49ec:	601a      	str	r2, [r3, #0]
    49ee:	4b15      	ldr	r3, [pc, #84]	; (4a44 <vTaskSwitchContext+0xec>)
    49f0:	4798      	blx	r3
    49f2:	4b15      	ldr	r3, [pc, #84]	; (4a48 <vTaskSwitchContext+0xf0>)
    49f4:	4798      	blx	r3
    49f6:	4b15      	ldr	r3, [pc, #84]	; (4a4c <vTaskSwitchContext+0xf4>)
    49f8:	881b      	ldrh	r3, [r3, #0]
    49fa:	4203      	tst	r3, r0
    49fc:	d10b      	bne.n	4a16 <vTaskSwitchContext+0xbe>
    49fe:	2202      	movs	r2, #2
    4a00:	4b0f      	ldr	r3, [pc, #60]	; (4a40 <vTaskSwitchContext+0xe8>)
    4a02:	601a      	str	r2, [r3, #0]
}
    4a04:	e7d6      	b.n	49b4 <vTaskSwitchContext+0x5c>
		taskSELECT_HIGHEST_PRIORITY_TASK();
    4a06:	6860      	ldr	r0, [r4, #4]
    4a08:	009a      	lsls	r2, r3, #2
    4a0a:	18d2      	adds	r2, r2, r3
    4a0c:	0092      	lsls	r2, r2, #2
    4a0e:	490b      	ldr	r1, [pc, #44]	; (4a3c <vTaskSwitchContext+0xe4>)
    4a10:	188a      	adds	r2, r1, r2
    4a12:	6050      	str	r0, [r2, #4]
    4a14:	e7dd      	b.n	49d2 <vTaskSwitchContext+0x7a>
		traceTASK_SWITCHED_IN();
    4a16:	4b0b      	ldr	r3, [pc, #44]	; (4a44 <vTaskSwitchContext+0xec>)
    4a18:	4798      	blx	r3
    4a1a:	4b0d      	ldr	r3, [pc, #52]	; (4a50 <vTaskSwitchContext+0xf8>)
    4a1c:	4798      	blx	r3
    4a1e:	b2c0      	uxtb	r0, r0
    4a20:	4b0c      	ldr	r3, [pc, #48]	; (4a54 <vTaskSwitchContext+0xfc>)
    4a22:	4798      	blx	r3
    4a24:	e7eb      	b.n	49fe <vTaskSwitchContext+0xa6>
    4a26:	46c0      	nop			; (mov r8, r8)
    4a28:	2000374c 	.word	0x2000374c
    4a2c:	200037d0 	.word	0x200037d0
    4a30:	200036d0 	.word	0x200036d0
    4a34:	00006eed 	.word	0x00006eed
    4a38:	20003754 	.word	0x20003754
    4a3c:	200036dc 	.word	0x200036dc
    4a40:	200003f4 	.word	0x200003f4
    4a44:	00001cc9 	.word	0x00001cc9
    4a48:	00001c11 	.word	0x00001c11
    4a4c:	20000020 	.word	0x20000020
    4a50:	00001c01 	.word	0x00001c01
    4a54:	00002b45 	.word	0x00002b45

00004a58 <vTaskSuspend>:
	{
    4a58:	b570      	push	{r4, r5, r6, lr}
    4a5a:	0005      	movs	r5, r0
		taskENTER_CRITICAL();
    4a5c:	4b33      	ldr	r3, [pc, #204]	; (4b2c <vTaskSuspend+0xd4>)
    4a5e:	4798      	blx	r3
			pxTCB = prvGetTCBFromHandle( xTaskToSuspend );
    4a60:	1e2c      	subs	r4, r5, #0
    4a62:	d02b      	beq.n	4abc <vTaskSuspend+0x64>
			traceTASK_SUSPEND( pxTCB );
    4a64:	4b32      	ldr	r3, [pc, #200]	; (4b30 <vTaskSuspend+0xd8>)
    4a66:	4798      	blx	r3
    4a68:	4b32      	ldr	r3, [pc, #200]	; (4b34 <vTaskSuspend+0xdc>)
    4a6a:	4798      	blx	r3
    4a6c:	4b32      	ldr	r3, [pc, #200]	; (4b38 <vTaskSuspend+0xe0>)
    4a6e:	881b      	ldrh	r3, [r3, #0]
    4a70:	4203      	tst	r3, r0
    4a72:	d126      	bne.n	4ac2 <vTaskSuspend+0x6a>
    4a74:	0020      	movs	r0, r4
    4a76:	4b31      	ldr	r3, [pc, #196]	; (4b3c <vTaskSuspend+0xe4>)
    4a78:	4798      	blx	r3
    4a7a:	b2c0      	uxtb	r0, r0
    4a7c:	4b30      	ldr	r3, [pc, #192]	; (4b40 <vTaskSuspend+0xe8>)
    4a7e:	4798      	blx	r3
			if( uxListRemove( &( pxTCB->xStateListItem ) ) == ( UBaseType_t ) 0 )
    4a80:	1d25      	adds	r5, r4, #4
    4a82:	0028      	movs	r0, r5
    4a84:	4b2f      	ldr	r3, [pc, #188]	; (4b44 <vTaskSuspend+0xec>)
    4a86:	4798      	blx	r3
			if( listLIST_ITEM_CONTAINER( &( pxTCB->xEventListItem ) ) != NULL )
    4a88:	6aa3      	ldr	r3, [r4, #40]	; 0x28
    4a8a:	2b00      	cmp	r3, #0
    4a8c:	d003      	beq.n	4a96 <vTaskSuspend+0x3e>
				( void ) uxListRemove( &( pxTCB->xEventListItem ) );
    4a8e:	0020      	movs	r0, r4
    4a90:	3018      	adds	r0, #24
    4a92:	4b2c      	ldr	r3, [pc, #176]	; (4b44 <vTaskSuspend+0xec>)
    4a94:	4798      	blx	r3
			vListInsertEnd( &xSuspendedTaskList, &( pxTCB->xStateListItem ) );
    4a96:	0029      	movs	r1, r5
    4a98:	482b      	ldr	r0, [pc, #172]	; (4b48 <vTaskSuspend+0xf0>)
    4a9a:	4b2c      	ldr	r3, [pc, #176]	; (4b4c <vTaskSuspend+0xf4>)
    4a9c:	4798      	blx	r3
				if( pxTCB->ucNotifyState == taskWAITING_NOTIFICATION )
    4a9e:	2350      	movs	r3, #80	; 0x50
    4aa0:	5ce3      	ldrb	r3, [r4, r3]
    4aa2:	2b01      	cmp	r3, #1
    4aa4:	d01d      	beq.n	4ae2 <vTaskSuspend+0x8a>
		taskEXIT_CRITICAL();
    4aa6:	4b2a      	ldr	r3, [pc, #168]	; (4b50 <vTaskSuspend+0xf8>)
    4aa8:	4798      	blx	r3
		if( xSchedulerRunning != pdFALSE )
    4aaa:	4b2a      	ldr	r3, [pc, #168]	; (4b54 <vTaskSuspend+0xfc>)
    4aac:	681b      	ldr	r3, [r3, #0]
    4aae:	2b00      	cmp	r3, #0
    4ab0:	d11b      	bne.n	4aea <vTaskSuspend+0x92>
		if( pxTCB == pxCurrentTCB )
    4ab2:	4b29      	ldr	r3, [pc, #164]	; (4b58 <vTaskSuspend+0x100>)
    4ab4:	681b      	ldr	r3, [r3, #0]
    4ab6:	429c      	cmp	r4, r3
    4ab8:	d01e      	beq.n	4af8 <vTaskSuspend+0xa0>
	}
    4aba:	bd70      	pop	{r4, r5, r6, pc}
			pxTCB = prvGetTCBFromHandle( xTaskToSuspend );
    4abc:	4b26      	ldr	r3, [pc, #152]	; (4b58 <vTaskSuspend+0x100>)
    4abe:	681c      	ldr	r4, [r3, #0]
    4ac0:	e7d0      	b.n	4a64 <vTaskSuspend+0xc>
			traceTASK_SUSPEND( pxTCB );
    4ac2:	0020      	movs	r0, r4
    4ac4:	4b1b      	ldr	r3, [pc, #108]	; (4b34 <vTaskSuspend+0xdc>)
    4ac6:	4798      	blx	r3
    4ac8:	4b1b      	ldr	r3, [pc, #108]	; (4b38 <vTaskSuspend+0xe0>)
    4aca:	881b      	ldrh	r3, [r3, #0]
    4acc:	4203      	tst	r3, r0
    4ace:	d0d1      	beq.n	4a74 <vTaskSuspend+0x1c>
    4ad0:	0020      	movs	r0, r4
    4ad2:	4b1a      	ldr	r3, [pc, #104]	; (4b3c <vTaskSuspend+0xe4>)
    4ad4:	4798      	blx	r3
    4ad6:	b2c2      	uxtb	r2, r0
    4ad8:	2103      	movs	r1, #3
    4ada:	208a      	movs	r0, #138	; 0x8a
    4adc:	4b1f      	ldr	r3, [pc, #124]	; (4b5c <vTaskSuspend+0x104>)
    4ade:	4798      	blx	r3
    4ae0:	e7c8      	b.n	4a74 <vTaskSuspend+0x1c>
					pxTCB->ucNotifyState = taskNOT_WAITING_NOTIFICATION;
    4ae2:	2200      	movs	r2, #0
    4ae4:	334f      	adds	r3, #79	; 0x4f
    4ae6:	54e2      	strb	r2, [r4, r3]
    4ae8:	e7dd      	b.n	4aa6 <vTaskSuspend+0x4e>
			taskENTER_CRITICAL();
    4aea:	4b10      	ldr	r3, [pc, #64]	; (4b2c <vTaskSuspend+0xd4>)
    4aec:	4798      	blx	r3
				prvResetNextTaskUnblockTime();
    4aee:	4b1c      	ldr	r3, [pc, #112]	; (4b60 <vTaskSuspend+0x108>)
    4af0:	4798      	blx	r3
			taskEXIT_CRITICAL();
    4af2:	4b17      	ldr	r3, [pc, #92]	; (4b50 <vTaskSuspend+0xf8>)
    4af4:	4798      	blx	r3
    4af6:	e7dc      	b.n	4ab2 <vTaskSuspend+0x5a>
			if( xSchedulerRunning != pdFALSE )
    4af8:	4b16      	ldr	r3, [pc, #88]	; (4b54 <vTaskSuspend+0xfc>)
    4afa:	681b      	ldr	r3, [r3, #0]
    4afc:	2b00      	cmp	r3, #0
    4afe:	d008      	beq.n	4b12 <vTaskSuspend+0xba>
				configASSERT( uxSchedulerSuspended == 0 );
    4b00:	4b18      	ldr	r3, [pc, #96]	; (4b64 <vTaskSuspend+0x10c>)
    4b02:	681b      	ldr	r3, [r3, #0]
    4b04:	2b00      	cmp	r3, #0
    4b06:	d001      	beq.n	4b0c <vTaskSuspend+0xb4>
    4b08:	b672      	cpsid	i
    4b0a:	e7fe      	b.n	4b0a <vTaskSuspend+0xb2>
				portYIELD_WITHIN_API();
    4b0c:	4b16      	ldr	r3, [pc, #88]	; (4b68 <vTaskSuspend+0x110>)
    4b0e:	4798      	blx	r3
    4b10:	e7d3      	b.n	4aba <vTaskSuspend+0x62>
				if( listCURRENT_LIST_LENGTH( &xSuspendedTaskList ) == uxCurrentNumberOfTasks )
    4b12:	4b0d      	ldr	r3, [pc, #52]	; (4b48 <vTaskSuspend+0xf0>)
    4b14:	681a      	ldr	r2, [r3, #0]
    4b16:	4b15      	ldr	r3, [pc, #84]	; (4b6c <vTaskSuspend+0x114>)
    4b18:	681b      	ldr	r3, [r3, #0]
    4b1a:	429a      	cmp	r2, r3
    4b1c:	d002      	beq.n	4b24 <vTaskSuspend+0xcc>
					vTaskSwitchContext();
    4b1e:	4b14      	ldr	r3, [pc, #80]	; (4b70 <vTaskSuspend+0x118>)
    4b20:	4798      	blx	r3
	}
    4b22:	e7ca      	b.n	4aba <vTaskSuspend+0x62>
					pxCurrentTCB = NULL;
    4b24:	2200      	movs	r2, #0
    4b26:	4b0c      	ldr	r3, [pc, #48]	; (4b58 <vTaskSuspend+0x100>)
    4b28:	601a      	str	r2, [r3, #0]
    4b2a:	e7c6      	b.n	4aba <vTaskSuspend+0x62>
    4b2c:	00002e81 	.word	0x00002e81
    4b30:	00001cc9 	.word	0x00001cc9
    4b34:	00001c11 	.word	0x00001c11
    4b38:	20000020 	.word	0x20000020
    4b3c:	00001c01 	.word	0x00001c01
    4b40:	0000242d 	.word	0x0000242d
    4b44:	00002d47 	.word	0x00002d47
    4b48:	200037a4 	.word	0x200037a4
    4b4c:	00002d01 	.word	0x00002d01
    4b50:	00002e99 	.word	0x00002e99
    4b54:	200037a0 	.word	0x200037a0
    4b58:	200036d0 	.word	0x200036d0
    4b5c:	00002901 	.word	0x00002901
    4b60:	0000419d 	.word	0x0000419d
    4b64:	2000374c 	.word	0x2000374c
    4b68:	00002e71 	.word	0x00002e71
    4b6c:	20003740 	.word	0x20003740
    4b70:	00004959 	.word	0x00004959

00004b74 <vTaskPlaceOnEventList>:
{
    4b74:	b510      	push	{r4, lr}
    4b76:	000c      	movs	r4, r1
	configASSERT( pxEventList );
    4b78:	2800      	cmp	r0, #0
    4b7a:	d101      	bne.n	4b80 <vTaskPlaceOnEventList+0xc>
    4b7c:	b672      	cpsid	i
    4b7e:	e7fe      	b.n	4b7e <vTaskPlaceOnEventList+0xa>
	vListInsert( pxEventList, &( pxCurrentTCB->xEventListItem ) );
    4b80:	4b04      	ldr	r3, [pc, #16]	; (4b94 <vTaskPlaceOnEventList+0x20>)
    4b82:	6819      	ldr	r1, [r3, #0]
    4b84:	3118      	adds	r1, #24
    4b86:	4b04      	ldr	r3, [pc, #16]	; (4b98 <vTaskPlaceOnEventList+0x24>)
    4b88:	4798      	blx	r3
	prvAddCurrentTaskToDelayedList( xTicksToWait, pdTRUE );
    4b8a:	2101      	movs	r1, #1
    4b8c:	0020      	movs	r0, r4
    4b8e:	4b03      	ldr	r3, [pc, #12]	; (4b9c <vTaskPlaceOnEventList+0x28>)
    4b90:	4798      	blx	r3
}
    4b92:	bd10      	pop	{r4, pc}
    4b94:	200036d0 	.word	0x200036d0
    4b98:	00002d19 	.word	0x00002d19
    4b9c:	00004249 	.word	0x00004249

00004ba0 <vTaskPlaceOnEventListRestricted>:
	{
    4ba0:	b570      	push	{r4, r5, r6, lr}
    4ba2:	000c      	movs	r4, r1
    4ba4:	0015      	movs	r5, r2
		configASSERT( pxEventList );
    4ba6:	2800      	cmp	r0, #0
    4ba8:	d031      	beq.n	4c0e <vTaskPlaceOnEventListRestricted+0x6e>
		vListInsertEnd( pxEventList, &( pxCurrentTCB->xEventListItem ) );
    4baa:	4b1a      	ldr	r3, [pc, #104]	; (4c14 <vTaskPlaceOnEventListRestricted+0x74>)
    4bac:	6819      	ldr	r1, [r3, #0]
    4bae:	3118      	adds	r1, #24
    4bb0:	4b19      	ldr	r3, [pc, #100]	; (4c18 <vTaskPlaceOnEventListRestricted+0x78>)
    4bb2:	4798      	blx	r3
		if( xWaitIndefinitely != pdFALSE )
    4bb4:	2d00      	cmp	r5, #0
    4bb6:	d001      	beq.n	4bbc <vTaskPlaceOnEventListRestricted+0x1c>
			xTicksToWait = portMAX_DELAY;
    4bb8:	2401      	movs	r4, #1
    4bba:	4264      	negs	r4, r4
		traceTASK_DELAY_UNTIL( ( xTickCount + xTicksToWait ) );
    4bbc:	4b15      	ldr	r3, [pc, #84]	; (4c14 <vTaskPlaceOnEventListRestricted+0x74>)
    4bbe:	6818      	ldr	r0, [r3, #0]
    4bc0:	4b16      	ldr	r3, [pc, #88]	; (4c1c <vTaskPlaceOnEventListRestricted+0x7c>)
    4bc2:	4798      	blx	r3
    4bc4:	4b16      	ldr	r3, [pc, #88]	; (4c20 <vTaskPlaceOnEventListRestricted+0x80>)
    4bc6:	881b      	ldrh	r3, [r3, #0]
    4bc8:	4203      	tst	r3, r0
    4bca:	d00c      	beq.n	4be6 <vTaskPlaceOnEventListRestricted+0x46>
    4bcc:	4b15      	ldr	r3, [pc, #84]	; (4c24 <vTaskPlaceOnEventListRestricted+0x84>)
    4bce:	6819      	ldr	r1, [r3, #0]
    4bd0:	1861      	adds	r1, r4, r1
    4bd2:	2088      	movs	r0, #136	; 0x88
    4bd4:	4b14      	ldr	r3, [pc, #80]	; (4c28 <vTaskPlaceOnEventListRestricted+0x88>)
    4bd6:	4798      	blx	r3
    4bd8:	4b0e      	ldr	r3, [pc, #56]	; (4c14 <vTaskPlaceOnEventListRestricted+0x74>)
    4bda:	6818      	ldr	r0, [r3, #0]
    4bdc:	4b13      	ldr	r3, [pc, #76]	; (4c2c <vTaskPlaceOnEventListRestricted+0x8c>)
    4bde:	4798      	blx	r3
    4be0:	b2c0      	uxtb	r0, r0
    4be2:	4b13      	ldr	r3, [pc, #76]	; (4c30 <vTaskPlaceOnEventListRestricted+0x90>)
    4be4:	4798      	blx	r3
    4be6:	4b13      	ldr	r3, [pc, #76]	; (4c34 <vTaskPlaceOnEventListRestricted+0x94>)
    4be8:	4798      	blx	r3
    4bea:	4b0c      	ldr	r3, [pc, #48]	; (4c1c <vTaskPlaceOnEventListRestricted+0x7c>)
    4bec:	4798      	blx	r3
    4bee:	4b0c      	ldr	r3, [pc, #48]	; (4c20 <vTaskPlaceOnEventListRestricted+0x80>)
    4bf0:	881b      	ldrh	r3, [r3, #0]
    4bf2:	4203      	tst	r3, r0
    4bf4:	d006      	beq.n	4c04 <vTaskPlaceOnEventListRestricted+0x64>
    4bf6:	4b0f      	ldr	r3, [pc, #60]	; (4c34 <vTaskPlaceOnEventListRestricted+0x94>)
    4bf8:	4798      	blx	r3
    4bfa:	4b0c      	ldr	r3, [pc, #48]	; (4c2c <vTaskPlaceOnEventListRestricted+0x8c>)
    4bfc:	4798      	blx	r3
    4bfe:	b2c0      	uxtb	r0, r0
    4c00:	4b0b      	ldr	r3, [pc, #44]	; (4c30 <vTaskPlaceOnEventListRestricted+0x90>)
    4c02:	4798      	blx	r3
		prvAddCurrentTaskToDelayedList( xTicksToWait, xWaitIndefinitely );
    4c04:	0029      	movs	r1, r5
    4c06:	0020      	movs	r0, r4
    4c08:	4b0b      	ldr	r3, [pc, #44]	; (4c38 <vTaskPlaceOnEventListRestricted+0x98>)
    4c0a:	4798      	blx	r3
	}
    4c0c:	bd70      	pop	{r4, r5, r6, pc}
		configASSERT( pxEventList );
    4c0e:	b672      	cpsid	i
    4c10:	e7fe      	b.n	4c10 <vTaskPlaceOnEventListRestricted+0x70>
    4c12:	46c0      	nop			; (mov r8, r8)
    4c14:	200036d0 	.word	0x200036d0
    4c18:	00002d01 	.word	0x00002d01
    4c1c:	00001c11 	.word	0x00001c11
    4c20:	20000020 	.word	0x20000020
    4c24:	200037cc 	.word	0x200037cc
    4c28:	00002a9d 	.word	0x00002a9d
    4c2c:	00001c01 	.word	0x00001c01
    4c30:	0000242d 	.word	0x0000242d
    4c34:	00001cc9 	.word	0x00001cc9
    4c38:	00004249 	.word	0x00004249

00004c3c <xTaskRemoveFromEventList>:
{
    4c3c:	b570      	push	{r4, r5, r6, lr}
	pxUnblockedTCB = ( TCB_t * ) listGET_OWNER_OF_HEAD_ENTRY( pxEventList );
    4c3e:	68c3      	ldr	r3, [r0, #12]
    4c40:	68dc      	ldr	r4, [r3, #12]
	configASSERT( pxUnblockedTCB );
    4c42:	2c00      	cmp	r4, #0
    4c44:	d02e      	beq.n	4ca4 <xTaskRemoveFromEventList+0x68>
	( void ) uxListRemove( &( pxUnblockedTCB->xEventListItem ) );
    4c46:	0025      	movs	r5, r4
    4c48:	3518      	adds	r5, #24
    4c4a:	0028      	movs	r0, r5
    4c4c:	4b1c      	ldr	r3, [pc, #112]	; (4cc0 <xTaskRemoveFromEventList+0x84>)
    4c4e:	4798      	blx	r3
	if( uxSchedulerSuspended == ( UBaseType_t ) pdFALSE )
    4c50:	4b1c      	ldr	r3, [pc, #112]	; (4cc4 <xTaskRemoveFromEventList+0x88>)
    4c52:	681b      	ldr	r3, [r3, #0]
    4c54:	2b00      	cmp	r3, #0
    4c56:	d12e      	bne.n	4cb6 <xTaskRemoveFromEventList+0x7a>
		( void ) uxListRemove( &( pxUnblockedTCB->xStateListItem ) );
    4c58:	1d25      	adds	r5, r4, #4
    4c5a:	0028      	movs	r0, r5
    4c5c:	4b18      	ldr	r3, [pc, #96]	; (4cc0 <xTaskRemoveFromEventList+0x84>)
    4c5e:	4798      	blx	r3
		prvAddTaskToReadyList( pxUnblockedTCB );
    4c60:	0020      	movs	r0, r4
    4c62:	4b19      	ldr	r3, [pc, #100]	; (4cc8 <xTaskRemoveFromEventList+0x8c>)
    4c64:	4798      	blx	r3
    4c66:	4b19      	ldr	r3, [pc, #100]	; (4ccc <xTaskRemoveFromEventList+0x90>)
    4c68:	881b      	ldrh	r3, [r3, #0]
    4c6a:	4203      	tst	r3, r0
    4c6c:	d11c      	bne.n	4ca8 <xTaskRemoveFromEventList+0x6c>
    4c6e:	6ae3      	ldr	r3, [r4, #44]	; 0x2c
    4c70:	4a17      	ldr	r2, [pc, #92]	; (4cd0 <xTaskRemoveFromEventList+0x94>)
    4c72:	6812      	ldr	r2, [r2, #0]
    4c74:	4293      	cmp	r3, r2
    4c76:	d901      	bls.n	4c7c <xTaskRemoveFromEventList+0x40>
    4c78:	4a15      	ldr	r2, [pc, #84]	; (4cd0 <xTaskRemoveFromEventList+0x94>)
    4c7a:	6013      	str	r3, [r2, #0]
    4c7c:	0098      	lsls	r0, r3, #2
    4c7e:	18c0      	adds	r0, r0, r3
    4c80:	0080      	lsls	r0, r0, #2
    4c82:	4b14      	ldr	r3, [pc, #80]	; (4cd4 <xTaskRemoveFromEventList+0x98>)
    4c84:	1818      	adds	r0, r3, r0
    4c86:	0029      	movs	r1, r5
    4c88:	4b13      	ldr	r3, [pc, #76]	; (4cd8 <xTaskRemoveFromEventList+0x9c>)
    4c8a:	4798      	blx	r3
	if( pxUnblockedTCB->uxPriority > pxCurrentTCB->uxPriority )
    4c8c:	4b13      	ldr	r3, [pc, #76]	; (4cdc <xTaskRemoveFromEventList+0xa0>)
    4c8e:	681b      	ldr	r3, [r3, #0]
    4c90:	6ae2      	ldr	r2, [r4, #44]	; 0x2c
    4c92:	6adb      	ldr	r3, [r3, #44]	; 0x2c
		xReturn = pdFALSE;
    4c94:	2000      	movs	r0, #0
	if( pxUnblockedTCB->uxPriority > pxCurrentTCB->uxPriority )
    4c96:	429a      	cmp	r2, r3
    4c98:	d903      	bls.n	4ca2 <xTaskRemoveFromEventList+0x66>
		xYieldPending = pdTRUE;
    4c9a:	2201      	movs	r2, #1
    4c9c:	4b10      	ldr	r3, [pc, #64]	; (4ce0 <xTaskRemoveFromEventList+0xa4>)
    4c9e:	601a      	str	r2, [r3, #0]
		xReturn = pdTRUE;
    4ca0:	3001      	adds	r0, #1
}
    4ca2:	bd70      	pop	{r4, r5, r6, pc}
	configASSERT( pxUnblockedTCB );
    4ca4:	b672      	cpsid	i
    4ca6:	e7fe      	b.n	4ca6 <xTaskRemoveFromEventList+0x6a>
		prvAddTaskToReadyList( pxUnblockedTCB );
    4ca8:	0020      	movs	r0, r4
    4caa:	4b0e      	ldr	r3, [pc, #56]	; (4ce4 <xTaskRemoveFromEventList+0xa8>)
    4cac:	4798      	blx	r3
    4cae:	b2c0      	uxtb	r0, r0
    4cb0:	4b0d      	ldr	r3, [pc, #52]	; (4ce8 <xTaskRemoveFromEventList+0xac>)
    4cb2:	4798      	blx	r3
    4cb4:	e7db      	b.n	4c6e <xTaskRemoveFromEventList+0x32>
		vListInsertEnd( &( xPendingReadyList ), &( pxUnblockedTCB->xEventListItem ) );
    4cb6:	0029      	movs	r1, r5
    4cb8:	480c      	ldr	r0, [pc, #48]	; (4cec <xTaskRemoveFromEventList+0xb0>)
    4cba:	4b07      	ldr	r3, [pc, #28]	; (4cd8 <xTaskRemoveFromEventList+0x9c>)
    4cbc:	4798      	blx	r3
    4cbe:	e7e5      	b.n	4c8c <xTaskRemoveFromEventList+0x50>
    4cc0:	00002d47 	.word	0x00002d47
    4cc4:	2000374c 	.word	0x2000374c
    4cc8:	00001c11 	.word	0x00001c11
    4ccc:	20000020 	.word	0x20000020
    4cd0:	20003754 	.word	0x20003754
    4cd4:	200036dc 	.word	0x200036dc
    4cd8:	00002d01 	.word	0x00002d01
    4cdc:	200036d0 	.word	0x200036d0
    4ce0:	200037d0 	.word	0x200037d0
    4ce4:	00001c01 	.word	0x00001c01
    4ce8:	00002799 	.word	0x00002799
    4cec:	2000378c 	.word	0x2000378c

00004cf0 <vTaskInternalSetTimeOutState>:
	pxTimeOut->xOverflowCount = xNumOfOverflows;
    4cf0:	4b03      	ldr	r3, [pc, #12]	; (4d00 <vTaskInternalSetTimeOutState+0x10>)
    4cf2:	681b      	ldr	r3, [r3, #0]
    4cf4:	6003      	str	r3, [r0, #0]
	pxTimeOut->xTimeOnEntering = xTickCount;
    4cf6:	4b03      	ldr	r3, [pc, #12]	; (4d04 <vTaskInternalSetTimeOutState+0x14>)
    4cf8:	681b      	ldr	r3, [r3, #0]
    4cfa:	6043      	str	r3, [r0, #4]
}
    4cfc:	4770      	bx	lr
    4cfe:	46c0      	nop			; (mov r8, r8)
    4d00:	20003788 	.word	0x20003788
    4d04:	200037cc 	.word	0x200037cc

00004d08 <xTaskCheckForTimeOut>:
{
    4d08:	b570      	push	{r4, r5, r6, lr}
    4d0a:	0006      	movs	r6, r0
    4d0c:	000d      	movs	r5, r1
	configASSERT( pxTimeOut );
    4d0e:	2800      	cmp	r0, #0
    4d10:	d01b      	beq.n	4d4a <xTaskCheckForTimeOut+0x42>
	configASSERT( pxTicksToWait );
    4d12:	2900      	cmp	r1, #0
    4d14:	d01b      	beq.n	4d4e <xTaskCheckForTimeOut+0x46>
	taskENTER_CRITICAL();
    4d16:	4b13      	ldr	r3, [pc, #76]	; (4d64 <xTaskCheckForTimeOut+0x5c>)
    4d18:	4798      	blx	r3
		const TickType_t xConstTickCount = xTickCount;
    4d1a:	4b13      	ldr	r3, [pc, #76]	; (4d68 <xTaskCheckForTimeOut+0x60>)
    4d1c:	681a      	ldr	r2, [r3, #0]
		const TickType_t xElapsedTime = xConstTickCount - pxTimeOut->xTimeOnEntering;
    4d1e:	6871      	ldr	r1, [r6, #4]
			if( *pxTicksToWait == portMAX_DELAY )
    4d20:	682b      	ldr	r3, [r5, #0]
    4d22:	1c58      	adds	r0, r3, #1
    4d24:	d01c      	beq.n	4d60 <xTaskCheckForTimeOut+0x58>
		if( ( xNumOfOverflows != pxTimeOut->xOverflowCount ) && ( xConstTickCount >= pxTimeOut->xTimeOnEntering ) ) /*lint !e525 Indentation preferred as is to make code within pre-processor directives clearer. */
    4d26:	4811      	ldr	r0, [pc, #68]	; (4d6c <xTaskCheckForTimeOut+0x64>)
    4d28:	6800      	ldr	r0, [r0, #0]
    4d2a:	6834      	ldr	r4, [r6, #0]
    4d2c:	4284      	cmp	r4, r0
    4d2e:	d002      	beq.n	4d36 <xTaskCheckForTimeOut+0x2e>
			xReturn = pdTRUE;
    4d30:	2401      	movs	r4, #1
		if( ( xNumOfOverflows != pxTimeOut->xOverflowCount ) && ( xConstTickCount >= pxTimeOut->xTimeOnEntering ) ) /*lint !e525 Indentation preferred as is to make code within pre-processor directives clearer. */
    4d32:	428a      	cmp	r2, r1
    4d34:	d205      	bcs.n	4d42 <xTaskCheckForTimeOut+0x3a>
		const TickType_t xElapsedTime = xConstTickCount - pxTimeOut->xTimeOnEntering;
    4d36:	1a52      	subs	r2, r2, r1
		else if( xElapsedTime < *pxTicksToWait ) /*lint !e961 Explicit casting is only redundant with some compilers, whereas others require it to prevent integer conversion errors. */
    4d38:	429a      	cmp	r2, r3
    4d3a:	d30a      	bcc.n	4d52 <xTaskCheckForTimeOut+0x4a>
			*pxTicksToWait = 0;
    4d3c:	2300      	movs	r3, #0
    4d3e:	602b      	str	r3, [r5, #0]
			xReturn = pdTRUE;
    4d40:	2401      	movs	r4, #1
	taskEXIT_CRITICAL();
    4d42:	4b0b      	ldr	r3, [pc, #44]	; (4d70 <xTaskCheckForTimeOut+0x68>)
    4d44:	4798      	blx	r3
}
    4d46:	0020      	movs	r0, r4
    4d48:	bd70      	pop	{r4, r5, r6, pc}
	configASSERT( pxTimeOut );
    4d4a:	b672      	cpsid	i
    4d4c:	e7fe      	b.n	4d4c <xTaskCheckForTimeOut+0x44>
	configASSERT( pxTicksToWait );
    4d4e:	b672      	cpsid	i
    4d50:	e7fe      	b.n	4d50 <xTaskCheckForTimeOut+0x48>
			*pxTicksToWait -= xElapsedTime;
    4d52:	1a9b      	subs	r3, r3, r2
    4d54:	602b      	str	r3, [r5, #0]
			vTaskInternalSetTimeOutState( pxTimeOut );
    4d56:	0030      	movs	r0, r6
    4d58:	4b06      	ldr	r3, [pc, #24]	; (4d74 <xTaskCheckForTimeOut+0x6c>)
    4d5a:	4798      	blx	r3
			xReturn = pdFALSE;
    4d5c:	2400      	movs	r4, #0
    4d5e:	e7f0      	b.n	4d42 <xTaskCheckForTimeOut+0x3a>
				xReturn = pdFALSE;
    4d60:	2400      	movs	r4, #0
    4d62:	e7ee      	b.n	4d42 <xTaskCheckForTimeOut+0x3a>
    4d64:	00002e81 	.word	0x00002e81
    4d68:	200037cc 	.word	0x200037cc
    4d6c:	20003788 	.word	0x20003788
    4d70:	00002e99 	.word	0x00002e99
    4d74:	00004cf1 	.word	0x00004cf1

00004d78 <vTaskMissedYield>:
	xYieldPending = pdTRUE;
    4d78:	2201      	movs	r2, #1
    4d7a:	4b01      	ldr	r3, [pc, #4]	; (4d80 <vTaskMissedYield+0x8>)
    4d7c:	601a      	str	r2, [r3, #0]
}
    4d7e:	4770      	bx	lr
    4d80:	200037d0 	.word	0x200037d0

00004d84 <uxTaskGetTaskNumber>:
		if( xTask != NULL )
    4d84:	2800      	cmp	r0, #0
    4d86:	d001      	beq.n	4d8c <uxTaskGetTaskNumber+0x8>
			uxReturn = pxTCB->uxTaskNumber;
    4d88:	6c00      	ldr	r0, [r0, #64]	; 0x40
	}
    4d8a:	4770      	bx	lr
			uxReturn = 0U;
    4d8c:	2000      	movs	r0, #0
		return uxReturn;
    4d8e:	e7fc      	b.n	4d8a <uxTaskGetTaskNumber+0x6>

00004d90 <vTaskSetTaskNumber>:
		if( xTask != NULL )
    4d90:	2800      	cmp	r0, #0
    4d92:	d000      	beq.n	4d96 <vTaskSetTaskNumber+0x6>
			pxTCB->uxTaskNumber = uxHandle;
    4d94:	6401      	str	r1, [r0, #64]	; 0x40
	}
    4d96:	4770      	bx	lr

00004d98 <xTaskGetCurrentTaskHandle>:
		xReturn = pxCurrentTCB;
    4d98:	4b01      	ldr	r3, [pc, #4]	; (4da0 <xTaskGetCurrentTaskHandle+0x8>)
    4d9a:	6818      	ldr	r0, [r3, #0]
	}
    4d9c:	4770      	bx	lr
    4d9e:	46c0      	nop			; (mov r8, r8)
    4da0:	200036d0 	.word	0x200036d0

00004da4 <xTaskGetSchedulerState>:
		if( xSchedulerRunning == pdFALSE )
    4da4:	4b05      	ldr	r3, [pc, #20]	; (4dbc <xTaskGetSchedulerState+0x18>)
    4da6:	681b      	ldr	r3, [r3, #0]
			xReturn = taskSCHEDULER_NOT_STARTED;
    4da8:	2001      	movs	r0, #1
		if( xSchedulerRunning == pdFALSE )
    4daa:	2b00      	cmp	r3, #0
    4dac:	d004      	beq.n	4db8 <xTaskGetSchedulerState+0x14>
			if( uxSchedulerSuspended == ( UBaseType_t ) pdFALSE )
    4dae:	4b04      	ldr	r3, [pc, #16]	; (4dc0 <xTaskGetSchedulerState+0x1c>)
    4db0:	6818      	ldr	r0, [r3, #0]
				xReturn = taskSCHEDULER_SUSPENDED;
    4db2:	4243      	negs	r3, r0
    4db4:	4158      	adcs	r0, r3
    4db6:	0040      	lsls	r0, r0, #1
	}
    4db8:	4770      	bx	lr
    4dba:	46c0      	nop			; (mov r8, r8)
    4dbc:	200037a0 	.word	0x200037a0
    4dc0:	2000374c 	.word	0x2000374c

00004dc4 <xTaskPriorityInherit>:
	{
    4dc4:	b570      	push	{r4, r5, r6, lr}
    4dc6:	1e04      	subs	r4, r0, #0
		if( pxMutexHolder != NULL )
    4dc8:	d100      	bne.n	4dcc <xTaskPriorityInherit+0x8>
    4dca:	e06d      	b.n	4ea8 <xTaskPriorityInherit+0xe4>
			if( pxMutexHolderTCB->uxPriority < pxCurrentTCB->uxPriority )
    4dcc:	6ac2      	ldr	r2, [r0, #44]	; 0x2c
    4dce:	4b37      	ldr	r3, [pc, #220]	; (4eac <xTaskPriorityInherit+0xe8>)
    4dd0:	681b      	ldr	r3, [r3, #0]
    4dd2:	6adb      	ldr	r3, [r3, #44]	; 0x2c
    4dd4:	429a      	cmp	r2, r3
    4dd6:	d25f      	bcs.n	4e98 <xTaskPriorityInherit+0xd4>
				if( ( listGET_LIST_ITEM_VALUE( &( pxMutexHolderTCB->xEventListItem ) ) & taskEVENT_LIST_ITEM_VALUE_IN_USE ) == 0UL )
    4dd8:	6983      	ldr	r3, [r0, #24]
    4dda:	2b00      	cmp	r3, #0
    4ddc:	db05      	blt.n	4dea <xTaskPriorityInherit+0x26>
					listSET_LIST_ITEM_VALUE( &( pxMutexHolderTCB->xEventListItem ), ( TickType_t ) configMAX_PRIORITIES - ( TickType_t ) pxCurrentTCB->uxPriority ); /*lint !e961 MISRA exception as the casts are only redundant for some ports. */
    4dde:	4b33      	ldr	r3, [pc, #204]	; (4eac <xTaskPriorityInherit+0xe8>)
    4de0:	681b      	ldr	r3, [r3, #0]
    4de2:	6ad9      	ldr	r1, [r3, #44]	; 0x2c
    4de4:	2305      	movs	r3, #5
    4de6:	1a5b      	subs	r3, r3, r1
    4de8:	6183      	str	r3, [r0, #24]
				if( listIS_CONTAINED_WITHIN( &( pxReadyTasksLists[ pxMutexHolderTCB->uxPriority ] ), &( pxMutexHolderTCB->xStateListItem ) ) != pdFALSE )
    4dea:	0093      	lsls	r3, r2, #2
    4dec:	189b      	adds	r3, r3, r2
    4dee:	009b      	lsls	r3, r3, #2
    4df0:	4a2f      	ldr	r2, [pc, #188]	; (4eb0 <xTaskPriorityInherit+0xec>)
    4df2:	18d3      	adds	r3, r2, r3
    4df4:	6962      	ldr	r2, [r4, #20]
    4df6:	429a      	cmp	r2, r3
    4df8:	d028      	beq.n	4e4c <xTaskPriorityInherit+0x88>
					pxMutexHolderTCB->uxPriority = pxCurrentTCB->uxPriority;
    4dfa:	4b2c      	ldr	r3, [pc, #176]	; (4eac <xTaskPriorityInherit+0xe8>)
    4dfc:	681b      	ldr	r3, [r3, #0]
    4dfe:	6adb      	ldr	r3, [r3, #44]	; 0x2c
    4e00:	62e3      	str	r3, [r4, #44]	; 0x2c
				traceTASK_PRIORITY_INHERIT( pxMutexHolderTCB, pxCurrentTCB->uxPriority );
    4e02:	0020      	movs	r0, r4
    4e04:	4b2b      	ldr	r3, [pc, #172]	; (4eb4 <xTaskPriorityInherit+0xf0>)
    4e06:	4798      	blx	r3
    4e08:	0003      	movs	r3, r0
    4e0a:	4a2b      	ldr	r2, [pc, #172]	; (4eb8 <xTaskPriorityInherit+0xf4>)
    4e0c:	8812      	ldrh	r2, [r2, #0]
				xReturn = pdTRUE;
    4e0e:	2001      	movs	r0, #1
				traceTASK_PRIORITY_INHERIT( pxMutexHolderTCB, pxCurrentTCB->uxPriority );
    4e10:	421a      	tst	r2, r3
    4e12:	d048      	beq.n	4ea6 <xTaskPriorityInherit+0xe2>
    4e14:	0020      	movs	r0, r4
    4e16:	4d29      	ldr	r5, [pc, #164]	; (4ebc <xTaskPriorityInherit+0xf8>)
    4e18:	47a8      	blx	r5
    4e1a:	0006      	movs	r6, r0
    4e1c:	0020      	movs	r0, r4
    4e1e:	47a8      	blx	r5
    4e20:	b2c1      	uxtb	r1, r0
    4e22:	2003      	movs	r0, #3
    4e24:	4b26      	ldr	r3, [pc, #152]	; (4ec0 <xTaskPriorityInherit+0xfc>)
    4e26:	4798      	blx	r3
    4e28:	0003      	movs	r3, r0
    4e2a:	b2f2      	uxtb	r2, r6
    4e2c:	2103      	movs	r1, #3
    4e2e:	208e      	movs	r0, #142	; 0x8e
    4e30:	4e24      	ldr	r6, [pc, #144]	; (4ec4 <xTaskPriorityInherit+0x100>)
    4e32:	47b0      	blx	r6
    4e34:	0020      	movs	r0, r4
    4e36:	47a8      	blx	r5
    4e38:	4b1c      	ldr	r3, [pc, #112]	; (4eac <xTaskPriorityInherit+0xe8>)
    4e3a:	681b      	ldr	r3, [r3, #0]
    4e3c:	6ada      	ldr	r2, [r3, #44]	; 0x2c
    4e3e:	b2d2      	uxtb	r2, r2
    4e40:	b2c1      	uxtb	r1, r0
    4e42:	2003      	movs	r0, #3
    4e44:	4b20      	ldr	r3, [pc, #128]	; (4ec8 <xTaskPriorityInherit+0x104>)
    4e46:	4798      	blx	r3
				xReturn = pdTRUE;
    4e48:	2001      	movs	r0, #1
    4e4a:	e02c      	b.n	4ea6 <xTaskPriorityInherit+0xe2>
					if( uxListRemove( &( pxMutexHolderTCB->xStateListItem ) ) == ( UBaseType_t ) 0 )
    4e4c:	1d25      	adds	r5, r4, #4
    4e4e:	0028      	movs	r0, r5
    4e50:	4b1e      	ldr	r3, [pc, #120]	; (4ecc <xTaskPriorityInherit+0x108>)
    4e52:	4798      	blx	r3
					pxMutexHolderTCB->uxPriority = pxCurrentTCB->uxPriority;
    4e54:	4b15      	ldr	r3, [pc, #84]	; (4eac <xTaskPriorityInherit+0xe8>)
    4e56:	681b      	ldr	r3, [r3, #0]
    4e58:	6adb      	ldr	r3, [r3, #44]	; 0x2c
    4e5a:	62e3      	str	r3, [r4, #44]	; 0x2c
					prvAddTaskToReadyList( pxMutexHolderTCB );
    4e5c:	0020      	movs	r0, r4
    4e5e:	4b15      	ldr	r3, [pc, #84]	; (4eb4 <xTaskPriorityInherit+0xf0>)
    4e60:	4798      	blx	r3
    4e62:	4b15      	ldr	r3, [pc, #84]	; (4eb8 <xTaskPriorityInherit+0xf4>)
    4e64:	881b      	ldrh	r3, [r3, #0]
    4e66:	4203      	tst	r3, r0
    4e68:	d10f      	bne.n	4e8a <xTaskPriorityInherit+0xc6>
    4e6a:	6ae3      	ldr	r3, [r4, #44]	; 0x2c
    4e6c:	4a18      	ldr	r2, [pc, #96]	; (4ed0 <xTaskPriorityInherit+0x10c>)
    4e6e:	6812      	ldr	r2, [r2, #0]
    4e70:	4293      	cmp	r3, r2
    4e72:	d901      	bls.n	4e78 <xTaskPriorityInherit+0xb4>
    4e74:	4a16      	ldr	r2, [pc, #88]	; (4ed0 <xTaskPriorityInherit+0x10c>)
    4e76:	6013      	str	r3, [r2, #0]
    4e78:	0098      	lsls	r0, r3, #2
    4e7a:	18c0      	adds	r0, r0, r3
    4e7c:	0080      	lsls	r0, r0, #2
    4e7e:	4b0c      	ldr	r3, [pc, #48]	; (4eb0 <xTaskPriorityInherit+0xec>)
    4e80:	1818      	adds	r0, r3, r0
    4e82:	0029      	movs	r1, r5
    4e84:	4b13      	ldr	r3, [pc, #76]	; (4ed4 <xTaskPriorityInherit+0x110>)
    4e86:	4798      	blx	r3
    4e88:	e7bb      	b.n	4e02 <xTaskPriorityInherit+0x3e>
    4e8a:	0020      	movs	r0, r4
    4e8c:	4b0b      	ldr	r3, [pc, #44]	; (4ebc <xTaskPriorityInherit+0xf8>)
    4e8e:	4798      	blx	r3
    4e90:	b2c0      	uxtb	r0, r0
    4e92:	4b11      	ldr	r3, [pc, #68]	; (4ed8 <xTaskPriorityInherit+0x114>)
    4e94:	4798      	blx	r3
    4e96:	e7e8      	b.n	4e6a <xTaskPriorityInherit+0xa6>
				if( pxMutexHolderTCB->uxBasePriority < pxCurrentTCB->uxPriority )
    4e98:	4b04      	ldr	r3, [pc, #16]	; (4eac <xTaskPriorityInherit+0xe8>)
    4e9a:	681b      	ldr	r3, [r3, #0]
    4e9c:	6c40      	ldr	r0, [r0, #68]	; 0x44
    4e9e:	6adb      	ldr	r3, [r3, #44]	; 0x2c
    4ea0:	4298      	cmp	r0, r3
    4ea2:	4180      	sbcs	r0, r0
    4ea4:	4240      	negs	r0, r0
	}
    4ea6:	bd70      	pop	{r4, r5, r6, pc}
	BaseType_t xReturn = pdFALSE;
    4ea8:	2000      	movs	r0, #0
    4eaa:	e7fc      	b.n	4ea6 <xTaskPriorityInherit+0xe2>
    4eac:	200036d0 	.word	0x200036d0
    4eb0:	200036dc 	.word	0x200036dc
    4eb4:	00001c11 	.word	0x00001c11
    4eb8:	20000020 	.word	0x20000020
    4ebc:	00001c01 	.word	0x00001c01
    4ec0:	00002379 	.word	0x00002379
    4ec4:	000029c5 	.word	0x000029c5
    4ec8:	00002321 	.word	0x00002321
    4ecc:	00002d47 	.word	0x00002d47
    4ed0:	20003754 	.word	0x20003754
    4ed4:	00002d01 	.word	0x00002d01
    4ed8:	00002799 	.word	0x00002799

00004edc <xTaskPriorityDisinherit>:
	{
    4edc:	b5f8      	push	{r3, r4, r5, r6, r7, lr}
    4ede:	1e04      	subs	r4, r0, #0
		if( pxMutexHolder != NULL )
    4ee0:	d05a      	beq.n	4f98 <xTaskPriorityDisinherit+0xbc>
			configASSERT( pxTCB == pxCurrentTCB );
    4ee2:	4b2f      	ldr	r3, [pc, #188]	; (4fa0 <xTaskPriorityDisinherit+0xc4>)
    4ee4:	681b      	ldr	r3, [r3, #0]
    4ee6:	4298      	cmp	r0, r3
    4ee8:	d001      	beq.n	4eee <xTaskPriorityDisinherit+0x12>
    4eea:	b672      	cpsid	i
    4eec:	e7fe      	b.n	4eec <xTaskPriorityDisinherit+0x10>
			configASSERT( pxTCB->uxMutexesHeld );
    4eee:	6c83      	ldr	r3, [r0, #72]	; 0x48
    4ef0:	2b00      	cmp	r3, #0
    4ef2:	d101      	bne.n	4ef8 <xTaskPriorityDisinherit+0x1c>
    4ef4:	b672      	cpsid	i
    4ef6:	e7fe      	b.n	4ef6 <xTaskPriorityDisinherit+0x1a>
			( pxTCB->uxMutexesHeld )--;
    4ef8:	3b01      	subs	r3, #1
    4efa:	6483      	str	r3, [r0, #72]	; 0x48
			if( pxTCB->uxPriority != pxTCB->uxBasePriority )
    4efc:	6ac2      	ldr	r2, [r0, #44]	; 0x2c
    4efe:	6c41      	ldr	r1, [r0, #68]	; 0x44
    4f00:	428a      	cmp	r2, r1
    4f02:	d04b      	beq.n	4f9c <xTaskPriorityDisinherit+0xc0>
	BaseType_t xReturn = pdFALSE;
    4f04:	2000      	movs	r0, #0
				if( pxTCB->uxMutexesHeld == ( UBaseType_t ) 0 )
    4f06:	2b00      	cmp	r3, #0
    4f08:	d145      	bne.n	4f96 <xTaskPriorityDisinherit+0xba>
					if( uxListRemove( &( pxTCB->xStateListItem ) ) == ( UBaseType_t ) 0 )
    4f0a:	1d25      	adds	r5, r4, #4
    4f0c:	0028      	movs	r0, r5
    4f0e:	4b25      	ldr	r3, [pc, #148]	; (4fa4 <xTaskPriorityDisinherit+0xc8>)
    4f10:	4798      	blx	r3
					traceTASK_PRIORITY_DISINHERIT( pxTCB, pxTCB->uxBasePriority );
    4f12:	0020      	movs	r0, r4
    4f14:	4b24      	ldr	r3, [pc, #144]	; (4fa8 <xTaskPriorityDisinherit+0xcc>)
    4f16:	4798      	blx	r3
    4f18:	4b24      	ldr	r3, [pc, #144]	; (4fac <xTaskPriorityDisinherit+0xd0>)
    4f1a:	881b      	ldrh	r3, [r3, #0]
    4f1c:	4203      	tst	r3, r0
    4f1e:	d018      	beq.n	4f52 <xTaskPriorityDisinherit+0x76>
    4f20:	0020      	movs	r0, r4
    4f22:	4e23      	ldr	r6, [pc, #140]	; (4fb0 <xTaskPriorityDisinherit+0xd4>)
    4f24:	47b0      	blx	r6
    4f26:	0007      	movs	r7, r0
    4f28:	0020      	movs	r0, r4
    4f2a:	47b0      	blx	r6
    4f2c:	b2c1      	uxtb	r1, r0
    4f2e:	2003      	movs	r0, #3
    4f30:	4b20      	ldr	r3, [pc, #128]	; (4fb4 <xTaskPriorityDisinherit+0xd8>)
    4f32:	4798      	blx	r3
    4f34:	0003      	movs	r3, r0
    4f36:	b2fa      	uxtb	r2, r7
    4f38:	2103      	movs	r1, #3
    4f3a:	208f      	movs	r0, #143	; 0x8f
    4f3c:	4f1e      	ldr	r7, [pc, #120]	; (4fb8 <xTaskPriorityDisinherit+0xdc>)
    4f3e:	47b8      	blx	r7
    4f40:	0020      	movs	r0, r4
    4f42:	47b0      	blx	r6
    4f44:	2344      	movs	r3, #68	; 0x44
    4f46:	18e3      	adds	r3, r4, r3
    4f48:	781a      	ldrb	r2, [r3, #0]
    4f4a:	b2c1      	uxtb	r1, r0
    4f4c:	2003      	movs	r0, #3
    4f4e:	4b1b      	ldr	r3, [pc, #108]	; (4fbc <xTaskPriorityDisinherit+0xe0>)
    4f50:	4798      	blx	r3
					pxTCB->uxPriority = pxTCB->uxBasePriority;
    4f52:	6c62      	ldr	r2, [r4, #68]	; 0x44
    4f54:	62e2      	str	r2, [r4, #44]	; 0x2c
					listSET_LIST_ITEM_VALUE( &( pxTCB->xEventListItem ), ( TickType_t ) configMAX_PRIORITIES - ( TickType_t ) pxTCB->uxPriority ); /*lint !e961 MISRA exception as the casts are only redundant for some ports. */
    4f56:	2305      	movs	r3, #5
    4f58:	1a9b      	subs	r3, r3, r2
    4f5a:	61a3      	str	r3, [r4, #24]
					prvAddTaskToReadyList( pxTCB );
    4f5c:	0020      	movs	r0, r4
    4f5e:	4b12      	ldr	r3, [pc, #72]	; (4fa8 <xTaskPriorityDisinherit+0xcc>)
    4f60:	4798      	blx	r3
    4f62:	4b12      	ldr	r3, [pc, #72]	; (4fac <xTaskPriorityDisinherit+0xd0>)
    4f64:	881b      	ldrh	r3, [r3, #0]
    4f66:	4203      	tst	r3, r0
    4f68:	d005      	beq.n	4f76 <xTaskPriorityDisinherit+0x9a>
    4f6a:	0020      	movs	r0, r4
    4f6c:	4b10      	ldr	r3, [pc, #64]	; (4fb0 <xTaskPriorityDisinherit+0xd4>)
    4f6e:	4798      	blx	r3
    4f70:	b2c0      	uxtb	r0, r0
    4f72:	4b13      	ldr	r3, [pc, #76]	; (4fc0 <xTaskPriorityDisinherit+0xe4>)
    4f74:	4798      	blx	r3
    4f76:	6ae3      	ldr	r3, [r4, #44]	; 0x2c
    4f78:	4a12      	ldr	r2, [pc, #72]	; (4fc4 <xTaskPriorityDisinherit+0xe8>)
    4f7a:	6812      	ldr	r2, [r2, #0]
    4f7c:	4293      	cmp	r3, r2
    4f7e:	d901      	bls.n	4f84 <xTaskPriorityDisinherit+0xa8>
    4f80:	4a10      	ldr	r2, [pc, #64]	; (4fc4 <xTaskPriorityDisinherit+0xe8>)
    4f82:	6013      	str	r3, [r2, #0]
    4f84:	0098      	lsls	r0, r3, #2
    4f86:	18c0      	adds	r0, r0, r3
    4f88:	0080      	lsls	r0, r0, #2
    4f8a:	4b0f      	ldr	r3, [pc, #60]	; (4fc8 <xTaskPriorityDisinherit+0xec>)
    4f8c:	1818      	adds	r0, r3, r0
    4f8e:	0029      	movs	r1, r5
    4f90:	4b0e      	ldr	r3, [pc, #56]	; (4fcc <xTaskPriorityDisinherit+0xf0>)
    4f92:	4798      	blx	r3
					xReturn = pdTRUE;
    4f94:	2001      	movs	r0, #1
	}
    4f96:	bdf8      	pop	{r3, r4, r5, r6, r7, pc}
	BaseType_t xReturn = pdFALSE;
    4f98:	2000      	movs	r0, #0
    4f9a:	e7fc      	b.n	4f96 <xTaskPriorityDisinherit+0xba>
    4f9c:	2000      	movs	r0, #0
    4f9e:	e7fa      	b.n	4f96 <xTaskPriorityDisinherit+0xba>
    4fa0:	200036d0 	.word	0x200036d0
    4fa4:	00002d47 	.word	0x00002d47
    4fa8:	00001c11 	.word	0x00001c11
    4fac:	20000020 	.word	0x20000020
    4fb0:	00001c01 	.word	0x00001c01
    4fb4:	00002379 	.word	0x00002379
    4fb8:	000029c5 	.word	0x000029c5
    4fbc:	00002321 	.word	0x00002321
    4fc0:	00002799 	.word	0x00002799
    4fc4:	20003754 	.word	0x20003754
    4fc8:	200036dc 	.word	0x200036dc
    4fcc:	00002d01 	.word	0x00002d01

00004fd0 <vTaskPriorityDisinheritAfterTimeout>:
	{
    4fd0:	b5f8      	push	{r3, r4, r5, r6, r7, lr}
    4fd2:	1e04      	subs	r4, r0, #0
		if( pxMutexHolder != NULL )
    4fd4:	d00d      	beq.n	4ff2 <vTaskPriorityDisinheritAfterTimeout+0x22>
			configASSERT( pxTCB->uxMutexesHeld );
    4fd6:	6c83      	ldr	r3, [r0, #72]	; 0x48
    4fd8:	2b00      	cmp	r3, #0
    4fda:	d101      	bne.n	4fe0 <vTaskPriorityDisinheritAfterTimeout+0x10>
    4fdc:	b672      	cpsid	i
    4fde:	e7fe      	b.n	4fde <vTaskPriorityDisinheritAfterTimeout+0xe>
    4fe0:	6c45      	ldr	r5, [r0, #68]	; 0x44
    4fe2:	428d      	cmp	r5, r1
    4fe4:	d200      	bcs.n	4fe8 <vTaskPriorityDisinheritAfterTimeout+0x18>
    4fe6:	000d      	movs	r5, r1
			if( pxTCB->uxPriority != uxPriorityToUse )
    4fe8:	6ae2      	ldr	r2, [r4, #44]	; 0x2c
    4fea:	42aa      	cmp	r2, r5
    4fec:	d001      	beq.n	4ff2 <vTaskPriorityDisinheritAfterTimeout+0x22>
				if( pxTCB->uxMutexesHeld == uxOnlyOneMutexHeld )
    4fee:	2b01      	cmp	r3, #1
    4ff0:	d000      	beq.n	4ff4 <vTaskPriorityDisinheritAfterTimeout+0x24>
	}
    4ff2:	bdf8      	pop	{r3, r4, r5, r6, r7, pc}
					configASSERT( pxTCB != pxCurrentTCB );
    4ff4:	4b2b      	ldr	r3, [pc, #172]	; (50a4 <vTaskPriorityDisinheritAfterTimeout+0xd4>)
    4ff6:	681b      	ldr	r3, [r3, #0]
    4ff8:	429c      	cmp	r4, r3
    4ffa:	d101      	bne.n	5000 <vTaskPriorityDisinheritAfterTimeout+0x30>
    4ffc:	b672      	cpsid	i
    4ffe:	e7fe      	b.n	4ffe <vTaskPriorityDisinheritAfterTimeout+0x2e>
					traceTASK_PRIORITY_DISINHERIT( pxTCB, pxTCB->uxBasePriority );
    5000:	0020      	movs	r0, r4
    5002:	4b29      	ldr	r3, [pc, #164]	; (50a8 <vTaskPriorityDisinheritAfterTimeout+0xd8>)
    5004:	4798      	blx	r3
    5006:	4b29      	ldr	r3, [pc, #164]	; (50ac <vTaskPriorityDisinheritAfterTimeout+0xdc>)
    5008:	881b      	ldrh	r3, [r3, #0]
    500a:	4203      	tst	r3, r0
    500c:	d018      	beq.n	5040 <vTaskPriorityDisinheritAfterTimeout+0x70>
    500e:	0020      	movs	r0, r4
    5010:	4e27      	ldr	r6, [pc, #156]	; (50b0 <vTaskPriorityDisinheritAfterTimeout+0xe0>)
    5012:	47b0      	blx	r6
    5014:	0007      	movs	r7, r0
    5016:	0020      	movs	r0, r4
    5018:	47b0      	blx	r6
    501a:	b2c1      	uxtb	r1, r0
    501c:	2003      	movs	r0, #3
    501e:	4b25      	ldr	r3, [pc, #148]	; (50b4 <vTaskPriorityDisinheritAfterTimeout+0xe4>)
    5020:	4798      	blx	r3
    5022:	0003      	movs	r3, r0
    5024:	b2fa      	uxtb	r2, r7
    5026:	2103      	movs	r1, #3
    5028:	208f      	movs	r0, #143	; 0x8f
    502a:	4f23      	ldr	r7, [pc, #140]	; (50b8 <vTaskPriorityDisinheritAfterTimeout+0xe8>)
    502c:	47b8      	blx	r7
    502e:	0020      	movs	r0, r4
    5030:	47b0      	blx	r6
    5032:	2344      	movs	r3, #68	; 0x44
    5034:	18e3      	adds	r3, r4, r3
    5036:	781a      	ldrb	r2, [r3, #0]
    5038:	b2c1      	uxtb	r1, r0
    503a:	2003      	movs	r0, #3
    503c:	4b1f      	ldr	r3, [pc, #124]	; (50bc <vTaskPriorityDisinheritAfterTimeout+0xec>)
    503e:	4798      	blx	r3
					uxPriorityUsedOnEntry = pxTCB->uxPriority;
    5040:	6ae1      	ldr	r1, [r4, #44]	; 0x2c
					pxTCB->uxPriority = uxPriorityToUse;
    5042:	62e5      	str	r5, [r4, #44]	; 0x2c
					if( ( listGET_LIST_ITEM_VALUE( &( pxTCB->xEventListItem ) ) & taskEVENT_LIST_ITEM_VALUE_IN_USE ) == 0UL )
    5044:	69a3      	ldr	r3, [r4, #24]
    5046:	2b00      	cmp	r3, #0
    5048:	db02      	blt.n	5050 <vTaskPriorityDisinheritAfterTimeout+0x80>
						listSET_LIST_ITEM_VALUE( &( pxTCB->xEventListItem ), ( TickType_t ) configMAX_PRIORITIES - ( TickType_t ) uxPriorityToUse ); /*lint !e961 MISRA exception as the casts are only redundant for some ports. */
    504a:	2205      	movs	r2, #5
    504c:	1b55      	subs	r5, r2, r5
    504e:	61a5      	str	r5, [r4, #24]
					if( listIS_CONTAINED_WITHIN( &( pxReadyTasksLists[ uxPriorityUsedOnEntry ] ), &( pxTCB->xStateListItem ) ) != pdFALSE )
    5050:	008b      	lsls	r3, r1, #2
    5052:	185b      	adds	r3, r3, r1
    5054:	009b      	lsls	r3, r3, #2
    5056:	4a1a      	ldr	r2, [pc, #104]	; (50c0 <vTaskPriorityDisinheritAfterTimeout+0xf0>)
    5058:	18d3      	adds	r3, r2, r3
    505a:	6962      	ldr	r2, [r4, #20]
    505c:	429a      	cmp	r2, r3
    505e:	d1c8      	bne.n	4ff2 <vTaskPriorityDisinheritAfterTimeout+0x22>
						if( uxListRemove( &( pxTCB->xStateListItem ) ) == ( UBaseType_t ) 0 )
    5060:	1d25      	adds	r5, r4, #4
    5062:	0028      	movs	r0, r5
    5064:	4b17      	ldr	r3, [pc, #92]	; (50c4 <vTaskPriorityDisinheritAfterTimeout+0xf4>)
    5066:	4798      	blx	r3
						prvAddTaskToReadyList( pxTCB );
    5068:	0020      	movs	r0, r4
    506a:	4b0f      	ldr	r3, [pc, #60]	; (50a8 <vTaskPriorityDisinheritAfterTimeout+0xd8>)
    506c:	4798      	blx	r3
    506e:	4b0f      	ldr	r3, [pc, #60]	; (50ac <vTaskPriorityDisinheritAfterTimeout+0xdc>)
    5070:	881b      	ldrh	r3, [r3, #0]
    5072:	4203      	tst	r3, r0
    5074:	d005      	beq.n	5082 <vTaskPriorityDisinheritAfterTimeout+0xb2>
    5076:	0020      	movs	r0, r4
    5078:	4b0d      	ldr	r3, [pc, #52]	; (50b0 <vTaskPriorityDisinheritAfterTimeout+0xe0>)
    507a:	4798      	blx	r3
    507c:	b2c0      	uxtb	r0, r0
    507e:	4b12      	ldr	r3, [pc, #72]	; (50c8 <vTaskPriorityDisinheritAfterTimeout+0xf8>)
    5080:	4798      	blx	r3
    5082:	6ae3      	ldr	r3, [r4, #44]	; 0x2c
    5084:	4a11      	ldr	r2, [pc, #68]	; (50cc <vTaskPriorityDisinheritAfterTimeout+0xfc>)
    5086:	6812      	ldr	r2, [r2, #0]
    5088:	4293      	cmp	r3, r2
    508a:	d901      	bls.n	5090 <vTaskPriorityDisinheritAfterTimeout+0xc0>
    508c:	4a0f      	ldr	r2, [pc, #60]	; (50cc <vTaskPriorityDisinheritAfterTimeout+0xfc>)
    508e:	6013      	str	r3, [r2, #0]
    5090:	0098      	lsls	r0, r3, #2
    5092:	18c0      	adds	r0, r0, r3
    5094:	0080      	lsls	r0, r0, #2
    5096:	4b0a      	ldr	r3, [pc, #40]	; (50c0 <vTaskPriorityDisinheritAfterTimeout+0xf0>)
    5098:	1818      	adds	r0, r3, r0
    509a:	0029      	movs	r1, r5
    509c:	4b0c      	ldr	r3, [pc, #48]	; (50d0 <vTaskPriorityDisinheritAfterTimeout+0x100>)
    509e:	4798      	blx	r3
	}
    50a0:	e7a7      	b.n	4ff2 <vTaskPriorityDisinheritAfterTimeout+0x22>
    50a2:	46c0      	nop			; (mov r8, r8)
    50a4:	200036d0 	.word	0x200036d0
    50a8:	00001c11 	.word	0x00001c11
    50ac:	20000020 	.word	0x20000020
    50b0:	00001c01 	.word	0x00001c01
    50b4:	00002379 	.word	0x00002379
    50b8:	000029c5 	.word	0x000029c5
    50bc:	00002321 	.word	0x00002321
    50c0:	200036dc 	.word	0x200036dc
    50c4:	00002d47 	.word	0x00002d47
    50c8:	00002799 	.word	0x00002799
    50cc:	20003754 	.word	0x20003754
    50d0:	00002d01 	.word	0x00002d01

000050d4 <pvTaskIncrementMutexHeldCount>:
		if( pxCurrentTCB != NULL )
    50d4:	4b05      	ldr	r3, [pc, #20]	; (50ec <pvTaskIncrementMutexHeldCount+0x18>)
    50d6:	681b      	ldr	r3, [r3, #0]
    50d8:	2b00      	cmp	r3, #0
    50da:	d004      	beq.n	50e6 <pvTaskIncrementMutexHeldCount+0x12>
			( pxCurrentTCB->uxMutexesHeld )++;
    50dc:	4b03      	ldr	r3, [pc, #12]	; (50ec <pvTaskIncrementMutexHeldCount+0x18>)
    50de:	681a      	ldr	r2, [r3, #0]
    50e0:	6c93      	ldr	r3, [r2, #72]	; 0x48
    50e2:	3301      	adds	r3, #1
    50e4:	6493      	str	r3, [r2, #72]	; 0x48
		return pxCurrentTCB;
    50e6:	4b01      	ldr	r3, [pc, #4]	; (50ec <pvTaskIncrementMutexHeldCount+0x18>)
    50e8:	6818      	ldr	r0, [r3, #0]
	}
    50ea:	4770      	bx	lr
    50ec:	200036d0 	.word	0x200036d0

000050f0 <prvInsertTimerInActiveList>:
	return xTimeNow;
}
/*-----------------------------------------------------------*/

static BaseType_t prvInsertTimerInActiveList( Timer_t * const pxTimer, const TickType_t xNextExpiryTime, const TickType_t xTimeNow, const TickType_t xCommandTime )
{
    50f0:	b510      	push	{r4, lr}
BaseType_t xProcessTimerNow = pdFALSE;

	listSET_LIST_ITEM_VALUE( &( pxTimer->xTimerListItem ), xNextExpiryTime );
    50f2:	6041      	str	r1, [r0, #4]
	listSET_LIST_ITEM_OWNER( &( pxTimer->xTimerListItem ), pxTimer );
    50f4:	6100      	str	r0, [r0, #16]

	if( xNextExpiryTime <= xTimeNow )
    50f6:	4291      	cmp	r1, r2
    50f8:	d80b      	bhi.n	5112 <prvInsertTimerInActiveList+0x22>
	{
		/* Has the expiry time elapsed between the command to start/reset a
		timer was issued, and the time the command was processed? */
		if( ( ( TickType_t ) ( xTimeNow - xCommandTime ) ) >= pxTimer->xTimerPeriodInTicks ) /*lint !e961 MISRA exception as the casts are only redundant for some ports. */
    50fa:	1ad2      	subs	r2, r2, r3
		{
			/* The time between a command being issued and the command being
			processed actually exceeds the timers period.  */
			xProcessTimerNow = pdTRUE;
    50fc:	2401      	movs	r4, #1
		if( ( ( TickType_t ) ( xTimeNow - xCommandTime ) ) >= pxTimer->xTimerPeriodInTicks ) /*lint !e961 MISRA exception as the casts are only redundant for some ports. */
    50fe:	6983      	ldr	r3, [r0, #24]
    5100:	429a      	cmp	r2, r3
    5102:	d211      	bcs.n	5128 <prvInsertTimerInActiveList+0x38>
		}
		else
		{
			vListInsert( pxOverflowTimerList, &( pxTimer->xTimerListItem ) );
    5104:	1d01      	adds	r1, r0, #4
    5106:	4b09      	ldr	r3, [pc, #36]	; (512c <prvInsertTimerInActiveList+0x3c>)
    5108:	6818      	ldr	r0, [r3, #0]
    510a:	4b09      	ldr	r3, [pc, #36]	; (5130 <prvInsertTimerInActiveList+0x40>)
    510c:	4798      	blx	r3
BaseType_t xProcessTimerNow = pdFALSE;
    510e:	2400      	movs	r4, #0
    5110:	e00a      	b.n	5128 <prvInsertTimerInActiveList+0x38>
		}
	}
	else
	{
		if( ( xTimeNow < xCommandTime ) && ( xNextExpiryTime >= xCommandTime ) )
    5112:	429a      	cmp	r2, r3
    5114:	d202      	bcs.n	511c <prvInsertTimerInActiveList+0x2c>
		{
			/* If, since the command was issued, the tick count has overflowed
			but the expiry time has not, then the timer must have already passed
			its expiry time and should be processed immediately. */
			xProcessTimerNow = pdTRUE;
    5116:	2401      	movs	r4, #1
		if( ( xTimeNow < xCommandTime ) && ( xNextExpiryTime >= xCommandTime ) )
    5118:	4299      	cmp	r1, r3
    511a:	d205      	bcs.n	5128 <prvInsertTimerInActiveList+0x38>
		}
		else
		{
			vListInsert( pxCurrentTimerList, &( pxTimer->xTimerListItem ) );
    511c:	1d01      	adds	r1, r0, #4
    511e:	4b05      	ldr	r3, [pc, #20]	; (5134 <prvInsertTimerInActiveList+0x44>)
    5120:	6818      	ldr	r0, [r3, #0]
    5122:	4b03      	ldr	r3, [pc, #12]	; (5130 <prvInsertTimerInActiveList+0x40>)
    5124:	4798      	blx	r3
BaseType_t xProcessTimerNow = pdFALSE;
    5126:	2400      	movs	r4, #0
		}
	}

	return xProcessTimerNow;
}
    5128:	0020      	movs	r0, r4
    512a:	bd10      	pop	{r4, pc}
    512c:	200037d8 	.word	0x200037d8
    5130:	00002d19 	.word	0x00002d19
    5134:	200037d4 	.word	0x200037d4

00005138 <prvCheckForValidListAndQueue>:
	pxOverflowTimerList = pxTemp;
}
/*-----------------------------------------------------------*/

static void prvCheckForValidListAndQueue( void )
{
    5138:	b570      	push	{r4, r5, r6, lr}
	/* Check that the list from which active timers are referenced, and the
	queue used to communicate with the timer service, have been
	initialised. */
	taskENTER_CRITICAL();
    513a:	4b0e      	ldr	r3, [pc, #56]	; (5174 <prvCheckForValidListAndQueue+0x3c>)
    513c:	4798      	blx	r3
	{
		if( xTimerQueue == NULL )
    513e:	4b0e      	ldr	r3, [pc, #56]	; (5178 <prvCheckForValidListAndQueue+0x40>)
    5140:	681b      	ldr	r3, [r3, #0]
    5142:	2b00      	cmp	r3, #0
    5144:	d002      	beq.n	514c <prvCheckForValidListAndQueue+0x14>
		else
		{
			mtCOVERAGE_TEST_MARKER();
		}
	}
	taskEXIT_CRITICAL();
    5146:	4b0d      	ldr	r3, [pc, #52]	; (517c <prvCheckForValidListAndQueue+0x44>)
    5148:	4798      	blx	r3
}
    514a:	bd70      	pop	{r4, r5, r6, pc}
			vListInitialise( &xActiveTimerList1 );
    514c:	4d0c      	ldr	r5, [pc, #48]	; (5180 <prvCheckForValidListAndQueue+0x48>)
    514e:	0028      	movs	r0, r5
    5150:	4e0c      	ldr	r6, [pc, #48]	; (5184 <prvCheckForValidListAndQueue+0x4c>)
    5152:	47b0      	blx	r6
			vListInitialise( &xActiveTimerList2 );
    5154:	4c0c      	ldr	r4, [pc, #48]	; (5188 <prvCheckForValidListAndQueue+0x50>)
    5156:	0020      	movs	r0, r4
    5158:	47b0      	blx	r6
			pxCurrentTimerList = &xActiveTimerList1;
    515a:	4b0c      	ldr	r3, [pc, #48]	; (518c <prvCheckForValidListAndQueue+0x54>)
    515c:	601d      	str	r5, [r3, #0]
			pxOverflowTimerList = &xActiveTimerList2;
    515e:	4b0c      	ldr	r3, [pc, #48]	; (5190 <prvCheckForValidListAndQueue+0x58>)
    5160:	601c      	str	r4, [r3, #0]
				xTimerQueue = xQueueCreate( ( UBaseType_t ) configTIMER_QUEUE_LENGTH, sizeof( DaemonTaskMessage_t ) );
    5162:	2200      	movs	r2, #0
    5164:	210c      	movs	r1, #12
    5166:	2002      	movs	r0, #2
    5168:	4b0a      	ldr	r3, [pc, #40]	; (5194 <prvCheckForValidListAndQueue+0x5c>)
    516a:	4798      	blx	r3
    516c:	4b02      	ldr	r3, [pc, #8]	; (5178 <prvCheckForValidListAndQueue+0x40>)
    516e:	6018      	str	r0, [r3, #0]
    5170:	e7e9      	b.n	5146 <prvCheckForValidListAndQueue+0xe>
    5172:	46c0      	nop			; (mov r8, r8)
    5174:	00002e81 	.word	0x00002e81
    5178:	20003808 	.word	0x20003808
    517c:	00002e99 	.word	0x00002e99
    5180:	200037dc 	.word	0x200037dc
    5184:	00002ce5 	.word	0x00002ce5
    5188:	200037f0 	.word	0x200037f0
    518c:	200037d4 	.word	0x200037d4
    5190:	200037d8 	.word	0x200037d8
    5194:	000032f9 	.word	0x000032f9

00005198 <xTimerCreateTimerTask>:
{
    5198:	b510      	push	{r4, lr}
    519a:	b082      	sub	sp, #8
	prvCheckForValidListAndQueue();
    519c:	4b0a      	ldr	r3, [pc, #40]	; (51c8 <xTimerCreateTimerTask+0x30>)
    519e:	4798      	blx	r3
	if( xTimerQueue != NULL )
    51a0:	4b0a      	ldr	r3, [pc, #40]	; (51cc <xTimerCreateTimerTask+0x34>)
    51a2:	681b      	ldr	r3, [r3, #0]
    51a4:	2b00      	cmp	r3, #0
    51a6:	d00d      	beq.n	51c4 <xTimerCreateTimerTask+0x2c>
			xReturn = xTaskCreate(	prvTimerTask,
    51a8:	4b09      	ldr	r3, [pc, #36]	; (51d0 <xTimerCreateTimerTask+0x38>)
    51aa:	9301      	str	r3, [sp, #4]
    51ac:	2302      	movs	r3, #2
    51ae:	9300      	str	r3, [sp, #0]
    51b0:	2300      	movs	r3, #0
    51b2:	2280      	movs	r2, #128	; 0x80
    51b4:	4907      	ldr	r1, [pc, #28]	; (51d4 <xTimerCreateTimerTask+0x3c>)
    51b6:	4808      	ldr	r0, [pc, #32]	; (51d8 <xTimerCreateTimerTask+0x40>)
    51b8:	4c08      	ldr	r4, [pc, #32]	; (51dc <xTimerCreateTimerTask+0x44>)
    51ba:	47a0      	blx	r4
	configASSERT( xReturn );
    51bc:	2800      	cmp	r0, #0
    51be:	d001      	beq.n	51c4 <xTimerCreateTimerTask+0x2c>
}
    51c0:	b002      	add	sp, #8
    51c2:	bd10      	pop	{r4, pc}
	configASSERT( xReturn );
    51c4:	b672      	cpsid	i
    51c6:	e7fe      	b.n	51c6 <xTimerCreateTimerTask+0x2e>
    51c8:	00005139 	.word	0x00005139
    51cc:	20003808 	.word	0x20003808
    51d0:	2000380c 	.word	0x2000380c
    51d4:	0000a738 	.word	0x0000a738
    51d8:	00005305 	.word	0x00005305
    51dc:	000042d1 	.word	0x000042d1

000051e0 <xTimerGenericCommand>:
{
    51e0:	b530      	push	{r4, r5, lr}
    51e2:	b085      	sub	sp, #20
    51e4:	0004      	movs	r4, r0
    51e6:	001d      	movs	r5, r3
	configASSERT( xTimer );
    51e8:	2800      	cmp	r0, #0
    51ea:	d014      	beq.n	5216 <xTimerGenericCommand+0x36>
	if( xTimerQueue != NULL )
    51ec:	4b13      	ldr	r3, [pc, #76]	; (523c <xTimerGenericCommand+0x5c>)
    51ee:	6818      	ldr	r0, [r3, #0]
    51f0:	2800      	cmp	r0, #0
    51f2:	d021      	beq.n	5238 <xTimerGenericCommand+0x58>
		xMessage.xMessageID = xCommandID;
    51f4:	9101      	str	r1, [sp, #4]
		xMessage.u.xTimerParameters.xMessageValue = xOptionalValue;
    51f6:	9202      	str	r2, [sp, #8]
		xMessage.u.xTimerParameters.pxTimer = ( Timer_t * ) xTimer;
    51f8:	9403      	str	r4, [sp, #12]
		if( xCommandID < tmrFIRST_FROM_ISR_COMMAND )
    51fa:	2905      	cmp	r1, #5
    51fc:	dc15      	bgt.n	522a <xTimerGenericCommand+0x4a>
			if( xTaskGetSchedulerState() == taskSCHEDULER_RUNNING )
    51fe:	4b10      	ldr	r3, [pc, #64]	; (5240 <xTimerGenericCommand+0x60>)
    5200:	4798      	blx	r3
    5202:	2802      	cmp	r0, #2
    5204:	d009      	beq.n	521a <xTimerGenericCommand+0x3a>
				xReturn = xQueueSendToBack( xTimerQueue, &xMessage, tmrNO_DELAY );
    5206:	4b0d      	ldr	r3, [pc, #52]	; (523c <xTimerGenericCommand+0x5c>)
    5208:	6818      	ldr	r0, [r3, #0]
    520a:	2300      	movs	r3, #0
    520c:	2200      	movs	r2, #0
    520e:	a901      	add	r1, sp, #4
    5210:	4c0c      	ldr	r4, [pc, #48]	; (5244 <xTimerGenericCommand+0x64>)
    5212:	47a0      	blx	r4
    5214:	e00e      	b.n	5234 <xTimerGenericCommand+0x54>
	configASSERT( xTimer );
    5216:	b672      	cpsid	i
    5218:	e7fe      	b.n	5218 <xTimerGenericCommand+0x38>
				xReturn = xQueueSendToBack( xTimerQueue, &xMessage, xTicksToWait );
    521a:	4b08      	ldr	r3, [pc, #32]	; (523c <xTimerGenericCommand+0x5c>)
    521c:	6818      	ldr	r0, [r3, #0]
    521e:	2300      	movs	r3, #0
    5220:	9a08      	ldr	r2, [sp, #32]
    5222:	a901      	add	r1, sp, #4
    5224:	4c07      	ldr	r4, [pc, #28]	; (5244 <xTimerGenericCommand+0x64>)
    5226:	47a0      	blx	r4
    5228:	e004      	b.n	5234 <xTimerGenericCommand+0x54>
			xReturn = xQueueSendToBackFromISR( xTimerQueue, &xMessage, pxHigherPriorityTaskWoken );
    522a:	2300      	movs	r3, #0
    522c:	002a      	movs	r2, r5
    522e:	a901      	add	r1, sp, #4
    5230:	4c05      	ldr	r4, [pc, #20]	; (5248 <xTimerGenericCommand+0x68>)
    5232:	47a0      	blx	r4
}
    5234:	b005      	add	sp, #20
    5236:	bd30      	pop	{r4, r5, pc}
BaseType_t xReturn = pdFAIL;
    5238:	2000      	movs	r0, #0
	return xReturn;
    523a:	e7fb      	b.n	5234 <xTimerGenericCommand+0x54>
    523c:	20003808 	.word	0x20003808
    5240:	00004da5 	.word	0x00004da5
    5244:	00003435 	.word	0x00003435
    5248:	00003789 	.word	0x00003789

0000524c <prvSampleTimeNow>:
{
    524c:	b5f0      	push	{r4, r5, r6, r7, lr}
    524e:	46d6      	mov	lr, sl
    5250:	464f      	mov	r7, r9
    5252:	4646      	mov	r6, r8
    5254:	b5c0      	push	{r6, r7, lr}
    5256:	b082      	sub	sp, #8
    5258:	4680      	mov	r8, r0
	xTimeNow = xTaskGetTickCount();
    525a:	4b23      	ldr	r3, [pc, #140]	; (52e8 <prvSampleTimeNow+0x9c>)
    525c:	4798      	blx	r3
    525e:	4682      	mov	sl, r0
	if( xTimeNow < xLastTime )
    5260:	4b22      	ldr	r3, [pc, #136]	; (52ec <prvSampleTimeNow+0xa0>)
    5262:	681b      	ldr	r3, [r3, #0]
    5264:	4298      	cmp	r0, r3
    5266:	d317      	bcc.n	5298 <prvSampleTimeNow+0x4c>
		*pxTimerListsWereSwitched = pdFALSE;
    5268:	2300      	movs	r3, #0
    526a:	4642      	mov	r2, r8
    526c:	6013      	str	r3, [r2, #0]
	xLastTime = xTimeNow;
    526e:	4b1f      	ldr	r3, [pc, #124]	; (52ec <prvSampleTimeNow+0xa0>)
    5270:	4652      	mov	r2, sl
    5272:	601a      	str	r2, [r3, #0]
}
    5274:	4650      	mov	r0, sl
    5276:	b002      	add	sp, #8
    5278:	bc1c      	pop	{r2, r3, r4}
    527a:	4690      	mov	r8, r2
    527c:	4699      	mov	r9, r3
    527e:	46a2      	mov	sl, r4
    5280:	bdf0      	pop	{r4, r5, r6, r7, pc}
				xResult = xTimerGenericCommand( pxTimer, tmrCOMMAND_START_DONT_TRACE, xNextExpireTime, NULL, tmrNO_DELAY );
    5282:	2300      	movs	r3, #0
    5284:	9300      	str	r3, [sp, #0]
    5286:	003a      	movs	r2, r7
    5288:	2100      	movs	r1, #0
    528a:	0020      	movs	r0, r4
    528c:	4c18      	ldr	r4, [pc, #96]	; (52f0 <prvSampleTimeNow+0xa4>)
    528e:	47a0      	blx	r4
				configASSERT( xResult );
    5290:	2800      	cmp	r0, #0
    5292:	d104      	bne.n	529e <prvSampleTimeNow+0x52>
    5294:	b672      	cpsid	i
    5296:	e7fe      	b.n	5296 <prvSampleTimeNow+0x4a>
	while( listLIST_IS_EMPTY( pxCurrentTimerList ) == pdFALSE )
    5298:	4d16      	ldr	r5, [pc, #88]	; (52f4 <prvSampleTimeNow+0xa8>)
		( void ) uxListRemove( &( pxTimer->xTimerListItem ) );
    529a:	4b17      	ldr	r3, [pc, #92]	; (52f8 <prvSampleTimeNow+0xac>)
    529c:	4699      	mov	r9, r3
	while( listLIST_IS_EMPTY( pxCurrentTimerList ) == pdFALSE )
    529e:	682b      	ldr	r3, [r5, #0]
    52a0:	681a      	ldr	r2, [r3, #0]
    52a2:	2a00      	cmp	r2, #0
    52a4:	d017      	beq.n	52d6 <prvSampleTimeNow+0x8a>
		xNextExpireTime = listGET_ITEM_VALUE_OF_HEAD_ENTRY( pxCurrentTimerList );
    52a6:	68db      	ldr	r3, [r3, #12]
    52a8:	681f      	ldr	r7, [r3, #0]
		pxTimer = ( Timer_t * ) listGET_OWNER_OF_HEAD_ENTRY( pxCurrentTimerList );
    52aa:	68dc      	ldr	r4, [r3, #12]
		( void ) uxListRemove( &( pxTimer->xTimerListItem ) );
    52ac:	1d26      	adds	r6, r4, #4
    52ae:	0030      	movs	r0, r6
    52b0:	47c8      	blx	r9
		pxTimer->pxCallbackFunction( ( TimerHandle_t ) pxTimer );
    52b2:	0020      	movs	r0, r4
    52b4:	6a63      	ldr	r3, [r4, #36]	; 0x24
    52b6:	4798      	blx	r3
		if( pxTimer->uxAutoReload == ( UBaseType_t ) pdTRUE )
    52b8:	69e3      	ldr	r3, [r4, #28]
    52ba:	2b01      	cmp	r3, #1
    52bc:	d1ef      	bne.n	529e <prvSampleTimeNow+0x52>
			xReloadTime = ( xNextExpireTime + pxTimer->xTimerPeriodInTicks );
    52be:	69a3      	ldr	r3, [r4, #24]
    52c0:	18fb      	adds	r3, r7, r3
			if( xReloadTime > xNextExpireTime )
    52c2:	429f      	cmp	r7, r3
    52c4:	d2dd      	bcs.n	5282 <prvSampleTimeNow+0x36>
				listSET_LIST_ITEM_VALUE( &( pxTimer->xTimerListItem ), xReloadTime );
    52c6:	6063      	str	r3, [r4, #4]
				listSET_LIST_ITEM_OWNER( &( pxTimer->xTimerListItem ), pxTimer );
    52c8:	6124      	str	r4, [r4, #16]
				vListInsert( pxCurrentTimerList, &( pxTimer->xTimerListItem ) );
    52ca:	4b0a      	ldr	r3, [pc, #40]	; (52f4 <prvSampleTimeNow+0xa8>)
    52cc:	6818      	ldr	r0, [r3, #0]
    52ce:	0031      	movs	r1, r6
    52d0:	4b0a      	ldr	r3, [pc, #40]	; (52fc <prvSampleTimeNow+0xb0>)
    52d2:	4798      	blx	r3
    52d4:	e7e3      	b.n	529e <prvSampleTimeNow+0x52>
	pxCurrentTimerList = pxOverflowTimerList;
    52d6:	4a0a      	ldr	r2, [pc, #40]	; (5300 <prvSampleTimeNow+0xb4>)
    52d8:	4906      	ldr	r1, [pc, #24]	; (52f4 <prvSampleTimeNow+0xa8>)
    52da:	6810      	ldr	r0, [r2, #0]
    52dc:	6008      	str	r0, [r1, #0]
	pxOverflowTimerList = pxTemp;
    52de:	6013      	str	r3, [r2, #0]
		*pxTimerListsWereSwitched = pdTRUE;
    52e0:	2301      	movs	r3, #1
    52e2:	4642      	mov	r2, r8
    52e4:	6013      	str	r3, [r2, #0]
    52e6:	e7c2      	b.n	526e <prvSampleTimeNow+0x22>
    52e8:	000045f5 	.word	0x000045f5
    52ec:	20003804 	.word	0x20003804
    52f0:	000051e1 	.word	0x000051e1
    52f4:	200037d4 	.word	0x200037d4
    52f8:	00002d47 	.word	0x00002d47
    52fc:	00002d19 	.word	0x00002d19
    5300:	200037d8 	.word	0x200037d8

00005304 <prvTimerTask>:
{
    5304:	b5f0      	push	{r4, r5, r6, r7, lr}
    5306:	b089      	sub	sp, #36	; 0x24
		vApplicationDaemonTaskStartupHook();
    5308:	4b53      	ldr	r3, [pc, #332]	; (5458 <prvTimerTask+0x154>)
    530a:	4798      	blx	r3
				( void ) uxListRemove( &( pxTimer->xTimerListItem ) );
    530c:	4f53      	ldr	r7, [pc, #332]	; (545c <prvTimerTask+0x158>)
	*pxListWasEmpty = listLIST_IS_EMPTY( pxCurrentTimerList );
    530e:	4b54      	ldr	r3, [pc, #336]	; (5460 <prvTimerTask+0x15c>)
    5310:	681b      	ldr	r3, [r3, #0]
    5312:	681a      	ldr	r2, [r3, #0]
	if( *pxListWasEmpty == pdFALSE )
    5314:	2a00      	cmp	r2, #0
    5316:	d00e      	beq.n	5336 <prvTimerTask+0x32>
		xNextExpireTime = listGET_ITEM_VALUE_OF_HEAD_ENTRY( pxCurrentTimerList );
    5318:	68db      	ldr	r3, [r3, #12]
    531a:	681c      	ldr	r4, [r3, #0]
	vTaskSuspendAll();
    531c:	4b51      	ldr	r3, [pc, #324]	; (5464 <prvTimerTask+0x160>)
    531e:	4798      	blx	r3
		xTimeNow = prvSampleTimeNow( &xTimerListsWereSwitched );
    5320:	a805      	add	r0, sp, #20
    5322:	4b51      	ldr	r3, [pc, #324]	; (5468 <prvTimerTask+0x164>)
    5324:	4798      	blx	r3
    5326:	0005      	movs	r5, r0
		if( xTimerListsWereSwitched == pdFALSE )
    5328:	9b05      	ldr	r3, [sp, #20]
    532a:	2b00      	cmp	r3, #0
    532c:	d15f      	bne.n	53ee <prvTimerTask+0xea>
			if( ( xListWasEmpty == pdFALSE ) && ( xNextExpireTime <= xTimeNow ) )
    532e:	4284      	cmp	r4, r0
    5330:	d936      	bls.n	53a0 <prvTimerTask+0x9c>
    5332:	2200      	movs	r2, #0
    5334:	e00f      	b.n	5356 <prvTimerTask+0x52>
	vTaskSuspendAll();
    5336:	4b4b      	ldr	r3, [pc, #300]	; (5464 <prvTimerTask+0x160>)
    5338:	4798      	blx	r3
		xTimeNow = prvSampleTimeNow( &xTimerListsWereSwitched );
    533a:	a805      	add	r0, sp, #20
    533c:	4b4a      	ldr	r3, [pc, #296]	; (5468 <prvTimerTask+0x164>)
    533e:	4798      	blx	r3
    5340:	0005      	movs	r5, r0
		if( xTimerListsWereSwitched == pdFALSE )
    5342:	9b05      	ldr	r3, [sp, #20]
    5344:	2b00      	cmp	r3, #0
    5346:	d152      	bne.n	53ee <prvTimerTask+0xea>
					xListWasEmpty = listLIST_IS_EMPTY( pxOverflowTimerList );
    5348:	4b48      	ldr	r3, [pc, #288]	; (546c <prvTimerTask+0x168>)
    534a:	681b      	ldr	r3, [r3, #0]
    534c:	681b      	ldr	r3, [r3, #0]
    534e:	425a      	negs	r2, r3
    5350:	415a      	adcs	r2, r3
    5352:	b2d2      	uxtb	r2, r2
    5354:	2400      	movs	r4, #0
				vQueueWaitForMessageRestricted( xTimerQueue, ( xNextExpireTime - xTimeNow ), xListWasEmpty );
    5356:	1b61      	subs	r1, r4, r5
    5358:	4b45      	ldr	r3, [pc, #276]	; (5470 <prvTimerTask+0x16c>)
    535a:	6818      	ldr	r0, [r3, #0]
    535c:	4b45      	ldr	r3, [pc, #276]	; (5474 <prvTimerTask+0x170>)
    535e:	4798      	blx	r3
				if( xTaskResumeAll() == pdFALSE )
    5360:	4b45      	ldr	r3, [pc, #276]	; (5478 <prvTimerTask+0x174>)
    5362:	4798      	blx	r3
    5364:	2800      	cmp	r0, #0
    5366:	d03f      	beq.n	53e8 <prvTimerTask+0xe4>
	while( xQueueReceive( xTimerQueue, &xMessage, tmrNO_DELAY ) != pdFAIL ) /*lint !e603 xMessage does not have to be initialised as it is passed out, not in, and it is not used unless xQueueReceive() returns pdTRUE. */
    5368:	4d41      	ldr	r5, [pc, #260]	; (5470 <prvTimerTask+0x16c>)
    536a:	4c44      	ldr	r4, [pc, #272]	; (547c <prvTimerTask+0x178>)
    536c:	2200      	movs	r2, #0
    536e:	a905      	add	r1, sp, #20
    5370:	6828      	ldr	r0, [r5, #0]
    5372:	47a0      	blx	r4
    5374:	2800      	cmp	r0, #0
    5376:	d0ca      	beq.n	530e <prvTimerTask+0xa>
		if( xMessage.xMessageID >= ( BaseType_t ) 0 )
    5378:	9b05      	ldr	r3, [sp, #20]
    537a:	9303      	str	r3, [sp, #12]
    537c:	2b00      	cmp	r3, #0
    537e:	dbf5      	blt.n	536c <prvTimerTask+0x68>
			pxTimer = xMessage.u.xTimerParameters.pxTimer;
    5380:	9e07      	ldr	r6, [sp, #28]
			if( listIS_CONTAINED_WITHIN( NULL, &( pxTimer->xTimerListItem ) ) == pdFALSE ) /*lint !e961. The cast is only redundant when NULL is passed into the macro. */
    5382:	6973      	ldr	r3, [r6, #20]
    5384:	2b00      	cmp	r3, #0
    5386:	d001      	beq.n	538c <prvTimerTask+0x88>
				( void ) uxListRemove( &( pxTimer->xTimerListItem ) );
    5388:	1d30      	adds	r0, r6, #4
    538a:	47b8      	blx	r7
			xTimeNow = prvSampleTimeNow( &xTimerListsWereSwitched );
    538c:	a804      	add	r0, sp, #16
    538e:	4b36      	ldr	r3, [pc, #216]	; (5468 <prvTimerTask+0x164>)
    5390:	4798      	blx	r3
			switch( xMessage.xMessageID )
    5392:	9b05      	ldr	r3, [sp, #20]
    5394:	2b09      	cmp	r3, #9
    5396:	d8e9      	bhi.n	536c <prvTimerTask+0x68>
    5398:	009b      	lsls	r3, r3, #2
    539a:	4a39      	ldr	r2, [pc, #228]	; (5480 <prvTimerTask+0x17c>)
    539c:	58d3      	ldr	r3, [r2, r3]
    539e:	469f      	mov	pc, r3
				( void ) xTaskResumeAll();
    53a0:	4b35      	ldr	r3, [pc, #212]	; (5478 <prvTimerTask+0x174>)
    53a2:	4798      	blx	r3
Timer_t * const pxTimer = ( Timer_t * ) listGET_OWNER_OF_HEAD_ENTRY( pxCurrentTimerList );
    53a4:	4b2e      	ldr	r3, [pc, #184]	; (5460 <prvTimerTask+0x15c>)
    53a6:	681b      	ldr	r3, [r3, #0]
    53a8:	68db      	ldr	r3, [r3, #12]
    53aa:	68de      	ldr	r6, [r3, #12]
	( void ) uxListRemove( &( pxTimer->xTimerListItem ) );
    53ac:	1d30      	adds	r0, r6, #4
    53ae:	4b2b      	ldr	r3, [pc, #172]	; (545c <prvTimerTask+0x158>)
    53b0:	4798      	blx	r3
	if( pxTimer->uxAutoReload == ( UBaseType_t ) pdTRUE )
    53b2:	69f3      	ldr	r3, [r6, #28]
    53b4:	2b01      	cmp	r3, #1
    53b6:	d003      	beq.n	53c0 <prvTimerTask+0xbc>
	pxTimer->pxCallbackFunction( ( TimerHandle_t ) pxTimer );
    53b8:	6a73      	ldr	r3, [r6, #36]	; 0x24
    53ba:	0030      	movs	r0, r6
    53bc:	4798      	blx	r3
    53be:	e7d3      	b.n	5368 <prvTimerTask+0x64>
		if( prvInsertTimerInActiveList( pxTimer, ( xNextExpireTime + pxTimer->xTimerPeriodInTicks ), xTimeNow, xNextExpireTime ) != pdFALSE )
    53c0:	69b3      	ldr	r3, [r6, #24]
    53c2:	18e1      	adds	r1, r4, r3
    53c4:	0023      	movs	r3, r4
    53c6:	002a      	movs	r2, r5
    53c8:	0030      	movs	r0, r6
    53ca:	4d2e      	ldr	r5, [pc, #184]	; (5484 <prvTimerTask+0x180>)
    53cc:	47a8      	blx	r5
    53ce:	2800      	cmp	r0, #0
    53d0:	d0f2      	beq.n	53b8 <prvTimerTask+0xb4>
			xResult = xTimerGenericCommand( pxTimer, tmrCOMMAND_START_DONT_TRACE, xNextExpireTime, NULL, tmrNO_DELAY );
    53d2:	2300      	movs	r3, #0
    53d4:	9300      	str	r3, [sp, #0]
    53d6:	0022      	movs	r2, r4
    53d8:	2100      	movs	r1, #0
    53da:	0030      	movs	r0, r6
    53dc:	4c2a      	ldr	r4, [pc, #168]	; (5488 <prvTimerTask+0x184>)
    53de:	47a0      	blx	r4
			configASSERT( xResult );
    53e0:	2800      	cmp	r0, #0
    53e2:	d1e9      	bne.n	53b8 <prvTimerTask+0xb4>
    53e4:	b672      	cpsid	i
    53e6:	e7fe      	b.n	53e6 <prvTimerTask+0xe2>
					portYIELD_WITHIN_API();
    53e8:	4b28      	ldr	r3, [pc, #160]	; (548c <prvTimerTask+0x188>)
    53ea:	4798      	blx	r3
    53ec:	e7bc      	b.n	5368 <prvTimerTask+0x64>
			( void ) xTaskResumeAll();
    53ee:	4b22      	ldr	r3, [pc, #136]	; (5478 <prvTimerTask+0x174>)
    53f0:	4798      	blx	r3
    53f2:	e7b9      	b.n	5368 <prvTimerTask+0x64>
					if( prvInsertTimerInActiveList( pxTimer,  xMessage.u.xTimerParameters.xMessageValue + pxTimer->xTimerPeriodInTicks, xTimeNow, xMessage.u.xTimerParameters.xMessageValue ) != pdFALSE )
    53f4:	9b06      	ldr	r3, [sp, #24]
    53f6:	69b2      	ldr	r2, [r6, #24]
    53f8:	4694      	mov	ip, r2
    53fa:	4463      	add	r3, ip
    53fc:	0019      	movs	r1, r3
    53fe:	9b06      	ldr	r3, [sp, #24]
    5400:	0002      	movs	r2, r0
    5402:	0030      	movs	r0, r6
    5404:	4c1f      	ldr	r4, [pc, #124]	; (5484 <prvTimerTask+0x180>)
    5406:	47a0      	blx	r4
    5408:	2800      	cmp	r0, #0
    540a:	d0ae      	beq.n	536a <prvTimerTask+0x66>
						pxTimer->pxCallbackFunction( ( TimerHandle_t ) pxTimer );
    540c:	0030      	movs	r0, r6
    540e:	6a73      	ldr	r3, [r6, #36]	; 0x24
    5410:	4798      	blx	r3
						if( pxTimer->uxAutoReload == ( UBaseType_t ) pdTRUE )
    5412:	69f3      	ldr	r3, [r6, #28]
    5414:	2b01      	cmp	r3, #1
    5416:	d1a8      	bne.n	536a <prvTimerTask+0x66>
							xResult = xTimerGenericCommand( pxTimer, tmrCOMMAND_START_DONT_TRACE, xMessage.u.xTimerParameters.xMessageValue + pxTimer->xTimerPeriodInTicks, NULL, tmrNO_DELAY );
    5418:	9b06      	ldr	r3, [sp, #24]
    541a:	69b1      	ldr	r1, [r6, #24]
    541c:	468c      	mov	ip, r1
    541e:	4463      	add	r3, ip
    5420:	001a      	movs	r2, r3
    5422:	2300      	movs	r3, #0
    5424:	9300      	str	r3, [sp, #0]
    5426:	2100      	movs	r1, #0
    5428:	0030      	movs	r0, r6
    542a:	4c17      	ldr	r4, [pc, #92]	; (5488 <prvTimerTask+0x184>)
    542c:	47a0      	blx	r4
							configASSERT( xResult );
    542e:	2800      	cmp	r0, #0
    5430:	d19b      	bne.n	536a <prvTimerTask+0x66>
    5432:	b672      	cpsid	i
    5434:	e7fe      	b.n	5434 <prvTimerTask+0x130>
					pxTimer->xTimerPeriodInTicks = xMessage.u.xTimerParameters.xMessageValue;
    5436:	9906      	ldr	r1, [sp, #24]
    5438:	61b1      	str	r1, [r6, #24]
					configASSERT( ( pxTimer->xTimerPeriodInTicks > 0 ) );
    543a:	2900      	cmp	r1, #0
    543c:	d006      	beq.n	544c <prvTimerTask+0x148>
					( void ) prvInsertTimerInActiveList( pxTimer, ( xTimeNow + pxTimer->xTimerPeriodInTicks ), xTimeNow, xTimeNow );
    543e:	1841      	adds	r1, r0, r1
    5440:	0003      	movs	r3, r0
    5442:	0002      	movs	r2, r0
    5444:	0030      	movs	r0, r6
    5446:	4c0f      	ldr	r4, [pc, #60]	; (5484 <prvTimerTask+0x180>)
    5448:	47a0      	blx	r4
    544a:	e78e      	b.n	536a <prvTimerTask+0x66>
					configASSERT( ( pxTimer->xTimerPeriodInTicks > 0 ) );
    544c:	b672      	cpsid	i
    544e:	e7fe      	b.n	544e <prvTimerTask+0x14a>
						vPortFree( pxTimer );
    5450:	0030      	movs	r0, r6
    5452:	4b0f      	ldr	r3, [pc, #60]	; (5490 <prvTimerTask+0x18c>)
    5454:	4798      	blx	r3
    5456:	e788      	b.n	536a <prvTimerTask+0x66>
    5458:	00006d51 	.word	0x00006d51
    545c:	00002d47 	.word	0x00002d47
    5460:	200037d4 	.word	0x200037d4
    5464:	000045e5 	.word	0x000045e5
    5468:	0000524d 	.word	0x0000524d
    546c:	200037d8 	.word	0x200037d8
    5470:	20003808 	.word	0x20003808
    5474:	0000413d 	.word	0x0000413d
    5478:	0000478d 	.word	0x0000478d
    547c:	00003ad1 	.word	0x00003ad1
    5480:	0000a710 	.word	0x0000a710
    5484:	000050f1 	.word	0x000050f1
    5488:	000051e1 	.word	0x000051e1
    548c:	00002e71 	.word	0x00002e71
    5490:	00002fd5 	.word	0x00002fd5

00005494 <advance_pointer>:
 };

 #pragma mark - Private Functions -

 static void advance_pointer(cbuf_handle_t cbuf)
 {
    5494:	b510      	push	{r4, lr}
    5496:	0004      	movs	r4, r0
	 //assert(cbuf);

	 if(cbuf->full)
    5498:	7c03      	ldrb	r3, [r0, #16]
    549a:	2b00      	cmp	r3, #0
    549c:	d005      	beq.n	54aa <advance_pointer+0x16>
	 {
		 cbuf->tail = (cbuf->tail + 1) % cbuf->max;
    549e:	6883      	ldr	r3, [r0, #8]
    54a0:	1c58      	adds	r0, r3, #1
    54a2:	68e1      	ldr	r1, [r4, #12]
    54a4:	4b07      	ldr	r3, [pc, #28]	; (54c4 <advance_pointer+0x30>)
    54a6:	4798      	blx	r3
    54a8:	60a1      	str	r1, [r4, #8]
	 }

	 cbuf->head = (cbuf->head + 1) % cbuf->max;
    54aa:	6863      	ldr	r3, [r4, #4]
    54ac:	1c58      	adds	r0, r3, #1
    54ae:	68e1      	ldr	r1, [r4, #12]
    54b0:	4b04      	ldr	r3, [pc, #16]	; (54c4 <advance_pointer+0x30>)
    54b2:	4798      	blx	r3
    54b4:	6061      	str	r1, [r4, #4]

	 // We mark full because we will advance tail on the next time around
	 cbuf->full = (cbuf->head == cbuf->tail);
    54b6:	68a3      	ldr	r3, [r4, #8]
    54b8:	1a59      	subs	r1, r3, r1
    54ba:	424a      	negs	r2, r1
    54bc:	414a      	adcs	r2, r1
    54be:	7422      	strb	r2, [r4, #16]
 }
    54c0:	bd10      	pop	{r4, pc}
    54c2:	46c0      	nop			; (mov r8, r8)
    54c4:	0000700d 	.word	0x0000700d

000054c8 <circular_buf_init>:
 }

 #pragma mark - APIs -

 cbuf_handle_t circular_buf_init(uint8_t* buffer, size_t size)
 {
    54c8:	b570      	push	{r4, r5, r6, lr}
    54ca:	0005      	movs	r5, r0
    54cc:	000c      	movs	r4, r1
	// assert(buffer && size);

	 cbuf_handle_t cbuf = malloc(sizeof(circular_buf_t));
    54ce:	2014      	movs	r0, #20
    54d0:	4b04      	ldr	r3, [pc, #16]	; (54e4 <circular_buf_init+0x1c>)
    54d2:	4798      	blx	r3
	 //assert(cbuf);

	 cbuf->buffer = buffer;
    54d4:	6005      	str	r5, [r0, #0]
	 cbuf->max = size;
    54d6:	60c4      	str	r4, [r0, #12]

 void circular_buf_reset(cbuf_handle_t cbuf)
 {
	// assert(cbuf);

	 cbuf->head = 0;
    54d8:	2300      	movs	r3, #0
    54da:	6043      	str	r3, [r0, #4]
	 cbuf->tail = 0;
    54dc:	6083      	str	r3, [r0, #8]
	 cbuf->full = false;
    54de:	7403      	strb	r3, [r0, #16]
 }
    54e0:	bd70      	pop	{r4, r5, r6, pc}
    54e2:	46c0      	nop			; (mov r8, r8)
    54e4:	00008c9d 	.word	0x00008c9d

000054e8 <circular_buf_put>:

	 return cbuf->max;
 }

 void circular_buf_put(cbuf_handle_t cbuf, uint8_t data)
 {
    54e8:	b510      	push	{r4, lr}
	 //assert(cbuf && cbuf->buffer);

	 cbuf->buffer[cbuf->head] = data;
    54ea:	6803      	ldr	r3, [r0, #0]
    54ec:	6842      	ldr	r2, [r0, #4]
    54ee:	5499      	strb	r1, [r3, r2]

	 advance_pointer(cbuf);
    54f0:	4b01      	ldr	r3, [pc, #4]	; (54f8 <circular_buf_put+0x10>)
    54f2:	4798      	blx	r3
 }
    54f4:	bd10      	pop	{r4, pc}
    54f6:	46c0      	nop			; (mov r8, r8)
    54f8:	00005495 	.word	0x00005495

000054fc <circular_buf_empty>:

 bool circular_buf_empty(cbuf_handle_t cbuf)
 {
	 //assert(cbuf);

	 return (!cbuf->full && (cbuf->head == cbuf->tail));
    54fc:	7c02      	ldrb	r2, [r0, #16]
    54fe:	2300      	movs	r3, #0
    5500:	2a00      	cmp	r2, #0
    5502:	d105      	bne.n	5510 <circular_buf_empty+0x14>
    5504:	6843      	ldr	r3, [r0, #4]
    5506:	6880      	ldr	r0, [r0, #8]
    5508:	1a1b      	subs	r3, r3, r0
    550a:	4258      	negs	r0, r3
    550c:	4143      	adcs	r3, r0
    550e:	b2db      	uxtb	r3, r3
    5510:	0018      	movs	r0, r3
 }
    5512:	4770      	bx	lr

00005514 <circular_buf_get>:
 {
    5514:	b570      	push	{r4, r5, r6, lr}
    5516:	0004      	movs	r4, r0
    5518:	000d      	movs	r5, r1
	 if(!circular_buf_empty(cbuf))
    551a:	4b0a      	ldr	r3, [pc, #40]	; (5544 <circular_buf_get+0x30>)
    551c:	4798      	blx	r3
    551e:	2800      	cmp	r0, #0
    5520:	d10d      	bne.n	553e <circular_buf_get+0x2a>
		 *data = cbuf->buffer[cbuf->tail];
    5522:	6823      	ldr	r3, [r4, #0]
    5524:	68a2      	ldr	r2, [r4, #8]
    5526:	5c9b      	ldrb	r3, [r3, r2]
    5528:	702b      	strb	r3, [r5, #0]
	 cbuf->full = false;
    552a:	2300      	movs	r3, #0
    552c:	7423      	strb	r3, [r4, #16]
	 cbuf->tail = (cbuf->tail + 1) % cbuf->max;
    552e:	68a3      	ldr	r3, [r4, #8]
    5530:	1c58      	adds	r0, r3, #1
    5532:	68e1      	ldr	r1, [r4, #12]
    5534:	4b04      	ldr	r3, [pc, #16]	; (5548 <circular_buf_get+0x34>)
    5536:	4798      	blx	r3
    5538:	60a1      	str	r1, [r4, #8]
		 r = 0;
    553a:	2000      	movs	r0, #0
 }
    553c:	bd70      	pop	{r4, r5, r6, pc}
	 int r = -1;
    553e:	2001      	movs	r0, #1
    5540:	4240      	negs	r0, r0
	 return r;
    5542:	e7fb      	b.n	553c <circular_buf_get+0x28>
    5544:	000054fd 	.word	0x000054fd
    5548:	0000700d 	.word	0x0000700d

0000554c <usart_write_callback>:
* @fn			void usart_write_callback(struct usart_module *const usart_module)
* @brief		Callback called when the system finishes sending all the bytes requested from a UART read job
* @note
*****************************************************************************/
void usart_write_callback(struct usart_module *const usart_module)
{
    554c:	b510      	push	{r4, lr}
	if(circular_buf_get(cbufTx, (uint8_t*) &latestTx) != -1) //Only continue if there are more characters to send
    554e:	4b06      	ldr	r3, [pc, #24]	; (5568 <usart_write_callback+0x1c>)
    5550:	6818      	ldr	r0, [r3, #0]
    5552:	4906      	ldr	r1, [pc, #24]	; (556c <usart_write_callback+0x20>)
    5554:	4b06      	ldr	r3, [pc, #24]	; (5570 <usart_write_callback+0x24>)
    5556:	4798      	blx	r3
    5558:	1c43      	adds	r3, r0, #1
    555a:	d004      	beq.n	5566 <usart_write_callback+0x1a>
	{
		usart_write_buffer_job(&usart_instance, (uint8_t*) &latestTx, 1);
    555c:	2201      	movs	r2, #1
    555e:	4903      	ldr	r1, [pc, #12]	; (556c <usart_write_callback+0x20>)
    5560:	4804      	ldr	r0, [pc, #16]	; (5574 <usart_write_callback+0x28>)
    5562:	4b05      	ldr	r3, [pc, #20]	; (5578 <usart_write_callback+0x2c>)
    5564:	4798      	blx	r3
	}
	
}
    5566:	bd10      	pop	{r4, pc}
    5568:	20004d90 	.word	0x20004d90
    556c:	20004d8c 	.word	0x20004d8c
    5570:	00005515 	.word	0x00005515
    5574:	20004950 	.word	0x20004950
    5578:	000061e1 	.word	0x000061e1

0000557c <usart_read_callback>:
{
    557c:	b510      	push	{r4, lr}
	circular_buf_put(cbufRx, (uint8_t) latestRx); //Add the latest read character into the RX circular Buffer
    557e:	4c07      	ldr	r4, [pc, #28]	; (559c <usart_read_callback+0x20>)
    5580:	7821      	ldrb	r1, [r4, #0]
    5582:	4b07      	ldr	r3, [pc, #28]	; (55a0 <usart_read_callback+0x24>)
    5584:	6818      	ldr	r0, [r3, #0]
    5586:	4b07      	ldr	r3, [pc, #28]	; (55a4 <usart_read_callback+0x28>)
    5588:	4798      	blx	r3
	usart_read_buffer_job(&usart_instance, (uint8_t*) &latestRx, 1);	//Order the MCU to keep reading
    558a:	2201      	movs	r2, #1
    558c:	0021      	movs	r1, r4
    558e:	4806      	ldr	r0, [pc, #24]	; (55a8 <usart_read_callback+0x2c>)
    5590:	4b06      	ldr	r3, [pc, #24]	; (55ac <usart_read_callback+0x30>)
    5592:	4798      	blx	r3
	CliCharReadySemaphoreGiveFromISR(); //Give binary semaphore
    5594:	4b06      	ldr	r3, [pc, #24]	; (55b0 <usart_read_callback+0x34>)
    5596:	4798      	blx	r3
}
    5598:	bd10      	pop	{r4, pc}
    559a:	46c0      	nop			; (mov r8, r8)
    559c:	20004988 	.word	0x20004988
    55a0:	20004984 	.word	0x20004984
    55a4:	000054e9 	.word	0x000054e9
    55a8:	20004950 	.word	0x20004950
    55ac:	00006201 	.word	0x00006201
    55b0:	00000889 	.word	0x00000889

000055b4 <InitializeSerialConsole>:
{
    55b4:	b530      	push	{r4, r5, lr}
    55b6:	b091      	sub	sp, #68	; 0x44
	cbufRx = circular_buf_init((uint8_t*)rxCharacterBuffer, RX_BUFFER_SIZE);
    55b8:	2580      	movs	r5, #128	; 0x80
    55ba:	00ad      	lsls	r5, r5, #2
    55bc:	0029      	movs	r1, r5
    55be:	4836      	ldr	r0, [pc, #216]	; (5698 <InitializeSerialConsole+0xe4>)
    55c0:	4c36      	ldr	r4, [pc, #216]	; (569c <InitializeSerialConsole+0xe8>)
    55c2:	47a0      	blx	r4
    55c4:	4b36      	ldr	r3, [pc, #216]	; (56a0 <InitializeSerialConsole+0xec>)
    55c6:	6018      	str	r0, [r3, #0]
	cbufTx = circular_buf_init((uint8_t*)txCharacterBuffer, RX_BUFFER_SIZE);
    55c8:	0029      	movs	r1, r5
    55ca:	4836      	ldr	r0, [pc, #216]	; (56a4 <InitializeSerialConsole+0xf0>)
    55cc:	47a0      	blx	r4
    55ce:	4b36      	ldr	r3, [pc, #216]	; (56a8 <InitializeSerialConsole+0xf4>)
    55d0:	6018      	str	r0, [r3, #0]
{
	/* Sanity check arguments */
	Assert(config);

	/* Set default config in the config struct */
	config->data_order       = USART_DATAORDER_LSB;
    55d2:	2380      	movs	r3, #128	; 0x80
    55d4:	05db      	lsls	r3, r3, #23
    55d6:	9300      	str	r3, [sp, #0]
	config->transfer_mode    = USART_TRANSFER_ASYNCHRONOUSLY;
    55d8:	2300      	movs	r3, #0
    55da:	9301      	str	r3, [sp, #4]
	config->parity           = USART_PARITY_NONE;
    55dc:	22ff      	movs	r2, #255	; 0xff
    55de:	4669      	mov	r1, sp
    55e0:	810a      	strh	r2, [r1, #8]
	config->stopbits         = USART_STOPBITS_1;
    55e2:	2200      	movs	r2, #0
    55e4:	728b      	strb	r3, [r1, #10]
	config->character_size   = USART_CHARACTER_SIZE_8BIT;
    55e6:	72cb      	strb	r3, [r1, #11]
	config->baudrate         = 9600;
	config->receiver_enable  = true;
    55e8:	2101      	movs	r1, #1
    55ea:	2024      	movs	r0, #36	; 0x24
    55ec:	466c      	mov	r4, sp
    55ee:	5421      	strb	r1, [r4, r0]
	config->transmitter_enable = true;
    55f0:	3001      	adds	r0, #1
    55f2:	5421      	strb	r1, [r4, r0]
	config->clock_polarity_inverted = false;
    55f4:	3125      	adds	r1, #37	; 0x25
    55f6:	5463      	strb	r3, [r4, r1]
	config->use_external_clock = false;
    55f8:	3101      	adds	r1, #1
    55fa:	5463      	strb	r3, [r4, r1]
	config->ext_clock_freq   = 0;
    55fc:	930a      	str	r3, [sp, #40]	; 0x28
	config->mux_setting      = USART_RX_1_TX_2_XCK_3;
	config->run_in_standby   = false;
    55fe:	3105      	adds	r1, #5
    5600:	5463      	strb	r3, [r4, r1]
	config->generator_source = GCLK_GENERATOR_0;
    5602:	3101      	adds	r1, #1
    5604:	5463      	strb	r3, [r4, r1]
	config->pinmux_pad0      = PINMUX_DEFAULT;
	config->pinmux_pad1      = PINMUX_DEFAULT;
	config->pinmux_pad2      = PINMUX_DEFAULT;
	config->pinmux_pad3      = PINMUX_DEFAULT;
#ifdef FEATURE_USART_OVER_SAMPLE
	config->sample_adjustment     = USART_SAMPLE_ADJUSTMENT_7_8_9;
    5606:	9305      	str	r3, [sp, #20]
	config->sample_rate           = USART_SAMPLE_RATE_16X_ARITHMETIC;
    5608:	8223      	strh	r3, [r4, #16]
#endif
#ifdef FEATURE_USART_LIN_SLAVE
	config->lin_slave_enable      = false;
    560a:	76e3      	strb	r3, [r4, #27]
	config->lin_header_delay = LIN_MASTER_HEADER_DELAY_0;
	config->lin_break_length = LIN_MASTER_BREAK_LENGTH_13_BIT;
#endif

#ifdef FEATURE_USART_IMMEDIATE_BUFFER_OVERFLOW_NOTIFICATION
	config->immediate_buffer_overflow_notification  = false;
    560c:	7622      	strb	r2, [r4, #24]
#endif
#ifdef FEATURE_USART_START_FRAME_DECTION
	config->start_frame_detection_enable            = false;
    560e:	7722      	strb	r2, [r4, #28]
#endif
#ifdef FEATURE_USART_IRDA
	config->encoding_format_enable                  = false;
    5610:	7662      	strb	r2, [r4, #25]
	config->receive_pulse_length                    = 19;
    5612:	2313      	movs	r3, #19
    5614:	76a3      	strb	r3, [r4, #26]
	config->iso7816_config.inhibit_nack             = ISO7816_INHIBIT_NACK_DISABLE;
	config->iso7816_config.successive_recv_nack     = ISO7816_SUCCESSIVE_RECV_NACK_DISABLE;
	config->iso7816_config.max_iterations           = 7;
#endif
#ifdef FEATURE_USART_COLLISION_DECTION
	config->collision_detection_enable              = false;
    5616:	7762      	strb	r2, [r4, #29]
	config_usart.baudrate    = 115200;
    5618:	23e1      	movs	r3, #225	; 0xe1
    561a:	025b      	lsls	r3, r3, #9
    561c:	9308      	str	r3, [sp, #32]
	config_usart.mux_setting = EDBG_CDC_SERCOM_MUX_SETTING;
    561e:	23c4      	movs	r3, #196	; 0xc4
    5620:	039b      	lsls	r3, r3, #14
    5622:	9303      	str	r3, [sp, #12]
	config_usart.pinmux_pad0 = EDBG_CDC_SERCOM_PINMUX_PAD0;
    5624:	2301      	movs	r3, #1
    5626:	425b      	negs	r3, r3
    5628:	930c      	str	r3, [sp, #48]	; 0x30
	config_usart.pinmux_pad1 = EDBG_CDC_SERCOM_PINMUX_PAD1;
    562a:	930d      	str	r3, [sp, #52]	; 0x34
	config_usart.pinmux_pad2 = EDBG_CDC_SERCOM_PINMUX_PAD2;
    562c:	4b1f      	ldr	r3, [pc, #124]	; (56ac <InitializeSerialConsole+0xf8>)
    562e:	930e      	str	r3, [sp, #56]	; 0x38
	config_usart.pinmux_pad3 = EDBG_CDC_SERCOM_PINMUX_PAD3;
    5630:	4b1f      	ldr	r3, [pc, #124]	; (56b0 <InitializeSerialConsole+0xfc>)
    5632:	930f      	str	r3, [sp, #60]	; 0x3c
	while (usart_init(&usart_instance,
    5634:	4d1f      	ldr	r5, [pc, #124]	; (56b4 <InitializeSerialConsole+0x100>)
    5636:	4c20      	ldr	r4, [pc, #128]	; (56b8 <InitializeSerialConsole+0x104>)
    5638:	466a      	mov	r2, sp
    563a:	4920      	ldr	r1, [pc, #128]	; (56bc <InitializeSerialConsole+0x108>)
    563c:	0028      	movs	r0, r5
    563e:	47a0      	blx	r4
    5640:	2800      	cmp	r0, #0
    5642:	d1f9      	bne.n	5638 <InitializeSerialConsole+0x84>
	/* Sanity check arguments */
	Assert(module);
	Assert(module->hw);

	/* Get a pointer to the hardware module instance */
	SercomUsart *const usart_hw = &(module->hw->USART);
    5644:	4d1b      	ldr	r5, [pc, #108]	; (56b4 <InitializeSerialConsole+0x100>)
    5646:	682c      	ldr	r4, [r5, #0]

#if USART_CALLBACK_MODE == true
	/* Enable Global interrupt for module */
	system_interrupt_enable(_sercom_get_interrupt_vector(module->hw));
    5648:	0020      	movs	r0, r4
    564a:	4b1d      	ldr	r3, [pc, #116]	; (56c0 <InitializeSerialConsole+0x10c>)
    564c:	4798      	blx	r3
	NVIC->ISER[0] = (uint32_t)(1 << ((uint32_t)vector & 0x0000001f));
    564e:	231f      	movs	r3, #31
    5650:	4018      	ands	r0, r3
    5652:	3b1e      	subs	r3, #30
    5654:	4083      	lsls	r3, r0
    5656:	4a1b      	ldr	r2, [pc, #108]	; (56c4 <InitializeSerialConsole+0x110>)
    5658:	6013      	str	r3, [r2, #0]
	SercomUsart *const usart_hw = &(module->hw->USART);
    565a:	682a      	ldr	r2, [r5, #0]
	return (usart_hw->SYNCBUSY.reg);
    565c:	69d3      	ldr	r3, [r2, #28]
	while (usart_is_syncing(module)) {
    565e:	2b00      	cmp	r3, #0
    5660:	d1fc      	bne.n	565c <InitializeSerialConsole+0xa8>

	/* Wait until synchronization is complete */
	_usart_wait_for_sync(module);

	/* Enable USART module */
	usart_hw->CTRLA.reg |= SERCOM_USART_CTRLA_ENABLE;
    5662:	6823      	ldr	r3, [r4, #0]
    5664:	2202      	movs	r2, #2
    5666:	4313      	orrs	r3, r2
    5668:	6023      	str	r3, [r4, #0]
	usart_register_callback(&usart_instance,
    566a:	4c12      	ldr	r4, [pc, #72]	; (56b4 <InitializeSerialConsole+0x100>)
    566c:	2200      	movs	r2, #0
    566e:	4916      	ldr	r1, [pc, #88]	; (56c8 <InitializeSerialConsole+0x114>)
    5670:	0020      	movs	r0, r4
    5672:	4d16      	ldr	r5, [pc, #88]	; (56cc <InitializeSerialConsole+0x118>)
    5674:	47a8      	blx	r5
	usart_register_callback(&usart_instance,
    5676:	2201      	movs	r2, #1
    5678:	4915      	ldr	r1, [pc, #84]	; (56d0 <InitializeSerialConsole+0x11c>)
    567a:	0020      	movs	r0, r4
    567c:	47a8      	blx	r5
{
	/* Sanity check arguments */
	Assert(module);

	/* Enable callback */
	module->callback_enable_mask |= (1 << callback_type);
    567e:	2231      	movs	r2, #49	; 0x31
    5680:	5ca3      	ldrb	r3, [r4, r2]
    5682:	2103      	movs	r1, #3
    5684:	430b      	orrs	r3, r1
    5686:	54a3      	strb	r3, [r4, r2]
	usart_read_buffer_job(&usart_instance, (uint8_t*) &latestRx, 1);	//Kicks off constant reading of characters
    5688:	3a30      	subs	r2, #48	; 0x30
    568a:	4912      	ldr	r1, [pc, #72]	; (56d4 <InitializeSerialConsole+0x120>)
    568c:	0020      	movs	r0, r4
    568e:	4b12      	ldr	r3, [pc, #72]	; (56d8 <InitializeSerialConsole+0x124>)
    5690:	4798      	blx	r3
}
    5692:	b011      	add	sp, #68	; 0x44
    5694:	bd30      	pop	{r4, r5, pc}
    5696:	46c0      	nop			; (mov r8, r8)
    5698:	20004b8c 	.word	0x20004b8c
    569c:	000054c9 	.word	0x000054c9
    56a0:	20004984 	.word	0x20004984
    56a4:	2000498c 	.word	0x2000498c
    56a8:	20004d90 	.word	0x20004d90
    56ac:	002a0003 	.word	0x002a0003
    56b0:	002b0003 	.word	0x002b0003
    56b4:	20004950 	.word	0x20004950
    56b8:	00005df9 	.word	0x00005df9
    56bc:	42001800 	.word	0x42001800
    56c0:	00005d69 	.word	0x00005d69
    56c4:	e000e100 	.word	0xe000e100
    56c8:	0000554d 	.word	0x0000554d
    56cc:	000061c9 	.word	0x000061c9
    56d0:	0000557d 	.word	0x0000557d
    56d4:	20004988 	.word	0x20004988
    56d8:	00006201 	.word	0x00006201

000056dc <SerialConsoleWriteString>:
{
    56dc:	b5f0      	push	{r4, r5, r6, r7, lr}
    56de:	46c6      	mov	lr, r8
    56e0:	b500      	push	{lr}
    56e2:	0005      	movs	r5, r0
vTaskSuspendAll();
    56e4:	4b14      	ldr	r3, [pc, #80]	; (5738 <SerialConsoleWriteString+0x5c>)
    56e6:	4798      	blx	r3
    56e8:	2400      	movs	r4, #0
	if(string != NULL)
    56ea:	2d00      	cmp	r5, #0
    56ec:	d012      	beq.n	5714 <SerialConsoleWriteString+0x38>
		for (size_t iter = 0; iter < strlen(string); iter++)
    56ee:	4e13      	ldr	r6, [pc, #76]	; (573c <SerialConsoleWriteString+0x60>)
			circular_buf_put(cbufTx, string[iter]);
    56f0:	4f13      	ldr	r7, [pc, #76]	; (5740 <SerialConsoleWriteString+0x64>)
    56f2:	4b14      	ldr	r3, [pc, #80]	; (5744 <SerialConsoleWriteString+0x68>)
    56f4:	4698      	mov	r8, r3
    56f6:	e003      	b.n	5700 <SerialConsoleWriteString+0x24>
    56f8:	5d29      	ldrb	r1, [r5, r4]
    56fa:	6838      	ldr	r0, [r7, #0]
    56fc:	47c0      	blx	r8
		for (size_t iter = 0; iter < strlen(string); iter++)
    56fe:	3401      	adds	r4, #1
    5700:	0028      	movs	r0, r5
    5702:	47b0      	blx	r6
    5704:	4284      	cmp	r4, r0
    5706:	d3f7      	bcc.n	56f8 <SerialConsoleWriteString+0x1c>
		if(usart_get_job_status(&usart_instance, USART_TRANSCEIVER_TX) == STATUS_OK)
    5708:	2101      	movs	r1, #1
    570a:	480f      	ldr	r0, [pc, #60]	; (5748 <SerialConsoleWriteString+0x6c>)
    570c:	4b0f      	ldr	r3, [pc, #60]	; (574c <SerialConsoleWriteString+0x70>)
    570e:	4798      	blx	r3
    5710:	2800      	cmp	r0, #0
    5712:	d004      	beq.n	571e <SerialConsoleWriteString+0x42>
xTaskResumeAll();
    5714:	4b0e      	ldr	r3, [pc, #56]	; (5750 <SerialConsoleWriteString+0x74>)
    5716:	4798      	blx	r3
}
    5718:	bc04      	pop	{r2}
    571a:	4690      	mov	r8, r2
    571c:	bdf0      	pop	{r4, r5, r6, r7, pc}
			circular_buf_get(cbufTx, (uint8_t*) &latestTx); //Perform only if the SERCOM TX is free (not busy)
    571e:	4c0d      	ldr	r4, [pc, #52]	; (5754 <SerialConsoleWriteString+0x78>)
    5720:	4b07      	ldr	r3, [pc, #28]	; (5740 <SerialConsoleWriteString+0x64>)
    5722:	6818      	ldr	r0, [r3, #0]
    5724:	0021      	movs	r1, r4
    5726:	4b0c      	ldr	r3, [pc, #48]	; (5758 <SerialConsoleWriteString+0x7c>)
    5728:	4798      	blx	r3
			usart_write_buffer_job(&usart_instance, (uint8_t*) &latestTx, 1);
    572a:	2201      	movs	r2, #1
    572c:	0021      	movs	r1, r4
    572e:	4806      	ldr	r0, [pc, #24]	; (5748 <SerialConsoleWriteString+0x6c>)
    5730:	4b0a      	ldr	r3, [pc, #40]	; (575c <SerialConsoleWriteString+0x80>)
    5732:	4798      	blx	r3
    5734:	e7ee      	b.n	5714 <SerialConsoleWriteString+0x38>
    5736:	46c0      	nop			; (mov r8, r8)
    5738:	000045e5 	.word	0x000045e5
    573c:	00008f2d 	.word	0x00008f2d
    5740:	20004d90 	.word	0x20004d90
    5744:	000054e9 	.word	0x000054e9
    5748:	20004950 	.word	0x20004950
    574c:	00006221 	.word	0x00006221
    5750:	0000478d 	.word	0x0000478d
    5754:	20004d8c 	.word	0x20004d8c
    5758:	00005515 	.word	0x00005515
    575c:	000061e1 	.word	0x000061e1

00005760 <SerialConsoleReadCharacter>:
{
    5760:	b510      	push	{r4, lr}
    5762:	0004      	movs	r4, r0
	vTaskSuspendAll();
    5764:	4b05      	ldr	r3, [pc, #20]	; (577c <SerialConsoleReadCharacter+0x1c>)
    5766:	4798      	blx	r3
	int a = circular_buf_get(cbufRx, (uint8_t*) rxChar);
    5768:	4b05      	ldr	r3, [pc, #20]	; (5780 <SerialConsoleReadCharacter+0x20>)
    576a:	6818      	ldr	r0, [r3, #0]
    576c:	0021      	movs	r1, r4
    576e:	4b05      	ldr	r3, [pc, #20]	; (5784 <SerialConsoleReadCharacter+0x24>)
    5770:	4798      	blx	r3
    5772:	0004      	movs	r4, r0
	xTaskResumeAll();
    5774:	4b04      	ldr	r3, [pc, #16]	; (5788 <SerialConsoleReadCharacter+0x28>)
    5776:	4798      	blx	r3
}
    5778:	0020      	movs	r0, r4
    577a:	bd10      	pop	{r4, pc}
    577c:	000045e5 	.word	0x000045e5
    5780:	20004984 	.word	0x20004984
    5784:	00005515 	.word	0x00005515
    5788:	0000478d 	.word	0x0000478d

0000578c <LogMessage>:
{
    578c:	b40e      	push	{r1, r2, r3}
    578e:	b530      	push	{r4, r5, lr}
    5790:	b082      	sub	sp, #8
return currentDebugLevel;
    5792:	4b0a      	ldr	r3, [pc, #40]	; (57bc <LogMessage+0x30>)
if(getLogLevel() <= level){
    5794:	781b      	ldrb	r3, [r3, #0]
    5796:	4283      	cmp	r3, r0
    5798:	d904      	bls.n	57a4 <LogMessage+0x18>
};
    579a:	b002      	add	sp, #8
    579c:	bc30      	pop	{r4, r5}
    579e:	bc08      	pop	{r3}
    57a0:	b003      	add	sp, #12
    57a2:	4718      	bx	r3
	va_start(ap, format);
    57a4:	ab06      	add	r3, sp, #24
    57a6:	9301      	str	r3, [sp, #4]
	vsnprintf(debugBuffer, 127, format, ap);
    57a8:	4c05      	ldr	r4, [pc, #20]	; (57c0 <LogMessage+0x34>)
    57aa:	9a05      	ldr	r2, [sp, #20]
    57ac:	217f      	movs	r1, #127	; 0x7f
    57ae:	0020      	movs	r0, r4
    57b0:	4d04      	ldr	r5, [pc, #16]	; (57c4 <LogMessage+0x38>)
    57b2:	47a8      	blx	r5
	SerialConsoleWriteString(debugBuffer);
    57b4:	0020      	movs	r0, r4
    57b6:	4b04      	ldr	r3, [pc, #16]	; (57c8 <LogMessage+0x3c>)
    57b8:	4798      	blx	r3
};
    57ba:	e7ee      	b.n	579a <LogMessage+0xe>
    57bc:	20003810 	.word	0x20003810
    57c0:	200048d0 	.word	0x200048d0
    57c4:	00008fdd 	.word	0x00008fdd
    57c8:	000056dd 	.word	0x000056dd

000057cc <cpu_irq_enter_critical>:
volatile bool g_interrupt_enabled = true;
#endif

void cpu_irq_enter_critical(void)
{
	if (cpu_irq_critical_section_counter == 0) {
    57cc:	4b0c      	ldr	r3, [pc, #48]	; (5800 <cpu_irq_enter_critical+0x34>)
    57ce:	681b      	ldr	r3, [r3, #0]
    57d0:	2b00      	cmp	r3, #0
    57d2:	d106      	bne.n	57e2 <cpu_irq_enter_critical+0x16>
  __ASM volatile ("MRS %0, primask" : "=r" (result) );
    57d4:	f3ef 8310 	mrs	r3, PRIMASK
		if (cpu_irq_is_enabled()) {
    57d8:	2b00      	cmp	r3, #0
    57da:	d007      	beq.n	57ec <cpu_irq_enter_critical+0x20>
			cpu_irq_disable();
			cpu_irq_prev_interrupt_state = true;
		} else {
			/* Make sure the to save the prev state as false */
			cpu_irq_prev_interrupt_state = false;
    57dc:	2200      	movs	r2, #0
    57de:	4b09      	ldr	r3, [pc, #36]	; (5804 <cpu_irq_enter_critical+0x38>)
    57e0:	701a      	strb	r2, [r3, #0]
		}

	}

	cpu_irq_critical_section_counter++;
    57e2:	4a07      	ldr	r2, [pc, #28]	; (5800 <cpu_irq_enter_critical+0x34>)
    57e4:	6813      	ldr	r3, [r2, #0]
    57e6:	3301      	adds	r3, #1
    57e8:	6013      	str	r3, [r2, #0]
}
    57ea:	4770      	bx	lr
  __ASM volatile ("cpsid i" : : : "memory");
    57ec:	b672      	cpsid	i
    This function ensures the apparent order of the explicit memory operations before
    and after the instruction, without ensuring their completion.
 */
__attribute__( ( always_inline ) ) __STATIC_INLINE void __DMB(void)
{
  __ASM volatile ("dmb");
    57ee:	f3bf 8f5f 	dmb	sy
			cpu_irq_disable();
    57f2:	2200      	movs	r2, #0
    57f4:	4b04      	ldr	r3, [pc, #16]	; (5808 <cpu_irq_enter_critical+0x3c>)
    57f6:	701a      	strb	r2, [r3, #0]
			cpu_irq_prev_interrupt_state = true;
    57f8:	3201      	adds	r2, #1
    57fa:	4b02      	ldr	r3, [pc, #8]	; (5804 <cpu_irq_enter_critical+0x38>)
    57fc:	701a      	strb	r2, [r3, #0]
    57fe:	e7f0      	b.n	57e2 <cpu_irq_enter_critical+0x16>
    5800:	20003814 	.word	0x20003814
    5804:	20003818 	.word	0x20003818
    5808:	2000002c 	.word	0x2000002c

0000580c <cpu_irq_leave_critical>:
void cpu_irq_leave_critical(void)
{
	/* Check if the user is trying to leave a critical section when not in a critical section */
	Assert(cpu_irq_critical_section_counter > 0);

	cpu_irq_critical_section_counter--;
    580c:	4b08      	ldr	r3, [pc, #32]	; (5830 <cpu_irq_leave_critical+0x24>)
    580e:	681a      	ldr	r2, [r3, #0]
    5810:	3a01      	subs	r2, #1
    5812:	601a      	str	r2, [r3, #0]

	/* Only enable global interrupts when the counter reaches 0 and the state of the global interrupt flag
	   was enabled when entering critical state */
	if ((cpu_irq_critical_section_counter == 0) && (cpu_irq_prev_interrupt_state)) {
    5814:	681b      	ldr	r3, [r3, #0]
    5816:	2b00      	cmp	r3, #0
    5818:	d109      	bne.n	582e <cpu_irq_leave_critical+0x22>
    581a:	4b06      	ldr	r3, [pc, #24]	; (5834 <cpu_irq_leave_critical+0x28>)
    581c:	781b      	ldrb	r3, [r3, #0]
    581e:	2b00      	cmp	r3, #0
    5820:	d005      	beq.n	582e <cpu_irq_leave_critical+0x22>
		cpu_irq_enable();
    5822:	2201      	movs	r2, #1
    5824:	4b04      	ldr	r3, [pc, #16]	; (5838 <cpu_irq_leave_critical+0x2c>)
    5826:	701a      	strb	r2, [r3, #0]
    5828:	f3bf 8f5f 	dmb	sy
  __ASM volatile ("cpsie i" : : : "memory");
    582c:	b662      	cpsie	i
	}
}
    582e:	4770      	bx	lr
    5830:	20003814 	.word	0x20003814
    5834:	20003818 	.word	0x20003818
    5838:	2000002c 	.word	0x2000002c

0000583c <system_board_init>:
void board_init(void);
#  pragma weak board_init=system_board_init
#endif

void system_board_init(void)
{
    583c:	b5f0      	push	{r4, r5, r6, r7, lr}
    583e:	b083      	sub	sp, #12
	/* Sanity check arguments */
	Assert(config);

	/* Default configuration values */
	config->direction  = PORT_PIN_DIR_INPUT;
	config->input_pull = PORT_PIN_PULL_UP;
    5840:	ac01      	add	r4, sp, #4
    5842:	2501      	movs	r5, #1
    5844:	7065      	strb	r5, [r4, #1]
	config->powersave  = false;
    5846:	2700      	movs	r7, #0
    5848:	70a7      	strb	r7, [r4, #2]
	struct port_config pin_conf;
	port_get_config_defaults(&pin_conf);

	/* Configure LEDs as outputs, turn them off */
	pin_conf.direction  = PORT_PIN_DIR_OUTPUT;
    584a:	7025      	strb	r5, [r4, #0]
	port_pin_set_config(LED_0_PIN, &pin_conf);
    584c:	0021      	movs	r1, r4
    584e:	2017      	movs	r0, #23
    5850:	4e06      	ldr	r6, [pc, #24]	; (586c <system_board_init+0x30>)
    5852:	47b0      	blx	r6
	PortGroup *const port_base = port_get_group_from_gpio_pin(gpio_pin);
	uint32_t pin_mask  = (1UL << (gpio_pin % 32));

	/* Set the pin to high or low atomically based on the requested level */
	if (level) {
		port_base->OUTSET.reg = pin_mask;
    5854:	2280      	movs	r2, #128	; 0x80
    5856:	0412      	lsls	r2, r2, #16
    5858:	4b05      	ldr	r3, [pc, #20]	; (5870 <system_board_init+0x34>)
    585a:	619a      	str	r2, [r3, #24]
	port_pin_set_output_level(LED_0_PIN, LED_0_INACTIVE);
	
	/* Set buttons as inputs */
	pin_conf.direction  = PORT_PIN_DIR_INPUT;
    585c:	7027      	strb	r7, [r4, #0]
	pin_conf.input_pull = PORT_PIN_PULL_UP;
    585e:	7065      	strb	r5, [r4, #1]
	port_pin_set_config(BUTTON_0_PIN, &pin_conf);
    5860:	0021      	movs	r1, r4
    5862:	2037      	movs	r0, #55	; 0x37
    5864:	47b0      	blx	r6
}
    5866:	b003      	add	sp, #12
    5868:	bdf0      	pop	{r4, r5, r6, r7, pc}
    586a:	46c0      	nop			; (mov r8, r8)
    586c:	0000594d 	.word	0x0000594d
    5870:	41004400 	.word	0x41004400

00005874 <EIC_Handler>:
	return _current_channel;
}

/** Handler for the EXTINT hardware module interrupt. */
void EIC_Handler(void)
{
    5874:	b570      	push	{r4, r5, r6, lr}
	/* Find any triggered channels, run associated callback handlers */
	for (_current_channel = 0; _current_channel < EIC_NUMBER_OF_INTERRUPTS ; _current_channel++) {
    5876:	2200      	movs	r2, #0
    5878:	4b10      	ldr	r3, [pc, #64]	; (58bc <EIC_Handler+0x48>)
    587a:	701a      	strb	r2, [r3, #0]
    587c:	2300      	movs	r3, #0

	if (eic_index < EIC_INST_NUM) {
		/* Array of available EICs */
		Eic *const eics[EIC_INST_NUM] = EIC_INSTS;

		return eics[eic_index];
    587e:	4910      	ldr	r1, [pc, #64]	; (58c0 <EIC_Handler+0x4c>)
 */
static inline bool extint_chan_is_detected(
		const uint8_t channel)
{
	Eic *const eic_module = _extint_get_eic_from_channel(channel);
	uint32_t eic_mask   = (1UL << (channel % 32));
    5880:	251f      	movs	r5, #31
		if (extint_chan_is_detected(_current_channel)) {
			/* Clear flag */
			extint_chan_clear_detected(_current_channel);
			/* Find any associated callback entries in the callback table */
			if (_extint_dev.callbacks[_current_channel] != NULL) {
    5882:	4e10      	ldr	r6, [pc, #64]	; (58c4 <EIC_Handler+0x50>)
	for (_current_channel = 0; _current_channel < EIC_NUMBER_OF_INTERRUPTS ; _current_channel++) {
    5884:	4c0d      	ldr	r4, [pc, #52]	; (58bc <EIC_Handler+0x48>)
    5886:	e00a      	b.n	589e <EIC_Handler+0x2a>
		return eics[eic_index];
    5888:	490d      	ldr	r1, [pc, #52]	; (58c0 <EIC_Handler+0x4c>)
    588a:	e008      	b.n	589e <EIC_Handler+0x2a>
    588c:	7823      	ldrb	r3, [r4, #0]
    588e:	3301      	adds	r3, #1
    5890:	b2db      	uxtb	r3, r3
    5892:	7023      	strb	r3, [r4, #0]
    5894:	2b0f      	cmp	r3, #15
    5896:	d810      	bhi.n	58ba <EIC_Handler+0x46>
		return NULL;
    5898:	2100      	movs	r1, #0
	if (eic_index < EIC_INST_NUM) {
    589a:	2b1f      	cmp	r3, #31
    589c:	d9f4      	bls.n	5888 <EIC_Handler+0x14>
	uint32_t eic_mask   = (1UL << (channel % 32));
    589e:	0028      	movs	r0, r5
    58a0:	4018      	ands	r0, r3
    58a2:	2201      	movs	r2, #1
    58a4:	4082      	lsls	r2, r0

	return (eic_module->INTFLAG.reg & eic_mask);
    58a6:	6908      	ldr	r0, [r1, #16]
		if (extint_chan_is_detected(_current_channel)) {
    58a8:	4210      	tst	r0, r2
    58aa:	d0ef      	beq.n	588c <EIC_Handler+0x18>
		const uint8_t channel)
{
	Eic *const eic_module = _extint_get_eic_from_channel(channel);
	uint32_t eic_mask   = (1UL << (channel % 32));

	eic_module->INTFLAG.reg = eic_mask;
    58ac:	610a      	str	r2, [r1, #16]
			if (_extint_dev.callbacks[_current_channel] != NULL) {
    58ae:	009b      	lsls	r3, r3, #2
    58b0:	599b      	ldr	r3, [r3, r6]
    58b2:	2b00      	cmp	r3, #0
    58b4:	d0ea      	beq.n	588c <EIC_Handler+0x18>
				/* Run the registered callback */
				_extint_dev.callbacks[_current_channel]();
    58b6:	4798      	blx	r3
    58b8:	e7e8      	b.n	588c <EIC_Handler+0x18>
			}
		}
	}
}
    58ba:	bd70      	pop	{r4, r5, r6, pc}
    58bc:	20004d94 	.word	0x20004d94
    58c0:	40001800 	.word	0x40001800
    58c4:	20004d98 	.word	0x20004d98

000058c8 <_extint_enable>:
{
	Eic *const eics[EIC_INST_NUM] = EIC_INSTS;

	/* Enable all EIC hardware modules. */
	for (uint32_t i = 0; i < EIC_INST_NUM; i++) {
		eics[i]->CTRL.reg |= EIC_CTRL_ENABLE;
    58c8:	4a04      	ldr	r2, [pc, #16]	; (58dc <_extint_enable+0x14>)
    58ca:	7813      	ldrb	r3, [r2, #0]
    58cc:	2102      	movs	r1, #2
    58ce:	430b      	orrs	r3, r1
    58d0:	7013      	strb	r3, [r2, #0]
		if (eics[i]->STATUS.reg & EIC_STATUS_SYNCBUSY) {
    58d2:	7853      	ldrb	r3, [r2, #1]
    58d4:	b25b      	sxtb	r3, r3
    58d6:	2b00      	cmp	r3, #0
    58d8:	dbfb      	blt.n	58d2 <_extint_enable+0xa>
	}

	while (extint_is_syncing()) {
		/* Wait for all hardware modules to complete synchronization */
	}
}
    58da:	4770      	bx	lr
    58dc:	40001800 	.word	0x40001800

000058e0 <_system_extint_init>:
{
    58e0:	b500      	push	{lr}
    58e2:	b083      	sub	sp, #12
			PM->APBAMASK.reg |= mask;
    58e4:	4a12      	ldr	r2, [pc, #72]	; (5930 <_system_extint_init+0x50>)
    58e6:	6993      	ldr	r3, [r2, #24]
    58e8:	2140      	movs	r1, #64	; 0x40
    58ea:	430b      	orrs	r3, r1
    58ec:	6193      	str	r3, [r2, #24]
{
	/* Sanity check arguments */
	Assert(config);

	/* Default configuration values */
	config->source_generator = GCLK_GENERATOR_0;
    58ee:	a901      	add	r1, sp, #4
    58f0:	2300      	movs	r3, #0
    58f2:	700b      	strb	r3, [r1, #0]
	system_gclk_chan_set_config(EIC_GCLK_ID, &gclk_chan_conf);
    58f4:	2005      	movs	r0, #5
    58f6:	4b0f      	ldr	r3, [pc, #60]	; (5934 <_system_extint_init+0x54>)
    58f8:	4798      	blx	r3
	system_gclk_chan_enable(EIC_GCLK_ID);
    58fa:	2005      	movs	r0, #5
    58fc:	4b0e      	ldr	r3, [pc, #56]	; (5938 <_system_extint_init+0x58>)
    58fe:	4798      	blx	r3
		eics[i]->CTRL.reg |= EIC_CTRL_SWRST;
    5900:	4a0e      	ldr	r2, [pc, #56]	; (593c <_system_extint_init+0x5c>)
    5902:	7813      	ldrb	r3, [r2, #0]
    5904:	2101      	movs	r1, #1
    5906:	430b      	orrs	r3, r1
    5908:	7013      	strb	r3, [r2, #0]
		if (eics[i]->STATUS.reg & EIC_STATUS_SYNCBUSY) {
    590a:	7853      	ldrb	r3, [r2, #1]
    590c:	b25b      	sxtb	r3, r3
    590e:	2b00      	cmp	r3, #0
    5910:	dbfb      	blt.n	590a <_system_extint_init+0x2a>
    5912:	4b0b      	ldr	r3, [pc, #44]	; (5940 <_system_extint_init+0x60>)
    5914:	0019      	movs	r1, r3
    5916:	3140      	adds	r1, #64	; 0x40
		_extint_dev.callbacks[j] = NULL;
    5918:	2200      	movs	r2, #0
    591a:	c304      	stmia	r3!, {r2}
	for (uint8_t j = 0; j < EIC_NUMBER_OF_INTERRUPTS; j++) {
    591c:	4299      	cmp	r1, r3
    591e:	d1fc      	bne.n	591a <_system_extint_init+0x3a>
    5920:	2210      	movs	r2, #16
    5922:	4b08      	ldr	r3, [pc, #32]	; (5944 <_system_extint_init+0x64>)
    5924:	601a      	str	r2, [r3, #0]
	_extint_enable();
    5926:	4b08      	ldr	r3, [pc, #32]	; (5948 <_system_extint_init+0x68>)
    5928:	4798      	blx	r3
}
    592a:	b003      	add	sp, #12
    592c:	bd00      	pop	{pc}
    592e:	46c0      	nop			; (mov r8, r8)
    5930:	40000400 	.word	0x40000400
    5934:	0000699d 	.word	0x0000699d
    5938:	00006911 	.word	0x00006911
    593c:	40001800 	.word	0x40001800
    5940:	20004d98 	.word	0x20004d98
    5944:	e000e100 	.word	0xe000e100
    5948:	000058c9 	.word	0x000058c9

0000594c <port_pin_set_config>:
 *  \param[in] config    Configuration settings for the pin
 */
void port_pin_set_config(
		const uint8_t gpio_pin,
		const struct port_config *const config)
{
    594c:	b500      	push	{lr}
    594e:	b083      	sub	sp, #12
	config->mux_position = SYSTEM_PINMUX_GPIO;
    5950:	ab01      	add	r3, sp, #4
    5952:	2280      	movs	r2, #128	; 0x80
    5954:	701a      	strb	r2, [r3, #0]

	struct system_pinmux_config pinmux_config;
	system_pinmux_get_config_defaults(&pinmux_config);

	pinmux_config.mux_position = SYSTEM_PINMUX_GPIO;
	pinmux_config.direction    = (enum system_pinmux_pin_dir)config->direction;
    5956:	780a      	ldrb	r2, [r1, #0]
    5958:	705a      	strb	r2, [r3, #1]
	pinmux_config.input_pull   = (enum system_pinmux_pin_pull)config->input_pull;
    595a:	784a      	ldrb	r2, [r1, #1]
    595c:	709a      	strb	r2, [r3, #2]
	pinmux_config.powersave    = config->powersave;
    595e:	788a      	ldrb	r2, [r1, #2]
    5960:	70da      	strb	r2, [r3, #3]

	system_pinmux_pin_set_config(gpio_pin, &pinmux_config);
    5962:	0019      	movs	r1, r3
    5964:	4b01      	ldr	r3, [pc, #4]	; (596c <port_pin_set_config+0x20>)
    5966:	4798      	blx	r3
}
    5968:	b003      	add	sp, #12
    596a:	bd00      	pop	{pc}
    596c:	00006ac5 	.word	0x00006ac5

00005970 <RTC_Handler>:
/**
 * \internal ISR handler for RTC
 */
#if (RTC_INST_NUM == 1)
void RTC_Handler(void)
{
    5970:	b510      	push	{r4, lr}
	struct rtc_module *module = _rtc_instance[instance_index];
    5972:	4b0f      	ldr	r3, [pc, #60]	; (59b0 <RTC_Handler+0x40>)
    5974:	681a      	ldr	r2, [r3, #0]
	Rtc *const rtc_module = module->hw;
    5976:	6814      	ldr	r4, [r2, #0]
	uint16_t callback_mask = module->enabled_callback;
    5978:	8a51      	ldrh	r1, [r2, #18]
	callback_mask &= module->registered_callback;
    597a:	8a13      	ldrh	r3, [r2, #16]
    597c:	4019      	ands	r1, r3
	uint16_t interrupt_status = rtc_module->MODE2.INTFLAG.reg;
    597e:	7a20      	ldrb	r0, [r4, #8]
	interrupt_status &= rtc_module->MODE2.INTENSET.reg;
    5980:	79e3      	ldrb	r3, [r4, #7]
    5982:	4003      	ands	r3, r0
	if (interrupt_status & RTC_MODE2_INTFLAG_OVF) {
    5984:	b258      	sxtb	r0, r3
    5986:	2800      	cmp	r0, #0
    5988:	db06      	blt.n	5998 <RTC_Handler+0x28>
	} else if (interrupt_status & RTC_MODE2_INTFLAG_ALARM(1 << 0)) {
    598a:	07db      	lsls	r3, r3, #31
    598c:	d503      	bpl.n	5996 <RTC_Handler+0x26>
		if (callback_mask & (1 << RTC_CALENDAR_CALLBACK_ALARM_0)) {
    598e:	07cb      	lsls	r3, r1, #31
    5990:	d40a      	bmi.n	59a8 <RTC_Handler+0x38>
		rtc_module->MODE2.INTFLAG.reg = RTC_MODE2_INTFLAG_ALARM(1 << 0);
    5992:	2301      	movs	r3, #1
    5994:	7223      	strb	r3, [r4, #8]
	_rtc_interrupt_handler(0);
}
    5996:	bd10      	pop	{r4, pc}
		if (callback_mask & (1 << RTC_CALENDAR_CALLBACK_OVERFLOW)) {
    5998:	078b      	lsls	r3, r1, #30
    599a:	d402      	bmi.n	59a2 <RTC_Handler+0x32>
		rtc_module->MODE2.INTFLAG.reg = RTC_MODE2_INTFLAG_OVF;
    599c:	2380      	movs	r3, #128	; 0x80
    599e:	7223      	strb	r3, [r4, #8]
    59a0:	e7f9      	b.n	5996 <RTC_Handler+0x26>
			module->callbacks[RTC_CALENDAR_CALLBACK_OVERFLOW]();
    59a2:	68d3      	ldr	r3, [r2, #12]
    59a4:	4798      	blx	r3
    59a6:	e7f9      	b.n	599c <RTC_Handler+0x2c>
			module->callbacks[RTC_CALENDAR_CALLBACK_ALARM_0]();
    59a8:	6893      	ldr	r3, [r2, #8]
    59aa:	4798      	blx	r3
    59ac:	e7f1      	b.n	5992 <RTC_Handler+0x22>
    59ae:	46c0      	nop			; (mov r8, r8)
    59b0:	20004dd8 	.word	0x20004dd8

000059b4 <long_division>:
/**
 * \internal Calculate 64 bit division, ref can be found in
 * http://en.wikipedia.org/wiki/Division_algorithm#Long_division
 */
static uint64_t long_division(uint64_t n, uint64_t d)
{
    59b4:	b5f0      	push	{r4, r5, r6, r7, lr}
    59b6:	46de      	mov	lr, fp
    59b8:	4657      	mov	r7, sl
    59ba:	464e      	mov	r6, r9
    59bc:	4645      	mov	r5, r8
    59be:	b5e0      	push	{r5, r6, r7, lr}
    59c0:	b087      	sub	sp, #28
    59c2:	4680      	mov	r8, r0
    59c4:	9104      	str	r1, [sp, #16]
    59c6:	0016      	movs	r6, r2
    59c8:	001f      	movs	r7, r3
	int32_t i;
	uint64_t q = 0, r = 0, bit_shift;
    59ca:	2200      	movs	r2, #0
    59cc:	2300      	movs	r3, #0
    59ce:	2100      	movs	r1, #0
    59d0:	468b      	mov	fp, r1
	for (i = 63; i >= 0; i--) {
    59d2:	243f      	movs	r4, #63	; 0x3f
		bit_shift = (uint64_t)1 << i;
    59d4:	2001      	movs	r0, #1
    59d6:	0021      	movs	r1, r4
    59d8:	9600      	str	r6, [sp, #0]
    59da:	9701      	str	r7, [sp, #4]
    59dc:	465c      	mov	r4, fp
    59de:	9403      	str	r4, [sp, #12]
    59e0:	4644      	mov	r4, r8
    59e2:	9405      	str	r4, [sp, #20]
    59e4:	e013      	b.n	5a0e <long_division+0x5a>
    59e6:	2420      	movs	r4, #32
    59e8:	1a64      	subs	r4, r4, r1
    59ea:	0005      	movs	r5, r0
    59ec:	40e5      	lsrs	r5, r4
    59ee:	46a8      	mov	r8, r5
    59f0:	e014      	b.n	5a1c <long_division+0x68>
		if (n & bit_shift) {
			r |= 0x01;
		}

		if (r >= d) {
			r = r - d;
    59f2:	9c00      	ldr	r4, [sp, #0]
    59f4:	9d01      	ldr	r5, [sp, #4]
    59f6:	1b12      	subs	r2, r2, r4
    59f8:	41ab      	sbcs	r3, r5
			q |= bit_shift;
    59fa:	465c      	mov	r4, fp
    59fc:	464d      	mov	r5, r9
    59fe:	432c      	orrs	r4, r5
    5a00:	46a3      	mov	fp, r4
    5a02:	9c03      	ldr	r4, [sp, #12]
    5a04:	4645      	mov	r5, r8
    5a06:	432c      	orrs	r4, r5
    5a08:	9403      	str	r4, [sp, #12]
	for (i = 63; i >= 0; i--) {
    5a0a:	3901      	subs	r1, #1
    5a0c:	d325      	bcc.n	5a5a <long_division+0xa6>
		bit_shift = (uint64_t)1 << i;
    5a0e:	2420      	movs	r4, #32
    5a10:	4264      	negs	r4, r4
    5a12:	190c      	adds	r4, r1, r4
    5a14:	d4e7      	bmi.n	59e6 <long_division+0x32>
    5a16:	0005      	movs	r5, r0
    5a18:	40a5      	lsls	r5, r4
    5a1a:	46a8      	mov	r8, r5
    5a1c:	0004      	movs	r4, r0
    5a1e:	408c      	lsls	r4, r1
    5a20:	46a1      	mov	r9, r4
		r = r << 1;
    5a22:	1892      	adds	r2, r2, r2
    5a24:	415b      	adcs	r3, r3
    5a26:	0014      	movs	r4, r2
    5a28:	001d      	movs	r5, r3
		if (n & bit_shift) {
    5a2a:	9e05      	ldr	r6, [sp, #20]
    5a2c:	464f      	mov	r7, r9
    5a2e:	403e      	ands	r6, r7
    5a30:	46b4      	mov	ip, r6
    5a32:	9e04      	ldr	r6, [sp, #16]
    5a34:	4647      	mov	r7, r8
    5a36:	403e      	ands	r6, r7
    5a38:	46b2      	mov	sl, r6
    5a3a:	4666      	mov	r6, ip
    5a3c:	4657      	mov	r7, sl
    5a3e:	433e      	orrs	r6, r7
    5a40:	d003      	beq.n	5a4a <long_division+0x96>
			r |= 0x01;
    5a42:	0006      	movs	r6, r0
    5a44:	4326      	orrs	r6, r4
    5a46:	0032      	movs	r2, r6
    5a48:	002b      	movs	r3, r5
		if (r >= d) {
    5a4a:	9c00      	ldr	r4, [sp, #0]
    5a4c:	9d01      	ldr	r5, [sp, #4]
    5a4e:	429d      	cmp	r5, r3
    5a50:	d8db      	bhi.n	5a0a <long_division+0x56>
    5a52:	d1ce      	bne.n	59f2 <long_division+0x3e>
    5a54:	4294      	cmp	r4, r2
    5a56:	d8d8      	bhi.n	5a0a <long_division+0x56>
    5a58:	e7cb      	b.n	59f2 <long_division+0x3e>
    5a5a:	9b03      	ldr	r3, [sp, #12]
		}
	}

	return q;
}
    5a5c:	4658      	mov	r0, fp
    5a5e:	0019      	movs	r1, r3
    5a60:	b007      	add	sp, #28
    5a62:	bc3c      	pop	{r2, r3, r4, r5}
    5a64:	4690      	mov	r8, r2
    5a66:	4699      	mov	r9, r3
    5a68:	46a2      	mov	sl, r4
    5a6a:	46ab      	mov	fp, r5
    5a6c:	bdf0      	pop	{r4, r5, r6, r7, pc}

00005a6e <_sercom_get_sync_baud_val>:
 */
enum status_code _sercom_get_sync_baud_val(
		const uint32_t baudrate,
		const uint32_t external_clock,
		uint16_t *const baudvalue)
{
    5a6e:	b510      	push	{r4, lr}
	uint16_t baud_calculated = 0;
	uint32_t clock_value = external_clock;


	/* Check if baudrate is outside of valid range */
	if (baudrate > (external_clock / 2)) {
    5a70:	0849      	lsrs	r1, r1, #1
		/* Return with error code */
		return STATUS_ERR_BAUDRATE_UNAVAILABLE;
    5a72:	2340      	movs	r3, #64	; 0x40
    5a74:	2400      	movs	r4, #0
	if (baudrate > (external_clock / 2)) {
    5a76:	4281      	cmp	r1, r0
    5a78:	d202      	bcs.n	5a80 <_sercom_get_sync_baud_val+0x12>
		return STATUS_ERR_BAUDRATE_UNAVAILABLE;
	} else {
		*baudvalue = baud_calculated;
		return STATUS_OK;
	}
}
    5a7a:	0018      	movs	r0, r3
    5a7c:	bd10      	pop	{r4, pc}
		baud_calculated++;
    5a7e:	001c      	movs	r4, r3
		clock_value = clock_value - baudrate;
    5a80:	1a09      	subs	r1, r1, r0
		baud_calculated++;
    5a82:	1c63      	adds	r3, r4, #1
    5a84:	b29b      	uxth	r3, r3
	while (clock_value >= baudrate) {
    5a86:	4288      	cmp	r0, r1
    5a88:	d9f9      	bls.n	5a7e <_sercom_get_sync_baud_val+0x10>
		return STATUS_ERR_BAUDRATE_UNAVAILABLE;
    5a8a:	2340      	movs	r3, #64	; 0x40
	if (baud_calculated > 0xFF) {
    5a8c:	2cff      	cmp	r4, #255	; 0xff
    5a8e:	d8f4      	bhi.n	5a7a <_sercom_get_sync_baud_val+0xc>
		*baudvalue = baud_calculated;
    5a90:	8014      	strh	r4, [r2, #0]
		return STATUS_OK;
    5a92:	2300      	movs	r3, #0
    5a94:	e7f1      	b.n	5a7a <_sercom_get_sync_baud_val+0xc>
	...

00005a98 <_sercom_get_async_baud_val>:
		const uint32_t baudrate,
		const uint32_t peripheral_clock,
		uint16_t *const baudval,
		enum sercom_asynchronous_operation_mode mode,
		enum sercom_asynchronous_sample_num sample_num)
{
    5a98:	b5f0      	push	{r4, r5, r6, r7, lr}
    5a9a:	b083      	sub	sp, #12
    5a9c:	000f      	movs	r7, r1
    5a9e:	0016      	movs	r6, r2
    5aa0:	aa08      	add	r2, sp, #32
    5aa2:	7811      	ldrb	r1, [r2, #0]
	uint8_t baud_fp;
	uint32_t baud_int = 0;
	uint64_t temp1;

	/* Check if the baudrate is outside of valid range */
	if ((baudrate * sample_num) > peripheral_clock) {
    5aa4:	0004      	movs	r4, r0
    5aa6:	434c      	muls	r4, r1
		/* Return with error code */
		return STATUS_ERR_BAUDRATE_UNAVAILABLE;
    5aa8:	2240      	movs	r2, #64	; 0x40
	if ((baudrate * sample_num) > peripheral_clock) {
    5aaa:	42bc      	cmp	r4, r7
    5aac:	d902      	bls.n	5ab4 <_sercom_get_async_baud_val+0x1c>
		baud_calculated = baud_int | (baud_fp << 13);
	}

	*baudval = baud_calculated;
	return STATUS_OK;
}
    5aae:	0010      	movs	r0, r2
    5ab0:	b003      	add	sp, #12
    5ab2:	bdf0      	pop	{r4, r5, r6, r7, pc}
	if(mode == SERCOM_ASYNC_OPERATION_MODE_ARITHMETIC) {
    5ab4:	2b00      	cmp	r3, #0
    5ab6:	d114      	bne.n	5ae2 <_sercom_get_async_baud_val+0x4a>
		temp1 = ((sample_num * (uint64_t)baudrate) << SHIFT);
    5ab8:	0002      	movs	r2, r0
    5aba:	0008      	movs	r0, r1
    5abc:	2100      	movs	r1, #0
    5abe:	4c19      	ldr	r4, [pc, #100]	; (5b24 <_sercom_get_async_baud_val+0x8c>)
    5ac0:	47a0      	blx	r4
    5ac2:	0001      	movs	r1, r0
		ratio = long_division(temp1, peripheral_clock);
    5ac4:	003a      	movs	r2, r7
    5ac6:	2300      	movs	r3, #0
    5ac8:	2000      	movs	r0, #0
    5aca:	4c17      	ldr	r4, [pc, #92]	; (5b28 <_sercom_get_async_baud_val+0x90>)
    5acc:	47a0      	blx	r4
		scale = ((uint64_t)1 << SHIFT) - ratio;
    5ace:	2200      	movs	r2, #0
    5ad0:	2301      	movs	r3, #1
    5ad2:	1a12      	subs	r2, r2, r0
    5ad4:	418b      	sbcs	r3, r1
		baud_calculated = (65536 * scale) >> SHIFT;
    5ad6:	0c12      	lsrs	r2, r2, #16
    5ad8:	041b      	lsls	r3, r3, #16
    5ada:	431a      	orrs	r2, r3
	*baudval = baud_calculated;
    5adc:	8032      	strh	r2, [r6, #0]
	return STATUS_OK;
    5ade:	2200      	movs	r2, #0
    5ae0:	e7e5      	b.n	5aae <_sercom_get_async_baud_val+0x16>
	uint64_t baud_calculated = 0;
    5ae2:	2200      	movs	r2, #0
	} else if(mode == SERCOM_ASYNC_OPERATION_MODE_FRACTIONAL) {
    5ae4:	2b01      	cmp	r3, #1
    5ae6:	d1f9      	bne.n	5adc <_sercom_get_async_baud_val+0x44>
		temp1 = ((uint64_t)baudrate * sample_num);
    5ae8:	000a      	movs	r2, r1
    5aea:	2300      	movs	r3, #0
    5aec:	2100      	movs	r1, #0
    5aee:	4c0d      	ldr	r4, [pc, #52]	; (5b24 <_sercom_get_async_baud_val+0x8c>)
    5af0:	47a0      	blx	r4
    5af2:	0002      	movs	r2, r0
    5af4:	000b      	movs	r3, r1
    5af6:	9200      	str	r2, [sp, #0]
    5af8:	9301      	str	r3, [sp, #4]
		baud_int = long_division( peripheral_clock, temp1);
    5afa:	0038      	movs	r0, r7
    5afc:	2100      	movs	r1, #0
    5afe:	4c0a      	ldr	r4, [pc, #40]	; (5b28 <_sercom_get_async_baud_val+0x90>)
    5b00:	47a0      	blx	r4
    5b02:	0005      	movs	r5, r0
		if(baud_int > BAUD_INT_MAX) {
    5b04:	2380      	movs	r3, #128	; 0x80
    5b06:	019b      	lsls	r3, r3, #6
				return STATUS_ERR_BAUDRATE_UNAVAILABLE;
    5b08:	2240      	movs	r2, #64	; 0x40
		if(baud_int > BAUD_INT_MAX) {
    5b0a:	4298      	cmp	r0, r3
    5b0c:	d8cf      	bhi.n	5aae <_sercom_get_async_baud_val+0x16>
		temp1 = long_division( 8 * (uint64_t)peripheral_clock, temp1);
    5b0e:	0f79      	lsrs	r1, r7, #29
    5b10:	00f8      	lsls	r0, r7, #3
    5b12:	9a00      	ldr	r2, [sp, #0]
    5b14:	9b01      	ldr	r3, [sp, #4]
    5b16:	47a0      	blx	r4
		baud_fp = temp1 - 8 * baud_int;
    5b18:	00ea      	lsls	r2, r5, #3
    5b1a:	1a82      	subs	r2, r0, r2
		baud_calculated = baud_int | (baud_fp << 13);
    5b1c:	b2d2      	uxtb	r2, r2
    5b1e:	0352      	lsls	r2, r2, #13
    5b20:	432a      	orrs	r2, r5
    5b22:	e7db      	b.n	5adc <_sercom_get_async_baud_val+0x44>
    5b24:	00007019 	.word	0x00007019
    5b28:	000059b5 	.word	0x000059b5

00005b2c <sercom_set_gclk_generator>:
 *                                         forced.
 */
enum status_code sercom_set_gclk_generator(
		const enum gclk_generator generator_source,
		const bool force_change)
{
    5b2c:	b510      	push	{r4, lr}
    5b2e:	b082      	sub	sp, #8
    5b30:	0004      	movs	r4, r0
	/* Check if valid option */
	if (!_sercom_config.generator_is_set || force_change) {
    5b32:	4b0e      	ldr	r3, [pc, #56]	; (5b6c <sercom_set_gclk_generator+0x40>)
    5b34:	781b      	ldrb	r3, [r3, #0]
    5b36:	2b00      	cmp	r3, #0
    5b38:	d007      	beq.n	5b4a <sercom_set_gclk_generator+0x1e>
    5b3a:	2900      	cmp	r1, #0
    5b3c:	d105      	bne.n	5b4a <sercom_set_gclk_generator+0x1e>
		/* Save config */
		_sercom_config.generator_source = generator_source;
		_sercom_config.generator_is_set = true;

		return STATUS_OK;
	} else if (generator_source == _sercom_config.generator_source) {
    5b3e:	4b0b      	ldr	r3, [pc, #44]	; (5b6c <sercom_set_gclk_generator+0x40>)
    5b40:	785b      	ldrb	r3, [r3, #1]
    5b42:	4283      	cmp	r3, r0
    5b44:	d010      	beq.n	5b68 <sercom_set_gclk_generator+0x3c>
		/* Return status OK if same config */
		return STATUS_OK;
	}

	/* Return invalid config to already initialized GCLK */
	return STATUS_ERR_ALREADY_INITIALIZED;
    5b46:	201d      	movs	r0, #29
    5b48:	e00c      	b.n	5b64 <sercom_set_gclk_generator+0x38>
		gclk_chan_conf.source_generator = generator_source;
    5b4a:	a901      	add	r1, sp, #4
    5b4c:	700c      	strb	r4, [r1, #0]
		system_gclk_chan_set_config(SERCOM_GCLK_ID, &gclk_chan_conf);
    5b4e:	2013      	movs	r0, #19
    5b50:	4b07      	ldr	r3, [pc, #28]	; (5b70 <sercom_set_gclk_generator+0x44>)
    5b52:	4798      	blx	r3
		system_gclk_chan_enable(SERCOM_GCLK_ID);
    5b54:	2013      	movs	r0, #19
    5b56:	4b07      	ldr	r3, [pc, #28]	; (5b74 <sercom_set_gclk_generator+0x48>)
    5b58:	4798      	blx	r3
		_sercom_config.generator_source = generator_source;
    5b5a:	4b04      	ldr	r3, [pc, #16]	; (5b6c <sercom_set_gclk_generator+0x40>)
    5b5c:	705c      	strb	r4, [r3, #1]
		_sercom_config.generator_is_set = true;
    5b5e:	2201      	movs	r2, #1
    5b60:	701a      	strb	r2, [r3, #0]
		return STATUS_OK;
    5b62:	2000      	movs	r0, #0
}
    5b64:	b002      	add	sp, #8
    5b66:	bd10      	pop	{r4, pc}
		return STATUS_OK;
    5b68:	2000      	movs	r0, #0
    5b6a:	e7fb      	b.n	5b64 <sercom_set_gclk_generator+0x38>
    5b6c:	2000381c 	.word	0x2000381c
    5b70:	0000699d 	.word	0x0000699d
    5b74:	00006911 	.word	0x00006911

00005b78 <_sercom_get_default_pad>:
 */
uint32_t _sercom_get_default_pad(
		Sercom *const sercom_module,
		const uint8_t pad)
{
	switch ((uintptr_t)sercom_module) {
    5b78:	4b40      	ldr	r3, [pc, #256]	; (5c7c <_sercom_get_default_pad+0x104>)
    5b7a:	4298      	cmp	r0, r3
    5b7c:	d031      	beq.n	5be2 <_sercom_get_default_pad+0x6a>
    5b7e:	d90a      	bls.n	5b96 <_sercom_get_default_pad+0x1e>
    5b80:	4b3f      	ldr	r3, [pc, #252]	; (5c80 <_sercom_get_default_pad+0x108>)
    5b82:	4298      	cmp	r0, r3
    5b84:	d04d      	beq.n	5c22 <_sercom_get_default_pad+0xaa>
    5b86:	4b3f      	ldr	r3, [pc, #252]	; (5c84 <_sercom_get_default_pad+0x10c>)
    5b88:	4298      	cmp	r0, r3
    5b8a:	d05a      	beq.n	5c42 <_sercom_get_default_pad+0xca>
    5b8c:	4b3e      	ldr	r3, [pc, #248]	; (5c88 <_sercom_get_default_pad+0x110>)
    5b8e:	4298      	cmp	r0, r3
    5b90:	d037      	beq.n	5c02 <_sercom_get_default_pad+0x8a>
		/* Auto-generate a lookup table for the default SERCOM pad defaults */
		MREPEAT(SERCOM_INST_NUM, _SERCOM_PAD_DEFAULTS_CASE, pad)
	}

	Assert(false);
	return 0;
    5b92:	2000      	movs	r0, #0
}
    5b94:	4770      	bx	lr
	switch ((uintptr_t)sercom_module) {
    5b96:	4b3d      	ldr	r3, [pc, #244]	; (5c8c <_sercom_get_default_pad+0x114>)
    5b98:	4298      	cmp	r0, r3
    5b9a:	d00c      	beq.n	5bb6 <_sercom_get_default_pad+0x3e>
    5b9c:	4b3c      	ldr	r3, [pc, #240]	; (5c90 <_sercom_get_default_pad+0x118>)
    5b9e:	4298      	cmp	r0, r3
    5ba0:	d1f7      	bne.n	5b92 <_sercom_get_default_pad+0x1a>
		MREPEAT(SERCOM_INST_NUM, _SERCOM_PAD_DEFAULTS_CASE, pad)
    5ba2:	2901      	cmp	r1, #1
    5ba4:	d017      	beq.n	5bd6 <_sercom_get_default_pad+0x5e>
    5ba6:	2900      	cmp	r1, #0
    5ba8:	d05d      	beq.n	5c66 <_sercom_get_default_pad+0xee>
    5baa:	2902      	cmp	r1, #2
    5bac:	d015      	beq.n	5bda <_sercom_get_default_pad+0x62>
    5bae:	2903      	cmp	r1, #3
    5bb0:	d015      	beq.n	5bde <_sercom_get_default_pad+0x66>
	return 0;
    5bb2:	2000      	movs	r0, #0
    5bb4:	e7ee      	b.n	5b94 <_sercom_get_default_pad+0x1c>
		MREPEAT(SERCOM_INST_NUM, _SERCOM_PAD_DEFAULTS_CASE, pad)
    5bb6:	2901      	cmp	r1, #1
    5bb8:	d007      	beq.n	5bca <_sercom_get_default_pad+0x52>
    5bba:	2900      	cmp	r1, #0
    5bbc:	d051      	beq.n	5c62 <_sercom_get_default_pad+0xea>
    5bbe:	2902      	cmp	r1, #2
    5bc0:	d005      	beq.n	5bce <_sercom_get_default_pad+0x56>
    5bc2:	2903      	cmp	r1, #3
    5bc4:	d005      	beq.n	5bd2 <_sercom_get_default_pad+0x5a>
	return 0;
    5bc6:	2000      	movs	r0, #0
    5bc8:	e7e4      	b.n	5b94 <_sercom_get_default_pad+0x1c>
		MREPEAT(SERCOM_INST_NUM, _SERCOM_PAD_DEFAULTS_CASE, pad)
    5bca:	4832      	ldr	r0, [pc, #200]	; (5c94 <_sercom_get_default_pad+0x11c>)
    5bcc:	e7e2      	b.n	5b94 <_sercom_get_default_pad+0x1c>
    5bce:	4832      	ldr	r0, [pc, #200]	; (5c98 <_sercom_get_default_pad+0x120>)
    5bd0:	e7e0      	b.n	5b94 <_sercom_get_default_pad+0x1c>
    5bd2:	4832      	ldr	r0, [pc, #200]	; (5c9c <_sercom_get_default_pad+0x124>)
    5bd4:	e7de      	b.n	5b94 <_sercom_get_default_pad+0x1c>
    5bd6:	4832      	ldr	r0, [pc, #200]	; (5ca0 <_sercom_get_default_pad+0x128>)
    5bd8:	e7dc      	b.n	5b94 <_sercom_get_default_pad+0x1c>
    5bda:	4832      	ldr	r0, [pc, #200]	; (5ca4 <_sercom_get_default_pad+0x12c>)
    5bdc:	e7da      	b.n	5b94 <_sercom_get_default_pad+0x1c>
    5bde:	4832      	ldr	r0, [pc, #200]	; (5ca8 <_sercom_get_default_pad+0x130>)
    5be0:	e7d8      	b.n	5b94 <_sercom_get_default_pad+0x1c>
    5be2:	2901      	cmp	r1, #1
    5be4:	d007      	beq.n	5bf6 <_sercom_get_default_pad+0x7e>
    5be6:	2900      	cmp	r1, #0
    5be8:	d03f      	beq.n	5c6a <_sercom_get_default_pad+0xf2>
    5bea:	2902      	cmp	r1, #2
    5bec:	d005      	beq.n	5bfa <_sercom_get_default_pad+0x82>
    5bee:	2903      	cmp	r1, #3
    5bf0:	d005      	beq.n	5bfe <_sercom_get_default_pad+0x86>
	return 0;
    5bf2:	2000      	movs	r0, #0
    5bf4:	e7ce      	b.n	5b94 <_sercom_get_default_pad+0x1c>
		MREPEAT(SERCOM_INST_NUM, _SERCOM_PAD_DEFAULTS_CASE, pad)
    5bf6:	482d      	ldr	r0, [pc, #180]	; (5cac <_sercom_get_default_pad+0x134>)
    5bf8:	e7cc      	b.n	5b94 <_sercom_get_default_pad+0x1c>
    5bfa:	482d      	ldr	r0, [pc, #180]	; (5cb0 <_sercom_get_default_pad+0x138>)
    5bfc:	e7ca      	b.n	5b94 <_sercom_get_default_pad+0x1c>
    5bfe:	482d      	ldr	r0, [pc, #180]	; (5cb4 <_sercom_get_default_pad+0x13c>)
    5c00:	e7c8      	b.n	5b94 <_sercom_get_default_pad+0x1c>
    5c02:	2901      	cmp	r1, #1
    5c04:	d007      	beq.n	5c16 <_sercom_get_default_pad+0x9e>
    5c06:	2900      	cmp	r1, #0
    5c08:	d031      	beq.n	5c6e <_sercom_get_default_pad+0xf6>
    5c0a:	2902      	cmp	r1, #2
    5c0c:	d005      	beq.n	5c1a <_sercom_get_default_pad+0xa2>
    5c0e:	2903      	cmp	r1, #3
    5c10:	d005      	beq.n	5c1e <_sercom_get_default_pad+0xa6>
	return 0;
    5c12:	2000      	movs	r0, #0
    5c14:	e7be      	b.n	5b94 <_sercom_get_default_pad+0x1c>
		MREPEAT(SERCOM_INST_NUM, _SERCOM_PAD_DEFAULTS_CASE, pad)
    5c16:	4828      	ldr	r0, [pc, #160]	; (5cb8 <_sercom_get_default_pad+0x140>)
    5c18:	e7bc      	b.n	5b94 <_sercom_get_default_pad+0x1c>
    5c1a:	4828      	ldr	r0, [pc, #160]	; (5cbc <_sercom_get_default_pad+0x144>)
    5c1c:	e7ba      	b.n	5b94 <_sercom_get_default_pad+0x1c>
    5c1e:	4828      	ldr	r0, [pc, #160]	; (5cc0 <_sercom_get_default_pad+0x148>)
    5c20:	e7b8      	b.n	5b94 <_sercom_get_default_pad+0x1c>
    5c22:	2901      	cmp	r1, #1
    5c24:	d007      	beq.n	5c36 <_sercom_get_default_pad+0xbe>
    5c26:	2900      	cmp	r1, #0
    5c28:	d023      	beq.n	5c72 <_sercom_get_default_pad+0xfa>
    5c2a:	2902      	cmp	r1, #2
    5c2c:	d005      	beq.n	5c3a <_sercom_get_default_pad+0xc2>
    5c2e:	2903      	cmp	r1, #3
    5c30:	d005      	beq.n	5c3e <_sercom_get_default_pad+0xc6>
	return 0;
    5c32:	2000      	movs	r0, #0
    5c34:	e7ae      	b.n	5b94 <_sercom_get_default_pad+0x1c>
		MREPEAT(SERCOM_INST_NUM, _SERCOM_PAD_DEFAULTS_CASE, pad)
    5c36:	4823      	ldr	r0, [pc, #140]	; (5cc4 <_sercom_get_default_pad+0x14c>)
    5c38:	e7ac      	b.n	5b94 <_sercom_get_default_pad+0x1c>
    5c3a:	4823      	ldr	r0, [pc, #140]	; (5cc8 <_sercom_get_default_pad+0x150>)
    5c3c:	e7aa      	b.n	5b94 <_sercom_get_default_pad+0x1c>
    5c3e:	4823      	ldr	r0, [pc, #140]	; (5ccc <_sercom_get_default_pad+0x154>)
    5c40:	e7a8      	b.n	5b94 <_sercom_get_default_pad+0x1c>
    5c42:	2901      	cmp	r1, #1
    5c44:	d007      	beq.n	5c56 <_sercom_get_default_pad+0xde>
    5c46:	2900      	cmp	r1, #0
    5c48:	d015      	beq.n	5c76 <_sercom_get_default_pad+0xfe>
    5c4a:	2902      	cmp	r1, #2
    5c4c:	d005      	beq.n	5c5a <_sercom_get_default_pad+0xe2>
    5c4e:	2903      	cmp	r1, #3
    5c50:	d005      	beq.n	5c5e <_sercom_get_default_pad+0xe6>
	return 0;
    5c52:	2000      	movs	r0, #0
    5c54:	e79e      	b.n	5b94 <_sercom_get_default_pad+0x1c>
		MREPEAT(SERCOM_INST_NUM, _SERCOM_PAD_DEFAULTS_CASE, pad)
    5c56:	481e      	ldr	r0, [pc, #120]	; (5cd0 <_sercom_get_default_pad+0x158>)
    5c58:	e79c      	b.n	5b94 <_sercom_get_default_pad+0x1c>
    5c5a:	481e      	ldr	r0, [pc, #120]	; (5cd4 <_sercom_get_default_pad+0x15c>)
    5c5c:	e79a      	b.n	5b94 <_sercom_get_default_pad+0x1c>
    5c5e:	481e      	ldr	r0, [pc, #120]	; (5cd8 <_sercom_get_default_pad+0x160>)
    5c60:	e798      	b.n	5b94 <_sercom_get_default_pad+0x1c>
    5c62:	481e      	ldr	r0, [pc, #120]	; (5cdc <_sercom_get_default_pad+0x164>)
    5c64:	e796      	b.n	5b94 <_sercom_get_default_pad+0x1c>
    5c66:	2003      	movs	r0, #3
    5c68:	e794      	b.n	5b94 <_sercom_get_default_pad+0x1c>
    5c6a:	481d      	ldr	r0, [pc, #116]	; (5ce0 <_sercom_get_default_pad+0x168>)
    5c6c:	e792      	b.n	5b94 <_sercom_get_default_pad+0x1c>
    5c6e:	481d      	ldr	r0, [pc, #116]	; (5ce4 <_sercom_get_default_pad+0x16c>)
    5c70:	e790      	b.n	5b94 <_sercom_get_default_pad+0x1c>
    5c72:	481d      	ldr	r0, [pc, #116]	; (5ce8 <_sercom_get_default_pad+0x170>)
    5c74:	e78e      	b.n	5b94 <_sercom_get_default_pad+0x1c>
    5c76:	481d      	ldr	r0, [pc, #116]	; (5cec <_sercom_get_default_pad+0x174>)
    5c78:	e78c      	b.n	5b94 <_sercom_get_default_pad+0x1c>
    5c7a:	46c0      	nop			; (mov r8, r8)
    5c7c:	42001000 	.word	0x42001000
    5c80:	42001800 	.word	0x42001800
    5c84:	42001c00 	.word	0x42001c00
    5c88:	42001400 	.word	0x42001400
    5c8c:	42000800 	.word	0x42000800
    5c90:	42000c00 	.word	0x42000c00
    5c94:	00050003 	.word	0x00050003
    5c98:	00060003 	.word	0x00060003
    5c9c:	00070003 	.word	0x00070003
    5ca0:	00010003 	.word	0x00010003
    5ca4:	001e0003 	.word	0x001e0003
    5ca8:	001f0003 	.word	0x001f0003
    5cac:	00090003 	.word	0x00090003
    5cb0:	000a0003 	.word	0x000a0003
    5cb4:	000b0003 	.word	0x000b0003
    5cb8:	00110003 	.word	0x00110003
    5cbc:	00120003 	.word	0x00120003
    5cc0:	00130003 	.word	0x00130003
    5cc4:	000d0003 	.word	0x000d0003
    5cc8:	000e0003 	.word	0x000e0003
    5ccc:	000f0003 	.word	0x000f0003
    5cd0:	00170003 	.word	0x00170003
    5cd4:	00180003 	.word	0x00180003
    5cd8:	00190003 	.word	0x00190003
    5cdc:	00040003 	.word	0x00040003
    5ce0:	00080003 	.word	0x00080003
    5ce4:	00100003 	.word	0x00100003
    5ce8:	000c0003 	.word	0x000c0003
    5cec:	00160003 	.word	0x00160003

00005cf0 <_sercom_get_sercom_inst_index>:
 *
 * \return Index of given instance.
 */
uint8_t _sercom_get_sercom_inst_index(
		Sercom *const sercom_instance)
{
    5cf0:	b530      	push	{r4, r5, lr}
    5cf2:	b087      	sub	sp, #28
	/* Save all available SERCOM instances for compare */
	Sercom *sercom_instances[SERCOM_INST_NUM] = SERCOM_INSTS;
    5cf4:	4b0b      	ldr	r3, [pc, #44]	; (5d24 <_sercom_get_sercom_inst_index+0x34>)
    5cf6:	466a      	mov	r2, sp
    5cf8:	cb32      	ldmia	r3!, {r1, r4, r5}
    5cfa:	c232      	stmia	r2!, {r1, r4, r5}
    5cfc:	cb32      	ldmia	r3!, {r1, r4, r5}
    5cfe:	c232      	stmia	r2!, {r1, r4, r5}

	/* Find index for sercom instance */
	for (uint32_t i = 0; i < SERCOM_INST_NUM; i++) {
		if ((uintptr_t)sercom_instance == (uintptr_t)sercom_instances[i]) {
    5d00:	9b00      	ldr	r3, [sp, #0]
    5d02:	4283      	cmp	r3, r0
    5d04:	d00b      	beq.n	5d1e <_sercom_get_sercom_inst_index+0x2e>
    5d06:	2301      	movs	r3, #1
    5d08:	009a      	lsls	r2, r3, #2
    5d0a:	4669      	mov	r1, sp
    5d0c:	5852      	ldr	r2, [r2, r1]
    5d0e:	4282      	cmp	r2, r0
    5d10:	d006      	beq.n	5d20 <_sercom_get_sercom_inst_index+0x30>
	for (uint32_t i = 0; i < SERCOM_INST_NUM; i++) {
    5d12:	3301      	adds	r3, #1
    5d14:	2b06      	cmp	r3, #6
    5d16:	d1f7      	bne.n	5d08 <_sercom_get_sercom_inst_index+0x18>
		}
	}

	/* Invalid data given */
	Assert(false);
	return 0;
    5d18:	2000      	movs	r0, #0
}
    5d1a:	b007      	add	sp, #28
    5d1c:	bd30      	pop	{r4, r5, pc}
	for (uint32_t i = 0; i < SERCOM_INST_NUM; i++) {
    5d1e:	2300      	movs	r3, #0
			return i;
    5d20:	b2d8      	uxtb	r0, r3
    5d22:	e7fa      	b.n	5d1a <_sercom_get_sercom_inst_index+0x2a>
    5d24:	0000a740 	.word	0x0000a740

00005d28 <_sercom_default_handler>:
 */
static void _sercom_default_handler(
		const uint8_t instance)
{
	Assert(false);
}
    5d28:	4770      	bx	lr
	...

00005d2c <_sercom_set_handler>:
 * \param[in]  interrupt_handler  Pointer to instance callback handler.
 */
void _sercom_set_handler(
		const uint8_t instance,
		const sercom_handler_t interrupt_handler)
{
    5d2c:	b5f0      	push	{r4, r5, r6, r7, lr}
	/* Initialize handlers with default handler and device instances with 0 */
	if (_handler_table_initialized == false) {
    5d2e:	4b0a      	ldr	r3, [pc, #40]	; (5d58 <_sercom_set_handler+0x2c>)
    5d30:	781b      	ldrb	r3, [r3, #0]
    5d32:	2b00      	cmp	r3, #0
    5d34:	d10c      	bne.n	5d50 <_sercom_set_handler+0x24>
		for (uint32_t i = 0; i < SERCOM_INST_NUM; i++) {
			_sercom_interrupt_handlers[i] = &_sercom_default_handler;
    5d36:	4f09      	ldr	r7, [pc, #36]	; (5d5c <_sercom_set_handler+0x30>)
    5d38:	4e09      	ldr	r6, [pc, #36]	; (5d60 <_sercom_set_handler+0x34>)
			_sercom_instances[i] = NULL;
    5d3a:	4d0a      	ldr	r5, [pc, #40]	; (5d64 <_sercom_set_handler+0x38>)
    5d3c:	2400      	movs	r4, #0
			_sercom_interrupt_handlers[i] = &_sercom_default_handler;
    5d3e:	51de      	str	r6, [r3, r7]
			_sercom_instances[i] = NULL;
    5d40:	195a      	adds	r2, r3, r5
    5d42:	6014      	str	r4, [r2, #0]
    5d44:	3304      	adds	r3, #4
		for (uint32_t i = 0; i < SERCOM_INST_NUM; i++) {
    5d46:	2b18      	cmp	r3, #24
    5d48:	d1f9      	bne.n	5d3e <_sercom_set_handler+0x12>
		}

		_handler_table_initialized = true;
    5d4a:	2201      	movs	r2, #1
    5d4c:	4b02      	ldr	r3, [pc, #8]	; (5d58 <_sercom_set_handler+0x2c>)
    5d4e:	701a      	strb	r2, [r3, #0]
	}

	/* Save interrupt handler */
	_sercom_interrupt_handlers[instance] = interrupt_handler;
    5d50:	0080      	lsls	r0, r0, #2
    5d52:	4b02      	ldr	r3, [pc, #8]	; (5d5c <_sercom_set_handler+0x30>)
    5d54:	50c1      	str	r1, [r0, r3]
}
    5d56:	bdf0      	pop	{r4, r5, r6, r7, pc}
    5d58:	2000381e 	.word	0x2000381e
    5d5c:	20003820 	.word	0x20003820
    5d60:	00005d29 	.word	0x00005d29
    5d64:	20004ddc 	.word	0x20004ddc

00005d68 <_sercom_get_interrupt_vector>:
 * \retval SYSTEM_INTERRUPT_MODULE_SERCOM6
 * \retval SYSTEM_INTERRUPT_MODULE_SERCOM7
 */
enum system_interrupt_vector _sercom_get_interrupt_vector(
		Sercom *const sercom_instance)
{
    5d68:	b500      	push	{lr}
    5d6a:	b083      	sub	sp, #12
	const uint8_t sercom_int_vectors[SERCOM_INST_NUM] =
    5d6c:	2309      	movs	r3, #9
    5d6e:	466a      	mov	r2, sp
    5d70:	7013      	strb	r3, [r2, #0]
    5d72:	3301      	adds	r3, #1
    5d74:	7053      	strb	r3, [r2, #1]
    5d76:	3301      	adds	r3, #1
    5d78:	7093      	strb	r3, [r2, #2]
    5d7a:	3301      	adds	r3, #1
    5d7c:	70d3      	strb	r3, [r2, #3]
    5d7e:	3301      	adds	r3, #1
    5d80:	7113      	strb	r3, [r2, #4]
    5d82:	3301      	adds	r3, #1
    5d84:	7153      	strb	r3, [r2, #5]
		{
			MREPEAT(SERCOM_INST_NUM, _SERCOM_INTERRUPT_VECT_NUM, ~)
		};

	/* Retrieve the index of the SERCOM being requested */
	uint8_t instance_index = _sercom_get_sercom_inst_index(sercom_instance);
    5d86:	4b03      	ldr	r3, [pc, #12]	; (5d94 <_sercom_get_interrupt_vector+0x2c>)
    5d88:	4798      	blx	r3

	/* Get the vector number from the lookup table for the requested SERCOM */
	return (enum system_interrupt_vector)sercom_int_vectors[instance_index];
    5d8a:	466b      	mov	r3, sp
    5d8c:	5618      	ldrsb	r0, [r3, r0]
}
    5d8e:	b003      	add	sp, #12
    5d90:	bd00      	pop	{pc}
    5d92:	46c0      	nop			; (mov r8, r8)
    5d94:	00005cf1 	.word	0x00005cf1

00005d98 <SERCOM0_Handler>:

/** Auto-generate a set of interrupt handlers for each SERCOM in the device */
MREPEAT(SERCOM_INST_NUM, _SERCOM_INTERRUPT_HANDLER, ~)
    5d98:	b510      	push	{r4, lr}
    5d9a:	4b02      	ldr	r3, [pc, #8]	; (5da4 <SERCOM0_Handler+0xc>)
    5d9c:	681b      	ldr	r3, [r3, #0]
    5d9e:	2000      	movs	r0, #0
    5da0:	4798      	blx	r3
    5da2:	bd10      	pop	{r4, pc}
    5da4:	20003820 	.word	0x20003820

00005da8 <SERCOM1_Handler>:
    5da8:	b510      	push	{r4, lr}
    5daa:	4b02      	ldr	r3, [pc, #8]	; (5db4 <SERCOM1_Handler+0xc>)
    5dac:	685b      	ldr	r3, [r3, #4]
    5dae:	2001      	movs	r0, #1
    5db0:	4798      	blx	r3
    5db2:	bd10      	pop	{r4, pc}
    5db4:	20003820 	.word	0x20003820

00005db8 <SERCOM2_Handler>:
    5db8:	b510      	push	{r4, lr}
    5dba:	4b02      	ldr	r3, [pc, #8]	; (5dc4 <SERCOM2_Handler+0xc>)
    5dbc:	689b      	ldr	r3, [r3, #8]
    5dbe:	2002      	movs	r0, #2
    5dc0:	4798      	blx	r3
    5dc2:	bd10      	pop	{r4, pc}
    5dc4:	20003820 	.word	0x20003820

00005dc8 <SERCOM3_Handler>:
    5dc8:	b510      	push	{r4, lr}
    5dca:	4b02      	ldr	r3, [pc, #8]	; (5dd4 <SERCOM3_Handler+0xc>)
    5dcc:	68db      	ldr	r3, [r3, #12]
    5dce:	2003      	movs	r0, #3
    5dd0:	4798      	blx	r3
    5dd2:	bd10      	pop	{r4, pc}
    5dd4:	20003820 	.word	0x20003820

00005dd8 <SERCOM4_Handler>:
    5dd8:	b510      	push	{r4, lr}
    5dda:	4b02      	ldr	r3, [pc, #8]	; (5de4 <SERCOM4_Handler+0xc>)
    5ddc:	691b      	ldr	r3, [r3, #16]
    5dde:	2004      	movs	r0, #4
    5de0:	4798      	blx	r3
    5de2:	bd10      	pop	{r4, pc}
    5de4:	20003820 	.word	0x20003820

00005de8 <SERCOM5_Handler>:
    5de8:	b510      	push	{r4, lr}
    5dea:	4b02      	ldr	r3, [pc, #8]	; (5df4 <SERCOM5_Handler+0xc>)
    5dec:	695b      	ldr	r3, [r3, #20]
    5dee:	2005      	movs	r0, #5
    5df0:	4798      	blx	r3
    5df2:	bd10      	pop	{r4, pc}
    5df4:	20003820 	.word	0x20003820

00005df8 <usart_init>:
 */
enum status_code usart_init(
		struct usart_module *const module,
		Sercom *const hw,
		const struct usart_config *const config)
{
    5df8:	b5f0      	push	{r4, r5, r6, r7, lr}
    5dfa:	46de      	mov	lr, fp
    5dfc:	4657      	mov	r7, sl
    5dfe:	464e      	mov	r6, r9
    5e00:	4645      	mov	r5, r8
    5e02:	b5e0      	push	{r5, r6, r7, lr}
    5e04:	b091      	sub	sp, #68	; 0x44
    5e06:	0005      	movs	r5, r0
    5e08:	000c      	movs	r4, r1
    5e0a:	0016      	movs	r6, r2
	Assert(config);

	enum status_code status_code = STATUS_OK;

	/* Assign module pointer to software instance struct */
	module->hw = hw;
    5e0c:	6029      	str	r1, [r5, #0]

	/* Get a pointer to the hardware module instance */
	SercomUsart *const usart_hw = &(module->hw->USART);

	uint32_t sercom_index = _sercom_get_sercom_inst_index(module->hw);
    5e0e:	0008      	movs	r0, r1
    5e10:	4bbc      	ldr	r3, [pc, #752]	; (6104 <usart_init+0x30c>)
    5e12:	4798      	blx	r3
    5e14:	0002      	movs	r2, r0
#else
	pm_index     = sercom_index + PM_APBCMASK_SERCOM0_Pos;
	gclk_index   = sercom_index + SERCOM0_GCLK_ID_CORE;
#endif

	if (usart_hw->CTRLA.reg & SERCOM_USART_CTRLA_SWRST) {
    5e16:	6823      	ldr	r3, [r4, #0]
		/* The module is busy resetting itself */
		return STATUS_BUSY;
    5e18:	2005      	movs	r0, #5
	if (usart_hw->CTRLA.reg & SERCOM_USART_CTRLA_SWRST) {
    5e1a:	07db      	lsls	r3, r3, #31
    5e1c:	d506      	bpl.n	5e2c <usart_init+0x34>
	_sercom_set_handler(instance_index, _usart_interrupt_handler);
	_sercom_instances[instance_index] = module;
#endif

	return status_code;
}
    5e1e:	b011      	add	sp, #68	; 0x44
    5e20:	bc3c      	pop	{r2, r3, r4, r5}
    5e22:	4690      	mov	r8, r2
    5e24:	4699      	mov	r9, r3
    5e26:	46a2      	mov	sl, r4
    5e28:	46ab      	mov	fp, r5
    5e2a:	bdf0      	pop	{r4, r5, r6, r7, pc}
	if (usart_hw->CTRLA.reg & SERCOM_USART_CTRLA_ENABLE) {
    5e2c:	6823      	ldr	r3, [r4, #0]
		return STATUS_ERR_DENIED;
    5e2e:	3017      	adds	r0, #23
	if (usart_hw->CTRLA.reg & SERCOM_USART_CTRLA_ENABLE) {
    5e30:	079b      	lsls	r3, r3, #30
    5e32:	d4f4      	bmi.n	5e1e <usart_init+0x26>
			PM->APBCMASK.reg |= mask;
    5e34:	49b4      	ldr	r1, [pc, #720]	; (6108 <usart_init+0x310>)
    5e36:	6a08      	ldr	r0, [r1, #32]
	pm_index     = sercom_index + PM_APBCMASK_SERCOM0_Pos;
    5e38:	1c97      	adds	r7, r2, #2
	system_apb_clock_set_mask(SYSTEM_CLOCK_APB_APBC, 1 << pm_index);
    5e3a:	2301      	movs	r3, #1
    5e3c:	40bb      	lsls	r3, r7
    5e3e:	4303      	orrs	r3, r0
    5e40:	620b      	str	r3, [r1, #32]
	gclk_chan_conf.source_generator = config->generator_source;
    5e42:	a90f      	add	r1, sp, #60	; 0x3c
    5e44:	272d      	movs	r7, #45	; 0x2d
    5e46:	5df3      	ldrb	r3, [r6, r7]
    5e48:	700b      	strb	r3, [r1, #0]
	gclk_index   = sercom_index + SERCOM0_GCLK_ID_CORE;
    5e4a:	3214      	adds	r2, #20
	system_gclk_chan_set_config(gclk_index, &gclk_chan_conf);
    5e4c:	b2d3      	uxtb	r3, r2
    5e4e:	9302      	str	r3, [sp, #8]
    5e50:	0018      	movs	r0, r3
    5e52:	4bae      	ldr	r3, [pc, #696]	; (610c <usart_init+0x314>)
    5e54:	4798      	blx	r3
	system_gclk_chan_enable(gclk_index);
    5e56:	9802      	ldr	r0, [sp, #8]
    5e58:	4bad      	ldr	r3, [pc, #692]	; (6110 <usart_init+0x318>)
    5e5a:	4798      	blx	r3
	sercom_set_gclk_generator(config->generator_source, false);
    5e5c:	5df0      	ldrb	r0, [r6, r7]
    5e5e:	2100      	movs	r1, #0
    5e60:	4bac      	ldr	r3, [pc, #688]	; (6114 <usart_init+0x31c>)
    5e62:	4798      	blx	r3
	module->character_size = config->character_size;
    5e64:	7af3      	ldrb	r3, [r6, #11]
    5e66:	716b      	strb	r3, [r5, #5]
	module->receiver_enabled = config->receiver_enable;
    5e68:	2324      	movs	r3, #36	; 0x24
    5e6a:	5cf3      	ldrb	r3, [r6, r3]
    5e6c:	71ab      	strb	r3, [r5, #6]
	module->transmitter_enabled = config->transmitter_enable;
    5e6e:	2325      	movs	r3, #37	; 0x25
    5e70:	5cf3      	ldrb	r3, [r6, r3]
    5e72:	71eb      	strb	r3, [r5, #7]
	module->lin_slave_enabled = config->lin_slave_enable;
    5e74:	7ef3      	ldrb	r3, [r6, #27]
    5e76:	722b      	strb	r3, [r5, #8]
	module->start_frame_detection_enabled = config->start_frame_detection_enable;
    5e78:	7f33      	ldrb	r3, [r6, #28]
    5e7a:	726b      	strb	r3, [r5, #9]
	SercomUsart *const usart_hw = &(module->hw->USART);
    5e7c:	682b      	ldr	r3, [r5, #0]
    5e7e:	4698      	mov	r8, r3
	uint32_t sercom_index = _sercom_get_sercom_inst_index(module->hw);
    5e80:	0018      	movs	r0, r3
    5e82:	4ba0      	ldr	r3, [pc, #640]	; (6104 <usart_init+0x30c>)
    5e84:	4798      	blx	r3
	uint32_t gclk_index   = sercom_index + SERCOM0_GCLK_ID_CORE;
    5e86:	3014      	adds	r0, #20
	uint16_t baud  = 0;
    5e88:	2200      	movs	r2, #0
    5e8a:	230e      	movs	r3, #14
    5e8c:	a906      	add	r1, sp, #24
    5e8e:	468c      	mov	ip, r1
    5e90:	4463      	add	r3, ip
    5e92:	801a      	strh	r2, [r3, #0]
	switch (config->sample_rate) {
    5e94:	8a32      	ldrh	r2, [r6, #16]
    5e96:	9202      	str	r2, [sp, #8]
    5e98:	2380      	movs	r3, #128	; 0x80
    5e9a:	01db      	lsls	r3, r3, #7
    5e9c:	429a      	cmp	r2, r3
    5e9e:	d100      	bne.n	5ea2 <usart_init+0xaa>
    5ea0:	e09e      	b.n	5fe0 <usart_init+0x1e8>
    5ea2:	d90f      	bls.n	5ec4 <usart_init+0xcc>
    5ea4:	23c0      	movs	r3, #192	; 0xc0
    5ea6:	01db      	lsls	r3, r3, #7
    5ea8:	9a02      	ldr	r2, [sp, #8]
    5eaa:	429a      	cmp	r2, r3
    5eac:	d100      	bne.n	5eb0 <usart_init+0xb8>
    5eae:	e092      	b.n	5fd6 <usart_init+0x1de>
    5eb0:	2380      	movs	r3, #128	; 0x80
    5eb2:	021b      	lsls	r3, r3, #8
    5eb4:	429a      	cmp	r2, r3
    5eb6:	d000      	beq.n	5eba <usart_init+0xc2>
    5eb8:	e11f      	b.n	60fa <usart_init+0x302>
			sample_num = SERCOM_ASYNC_SAMPLE_NUM_3;
    5eba:	2303      	movs	r3, #3
    5ebc:	9306      	str	r3, [sp, #24]
			mode = SERCOM_ASYNC_OPERATION_MODE_ARITHMETIC;
    5ebe:	2300      	movs	r3, #0
    5ec0:	9307      	str	r3, [sp, #28]
    5ec2:	e008      	b.n	5ed6 <usart_init+0xde>
	switch (config->sample_rate) {
    5ec4:	2380      	movs	r3, #128	; 0x80
    5ec6:	019b      	lsls	r3, r3, #6
    5ec8:	429a      	cmp	r2, r3
    5eca:	d000      	beq.n	5ece <usart_init+0xd6>
    5ecc:	e115      	b.n	60fa <usart_init+0x302>
			sample_num = SERCOM_ASYNC_SAMPLE_NUM_16;
    5ece:	2310      	movs	r3, #16
    5ed0:	9306      	str	r3, [sp, #24]
			mode = SERCOM_ASYNC_OPERATION_MODE_FRACTIONAL;
    5ed2:	3b0f      	subs	r3, #15
    5ed4:	9307      	str	r3, [sp, #28]
	ctrla = (uint32_t)config->data_order |
    5ed6:	6833      	ldr	r3, [r6, #0]
    5ed8:	9305      	str	r3, [sp, #20]
		(uint32_t)config->mux_setting |
    5eda:	68f3      	ldr	r3, [r6, #12]
    5edc:	9303      	str	r3, [sp, #12]
		config->sample_adjustment |
    5ede:	6973      	ldr	r3, [r6, #20]
    5ee0:	9304      	str	r3, [sp, #16]
		(config->immediate_buffer_overflow_notification << SERCOM_USART_CTRLA_IBON_Pos) |
    5ee2:	7e33      	ldrb	r3, [r6, #24]
    5ee4:	469b      	mov	fp, r3
		(config->clock_polarity_inverted << SERCOM_USART_CTRLA_CPOL_Pos);
    5ee6:	2326      	movs	r3, #38	; 0x26
    5ee8:	5cf3      	ldrb	r3, [r6, r3]
    5eea:	469a      	mov	sl, r3
	transfer_mode = (uint32_t)config->transfer_mode;
    5eec:	6873      	ldr	r3, [r6, #4]
    5eee:	4699      	mov	r9, r3
	switch (transfer_mode)
    5ef0:	2b00      	cmp	r3, #0
    5ef2:	d100      	bne.n	5ef6 <usart_init+0xfe>
    5ef4:	e0a0      	b.n	6038 <usart_init+0x240>
    5ef6:	2380      	movs	r3, #128	; 0x80
    5ef8:	055b      	lsls	r3, r3, #21
    5efa:	4599      	cmp	r9, r3
    5efc:	d100      	bne.n	5f00 <usart_init+0x108>
    5efe:	e084      	b.n	600a <usart_init+0x212>
	if(config->encoding_format_enable) {
    5f00:	7e73      	ldrb	r3, [r6, #25]
    5f02:	2b00      	cmp	r3, #0
    5f04:	d002      	beq.n	5f0c <usart_init+0x114>
		usart_hw->RXPL.reg = config->receive_pulse_length;
    5f06:	7eb3      	ldrb	r3, [r6, #26]
    5f08:	4642      	mov	r2, r8
    5f0a:	7393      	strb	r3, [r2, #14]
	SercomUsart *const usart_hw = &(module->hw->USART);
    5f0c:	682a      	ldr	r2, [r5, #0]
    5f0e:	9f02      	ldr	r7, [sp, #8]
	return (usart_hw->SYNCBUSY.reg);
    5f10:	69d3      	ldr	r3, [r2, #28]
	while (usart_is_syncing(module)) {
    5f12:	2b00      	cmp	r3, #0
    5f14:	d1fc      	bne.n	5f10 <usart_init+0x118>
	usart_hw->BAUD.reg = baud;
    5f16:	330e      	adds	r3, #14
    5f18:	aa06      	add	r2, sp, #24
    5f1a:	4694      	mov	ip, r2
    5f1c:	4463      	add	r3, ip
    5f1e:	881b      	ldrh	r3, [r3, #0]
    5f20:	4642      	mov	r2, r8
    5f22:	8193      	strh	r3, [r2, #12]
	ctrla |= transfer_mode;
    5f24:	9b05      	ldr	r3, [sp, #20]
    5f26:	9a03      	ldr	r2, [sp, #12]
    5f28:	4313      	orrs	r3, r2
    5f2a:	9a04      	ldr	r2, [sp, #16]
    5f2c:	4313      	orrs	r3, r2
    5f2e:	464a      	mov	r2, r9
    5f30:	4313      	orrs	r3, r2
    5f32:	431f      	orrs	r7, r3
		(config->immediate_buffer_overflow_notification << SERCOM_USART_CTRLA_IBON_Pos) |
    5f34:	465b      	mov	r3, fp
    5f36:	021b      	lsls	r3, r3, #8
	ctrla |= transfer_mode;
    5f38:	431f      	orrs	r7, r3
		(config->clock_polarity_inverted << SERCOM_USART_CTRLA_CPOL_Pos);
    5f3a:	4653      	mov	r3, sl
    5f3c:	075b      	lsls	r3, r3, #29
	ctrla |= transfer_mode;
    5f3e:	431f      	orrs	r7, r3
	if (config->use_external_clock == false) {
    5f40:	2327      	movs	r3, #39	; 0x27
    5f42:	5cf3      	ldrb	r3, [r6, r3]
    5f44:	2b00      	cmp	r3, #0
    5f46:	d101      	bne.n	5f4c <usart_init+0x154>
		ctrla |= SERCOM_USART_CTRLA_MODE(0x1);
    5f48:	3304      	adds	r3, #4
    5f4a:	431f      	orrs	r7, r3
			(config->encoding_format_enable << SERCOM_USART_CTRLB_ENC_Pos) |
    5f4c:	7e73      	ldrb	r3, [r6, #25]
    5f4e:	029b      	lsls	r3, r3, #10
			(config->start_frame_detection_enable << SERCOM_USART_CTRLB_SFDE_Pos) |
    5f50:	7f32      	ldrb	r2, [r6, #28]
    5f52:	0252      	lsls	r2, r2, #9
			(config->encoding_format_enable << SERCOM_USART_CTRLB_ENC_Pos) |
    5f54:	4313      	orrs	r3, r2
			(config->collision_detection_enable << SERCOM_USART_CTRLB_COLDEN_Pos) |
    5f56:	7f72      	ldrb	r2, [r6, #29]
    5f58:	0212      	lsls	r2, r2, #8
			(config->start_frame_detection_enable << SERCOM_USART_CTRLB_SFDE_Pos) |
    5f5a:	4313      	orrs	r3, r2
			(config->receiver_enable << SERCOM_USART_CTRLB_RXEN_Pos) |
    5f5c:	2224      	movs	r2, #36	; 0x24
    5f5e:	5cb2      	ldrb	r2, [r6, r2]
    5f60:	0452      	lsls	r2, r2, #17
			(config->collision_detection_enable << SERCOM_USART_CTRLB_COLDEN_Pos) |
    5f62:	4313      	orrs	r3, r2
			(config->transmitter_enable << SERCOM_USART_CTRLB_TXEN_Pos);
    5f64:	2225      	movs	r2, #37	; 0x25
    5f66:	5cb2      	ldrb	r2, [r6, r2]
    5f68:	0412      	lsls	r2, r2, #16
			(config->receiver_enable << SERCOM_USART_CTRLB_RXEN_Pos) |
    5f6a:	4313      	orrs	r3, r2
	ctrlb |= (uint32_t)config->character_size;
    5f6c:	7ab1      	ldrb	r1, [r6, #10]
    5f6e:	7af2      	ldrb	r2, [r6, #11]
    5f70:	4311      	orrs	r1, r2
    5f72:	4319      	orrs	r1, r3
	if (config->parity != USART_PARITY_NONE) {
    5f74:	8933      	ldrh	r3, [r6, #8]
    5f76:	2bff      	cmp	r3, #255	; 0xff
    5f78:	d100      	bne.n	5f7c <usart_init+0x184>
    5f7a:	e081      	b.n	6080 <usart_init+0x288>
		ctrla |= SERCOM_USART_CTRLA_FORM(1);
    5f7c:	2280      	movs	r2, #128	; 0x80
    5f7e:	0452      	lsls	r2, r2, #17
    5f80:	4317      	orrs	r7, r2
		ctrlb |= config->parity;
    5f82:	4319      	orrs	r1, r3
	if (config->run_in_standby || system_is_debugger_present()) {
    5f84:	232c      	movs	r3, #44	; 0x2c
    5f86:	5cf3      	ldrb	r3, [r6, r3]
    5f88:	2b00      	cmp	r3, #0
    5f8a:	d103      	bne.n	5f94 <usart_init+0x19c>
    5f8c:	4b62      	ldr	r3, [pc, #392]	; (6118 <usart_init+0x320>)
    5f8e:	789b      	ldrb	r3, [r3, #2]
    5f90:	079b      	lsls	r3, r3, #30
    5f92:	d501      	bpl.n	5f98 <usart_init+0x1a0>
		ctrla |= SERCOM_USART_CTRLA_RUNSTDBY;
    5f94:	2380      	movs	r3, #128	; 0x80
    5f96:	431f      	orrs	r7, r3
	SercomUsart *const usart_hw = &(module->hw->USART);
    5f98:	682a      	ldr	r2, [r5, #0]
	return (usart_hw->SYNCBUSY.reg);
    5f9a:	69d3      	ldr	r3, [r2, #28]
	while (usart_is_syncing(module)) {
    5f9c:	2b00      	cmp	r3, #0
    5f9e:	d1fc      	bne.n	5f9a <usart_init+0x1a2>
	usart_hw->CTRLB.reg = ctrlb;
    5fa0:	4643      	mov	r3, r8
    5fa2:	6059      	str	r1, [r3, #4]
	SercomUsart *const usart_hw = &(module->hw->USART);
    5fa4:	682a      	ldr	r2, [r5, #0]
	return (usart_hw->SYNCBUSY.reg);
    5fa6:	69d3      	ldr	r3, [r2, #28]
	while (usart_is_syncing(module)) {
    5fa8:	2b00      	cmp	r3, #0
    5faa:	d1fc      	bne.n	5fa6 <usart_init+0x1ae>
	usart_hw->CTRLA.reg = ctrla;
    5fac:	4643      	mov	r3, r8
    5fae:	601f      	str	r7, [r3, #0]
    5fb0:	ab0e      	add	r3, sp, #56	; 0x38
    5fb2:	2280      	movs	r2, #128	; 0x80
    5fb4:	701a      	strb	r2, [r3, #0]
	config->direction    = SYSTEM_PINMUX_PIN_DIR_INPUT;
    5fb6:	2200      	movs	r2, #0
    5fb8:	705a      	strb	r2, [r3, #1]
	config->powersave    = false;
    5fba:	70da      	strb	r2, [r3, #3]
	pin_conf.input_pull = SYSTEM_PINMUX_PIN_PULL_NONE;
    5fbc:	709a      	strb	r2, [r3, #2]
	uint32_t pad_pinmuxes[] = {
    5fbe:	6b33      	ldr	r3, [r6, #48]	; 0x30
    5fc0:	930a      	str	r3, [sp, #40]	; 0x28
    5fc2:	6b73      	ldr	r3, [r6, #52]	; 0x34
    5fc4:	930b      	str	r3, [sp, #44]	; 0x2c
    5fc6:	6bb3      	ldr	r3, [r6, #56]	; 0x38
    5fc8:	930c      	str	r3, [sp, #48]	; 0x30
    5fca:	6bf3      	ldr	r3, [r6, #60]	; 0x3c
    5fcc:	9302      	str	r3, [sp, #8]
    5fce:	930d      	str	r3, [sp, #52]	; 0x34
    5fd0:	2700      	movs	r7, #0
		uint32_t current_pinmux = pad_pinmuxes[pad];
    5fd2:	ae0a      	add	r6, sp, #40	; 0x28
    5fd4:	e063      	b.n	609e <usart_init+0x2a6>
			sample_num = SERCOM_ASYNC_SAMPLE_NUM_8;
    5fd6:	2308      	movs	r3, #8
    5fd8:	9306      	str	r3, [sp, #24]
			mode = SERCOM_ASYNC_OPERATION_MODE_FRACTIONAL;
    5fda:	3b07      	subs	r3, #7
    5fdc:	9307      	str	r3, [sp, #28]
    5fde:	e77a      	b.n	5ed6 <usart_init+0xde>
	ctrla = (uint32_t)config->data_order |
    5fe0:	6833      	ldr	r3, [r6, #0]
    5fe2:	9305      	str	r3, [sp, #20]
		(uint32_t)config->mux_setting |
    5fe4:	68f3      	ldr	r3, [r6, #12]
    5fe6:	9303      	str	r3, [sp, #12]
		config->sample_adjustment |
    5fe8:	6973      	ldr	r3, [r6, #20]
    5fea:	9304      	str	r3, [sp, #16]
		(config->immediate_buffer_overflow_notification << SERCOM_USART_CTRLA_IBON_Pos) |
    5fec:	7e33      	ldrb	r3, [r6, #24]
    5fee:	469b      	mov	fp, r3
		(config->clock_polarity_inverted << SERCOM_USART_CTRLA_CPOL_Pos);
    5ff0:	2326      	movs	r3, #38	; 0x26
    5ff2:	5cf3      	ldrb	r3, [r6, r3]
    5ff4:	469a      	mov	sl, r3
	transfer_mode = (uint32_t)config->transfer_mode;
    5ff6:	6873      	ldr	r3, [r6, #4]
    5ff8:	4699      	mov	r9, r3
	switch (transfer_mode)
    5ffa:	2b00      	cmp	r3, #0
    5ffc:	d018      	beq.n	6030 <usart_init+0x238>
    5ffe:	2380      	movs	r3, #128	; 0x80
    6000:	055b      	lsls	r3, r3, #21
    6002:	4599      	cmp	r9, r3
    6004:	d001      	beq.n	600a <usart_init+0x212>
	enum status_code status_code = STATUS_OK;
    6006:	2000      	movs	r0, #0
    6008:	e025      	b.n	6056 <usart_init+0x25e>
			if (!config->use_external_clock) {
    600a:	2327      	movs	r3, #39	; 0x27
    600c:	5cf3      	ldrb	r3, [r6, r3]
    600e:	2b00      	cmp	r3, #0
    6010:	d000      	beq.n	6014 <usart_init+0x21c>
    6012:	e775      	b.n	5f00 <usart_init+0x108>
				status_code = _sercom_get_sync_baud_val(config->baudrate,
    6014:	6a33      	ldr	r3, [r6, #32]
    6016:	001f      	movs	r7, r3
    6018:	b2c0      	uxtb	r0, r0
    601a:	4b40      	ldr	r3, [pc, #256]	; (611c <usart_init+0x324>)
    601c:	4798      	blx	r3
    601e:	0001      	movs	r1, r0
    6020:	220e      	movs	r2, #14
    6022:	ab06      	add	r3, sp, #24
    6024:	469c      	mov	ip, r3
    6026:	4462      	add	r2, ip
    6028:	0038      	movs	r0, r7
    602a:	4b3d      	ldr	r3, [pc, #244]	; (6120 <usart_init+0x328>)
    602c:	4798      	blx	r3
    602e:	e012      	b.n	6056 <usart_init+0x25e>
			sample_num = SERCOM_ASYNC_SAMPLE_NUM_8;
    6030:	2308      	movs	r3, #8
    6032:	9306      	str	r3, [sp, #24]
			mode = SERCOM_ASYNC_OPERATION_MODE_ARITHMETIC;
    6034:	2300      	movs	r3, #0
    6036:	9307      	str	r3, [sp, #28]
			if (config->use_external_clock) {
    6038:	2327      	movs	r3, #39	; 0x27
    603a:	5cf3      	ldrb	r3, [r6, r3]
    603c:	2b00      	cmp	r3, #0
    603e:	d00e      	beq.n	605e <usart_init+0x266>
				status_code =
    6040:	9b06      	ldr	r3, [sp, #24]
    6042:	9300      	str	r3, [sp, #0]
    6044:	9b07      	ldr	r3, [sp, #28]
    6046:	220e      	movs	r2, #14
    6048:	a906      	add	r1, sp, #24
    604a:	468c      	mov	ip, r1
    604c:	4462      	add	r2, ip
    604e:	6ab1      	ldr	r1, [r6, #40]	; 0x28
    6050:	6a30      	ldr	r0, [r6, #32]
    6052:	4f34      	ldr	r7, [pc, #208]	; (6124 <usart_init+0x32c>)
    6054:	47b8      	blx	r7
	if (status_code != STATUS_OK) {
    6056:	2800      	cmp	r0, #0
    6058:	d000      	beq.n	605c <usart_init+0x264>
    605a:	e6e0      	b.n	5e1e <usart_init+0x26>
    605c:	e750      	b.n	5f00 <usart_init+0x108>
						_sercom_get_async_baud_val(config->baudrate,
    605e:	6a33      	ldr	r3, [r6, #32]
    6060:	001f      	movs	r7, r3
    6062:	b2c0      	uxtb	r0, r0
    6064:	4b2d      	ldr	r3, [pc, #180]	; (611c <usart_init+0x324>)
    6066:	4798      	blx	r3
    6068:	0001      	movs	r1, r0
				status_code =
    606a:	9b06      	ldr	r3, [sp, #24]
    606c:	9300      	str	r3, [sp, #0]
    606e:	9b07      	ldr	r3, [sp, #28]
    6070:	220e      	movs	r2, #14
    6072:	a806      	add	r0, sp, #24
    6074:	4684      	mov	ip, r0
    6076:	4462      	add	r2, ip
    6078:	0038      	movs	r0, r7
    607a:	4f2a      	ldr	r7, [pc, #168]	; (6124 <usart_init+0x32c>)
    607c:	47b8      	blx	r7
    607e:	e7ea      	b.n	6056 <usart_init+0x25e>
		if(config->lin_slave_enable) {
    6080:	7ef3      	ldrb	r3, [r6, #27]
    6082:	2b00      	cmp	r3, #0
    6084:	d100      	bne.n	6088 <usart_init+0x290>
    6086:	e77d      	b.n	5f84 <usart_init+0x18c>
			ctrla |= SERCOM_USART_CTRLA_FORM(0x4);
    6088:	2380      	movs	r3, #128	; 0x80
    608a:	04db      	lsls	r3, r3, #19
    608c:	431f      	orrs	r7, r3
    608e:	e779      	b.n	5f84 <usart_init+0x18c>
			current_pinmux = _sercom_get_default_pad(hw, pad);
    6090:	0020      	movs	r0, r4
    6092:	4b25      	ldr	r3, [pc, #148]	; (6128 <usart_init+0x330>)
    6094:	4798      	blx	r3
    6096:	e007      	b.n	60a8 <usart_init+0x2b0>
    6098:	3701      	adds	r7, #1
	for (uint8_t pad = 0; pad < 4; pad++) {
    609a:	2f04      	cmp	r7, #4
    609c:	d00d      	beq.n	60ba <usart_init+0x2c2>
    609e:	b2f9      	uxtb	r1, r7
		uint32_t current_pinmux = pad_pinmuxes[pad];
    60a0:	00bb      	lsls	r3, r7, #2
    60a2:	5998      	ldr	r0, [r3, r6]
		if (current_pinmux == PINMUX_DEFAULT) {
    60a4:	2800      	cmp	r0, #0
    60a6:	d0f3      	beq.n	6090 <usart_init+0x298>
		if (current_pinmux != PINMUX_UNUSED) {
    60a8:	1c43      	adds	r3, r0, #1
    60aa:	d0f5      	beq.n	6098 <usart_init+0x2a0>
			pin_conf.mux_position = current_pinmux & 0xFFFF;
    60ac:	a90e      	add	r1, sp, #56	; 0x38
    60ae:	7008      	strb	r0, [r1, #0]
			system_pinmux_pin_set_config(current_pinmux >> 16, &pin_conf);
    60b0:	0c00      	lsrs	r0, r0, #16
    60b2:	b2c0      	uxtb	r0, r0
    60b4:	4b1d      	ldr	r3, [pc, #116]	; (612c <usart_init+0x334>)
    60b6:	4798      	blx	r3
    60b8:	e7ee      	b.n	6098 <usart_init+0x2a0>
		module->callback[i]            = NULL;
    60ba:	2300      	movs	r3, #0
    60bc:	60eb      	str	r3, [r5, #12]
    60be:	612b      	str	r3, [r5, #16]
    60c0:	616b      	str	r3, [r5, #20]
    60c2:	61ab      	str	r3, [r5, #24]
    60c4:	61eb      	str	r3, [r5, #28]
    60c6:	622b      	str	r3, [r5, #32]
	module->tx_buffer_ptr              = NULL;
    60c8:	62ab      	str	r3, [r5, #40]	; 0x28
	module->rx_buffer_ptr              = NULL;
    60ca:	626b      	str	r3, [r5, #36]	; 0x24
	module->remaining_tx_buffer_length = 0x0000;
    60cc:	2200      	movs	r2, #0
    60ce:	85eb      	strh	r3, [r5, #46]	; 0x2e
	module->remaining_rx_buffer_length = 0x0000;
    60d0:	85ab      	strh	r3, [r5, #44]	; 0x2c
	module->callback_reg_mask          = 0x00;
    60d2:	3330      	adds	r3, #48	; 0x30
    60d4:	54ea      	strb	r2, [r5, r3]
	module->callback_enable_mask       = 0x00;
    60d6:	3301      	adds	r3, #1
    60d8:	54ea      	strb	r2, [r5, r3]
	module->rx_status                  = STATUS_OK;
    60da:	3301      	adds	r3, #1
    60dc:	54ea      	strb	r2, [r5, r3]
	module->tx_status                  = STATUS_OK;
    60de:	3301      	adds	r3, #1
    60e0:	54ea      	strb	r2, [r5, r3]
	uint8_t instance_index = _sercom_get_sercom_inst_index(module->hw);
    60e2:	6828      	ldr	r0, [r5, #0]
    60e4:	4b07      	ldr	r3, [pc, #28]	; (6104 <usart_init+0x30c>)
    60e6:	4798      	blx	r3
    60e8:	0004      	movs	r4, r0
	_sercom_set_handler(instance_index, _usart_interrupt_handler);
    60ea:	4911      	ldr	r1, [pc, #68]	; (6130 <usart_init+0x338>)
    60ec:	4b11      	ldr	r3, [pc, #68]	; (6134 <usart_init+0x33c>)
    60ee:	4798      	blx	r3
	_sercom_instances[instance_index] = module;
    60f0:	00a4      	lsls	r4, r4, #2
    60f2:	4b11      	ldr	r3, [pc, #68]	; (6138 <usart_init+0x340>)
    60f4:	50e5      	str	r5, [r4, r3]
	return status_code;
    60f6:	2000      	movs	r0, #0
    60f8:	e691      	b.n	5e1e <usart_init+0x26>
	enum sercom_asynchronous_sample_num sample_num = SERCOM_ASYNC_SAMPLE_NUM_16;
    60fa:	2310      	movs	r3, #16
    60fc:	9306      	str	r3, [sp, #24]
	enum sercom_asynchronous_operation_mode mode = SERCOM_ASYNC_OPERATION_MODE_ARITHMETIC;
    60fe:	2300      	movs	r3, #0
    6100:	9307      	str	r3, [sp, #28]
    6102:	e6e8      	b.n	5ed6 <usart_init+0xde>
    6104:	00005cf1 	.word	0x00005cf1
    6108:	40000400 	.word	0x40000400
    610c:	0000699d 	.word	0x0000699d
    6110:	00006911 	.word	0x00006911
    6114:	00005b2d 	.word	0x00005b2d
    6118:	41002000 	.word	0x41002000
    611c:	000069b9 	.word	0x000069b9
    6120:	00005a6f 	.word	0x00005a6f
    6124:	00005a99 	.word	0x00005a99
    6128:	00005b79 	.word	0x00005b79
    612c:	00006ac5 	.word	0x00006ac5
    6130:	0000623d 	.word	0x0000623d
    6134:	00005d2d 	.word	0x00005d2d
    6138:	20004ddc 	.word	0x20004ddc

0000613c <_usart_write_buffer>:
 */
enum status_code _usart_write_buffer(
		struct usart_module *const module,
		uint8_t *tx_data,
		uint16_t length)
{
    613c:	b5f8      	push	{r3, r4, r5, r6, r7, lr}
    613e:	0006      	movs	r6, r0
    6140:	000c      	movs	r4, r1
    6142:	0015      	movs	r5, r2
	Assert(module);
	Assert(module->hw);
	Assert(tx_data);

	/* Get a pointer to the hardware module instance */
	SercomUsart *const usart_hw = &(module->hw->USART);
    6144:	6807      	ldr	r7, [r0, #0]
	cpu_irq_enter_critical();
    6146:	4b0a      	ldr	r3, [pc, #40]	; (6170 <_usart_write_buffer+0x34>)
    6148:	4798      	blx	r3

	system_interrupt_enter_critical_section();

	/* Check if the USART transmitter is busy */
	if (module->remaining_tx_buffer_length > 0) {
    614a:	8df3      	ldrh	r3, [r6, #46]	; 0x2e
    614c:	b29b      	uxth	r3, r3
    614e:	2b00      	cmp	r3, #0
    6150:	d003      	beq.n	615a <_usart_write_buffer+0x1e>
	cpu_irq_leave_critical();
    6152:	4b08      	ldr	r3, [pc, #32]	; (6174 <_usart_write_buffer+0x38>)
    6154:	4798      	blx	r3
		system_interrupt_leave_critical_section();
		return STATUS_BUSY;
    6156:	2005      	movs	r0, #5

	/* Enable the Data Register Empty Interrupt */
	usart_hw->INTENSET.reg = SERCOM_USART_INTFLAG_DRE;

	return STATUS_OK;
}
    6158:	bdf8      	pop	{r3, r4, r5, r6, r7, pc}
	module->remaining_tx_buffer_length = length;
    615a:	85f5      	strh	r5, [r6, #46]	; 0x2e
    615c:	4b05      	ldr	r3, [pc, #20]	; (6174 <_usart_write_buffer+0x38>)
    615e:	4798      	blx	r3
	module->tx_buffer_ptr              = tx_data;
    6160:	62b4      	str	r4, [r6, #40]	; 0x28
	module->tx_status                  = STATUS_BUSY;
    6162:	2205      	movs	r2, #5
    6164:	2333      	movs	r3, #51	; 0x33
    6166:	54f2      	strb	r2, [r6, r3]
	usart_hw->INTENSET.reg = SERCOM_USART_INTFLAG_DRE;
    6168:	3b32      	subs	r3, #50	; 0x32
    616a:	75bb      	strb	r3, [r7, #22]
	return STATUS_OK;
    616c:	2000      	movs	r0, #0
    616e:	e7f3      	b.n	6158 <_usart_write_buffer+0x1c>
    6170:	000057cd 	.word	0x000057cd
    6174:	0000580d 	.word	0x0000580d

00006178 <_usart_read_buffer>:
 */
enum status_code _usart_read_buffer(
		struct usart_module *const module,
		uint8_t *rx_data,
		uint16_t length)
{
    6178:	b5f8      	push	{r3, r4, r5, r6, r7, lr}
    617a:	0004      	movs	r4, r0
    617c:	000d      	movs	r5, r1
    617e:	0016      	movs	r6, r2
	Assert(module);
	Assert(module->hw);
	Assert(rx_data);

	/* Get a pointer to the hardware module instance */
	SercomUsart *const usart_hw = &(module->hw->USART);
    6180:	6807      	ldr	r7, [r0, #0]
	cpu_irq_enter_critical();
    6182:	4b0f      	ldr	r3, [pc, #60]	; (61c0 <_usart_read_buffer+0x48>)
    6184:	4798      	blx	r3

	system_interrupt_enter_critical_section();

	/* Check if the USART receiver is busy */
	if (module->remaining_rx_buffer_length > 0) {
    6186:	8da3      	ldrh	r3, [r4, #44]	; 0x2c
    6188:	b29b      	uxth	r3, r3
    618a:	2b00      	cmp	r3, #0
    618c:	d003      	beq.n	6196 <_usart_read_buffer+0x1e>
	cpu_irq_leave_critical();
    618e:	4b0d      	ldr	r3, [pc, #52]	; (61c4 <_usart_read_buffer+0x4c>)
    6190:	4798      	blx	r3
		system_interrupt_leave_critical_section();
		return STATUS_BUSY;
    6192:	2005      	movs	r0, #5
		usart_hw->INTENSET.reg = SERCOM_USART_INTFLAG_RXS;
	}
#endif

	return STATUS_OK;
}
    6194:	bdf8      	pop	{r3, r4, r5, r6, r7, pc}
	module->remaining_rx_buffer_length = length;
    6196:	85a6      	strh	r6, [r4, #44]	; 0x2c
    6198:	4b0a      	ldr	r3, [pc, #40]	; (61c4 <_usart_read_buffer+0x4c>)
    619a:	4798      	blx	r3
	module->rx_buffer_ptr              = rx_data;
    619c:	6265      	str	r5, [r4, #36]	; 0x24
	module->rx_status                  = STATUS_BUSY;
    619e:	2205      	movs	r2, #5
    61a0:	2332      	movs	r3, #50	; 0x32
    61a2:	54e2      	strb	r2, [r4, r3]
	usart_hw->INTENSET.reg = SERCOM_USART_INTFLAG_RXC;
    61a4:	3b2e      	subs	r3, #46	; 0x2e
    61a6:	75bb      	strb	r3, [r7, #22]
	if(module->lin_slave_enabled) {
    61a8:	7a23      	ldrb	r3, [r4, #8]
    61aa:	2b00      	cmp	r3, #0
    61ac:	d001      	beq.n	61b2 <_usart_read_buffer+0x3a>
		usart_hw->INTENSET.reg = SERCOM_USART_INTFLAG_RXBRK;
    61ae:	2320      	movs	r3, #32
    61b0:	75bb      	strb	r3, [r7, #22]
	if(module->start_frame_detection_enabled) {
    61b2:	7a63      	ldrb	r3, [r4, #9]
	return STATUS_OK;
    61b4:	2000      	movs	r0, #0
	if(module->start_frame_detection_enabled) {
    61b6:	2b00      	cmp	r3, #0
    61b8:	d0ec      	beq.n	6194 <_usart_read_buffer+0x1c>
		usart_hw->INTENSET.reg = SERCOM_USART_INTFLAG_RXS;
    61ba:	2308      	movs	r3, #8
    61bc:	75bb      	strb	r3, [r7, #22]
    61be:	e7e9      	b.n	6194 <_usart_read_buffer+0x1c>
    61c0:	000057cd 	.word	0x000057cd
    61c4:	0000580d 	.word	0x0000580d

000061c8 <usart_register_callback>:
	/* Sanity check arguments */
	Assert(module);
	Assert(callback_func);

	/* Register callback function */
	module->callback[callback_type] = callback_func;
    61c8:	1c93      	adds	r3, r2, #2
    61ca:	009b      	lsls	r3, r3, #2
    61cc:	18c3      	adds	r3, r0, r3
    61ce:	6059      	str	r1, [r3, #4]

	/* Set the bit corresponding to the callback_type */
	module->callback_reg_mask |= (1 << callback_type);
    61d0:	2130      	movs	r1, #48	; 0x30
    61d2:	2301      	movs	r3, #1
    61d4:	4093      	lsls	r3, r2
    61d6:	001a      	movs	r2, r3
    61d8:	5c43      	ldrb	r3, [r0, r1]
    61da:	4313      	orrs	r3, r2
    61dc:	5443      	strb	r3, [r0, r1]
}
    61de:	4770      	bx	lr

000061e0 <usart_write_buffer_job>:
 */
enum status_code usart_write_buffer_job(
		struct usart_module *const module,
		uint8_t *tx_data,
		uint16_t length)
{
    61e0:	b510      	push	{r4, lr}
	/* Sanity check arguments */
	Assert(module);
	Assert(tx_data);

	if (length == 0) {
		return STATUS_ERR_INVALID_ARG;
    61e2:	2317      	movs	r3, #23
	if (length == 0) {
    61e4:	2a00      	cmp	r2, #0
    61e6:	d101      	bne.n	61ec <usart_write_buffer_job+0xc>
		return STATUS_ERR_DENIED;
	}

	/* Issue internal asynchronous write */
	return _usart_write_buffer(module, tx_data, length);
}
    61e8:	0018      	movs	r0, r3
    61ea:	bd10      	pop	{r4, pc}
	if (!(module->transmitter_enabled)) {
    61ec:	79c4      	ldrb	r4, [r0, #7]
		return STATUS_ERR_DENIED;
    61ee:	3305      	adds	r3, #5
	if (!(module->transmitter_enabled)) {
    61f0:	2c00      	cmp	r4, #0
    61f2:	d0f9      	beq.n	61e8 <usart_write_buffer_job+0x8>
	return _usart_write_buffer(module, tx_data, length);
    61f4:	4b01      	ldr	r3, [pc, #4]	; (61fc <usart_write_buffer_job+0x1c>)
    61f6:	4798      	blx	r3
    61f8:	0003      	movs	r3, r0
    61fa:	e7f5      	b.n	61e8 <usart_write_buffer_job+0x8>
    61fc:	0000613d 	.word	0x0000613d

00006200 <usart_read_buffer_job>:
 */
enum status_code usart_read_buffer_job(
		struct usart_module *const module,
		uint8_t *rx_data,
		uint16_t length)
{
    6200:	b510      	push	{r4, lr}
	/* Sanity check arguments */
	Assert(module);
	Assert(rx_data);

	if (length == 0) {
		return STATUS_ERR_INVALID_ARG;
    6202:	2317      	movs	r3, #23
	if (length == 0) {
    6204:	2a00      	cmp	r2, #0
    6206:	d101      	bne.n	620c <usart_read_buffer_job+0xc>
		return STATUS_ERR_DENIED;
	}

	/* Issue internal asynchronous read */
	return _usart_read_buffer(module, rx_data, length);
}
    6208:	0018      	movs	r0, r3
    620a:	bd10      	pop	{r4, pc}
	if (!(module->receiver_enabled)) {
    620c:	7984      	ldrb	r4, [r0, #6]
		return STATUS_ERR_DENIED;
    620e:	3305      	adds	r3, #5
	if (!(module->receiver_enabled)) {
    6210:	2c00      	cmp	r4, #0
    6212:	d0f9      	beq.n	6208 <usart_read_buffer_job+0x8>
	return _usart_read_buffer(module, rx_data, length);
    6214:	4b01      	ldr	r3, [pc, #4]	; (621c <usart_read_buffer_job+0x1c>)
    6216:	4798      	blx	r3
    6218:	0003      	movs	r3, r0
    621a:	e7f5      	b.n	6208 <usart_read_buffer_job+0x8>
    621c:	00006179 	.word	0x00006179

00006220 <usart_get_job_status>:
	Assert(module);

	/* Variable for status code */
	enum status_code status_code;

	switch(transceiver_type) {
    6220:	2900      	cmp	r1, #0
    6222:	d003      	beq.n	622c <usart_get_job_status+0xc>
    6224:	2901      	cmp	r1, #1
    6226:	d005      	beq.n	6234 <usart_get_job_status+0x14>
	case USART_TRANSCEIVER_TX:
			status_code = module->tx_status;
			break;

	default:
			status_code = STATUS_ERR_INVALID_ARG;
    6228:	2017      	movs	r0, #23
    622a:	e002      	b.n	6232 <usart_get_job_status+0x12>
			status_code = module->rx_status;
    622c:	2332      	movs	r3, #50	; 0x32
    622e:	5cc0      	ldrb	r0, [r0, r3]
    6230:	b2c0      	uxtb	r0, r0
			break;
	}

	return status_code;
}
    6232:	4770      	bx	lr
			status_code = module->tx_status;
    6234:	2333      	movs	r3, #51	; 0x33
    6236:	5cc0      	ldrb	r0, [r0, r3]
    6238:	b2c0      	uxtb	r0, r0
			break;
    623a:	e7fa      	b.n	6232 <usart_get_job_status+0x12>

0000623c <_usart_interrupt_handler>:
 * \param[in]  instance  ID of the SERCOM instance calling the interrupt
 *                       handler.
 */
void _usart_interrupt_handler(
		uint8_t instance)
{
    623c:	b5f8      	push	{r3, r4, r5, r6, r7, lr}
	uint16_t callback_status;
	uint8_t error_code;


	/* Get device instance from the look-up table */
	struct usart_module *module
    623e:	0080      	lsls	r0, r0, #2
    6240:	4b62      	ldr	r3, [pc, #392]	; (63cc <_usart_interrupt_handler+0x190>)
    6242:	58c5      	ldr	r5, [r0, r3]
		= (struct usart_module *)_sercom_instances[instance];

	/* Pointer to the hardware module instance */
	SercomUsart *const usart_hw
		= &(module->hw->USART);
    6244:	682c      	ldr	r4, [r5, #0]
	return (usart_hw->SYNCBUSY.reg);
    6246:	69e3      	ldr	r3, [r4, #28]
	while (usart_is_syncing(module)) {
    6248:	2b00      	cmp	r3, #0
    624a:	d1fc      	bne.n	6246 <_usart_interrupt_handler+0xa>

	/* Wait for the synchronization to complete */
	_usart_wait_for_sync(module);

	/* Read and mask interrupt flag register */
	interrupt_status = usart_hw->INTFLAG.reg;
    624c:	7e23      	ldrb	r3, [r4, #24]
	interrupt_status &= usart_hw->INTENSET.reg;
    624e:	7da6      	ldrb	r6, [r4, #22]
    6250:	401e      	ands	r6, r3
	callback_status = module->callback_reg_mask &
    6252:	2330      	movs	r3, #48	; 0x30
    6254:	5ceb      	ldrb	r3, [r5, r3]
    6256:	2231      	movs	r2, #49	; 0x31
    6258:	5caf      	ldrb	r7, [r5, r2]
    625a:	401f      	ands	r7, r3
			module->callback_enable_mask;

	/* Check if a DATA READY interrupt has occurred,
	 * and if there is more to transfer */
	if (interrupt_status & SERCOM_USART_INTFLAG_DRE) {
    625c:	07f3      	lsls	r3, r6, #31
    625e:	d522      	bpl.n	62a6 <_usart_interrupt_handler+0x6a>
		if (module->remaining_tx_buffer_length) {
    6260:	8deb      	ldrh	r3, [r5, #46]	; 0x2e
    6262:	b29b      	uxth	r3, r3
    6264:	2b00      	cmp	r3, #0
    6266:	d01c      	beq.n	62a2 <_usart_interrupt_handler+0x66>
			/* Write value will be at least 8-bits long */
			uint16_t data_to_send = *(module->tx_buffer_ptr);
    6268:	6aaa      	ldr	r2, [r5, #40]	; 0x28
    626a:	7813      	ldrb	r3, [r2, #0]
    626c:	b2db      	uxtb	r3, r3
			/* Increment 8-bit pointer */
			(module->tx_buffer_ptr)++;
    626e:	1c51      	adds	r1, r2, #1
    6270:	62a9      	str	r1, [r5, #40]	; 0x28

			if (module->character_size == USART_CHARACTER_SIZE_9BIT) {
    6272:	7969      	ldrb	r1, [r5, #5]
    6274:	2901      	cmp	r1, #1
    6276:	d00e      	beq.n	6296 <_usart_interrupt_handler+0x5a>
			uint16_t data_to_send = *(module->tx_buffer_ptr);
    6278:	b29b      	uxth	r3, r3
				data_to_send |= (*(module->tx_buffer_ptr) << 8);
				/* Increment 8-bit pointer */
				(module->tx_buffer_ptr)++;
			}
			/* Write the data to send */
			usart_hw->DATA.reg = (data_to_send & SERCOM_USART_DATA_MASK);
    627a:	05db      	lsls	r3, r3, #23
    627c:	0ddb      	lsrs	r3, r3, #23
    627e:	8523      	strh	r3, [r4, #40]	; 0x28

			if (--(module->remaining_tx_buffer_length) == 0) {
    6280:	8deb      	ldrh	r3, [r5, #46]	; 0x2e
    6282:	3b01      	subs	r3, #1
    6284:	b29b      	uxth	r3, r3
    6286:	85eb      	strh	r3, [r5, #46]	; 0x2e
    6288:	2b00      	cmp	r3, #0
    628a:	d10c      	bne.n	62a6 <_usart_interrupt_handler+0x6a>
				/* Disable the Data Register Empty Interrupt */
				usart_hw->INTENCLR.reg = SERCOM_USART_INTFLAG_DRE;
    628c:	3301      	adds	r3, #1
    628e:	7523      	strb	r3, [r4, #20]
				/* Enable Transmission Complete interrupt */
				usart_hw->INTENSET.reg = SERCOM_USART_INTFLAG_TXC;
    6290:	3301      	adds	r3, #1
    6292:	75a3      	strb	r3, [r4, #22]
    6294:	e007      	b.n	62a6 <_usart_interrupt_handler+0x6a>
				data_to_send |= (*(module->tx_buffer_ptr) << 8);
    6296:	7851      	ldrb	r1, [r2, #1]
    6298:	0209      	lsls	r1, r1, #8
    629a:	430b      	orrs	r3, r1
				(module->tx_buffer_ptr)++;
    629c:	3202      	adds	r2, #2
    629e:	62aa      	str	r2, [r5, #40]	; 0x28
    62a0:	e7eb      	b.n	627a <_usart_interrupt_handler+0x3e>

			}
		} else {
			usart_hw->INTENCLR.reg = SERCOM_USART_INTFLAG_DRE;
    62a2:	2301      	movs	r3, #1
    62a4:	7523      	strb	r3, [r4, #20]
		}
	}

	/* Check if the Transmission Complete interrupt has occurred and
	 * that the transmit buffer is empty */
	if (interrupt_status & SERCOM_USART_INTFLAG_TXC) {
    62a6:	07b3      	lsls	r3, r6, #30
    62a8:	d506      	bpl.n	62b8 <_usart_interrupt_handler+0x7c>

		/* Disable TX Complete Interrupt, and set STATUS_OK */
		usart_hw->INTENCLR.reg = SERCOM_USART_INTFLAG_TXC;
    62aa:	2302      	movs	r3, #2
    62ac:	7523      	strb	r3, [r4, #20]
		module->tx_status = STATUS_OK;
    62ae:	2200      	movs	r2, #0
    62b0:	3331      	adds	r3, #49	; 0x31
    62b2:	54ea      	strb	r2, [r5, r3]

		/* Run callback if registered and enabled */
		if (callback_status & (1 << USART_CALLBACK_BUFFER_TRANSMITTED)) {
    62b4:	07fb      	lsls	r3, r7, #31
    62b6:	d41a      	bmi.n	62ee <_usart_interrupt_handler+0xb2>
		}
	}

	/* Check if the Receive Complete interrupt has occurred, and that
	 * there's more data to receive */
	if (interrupt_status & SERCOM_USART_INTFLAG_RXC) {
    62b8:	0773      	lsls	r3, r6, #29
    62ba:	d565      	bpl.n	6388 <_usart_interrupt_handler+0x14c>

		if (module->remaining_rx_buffer_length) {
    62bc:	8dab      	ldrh	r3, [r5, #44]	; 0x2c
    62be:	b29b      	uxth	r3, r3
    62c0:	2b00      	cmp	r3, #0
    62c2:	d05f      	beq.n	6384 <_usart_interrupt_handler+0x148>
			/* Read out the status code and mask away all but the 4 LSBs*/
			error_code = (uint8_t)(usart_hw->STATUS.reg & SERCOM_USART_STATUS_MASK);
    62c4:	8b63      	ldrh	r3, [r4, #26]
    62c6:	b2db      	uxtb	r3, r3
#if !SAMD20
			/* CTS status should not be considered as an error */
			if(error_code & SERCOM_USART_STATUS_CTS) {
    62c8:	071a      	lsls	r2, r3, #28
    62ca:	d414      	bmi.n	62f6 <_usart_interrupt_handler+0xba>
			error_code = (uint8_t)(usart_hw->STATUS.reg & SERCOM_USART_STATUS_MASK);
    62cc:	223f      	movs	r2, #63	; 0x3f
    62ce:	4013      	ands	r3, r2
			if(error_code & SERCOM_USART_STATUS_TXE) {
				error_code &= ~SERCOM_USART_STATUS_TXE;
			}
#endif
			/* Check if an error has occurred during the receiving */
			if (error_code) {
    62d0:	2b00      	cmp	r3, #0
    62d2:	d034      	beq.n	633e <_usart_interrupt_handler+0x102>
				/* Check which error occurred */
				if (error_code & SERCOM_USART_STATUS_FERR) {
    62d4:	079a      	lsls	r2, r3, #30
    62d6:	d511      	bpl.n	62fc <_usart_interrupt_handler+0xc0>
					/* Store the error code and clear flag by writing 1 to it */
					module->rx_status = STATUS_ERR_BAD_FORMAT;
    62d8:	221a      	movs	r2, #26
    62da:	2332      	movs	r3, #50	; 0x32
    62dc:	54ea      	strb	r2, [r5, r3]
					usart_hw->STATUS.reg = SERCOM_USART_STATUS_FERR;
    62de:	3b30      	subs	r3, #48	; 0x30
    62e0:	8363      	strh	r3, [r4, #26]
					usart_hw->STATUS.reg = SERCOM_USART_STATUS_COLL;
				}
#endif

				/* Run callback if registered and enabled */
				if (callback_status
    62e2:	077b      	lsls	r3, r7, #29
    62e4:	d550      	bpl.n	6388 <_usart_interrupt_handler+0x14c>
						& (1 << USART_CALLBACK_ERROR)) {
					(*(module->callback[USART_CALLBACK_ERROR]))(module);
    62e6:	0028      	movs	r0, r5
    62e8:	696b      	ldr	r3, [r5, #20]
    62ea:	4798      	blx	r3
    62ec:	e04c      	b.n	6388 <_usart_interrupt_handler+0x14c>
			(*(module->callback[USART_CALLBACK_BUFFER_TRANSMITTED]))(module);
    62ee:	0028      	movs	r0, r5
    62f0:	68eb      	ldr	r3, [r5, #12]
    62f2:	4798      	blx	r3
    62f4:	e7e0      	b.n	62b8 <_usart_interrupt_handler+0x7c>
				error_code &= ~SERCOM_USART_STATUS_CTS;
    62f6:	2237      	movs	r2, #55	; 0x37
    62f8:	4013      	ands	r3, r2
    62fa:	e7e9      	b.n	62d0 <_usart_interrupt_handler+0x94>
				} else if (error_code & SERCOM_USART_STATUS_BUFOVF) {
    62fc:	075a      	lsls	r2, r3, #29
    62fe:	d505      	bpl.n	630c <_usart_interrupt_handler+0xd0>
					module->rx_status = STATUS_ERR_OVERFLOW;
    6300:	221e      	movs	r2, #30
    6302:	2332      	movs	r3, #50	; 0x32
    6304:	54ea      	strb	r2, [r5, r3]
					usart_hw->STATUS.reg = SERCOM_USART_STATUS_BUFOVF;
    6306:	3b2e      	subs	r3, #46	; 0x2e
    6308:	8363      	strh	r3, [r4, #26]
    630a:	e7ea      	b.n	62e2 <_usart_interrupt_handler+0xa6>
				} else if (error_code & SERCOM_USART_STATUS_PERR) {
    630c:	07da      	lsls	r2, r3, #31
    630e:	d505      	bpl.n	631c <_usart_interrupt_handler+0xe0>
					module->rx_status = STATUS_ERR_BAD_DATA;
    6310:	2213      	movs	r2, #19
    6312:	2332      	movs	r3, #50	; 0x32
    6314:	54ea      	strb	r2, [r5, r3]
					usart_hw->STATUS.reg = SERCOM_USART_STATUS_PERR;
    6316:	3b31      	subs	r3, #49	; 0x31
    6318:	8363      	strh	r3, [r4, #26]
    631a:	e7e2      	b.n	62e2 <_usart_interrupt_handler+0xa6>
				else if (error_code & SERCOM_USART_STATUS_ISF) {
    631c:	06da      	lsls	r2, r3, #27
    631e:	d505      	bpl.n	632c <_usart_interrupt_handler+0xf0>
					module->rx_status = STATUS_ERR_PROTOCOL;
    6320:	2242      	movs	r2, #66	; 0x42
    6322:	2332      	movs	r3, #50	; 0x32
    6324:	54ea      	strb	r2, [r5, r3]
					usart_hw->STATUS.reg = SERCOM_USART_STATUS_ISF;
    6326:	3b22      	subs	r3, #34	; 0x22
    6328:	8363      	strh	r3, [r4, #26]
    632a:	e7da      	b.n	62e2 <_usart_interrupt_handler+0xa6>
				else if (error_code & SERCOM_USART_STATUS_COLL) {
    632c:	2220      	movs	r2, #32
    632e:	421a      	tst	r2, r3
    6330:	d0d7      	beq.n	62e2 <_usart_interrupt_handler+0xa6>
					module->rx_status = STATUS_ERR_PACKET_COLLISION;
    6332:	3221      	adds	r2, #33	; 0x21
    6334:	2332      	movs	r3, #50	; 0x32
    6336:	54ea      	strb	r2, [r5, r3]
					usart_hw->STATUS.reg = SERCOM_USART_STATUS_COLL;
    6338:	3b12      	subs	r3, #18
    633a:	8363      	strh	r3, [r4, #26]
    633c:	e7d1      	b.n	62e2 <_usart_interrupt_handler+0xa6>

			} else {

				/* Read current packet from DATA register,
				 * increment buffer pointer and decrement buffer length */
				uint16_t received_data = (usart_hw->DATA.reg & SERCOM_USART_DATA_MASK);
    633e:	8d23      	ldrh	r3, [r4, #40]	; 0x28
    6340:	05db      	lsls	r3, r3, #23
    6342:	0ddb      	lsrs	r3, r3, #23

				/* Read value will be at least 8-bits long */
				*(module->rx_buffer_ptr) = received_data;
    6344:	b2da      	uxtb	r2, r3
    6346:	6a69      	ldr	r1, [r5, #36]	; 0x24
    6348:	700a      	strb	r2, [r1, #0]
				/* Increment 8-bit pointer */
				module->rx_buffer_ptr += 1;
    634a:	6a6a      	ldr	r2, [r5, #36]	; 0x24
    634c:	1c51      	adds	r1, r2, #1
    634e:	6269      	str	r1, [r5, #36]	; 0x24

				if (module->character_size == USART_CHARACTER_SIZE_9BIT) {
    6350:	7969      	ldrb	r1, [r5, #5]
    6352:	2901      	cmp	r1, #1
    6354:	d010      	beq.n	6378 <_usart_interrupt_handler+0x13c>
					/* Increment 8-bit pointer */
					module->rx_buffer_ptr += 1;
				}

				/* Check if the last character have been received */
				if(--(module->remaining_rx_buffer_length) == 0) {
    6356:	8dab      	ldrh	r3, [r5, #44]	; 0x2c
    6358:	3b01      	subs	r3, #1
    635a:	b29b      	uxth	r3, r3
    635c:	85ab      	strh	r3, [r5, #44]	; 0x2c
    635e:	2b00      	cmp	r3, #0
    6360:	d112      	bne.n	6388 <_usart_interrupt_handler+0x14c>
					/* Disable RX Complete Interrupt,
					 * and set STATUS_OK */
					usart_hw->INTENCLR.reg = SERCOM_USART_INTFLAG_RXC;
    6362:	3304      	adds	r3, #4
    6364:	7523      	strb	r3, [r4, #20]
					module->rx_status = STATUS_OK;
    6366:	2200      	movs	r2, #0
    6368:	332e      	adds	r3, #46	; 0x2e
    636a:	54ea      	strb	r2, [r5, r3]

					/* Run callback if registered and enabled */
					if (callback_status
    636c:	07bb      	lsls	r3, r7, #30
    636e:	d50b      	bpl.n	6388 <_usart_interrupt_handler+0x14c>
							& (1 << USART_CALLBACK_BUFFER_RECEIVED)) {
						(*(module->callback[USART_CALLBACK_BUFFER_RECEIVED]))(module);
    6370:	0028      	movs	r0, r5
    6372:	692b      	ldr	r3, [r5, #16]
    6374:	4798      	blx	r3
    6376:	e007      	b.n	6388 <_usart_interrupt_handler+0x14c>
					*(module->rx_buffer_ptr) = (received_data >> 8);
    6378:	0a1b      	lsrs	r3, r3, #8
    637a:	7053      	strb	r3, [r2, #1]
					module->rx_buffer_ptr += 1;
    637c:	6a6b      	ldr	r3, [r5, #36]	; 0x24
    637e:	3301      	adds	r3, #1
    6380:	626b      	str	r3, [r5, #36]	; 0x24
    6382:	e7e8      	b.n	6356 <_usart_interrupt_handler+0x11a>
					}
				}
			}
		} else {
			/* This should not happen. Disable Receive Complete interrupt. */
			usart_hw->INTENCLR.reg = SERCOM_USART_INTFLAG_RXC;
    6384:	2304      	movs	r3, #4
    6386:	7523      	strb	r3, [r4, #20]
		}
	}

#ifdef FEATURE_USART_HARDWARE_FLOW_CONTROL
	if (interrupt_status & SERCOM_USART_INTFLAG_CTSIC) {
    6388:	06f3      	lsls	r3, r6, #27
    638a:	d504      	bpl.n	6396 <_usart_interrupt_handler+0x15a>
		/* Disable interrupts */
		usart_hw->INTENCLR.reg = SERCOM_USART_INTENCLR_CTSIC;
    638c:	2310      	movs	r3, #16
    638e:	7523      	strb	r3, [r4, #20]
		/* Clear interrupt flag */
		usart_hw->INTFLAG.reg = SERCOM_USART_INTFLAG_CTSIC;
    6390:	7623      	strb	r3, [r4, #24]

		/* Run callback if registered and enabled */
		if (callback_status & (1 << USART_CALLBACK_CTS_INPUT_CHANGE)) {
    6392:	06fb      	lsls	r3, r7, #27
    6394:	d40e      	bmi.n	63b4 <_usart_interrupt_handler+0x178>
		}
	}
#endif

#ifdef FEATURE_USART_LIN_SLAVE
	if (interrupt_status & SERCOM_USART_INTFLAG_RXBRK) {
    6396:	06b3      	lsls	r3, r6, #26
    6398:	d504      	bpl.n	63a4 <_usart_interrupt_handler+0x168>
		/* Disable interrupts */
		usart_hw->INTENCLR.reg = SERCOM_USART_INTENCLR_RXBRK;
    639a:	2320      	movs	r3, #32
    639c:	7523      	strb	r3, [r4, #20]
		/* Clear interrupt flag */
		usart_hw->INTFLAG.reg = SERCOM_USART_INTFLAG_RXBRK;
    639e:	7623      	strb	r3, [r4, #24]

		/* Run callback if registered and enabled */
		if (callback_status & (1 << USART_CALLBACK_BREAK_RECEIVED)) {
    63a0:	073b      	lsls	r3, r7, #28
    63a2:	d40b      	bmi.n	63bc <_usart_interrupt_handler+0x180>
		}
	}
#endif

#ifdef FEATURE_USART_START_FRAME_DECTION
	if (interrupt_status & SERCOM_USART_INTFLAG_RXS) {
    63a4:	0733      	lsls	r3, r6, #28
    63a6:	d504      	bpl.n	63b2 <_usart_interrupt_handler+0x176>
		/* Disable interrupts */
		usart_hw->INTENCLR.reg = SERCOM_USART_INTENCLR_RXS;
    63a8:	2308      	movs	r3, #8
    63aa:	7523      	strb	r3, [r4, #20]
		/* Clear interrupt flag */
		usart_hw->INTFLAG.reg = SERCOM_USART_INTFLAG_RXS;
    63ac:	7623      	strb	r3, [r4, #24]

		/* Run callback if registered and enabled */
		if (callback_status & (1 << USART_CALLBACK_START_RECEIVED)) {
    63ae:	06bb      	lsls	r3, r7, #26
    63b0:	d408      	bmi.n	63c4 <_usart_interrupt_handler+0x188>
			(*(module->callback[USART_CALLBACK_START_RECEIVED]))(module);
		}
	}
#endif
}
    63b2:	bdf8      	pop	{r3, r4, r5, r6, r7, pc}
			(*(module->callback[USART_CALLBACK_CTS_INPUT_CHANGE]))(module);
    63b4:	0028      	movs	r0, r5
    63b6:	69eb      	ldr	r3, [r5, #28]
    63b8:	4798      	blx	r3
    63ba:	e7ec      	b.n	6396 <_usart_interrupt_handler+0x15a>
			(*(module->callback[USART_CALLBACK_BREAK_RECEIVED]))(module);
    63bc:	0028      	movs	r0, r5
    63be:	69ab      	ldr	r3, [r5, #24]
    63c0:	4798      	blx	r3
    63c2:	e7ef      	b.n	63a4 <_usart_interrupt_handler+0x168>
			(*(module->callback[USART_CALLBACK_START_RECEIVED]))(module);
    63c4:	6a2b      	ldr	r3, [r5, #32]
    63c6:	0028      	movs	r0, r5
    63c8:	4798      	blx	r3
}
    63ca:	e7f2      	b.n	63b2 <_usart_interrupt_handler+0x176>
    63cc:	20004ddc 	.word	0x20004ddc

000063d0 <system_clock_source_get_hz>:
 *
 * \returns Frequency of the given clock source, in Hz.
 */
uint32_t system_clock_source_get_hz(
		const enum system_clock_source clock_source)
{
    63d0:	b510      	push	{r4, lr}
	switch (clock_source) {
    63d2:	2808      	cmp	r0, #8
    63d4:	d803      	bhi.n	63de <system_clock_source_get_hz+0xe>
    63d6:	0080      	lsls	r0, r0, #2
    63d8:	4b1c      	ldr	r3, [pc, #112]	; (644c <system_clock_source_get_hz+0x7c>)
    63da:	581b      	ldr	r3, [r3, r0]
    63dc:	469f      	mov	pc, r3

		return _system_clock_inst.dpll.frequency;
#endif

	default:
		return 0;
    63de:	2000      	movs	r0, #0
    63e0:	e032      	b.n	6448 <system_clock_source_get_hz+0x78>
		return _system_clock_inst.xosc.frequency;
    63e2:	4b1b      	ldr	r3, [pc, #108]	; (6450 <system_clock_source_get_hz+0x80>)
    63e4:	6918      	ldr	r0, [r3, #16]
    63e6:	e02f      	b.n	6448 <system_clock_source_get_hz+0x78>
		return 8000000UL >> SYSCTRL->OSC8M.bit.PRESC;
    63e8:	4b1a      	ldr	r3, [pc, #104]	; (6454 <system_clock_source_get_hz+0x84>)
    63ea:	6a1b      	ldr	r3, [r3, #32]
    63ec:	059b      	lsls	r3, r3, #22
    63ee:	0f9b      	lsrs	r3, r3, #30
    63f0:	4819      	ldr	r0, [pc, #100]	; (6458 <system_clock_source_get_hz+0x88>)
    63f2:	40d8      	lsrs	r0, r3
    63f4:	e028      	b.n	6448 <system_clock_source_get_hz+0x78>
		return _system_clock_inst.xosc32k.frequency;
    63f6:	4b16      	ldr	r3, [pc, #88]	; (6450 <system_clock_source_get_hz+0x80>)
    63f8:	6958      	ldr	r0, [r3, #20]
    63fa:	e025      	b.n	6448 <system_clock_source_get_hz+0x78>
		if (!(_system_clock_inst.dfll.control & SYSCTRL_DFLLCTRL_ENABLE))
    63fc:	4b14      	ldr	r3, [pc, #80]	; (6450 <system_clock_source_get_hz+0x80>)
    63fe:	681b      	ldr	r3, [r3, #0]
			return 0;
    6400:	2000      	movs	r0, #0
		if (!(_system_clock_inst.dfll.control & SYSCTRL_DFLLCTRL_ENABLE))
    6402:	079b      	lsls	r3, r3, #30
    6404:	d520      	bpl.n	6448 <system_clock_source_get_hz+0x78>
	while (!(SYSCTRL->PCLKSR.reg & SYSCTRL_PCLKSR_DFLLRDY)) {
    6406:	4913      	ldr	r1, [pc, #76]	; (6454 <system_clock_source_get_hz+0x84>)
    6408:	2210      	movs	r2, #16
    640a:	68cb      	ldr	r3, [r1, #12]
    640c:	421a      	tst	r2, r3
    640e:	d0fc      	beq.n	640a <system_clock_source_get_hz+0x3a>
		switch(_system_clock_inst.dfll.control &
    6410:	4b0f      	ldr	r3, [pc, #60]	; (6450 <system_clock_source_get_hz+0x80>)
    6412:	681a      	ldr	r2, [r3, #0]
    6414:	2324      	movs	r3, #36	; 0x24
    6416:	4013      	ands	r3, r2
    6418:	2b04      	cmp	r3, #4
    641a:	d001      	beq.n	6420 <system_clock_source_get_hz+0x50>
			return 48000000UL;
    641c:	480f      	ldr	r0, [pc, #60]	; (645c <system_clock_source_get_hz+0x8c>)
    641e:	e013      	b.n	6448 <system_clock_source_get_hz+0x78>
			return system_gclk_chan_get_hz(SYSCTRL_GCLK_ID_DFLL48) *
    6420:	2000      	movs	r0, #0
    6422:	4b0f      	ldr	r3, [pc, #60]	; (6460 <system_clock_source_get_hz+0x90>)
    6424:	4798      	blx	r3
					(_system_clock_inst.dfll.mul & 0xffff);
    6426:	4b0a      	ldr	r3, [pc, #40]	; (6450 <system_clock_source_get_hz+0x80>)
    6428:	689b      	ldr	r3, [r3, #8]
    642a:	041b      	lsls	r3, r3, #16
    642c:	0c1b      	lsrs	r3, r3, #16
			return system_gclk_chan_get_hz(SYSCTRL_GCLK_ID_DFLL48) *
    642e:	4358      	muls	r0, r3
    6430:	e00a      	b.n	6448 <system_clock_source_get_hz+0x78>
		if (!(SYSCTRL->DPLLSTATUS.reg & SYSCTRL_DPLLSTATUS_ENABLE)) {
    6432:	2350      	movs	r3, #80	; 0x50
    6434:	4a07      	ldr	r2, [pc, #28]	; (6454 <system_clock_source_get_hz+0x84>)
    6436:	5cd3      	ldrb	r3, [r2, r3]
			return 0;
    6438:	2000      	movs	r0, #0
		if (!(SYSCTRL->DPLLSTATUS.reg & SYSCTRL_DPLLSTATUS_ENABLE)) {
    643a:	075b      	lsls	r3, r3, #29
    643c:	d504      	bpl.n	6448 <system_clock_source_get_hz+0x78>
		return _system_clock_inst.dpll.frequency;
    643e:	4b04      	ldr	r3, [pc, #16]	; (6450 <system_clock_source_get_hz+0x80>)
    6440:	68d8      	ldr	r0, [r3, #12]
    6442:	e001      	b.n	6448 <system_clock_source_get_hz+0x78>
		return 32768UL;
    6444:	2080      	movs	r0, #128	; 0x80
    6446:	0200      	lsls	r0, r0, #8
	}
}
    6448:	bd10      	pop	{r4, pc}
    644a:	46c0      	nop			; (mov r8, r8)
    644c:	0000a758 	.word	0x0000a758
    6450:	20003838 	.word	0x20003838
    6454:	40000800 	.word	0x40000800
    6458:	007a1200 	.word	0x007a1200
    645c:	02dc6c00 	.word	0x02dc6c00
    6460:	000069b9 	.word	0x000069b9

00006464 <system_clock_source_osc8m_set_config>:
 *
 * \param[in] config  OSC8M configuration structure containing the new config
 */
void system_clock_source_osc8m_set_config(
		struct system_clock_source_osc8m_config *const config)
{
    6464:	b570      	push	{r4, r5, r6, lr}
	SYSCTRL_OSC8M_Type temp = SYSCTRL->OSC8M;
    6466:	490c      	ldr	r1, [pc, #48]	; (6498 <system_clock_source_osc8m_set_config+0x34>)
    6468:	6a0b      	ldr	r3, [r1, #32]

	/* Use temporary struct to reduce register access */
	temp.bit.PRESC    = config->prescaler;
    646a:	7804      	ldrb	r4, [r0, #0]
	temp.bit.ONDEMAND = config->on_demand;
    646c:	7885      	ldrb	r5, [r0, #2]
	temp.bit.RUNSTDBY = config->run_in_standby;

	SYSCTRL->OSC8M = temp;
    646e:	7840      	ldrb	r0, [r0, #1]
    6470:	2201      	movs	r2, #1
    6472:	4010      	ands	r0, r2
    6474:	0180      	lsls	r0, r0, #6
    6476:	2640      	movs	r6, #64	; 0x40
    6478:	43b3      	bics	r3, r6
    647a:	4303      	orrs	r3, r0
    647c:	402a      	ands	r2, r5
    647e:	01d2      	lsls	r2, r2, #7
    6480:	2080      	movs	r0, #128	; 0x80
    6482:	4383      	bics	r3, r0
    6484:	4313      	orrs	r3, r2
    6486:	2203      	movs	r2, #3
    6488:	4022      	ands	r2, r4
    648a:	0212      	lsls	r2, r2, #8
    648c:	4803      	ldr	r0, [pc, #12]	; (649c <system_clock_source_osc8m_set_config+0x38>)
    648e:	4003      	ands	r3, r0
    6490:	4313      	orrs	r3, r2
    6492:	620b      	str	r3, [r1, #32]
}
    6494:	bd70      	pop	{r4, r5, r6, pc}
    6496:	46c0      	nop			; (mov r8, r8)
    6498:	40000800 	.word	0x40000800
    649c:	fffffcff 	.word	0xfffffcff

000064a0 <system_clock_source_dpll_set_config>:
 *
 * \param[in] config  DPLL configuration structure containing the new config
 */
void system_clock_source_dpll_set_config(
		struct system_clock_source_dpll_config *const config)
{
    64a0:	b5f8      	push	{r3, r4, r5, r6, r7, lr}
    64a2:	0005      	movs	r5, r0

	uint32_t tmpldr;
	uint8_t  tmpldrfrac;
	uint32_t refclk;

	refclk = config->reference_frequency;
    64a4:	68c4      	ldr	r4, [r0, #12]

	/* Only reference clock REF1 can be divided */
	if (config->reference_clock == SYSTEM_CLOCK_SOURCE_DPLL_REFERENCE_CLOCK_XOSC) {
    64a6:	7d03      	ldrb	r3, [r0, #20]
    64a8:	2b01      	cmp	r3, #1
    64aa:	d03b      	beq.n	6524 <system_clock_source_dpll_set_config+0x84>
		refclk = refclk / (2 * (config->reference_divider + 1));
	}

	/* Calculate LDRFRAC and LDR */
	tmpldr = (config->output_frequency << 4) / refclk;
    64ac:	68ab      	ldr	r3, [r5, #8]
    64ae:	0118      	lsls	r0, r3, #4
    64b0:	0021      	movs	r1, r4
    64b2:	4b20      	ldr	r3, [pc, #128]	; (6534 <system_clock_source_dpll_set_config+0x94>)
    64b4:	4798      	blx	r3
	tmpldrfrac = tmpldr & 0x0f;
    64b6:	220f      	movs	r2, #15
    64b8:	4002      	ands	r2, r0
	tmpldr = (tmpldr >> 4) - 1;
    64ba:	0903      	lsrs	r3, r0, #4

	SYSCTRL->DPLLCTRLA.reg =
			((uint32_t)config->on_demand << SYSCTRL_DPLLCTRLA_ONDEMAND_Pos) |
    64bc:	782e      	ldrb	r6, [r5, #0]
    64be:	01f6      	lsls	r6, r6, #7
			((uint32_t)config->run_in_standby << SYSCTRL_DPLLCTRLA_RUNSTDBY_Pos);
    64c0:	7869      	ldrb	r1, [r5, #1]
    64c2:	0189      	lsls	r1, r1, #6
			((uint32_t)config->on_demand << SYSCTRL_DPLLCTRLA_ONDEMAND_Pos) |
    64c4:	430e      	orrs	r6, r1
    64c6:	b2f6      	uxtb	r6, r6
	SYSCTRL->DPLLCTRLA.reg =
    64c8:	491b      	ldr	r1, [pc, #108]	; (6538 <system_clock_source_dpll_set_config+0x98>)
    64ca:	2744      	movs	r7, #68	; 0x44
    64cc:	55ce      	strb	r6, [r1, r7]

	SYSCTRL->DPLLRATIO.reg =
			SYSCTRL_DPLLRATIO_LDRFRAC(tmpldrfrac) |
    64ce:	0416      	lsls	r6, r2, #16
	tmpldr = (tmpldr >> 4) - 1;
    64d0:	3b01      	subs	r3, #1
			SYSCTRL_DPLLRATIO_LDR(tmpldr);
    64d2:	051b      	lsls	r3, r3, #20
    64d4:	0d1b      	lsrs	r3, r3, #20
			SYSCTRL_DPLLRATIO_LDRFRAC(tmpldrfrac) |
    64d6:	4333      	orrs	r3, r6
	SYSCTRL->DPLLRATIO.reg =
    64d8:	648b      	str	r3, [r1, #72]	; 0x48

	SYSCTRL->DPLLCTRLB.reg =
			SYSCTRL_DPLLCTRLB_DIV(config->reference_divider) |
			((uint32_t)config->lock_bypass << SYSCTRL_DPLLCTRLB_LBYPASS_Pos) |
    64da:	78ab      	ldrb	r3, [r5, #2]
    64dc:	031b      	lsls	r3, r3, #12
			SYSCTRL_DPLLCTRLB_LTIME(config->lock_time) |
			SYSCTRL_DPLLCTRLB_REFCLK(config->reference_clock) |
			((uint32_t)config->wake_up_fast << SYSCTRL_DPLLCTRLB_WUF_Pos) |
    64de:	78ee      	ldrb	r6, [r5, #3]
    64e0:	00f6      	lsls	r6, r6, #3
			((uint32_t)config->low_power_enable << SYSCTRL_DPLLCTRLB_LPEN_Pos) |
    64e2:	4333      	orrs	r3, r6
    64e4:	792e      	ldrb	r6, [r5, #4]
    64e6:	00b6      	lsls	r6, r6, #2
    64e8:	4333      	orrs	r3, r6
			SYSCTRL_DPLLCTRLB_FILTER(config->filter);
    64ea:	7caf      	ldrb	r7, [r5, #18]
    64ec:	2603      	movs	r6, #3
    64ee:	403e      	ands	r6, r7
			((uint32_t)config->low_power_enable << SYSCTRL_DPLLCTRLB_LPEN_Pos) |
    64f0:	4333      	orrs	r3, r6
			SYSCTRL_DPLLCTRLB_DIV(config->reference_divider) |
    64f2:	8a2e      	ldrh	r6, [r5, #16]
    64f4:	0436      	lsls	r6, r6, #16
    64f6:	4f11      	ldr	r7, [pc, #68]	; (653c <system_clock_source_dpll_set_config+0x9c>)
    64f8:	403e      	ands	r6, r7
			((uint32_t)config->low_power_enable << SYSCTRL_DPLLCTRLB_LPEN_Pos) |
    64fa:	4333      	orrs	r3, r6
			SYSCTRL_DPLLCTRLB_LTIME(config->lock_time) |
    64fc:	7cee      	ldrb	r6, [r5, #19]
    64fe:	0236      	lsls	r6, r6, #8
    6500:	27e0      	movs	r7, #224	; 0xe0
    6502:	00ff      	lsls	r7, r7, #3
    6504:	403e      	ands	r6, r7
			((uint32_t)config->low_power_enable << SYSCTRL_DPLLCTRLB_LPEN_Pos) |
    6506:	4333      	orrs	r3, r6
			SYSCTRL_DPLLCTRLB_REFCLK(config->reference_clock) |
    6508:	7d2e      	ldrb	r6, [r5, #20]
    650a:	0136      	lsls	r6, r6, #4
    650c:	2530      	movs	r5, #48	; 0x30
    650e:	4035      	ands	r5, r6
			((uint32_t)config->low_power_enable << SYSCTRL_DPLLCTRLB_LPEN_Pos) |
    6510:	432b      	orrs	r3, r5
	SYSCTRL->DPLLCTRLB.reg =
    6512:	64cb      	str	r3, [r1, #76]	; 0x4c

	/*
	 * Fck = Fckrx * (LDR + 1 + LDRFRAC / 16)
	 */
	_system_clock_inst.dpll.frequency =
			(refclk * (((tmpldr + 1) << 4) + tmpldrfrac)) >> 4;
    6514:	230f      	movs	r3, #15
    6516:	4398      	bics	r0, r3
    6518:	1880      	adds	r0, r0, r2
    651a:	4344      	muls	r4, r0
    651c:	0924      	lsrs	r4, r4, #4
	_system_clock_inst.dpll.frequency =
    651e:	4b08      	ldr	r3, [pc, #32]	; (6540 <system_clock_source_dpll_set_config+0xa0>)
    6520:	60dc      	str	r4, [r3, #12]
}
    6522:	bdf8      	pop	{r3, r4, r5, r6, r7, pc}
		refclk = refclk / (2 * (config->reference_divider + 1));
    6524:	8a01      	ldrh	r1, [r0, #16]
    6526:	3101      	adds	r1, #1
    6528:	0049      	lsls	r1, r1, #1
    652a:	0020      	movs	r0, r4
    652c:	4b01      	ldr	r3, [pc, #4]	; (6534 <system_clock_source_dpll_set_config+0x94>)
    652e:	4798      	blx	r3
    6530:	0004      	movs	r4, r0
    6532:	e7bb      	b.n	64ac <system_clock_source_dpll_set_config+0xc>
    6534:	00006f01 	.word	0x00006f01
    6538:	40000800 	.word	0x40000800
    653c:	07ff0000 	.word	0x07ff0000
    6540:	20003838 	.word	0x20003838

00006544 <system_clock_source_enable>:
 *                                 device
 */
enum status_code system_clock_source_enable(
		const enum system_clock_source clock_source)
{
	switch (clock_source) {
    6544:	2808      	cmp	r0, #8
    6546:	d803      	bhi.n	6550 <system_clock_source_enable+0xc>
    6548:	0080      	lsls	r0, r0, #2
    654a:	4b25      	ldr	r3, [pc, #148]	; (65e0 <system_clock_source_enable+0x9c>)
    654c:	581b      	ldr	r3, [r3, r0]
    654e:	469f      	mov	pc, r3
		/* Always enabled */
		return STATUS_OK;

	default:
		Assert(false);
		return STATUS_ERR_INVALID_ARG;
    6550:	2017      	movs	r0, #23
    6552:	e044      	b.n	65de <system_clock_source_enable+0x9a>
		SYSCTRL->OSC8M.reg |= SYSCTRL_OSC8M_ENABLE;
    6554:	4a23      	ldr	r2, [pc, #140]	; (65e4 <system_clock_source_enable+0xa0>)
    6556:	6a13      	ldr	r3, [r2, #32]
    6558:	2102      	movs	r1, #2
    655a:	430b      	orrs	r3, r1
    655c:	6213      	str	r3, [r2, #32]
		return STATUS_OK;
    655e:	2000      	movs	r0, #0
    6560:	e03d      	b.n	65de <system_clock_source_enable+0x9a>
		SYSCTRL->OSC32K.reg |= SYSCTRL_OSC32K_ENABLE;
    6562:	4a20      	ldr	r2, [pc, #128]	; (65e4 <system_clock_source_enable+0xa0>)
    6564:	6993      	ldr	r3, [r2, #24]
    6566:	2102      	movs	r1, #2
    6568:	430b      	orrs	r3, r1
    656a:	6193      	str	r3, [r2, #24]
	}

	return STATUS_OK;
    656c:	2000      	movs	r0, #0
		break;
    656e:	e036      	b.n	65de <system_clock_source_enable+0x9a>
		SYSCTRL->XOSC.reg |= SYSCTRL_XOSC_ENABLE;
    6570:	4a1c      	ldr	r2, [pc, #112]	; (65e4 <system_clock_source_enable+0xa0>)
    6572:	8a13      	ldrh	r3, [r2, #16]
    6574:	2102      	movs	r1, #2
    6576:	430b      	orrs	r3, r1
    6578:	8213      	strh	r3, [r2, #16]
	return STATUS_OK;
    657a:	2000      	movs	r0, #0
		break;
    657c:	e02f      	b.n	65de <system_clock_source_enable+0x9a>
		SYSCTRL->XOSC32K.reg |= SYSCTRL_XOSC32K_ENABLE;
    657e:	4a19      	ldr	r2, [pc, #100]	; (65e4 <system_clock_source_enable+0xa0>)
    6580:	8a93      	ldrh	r3, [r2, #20]
    6582:	2102      	movs	r1, #2
    6584:	430b      	orrs	r3, r1
    6586:	8293      	strh	r3, [r2, #20]
	return STATUS_OK;
    6588:	2000      	movs	r0, #0
		break;
    658a:	e028      	b.n	65de <system_clock_source_enable+0x9a>
		_system_clock_inst.dfll.control |= SYSCTRL_DFLLCTRL_ENABLE;
    658c:	4916      	ldr	r1, [pc, #88]	; (65e8 <system_clock_source_enable+0xa4>)
    658e:	680b      	ldr	r3, [r1, #0]
    6590:	2202      	movs	r2, #2
    6592:	4313      	orrs	r3, r2
    6594:	600b      	str	r3, [r1, #0]
	SYSCTRL->DFLLCTRL.reg = SYSCTRL_DFLLCTRL_ENABLE;
    6596:	4b13      	ldr	r3, [pc, #76]	; (65e4 <system_clock_source_enable+0xa0>)
    6598:	849a      	strh	r2, [r3, #36]	; 0x24
	while (!(SYSCTRL->PCLKSR.reg & SYSCTRL_PCLKSR_DFLLRDY)) {
    659a:	0019      	movs	r1, r3
    659c:	320e      	adds	r2, #14
    659e:	68cb      	ldr	r3, [r1, #12]
    65a0:	421a      	tst	r2, r3
    65a2:	d0fc      	beq.n	659e <system_clock_source_enable+0x5a>
	SYSCTRL->DFLLMUL.reg = _system_clock_inst.dfll.mul;
    65a4:	4a10      	ldr	r2, [pc, #64]	; (65e8 <system_clock_source_enable+0xa4>)
    65a6:	6891      	ldr	r1, [r2, #8]
    65a8:	4b0e      	ldr	r3, [pc, #56]	; (65e4 <system_clock_source_enable+0xa0>)
    65aa:	62d9      	str	r1, [r3, #44]	; 0x2c
	SYSCTRL->DFLLVAL.reg = _system_clock_inst.dfll.val;
    65ac:	6852      	ldr	r2, [r2, #4]
    65ae:	629a      	str	r2, [r3, #40]	; 0x28
	SYSCTRL->DFLLCTRL.reg = 0;
    65b0:	2200      	movs	r2, #0
    65b2:	849a      	strh	r2, [r3, #36]	; 0x24
	while (!(SYSCTRL->PCLKSR.reg & SYSCTRL_PCLKSR_DFLLRDY)) {
    65b4:	0019      	movs	r1, r3
    65b6:	3210      	adds	r2, #16
    65b8:	68cb      	ldr	r3, [r1, #12]
    65ba:	421a      	tst	r2, r3
    65bc:	d0fc      	beq.n	65b8 <system_clock_source_enable+0x74>
	SYSCTRL->DFLLCTRL.reg = _system_clock_inst.dfll.control;
    65be:	4b0a      	ldr	r3, [pc, #40]	; (65e8 <system_clock_source_enable+0xa4>)
    65c0:	681b      	ldr	r3, [r3, #0]
    65c2:	b29b      	uxth	r3, r3
    65c4:	4a07      	ldr	r2, [pc, #28]	; (65e4 <system_clock_source_enable+0xa0>)
    65c6:	8493      	strh	r3, [r2, #36]	; 0x24
	return STATUS_OK;
    65c8:	2000      	movs	r0, #0
    65ca:	e008      	b.n	65de <system_clock_source_enable+0x9a>
		SYSCTRL->DPLLCTRLA.reg |= SYSCTRL_DPLLCTRLA_ENABLE;
    65cc:	4905      	ldr	r1, [pc, #20]	; (65e4 <system_clock_source_enable+0xa0>)
    65ce:	2244      	movs	r2, #68	; 0x44
    65d0:	5c8b      	ldrb	r3, [r1, r2]
    65d2:	2002      	movs	r0, #2
    65d4:	4303      	orrs	r3, r0
    65d6:	548b      	strb	r3, [r1, r2]
	return STATUS_OK;
    65d8:	2000      	movs	r0, #0
		break;
    65da:	e000      	b.n	65de <system_clock_source_enable+0x9a>
		return STATUS_OK;
    65dc:	2000      	movs	r0, #0
}
    65de:	4770      	bx	lr
    65e0:	0000a77c 	.word	0x0000a77c
    65e4:	40000800 	.word	0x40000800
    65e8:	20003838 	.word	0x20003838

000065ec <system_clock_init>:
 * \note OSC8M is always enabled and if user selects other clocks for GCLK generators,
 * the OSC8M default enable can be disabled after system_clock_init. Make sure the
 * clock switch successfully before disabling OSC8M.
 */
void system_clock_init(void)
{
    65ec:	b5f0      	push	{r4, r5, r6, r7, lr}
    65ee:	46de      	mov	lr, fp
    65f0:	4657      	mov	r7, sl
    65f2:	464e      	mov	r6, r9
    65f4:	4645      	mov	r5, r8
    65f6:	b5e0      	push	{r5, r6, r7, lr}
    65f8:	b08d      	sub	sp, #52	; 0x34
	/* Various bits in the INTFLAG register can be set to one at startup.
	   This will ensure that these bits are cleared */
	SYSCTRL->INTFLAG.reg = SYSCTRL_INTFLAG_BOD33RDY | SYSCTRL_INTFLAG_BOD33DET |
    65fa:	22c2      	movs	r2, #194	; 0xc2
    65fc:	00d2      	lsls	r2, r2, #3
    65fe:	4b4c      	ldr	r3, [pc, #304]	; (6730 <system_clock_init+0x144>)
    6600:	609a      	str	r2, [r3, #8]
static inline void system_flash_set_waitstates(uint8_t wait_states)
{
	Assert(NVMCTRL_CTRLB_RWS((uint32_t)wait_states) ==
			((uint32_t)wait_states << NVMCTRL_CTRLB_RWS_Pos));

	NVMCTRL->CTRLB.bit.RWS = wait_states;
    6602:	4a4c      	ldr	r2, [pc, #304]	; (6734 <system_clock_init+0x148>)
    6604:	6853      	ldr	r3, [r2, #4]
    6606:	211e      	movs	r1, #30
    6608:	438b      	bics	r3, r1
    660a:	3918      	subs	r1, #24
    660c:	430b      	orrs	r3, r1
    660e:	6053      	str	r3, [r2, #4]
	gclk_conf.source_generator = GCLK_GENERATOR_3;
    6610:	2203      	movs	r2, #3
    6612:	ab01      	add	r3, sp, #4
    6614:	701a      	strb	r2, [r3, #0]
	for (gclk_id = 0; gclk_id < GCLK_NUM; gclk_id++) {
    6616:	2400      	movs	r4, #0
		system_gclk_chan_set_config(gclk_id, &gclk_conf);
    6618:	4d47      	ldr	r5, [pc, #284]	; (6738 <system_clock_init+0x14c>)
    661a:	b2e0      	uxtb	r0, r4
    661c:	a901      	add	r1, sp, #4
    661e:	47a8      	blx	r5
	for (gclk_id = 0; gclk_id < GCLK_NUM; gclk_id++) {
    6620:	3401      	adds	r4, #1
    6622:	2c25      	cmp	r4, #37	; 0x25
    6624:	d1f9      	bne.n	661a <system_clock_init+0x2e>
	config->run_in_standby  = false;
    6626:	a80b      	add	r0, sp, #44	; 0x2c
    6628:	2500      	movs	r5, #0
    662a:	7045      	strb	r5, [r0, #1]
	config->on_demand       = true;
    662c:	2601      	movs	r6, #1
    662e:	7086      	strb	r6, [r0, #2]

	/* OSC8M */
	struct system_clock_source_osc8m_config osc8m_conf;
	system_clock_source_osc8m_get_config_defaults(&osc8m_conf);

	osc8m_conf.prescaler       = CONF_CLOCK_OSC8M_PRESCALER;
    6630:	7005      	strb	r5, [r0, #0]
	osc8m_conf.on_demand       = CONF_CLOCK_OSC8M_ON_DEMAND;
	osc8m_conf.run_in_standby  = CONF_CLOCK_OSC8M_RUN_IN_STANDBY;

	system_clock_source_osc8m_set_config(&osc8m_conf);
    6632:	4b42      	ldr	r3, [pc, #264]	; (673c <system_clock_init+0x150>)
    6634:	4798      	blx	r3
	system_clock_source_enable(SYSTEM_CLOCK_SOURCE_OSC8M);
    6636:	2006      	movs	r0, #6
    6638:	4b41      	ldr	r3, [pc, #260]	; (6740 <system_clock_init+0x154>)
    663a:	4699      	mov	r9, r3
    663c:	4798      	blx	r3


	/* GCLK */
#if CONF_CLOCK_CONFIGURE_GCLK == true
	system_gclk_init();
    663e:	4b41      	ldr	r3, [pc, #260]	; (6744 <system_clock_init+0x158>)
    6640:	4798      	blx	r3
	config->high_when_disabled = false;
    6642:	ac01      	add	r4, sp, #4
    6644:	7065      	strb	r5, [r4, #1]
	config->source_clock       = GCLK_SOURCE_OSC8M;
    6646:	2306      	movs	r3, #6
    6648:	469a      	mov	sl, r3
    664a:	7023      	strb	r3, [r4, #0]
	config->run_in_standby     = false;
    664c:	7225      	strb	r5, [r4, #8]
	config->output_enable      = false;
    664e:	7265      	strb	r5, [r4, #9]

	/* Configure all GCLK generators except for the main generator, which
	 * is configured later after all other clock systems are set up */
	MREPEAT(GCLK_GEN_NUM, _CONF_CLOCK_GCLK_CONFIG_NONMAIN, ~);
    6650:	2308      	movs	r3, #8
    6652:	6063      	str	r3, [r4, #4]
    6654:	0021      	movs	r1, r4
    6656:	2001      	movs	r0, #1
    6658:	4b3b      	ldr	r3, [pc, #236]	; (6748 <system_clock_init+0x15c>)
    665a:	4698      	mov	r8, r3
    665c:	4798      	blx	r3
    665e:	2001      	movs	r0, #1
    6660:	4f3a      	ldr	r7, [pc, #232]	; (674c <system_clock_init+0x160>)
    6662:	47b8      	blx	r7
	config->division_factor    = 1;
    6664:	6066      	str	r6, [r4, #4]
	config->high_when_disabled = false;
    6666:	7065      	strb	r5, [r4, #1]
	config->output_enable      = false;
    6668:	7265      	strb	r5, [r4, #9]
    666a:	2303      	movs	r3, #3
    666c:	469b      	mov	fp, r3
    666e:	7023      	strb	r3, [r4, #0]
    6670:	7226      	strb	r6, [r4, #8]
    6672:	0021      	movs	r1, r4
    6674:	2002      	movs	r0, #2
    6676:	47c0      	blx	r8
    6678:	2002      	movs	r0, #2
    667a:	47b8      	blx	r7
	config->high_when_disabled = false;
    667c:	7065      	strb	r5, [r4, #1]
	config->run_in_standby     = false;
    667e:	7225      	strb	r5, [r4, #8]
	config->output_enable      = false;
    6680:	7265      	strb	r5, [r4, #9]
    6682:	465b      	mov	r3, fp
    6684:	7023      	strb	r3, [r4, #0]
    6686:	2320      	movs	r3, #32
    6688:	6063      	str	r3, [r4, #4]
    668a:	0021      	movs	r1, r4
    668c:	2004      	movs	r0, #4
    668e:	47c0      	blx	r8
    6690:	2004      	movs	r0, #4
    6692:	47b8      	blx	r7
	config->division_factor    = 1;
    6694:	6066      	str	r6, [r4, #4]
	config->high_when_disabled = false;
    6696:	7065      	strb	r5, [r4, #1]
	config->source_clock       = GCLK_SOURCE_OSC8M;
    6698:	4653      	mov	r3, sl
    669a:	7023      	strb	r3, [r4, #0]
	config->run_in_standby     = false;
    669c:	7225      	strb	r5, [r4, #8]
	config->output_enable      = false;
    669e:	7265      	strb	r5, [r4, #9]
    66a0:	0021      	movs	r1, r4
    66a2:	2005      	movs	r0, #5
    66a4:	47c0      	blx	r8
    66a6:	2005      	movs	r0, #5
    66a8:	47b8      	blx	r7
		system_gclk_chan_set_config(SYSCTRL_GCLK_ID_FDPLL32K, &dpll_gclk_chan_conf);
		system_gclk_chan_enable(SYSCTRL_GCLK_ID_FDPLL32K);
	}

	if (CONF_CLOCK_DPLL_REFERENCE_CLOCK == SYSTEM_CLOCK_SOURCE_DPLL_REFERENCE_CLOCK_GCLK) {
		dpll_gclk_chan_conf.source_generator = CONF_CLOCK_DPLL_REFERENCE_GCLK_GENERATOR;
    66aa:	a90a      	add	r1, sp, #40	; 0x28
    66ac:	700e      	strb	r6, [r1, #0]
		system_gclk_chan_set_config(SYSCTRL_GCLK_ID_FDPLL, &dpll_gclk_chan_conf);
    66ae:	2001      	movs	r0, #1
    66b0:	4b21      	ldr	r3, [pc, #132]	; (6738 <system_clock_init+0x14c>)
    66b2:	4798      	blx	r3
		system_gclk_chan_enable(SYSCTRL_GCLK_ID_FDPLL);
    66b4:	2001      	movs	r0, #1
    66b6:	4b26      	ldr	r3, [pc, #152]	; (6750 <system_clock_init+0x164>)
    66b8:	4798      	blx	r3
	config->run_in_standby      = false;
    66ba:	a804      	add	r0, sp, #16
    66bc:	7045      	strb	r5, [r0, #1]
	config->lock_bypass         = false;
    66be:	7085      	strb	r5, [r0, #2]
	config->wake_up_fast        = false;
    66c0:	70c5      	strb	r5, [r0, #3]
	config->low_power_enable    = false;
    66c2:	7105      	strb	r5, [r0, #4]
	config->output_frequency    = 48000000;
    66c4:	4b23      	ldr	r3, [pc, #140]	; (6754 <system_clock_init+0x168>)
    66c6:	6083      	str	r3, [r0, #8]
	config->reference_divider   = 1;
    66c8:	8206      	strh	r6, [r0, #16]
	config->lock_time           = SYSTEM_CLOCK_SOURCE_DPLL_LOCK_TIME_DEFAULT;
    66ca:	74c5      	strb	r5, [r0, #19]
	config->filter              = SYSTEM_CLOCK_SOURCE_DPLL_FILTER_DEFAULT;
    66cc:	7485      	strb	r5, [r0, #18]
	}

	struct system_clock_source_dpll_config dpll_config;
	system_clock_source_dpll_get_config_defaults(&dpll_config);

	dpll_config.on_demand        = false;
    66ce:	7005      	strb	r5, [r0, #0]
	dpll_config.low_power_enable = CONF_CLOCK_DPLL_LOW_POWER_ENABLE;

	dpll_config.filter           = CONF_CLOCK_DPLL_FILTER;
	dpll_config.lock_time        = CONF_CLOCK_DPLL_LOCK_TIME;

	dpll_config.reference_clock     = CONF_CLOCK_DPLL_REFERENCE_CLOCK;
    66d0:	2302      	movs	r3, #2
    66d2:	7503      	strb	r3, [r0, #20]
	dpll_config.reference_frequency = CONF_CLOCK_DPLL_REFERENCE_FREQUENCY;
    66d4:	4b20      	ldr	r3, [pc, #128]	; (6758 <system_clock_init+0x16c>)
    66d6:	60c3      	str	r3, [r0, #12]
	dpll_config.reference_divider   = CONF_CLOCK_DPLL_REFERENCE_DIVIDER;
	dpll_config.output_frequency    = CONF_CLOCK_DPLL_OUTPUT_FREQUENCY;

	system_clock_source_dpll_set_config(&dpll_config);
    66d8:	4b20      	ldr	r3, [pc, #128]	; (675c <system_clock_init+0x170>)
    66da:	4798      	blx	r3
	system_clock_source_enable(SYSTEM_CLOCK_SOURCE_DPLL);
    66dc:	2008      	movs	r0, #8
    66de:	47c8      	blx	r9
		return ((SYSCTRL->DPLLSTATUS.reg &
    66e0:	4813      	ldr	r0, [pc, #76]	; (6730 <system_clock_init+0x144>)
    66e2:	2150      	movs	r1, #80	; 0x50
	while(!system_clock_source_is_ready(SYSTEM_CLOCK_SOURCE_DPLL));
    66e4:	2203      	movs	r2, #3
		return ((SYSCTRL->DPLLSTATUS.reg &
    66e6:	5c43      	ldrb	r3, [r0, r1]
	while(!system_clock_source_is_ready(SYSTEM_CLOCK_SOURCE_DPLL));
    66e8:	4013      	ands	r3, r2
    66ea:	2b03      	cmp	r3, #3
    66ec:	d1fb      	bne.n	66e6 <system_clock_init+0xfa>
	if (CONF_CLOCK_DPLL_ON_DEMAND) {
		SYSCTRL->DPLLCTRLA.bit.ONDEMAND = 1;
    66ee:	4910      	ldr	r1, [pc, #64]	; (6730 <system_clock_init+0x144>)
    66f0:	2244      	movs	r2, #68	; 0x44
    66f2:	5c88      	ldrb	r0, [r1, r2]
    66f4:	3b83      	subs	r3, #131	; 0x83
    66f6:	4303      	orrs	r3, r0
    66f8:	548b      	strb	r3, [r1, r2]
	PM->CPUSEL.reg = (uint32_t)divider;
    66fa:	4a19      	ldr	r2, [pc, #100]	; (6760 <system_clock_init+0x174>)
    66fc:	2300      	movs	r3, #0
    66fe:	7213      	strb	r3, [r2, #8]
			PM->APBASEL.reg = (uint32_t)divider;
    6700:	7253      	strb	r3, [r2, #9]
			PM->APBBSEL.reg = (uint32_t)divider;
    6702:	7293      	strb	r3, [r2, #10]
			PM->APBCSEL.reg = (uint32_t)divider;
    6704:	72d3      	strb	r3, [r2, #11]
	config->division_factor    = 1;
    6706:	a901      	add	r1, sp, #4
    6708:	2201      	movs	r2, #1
    670a:	604a      	str	r2, [r1, #4]
	config->high_when_disabled = false;
    670c:	704b      	strb	r3, [r1, #1]
	config->run_in_standby     = false;
    670e:	720b      	strb	r3, [r1, #8]
	system_apb_clock_set_divider(SYSTEM_CLOCK_APB_APBC, CONF_CLOCK_APBC_DIVIDER);

	/* GCLK 0 */
#if CONF_CLOCK_CONFIGURE_GCLK == true
	/* Configure the main GCLK last as it might depend on other generators */
	_CONF_CLOCK_GCLK_CONFIG(0, ~);
    6710:	3308      	adds	r3, #8
    6712:	700b      	strb	r3, [r1, #0]
    6714:	724a      	strb	r2, [r1, #9]
    6716:	2000      	movs	r0, #0
    6718:	4b0b      	ldr	r3, [pc, #44]	; (6748 <system_clock_init+0x15c>)
    671a:	4798      	blx	r3
    671c:	2000      	movs	r0, #0
    671e:	4b0b      	ldr	r3, [pc, #44]	; (674c <system_clock_init+0x160>)
    6720:	4798      	blx	r3
#endif
}
    6722:	b00d      	add	sp, #52	; 0x34
    6724:	bc3c      	pop	{r2, r3, r4, r5}
    6726:	4690      	mov	r8, r2
    6728:	4699      	mov	r9, r3
    672a:	46a2      	mov	sl, r4
    672c:	46ab      	mov	fp, r5
    672e:	bdf0      	pop	{r4, r5, r6, r7, pc}
    6730:	40000800 	.word	0x40000800
    6734:	41004000 	.word	0x41004000
    6738:	0000699d 	.word	0x0000699d
    673c:	00006465 	.word	0x00006465
    6740:	00006545 	.word	0x00006545
    6744:	00006765 	.word	0x00006765
    6748:	00006789 	.word	0x00006789
    674c:	00006841 	.word	0x00006841
    6750:	00006911 	.word	0x00006911
    6754:	02dc6c00 	.word	0x02dc6c00
    6758:	000f4240 	.word	0x000f4240
    675c:	000064a1 	.word	0x000064a1
    6760:	40000400 	.word	0x40000400

00006764 <system_gclk_init>:
			PM->APBAMASK.reg |= mask;
    6764:	4a06      	ldr	r2, [pc, #24]	; (6780 <system_gclk_init+0x1c>)
    6766:	6993      	ldr	r3, [r2, #24]
    6768:	2108      	movs	r1, #8
    676a:	430b      	orrs	r3, r1
    676c:	6193      	str	r3, [r2, #24]
{
	/* Turn on the digital interface clock */
	system_apb_clock_set_mask(SYSTEM_CLOCK_APB_APBA, PM_APBAMASK_GCLK);

	/* Software reset the module to ensure it is re-initialized correctly */
	GCLK->CTRL.reg = GCLK_CTRL_SWRST;
    676e:	2201      	movs	r2, #1
    6770:	4b04      	ldr	r3, [pc, #16]	; (6784 <system_gclk_init+0x20>)
    6772:	701a      	strb	r2, [r3, #0]
	while (GCLK->CTRL.reg & GCLK_CTRL_SWRST) {
    6774:	0019      	movs	r1, r3
    6776:	780b      	ldrb	r3, [r1, #0]
    6778:	4213      	tst	r3, r2
    677a:	d1fc      	bne.n	6776 <system_gclk_init+0x12>
		/* Wait for reset to complete */
	}
}
    677c:	4770      	bx	lr
    677e:	46c0      	nop			; (mov r8, r8)
    6780:	40000400 	.word	0x40000400
    6784:	40000c00 	.word	0x40000c00

00006788 <system_gclk_gen_set_config>:
 * \param[in] config     Configuration settings for the generator
 */
void system_gclk_gen_set_config(
		const uint8_t generator,
		struct system_gclk_gen_config *const config)
{
    6788:	b570      	push	{r4, r5, r6, lr}
    678a:	0006      	movs	r6, r0
	/* Sanity check arguments */
	Assert(config);

	/* Cache new register configurations to minimize sync requirements. */
	uint32_t new_genctrl_config = (generator << GCLK_GENCTRL_ID_Pos);
    678c:	0004      	movs	r4, r0
	uint32_t new_gendiv_config  = (generator << GCLK_GENDIV_ID_Pos);

	/* Select the requested source clock for the generator */
	new_genctrl_config |= config->source_clock << GCLK_GENCTRL_SRC_Pos;
    678e:	780d      	ldrb	r5, [r1, #0]
    6790:	022d      	lsls	r5, r5, #8
    6792:	4305      	orrs	r5, r0

	/* Configure the clock to be either high or low when disabled */
	if (config->high_when_disabled) {
    6794:	784b      	ldrb	r3, [r1, #1]
    6796:	2b00      	cmp	r3, #0
    6798:	d002      	beq.n	67a0 <system_gclk_gen_set_config+0x18>
		new_genctrl_config |= GCLK_GENCTRL_OOV;
    679a:	2380      	movs	r3, #128	; 0x80
    679c:	02db      	lsls	r3, r3, #11
    679e:	431d      	orrs	r5, r3
	}

	/* Configure if the clock output to I/O pin should be enabled. */
	if (config->output_enable) {
    67a0:	7a4b      	ldrb	r3, [r1, #9]
    67a2:	2b00      	cmp	r3, #0
    67a4:	d002      	beq.n	67ac <system_gclk_gen_set_config+0x24>
		new_genctrl_config |= GCLK_GENCTRL_OE;
    67a6:	2380      	movs	r3, #128	; 0x80
    67a8:	031b      	lsls	r3, r3, #12
    67aa:	431d      	orrs	r5, r3
	}

	/* Set division factor */
	if (config->division_factor > 1) {
    67ac:	6848      	ldr	r0, [r1, #4]
    67ae:	2801      	cmp	r0, #1
    67b0:	d910      	bls.n	67d4 <system_gclk_gen_set_config+0x4c>
		/* Check if division is a power of two */
		if (((config->division_factor & (config->division_factor - 1)) == 0)) {
    67b2:	1e43      	subs	r3, r0, #1
    67b4:	4218      	tst	r0, r3
    67b6:	d134      	bne.n	6822 <system_gclk_gen_set_config+0x9a>
			 * register */

			uint32_t div2_count = 0;

			uint32_t mask;
			for (mask = (1UL << 1); mask < config->division_factor;
    67b8:	2802      	cmp	r0, #2
    67ba:	d930      	bls.n	681e <system_gclk_gen_set_config+0x96>
    67bc:	2302      	movs	r3, #2
    67be:	2200      	movs	r2, #0
						mask <<= 1) {
				div2_count++;
    67c0:	3201      	adds	r2, #1
						mask <<= 1) {
    67c2:	005b      	lsls	r3, r3, #1
			for (mask = (1UL << 1); mask < config->division_factor;
    67c4:	4298      	cmp	r0, r3
    67c6:	d8fb      	bhi.n	67c0 <system_gclk_gen_set_config+0x38>
			}

			/* Set binary divider power of 2 division factor */
			new_gendiv_config  |= div2_count << GCLK_GENDIV_DIV_Pos;
    67c8:	0212      	lsls	r2, r2, #8
    67ca:	4332      	orrs	r2, r6
    67cc:	0014      	movs	r4, r2
			new_genctrl_config |= GCLK_GENCTRL_DIVSEL;
    67ce:	2380      	movs	r3, #128	; 0x80
    67d0:	035b      	lsls	r3, r3, #13
    67d2:	431d      	orrs	r5, r3
		}

	}

	/* Enable or disable the clock in standby mode */
	if (config->run_in_standby) {
    67d4:	7a0b      	ldrb	r3, [r1, #8]
    67d6:	2b00      	cmp	r3, #0
    67d8:	d002      	beq.n	67e0 <system_gclk_gen_set_config+0x58>
		new_genctrl_config |= GCLK_GENCTRL_RUNSTDBY;
    67da:	2380      	movs	r3, #128	; 0x80
    67dc:	039b      	lsls	r3, r3, #14
    67de:	431d      	orrs	r5, r3
	if (GCLK->STATUS.reg & GCLK_STATUS_SYNCBUSY){
    67e0:	4a13      	ldr	r2, [pc, #76]	; (6830 <system_gclk_gen_set_config+0xa8>)
    67e2:	7853      	ldrb	r3, [r2, #1]
	}

	while (system_gclk_is_syncing()) {
    67e4:	b25b      	sxtb	r3, r3
    67e6:	2b00      	cmp	r3, #0
    67e8:	dbfb      	blt.n	67e2 <system_gclk_gen_set_config+0x5a>
	cpu_irq_enter_critical();
    67ea:	4b12      	ldr	r3, [pc, #72]	; (6834 <system_gclk_gen_set_config+0xac>)
    67ec:	4798      	blx	r3
	};

	system_interrupt_enter_critical_section();

	/* Select the correct generator */
	*((uint8_t*)&GCLK->GENDIV.reg) = generator;
    67ee:	4b12      	ldr	r3, [pc, #72]	; (6838 <system_gclk_gen_set_config+0xb0>)
    67f0:	701e      	strb	r6, [r3, #0]
	if (GCLK->STATUS.reg & GCLK_STATUS_SYNCBUSY){
    67f2:	4a0f      	ldr	r2, [pc, #60]	; (6830 <system_gclk_gen_set_config+0xa8>)
    67f4:	7853      	ldrb	r3, [r2, #1]

	/* Write the new generator configuration */
	while (system_gclk_is_syncing()) {
    67f6:	b25b      	sxtb	r3, r3
    67f8:	2b00      	cmp	r3, #0
    67fa:	dbfb      	blt.n	67f4 <system_gclk_gen_set_config+0x6c>
		/* Wait for synchronization */
	};
	GCLK->GENDIV.reg  = new_gendiv_config;
    67fc:	4b0c      	ldr	r3, [pc, #48]	; (6830 <system_gclk_gen_set_config+0xa8>)
    67fe:	609c      	str	r4, [r3, #8]
	if (GCLK->STATUS.reg & GCLK_STATUS_SYNCBUSY){
    6800:	001a      	movs	r2, r3
    6802:	7853      	ldrb	r3, [r2, #1]

	while (system_gclk_is_syncing()) {
    6804:	b25b      	sxtb	r3, r3
    6806:	2b00      	cmp	r3, #0
    6808:	dbfb      	blt.n	6802 <system_gclk_gen_set_config+0x7a>
		/* Wait for synchronization */
	};
	GCLK->GENCTRL.reg = new_genctrl_config | (GCLK->GENCTRL.reg & GCLK_GENCTRL_GENEN);
    680a:	4a09      	ldr	r2, [pc, #36]	; (6830 <system_gclk_gen_set_config+0xa8>)
    680c:	6853      	ldr	r3, [r2, #4]
    680e:	2180      	movs	r1, #128	; 0x80
    6810:	0249      	lsls	r1, r1, #9
    6812:	400b      	ands	r3, r1
    6814:	431d      	orrs	r5, r3
    6816:	6055      	str	r5, [r2, #4]
	cpu_irq_leave_critical();
    6818:	4b08      	ldr	r3, [pc, #32]	; (683c <system_gclk_gen_set_config+0xb4>)
    681a:	4798      	blx	r3

	system_interrupt_leave_critical_section();
}
    681c:	bd70      	pop	{r4, r5, r6, pc}
			for (mask = (1UL << 1); mask < config->division_factor;
    681e:	2200      	movs	r2, #0
    6820:	e7d2      	b.n	67c8 <system_gclk_gen_set_config+0x40>
					(config->division_factor) << GCLK_GENDIV_DIV_Pos;
    6822:	0204      	lsls	r4, r0, #8
			new_gendiv_config  |=
    6824:	4334      	orrs	r4, r6
			new_genctrl_config |= GCLK_GENCTRL_IDC;
    6826:	2380      	movs	r3, #128	; 0x80
    6828:	029b      	lsls	r3, r3, #10
    682a:	431d      	orrs	r5, r3
    682c:	e7d2      	b.n	67d4 <system_gclk_gen_set_config+0x4c>
    682e:	46c0      	nop			; (mov r8, r8)
    6830:	40000c00 	.word	0x40000c00
    6834:	000057cd 	.word	0x000057cd
    6838:	40000c08 	.word	0x40000c08
    683c:	0000580d 	.word	0x0000580d

00006840 <system_gclk_gen_enable>:
 *
 * \param[in] generator  Generic Clock Generator index to enable
 */
void system_gclk_gen_enable(
		const uint8_t generator)
{
    6840:	b510      	push	{r4, lr}
    6842:	0004      	movs	r4, r0
	if (GCLK->STATUS.reg & GCLK_STATUS_SYNCBUSY){
    6844:	4a0b      	ldr	r2, [pc, #44]	; (6874 <system_gclk_gen_enable+0x34>)
    6846:	7853      	ldrb	r3, [r2, #1]
	while (system_gclk_is_syncing()) {
    6848:	b25b      	sxtb	r3, r3
    684a:	2b00      	cmp	r3, #0
    684c:	dbfb      	blt.n	6846 <system_gclk_gen_enable+0x6>
	cpu_irq_enter_critical();
    684e:	4b0a      	ldr	r3, [pc, #40]	; (6878 <system_gclk_gen_enable+0x38>)
    6850:	4798      	blx	r3
	};

	system_interrupt_enter_critical_section();

	/* Select the requested generator */
	*((uint8_t*)&GCLK->GENCTRL.reg) = generator;
    6852:	4b0a      	ldr	r3, [pc, #40]	; (687c <system_gclk_gen_enable+0x3c>)
    6854:	701c      	strb	r4, [r3, #0]
	if (GCLK->STATUS.reg & GCLK_STATUS_SYNCBUSY){
    6856:	4a07      	ldr	r2, [pc, #28]	; (6874 <system_gclk_gen_enable+0x34>)
    6858:	7853      	ldrb	r3, [r2, #1]
	while (system_gclk_is_syncing()) {
    685a:	b25b      	sxtb	r3, r3
    685c:	2b00      	cmp	r3, #0
    685e:	dbfb      	blt.n	6858 <system_gclk_gen_enable+0x18>
		/* Wait for synchronization */
	};

	/* Enable generator */
	GCLK->GENCTRL.reg |= GCLK_GENCTRL_GENEN;
    6860:	4a04      	ldr	r2, [pc, #16]	; (6874 <system_gclk_gen_enable+0x34>)
    6862:	6851      	ldr	r1, [r2, #4]
    6864:	2380      	movs	r3, #128	; 0x80
    6866:	025b      	lsls	r3, r3, #9
    6868:	430b      	orrs	r3, r1
    686a:	6053      	str	r3, [r2, #4]
	cpu_irq_leave_critical();
    686c:	4b04      	ldr	r3, [pc, #16]	; (6880 <system_gclk_gen_enable+0x40>)
    686e:	4798      	blx	r3

	system_interrupt_leave_critical_section();
}
    6870:	bd10      	pop	{r4, pc}
    6872:	46c0      	nop			; (mov r8, r8)
    6874:	40000c00 	.word	0x40000c00
    6878:	000057cd 	.word	0x000057cd
    687c:	40000c04 	.word	0x40000c04
    6880:	0000580d 	.word	0x0000580d

00006884 <system_gclk_gen_get_hz>:
 *
 * \return The frequency of the generic clock generator, in Hz.
 */
uint32_t system_gclk_gen_get_hz(
		const uint8_t generator)
{
    6884:	b570      	push	{r4, r5, r6, lr}
    6886:	0004      	movs	r4, r0
	if (GCLK->STATUS.reg & GCLK_STATUS_SYNCBUSY){
    6888:	4a1a      	ldr	r2, [pc, #104]	; (68f4 <system_gclk_gen_get_hz+0x70>)
    688a:	7853      	ldrb	r3, [r2, #1]
	while (system_gclk_is_syncing()) {
    688c:	b25b      	sxtb	r3, r3
    688e:	2b00      	cmp	r3, #0
    6890:	dbfb      	blt.n	688a <system_gclk_gen_get_hz+0x6>
	cpu_irq_enter_critical();
    6892:	4b19      	ldr	r3, [pc, #100]	; (68f8 <system_gclk_gen_get_hz+0x74>)
    6894:	4798      	blx	r3
	};

	system_interrupt_enter_critical_section();

	/* Select the appropriate generator */
	*((uint8_t*)&GCLK->GENCTRL.reg) = generator;
    6896:	4b19      	ldr	r3, [pc, #100]	; (68fc <system_gclk_gen_get_hz+0x78>)
    6898:	701c      	strb	r4, [r3, #0]
	if (GCLK->STATUS.reg & GCLK_STATUS_SYNCBUSY){
    689a:	4a16      	ldr	r2, [pc, #88]	; (68f4 <system_gclk_gen_get_hz+0x70>)
    689c:	7853      	ldrb	r3, [r2, #1]
	while (system_gclk_is_syncing()) {
    689e:	b25b      	sxtb	r3, r3
    68a0:	2b00      	cmp	r3, #0
    68a2:	dbfb      	blt.n	689c <system_gclk_gen_get_hz+0x18>
		/* Wait for synchronization */
	};

	/* Get the frequency of the source connected to the GCLK generator */
	uint32_t gen_input_hz = system_clock_source_get_hz(
			(enum system_clock_source)GCLK->GENCTRL.bit.SRC);
    68a4:	4e13      	ldr	r6, [pc, #76]	; (68f4 <system_gclk_gen_get_hz+0x70>)
    68a6:	6870      	ldr	r0, [r6, #4]
    68a8:	04c0      	lsls	r0, r0, #19
    68aa:	0ec0      	lsrs	r0, r0, #27
	uint32_t gen_input_hz = system_clock_source_get_hz(
    68ac:	4b14      	ldr	r3, [pc, #80]	; (6900 <system_gclk_gen_get_hz+0x7c>)
    68ae:	4798      	blx	r3
    68b0:	0005      	movs	r5, r0

	*((uint8_t*)&GCLK->GENCTRL.reg) = generator;
    68b2:	4b12      	ldr	r3, [pc, #72]	; (68fc <system_gclk_gen_get_hz+0x78>)
    68b4:	701c      	strb	r4, [r3, #0]

	uint8_t divsel = GCLK->GENCTRL.bit.DIVSEL;
    68b6:	6876      	ldr	r6, [r6, #4]
    68b8:	02f6      	lsls	r6, r6, #11
    68ba:	0ff6      	lsrs	r6, r6, #31

	/* Select the appropriate generator division register */
	*((uint8_t*)&GCLK->GENDIV.reg) = generator;
    68bc:	4b11      	ldr	r3, [pc, #68]	; (6904 <system_gclk_gen_get_hz+0x80>)
    68be:	701c      	strb	r4, [r3, #0]
	if (GCLK->STATUS.reg & GCLK_STATUS_SYNCBUSY){
    68c0:	4a0c      	ldr	r2, [pc, #48]	; (68f4 <system_gclk_gen_get_hz+0x70>)
    68c2:	7853      	ldrb	r3, [r2, #1]
	while (system_gclk_is_syncing()) {
    68c4:	b25b      	sxtb	r3, r3
    68c6:	2b00      	cmp	r3, #0
    68c8:	dbfb      	blt.n	68c2 <system_gclk_gen_get_hz+0x3e>
		/* Wait for synchronization */
	};

	uint32_t divider = GCLK->GENDIV.bit.DIV;
    68ca:	4b0a      	ldr	r3, [pc, #40]	; (68f4 <system_gclk_gen_get_hz+0x70>)
    68cc:	689c      	ldr	r4, [r3, #8]
    68ce:	0224      	lsls	r4, r4, #8
    68d0:	0c24      	lsrs	r4, r4, #16
	cpu_irq_leave_critical();
    68d2:	4b0d      	ldr	r3, [pc, #52]	; (6908 <system_gclk_gen_get_hz+0x84>)
    68d4:	4798      	blx	r3

	system_interrupt_leave_critical_section();

	/* Check if the generator is using fractional or binary division */
	if (!divsel && divider > 1) {
    68d6:	2e00      	cmp	r6, #0
    68d8:	d107      	bne.n	68ea <system_gclk_gen_get_hz+0x66>
    68da:	2c01      	cmp	r4, #1
    68dc:	d907      	bls.n	68ee <system_gclk_gen_get_hz+0x6a>
		gen_input_hz /= divider;
    68de:	0021      	movs	r1, r4
    68e0:	0028      	movs	r0, r5
    68e2:	4b0a      	ldr	r3, [pc, #40]	; (690c <system_gclk_gen_get_hz+0x88>)
    68e4:	4798      	blx	r3
    68e6:	0005      	movs	r5, r0
    68e8:	e001      	b.n	68ee <system_gclk_gen_get_hz+0x6a>
	} else if (divsel) {
		gen_input_hz >>= (divider+1);
    68ea:	3401      	adds	r4, #1
    68ec:	40e5      	lsrs	r5, r4
	}

	return gen_input_hz;
}
    68ee:	0028      	movs	r0, r5
    68f0:	bd70      	pop	{r4, r5, r6, pc}
    68f2:	46c0      	nop			; (mov r8, r8)
    68f4:	40000c00 	.word	0x40000c00
    68f8:	000057cd 	.word	0x000057cd
    68fc:	40000c04 	.word	0x40000c04
    6900:	000063d1 	.word	0x000063d1
    6904:	40000c08 	.word	0x40000c08
    6908:	0000580d 	.word	0x0000580d
    690c:	00006f01 	.word	0x00006f01

00006910 <system_gclk_chan_enable>:
 *
 * \param[in] channel   Generic Clock channel to enable
 */
void system_gclk_chan_enable(
		const uint8_t channel)
{
    6910:	b510      	push	{r4, lr}
    6912:	0004      	movs	r4, r0
	cpu_irq_enter_critical();
    6914:	4b06      	ldr	r3, [pc, #24]	; (6930 <system_gclk_chan_enable+0x20>)
    6916:	4798      	blx	r3
	system_interrupt_enter_critical_section();

	/* Select the requested generator channel */
	*((uint8_t*)&GCLK->CLKCTRL.reg) = channel;
    6918:	4b06      	ldr	r3, [pc, #24]	; (6934 <system_gclk_chan_enable+0x24>)
    691a:	701c      	strb	r4, [r3, #0]

	/* Enable the generic clock */
	GCLK->CLKCTRL.reg |= GCLK_CLKCTRL_CLKEN;
    691c:	4a06      	ldr	r2, [pc, #24]	; (6938 <system_gclk_chan_enable+0x28>)
    691e:	8853      	ldrh	r3, [r2, #2]
    6920:	2180      	movs	r1, #128	; 0x80
    6922:	01c9      	lsls	r1, r1, #7
    6924:	430b      	orrs	r3, r1
    6926:	8053      	strh	r3, [r2, #2]
	cpu_irq_leave_critical();
    6928:	4b04      	ldr	r3, [pc, #16]	; (693c <system_gclk_chan_enable+0x2c>)
    692a:	4798      	blx	r3

	system_interrupt_leave_critical_section();
}
    692c:	bd10      	pop	{r4, pc}
    692e:	46c0      	nop			; (mov r8, r8)
    6930:	000057cd 	.word	0x000057cd
    6934:	40000c02 	.word	0x40000c02
    6938:	40000c00 	.word	0x40000c00
    693c:	0000580d 	.word	0x0000580d

00006940 <system_gclk_chan_disable>:
 *
 * \param[in] channel  Generic Clock channel to disable
 */
void system_gclk_chan_disable(
		const uint8_t channel)
{
    6940:	b510      	push	{r4, lr}
    6942:	0004      	movs	r4, r0
	cpu_irq_enter_critical();
    6944:	4b0f      	ldr	r3, [pc, #60]	; (6984 <system_gclk_chan_disable+0x44>)
    6946:	4798      	blx	r3
	system_interrupt_enter_critical_section();

	/* Select the requested generator channel */
	*((uint8_t*)&GCLK->CLKCTRL.reg) = channel;
    6948:	4b0f      	ldr	r3, [pc, #60]	; (6988 <system_gclk_chan_disable+0x48>)
    694a:	701c      	strb	r4, [r3, #0]

	/* Sanity check WRTLOCK */
	Assert(!GCLK->CLKCTRL.bit.WRTLOCK);

	/* Switch to known-working source so that the channel can be disabled */
	uint32_t prev_gen_id = GCLK->CLKCTRL.bit.GEN;
    694c:	4a0f      	ldr	r2, [pc, #60]	; (698c <system_gclk_chan_disable+0x4c>)
    694e:	8853      	ldrh	r3, [r2, #2]
    6950:	051b      	lsls	r3, r3, #20
    6952:	0f18      	lsrs	r0, r3, #28
	GCLK->CLKCTRL.bit.GEN = 0;
    6954:	8853      	ldrh	r3, [r2, #2]
    6956:	490e      	ldr	r1, [pc, #56]	; (6990 <system_gclk_chan_disable+0x50>)
    6958:	400b      	ands	r3, r1
    695a:	8053      	strh	r3, [r2, #2]

	/* Disable the generic clock */
	GCLK->CLKCTRL.reg &= ~GCLK_CLKCTRL_CLKEN;
    695c:	8853      	ldrh	r3, [r2, #2]
    695e:	490d      	ldr	r1, [pc, #52]	; (6994 <system_gclk_chan_disable+0x54>)
    6960:	400b      	ands	r3, r1
    6962:	8053      	strh	r3, [r2, #2]
	while (GCLK->CLKCTRL.reg & GCLK_CLKCTRL_CLKEN) {
    6964:	0011      	movs	r1, r2
    6966:	2280      	movs	r2, #128	; 0x80
    6968:	01d2      	lsls	r2, r2, #7
    696a:	884b      	ldrh	r3, [r1, #2]
    696c:	4213      	tst	r3, r2
    696e:	d1fc      	bne.n	696a <system_gclk_chan_disable+0x2a>
		/* Wait for clock to become disabled */
	}

	/* Restore previous configured clock generator */
	GCLK->CLKCTRL.bit.GEN = prev_gen_id;
    6970:	4906      	ldr	r1, [pc, #24]	; (698c <system_gclk_chan_disable+0x4c>)
    6972:	884a      	ldrh	r2, [r1, #2]
    6974:	0203      	lsls	r3, r0, #8
    6976:	4806      	ldr	r0, [pc, #24]	; (6990 <system_gclk_chan_disable+0x50>)
    6978:	4002      	ands	r2, r0
    697a:	4313      	orrs	r3, r2
    697c:	804b      	strh	r3, [r1, #2]
	cpu_irq_leave_critical();
    697e:	4b06      	ldr	r3, [pc, #24]	; (6998 <system_gclk_chan_disable+0x58>)
    6980:	4798      	blx	r3

	system_interrupt_leave_critical_section();
}
    6982:	bd10      	pop	{r4, pc}
    6984:	000057cd 	.word	0x000057cd
    6988:	40000c02 	.word	0x40000c02
    698c:	40000c00 	.word	0x40000c00
    6990:	fffff0ff 	.word	0xfffff0ff
    6994:	ffffbfff 	.word	0xffffbfff
    6998:	0000580d 	.word	0x0000580d

0000699c <system_gclk_chan_set_config>:
{
    699c:	b510      	push	{r4, lr}
	new_clkctrl_config |= config->source_generator << GCLK_CLKCTRL_GEN_Pos;
    699e:	780c      	ldrb	r4, [r1, #0]
    69a0:	0224      	lsls	r4, r4, #8
    69a2:	4304      	orrs	r4, r0
	system_gclk_chan_disable(channel);
    69a4:	4b02      	ldr	r3, [pc, #8]	; (69b0 <system_gclk_chan_set_config+0x14>)
    69a6:	4798      	blx	r3
	GCLK->CLKCTRL.reg = new_clkctrl_config;
    69a8:	b2a4      	uxth	r4, r4
    69aa:	4b02      	ldr	r3, [pc, #8]	; (69b4 <system_gclk_chan_set_config+0x18>)
    69ac:	805c      	strh	r4, [r3, #2]
}
    69ae:	bd10      	pop	{r4, pc}
    69b0:	00006941 	.word	0x00006941
    69b4:	40000c00 	.word	0x40000c00

000069b8 <system_gclk_chan_get_hz>:
 *
 * \return The frequency of the generic clock channel, in Hz.
 */
uint32_t system_gclk_chan_get_hz(
		const uint8_t channel)
{
    69b8:	b510      	push	{r4, lr}
    69ba:	0004      	movs	r4, r0
	cpu_irq_enter_critical();
    69bc:	4b06      	ldr	r3, [pc, #24]	; (69d8 <system_gclk_chan_get_hz+0x20>)
    69be:	4798      	blx	r3
	uint8_t gen_id;

	system_interrupt_enter_critical_section();

	/* Select the requested generic clock channel */
	*((uint8_t*)&GCLK->CLKCTRL.reg) = channel;
    69c0:	4b06      	ldr	r3, [pc, #24]	; (69dc <system_gclk_chan_get_hz+0x24>)
    69c2:	701c      	strb	r4, [r3, #0]
	gen_id = GCLK->CLKCTRL.bit.GEN;
    69c4:	4b06      	ldr	r3, [pc, #24]	; (69e0 <system_gclk_chan_get_hz+0x28>)
    69c6:	885c      	ldrh	r4, [r3, #2]
    69c8:	0524      	lsls	r4, r4, #20
    69ca:	0f24      	lsrs	r4, r4, #28
	cpu_irq_leave_critical();
    69cc:	4b05      	ldr	r3, [pc, #20]	; (69e4 <system_gclk_chan_get_hz+0x2c>)
    69ce:	4798      	blx	r3

	system_interrupt_leave_critical_section();

	/* Return the clock speed of the associated GCLK generator */
	return system_gclk_gen_get_hz(gen_id);
    69d0:	0020      	movs	r0, r4
    69d2:	4b05      	ldr	r3, [pc, #20]	; (69e8 <system_gclk_chan_get_hz+0x30>)
    69d4:	4798      	blx	r3
}
    69d6:	bd10      	pop	{r4, pc}
    69d8:	000057cd 	.word	0x000057cd
    69dc:	40000c02 	.word	0x40000c02
    69e0:	40000c00 	.word	0x40000c00
    69e4:	0000580d 	.word	0x0000580d
    69e8:	00006885 	.word	0x00006885

000069ec <system_interrupt_clear_pending>:
enum status_code system_interrupt_clear_pending(
		const enum system_interrupt_vector vector)
{
	enum status_code status = STATUS_OK;

	if (vector >= _SYSTEM_INTERRUPT_EXTERNAL_VECTOR_START) {
    69ec:	2800      	cmp	r0, #0
    69ee:	db08      	blt.n	6a02 <system_interrupt_clear_pending+0x16>
		NVIC->ICPR[0] = (1 << vector);
    69f0:	2301      	movs	r3, #1
    69f2:	4083      	lsls	r3, r0
    69f4:	22c0      	movs	r2, #192	; 0xc0
    69f6:	0052      	lsls	r2, r2, #1
    69f8:	4906      	ldr	r1, [pc, #24]	; (6a14 <system_interrupt_clear_pending+0x28>)
    69fa:	508b      	str	r3, [r1, r2]
	enum status_code status = STATUS_OK;
    69fc:	2300      	movs	r3, #0
		Assert(false);
		status = STATUS_ERR_INVALID_ARG;
	}

	return status;
}
    69fe:	0018      	movs	r0, r3
    6a00:	4770      	bx	lr
		status = STATUS_ERR_INVALID_ARG;
    6a02:	2317      	movs	r3, #23
	} else if (vector == SYSTEM_INTERRUPT_SYSTICK) {
    6a04:	1c42      	adds	r2, r0, #1
    6a06:	d1fa      	bne.n	69fe <system_interrupt_clear_pending+0x12>
		SCB->ICSR = SCB_ICSR_PENDSTCLR_Msk;
    6a08:	2280      	movs	r2, #128	; 0x80
    6a0a:	0492      	lsls	r2, r2, #18
    6a0c:	4b02      	ldr	r3, [pc, #8]	; (6a18 <system_interrupt_clear_pending+0x2c>)
    6a0e:	605a      	str	r2, [r3, #4]
	enum status_code status = STATUS_OK;
    6a10:	2300      	movs	r3, #0
    6a12:	e7f4      	b.n	69fe <system_interrupt_clear_pending+0x12>
    6a14:	e000e100 	.word	0xe000e100
    6a18:	e000ed00 	.word	0xe000ed00

00006a1c <_system_pinmux_config>:
 */
static void _system_pinmux_config(
		PortGroup *const port,
		const uint32_t pin_mask,
		const struct system_pinmux_config *const config)
{
    6a1c:	b530      	push	{r4, r5, lr}

	/* Track the configuration bits into a temporary variable before writing */
	uint32_t pin_cfg = 0;

	/* Enabled powersave mode, don't create configuration */
	if (!config->powersave) {
    6a1e:	78d3      	ldrb	r3, [r2, #3]
    6a20:	2b00      	cmp	r3, #0
    6a22:	d135      	bne.n	6a90 <_system_pinmux_config+0x74>
		/* Enable the pin peripheral MUX flag if non-GPIO selected (pinmux will
		 * be written later) and store the new MUX mask */
		if (config->mux_position != SYSTEM_PINMUX_GPIO) {
    6a24:	7813      	ldrb	r3, [r2, #0]
    6a26:	2b80      	cmp	r3, #128	; 0x80
    6a28:	d029      	beq.n	6a7e <_system_pinmux_config+0x62>
			pin_cfg |= PORT_WRCONFIG_PMUXEN;
			pin_cfg |= (config->mux_position << PORT_WRCONFIG_PMUX_Pos);
    6a2a:	061b      	lsls	r3, r3, #24
    6a2c:	2480      	movs	r4, #128	; 0x80
    6a2e:	0264      	lsls	r4, r4, #9
    6a30:	4323      	orrs	r3, r4
		}

		/* Check if the user has requested that the input buffer be enabled */
		if ((config->direction == SYSTEM_PINMUX_PIN_DIR_INPUT) ||
    6a32:	7854      	ldrb	r4, [r2, #1]
    6a34:	2502      	movs	r5, #2
    6a36:	43ac      	bics	r4, r5
    6a38:	d106      	bne.n	6a48 <_system_pinmux_config+0x2c>
				(config->direction == SYSTEM_PINMUX_PIN_DIR_OUTPUT_WITH_READBACK)) {
			/* Enable input buffer flag */
			pin_cfg |= PORT_WRCONFIG_INEN;

			/* Enable pull-up/pull-down control flag if requested */
			if (config->input_pull != SYSTEM_PINMUX_PIN_PULL_NONE) {
    6a3a:	7894      	ldrb	r4, [r2, #2]
    6a3c:	2c00      	cmp	r4, #0
    6a3e:	d120      	bne.n	6a82 <_system_pinmux_config+0x66>
			pin_cfg |= PORT_WRCONFIG_INEN;
    6a40:	2480      	movs	r4, #128	; 0x80
    6a42:	02a4      	lsls	r4, r4, #10
    6a44:	4323      	orrs	r3, r4
				pin_cfg |= PORT_WRCONFIG_PULLEN;
			}

			/* Clear the port DIR bits to disable the output buffer */
			port->DIRCLR.reg = pin_mask;
    6a46:	6041      	str	r1, [r0, #4]
		}

		/* Check if the user has requested that the output buffer be enabled */
		if ((config->direction == SYSTEM_PINMUX_PIN_DIR_OUTPUT) ||
    6a48:	7854      	ldrb	r4, [r2, #1]
    6a4a:	3c01      	subs	r4, #1
    6a4c:	2c01      	cmp	r4, #1
    6a4e:	d91c      	bls.n	6a8a <_system_pinmux_config+0x6e>
		port->DIRCLR.reg = pin_mask;
	}

	/* The Write Configuration register (WRCONFIG) requires the
	 * pins to to grouped into two 16-bit half-words - split them out here */
	uint32_t lower_pin_mask = (pin_mask & 0xFFFF);
    6a50:	040d      	lsls	r5, r1, #16
    6a52:	0c2d      	lsrs	r5, r5, #16

	/* Configure the lower 16-bits of the port to the desired configuration,
	 * including the pin peripheral multiplexer just in case it is enabled */
	port->WRCONFIG.reg
		= (lower_pin_mask << PORT_WRCONFIG_PINMASK_Pos) |
			pin_cfg | PORT_WRCONFIG_WRPMUX | PORT_WRCONFIG_WRPINCFG;
    6a54:	24a0      	movs	r4, #160	; 0xa0
    6a56:	05e4      	lsls	r4, r4, #23
    6a58:	432c      	orrs	r4, r5
    6a5a:	431c      	orrs	r4, r3
		= (lower_pin_mask << PORT_WRCONFIG_PINMASK_Pos) |
    6a5c:	6284      	str	r4, [r0, #40]	; 0x28
	uint32_t upper_pin_mask = (pin_mask >> 16);
    6a5e:	0c0d      	lsrs	r5, r1, #16

	/* Configure the upper 16-bits of the port to the desired configuration,
	 * including the pin peripheral multiplexer just in case it is enabled */
	port->WRCONFIG.reg
		= (upper_pin_mask << PORT_WRCONFIG_PINMASK_Pos) |
			pin_cfg | PORT_WRCONFIG_WRPMUX | PORT_WRCONFIG_WRPINCFG |
    6a60:	24d0      	movs	r4, #208	; 0xd0
    6a62:	0624      	lsls	r4, r4, #24
    6a64:	432c      	orrs	r4, r5
    6a66:	431c      	orrs	r4, r3
		= (upper_pin_mask << PORT_WRCONFIG_PINMASK_Pos) |
    6a68:	6284      	str	r4, [r0, #40]	; 0x28
			PORT_WRCONFIG_HWSEL;

	if(!config->powersave) {
    6a6a:	78d4      	ldrb	r4, [r2, #3]
    6a6c:	2c00      	cmp	r4, #0
    6a6e:	d122      	bne.n	6ab6 <_system_pinmux_config+0x9a>
		/* Set the pull-up state once the port pins are configured if one was
		 * requested and it does not violate the valid set of port
		 * configurations */
		if (pin_cfg & PORT_WRCONFIG_PULLEN) {
    6a70:	035b      	lsls	r3, r3, #13
    6a72:	d51c      	bpl.n	6aae <_system_pinmux_config+0x92>
			/* Set the OUT register bits to enable the pull-up if requested,
			 * clear to enable pull-down */
			if (config->input_pull == SYSTEM_PINMUX_PIN_PULL_UP) {
    6a74:	7893      	ldrb	r3, [r2, #2]
    6a76:	2b01      	cmp	r3, #1
    6a78:	d01e      	beq.n	6ab8 <_system_pinmux_config+0x9c>
				port->OUTSET.reg = pin_mask;
			} else {
				port->OUTCLR.reg = pin_mask;
    6a7a:	6141      	str	r1, [r0, #20]
    6a7c:	e017      	b.n	6aae <_system_pinmux_config+0x92>
	uint32_t pin_cfg = 0;
    6a7e:	2300      	movs	r3, #0
    6a80:	e7d7      	b.n	6a32 <_system_pinmux_config+0x16>
				pin_cfg |= PORT_WRCONFIG_PULLEN;
    6a82:	24c0      	movs	r4, #192	; 0xc0
    6a84:	02e4      	lsls	r4, r4, #11
    6a86:	4323      	orrs	r3, r4
    6a88:	e7dd      	b.n	6a46 <_system_pinmux_config+0x2a>
			pin_cfg &= ~PORT_WRCONFIG_PULLEN;
    6a8a:	4c0d      	ldr	r4, [pc, #52]	; (6ac0 <_system_pinmux_config+0xa4>)
    6a8c:	4023      	ands	r3, r4
    6a8e:	e7df      	b.n	6a50 <_system_pinmux_config+0x34>
		port->DIRCLR.reg = pin_mask;
    6a90:	6041      	str	r1, [r0, #4]
	uint32_t lower_pin_mask = (pin_mask & 0xFFFF);
    6a92:	040c      	lsls	r4, r1, #16
    6a94:	0c24      	lsrs	r4, r4, #16
			pin_cfg | PORT_WRCONFIG_WRPMUX | PORT_WRCONFIG_WRPINCFG;
    6a96:	23a0      	movs	r3, #160	; 0xa0
    6a98:	05db      	lsls	r3, r3, #23
    6a9a:	4323      	orrs	r3, r4
		= (lower_pin_mask << PORT_WRCONFIG_PINMASK_Pos) |
    6a9c:	6283      	str	r3, [r0, #40]	; 0x28
	uint32_t upper_pin_mask = (pin_mask >> 16);
    6a9e:	0c0c      	lsrs	r4, r1, #16
			pin_cfg | PORT_WRCONFIG_WRPMUX | PORT_WRCONFIG_WRPINCFG |
    6aa0:	23d0      	movs	r3, #208	; 0xd0
    6aa2:	061b      	lsls	r3, r3, #24
    6aa4:	4323      	orrs	r3, r4
		= (upper_pin_mask << PORT_WRCONFIG_PINMASK_Pos) |
    6aa6:	6283      	str	r3, [r0, #40]	; 0x28
	if(!config->powersave) {
    6aa8:	78d3      	ldrb	r3, [r2, #3]
    6aaa:	2b00      	cmp	r3, #0
    6aac:	d103      	bne.n	6ab6 <_system_pinmux_config+0x9a>
			}
		}

		/* Check if the user has requested that the output buffer be enabled */
		if ((config->direction == SYSTEM_PINMUX_PIN_DIR_OUTPUT) ||
    6aae:	7853      	ldrb	r3, [r2, #1]
    6ab0:	3b01      	subs	r3, #1
    6ab2:	2b01      	cmp	r3, #1
    6ab4:	d902      	bls.n	6abc <_system_pinmux_config+0xa0>
				(config->direction == SYSTEM_PINMUX_PIN_DIR_OUTPUT_WITH_READBACK)) {
			/* Set the port DIR bits to enable the output buffer */
			port->DIRSET.reg = pin_mask;
		}
	}
}
    6ab6:	bd30      	pop	{r4, r5, pc}
				port->OUTSET.reg = pin_mask;
    6ab8:	6181      	str	r1, [r0, #24]
    6aba:	e7f8      	b.n	6aae <_system_pinmux_config+0x92>
			port->DIRSET.reg = pin_mask;
    6abc:	6081      	str	r1, [r0, #8]
}
    6abe:	e7fa      	b.n	6ab6 <_system_pinmux_config+0x9a>
    6ac0:	fffbffff 	.word	0xfffbffff

00006ac4 <system_pinmux_pin_set_config>:
 * \param[in] config    Configuration settings for the pin
 */
void system_pinmux_pin_set_config(
		const uint8_t gpio_pin,
		const struct system_pinmux_config *const config)
{
    6ac4:	b510      	push	{r4, lr}
    6ac6:	000a      	movs	r2, r1
	uint8_t group_index = (gpio_pin / 32);

	/* Array of available ports */
	Port *const ports[PORT_INST_NUM] = PORT_INSTS;

	if (port_index < PORT_INST_NUM) {
    6ac8:	09c1      	lsrs	r1, r0, #7
		return &(ports[port_index]->Group[group_index]);
	} else {
		Assert(false);
		return NULL;
    6aca:	2300      	movs	r3, #0
	if (port_index < PORT_INST_NUM) {
    6acc:	2900      	cmp	r1, #0
    6ace:	d104      	bne.n	6ada <system_pinmux_pin_set_config+0x16>
		return &(ports[port_index]->Group[group_index]);
    6ad0:	0943      	lsrs	r3, r0, #5
    6ad2:	01db      	lsls	r3, r3, #7
    6ad4:	4905      	ldr	r1, [pc, #20]	; (6aec <system_pinmux_pin_set_config+0x28>)
    6ad6:	468c      	mov	ip, r1
    6ad8:	4463      	add	r3, ip
	PortGroup *const port = system_pinmux_get_group_from_gpio_pin(gpio_pin);
	uint32_t pin_mask = (1UL << (gpio_pin % 32));
    6ada:	241f      	movs	r4, #31
    6adc:	4020      	ands	r0, r4
    6ade:	2101      	movs	r1, #1
    6ae0:	4081      	lsls	r1, r0

	_system_pinmux_config(port, pin_mask, config);
    6ae2:	0018      	movs	r0, r3
    6ae4:	4b02      	ldr	r3, [pc, #8]	; (6af0 <system_pinmux_pin_set_config+0x2c>)
    6ae6:	4798      	blx	r3
}
    6ae8:	bd10      	pop	{r4, pc}
    6aea:	46c0      	nop			; (mov r8, r8)
    6aec:	41004400 	.word	0x41004400
    6af0:	00006a1d 	.word	0x00006a1d

00006af4 <_system_dummy_init>:
 */
void _system_dummy_init(void);
void _system_dummy_init(void)
{
	return;
}
    6af4:	4770      	bx	lr
	...

00006af8 <system_init>:
 *  - Board hardware initialization (via the Board module)
 *  - Event system driver initialization (via the EVSYS module)
 *  - External Interrupt driver initialization (via the EXTINT module)
 */
void system_init(void)
{
    6af8:	b510      	push	{r4, lr}
	/* Configure GCLK and clock sources according to conf_clocks.h */
	system_clock_init();
    6afa:	4b05      	ldr	r3, [pc, #20]	; (6b10 <system_init+0x18>)
    6afc:	4798      	blx	r3

	/* Initialize board hardware */
	system_board_init();
    6afe:	4b05      	ldr	r3, [pc, #20]	; (6b14 <system_init+0x1c>)
    6b00:	4798      	blx	r3

	/* Initialize EVSYS hardware */
	_system_events_init();
    6b02:	4b05      	ldr	r3, [pc, #20]	; (6b18 <system_init+0x20>)
    6b04:	4798      	blx	r3

	/* Initialize External hardware */
	_system_extint_init();
    6b06:	4b05      	ldr	r3, [pc, #20]	; (6b1c <system_init+0x24>)
    6b08:	4798      	blx	r3
	
	/* Initialize DIVAS hardware */
	_system_divas_init();
    6b0a:	4b05      	ldr	r3, [pc, #20]	; (6b20 <system_init+0x28>)
    6b0c:	4798      	blx	r3
}
    6b0e:	bd10      	pop	{r4, pc}
    6b10:	000065ed 	.word	0x000065ed
    6b14:	0000583d 	.word	0x0000583d
    6b18:	00006af5 	.word	0x00006af5
    6b1c:	000058e1 	.word	0x000058e1
    6b20:	00006af5 	.word	0x00006af5

00006b24 <_tcc_interrupt_handler>:
 * \param[in]  module_index  ID of the TCC instance calling the interrupt
 *                           handler
 */
void _tcc_interrupt_handler(
		uint8_t module_index)
{
    6b24:	b5f0      	push	{r4, r5, r6, r7, lr}
    6b26:	46c6      	mov	lr, r8
    6b28:	b500      	push	{lr}
	int i;

	uint32_t interrupt_and_callback_status_mask;

	struct tcc_module *module =
    6b2a:	0080      	lsls	r0, r0, #2
    6b2c:	4b0e      	ldr	r3, [pc, #56]	; (6b68 <_tcc_interrupt_handler+0x44>)
    6b2e:	58c7      	ldr	r7, [r0, r3]
			(struct tcc_module *)_tcc_instances[module_index];

	interrupt_and_callback_status_mask = (module->hw->INTFLAG.reg &
    6b30:	683b      	ldr	r3, [r7, #0]
    6b32:	6ade      	ldr	r6, [r3, #44]	; 0x2c
    6b34:	6bbb      	ldr	r3, [r7, #56]	; 0x38
    6b36:	6b7a      	ldr	r2, [r7, #52]	; 0x34
    6b38:	4013      	ands	r3, r2
    6b3a:	401e      	ands	r6, r3
    6b3c:	2400      	movs	r4, #0
			module->register_callback_mask &
			module->enable_callback_mask);

	/* Check if callback interrupt has occured */
	for (i = 0; i < TCC_CALLBACK_N; i ++) {
		if (interrupt_and_callback_status_mask & _tcc_intflag[i]) {
    6b3e:	4b0b      	ldr	r3, [pc, #44]	; (6b6c <_tcc_interrupt_handler+0x48>)
    6b40:	4698      	mov	r8, r3
    6b42:	e002      	b.n	6b4a <_tcc_interrupt_handler+0x26>
    6b44:	3404      	adds	r4, #4
	for (i = 0; i < TCC_CALLBACK_N; i ++) {
    6b46:	2c30      	cmp	r4, #48	; 0x30
    6b48:	d00a      	beq.n	6b60 <_tcc_interrupt_handler+0x3c>
		if (interrupt_and_callback_status_mask & _tcc_intflag[i]) {
    6b4a:	4643      	mov	r3, r8
    6b4c:	58e5      	ldr	r5, [r4, r3]
    6b4e:	4235      	tst	r5, r6
    6b50:	d0f8      	beq.n	6b44 <_tcc_interrupt_handler+0x20>
			/* Invoke the registered and enabled callback function */
			(module->callback[i])(module);
    6b52:	193b      	adds	r3, r7, r4
    6b54:	685b      	ldr	r3, [r3, #4]
    6b56:	0038      	movs	r0, r7
    6b58:	4798      	blx	r3
			/* Clear interrupt flag */
			module->hw->INTFLAG.reg = _tcc_intflag[i];
    6b5a:	683b      	ldr	r3, [r7, #0]
    6b5c:	62dd      	str	r5, [r3, #44]	; 0x2c
    6b5e:	e7f1      	b.n	6b44 <_tcc_interrupt_handler+0x20>
		}
	}
}
    6b60:	bc04      	pop	{r2}
    6b62:	4690      	mov	r8, r2
    6b64:	bdf0      	pop	{r4, r5, r6, r7, pc}
    6b66:	46c0      	nop			; (mov r8, r8)
    6b68:	20004df4 	.word	0x20004df4
    6b6c:	0000a7a0 	.word	0x0000a7a0

00006b70 <TCC0_Handler>:
MREPEAT(TCC_INST_NUM, _TCC_INTERRUPT_HANDLER, 0)
    6b70:	b510      	push	{r4, lr}
    6b72:	2000      	movs	r0, #0
    6b74:	4b01      	ldr	r3, [pc, #4]	; (6b7c <TCC0_Handler+0xc>)
    6b76:	4798      	blx	r3
    6b78:	bd10      	pop	{r4, pc}
    6b7a:	46c0      	nop			; (mov r8, r8)
    6b7c:	00006b25 	.word	0x00006b25

00006b80 <TCC1_Handler>:
    6b80:	b510      	push	{r4, lr}
    6b82:	2001      	movs	r0, #1
    6b84:	4b01      	ldr	r3, [pc, #4]	; (6b8c <TCC1_Handler+0xc>)
    6b86:	4798      	blx	r3
    6b88:	bd10      	pop	{r4, pc}
    6b8a:	46c0      	nop			; (mov r8, r8)
    6b8c:	00006b25 	.word	0x00006b25

00006b90 <TCC2_Handler>:
    6b90:	b510      	push	{r4, lr}
    6b92:	2002      	movs	r0, #2
    6b94:	4b01      	ldr	r3, [pc, #4]	; (6b9c <TCC2_Handler+0xc>)
    6b96:	4798      	blx	r3
    6b98:	bd10      	pop	{r4, pc}
    6b9a:	46c0      	nop			; (mov r8, r8)
    6b9c:	00006b25 	.word	0x00006b25

00006ba0 <Dummy_Handler>:
 */
void HardFault_HandlerC(unsigned long *hardfault_args);

void Dummy_Handler(void)
{
  __asm volatile (
    6ba0:	2004      	movs	r0, #4
    6ba2:	4671      	mov	r1, lr
    6ba4:	4208      	tst	r0, r1
    6ba6:	d002      	beq.n	6bae <_MSP>
    6ba8:	f3ef 8009 	mrs	r0, PSP
    6bac:	e001      	b.n	6bb2 <_HALT>

00006bae <_MSP>:
    6bae:	f3ef 8008 	mrs	r0, MSP

00006bb2 <_HALT>:
    6bb2:	6941      	ldr	r1, [r0, #20]
    6bb4:	e074      	b.n	6ca0 <HardFault_HandlerC>
    6bb6:	be00      	bkpt	0x0000
  "_HALT:              \n"
  " ldr r1,[r0,#20]  \n"
  " b HardFault_HandlerC \n"
  " bkpt #0          \n"
  );
}
    6bb8:	4770      	bx	lr
	...

00006bbc <Reset_Handler>:
{
    6bbc:	b5f8      	push	{r3, r4, r5, r6, r7, lr}
        if (pSrc != pDest) {
    6bbe:	4a2a      	ldr	r2, [pc, #168]	; (6c68 <Reset_Handler+0xac>)
    6bc0:	4b2a      	ldr	r3, [pc, #168]	; (6c6c <Reset_Handler+0xb0>)
    6bc2:	429a      	cmp	r2, r3
    6bc4:	d011      	beq.n	6bea <Reset_Handler+0x2e>
                for (; pDest < &_erelocate;) {
    6bc6:	001a      	movs	r2, r3
    6bc8:	4b29      	ldr	r3, [pc, #164]	; (6c70 <Reset_Handler+0xb4>)
    6bca:	429a      	cmp	r2, r3
    6bcc:	d20d      	bcs.n	6bea <Reset_Handler+0x2e>
    6bce:	4a29      	ldr	r2, [pc, #164]	; (6c74 <Reset_Handler+0xb8>)
    6bd0:	3303      	adds	r3, #3
    6bd2:	1a9b      	subs	r3, r3, r2
    6bd4:	089b      	lsrs	r3, r3, #2
    6bd6:	3301      	adds	r3, #1
    6bd8:	009b      	lsls	r3, r3, #2
    6bda:	2200      	movs	r2, #0
                        *pDest++ = *pSrc++;
    6bdc:	4823      	ldr	r0, [pc, #140]	; (6c6c <Reset_Handler+0xb0>)
    6bde:	4922      	ldr	r1, [pc, #136]	; (6c68 <Reset_Handler+0xac>)
    6be0:	588c      	ldr	r4, [r1, r2]
    6be2:	5084      	str	r4, [r0, r2]
    6be4:	3204      	adds	r2, #4
                for (; pDest < &_erelocate;) {
    6be6:	429a      	cmp	r2, r3
    6be8:	d1fa      	bne.n	6be0 <Reset_Handler+0x24>
        for (pDest = &_szero; pDest < &_ezero;) {
    6bea:	4a23      	ldr	r2, [pc, #140]	; (6c78 <Reset_Handler+0xbc>)
    6bec:	4b23      	ldr	r3, [pc, #140]	; (6c7c <Reset_Handler+0xc0>)
    6bee:	429a      	cmp	r2, r3
    6bf0:	d20a      	bcs.n	6c08 <Reset_Handler+0x4c>
    6bf2:	43d3      	mvns	r3, r2
    6bf4:	4921      	ldr	r1, [pc, #132]	; (6c7c <Reset_Handler+0xc0>)
    6bf6:	185b      	adds	r3, r3, r1
    6bf8:	2103      	movs	r1, #3
    6bfa:	438b      	bics	r3, r1
    6bfc:	3304      	adds	r3, #4
    6bfe:	189b      	adds	r3, r3, r2
                *pDest++ = 0;
    6c00:	2100      	movs	r1, #0
    6c02:	c202      	stmia	r2!, {r1}
        for (pDest = &_szero; pDest < &_ezero;) {
    6c04:	4293      	cmp	r3, r2
    6c06:	d1fc      	bne.n	6c02 <Reset_Handler+0x46>
        SCB->VTOR = ((uint32_t) pSrc & SCB_VTOR_TBLOFF_Msk);
    6c08:	4a1d      	ldr	r2, [pc, #116]	; (6c80 <Reset_Handler+0xc4>)
    6c0a:	21ff      	movs	r1, #255	; 0xff
    6c0c:	4b1d      	ldr	r3, [pc, #116]	; (6c84 <Reset_Handler+0xc8>)
    6c0e:	438b      	bics	r3, r1
    6c10:	6093      	str	r3, [r2, #8]
        SBMATRIX->SFR[SBMATRIX_SLAVE_HMCRAMC0].reg = 2;
    6c12:	39fd      	subs	r1, #253	; 0xfd
    6c14:	2390      	movs	r3, #144	; 0x90
    6c16:	005b      	lsls	r3, r3, #1
    6c18:	4a1b      	ldr	r2, [pc, #108]	; (6c88 <Reset_Handler+0xcc>)
    6c1a:	50d1      	str	r1, [r2, r3]
        USB->DEVICE.QOSCTRL.bit.CQOS = 2;
    6c1c:	4a1b      	ldr	r2, [pc, #108]	; (6c8c <Reset_Handler+0xd0>)
    6c1e:	78d3      	ldrb	r3, [r2, #3]
    6c20:	2503      	movs	r5, #3
    6c22:	43ab      	bics	r3, r5
    6c24:	2402      	movs	r4, #2
    6c26:	4323      	orrs	r3, r4
    6c28:	70d3      	strb	r3, [r2, #3]
        USB->DEVICE.QOSCTRL.bit.DQOS = 2;
    6c2a:	78d3      	ldrb	r3, [r2, #3]
    6c2c:	270c      	movs	r7, #12
    6c2e:	43bb      	bics	r3, r7
    6c30:	2608      	movs	r6, #8
    6c32:	4333      	orrs	r3, r6
    6c34:	70d3      	strb	r3, [r2, #3]
        DMAC->QOSCTRL.bit.DQOS = 2;
    6c36:	4b16      	ldr	r3, [pc, #88]	; (6c90 <Reset_Handler+0xd4>)
    6c38:	7b98      	ldrb	r0, [r3, #14]
    6c3a:	2230      	movs	r2, #48	; 0x30
    6c3c:	4390      	bics	r0, r2
    6c3e:	2220      	movs	r2, #32
    6c40:	4310      	orrs	r0, r2
    6c42:	7398      	strb	r0, [r3, #14]
        DMAC->QOSCTRL.bit.FQOS = 2;
    6c44:	7b99      	ldrb	r1, [r3, #14]
    6c46:	43b9      	bics	r1, r7
    6c48:	4331      	orrs	r1, r6
    6c4a:	7399      	strb	r1, [r3, #14]
        DMAC->QOSCTRL.bit.WRBQOS = 2;
    6c4c:	7b9a      	ldrb	r2, [r3, #14]
    6c4e:	43aa      	bics	r2, r5
    6c50:	4322      	orrs	r2, r4
    6c52:	739a      	strb	r2, [r3, #14]
        NVMCTRL->CTRLB.bit.MANW = 1;
    6c54:	4a0f      	ldr	r2, [pc, #60]	; (6c94 <Reset_Handler+0xd8>)
    6c56:	6853      	ldr	r3, [r2, #4]
    6c58:	2180      	movs	r1, #128	; 0x80
    6c5a:	430b      	orrs	r3, r1
    6c5c:	6053      	str	r3, [r2, #4]
        __libc_init_array();
    6c5e:	4b0e      	ldr	r3, [pc, #56]	; (6c98 <Reset_Handler+0xdc>)
    6c60:	4798      	blx	r3
        main();
    6c62:	4b0e      	ldr	r3, [pc, #56]	; (6c9c <Reset_Handler+0xe0>)
    6c64:	4798      	blx	r3
    6c66:	e7fe      	b.n	6c66 <Reset_Handler+0xaa>
    6c68:	0000ac00 	.word	0x0000ac00
    6c6c:	20000000 	.word	0x20000000
    6c70:	20000200 	.word	0x20000200
    6c74:	20000004 	.word	0x20000004
    6c78:	20000200 	.word	0x20000200
    6c7c:	20004f44 	.word	0x20004f44
    6c80:	e000ed00 	.word	0xe000ed00
    6c84:	00000000 	.word	0x00000000
    6c88:	41007000 	.word	0x41007000
    6c8c:	41005000 	.word	0x41005000
    6c90:	41004800 	.word	0x41004800
    6c94:	41004000 	.word	0x41004000
    6c98:	00008c55 	.word	0x00008c55
    6c9c:	00006d29 	.word	0x00006d29

00006ca0 <HardFault_HandlerC>:

void HardFault_HandlerC(unsigned long *hardfault_args) {
    6ca0:	b08e      	sub	sp, #56	; 0x38
	volatile unsigned long _DFSR ;
	volatile unsigned long _AFSR ;
	volatile unsigned long _BFAR ;
	volatile unsigned long _MMAR ;
	
	stacked_r0  = ((unsigned long)hardfault_args[0]) ;
    6ca2:	6803      	ldr	r3, [r0, #0]
    6ca4:	930d      	str	r3, [sp, #52]	; 0x34
	stacked_r1  = ((unsigned long)hardfault_args[1]) ;
    6ca6:	6843      	ldr	r3, [r0, #4]
    6ca8:	930c      	str	r3, [sp, #48]	; 0x30
	stacked_r2  = ((unsigned long)hardfault_args[2]) ;
    6caa:	6883      	ldr	r3, [r0, #8]
    6cac:	930b      	str	r3, [sp, #44]	; 0x2c
	stacked_r3  = ((unsigned long)hardfault_args[3]) ;
    6cae:	68c3      	ldr	r3, [r0, #12]
    6cb0:	930a      	str	r3, [sp, #40]	; 0x28
	stacked_r12 = ((unsigned long)hardfault_args[4]) ;
    6cb2:	6903      	ldr	r3, [r0, #16]
    6cb4:	9309      	str	r3, [sp, #36]	; 0x24
	stacked_lr  = ((unsigned long)hardfault_args[5]) ;
    6cb6:	6943      	ldr	r3, [r0, #20]
    6cb8:	9308      	str	r3, [sp, #32]
	stacked_pc  = ((unsigned long)hardfault_args[6]) ;
    6cba:	6983      	ldr	r3, [r0, #24]
    6cbc:	9307      	str	r3, [sp, #28]
	stacked_psr = ((unsigned long)hardfault_args[7]) ;
    6cbe:	69c3      	ldr	r3, [r0, #28]
    6cc0:	9306      	str	r3, [sp, #24]
	
	// Configurable Fault Status Register
	// Consists of MMSR, BFSR and UFSR
	_CFSR = (*((volatile unsigned long *)(0xE000ED28))) ;
    6cc2:	4b0a      	ldr	r3, [pc, #40]	; (6cec <HardFault_HandlerC+0x4c>)
    6cc4:	681b      	ldr	r3, [r3, #0]
    6cc6:	9305      	str	r3, [sp, #20]
	
	// Hard Fault Status Register
	_HFSR = (*((volatile unsigned long *)(0xE000ED2C))) ;
    6cc8:	4b09      	ldr	r3, [pc, #36]	; (6cf0 <HardFault_HandlerC+0x50>)
    6cca:	681b      	ldr	r3, [r3, #0]
    6ccc:	9304      	str	r3, [sp, #16]
	
	// Debug Fault Status Register
	_DFSR = (*((volatile unsigned long *)(0xE000ED30))) ;
    6cce:	4b09      	ldr	r3, [pc, #36]	; (6cf4 <HardFault_HandlerC+0x54>)
    6cd0:	681b      	ldr	r3, [r3, #0]
    6cd2:	9303      	str	r3, [sp, #12]
	
	// Auxiliary Fault Status Register
	_AFSR = (*((volatile unsigned long *)(0xE000ED3C))) ;
    6cd4:	4b08      	ldr	r3, [pc, #32]	; (6cf8 <HardFault_HandlerC+0x58>)
    6cd6:	681b      	ldr	r3, [r3, #0]
    6cd8:	9302      	str	r3, [sp, #8]
	
	// Read the Fault Address Registers. These may not contain valid values.
	// Check BFARVALID/MMARVALID to see if they are valid values
	// MemManage Fault Address Register
	_MMAR = (*((volatile unsigned long *)(0xE000ED34))) ;
    6cda:	4b08      	ldr	r3, [pc, #32]	; (6cfc <HardFault_HandlerC+0x5c>)
    6cdc:	681b      	ldr	r3, [r3, #0]
    6cde:	9300      	str	r3, [sp, #0]
	// Bus Fault Address Register
	_BFAR = (*((volatile unsigned long *)(0xE000ED38))) ;
    6ce0:	4b07      	ldr	r3, [pc, #28]	; (6d00 <HardFault_HandlerC+0x60>)
    6ce2:	681b      	ldr	r3, [r3, #0]
    6ce4:	9301      	str	r3, [sp, #4]
	
	__asm("BKPT #0\n") ; // Break into the debugger
    6ce6:	be00      	bkpt	0x0000
	#pragma GCC diagnostic pop
    6ce8:	b00e      	add	sp, #56	; 0x38
    6cea:	4770      	bx	lr
    6cec:	e000ed28 	.word	0xe000ed28
    6cf0:	e000ed2c 	.word	0xe000ed2c
    6cf4:	e000ed30 	.word	0xe000ed30
    6cf8:	e000ed3c 	.word	0xe000ed3c
    6cfc:	e000ed34 	.word	0xe000ed34
    6d00:	e000ed38 	.word	0xe000ed38

00006d04 <_sbrk>:
extern void _exit(int status);
extern void _kill(int pid, int sig);
extern int _getpid(void);

extern caddr_t _sbrk(int incr)
{
    6d04:	0003      	movs	r3, r0
	static unsigned char *heap = NULL;
	unsigned char *prev_heap;

	if (heap == NULL) {
    6d06:	4a06      	ldr	r2, [pc, #24]	; (6d20 <_sbrk+0x1c>)
    6d08:	6812      	ldr	r2, [r2, #0]
    6d0a:	2a00      	cmp	r2, #0
    6d0c:	d004      	beq.n	6d18 <_sbrk+0x14>
		heap = (unsigned char *)&_end;
	}
	prev_heap = heap;
    6d0e:	4a04      	ldr	r2, [pc, #16]	; (6d20 <_sbrk+0x1c>)
    6d10:	6810      	ldr	r0, [r2, #0]

	heap += incr;
    6d12:	18c3      	adds	r3, r0, r3
    6d14:	6013      	str	r3, [r2, #0]

	return (caddr_t) prev_heap;
}
    6d16:	4770      	bx	lr
		heap = (unsigned char *)&_end;
    6d18:	4902      	ldr	r1, [pc, #8]	; (6d24 <_sbrk+0x20>)
    6d1a:	4a01      	ldr	r2, [pc, #4]	; (6d20 <_sbrk+0x1c>)
    6d1c:	6011      	str	r1, [r2, #0]
    6d1e:	e7f6      	b.n	6d0e <_sbrk+0xa>
    6d20:	20003850 	.word	0x20003850
    6d24:	20006f48 	.word	0x20006f48

00006d28 <main>:
 * Application entry point.
 *
 * \return program return value.
 */
int main(void)
{
    6d28:	b510      	push	{r4, lr}
	/* Initialize the board. */
	system_init();
    6d2a:	4b05      	ldr	r3, [pc, #20]	; (6d40 <main+0x18>)
    6d2c:	4798      	blx	r3

	/* Initialize the UART console. */
	InitializeSerialConsole();
    6d2e:	4b05      	ldr	r3, [pc, #20]	; (6d44 <main+0x1c>)
    6d30:	4798      	blx	r3

	//Initialize trace capabilities
	 vTraceEnable(TRC_START);
    6d32:	2001      	movs	r0, #1
    6d34:	4b04      	ldr	r3, [pc, #16]	; (6d48 <main+0x20>)
    6d36:	4798      	blx	r3
    // Start FreeRTOS scheduler
    vTaskStartScheduler();
    6d38:	4b04      	ldr	r3, [pc, #16]	; (6d4c <main+0x24>)
    6d3a:	4798      	blx	r3

	return 0; //Will not get here
}
    6d3c:	2000      	movs	r0, #0
    6d3e:	bd10      	pop	{r4, pc}
    6d40:	00006af9 	.word	0x00006af9
    6d44:	000055b5 	.word	0x000055b5
    6d48:	00001cd5 	.word	0x00001cd5
    6d4c:	00004575 	.word	0x00004575

00006d50 <vApplicationDaemonTaskStartupHook>:
* @param[in]        None
* @return           None
*****************************************************************************/
volatile uint8_t data[256];
void vApplicationDaemonTaskStartupHook(void)
{
    6d50:	b530      	push	{r4, r5, lr}
    6d52:	b085      	sub	sp, #20

SerialConsoleWriteString("\r\n\r\n-----ESE516 Main Program-----\r\n");
    6d54:	4840      	ldr	r0, [pc, #256]	; (6e58 <vApplicationDaemonTaskStartupHook+0x108>)
    6d56:	4c41      	ldr	r4, [pc, #260]	; (6e5c <vApplicationDaemonTaskStartupHook+0x10c>)
    6d58:	47a0      	blx	r4

//Initialize HW that needs FreeRTOS Initialization
SerialConsoleWriteString("\r\n\r\nInitialize HW...\r\n");
    6d5a:	4841      	ldr	r0, [pc, #260]	; (6e60 <vApplicationDaemonTaskStartupHook+0x110>)
    6d5c:	47a0      	blx	r4
	if (I2cInitializeDriver() != STATUS_OK)
    6d5e:	4b41      	ldr	r3, [pc, #260]	; (6e64 <vApplicationDaemonTaskStartupHook+0x114>)
    6d60:	4798      	blx	r3
    6d62:	2800      	cmp	r0, #0
    6d64:	d061      	beq.n	6e2a <vApplicationDaemonTaskStartupHook+0xda>
	{
		SerialConsoleWriteString("Error initializing I2C Driver!\r\n");
    6d66:	4840      	ldr	r0, [pc, #256]	; (6e68 <vApplicationDaemonTaskStartupHook+0x118>)
    6d68:	4b3c      	ldr	r3, [pc, #240]	; (6e5c <vApplicationDaemonTaskStartupHook+0x10c>)
    6d6a:	4798      	blx	r3
	else
	{
		SerialConsoleWriteString("Initialized I2C Driver!\r\n");
	}

	if(0 != InitializeSeesaw())
    6d6c:	4b3f      	ldr	r3, [pc, #252]	; (6e6c <vApplicationDaemonTaskStartupHook+0x11c>)
    6d6e:	4798      	blx	r3
    6d70:	2800      	cmp	r0, #0
    6d72:	d05e      	beq.n	6e32 <vApplicationDaemonTaskStartupHook+0xe2>
	{
		SerialConsoleWriteString("Error initializing Seesaw!\r\n");
    6d74:	483e      	ldr	r0, [pc, #248]	; (6e70 <vApplicationDaemonTaskStartupHook+0x120>)
    6d76:	4b39      	ldr	r3, [pc, #228]	; (6e5c <vApplicationDaemonTaskStartupHook+0x10c>)
    6d78:	4798      	blx	r3
	else
	{
		SerialConsoleWriteString("Initialized Seesaw!\r\n");
	}

	uint8_t whoamI = 0;
    6d7a:	240f      	movs	r4, #15
    6d7c:	446c      	add	r4, sp
    6d7e:	2300      	movs	r3, #0
    6d80:	7023      	strb	r3, [r4, #0]
	(lsm6dso_device_id_get(GetImuStruct(), &whoamI));
    6d82:	4b3c      	ldr	r3, [pc, #240]	; (6e74 <vApplicationDaemonTaskStartupHook+0x124>)
    6d84:	4798      	blx	r3
    6d86:	0021      	movs	r1, r4
    6d88:	4b3b      	ldr	r3, [pc, #236]	; (6e78 <vApplicationDaemonTaskStartupHook+0x128>)
    6d8a:	4798      	blx	r3
	
	if (whoamI != LSM6DSO_ID){
    6d8c:	7823      	ldrb	r3, [r4, #0]
    6d8e:	2b6c      	cmp	r3, #108	; 0x6c
    6d90:	d053      	beq.n	6e3a <vApplicationDaemonTaskStartupHook+0xea>
		SerialConsoleWriteString("Cannot find IMU!\r\n");
    6d92:	483a      	ldr	r0, [pc, #232]	; (6e7c <vApplicationDaemonTaskStartupHook+0x12c>)
    6d94:	4b31      	ldr	r3, [pc, #196]	; (6e5c <vApplicationDaemonTaskStartupHook+0x10c>)
    6d96:	4798      	blx	r3
* @return           None
*****************************************************************************/
static void StartTasks(void)
{

snprintf(bufferPrint, 64, "Heap before starting tasks: %d\r\n", xPortGetFreeHeapSize());
    6d98:	4b39      	ldr	r3, [pc, #228]	; (6e80 <vApplicationDaemonTaskStartupHook+0x130>)
    6d9a:	4798      	blx	r3
    6d9c:	0003      	movs	r3, r0
    6d9e:	4c39      	ldr	r4, [pc, #228]	; (6e84 <vApplicationDaemonTaskStartupHook+0x134>)
    6da0:	4a39      	ldr	r2, [pc, #228]	; (6e88 <vApplicationDaemonTaskStartupHook+0x138>)
    6da2:	2140      	movs	r1, #64	; 0x40
    6da4:	0020      	movs	r0, r4
    6da6:	4d39      	ldr	r5, [pc, #228]	; (6e8c <vApplicationDaemonTaskStartupHook+0x13c>)
    6da8:	47a8      	blx	r5
SerialConsoleWriteString(bufferPrint);
    6daa:	0020      	movs	r0, r4
    6dac:	4b2b      	ldr	r3, [pc, #172]	; (6e5c <vApplicationDaemonTaskStartupHook+0x10c>)
    6dae:	4798      	blx	r3

//Initialize Tasks here

if (xTaskCreate(vCommandConsoleTask, "CLI_TASK", CLI_TASK_SIZE, NULL, CLI_PRIORITY, &cliTaskHandle) != pdPASS) {
    6db0:	4b37      	ldr	r3, [pc, #220]	; (6e90 <vApplicationDaemonTaskStartupHook+0x140>)
    6db2:	9301      	str	r3, [sp, #4]
    6db4:	2304      	movs	r3, #4
    6db6:	9300      	str	r3, [sp, #0]
    6db8:	2300      	movs	r3, #0
    6dba:	22c8      	movs	r2, #200	; 0xc8
    6dbc:	0052      	lsls	r2, r2, #1
    6dbe:	4935      	ldr	r1, [pc, #212]	; (6e94 <vApplicationDaemonTaskStartupHook+0x144>)
    6dc0:	4835      	ldr	r0, [pc, #212]	; (6e98 <vApplicationDaemonTaskStartupHook+0x148>)
    6dc2:	4c36      	ldr	r4, [pc, #216]	; (6e9c <vApplicationDaemonTaskStartupHook+0x14c>)
    6dc4:	47a0      	blx	r4
    6dc6:	2801      	cmp	r0, #1
    6dc8:	d002      	beq.n	6dd0 <vApplicationDaemonTaskStartupHook+0x80>
	SerialConsoleWriteString("ERR: CLI task could not be initialized!\r\n");
    6dca:	4835      	ldr	r0, [pc, #212]	; (6ea0 <vApplicationDaemonTaskStartupHook+0x150>)
    6dcc:	4b23      	ldr	r3, [pc, #140]	; (6e5c <vApplicationDaemonTaskStartupHook+0x10c>)
    6dce:	4798      	blx	r3
}

snprintf(bufferPrint, 64, "Heap after starting CLI: %d\r\n", xPortGetFreeHeapSize());
    6dd0:	4b2b      	ldr	r3, [pc, #172]	; (6e80 <vApplicationDaemonTaskStartupHook+0x130>)
    6dd2:	4798      	blx	r3
    6dd4:	0003      	movs	r3, r0
    6dd6:	4c2b      	ldr	r4, [pc, #172]	; (6e84 <vApplicationDaemonTaskStartupHook+0x134>)
    6dd8:	4a32      	ldr	r2, [pc, #200]	; (6ea4 <vApplicationDaemonTaskStartupHook+0x154>)
    6dda:	2140      	movs	r1, #64	; 0x40
    6ddc:	0020      	movs	r0, r4
    6dde:	4d2b      	ldr	r5, [pc, #172]	; (6e8c <vApplicationDaemonTaskStartupHook+0x13c>)
    6de0:	47a8      	blx	r5
SerialConsoleWriteString(bufferPrint);
    6de2:	0020      	movs	r0, r4
    6de4:	4b1d      	ldr	r3, [pc, #116]	; (6e5c <vApplicationDaemonTaskStartupHook+0x10c>)
    6de6:	4798      	blx	r3



if(xTaskCreate(vUiHandlerTask, "UI Task", UI_TASK_SIZE, NULL, UI_TASK_PRIORITY, &uiTaskHandle) != pdPASS) {
    6de8:	4b2f      	ldr	r3, [pc, #188]	; (6ea8 <vApplicationDaemonTaskStartupHook+0x158>)
    6dea:	9301      	str	r3, [sp, #4]
    6dec:	2303      	movs	r3, #3
    6dee:	9300      	str	r3, [sp, #0]
    6df0:	2300      	movs	r3, #0
    6df2:	2280      	movs	r2, #128	; 0x80
    6df4:	0052      	lsls	r2, r2, #1
    6df6:	492d      	ldr	r1, [pc, #180]	; (6eac <vApplicationDaemonTaskStartupHook+0x15c>)
    6df8:	482d      	ldr	r0, [pc, #180]	; (6eb0 <vApplicationDaemonTaskStartupHook+0x160>)
    6dfa:	4c28      	ldr	r4, [pc, #160]	; (6e9c <vApplicationDaemonTaskStartupHook+0x14c>)
    6dfc:	47a0      	blx	r4
    6dfe:	2801      	cmp	r0, #1
    6e00:	d002      	beq.n	6e08 <vApplicationDaemonTaskStartupHook+0xb8>
	SerialConsoleWriteString("ERR: UI task could not be initialized!\r\n");
    6e02:	482c      	ldr	r0, [pc, #176]	; (6eb4 <vApplicationDaemonTaskStartupHook+0x164>)
    6e04:	4b15      	ldr	r3, [pc, #84]	; (6e5c <vApplicationDaemonTaskStartupHook+0x10c>)
    6e06:	4798      	blx	r3
}

snprintf(bufferPrint, 64, "Heap after starting UI Task: %d\r\n", xPortGetFreeHeapSize());
    6e08:	4b1d      	ldr	r3, [pc, #116]	; (6e80 <vApplicationDaemonTaskStartupHook+0x130>)
    6e0a:	4798      	blx	r3
    6e0c:	0003      	movs	r3, r0
    6e0e:	4c1d      	ldr	r4, [pc, #116]	; (6e84 <vApplicationDaemonTaskStartupHook+0x134>)
    6e10:	4a29      	ldr	r2, [pc, #164]	; (6eb8 <vApplicationDaemonTaskStartupHook+0x168>)
    6e12:	2140      	movs	r1, #64	; 0x40
    6e14:	0020      	movs	r0, r4
    6e16:	4d1d      	ldr	r5, [pc, #116]	; (6e8c <vApplicationDaemonTaskStartupHook+0x13c>)
    6e18:	47a8      	blx	r5
SerialConsoleWriteString(bufferPrint);
    6e1a:	0020      	movs	r0, r4
    6e1c:	4b0f      	ldr	r3, [pc, #60]	; (6e5c <vApplicationDaemonTaskStartupHook+0x10c>)
    6e1e:	4798      	blx	r3
	vTaskSuspend(daemonTaskHandle);
    6e20:	2000      	movs	r0, #0
    6e22:	4b26      	ldr	r3, [pc, #152]	; (6ebc <vApplicationDaemonTaskStartupHook+0x16c>)
    6e24:	4798      	blx	r3
}
    6e26:	b005      	add	sp, #20
    6e28:	bd30      	pop	{r4, r5, pc}
		SerialConsoleWriteString("Initialized I2C Driver!\r\n");
    6e2a:	4825      	ldr	r0, [pc, #148]	; (6ec0 <vApplicationDaemonTaskStartupHook+0x170>)
    6e2c:	4b0b      	ldr	r3, [pc, #44]	; (6e5c <vApplicationDaemonTaskStartupHook+0x10c>)
    6e2e:	4798      	blx	r3
    6e30:	e79c      	b.n	6d6c <vApplicationDaemonTaskStartupHook+0x1c>
		SerialConsoleWriteString("Initialized Seesaw!\r\n");
    6e32:	4824      	ldr	r0, [pc, #144]	; (6ec4 <vApplicationDaemonTaskStartupHook+0x174>)
    6e34:	4b09      	ldr	r3, [pc, #36]	; (6e5c <vApplicationDaemonTaskStartupHook+0x10c>)
    6e36:	4798      	blx	r3
    6e38:	e79f      	b.n	6d7a <vApplicationDaemonTaskStartupHook+0x2a>
		SerialConsoleWriteString("IMU found!\r\n");
    6e3a:	4823      	ldr	r0, [pc, #140]	; (6ec8 <vApplicationDaemonTaskStartupHook+0x178>)
    6e3c:	4b07      	ldr	r3, [pc, #28]	; (6e5c <vApplicationDaemonTaskStartupHook+0x10c>)
    6e3e:	4798      	blx	r3
		if(InitImu() == 0)
    6e40:	4b22      	ldr	r3, [pc, #136]	; (6ecc <vApplicationDaemonTaskStartupHook+0x17c>)
    6e42:	4798      	blx	r3
    6e44:	2800      	cmp	r0, #0
    6e46:	d003      	beq.n	6e50 <vApplicationDaemonTaskStartupHook+0x100>
			SerialConsoleWriteString("Could not initialize IMU\r\n");
    6e48:	4821      	ldr	r0, [pc, #132]	; (6ed0 <vApplicationDaemonTaskStartupHook+0x180>)
    6e4a:	4b04      	ldr	r3, [pc, #16]	; (6e5c <vApplicationDaemonTaskStartupHook+0x10c>)
    6e4c:	4798      	blx	r3
    6e4e:	e7a3      	b.n	6d98 <vApplicationDaemonTaskStartupHook+0x48>
			SerialConsoleWriteString("IMU initialized!\r\n");
    6e50:	4820      	ldr	r0, [pc, #128]	; (6ed4 <vApplicationDaemonTaskStartupHook+0x184>)
    6e52:	4b02      	ldr	r3, [pc, #8]	; (6e5c <vApplicationDaemonTaskStartupHook+0x10c>)
    6e54:	4798      	blx	r3
    6e56:	e79f      	b.n	6d98 <vApplicationDaemonTaskStartupHook+0x48>
    6e58:	0000a7d0 	.word	0x0000a7d0
    6e5c:	000056dd 	.word	0x000056dd
    6e60:	0000a7f4 	.word	0x0000a7f4
    6e64:	000009d1 	.word	0x000009d1
    6e68:	0000a80c 	.word	0x0000a80c
    6e6c:	00001419 	.word	0x00001419
    6e70:	00009898 	.word	0x00009898
    6e74:	000012c5 	.word	0x000012c5
    6e78:	00000ead 	.word	0x00000ead
    6e7c:	0000a864 	.word	0x0000a864
    6e80:	00002fe1 	.word	0x00002fe1
    6e84:	20004f00 	.word	0x20004f00
    6e88:	0000a8b8 	.word	0x0000a8b8
    6e8c:	00008e49 	.word	0x00008e49
    6e90:	20003854 	.word	0x20003854
    6e94:	0000a8dc 	.word	0x0000a8dc
    6e98:	0000066d 	.word	0x0000066d
    6e9c:	000042d1 	.word	0x000042d1
    6ea0:	0000a8e8 	.word	0x0000a8e8
    6ea4:	0000a914 	.word	0x0000a914
    6ea8:	20003858 	.word	0x20003858
    6eac:	0000a934 	.word	0x0000a934
    6eb0:	000015a1 	.word	0x000015a1
    6eb4:	0000a93c 	.word	0x0000a93c
    6eb8:	0000a968 	.word	0x0000a968
    6ebc:	00004a59 	.word	0x00004a59
    6ec0:	0000a830 	.word	0x0000a830
    6ec4:	0000a84c 	.word	0x0000a84c
    6ec8:	0000a878 	.word	0x0000a878
    6ecc:	000012cd 	.word	0x000012cd
    6ed0:	0000a89c 	.word	0x0000a89c
    6ed4:	0000a888 	.word	0x0000a888

00006ed8 <vApplicationMallocFailedHook>:




void vApplicationMallocFailedHook(void)
{
    6ed8:	b510      	push	{r4, lr}
SerialConsoleWriteString("Error on memory allocation on FREERTOS!\r\n");
    6eda:	4802      	ldr	r0, [pc, #8]	; (6ee4 <vApplicationMallocFailedHook+0xc>)
    6edc:	4b02      	ldr	r3, [pc, #8]	; (6ee8 <vApplicationMallocFailedHook+0x10>)
    6ede:	4798      	blx	r3
    6ee0:	e7fe      	b.n	6ee0 <vApplicationMallocFailedHook+0x8>
    6ee2:	46c0      	nop			; (mov r8, r8)
    6ee4:	0000a98c 	.word	0x0000a98c
    6ee8:	000056dd 	.word	0x000056dd

00006eec <vApplicationStackOverflowHook>:
while(1);
}

void vApplicationStackOverflowHook(void)
{
    6eec:	b510      	push	{r4, lr}
SerialConsoleWriteString("Error on stack overflow on FREERTOS!\r\n");
    6eee:	4802      	ldr	r0, [pc, #8]	; (6ef8 <vApplicationStackOverflowHook+0xc>)
    6ef0:	4b02      	ldr	r3, [pc, #8]	; (6efc <vApplicationStackOverflowHook+0x10>)
    6ef2:	4798      	blx	r3
    6ef4:	e7fe      	b.n	6ef4 <vApplicationStackOverflowHook+0x8>
    6ef6:	46c0      	nop			; (mov r8, r8)
    6ef8:	0000a9b8 	.word	0x0000a9b8
    6efc:	000056dd 	.word	0x000056dd

00006f00 <__udivsi3>:
    6f00:	2200      	movs	r2, #0
    6f02:	0843      	lsrs	r3, r0, #1
    6f04:	428b      	cmp	r3, r1
    6f06:	d374      	bcc.n	6ff2 <__udivsi3+0xf2>
    6f08:	0903      	lsrs	r3, r0, #4
    6f0a:	428b      	cmp	r3, r1
    6f0c:	d35f      	bcc.n	6fce <__udivsi3+0xce>
    6f0e:	0a03      	lsrs	r3, r0, #8
    6f10:	428b      	cmp	r3, r1
    6f12:	d344      	bcc.n	6f9e <__udivsi3+0x9e>
    6f14:	0b03      	lsrs	r3, r0, #12
    6f16:	428b      	cmp	r3, r1
    6f18:	d328      	bcc.n	6f6c <__udivsi3+0x6c>
    6f1a:	0c03      	lsrs	r3, r0, #16
    6f1c:	428b      	cmp	r3, r1
    6f1e:	d30d      	bcc.n	6f3c <__udivsi3+0x3c>
    6f20:	22ff      	movs	r2, #255	; 0xff
    6f22:	0209      	lsls	r1, r1, #8
    6f24:	ba12      	rev	r2, r2
    6f26:	0c03      	lsrs	r3, r0, #16
    6f28:	428b      	cmp	r3, r1
    6f2a:	d302      	bcc.n	6f32 <__udivsi3+0x32>
    6f2c:	1212      	asrs	r2, r2, #8
    6f2e:	0209      	lsls	r1, r1, #8
    6f30:	d065      	beq.n	6ffe <__udivsi3+0xfe>
    6f32:	0b03      	lsrs	r3, r0, #12
    6f34:	428b      	cmp	r3, r1
    6f36:	d319      	bcc.n	6f6c <__udivsi3+0x6c>
    6f38:	e000      	b.n	6f3c <__udivsi3+0x3c>
    6f3a:	0a09      	lsrs	r1, r1, #8
    6f3c:	0bc3      	lsrs	r3, r0, #15
    6f3e:	428b      	cmp	r3, r1
    6f40:	d301      	bcc.n	6f46 <__udivsi3+0x46>
    6f42:	03cb      	lsls	r3, r1, #15
    6f44:	1ac0      	subs	r0, r0, r3
    6f46:	4152      	adcs	r2, r2
    6f48:	0b83      	lsrs	r3, r0, #14
    6f4a:	428b      	cmp	r3, r1
    6f4c:	d301      	bcc.n	6f52 <__udivsi3+0x52>
    6f4e:	038b      	lsls	r3, r1, #14
    6f50:	1ac0      	subs	r0, r0, r3
    6f52:	4152      	adcs	r2, r2
    6f54:	0b43      	lsrs	r3, r0, #13
    6f56:	428b      	cmp	r3, r1
    6f58:	d301      	bcc.n	6f5e <__udivsi3+0x5e>
    6f5a:	034b      	lsls	r3, r1, #13
    6f5c:	1ac0      	subs	r0, r0, r3
    6f5e:	4152      	adcs	r2, r2
    6f60:	0b03      	lsrs	r3, r0, #12
    6f62:	428b      	cmp	r3, r1
    6f64:	d301      	bcc.n	6f6a <__udivsi3+0x6a>
    6f66:	030b      	lsls	r3, r1, #12
    6f68:	1ac0      	subs	r0, r0, r3
    6f6a:	4152      	adcs	r2, r2
    6f6c:	0ac3      	lsrs	r3, r0, #11
    6f6e:	428b      	cmp	r3, r1
    6f70:	d301      	bcc.n	6f76 <__udivsi3+0x76>
    6f72:	02cb      	lsls	r3, r1, #11
    6f74:	1ac0      	subs	r0, r0, r3
    6f76:	4152      	adcs	r2, r2
    6f78:	0a83      	lsrs	r3, r0, #10
    6f7a:	428b      	cmp	r3, r1
    6f7c:	d301      	bcc.n	6f82 <__udivsi3+0x82>
    6f7e:	028b      	lsls	r3, r1, #10
    6f80:	1ac0      	subs	r0, r0, r3
    6f82:	4152      	adcs	r2, r2
    6f84:	0a43      	lsrs	r3, r0, #9
    6f86:	428b      	cmp	r3, r1
    6f88:	d301      	bcc.n	6f8e <__udivsi3+0x8e>
    6f8a:	024b      	lsls	r3, r1, #9
    6f8c:	1ac0      	subs	r0, r0, r3
    6f8e:	4152      	adcs	r2, r2
    6f90:	0a03      	lsrs	r3, r0, #8
    6f92:	428b      	cmp	r3, r1
    6f94:	d301      	bcc.n	6f9a <__udivsi3+0x9a>
    6f96:	020b      	lsls	r3, r1, #8
    6f98:	1ac0      	subs	r0, r0, r3
    6f9a:	4152      	adcs	r2, r2
    6f9c:	d2cd      	bcs.n	6f3a <__udivsi3+0x3a>
    6f9e:	09c3      	lsrs	r3, r0, #7
    6fa0:	428b      	cmp	r3, r1
    6fa2:	d301      	bcc.n	6fa8 <__udivsi3+0xa8>
    6fa4:	01cb      	lsls	r3, r1, #7
    6fa6:	1ac0      	subs	r0, r0, r3
    6fa8:	4152      	adcs	r2, r2
    6faa:	0983      	lsrs	r3, r0, #6
    6fac:	428b      	cmp	r3, r1
    6fae:	d301      	bcc.n	6fb4 <__udivsi3+0xb4>
    6fb0:	018b      	lsls	r3, r1, #6
    6fb2:	1ac0      	subs	r0, r0, r3
    6fb4:	4152      	adcs	r2, r2
    6fb6:	0943      	lsrs	r3, r0, #5
    6fb8:	428b      	cmp	r3, r1
    6fba:	d301      	bcc.n	6fc0 <__udivsi3+0xc0>
    6fbc:	014b      	lsls	r3, r1, #5
    6fbe:	1ac0      	subs	r0, r0, r3
    6fc0:	4152      	adcs	r2, r2
    6fc2:	0903      	lsrs	r3, r0, #4
    6fc4:	428b      	cmp	r3, r1
    6fc6:	d301      	bcc.n	6fcc <__udivsi3+0xcc>
    6fc8:	010b      	lsls	r3, r1, #4
    6fca:	1ac0      	subs	r0, r0, r3
    6fcc:	4152      	adcs	r2, r2
    6fce:	08c3      	lsrs	r3, r0, #3
    6fd0:	428b      	cmp	r3, r1
    6fd2:	d301      	bcc.n	6fd8 <__udivsi3+0xd8>
    6fd4:	00cb      	lsls	r3, r1, #3
    6fd6:	1ac0      	subs	r0, r0, r3
    6fd8:	4152      	adcs	r2, r2
    6fda:	0883      	lsrs	r3, r0, #2
    6fdc:	428b      	cmp	r3, r1
    6fde:	d301      	bcc.n	6fe4 <__udivsi3+0xe4>
    6fe0:	008b      	lsls	r3, r1, #2
    6fe2:	1ac0      	subs	r0, r0, r3
    6fe4:	4152      	adcs	r2, r2
    6fe6:	0843      	lsrs	r3, r0, #1
    6fe8:	428b      	cmp	r3, r1
    6fea:	d301      	bcc.n	6ff0 <__udivsi3+0xf0>
    6fec:	004b      	lsls	r3, r1, #1
    6fee:	1ac0      	subs	r0, r0, r3
    6ff0:	4152      	adcs	r2, r2
    6ff2:	1a41      	subs	r1, r0, r1
    6ff4:	d200      	bcs.n	6ff8 <__udivsi3+0xf8>
    6ff6:	4601      	mov	r1, r0
    6ff8:	4152      	adcs	r2, r2
    6ffa:	4610      	mov	r0, r2
    6ffc:	4770      	bx	lr
    6ffe:	e7ff      	b.n	7000 <__udivsi3+0x100>
    7000:	b501      	push	{r0, lr}
    7002:	2000      	movs	r0, #0
    7004:	f000 f806 	bl	7014 <__aeabi_idiv0>
    7008:	bd02      	pop	{r1, pc}
    700a:	46c0      	nop			; (mov r8, r8)

0000700c <__aeabi_uidivmod>:
    700c:	2900      	cmp	r1, #0
    700e:	d0f7      	beq.n	7000 <__udivsi3+0x100>
    7010:	e776      	b.n	6f00 <__udivsi3>
    7012:	4770      	bx	lr

00007014 <__aeabi_idiv0>:
    7014:	4770      	bx	lr
    7016:	46c0      	nop			; (mov r8, r8)

00007018 <__aeabi_lmul>:
    7018:	b5f0      	push	{r4, r5, r6, r7, lr}
    701a:	46ce      	mov	lr, r9
    701c:	4647      	mov	r7, r8
    701e:	0415      	lsls	r5, r2, #16
    7020:	0c2d      	lsrs	r5, r5, #16
    7022:	002e      	movs	r6, r5
    7024:	b580      	push	{r7, lr}
    7026:	0407      	lsls	r7, r0, #16
    7028:	0c14      	lsrs	r4, r2, #16
    702a:	0c3f      	lsrs	r7, r7, #16
    702c:	4699      	mov	r9, r3
    702e:	0c03      	lsrs	r3, r0, #16
    7030:	437e      	muls	r6, r7
    7032:	435d      	muls	r5, r3
    7034:	4367      	muls	r7, r4
    7036:	4363      	muls	r3, r4
    7038:	197f      	adds	r7, r7, r5
    703a:	0c34      	lsrs	r4, r6, #16
    703c:	19e4      	adds	r4, r4, r7
    703e:	469c      	mov	ip, r3
    7040:	42a5      	cmp	r5, r4
    7042:	d903      	bls.n	704c <__aeabi_lmul+0x34>
    7044:	2380      	movs	r3, #128	; 0x80
    7046:	025b      	lsls	r3, r3, #9
    7048:	4698      	mov	r8, r3
    704a:	44c4      	add	ip, r8
    704c:	464b      	mov	r3, r9
    704e:	4351      	muls	r1, r2
    7050:	4343      	muls	r3, r0
    7052:	0436      	lsls	r6, r6, #16
    7054:	0c36      	lsrs	r6, r6, #16
    7056:	0c25      	lsrs	r5, r4, #16
    7058:	0424      	lsls	r4, r4, #16
    705a:	4465      	add	r5, ip
    705c:	19a4      	adds	r4, r4, r6
    705e:	1859      	adds	r1, r3, r1
    7060:	1949      	adds	r1, r1, r5
    7062:	0020      	movs	r0, r4
    7064:	bc0c      	pop	{r2, r3}
    7066:	4690      	mov	r8, r2
    7068:	4699      	mov	r9, r3
    706a:	bdf0      	pop	{r4, r5, r6, r7, pc}

0000706c <__aeabi_fmul>:
    706c:	b5f8      	push	{r3, r4, r5, r6, r7, lr}
    706e:	4657      	mov	r7, sl
    7070:	464e      	mov	r6, r9
    7072:	4645      	mov	r5, r8
    7074:	46de      	mov	lr, fp
    7076:	b5e0      	push	{r5, r6, r7, lr}
    7078:	0247      	lsls	r7, r0, #9
    707a:	0046      	lsls	r6, r0, #1
    707c:	4688      	mov	r8, r1
    707e:	0a7f      	lsrs	r7, r7, #9
    7080:	0e36      	lsrs	r6, r6, #24
    7082:	0fc4      	lsrs	r4, r0, #31
    7084:	2e00      	cmp	r6, #0
    7086:	d047      	beq.n	7118 <__aeabi_fmul+0xac>
    7088:	2eff      	cmp	r6, #255	; 0xff
    708a:	d024      	beq.n	70d6 <__aeabi_fmul+0x6a>
    708c:	00fb      	lsls	r3, r7, #3
    708e:	2780      	movs	r7, #128	; 0x80
    7090:	04ff      	lsls	r7, r7, #19
    7092:	431f      	orrs	r7, r3
    7094:	2300      	movs	r3, #0
    7096:	4699      	mov	r9, r3
    7098:	469a      	mov	sl, r3
    709a:	3e7f      	subs	r6, #127	; 0x7f
    709c:	4643      	mov	r3, r8
    709e:	025d      	lsls	r5, r3, #9
    70a0:	0058      	lsls	r0, r3, #1
    70a2:	0fdb      	lsrs	r3, r3, #31
    70a4:	0a6d      	lsrs	r5, r5, #9
    70a6:	0e00      	lsrs	r0, r0, #24
    70a8:	4698      	mov	r8, r3
    70aa:	d043      	beq.n	7134 <__aeabi_fmul+0xc8>
    70ac:	28ff      	cmp	r0, #255	; 0xff
    70ae:	d03b      	beq.n	7128 <__aeabi_fmul+0xbc>
    70b0:	00eb      	lsls	r3, r5, #3
    70b2:	2580      	movs	r5, #128	; 0x80
    70b4:	2200      	movs	r2, #0
    70b6:	04ed      	lsls	r5, r5, #19
    70b8:	431d      	orrs	r5, r3
    70ba:	387f      	subs	r0, #127	; 0x7f
    70bc:	1836      	adds	r6, r6, r0
    70be:	1c73      	adds	r3, r6, #1
    70c0:	4641      	mov	r1, r8
    70c2:	469b      	mov	fp, r3
    70c4:	464b      	mov	r3, r9
    70c6:	4061      	eors	r1, r4
    70c8:	4313      	orrs	r3, r2
    70ca:	2b0f      	cmp	r3, #15
    70cc:	d864      	bhi.n	7198 <__aeabi_fmul+0x12c>
    70ce:	4875      	ldr	r0, [pc, #468]	; (72a4 <__aeabi_fmul+0x238>)
    70d0:	009b      	lsls	r3, r3, #2
    70d2:	58c3      	ldr	r3, [r0, r3]
    70d4:	469f      	mov	pc, r3
    70d6:	2f00      	cmp	r7, #0
    70d8:	d142      	bne.n	7160 <__aeabi_fmul+0xf4>
    70da:	2308      	movs	r3, #8
    70dc:	4699      	mov	r9, r3
    70de:	3b06      	subs	r3, #6
    70e0:	26ff      	movs	r6, #255	; 0xff
    70e2:	469a      	mov	sl, r3
    70e4:	e7da      	b.n	709c <__aeabi_fmul+0x30>
    70e6:	4641      	mov	r1, r8
    70e8:	2a02      	cmp	r2, #2
    70ea:	d028      	beq.n	713e <__aeabi_fmul+0xd2>
    70ec:	2a03      	cmp	r2, #3
    70ee:	d100      	bne.n	70f2 <__aeabi_fmul+0x86>
    70f0:	e0ce      	b.n	7290 <__aeabi_fmul+0x224>
    70f2:	2a01      	cmp	r2, #1
    70f4:	d000      	beq.n	70f8 <__aeabi_fmul+0x8c>
    70f6:	e0ac      	b.n	7252 <__aeabi_fmul+0x1e6>
    70f8:	4011      	ands	r1, r2
    70fa:	2000      	movs	r0, #0
    70fc:	2200      	movs	r2, #0
    70fe:	b2cc      	uxtb	r4, r1
    7100:	0240      	lsls	r0, r0, #9
    7102:	05d2      	lsls	r2, r2, #23
    7104:	0a40      	lsrs	r0, r0, #9
    7106:	07e4      	lsls	r4, r4, #31
    7108:	4310      	orrs	r0, r2
    710a:	4320      	orrs	r0, r4
    710c:	bc3c      	pop	{r2, r3, r4, r5}
    710e:	4690      	mov	r8, r2
    7110:	4699      	mov	r9, r3
    7112:	46a2      	mov	sl, r4
    7114:	46ab      	mov	fp, r5
    7116:	bdf8      	pop	{r3, r4, r5, r6, r7, pc}
    7118:	2f00      	cmp	r7, #0
    711a:	d115      	bne.n	7148 <__aeabi_fmul+0xdc>
    711c:	2304      	movs	r3, #4
    711e:	4699      	mov	r9, r3
    7120:	3b03      	subs	r3, #3
    7122:	2600      	movs	r6, #0
    7124:	469a      	mov	sl, r3
    7126:	e7b9      	b.n	709c <__aeabi_fmul+0x30>
    7128:	20ff      	movs	r0, #255	; 0xff
    712a:	2202      	movs	r2, #2
    712c:	2d00      	cmp	r5, #0
    712e:	d0c5      	beq.n	70bc <__aeabi_fmul+0x50>
    7130:	2203      	movs	r2, #3
    7132:	e7c3      	b.n	70bc <__aeabi_fmul+0x50>
    7134:	2d00      	cmp	r5, #0
    7136:	d119      	bne.n	716c <__aeabi_fmul+0x100>
    7138:	2000      	movs	r0, #0
    713a:	2201      	movs	r2, #1
    713c:	e7be      	b.n	70bc <__aeabi_fmul+0x50>
    713e:	2401      	movs	r4, #1
    7140:	22ff      	movs	r2, #255	; 0xff
    7142:	400c      	ands	r4, r1
    7144:	2000      	movs	r0, #0
    7146:	e7db      	b.n	7100 <__aeabi_fmul+0x94>
    7148:	0038      	movs	r0, r7
    714a:	f001 fd65 	bl	8c18 <__clzsi2>
    714e:	2676      	movs	r6, #118	; 0x76
    7150:	1f43      	subs	r3, r0, #5
    7152:	409f      	lsls	r7, r3
    7154:	2300      	movs	r3, #0
    7156:	4276      	negs	r6, r6
    7158:	1a36      	subs	r6, r6, r0
    715a:	4699      	mov	r9, r3
    715c:	469a      	mov	sl, r3
    715e:	e79d      	b.n	709c <__aeabi_fmul+0x30>
    7160:	230c      	movs	r3, #12
    7162:	4699      	mov	r9, r3
    7164:	3b09      	subs	r3, #9
    7166:	26ff      	movs	r6, #255	; 0xff
    7168:	469a      	mov	sl, r3
    716a:	e797      	b.n	709c <__aeabi_fmul+0x30>
    716c:	0028      	movs	r0, r5
    716e:	f001 fd53 	bl	8c18 <__clzsi2>
    7172:	1f43      	subs	r3, r0, #5
    7174:	409d      	lsls	r5, r3
    7176:	2376      	movs	r3, #118	; 0x76
    7178:	425b      	negs	r3, r3
    717a:	1a18      	subs	r0, r3, r0
    717c:	2200      	movs	r2, #0
    717e:	e79d      	b.n	70bc <__aeabi_fmul+0x50>
    7180:	2080      	movs	r0, #128	; 0x80
    7182:	2400      	movs	r4, #0
    7184:	03c0      	lsls	r0, r0, #15
    7186:	22ff      	movs	r2, #255	; 0xff
    7188:	e7ba      	b.n	7100 <__aeabi_fmul+0x94>
    718a:	003d      	movs	r5, r7
    718c:	4652      	mov	r2, sl
    718e:	e7ab      	b.n	70e8 <__aeabi_fmul+0x7c>
    7190:	003d      	movs	r5, r7
    7192:	0021      	movs	r1, r4
    7194:	4652      	mov	r2, sl
    7196:	e7a7      	b.n	70e8 <__aeabi_fmul+0x7c>
    7198:	0c3b      	lsrs	r3, r7, #16
    719a:	469c      	mov	ip, r3
    719c:	042a      	lsls	r2, r5, #16
    719e:	0c12      	lsrs	r2, r2, #16
    71a0:	0c2b      	lsrs	r3, r5, #16
    71a2:	0014      	movs	r4, r2
    71a4:	4660      	mov	r0, ip
    71a6:	4665      	mov	r5, ip
    71a8:	043f      	lsls	r7, r7, #16
    71aa:	0c3f      	lsrs	r7, r7, #16
    71ac:	437c      	muls	r4, r7
    71ae:	4342      	muls	r2, r0
    71b0:	435d      	muls	r5, r3
    71b2:	437b      	muls	r3, r7
    71b4:	0c27      	lsrs	r7, r4, #16
    71b6:	189b      	adds	r3, r3, r2
    71b8:	18ff      	adds	r7, r7, r3
    71ba:	42ba      	cmp	r2, r7
    71bc:	d903      	bls.n	71c6 <__aeabi_fmul+0x15a>
    71be:	2380      	movs	r3, #128	; 0x80
    71c0:	025b      	lsls	r3, r3, #9
    71c2:	469c      	mov	ip, r3
    71c4:	4465      	add	r5, ip
    71c6:	0424      	lsls	r4, r4, #16
    71c8:	043a      	lsls	r2, r7, #16
    71ca:	0c24      	lsrs	r4, r4, #16
    71cc:	1912      	adds	r2, r2, r4
    71ce:	0193      	lsls	r3, r2, #6
    71d0:	1e5c      	subs	r4, r3, #1
    71d2:	41a3      	sbcs	r3, r4
    71d4:	0c3f      	lsrs	r7, r7, #16
    71d6:	0e92      	lsrs	r2, r2, #26
    71d8:	197d      	adds	r5, r7, r5
    71da:	431a      	orrs	r2, r3
    71dc:	01ad      	lsls	r5, r5, #6
    71de:	4315      	orrs	r5, r2
    71e0:	012b      	lsls	r3, r5, #4
    71e2:	d504      	bpl.n	71ee <__aeabi_fmul+0x182>
    71e4:	2301      	movs	r3, #1
    71e6:	465e      	mov	r6, fp
    71e8:	086a      	lsrs	r2, r5, #1
    71ea:	401d      	ands	r5, r3
    71ec:	4315      	orrs	r5, r2
    71ee:	0032      	movs	r2, r6
    71f0:	327f      	adds	r2, #127	; 0x7f
    71f2:	2a00      	cmp	r2, #0
    71f4:	dd25      	ble.n	7242 <__aeabi_fmul+0x1d6>
    71f6:	076b      	lsls	r3, r5, #29
    71f8:	d004      	beq.n	7204 <__aeabi_fmul+0x198>
    71fa:	230f      	movs	r3, #15
    71fc:	402b      	ands	r3, r5
    71fe:	2b04      	cmp	r3, #4
    7200:	d000      	beq.n	7204 <__aeabi_fmul+0x198>
    7202:	3504      	adds	r5, #4
    7204:	012b      	lsls	r3, r5, #4
    7206:	d503      	bpl.n	7210 <__aeabi_fmul+0x1a4>
    7208:	0032      	movs	r2, r6
    720a:	4b27      	ldr	r3, [pc, #156]	; (72a8 <__aeabi_fmul+0x23c>)
    720c:	3280      	adds	r2, #128	; 0x80
    720e:	401d      	ands	r5, r3
    7210:	2afe      	cmp	r2, #254	; 0xfe
    7212:	dc94      	bgt.n	713e <__aeabi_fmul+0xd2>
    7214:	2401      	movs	r4, #1
    7216:	01a8      	lsls	r0, r5, #6
    7218:	0a40      	lsrs	r0, r0, #9
    721a:	b2d2      	uxtb	r2, r2
    721c:	400c      	ands	r4, r1
    721e:	e76f      	b.n	7100 <__aeabi_fmul+0x94>
    7220:	2080      	movs	r0, #128	; 0x80
    7222:	03c0      	lsls	r0, r0, #15
    7224:	4207      	tst	r7, r0
    7226:	d007      	beq.n	7238 <__aeabi_fmul+0x1cc>
    7228:	4205      	tst	r5, r0
    722a:	d105      	bne.n	7238 <__aeabi_fmul+0x1cc>
    722c:	4328      	orrs	r0, r5
    722e:	0240      	lsls	r0, r0, #9
    7230:	0a40      	lsrs	r0, r0, #9
    7232:	4644      	mov	r4, r8
    7234:	22ff      	movs	r2, #255	; 0xff
    7236:	e763      	b.n	7100 <__aeabi_fmul+0x94>
    7238:	4338      	orrs	r0, r7
    723a:	0240      	lsls	r0, r0, #9
    723c:	0a40      	lsrs	r0, r0, #9
    723e:	22ff      	movs	r2, #255	; 0xff
    7240:	e75e      	b.n	7100 <__aeabi_fmul+0x94>
    7242:	2401      	movs	r4, #1
    7244:	1aa3      	subs	r3, r4, r2
    7246:	2b1b      	cmp	r3, #27
    7248:	dd05      	ble.n	7256 <__aeabi_fmul+0x1ea>
    724a:	400c      	ands	r4, r1
    724c:	2200      	movs	r2, #0
    724e:	2000      	movs	r0, #0
    7250:	e756      	b.n	7100 <__aeabi_fmul+0x94>
    7252:	465e      	mov	r6, fp
    7254:	e7cb      	b.n	71ee <__aeabi_fmul+0x182>
    7256:	002a      	movs	r2, r5
    7258:	2020      	movs	r0, #32
    725a:	40da      	lsrs	r2, r3
    725c:	1ac3      	subs	r3, r0, r3
    725e:	409d      	lsls	r5, r3
    7260:	002b      	movs	r3, r5
    7262:	1e5d      	subs	r5, r3, #1
    7264:	41ab      	sbcs	r3, r5
    7266:	4313      	orrs	r3, r2
    7268:	075a      	lsls	r2, r3, #29
    726a:	d004      	beq.n	7276 <__aeabi_fmul+0x20a>
    726c:	220f      	movs	r2, #15
    726e:	401a      	ands	r2, r3
    7270:	2a04      	cmp	r2, #4
    7272:	d000      	beq.n	7276 <__aeabi_fmul+0x20a>
    7274:	3304      	adds	r3, #4
    7276:	015a      	lsls	r2, r3, #5
    7278:	d504      	bpl.n	7284 <__aeabi_fmul+0x218>
    727a:	2401      	movs	r4, #1
    727c:	2201      	movs	r2, #1
    727e:	400c      	ands	r4, r1
    7280:	2000      	movs	r0, #0
    7282:	e73d      	b.n	7100 <__aeabi_fmul+0x94>
    7284:	2401      	movs	r4, #1
    7286:	019b      	lsls	r3, r3, #6
    7288:	0a58      	lsrs	r0, r3, #9
    728a:	400c      	ands	r4, r1
    728c:	2200      	movs	r2, #0
    728e:	e737      	b.n	7100 <__aeabi_fmul+0x94>
    7290:	2080      	movs	r0, #128	; 0x80
    7292:	2401      	movs	r4, #1
    7294:	03c0      	lsls	r0, r0, #15
    7296:	4328      	orrs	r0, r5
    7298:	0240      	lsls	r0, r0, #9
    729a:	0a40      	lsrs	r0, r0, #9
    729c:	400c      	ands	r4, r1
    729e:	22ff      	movs	r2, #255	; 0xff
    72a0:	e72e      	b.n	7100 <__aeabi_fmul+0x94>
    72a2:	46c0      	nop			; (mov r8, r8)
    72a4:	0000a9e0 	.word	0x0000a9e0
    72a8:	f7ffffff 	.word	0xf7ffffff

000072ac <__aeabi_f2iz>:
    72ac:	0241      	lsls	r1, r0, #9
    72ae:	0043      	lsls	r3, r0, #1
    72b0:	0fc2      	lsrs	r2, r0, #31
    72b2:	0a49      	lsrs	r1, r1, #9
    72b4:	0e1b      	lsrs	r3, r3, #24
    72b6:	2000      	movs	r0, #0
    72b8:	2b7e      	cmp	r3, #126	; 0x7e
    72ba:	dd0d      	ble.n	72d8 <__aeabi_f2iz+0x2c>
    72bc:	2b9d      	cmp	r3, #157	; 0x9d
    72be:	dc0c      	bgt.n	72da <__aeabi_f2iz+0x2e>
    72c0:	2080      	movs	r0, #128	; 0x80
    72c2:	0400      	lsls	r0, r0, #16
    72c4:	4301      	orrs	r1, r0
    72c6:	2b95      	cmp	r3, #149	; 0x95
    72c8:	dc0a      	bgt.n	72e0 <__aeabi_f2iz+0x34>
    72ca:	2096      	movs	r0, #150	; 0x96
    72cc:	1ac3      	subs	r3, r0, r3
    72ce:	40d9      	lsrs	r1, r3
    72d0:	4248      	negs	r0, r1
    72d2:	2a00      	cmp	r2, #0
    72d4:	d100      	bne.n	72d8 <__aeabi_f2iz+0x2c>
    72d6:	0008      	movs	r0, r1
    72d8:	4770      	bx	lr
    72da:	4b03      	ldr	r3, [pc, #12]	; (72e8 <__aeabi_f2iz+0x3c>)
    72dc:	18d0      	adds	r0, r2, r3
    72de:	e7fb      	b.n	72d8 <__aeabi_f2iz+0x2c>
    72e0:	3b96      	subs	r3, #150	; 0x96
    72e2:	4099      	lsls	r1, r3
    72e4:	e7f4      	b.n	72d0 <__aeabi_f2iz+0x24>
    72e6:	46c0      	nop			; (mov r8, r8)
    72e8:	7fffffff 	.word	0x7fffffff

000072ec <__aeabi_i2f>:
    72ec:	b570      	push	{r4, r5, r6, lr}
    72ee:	2800      	cmp	r0, #0
    72f0:	d030      	beq.n	7354 <__aeabi_i2f+0x68>
    72f2:	17c3      	asrs	r3, r0, #31
    72f4:	18c4      	adds	r4, r0, r3
    72f6:	405c      	eors	r4, r3
    72f8:	0fc5      	lsrs	r5, r0, #31
    72fa:	0020      	movs	r0, r4
    72fc:	f001 fc8c 	bl	8c18 <__clzsi2>
    7300:	239e      	movs	r3, #158	; 0x9e
    7302:	1a1b      	subs	r3, r3, r0
    7304:	2b96      	cmp	r3, #150	; 0x96
    7306:	dc0d      	bgt.n	7324 <__aeabi_i2f+0x38>
    7308:	2296      	movs	r2, #150	; 0x96
    730a:	1ad2      	subs	r2, r2, r3
    730c:	4094      	lsls	r4, r2
    730e:	002a      	movs	r2, r5
    7310:	0264      	lsls	r4, r4, #9
    7312:	0a64      	lsrs	r4, r4, #9
    7314:	b2db      	uxtb	r3, r3
    7316:	0264      	lsls	r4, r4, #9
    7318:	05db      	lsls	r3, r3, #23
    731a:	0a60      	lsrs	r0, r4, #9
    731c:	07d2      	lsls	r2, r2, #31
    731e:	4318      	orrs	r0, r3
    7320:	4310      	orrs	r0, r2
    7322:	bd70      	pop	{r4, r5, r6, pc}
    7324:	2b99      	cmp	r3, #153	; 0x99
    7326:	dc19      	bgt.n	735c <__aeabi_i2f+0x70>
    7328:	2299      	movs	r2, #153	; 0x99
    732a:	1ad2      	subs	r2, r2, r3
    732c:	2a00      	cmp	r2, #0
    732e:	dd29      	ble.n	7384 <__aeabi_i2f+0x98>
    7330:	4094      	lsls	r4, r2
    7332:	0022      	movs	r2, r4
    7334:	4c14      	ldr	r4, [pc, #80]	; (7388 <__aeabi_i2f+0x9c>)
    7336:	4014      	ands	r4, r2
    7338:	0751      	lsls	r1, r2, #29
    733a:	d004      	beq.n	7346 <__aeabi_i2f+0x5a>
    733c:	210f      	movs	r1, #15
    733e:	400a      	ands	r2, r1
    7340:	2a04      	cmp	r2, #4
    7342:	d000      	beq.n	7346 <__aeabi_i2f+0x5a>
    7344:	3404      	adds	r4, #4
    7346:	0162      	lsls	r2, r4, #5
    7348:	d413      	bmi.n	7372 <__aeabi_i2f+0x86>
    734a:	01a4      	lsls	r4, r4, #6
    734c:	0a64      	lsrs	r4, r4, #9
    734e:	b2db      	uxtb	r3, r3
    7350:	002a      	movs	r2, r5
    7352:	e7e0      	b.n	7316 <__aeabi_i2f+0x2a>
    7354:	2200      	movs	r2, #0
    7356:	2300      	movs	r3, #0
    7358:	2400      	movs	r4, #0
    735a:	e7dc      	b.n	7316 <__aeabi_i2f+0x2a>
    735c:	2205      	movs	r2, #5
    735e:	0021      	movs	r1, r4
    7360:	1a12      	subs	r2, r2, r0
    7362:	40d1      	lsrs	r1, r2
    7364:	22b9      	movs	r2, #185	; 0xb9
    7366:	1ad2      	subs	r2, r2, r3
    7368:	4094      	lsls	r4, r2
    736a:	1e62      	subs	r2, r4, #1
    736c:	4194      	sbcs	r4, r2
    736e:	430c      	orrs	r4, r1
    7370:	e7da      	b.n	7328 <__aeabi_i2f+0x3c>
    7372:	4b05      	ldr	r3, [pc, #20]	; (7388 <__aeabi_i2f+0x9c>)
    7374:	002a      	movs	r2, r5
    7376:	401c      	ands	r4, r3
    7378:	239f      	movs	r3, #159	; 0x9f
    737a:	01a4      	lsls	r4, r4, #6
    737c:	1a1b      	subs	r3, r3, r0
    737e:	0a64      	lsrs	r4, r4, #9
    7380:	b2db      	uxtb	r3, r3
    7382:	e7c8      	b.n	7316 <__aeabi_i2f+0x2a>
    7384:	0022      	movs	r2, r4
    7386:	e7d5      	b.n	7334 <__aeabi_i2f+0x48>
    7388:	fbffffff 	.word	0xfbffffff

0000738c <__aeabi_dadd>:
    738c:	b5f8      	push	{r3, r4, r5, r6, r7, lr}
    738e:	4645      	mov	r5, r8
    7390:	46de      	mov	lr, fp
    7392:	4657      	mov	r7, sl
    7394:	464e      	mov	r6, r9
    7396:	030c      	lsls	r4, r1, #12
    7398:	b5e0      	push	{r5, r6, r7, lr}
    739a:	004e      	lsls	r6, r1, #1
    739c:	0fc9      	lsrs	r1, r1, #31
    739e:	4688      	mov	r8, r1
    73a0:	000d      	movs	r5, r1
    73a2:	0a61      	lsrs	r1, r4, #9
    73a4:	0f44      	lsrs	r4, r0, #29
    73a6:	430c      	orrs	r4, r1
    73a8:	00c7      	lsls	r7, r0, #3
    73aa:	0319      	lsls	r1, r3, #12
    73ac:	0058      	lsls	r0, r3, #1
    73ae:	0fdb      	lsrs	r3, r3, #31
    73b0:	469b      	mov	fp, r3
    73b2:	0a4b      	lsrs	r3, r1, #9
    73b4:	0f51      	lsrs	r1, r2, #29
    73b6:	430b      	orrs	r3, r1
    73b8:	0d76      	lsrs	r6, r6, #21
    73ba:	0d40      	lsrs	r0, r0, #21
    73bc:	0019      	movs	r1, r3
    73be:	00d2      	lsls	r2, r2, #3
    73c0:	45d8      	cmp	r8, fp
    73c2:	d100      	bne.n	73c6 <__aeabi_dadd+0x3a>
    73c4:	e0ae      	b.n	7524 <__aeabi_dadd+0x198>
    73c6:	1a35      	subs	r5, r6, r0
    73c8:	2d00      	cmp	r5, #0
    73ca:	dc00      	bgt.n	73ce <__aeabi_dadd+0x42>
    73cc:	e0f6      	b.n	75bc <__aeabi_dadd+0x230>
    73ce:	2800      	cmp	r0, #0
    73d0:	d10f      	bne.n	73f2 <__aeabi_dadd+0x66>
    73d2:	4313      	orrs	r3, r2
    73d4:	d100      	bne.n	73d8 <__aeabi_dadd+0x4c>
    73d6:	e0db      	b.n	7590 <__aeabi_dadd+0x204>
    73d8:	1e6b      	subs	r3, r5, #1
    73da:	2b00      	cmp	r3, #0
    73dc:	d000      	beq.n	73e0 <__aeabi_dadd+0x54>
    73de:	e137      	b.n	7650 <__aeabi_dadd+0x2c4>
    73e0:	1aba      	subs	r2, r7, r2
    73e2:	4297      	cmp	r7, r2
    73e4:	41bf      	sbcs	r7, r7
    73e6:	1a64      	subs	r4, r4, r1
    73e8:	427f      	negs	r7, r7
    73ea:	1be4      	subs	r4, r4, r7
    73ec:	2601      	movs	r6, #1
    73ee:	0017      	movs	r7, r2
    73f0:	e024      	b.n	743c <__aeabi_dadd+0xb0>
    73f2:	4bc6      	ldr	r3, [pc, #792]	; (770c <__aeabi_dadd+0x380>)
    73f4:	429e      	cmp	r6, r3
    73f6:	d04d      	beq.n	7494 <__aeabi_dadd+0x108>
    73f8:	2380      	movs	r3, #128	; 0x80
    73fa:	041b      	lsls	r3, r3, #16
    73fc:	4319      	orrs	r1, r3
    73fe:	2d38      	cmp	r5, #56	; 0x38
    7400:	dd00      	ble.n	7404 <__aeabi_dadd+0x78>
    7402:	e107      	b.n	7614 <__aeabi_dadd+0x288>
    7404:	2d1f      	cmp	r5, #31
    7406:	dd00      	ble.n	740a <__aeabi_dadd+0x7e>
    7408:	e138      	b.n	767c <__aeabi_dadd+0x2f0>
    740a:	2020      	movs	r0, #32
    740c:	1b43      	subs	r3, r0, r5
    740e:	469a      	mov	sl, r3
    7410:	000b      	movs	r3, r1
    7412:	4650      	mov	r0, sl
    7414:	4083      	lsls	r3, r0
    7416:	4699      	mov	r9, r3
    7418:	0013      	movs	r3, r2
    741a:	4648      	mov	r0, r9
    741c:	40eb      	lsrs	r3, r5
    741e:	4318      	orrs	r0, r3
    7420:	0003      	movs	r3, r0
    7422:	4650      	mov	r0, sl
    7424:	4082      	lsls	r2, r0
    7426:	1e50      	subs	r0, r2, #1
    7428:	4182      	sbcs	r2, r0
    742a:	40e9      	lsrs	r1, r5
    742c:	431a      	orrs	r2, r3
    742e:	1aba      	subs	r2, r7, r2
    7430:	1a61      	subs	r1, r4, r1
    7432:	4297      	cmp	r7, r2
    7434:	41a4      	sbcs	r4, r4
    7436:	0017      	movs	r7, r2
    7438:	4264      	negs	r4, r4
    743a:	1b0c      	subs	r4, r1, r4
    743c:	0223      	lsls	r3, r4, #8
    743e:	d562      	bpl.n	7506 <__aeabi_dadd+0x17a>
    7440:	0264      	lsls	r4, r4, #9
    7442:	0a65      	lsrs	r5, r4, #9
    7444:	2d00      	cmp	r5, #0
    7446:	d100      	bne.n	744a <__aeabi_dadd+0xbe>
    7448:	e0df      	b.n	760a <__aeabi_dadd+0x27e>
    744a:	0028      	movs	r0, r5
    744c:	f001 fbe4 	bl	8c18 <__clzsi2>
    7450:	0003      	movs	r3, r0
    7452:	3b08      	subs	r3, #8
    7454:	2b1f      	cmp	r3, #31
    7456:	dd00      	ble.n	745a <__aeabi_dadd+0xce>
    7458:	e0d2      	b.n	7600 <__aeabi_dadd+0x274>
    745a:	2220      	movs	r2, #32
    745c:	003c      	movs	r4, r7
    745e:	1ad2      	subs	r2, r2, r3
    7460:	409d      	lsls	r5, r3
    7462:	40d4      	lsrs	r4, r2
    7464:	409f      	lsls	r7, r3
    7466:	4325      	orrs	r5, r4
    7468:	429e      	cmp	r6, r3
    746a:	dd00      	ble.n	746e <__aeabi_dadd+0xe2>
    746c:	e0c4      	b.n	75f8 <__aeabi_dadd+0x26c>
    746e:	1b9e      	subs	r6, r3, r6
    7470:	1c73      	adds	r3, r6, #1
    7472:	2b1f      	cmp	r3, #31
    7474:	dd00      	ble.n	7478 <__aeabi_dadd+0xec>
    7476:	e0f1      	b.n	765c <__aeabi_dadd+0x2d0>
    7478:	2220      	movs	r2, #32
    747a:	0038      	movs	r0, r7
    747c:	0029      	movs	r1, r5
    747e:	1ad2      	subs	r2, r2, r3
    7480:	40d8      	lsrs	r0, r3
    7482:	4091      	lsls	r1, r2
    7484:	4097      	lsls	r7, r2
    7486:	002c      	movs	r4, r5
    7488:	4301      	orrs	r1, r0
    748a:	1e78      	subs	r0, r7, #1
    748c:	4187      	sbcs	r7, r0
    748e:	40dc      	lsrs	r4, r3
    7490:	2600      	movs	r6, #0
    7492:	430f      	orrs	r7, r1
    7494:	077b      	lsls	r3, r7, #29
    7496:	d009      	beq.n	74ac <__aeabi_dadd+0x120>
    7498:	230f      	movs	r3, #15
    749a:	403b      	ands	r3, r7
    749c:	2b04      	cmp	r3, #4
    749e:	d005      	beq.n	74ac <__aeabi_dadd+0x120>
    74a0:	1d3b      	adds	r3, r7, #4
    74a2:	42bb      	cmp	r3, r7
    74a4:	41bf      	sbcs	r7, r7
    74a6:	427f      	negs	r7, r7
    74a8:	19e4      	adds	r4, r4, r7
    74aa:	001f      	movs	r7, r3
    74ac:	0223      	lsls	r3, r4, #8
    74ae:	d52c      	bpl.n	750a <__aeabi_dadd+0x17e>
    74b0:	4b96      	ldr	r3, [pc, #600]	; (770c <__aeabi_dadd+0x380>)
    74b2:	3601      	adds	r6, #1
    74b4:	429e      	cmp	r6, r3
    74b6:	d100      	bne.n	74ba <__aeabi_dadd+0x12e>
    74b8:	e09a      	b.n	75f0 <__aeabi_dadd+0x264>
    74ba:	4645      	mov	r5, r8
    74bc:	4b94      	ldr	r3, [pc, #592]	; (7710 <__aeabi_dadd+0x384>)
    74be:	08ff      	lsrs	r7, r7, #3
    74c0:	401c      	ands	r4, r3
    74c2:	0760      	lsls	r0, r4, #29
    74c4:	0576      	lsls	r6, r6, #21
    74c6:	0264      	lsls	r4, r4, #9
    74c8:	4307      	orrs	r7, r0
    74ca:	0b24      	lsrs	r4, r4, #12
    74cc:	0d76      	lsrs	r6, r6, #21
    74ce:	2100      	movs	r1, #0
    74d0:	0324      	lsls	r4, r4, #12
    74d2:	0b23      	lsrs	r3, r4, #12
    74d4:	0d0c      	lsrs	r4, r1, #20
    74d6:	4a8f      	ldr	r2, [pc, #572]	; (7714 <__aeabi_dadd+0x388>)
    74d8:	0524      	lsls	r4, r4, #20
    74da:	431c      	orrs	r4, r3
    74dc:	4014      	ands	r4, r2
    74de:	0533      	lsls	r3, r6, #20
    74e0:	4323      	orrs	r3, r4
    74e2:	005b      	lsls	r3, r3, #1
    74e4:	07ed      	lsls	r5, r5, #31
    74e6:	085b      	lsrs	r3, r3, #1
    74e8:	432b      	orrs	r3, r5
    74ea:	0038      	movs	r0, r7
    74ec:	0019      	movs	r1, r3
    74ee:	bc3c      	pop	{r2, r3, r4, r5}
    74f0:	4690      	mov	r8, r2
    74f2:	4699      	mov	r9, r3
    74f4:	46a2      	mov	sl, r4
    74f6:	46ab      	mov	fp, r5
    74f8:	bdf8      	pop	{r3, r4, r5, r6, r7, pc}
    74fa:	4664      	mov	r4, ip
    74fc:	4304      	orrs	r4, r0
    74fe:	d100      	bne.n	7502 <__aeabi_dadd+0x176>
    7500:	e211      	b.n	7926 <__aeabi_dadd+0x59a>
    7502:	0004      	movs	r4, r0
    7504:	4667      	mov	r7, ip
    7506:	077b      	lsls	r3, r7, #29
    7508:	d1c6      	bne.n	7498 <__aeabi_dadd+0x10c>
    750a:	4645      	mov	r5, r8
    750c:	0760      	lsls	r0, r4, #29
    750e:	08ff      	lsrs	r7, r7, #3
    7510:	4307      	orrs	r7, r0
    7512:	08e4      	lsrs	r4, r4, #3
    7514:	4b7d      	ldr	r3, [pc, #500]	; (770c <__aeabi_dadd+0x380>)
    7516:	429e      	cmp	r6, r3
    7518:	d030      	beq.n	757c <__aeabi_dadd+0x1f0>
    751a:	0324      	lsls	r4, r4, #12
    751c:	0576      	lsls	r6, r6, #21
    751e:	0b24      	lsrs	r4, r4, #12
    7520:	0d76      	lsrs	r6, r6, #21
    7522:	e7d4      	b.n	74ce <__aeabi_dadd+0x142>
    7524:	1a33      	subs	r3, r6, r0
    7526:	469a      	mov	sl, r3
    7528:	2b00      	cmp	r3, #0
    752a:	dd78      	ble.n	761e <__aeabi_dadd+0x292>
    752c:	2800      	cmp	r0, #0
    752e:	d031      	beq.n	7594 <__aeabi_dadd+0x208>
    7530:	4876      	ldr	r0, [pc, #472]	; (770c <__aeabi_dadd+0x380>)
    7532:	4286      	cmp	r6, r0
    7534:	d0ae      	beq.n	7494 <__aeabi_dadd+0x108>
    7536:	2080      	movs	r0, #128	; 0x80
    7538:	0400      	lsls	r0, r0, #16
    753a:	4301      	orrs	r1, r0
    753c:	4653      	mov	r3, sl
    753e:	2b38      	cmp	r3, #56	; 0x38
    7540:	dc00      	bgt.n	7544 <__aeabi_dadd+0x1b8>
    7542:	e0e9      	b.n	7718 <__aeabi_dadd+0x38c>
    7544:	430a      	orrs	r2, r1
    7546:	1e51      	subs	r1, r2, #1
    7548:	418a      	sbcs	r2, r1
    754a:	2100      	movs	r1, #0
    754c:	19d2      	adds	r2, r2, r7
    754e:	42ba      	cmp	r2, r7
    7550:	41bf      	sbcs	r7, r7
    7552:	1909      	adds	r1, r1, r4
    7554:	427c      	negs	r4, r7
    7556:	0017      	movs	r7, r2
    7558:	190c      	adds	r4, r1, r4
    755a:	0223      	lsls	r3, r4, #8
    755c:	d5d3      	bpl.n	7506 <__aeabi_dadd+0x17a>
    755e:	4b6b      	ldr	r3, [pc, #428]	; (770c <__aeabi_dadd+0x380>)
    7560:	3601      	adds	r6, #1
    7562:	429e      	cmp	r6, r3
    7564:	d100      	bne.n	7568 <__aeabi_dadd+0x1dc>
    7566:	e13a      	b.n	77de <__aeabi_dadd+0x452>
    7568:	2001      	movs	r0, #1
    756a:	4b69      	ldr	r3, [pc, #420]	; (7710 <__aeabi_dadd+0x384>)
    756c:	401c      	ands	r4, r3
    756e:	087b      	lsrs	r3, r7, #1
    7570:	4007      	ands	r7, r0
    7572:	431f      	orrs	r7, r3
    7574:	07e0      	lsls	r0, r4, #31
    7576:	4307      	orrs	r7, r0
    7578:	0864      	lsrs	r4, r4, #1
    757a:	e78b      	b.n	7494 <__aeabi_dadd+0x108>
    757c:	0023      	movs	r3, r4
    757e:	433b      	orrs	r3, r7
    7580:	d100      	bne.n	7584 <__aeabi_dadd+0x1f8>
    7582:	e1cb      	b.n	791c <__aeabi_dadd+0x590>
    7584:	2280      	movs	r2, #128	; 0x80
    7586:	0312      	lsls	r2, r2, #12
    7588:	4314      	orrs	r4, r2
    758a:	0324      	lsls	r4, r4, #12
    758c:	0b24      	lsrs	r4, r4, #12
    758e:	e79e      	b.n	74ce <__aeabi_dadd+0x142>
    7590:	002e      	movs	r6, r5
    7592:	e77f      	b.n	7494 <__aeabi_dadd+0x108>
    7594:	0008      	movs	r0, r1
    7596:	4310      	orrs	r0, r2
    7598:	d100      	bne.n	759c <__aeabi_dadd+0x210>
    759a:	e0b4      	b.n	7706 <__aeabi_dadd+0x37a>
    759c:	1e58      	subs	r0, r3, #1
    759e:	2800      	cmp	r0, #0
    75a0:	d000      	beq.n	75a4 <__aeabi_dadd+0x218>
    75a2:	e0de      	b.n	7762 <__aeabi_dadd+0x3d6>
    75a4:	18ba      	adds	r2, r7, r2
    75a6:	42ba      	cmp	r2, r7
    75a8:	419b      	sbcs	r3, r3
    75aa:	1864      	adds	r4, r4, r1
    75ac:	425b      	negs	r3, r3
    75ae:	18e4      	adds	r4, r4, r3
    75b0:	0017      	movs	r7, r2
    75b2:	2601      	movs	r6, #1
    75b4:	0223      	lsls	r3, r4, #8
    75b6:	d5a6      	bpl.n	7506 <__aeabi_dadd+0x17a>
    75b8:	2602      	movs	r6, #2
    75ba:	e7d5      	b.n	7568 <__aeabi_dadd+0x1dc>
    75bc:	2d00      	cmp	r5, #0
    75be:	d16e      	bne.n	769e <__aeabi_dadd+0x312>
    75c0:	1c70      	adds	r0, r6, #1
    75c2:	0540      	lsls	r0, r0, #21
    75c4:	0d40      	lsrs	r0, r0, #21
    75c6:	2801      	cmp	r0, #1
    75c8:	dc00      	bgt.n	75cc <__aeabi_dadd+0x240>
    75ca:	e0f9      	b.n	77c0 <__aeabi_dadd+0x434>
    75cc:	1ab8      	subs	r0, r7, r2
    75ce:	4684      	mov	ip, r0
    75d0:	4287      	cmp	r7, r0
    75d2:	4180      	sbcs	r0, r0
    75d4:	1ae5      	subs	r5, r4, r3
    75d6:	4240      	negs	r0, r0
    75d8:	1a2d      	subs	r5, r5, r0
    75da:	0228      	lsls	r0, r5, #8
    75dc:	d400      	bmi.n	75e0 <__aeabi_dadd+0x254>
    75de:	e089      	b.n	76f4 <__aeabi_dadd+0x368>
    75e0:	1bd7      	subs	r7, r2, r7
    75e2:	42ba      	cmp	r2, r7
    75e4:	4192      	sbcs	r2, r2
    75e6:	1b1c      	subs	r4, r3, r4
    75e8:	4252      	negs	r2, r2
    75ea:	1aa5      	subs	r5, r4, r2
    75ec:	46d8      	mov	r8, fp
    75ee:	e729      	b.n	7444 <__aeabi_dadd+0xb8>
    75f0:	4645      	mov	r5, r8
    75f2:	2400      	movs	r4, #0
    75f4:	2700      	movs	r7, #0
    75f6:	e76a      	b.n	74ce <__aeabi_dadd+0x142>
    75f8:	4c45      	ldr	r4, [pc, #276]	; (7710 <__aeabi_dadd+0x384>)
    75fa:	1af6      	subs	r6, r6, r3
    75fc:	402c      	ands	r4, r5
    75fe:	e749      	b.n	7494 <__aeabi_dadd+0x108>
    7600:	003d      	movs	r5, r7
    7602:	3828      	subs	r0, #40	; 0x28
    7604:	4085      	lsls	r5, r0
    7606:	2700      	movs	r7, #0
    7608:	e72e      	b.n	7468 <__aeabi_dadd+0xdc>
    760a:	0038      	movs	r0, r7
    760c:	f001 fb04 	bl	8c18 <__clzsi2>
    7610:	3020      	adds	r0, #32
    7612:	e71d      	b.n	7450 <__aeabi_dadd+0xc4>
    7614:	430a      	orrs	r2, r1
    7616:	1e51      	subs	r1, r2, #1
    7618:	418a      	sbcs	r2, r1
    761a:	2100      	movs	r1, #0
    761c:	e707      	b.n	742e <__aeabi_dadd+0xa2>
    761e:	2b00      	cmp	r3, #0
    7620:	d000      	beq.n	7624 <__aeabi_dadd+0x298>
    7622:	e0f3      	b.n	780c <__aeabi_dadd+0x480>
    7624:	1c70      	adds	r0, r6, #1
    7626:	0543      	lsls	r3, r0, #21
    7628:	0d5b      	lsrs	r3, r3, #21
    762a:	2b01      	cmp	r3, #1
    762c:	dc00      	bgt.n	7630 <__aeabi_dadd+0x2a4>
    762e:	e0ad      	b.n	778c <__aeabi_dadd+0x400>
    7630:	4b36      	ldr	r3, [pc, #216]	; (770c <__aeabi_dadd+0x380>)
    7632:	4298      	cmp	r0, r3
    7634:	d100      	bne.n	7638 <__aeabi_dadd+0x2ac>
    7636:	e0d1      	b.n	77dc <__aeabi_dadd+0x450>
    7638:	18ba      	adds	r2, r7, r2
    763a:	42ba      	cmp	r2, r7
    763c:	41bf      	sbcs	r7, r7
    763e:	1864      	adds	r4, r4, r1
    7640:	427f      	negs	r7, r7
    7642:	19e4      	adds	r4, r4, r7
    7644:	07e7      	lsls	r7, r4, #31
    7646:	0852      	lsrs	r2, r2, #1
    7648:	4317      	orrs	r7, r2
    764a:	0864      	lsrs	r4, r4, #1
    764c:	0006      	movs	r6, r0
    764e:	e721      	b.n	7494 <__aeabi_dadd+0x108>
    7650:	482e      	ldr	r0, [pc, #184]	; (770c <__aeabi_dadd+0x380>)
    7652:	4285      	cmp	r5, r0
    7654:	d100      	bne.n	7658 <__aeabi_dadd+0x2cc>
    7656:	e093      	b.n	7780 <__aeabi_dadd+0x3f4>
    7658:	001d      	movs	r5, r3
    765a:	e6d0      	b.n	73fe <__aeabi_dadd+0x72>
    765c:	0029      	movs	r1, r5
    765e:	3e1f      	subs	r6, #31
    7660:	40f1      	lsrs	r1, r6
    7662:	2b20      	cmp	r3, #32
    7664:	d100      	bne.n	7668 <__aeabi_dadd+0x2dc>
    7666:	e08d      	b.n	7784 <__aeabi_dadd+0x3f8>
    7668:	2240      	movs	r2, #64	; 0x40
    766a:	1ad3      	subs	r3, r2, r3
    766c:	409d      	lsls	r5, r3
    766e:	432f      	orrs	r7, r5
    7670:	1e7d      	subs	r5, r7, #1
    7672:	41af      	sbcs	r7, r5
    7674:	2400      	movs	r4, #0
    7676:	430f      	orrs	r7, r1
    7678:	2600      	movs	r6, #0
    767a:	e744      	b.n	7506 <__aeabi_dadd+0x17a>
    767c:	002b      	movs	r3, r5
    767e:	0008      	movs	r0, r1
    7680:	3b20      	subs	r3, #32
    7682:	40d8      	lsrs	r0, r3
    7684:	0003      	movs	r3, r0
    7686:	2d20      	cmp	r5, #32
    7688:	d100      	bne.n	768c <__aeabi_dadd+0x300>
    768a:	e07d      	b.n	7788 <__aeabi_dadd+0x3fc>
    768c:	2040      	movs	r0, #64	; 0x40
    768e:	1b45      	subs	r5, r0, r5
    7690:	40a9      	lsls	r1, r5
    7692:	430a      	orrs	r2, r1
    7694:	1e51      	subs	r1, r2, #1
    7696:	418a      	sbcs	r2, r1
    7698:	2100      	movs	r1, #0
    769a:	431a      	orrs	r2, r3
    769c:	e6c7      	b.n	742e <__aeabi_dadd+0xa2>
    769e:	2e00      	cmp	r6, #0
    76a0:	d050      	beq.n	7744 <__aeabi_dadd+0x3b8>
    76a2:	4e1a      	ldr	r6, [pc, #104]	; (770c <__aeabi_dadd+0x380>)
    76a4:	42b0      	cmp	r0, r6
    76a6:	d057      	beq.n	7758 <__aeabi_dadd+0x3cc>
    76a8:	2680      	movs	r6, #128	; 0x80
    76aa:	426b      	negs	r3, r5
    76ac:	4699      	mov	r9, r3
    76ae:	0436      	lsls	r6, r6, #16
    76b0:	4334      	orrs	r4, r6
    76b2:	464b      	mov	r3, r9
    76b4:	2b38      	cmp	r3, #56	; 0x38
    76b6:	dd00      	ble.n	76ba <__aeabi_dadd+0x32e>
    76b8:	e0d6      	b.n	7868 <__aeabi_dadd+0x4dc>
    76ba:	2b1f      	cmp	r3, #31
    76bc:	dd00      	ble.n	76c0 <__aeabi_dadd+0x334>
    76be:	e135      	b.n	792c <__aeabi_dadd+0x5a0>
    76c0:	2620      	movs	r6, #32
    76c2:	1af5      	subs	r5, r6, r3
    76c4:	0026      	movs	r6, r4
    76c6:	40ae      	lsls	r6, r5
    76c8:	46b2      	mov	sl, r6
    76ca:	003e      	movs	r6, r7
    76cc:	40de      	lsrs	r6, r3
    76ce:	46ac      	mov	ip, r5
    76d0:	0035      	movs	r5, r6
    76d2:	4656      	mov	r6, sl
    76d4:	432e      	orrs	r6, r5
    76d6:	4665      	mov	r5, ip
    76d8:	40af      	lsls	r7, r5
    76da:	1e7d      	subs	r5, r7, #1
    76dc:	41af      	sbcs	r7, r5
    76de:	40dc      	lsrs	r4, r3
    76e0:	4337      	orrs	r7, r6
    76e2:	1bd7      	subs	r7, r2, r7
    76e4:	42ba      	cmp	r2, r7
    76e6:	4192      	sbcs	r2, r2
    76e8:	1b0c      	subs	r4, r1, r4
    76ea:	4252      	negs	r2, r2
    76ec:	1aa4      	subs	r4, r4, r2
    76ee:	0006      	movs	r6, r0
    76f0:	46d8      	mov	r8, fp
    76f2:	e6a3      	b.n	743c <__aeabi_dadd+0xb0>
    76f4:	4664      	mov	r4, ip
    76f6:	4667      	mov	r7, ip
    76f8:	432c      	orrs	r4, r5
    76fa:	d000      	beq.n	76fe <__aeabi_dadd+0x372>
    76fc:	e6a2      	b.n	7444 <__aeabi_dadd+0xb8>
    76fe:	2500      	movs	r5, #0
    7700:	2600      	movs	r6, #0
    7702:	2700      	movs	r7, #0
    7704:	e706      	b.n	7514 <__aeabi_dadd+0x188>
    7706:	001e      	movs	r6, r3
    7708:	e6c4      	b.n	7494 <__aeabi_dadd+0x108>
    770a:	46c0      	nop			; (mov r8, r8)
    770c:	000007ff 	.word	0x000007ff
    7710:	ff7fffff 	.word	0xff7fffff
    7714:	800fffff 	.word	0x800fffff
    7718:	2b1f      	cmp	r3, #31
    771a:	dc63      	bgt.n	77e4 <__aeabi_dadd+0x458>
    771c:	2020      	movs	r0, #32
    771e:	1ac3      	subs	r3, r0, r3
    7720:	0008      	movs	r0, r1
    7722:	4098      	lsls	r0, r3
    7724:	469c      	mov	ip, r3
    7726:	4683      	mov	fp, r0
    7728:	4653      	mov	r3, sl
    772a:	0010      	movs	r0, r2
    772c:	40d8      	lsrs	r0, r3
    772e:	0003      	movs	r3, r0
    7730:	4658      	mov	r0, fp
    7732:	4318      	orrs	r0, r3
    7734:	4663      	mov	r3, ip
    7736:	409a      	lsls	r2, r3
    7738:	1e53      	subs	r3, r2, #1
    773a:	419a      	sbcs	r2, r3
    773c:	4653      	mov	r3, sl
    773e:	4302      	orrs	r2, r0
    7740:	40d9      	lsrs	r1, r3
    7742:	e703      	b.n	754c <__aeabi_dadd+0x1c0>
    7744:	0026      	movs	r6, r4
    7746:	433e      	orrs	r6, r7
    7748:	d006      	beq.n	7758 <__aeabi_dadd+0x3cc>
    774a:	43eb      	mvns	r3, r5
    774c:	4699      	mov	r9, r3
    774e:	2b00      	cmp	r3, #0
    7750:	d0c7      	beq.n	76e2 <__aeabi_dadd+0x356>
    7752:	4e94      	ldr	r6, [pc, #592]	; (79a4 <__aeabi_dadd+0x618>)
    7754:	42b0      	cmp	r0, r6
    7756:	d1ac      	bne.n	76b2 <__aeabi_dadd+0x326>
    7758:	000c      	movs	r4, r1
    775a:	0017      	movs	r7, r2
    775c:	0006      	movs	r6, r0
    775e:	46d8      	mov	r8, fp
    7760:	e698      	b.n	7494 <__aeabi_dadd+0x108>
    7762:	4b90      	ldr	r3, [pc, #576]	; (79a4 <__aeabi_dadd+0x618>)
    7764:	459a      	cmp	sl, r3
    7766:	d00b      	beq.n	7780 <__aeabi_dadd+0x3f4>
    7768:	4682      	mov	sl, r0
    776a:	e6e7      	b.n	753c <__aeabi_dadd+0x1b0>
    776c:	2800      	cmp	r0, #0
    776e:	d000      	beq.n	7772 <__aeabi_dadd+0x3e6>
    7770:	e09e      	b.n	78b0 <__aeabi_dadd+0x524>
    7772:	0018      	movs	r0, r3
    7774:	4310      	orrs	r0, r2
    7776:	d100      	bne.n	777a <__aeabi_dadd+0x3ee>
    7778:	e0e9      	b.n	794e <__aeabi_dadd+0x5c2>
    777a:	001c      	movs	r4, r3
    777c:	0017      	movs	r7, r2
    777e:	46d8      	mov	r8, fp
    7780:	4e88      	ldr	r6, [pc, #544]	; (79a4 <__aeabi_dadd+0x618>)
    7782:	e687      	b.n	7494 <__aeabi_dadd+0x108>
    7784:	2500      	movs	r5, #0
    7786:	e772      	b.n	766e <__aeabi_dadd+0x2e2>
    7788:	2100      	movs	r1, #0
    778a:	e782      	b.n	7692 <__aeabi_dadd+0x306>
    778c:	0023      	movs	r3, r4
    778e:	433b      	orrs	r3, r7
    7790:	2e00      	cmp	r6, #0
    7792:	d000      	beq.n	7796 <__aeabi_dadd+0x40a>
    7794:	e0ab      	b.n	78ee <__aeabi_dadd+0x562>
    7796:	2b00      	cmp	r3, #0
    7798:	d100      	bne.n	779c <__aeabi_dadd+0x410>
    779a:	e0e7      	b.n	796c <__aeabi_dadd+0x5e0>
    779c:	000b      	movs	r3, r1
    779e:	4313      	orrs	r3, r2
    77a0:	d100      	bne.n	77a4 <__aeabi_dadd+0x418>
    77a2:	e677      	b.n	7494 <__aeabi_dadd+0x108>
    77a4:	18ba      	adds	r2, r7, r2
    77a6:	42ba      	cmp	r2, r7
    77a8:	41bf      	sbcs	r7, r7
    77aa:	1864      	adds	r4, r4, r1
    77ac:	427f      	negs	r7, r7
    77ae:	19e4      	adds	r4, r4, r7
    77b0:	0223      	lsls	r3, r4, #8
    77b2:	d400      	bmi.n	77b6 <__aeabi_dadd+0x42a>
    77b4:	e0f2      	b.n	799c <__aeabi_dadd+0x610>
    77b6:	4b7c      	ldr	r3, [pc, #496]	; (79a8 <__aeabi_dadd+0x61c>)
    77b8:	0017      	movs	r7, r2
    77ba:	401c      	ands	r4, r3
    77bc:	0006      	movs	r6, r0
    77be:	e669      	b.n	7494 <__aeabi_dadd+0x108>
    77c0:	0020      	movs	r0, r4
    77c2:	4338      	orrs	r0, r7
    77c4:	2e00      	cmp	r6, #0
    77c6:	d1d1      	bne.n	776c <__aeabi_dadd+0x3e0>
    77c8:	2800      	cmp	r0, #0
    77ca:	d15b      	bne.n	7884 <__aeabi_dadd+0x4f8>
    77cc:	001c      	movs	r4, r3
    77ce:	4314      	orrs	r4, r2
    77d0:	d100      	bne.n	77d4 <__aeabi_dadd+0x448>
    77d2:	e0a8      	b.n	7926 <__aeabi_dadd+0x59a>
    77d4:	001c      	movs	r4, r3
    77d6:	0017      	movs	r7, r2
    77d8:	46d8      	mov	r8, fp
    77da:	e65b      	b.n	7494 <__aeabi_dadd+0x108>
    77dc:	0006      	movs	r6, r0
    77de:	2400      	movs	r4, #0
    77e0:	2700      	movs	r7, #0
    77e2:	e697      	b.n	7514 <__aeabi_dadd+0x188>
    77e4:	4650      	mov	r0, sl
    77e6:	000b      	movs	r3, r1
    77e8:	3820      	subs	r0, #32
    77ea:	40c3      	lsrs	r3, r0
    77ec:	4699      	mov	r9, r3
    77ee:	4653      	mov	r3, sl
    77f0:	2b20      	cmp	r3, #32
    77f2:	d100      	bne.n	77f6 <__aeabi_dadd+0x46a>
    77f4:	e095      	b.n	7922 <__aeabi_dadd+0x596>
    77f6:	2340      	movs	r3, #64	; 0x40
    77f8:	4650      	mov	r0, sl
    77fa:	1a1b      	subs	r3, r3, r0
    77fc:	4099      	lsls	r1, r3
    77fe:	430a      	orrs	r2, r1
    7800:	1e51      	subs	r1, r2, #1
    7802:	418a      	sbcs	r2, r1
    7804:	464b      	mov	r3, r9
    7806:	2100      	movs	r1, #0
    7808:	431a      	orrs	r2, r3
    780a:	e69f      	b.n	754c <__aeabi_dadd+0x1c0>
    780c:	2e00      	cmp	r6, #0
    780e:	d130      	bne.n	7872 <__aeabi_dadd+0x4e6>
    7810:	0026      	movs	r6, r4
    7812:	433e      	orrs	r6, r7
    7814:	d067      	beq.n	78e6 <__aeabi_dadd+0x55a>
    7816:	43db      	mvns	r3, r3
    7818:	469a      	mov	sl, r3
    781a:	2b00      	cmp	r3, #0
    781c:	d01c      	beq.n	7858 <__aeabi_dadd+0x4cc>
    781e:	4e61      	ldr	r6, [pc, #388]	; (79a4 <__aeabi_dadd+0x618>)
    7820:	42b0      	cmp	r0, r6
    7822:	d060      	beq.n	78e6 <__aeabi_dadd+0x55a>
    7824:	4653      	mov	r3, sl
    7826:	2b38      	cmp	r3, #56	; 0x38
    7828:	dd00      	ble.n	782c <__aeabi_dadd+0x4a0>
    782a:	e096      	b.n	795a <__aeabi_dadd+0x5ce>
    782c:	2b1f      	cmp	r3, #31
    782e:	dd00      	ble.n	7832 <__aeabi_dadd+0x4a6>
    7830:	e09f      	b.n	7972 <__aeabi_dadd+0x5e6>
    7832:	2620      	movs	r6, #32
    7834:	1af3      	subs	r3, r6, r3
    7836:	0026      	movs	r6, r4
    7838:	409e      	lsls	r6, r3
    783a:	469c      	mov	ip, r3
    783c:	46b3      	mov	fp, r6
    783e:	4653      	mov	r3, sl
    7840:	003e      	movs	r6, r7
    7842:	40de      	lsrs	r6, r3
    7844:	0033      	movs	r3, r6
    7846:	465e      	mov	r6, fp
    7848:	431e      	orrs	r6, r3
    784a:	4663      	mov	r3, ip
    784c:	409f      	lsls	r7, r3
    784e:	1e7b      	subs	r3, r7, #1
    7850:	419f      	sbcs	r7, r3
    7852:	4653      	mov	r3, sl
    7854:	40dc      	lsrs	r4, r3
    7856:	4337      	orrs	r7, r6
    7858:	18bf      	adds	r7, r7, r2
    785a:	4297      	cmp	r7, r2
    785c:	4192      	sbcs	r2, r2
    785e:	1864      	adds	r4, r4, r1
    7860:	4252      	negs	r2, r2
    7862:	18a4      	adds	r4, r4, r2
    7864:	0006      	movs	r6, r0
    7866:	e678      	b.n	755a <__aeabi_dadd+0x1ce>
    7868:	4327      	orrs	r7, r4
    786a:	1e7c      	subs	r4, r7, #1
    786c:	41a7      	sbcs	r7, r4
    786e:	2400      	movs	r4, #0
    7870:	e737      	b.n	76e2 <__aeabi_dadd+0x356>
    7872:	4e4c      	ldr	r6, [pc, #304]	; (79a4 <__aeabi_dadd+0x618>)
    7874:	42b0      	cmp	r0, r6
    7876:	d036      	beq.n	78e6 <__aeabi_dadd+0x55a>
    7878:	2680      	movs	r6, #128	; 0x80
    787a:	425b      	negs	r3, r3
    787c:	0436      	lsls	r6, r6, #16
    787e:	469a      	mov	sl, r3
    7880:	4334      	orrs	r4, r6
    7882:	e7cf      	b.n	7824 <__aeabi_dadd+0x498>
    7884:	0018      	movs	r0, r3
    7886:	4310      	orrs	r0, r2
    7888:	d100      	bne.n	788c <__aeabi_dadd+0x500>
    788a:	e603      	b.n	7494 <__aeabi_dadd+0x108>
    788c:	1ab8      	subs	r0, r7, r2
    788e:	4684      	mov	ip, r0
    7890:	4567      	cmp	r7, ip
    7892:	41ad      	sbcs	r5, r5
    7894:	1ae0      	subs	r0, r4, r3
    7896:	426d      	negs	r5, r5
    7898:	1b40      	subs	r0, r0, r5
    789a:	0205      	lsls	r5, r0, #8
    789c:	d400      	bmi.n	78a0 <__aeabi_dadd+0x514>
    789e:	e62c      	b.n	74fa <__aeabi_dadd+0x16e>
    78a0:	1bd7      	subs	r7, r2, r7
    78a2:	42ba      	cmp	r2, r7
    78a4:	4192      	sbcs	r2, r2
    78a6:	1b1c      	subs	r4, r3, r4
    78a8:	4252      	negs	r2, r2
    78aa:	1aa4      	subs	r4, r4, r2
    78ac:	46d8      	mov	r8, fp
    78ae:	e5f1      	b.n	7494 <__aeabi_dadd+0x108>
    78b0:	0018      	movs	r0, r3
    78b2:	4310      	orrs	r0, r2
    78b4:	d100      	bne.n	78b8 <__aeabi_dadd+0x52c>
    78b6:	e763      	b.n	7780 <__aeabi_dadd+0x3f4>
    78b8:	08f8      	lsrs	r0, r7, #3
    78ba:	0767      	lsls	r7, r4, #29
    78bc:	4307      	orrs	r7, r0
    78be:	2080      	movs	r0, #128	; 0x80
    78c0:	08e4      	lsrs	r4, r4, #3
    78c2:	0300      	lsls	r0, r0, #12
    78c4:	4204      	tst	r4, r0
    78c6:	d008      	beq.n	78da <__aeabi_dadd+0x54e>
    78c8:	08dd      	lsrs	r5, r3, #3
    78ca:	4205      	tst	r5, r0
    78cc:	d105      	bne.n	78da <__aeabi_dadd+0x54e>
    78ce:	08d2      	lsrs	r2, r2, #3
    78d0:	0759      	lsls	r1, r3, #29
    78d2:	4311      	orrs	r1, r2
    78d4:	000f      	movs	r7, r1
    78d6:	002c      	movs	r4, r5
    78d8:	46d8      	mov	r8, fp
    78da:	0f7b      	lsrs	r3, r7, #29
    78dc:	00e4      	lsls	r4, r4, #3
    78de:	431c      	orrs	r4, r3
    78e0:	00ff      	lsls	r7, r7, #3
    78e2:	4e30      	ldr	r6, [pc, #192]	; (79a4 <__aeabi_dadd+0x618>)
    78e4:	e5d6      	b.n	7494 <__aeabi_dadd+0x108>
    78e6:	000c      	movs	r4, r1
    78e8:	0017      	movs	r7, r2
    78ea:	0006      	movs	r6, r0
    78ec:	e5d2      	b.n	7494 <__aeabi_dadd+0x108>
    78ee:	2b00      	cmp	r3, #0
    78f0:	d038      	beq.n	7964 <__aeabi_dadd+0x5d8>
    78f2:	000b      	movs	r3, r1
    78f4:	4313      	orrs	r3, r2
    78f6:	d100      	bne.n	78fa <__aeabi_dadd+0x56e>
    78f8:	e742      	b.n	7780 <__aeabi_dadd+0x3f4>
    78fa:	08f8      	lsrs	r0, r7, #3
    78fc:	0767      	lsls	r7, r4, #29
    78fe:	4307      	orrs	r7, r0
    7900:	2080      	movs	r0, #128	; 0x80
    7902:	08e4      	lsrs	r4, r4, #3
    7904:	0300      	lsls	r0, r0, #12
    7906:	4204      	tst	r4, r0
    7908:	d0e7      	beq.n	78da <__aeabi_dadd+0x54e>
    790a:	08cb      	lsrs	r3, r1, #3
    790c:	4203      	tst	r3, r0
    790e:	d1e4      	bne.n	78da <__aeabi_dadd+0x54e>
    7910:	08d2      	lsrs	r2, r2, #3
    7912:	0749      	lsls	r1, r1, #29
    7914:	4311      	orrs	r1, r2
    7916:	000f      	movs	r7, r1
    7918:	001c      	movs	r4, r3
    791a:	e7de      	b.n	78da <__aeabi_dadd+0x54e>
    791c:	2700      	movs	r7, #0
    791e:	2400      	movs	r4, #0
    7920:	e5d5      	b.n	74ce <__aeabi_dadd+0x142>
    7922:	2100      	movs	r1, #0
    7924:	e76b      	b.n	77fe <__aeabi_dadd+0x472>
    7926:	2500      	movs	r5, #0
    7928:	2700      	movs	r7, #0
    792a:	e5f3      	b.n	7514 <__aeabi_dadd+0x188>
    792c:	464e      	mov	r6, r9
    792e:	0025      	movs	r5, r4
    7930:	3e20      	subs	r6, #32
    7932:	40f5      	lsrs	r5, r6
    7934:	464b      	mov	r3, r9
    7936:	002e      	movs	r6, r5
    7938:	2b20      	cmp	r3, #32
    793a:	d02d      	beq.n	7998 <__aeabi_dadd+0x60c>
    793c:	2540      	movs	r5, #64	; 0x40
    793e:	1aed      	subs	r5, r5, r3
    7940:	40ac      	lsls	r4, r5
    7942:	4327      	orrs	r7, r4
    7944:	1e7c      	subs	r4, r7, #1
    7946:	41a7      	sbcs	r7, r4
    7948:	2400      	movs	r4, #0
    794a:	4337      	orrs	r7, r6
    794c:	e6c9      	b.n	76e2 <__aeabi_dadd+0x356>
    794e:	2480      	movs	r4, #128	; 0x80
    7950:	2500      	movs	r5, #0
    7952:	0324      	lsls	r4, r4, #12
    7954:	4e13      	ldr	r6, [pc, #76]	; (79a4 <__aeabi_dadd+0x618>)
    7956:	2700      	movs	r7, #0
    7958:	e5dc      	b.n	7514 <__aeabi_dadd+0x188>
    795a:	4327      	orrs	r7, r4
    795c:	1e7c      	subs	r4, r7, #1
    795e:	41a7      	sbcs	r7, r4
    7960:	2400      	movs	r4, #0
    7962:	e779      	b.n	7858 <__aeabi_dadd+0x4cc>
    7964:	000c      	movs	r4, r1
    7966:	0017      	movs	r7, r2
    7968:	4e0e      	ldr	r6, [pc, #56]	; (79a4 <__aeabi_dadd+0x618>)
    796a:	e593      	b.n	7494 <__aeabi_dadd+0x108>
    796c:	000c      	movs	r4, r1
    796e:	0017      	movs	r7, r2
    7970:	e590      	b.n	7494 <__aeabi_dadd+0x108>
    7972:	4656      	mov	r6, sl
    7974:	0023      	movs	r3, r4
    7976:	3e20      	subs	r6, #32
    7978:	40f3      	lsrs	r3, r6
    797a:	4699      	mov	r9, r3
    797c:	4653      	mov	r3, sl
    797e:	2b20      	cmp	r3, #32
    7980:	d00e      	beq.n	79a0 <__aeabi_dadd+0x614>
    7982:	2340      	movs	r3, #64	; 0x40
    7984:	4656      	mov	r6, sl
    7986:	1b9b      	subs	r3, r3, r6
    7988:	409c      	lsls	r4, r3
    798a:	4327      	orrs	r7, r4
    798c:	1e7c      	subs	r4, r7, #1
    798e:	41a7      	sbcs	r7, r4
    7990:	464b      	mov	r3, r9
    7992:	2400      	movs	r4, #0
    7994:	431f      	orrs	r7, r3
    7996:	e75f      	b.n	7858 <__aeabi_dadd+0x4cc>
    7998:	2400      	movs	r4, #0
    799a:	e7d2      	b.n	7942 <__aeabi_dadd+0x5b6>
    799c:	0017      	movs	r7, r2
    799e:	e5b2      	b.n	7506 <__aeabi_dadd+0x17a>
    79a0:	2400      	movs	r4, #0
    79a2:	e7f2      	b.n	798a <__aeabi_dadd+0x5fe>
    79a4:	000007ff 	.word	0x000007ff
    79a8:	ff7fffff 	.word	0xff7fffff

000079ac <__aeabi_ddiv>:
    79ac:	b5f0      	push	{r4, r5, r6, r7, lr}
    79ae:	4657      	mov	r7, sl
    79b0:	4645      	mov	r5, r8
    79b2:	46de      	mov	lr, fp
    79b4:	464e      	mov	r6, r9
    79b6:	b5e0      	push	{r5, r6, r7, lr}
    79b8:	004c      	lsls	r4, r1, #1
    79ba:	030e      	lsls	r6, r1, #12
    79bc:	b087      	sub	sp, #28
    79be:	4683      	mov	fp, r0
    79c0:	4692      	mov	sl, r2
    79c2:	001d      	movs	r5, r3
    79c4:	4680      	mov	r8, r0
    79c6:	0b36      	lsrs	r6, r6, #12
    79c8:	0d64      	lsrs	r4, r4, #21
    79ca:	0fcf      	lsrs	r7, r1, #31
    79cc:	2c00      	cmp	r4, #0
    79ce:	d04f      	beq.n	7a70 <__aeabi_ddiv+0xc4>
    79d0:	4b6f      	ldr	r3, [pc, #444]	; (7b90 <__aeabi_ddiv+0x1e4>)
    79d2:	429c      	cmp	r4, r3
    79d4:	d035      	beq.n	7a42 <__aeabi_ddiv+0x96>
    79d6:	2380      	movs	r3, #128	; 0x80
    79d8:	0f42      	lsrs	r2, r0, #29
    79da:	041b      	lsls	r3, r3, #16
    79dc:	00f6      	lsls	r6, r6, #3
    79de:	4313      	orrs	r3, r2
    79e0:	4333      	orrs	r3, r6
    79e2:	4699      	mov	r9, r3
    79e4:	00c3      	lsls	r3, r0, #3
    79e6:	4698      	mov	r8, r3
    79e8:	4b6a      	ldr	r3, [pc, #424]	; (7b94 <__aeabi_ddiv+0x1e8>)
    79ea:	2600      	movs	r6, #0
    79ec:	469c      	mov	ip, r3
    79ee:	2300      	movs	r3, #0
    79f0:	4464      	add	r4, ip
    79f2:	9303      	str	r3, [sp, #12]
    79f4:	032b      	lsls	r3, r5, #12
    79f6:	0b1b      	lsrs	r3, r3, #12
    79f8:	469b      	mov	fp, r3
    79fa:	006b      	lsls	r3, r5, #1
    79fc:	0fed      	lsrs	r5, r5, #31
    79fe:	4650      	mov	r0, sl
    7a00:	0d5b      	lsrs	r3, r3, #21
    7a02:	9501      	str	r5, [sp, #4]
    7a04:	d05e      	beq.n	7ac4 <__aeabi_ddiv+0x118>
    7a06:	4a62      	ldr	r2, [pc, #392]	; (7b90 <__aeabi_ddiv+0x1e4>)
    7a08:	4293      	cmp	r3, r2
    7a0a:	d053      	beq.n	7ab4 <__aeabi_ddiv+0x108>
    7a0c:	465a      	mov	r2, fp
    7a0e:	00d1      	lsls	r1, r2, #3
    7a10:	2280      	movs	r2, #128	; 0x80
    7a12:	0f40      	lsrs	r0, r0, #29
    7a14:	0412      	lsls	r2, r2, #16
    7a16:	4302      	orrs	r2, r0
    7a18:	430a      	orrs	r2, r1
    7a1a:	4693      	mov	fp, r2
    7a1c:	4652      	mov	r2, sl
    7a1e:	00d1      	lsls	r1, r2, #3
    7a20:	4a5c      	ldr	r2, [pc, #368]	; (7b94 <__aeabi_ddiv+0x1e8>)
    7a22:	4694      	mov	ip, r2
    7a24:	2200      	movs	r2, #0
    7a26:	4463      	add	r3, ip
    7a28:	0038      	movs	r0, r7
    7a2a:	4068      	eors	r0, r5
    7a2c:	4684      	mov	ip, r0
    7a2e:	9002      	str	r0, [sp, #8]
    7a30:	1ae4      	subs	r4, r4, r3
    7a32:	4316      	orrs	r6, r2
    7a34:	2e0f      	cmp	r6, #15
    7a36:	d900      	bls.n	7a3a <__aeabi_ddiv+0x8e>
    7a38:	e0b4      	b.n	7ba4 <__aeabi_ddiv+0x1f8>
    7a3a:	4b57      	ldr	r3, [pc, #348]	; (7b98 <__aeabi_ddiv+0x1ec>)
    7a3c:	00b6      	lsls	r6, r6, #2
    7a3e:	599b      	ldr	r3, [r3, r6]
    7a40:	469f      	mov	pc, r3
    7a42:	0003      	movs	r3, r0
    7a44:	4333      	orrs	r3, r6
    7a46:	4699      	mov	r9, r3
    7a48:	d16c      	bne.n	7b24 <__aeabi_ddiv+0x178>
    7a4a:	2300      	movs	r3, #0
    7a4c:	4698      	mov	r8, r3
    7a4e:	3302      	adds	r3, #2
    7a50:	2608      	movs	r6, #8
    7a52:	9303      	str	r3, [sp, #12]
    7a54:	e7ce      	b.n	79f4 <__aeabi_ddiv+0x48>
    7a56:	46cb      	mov	fp, r9
    7a58:	4641      	mov	r1, r8
    7a5a:	9a03      	ldr	r2, [sp, #12]
    7a5c:	9701      	str	r7, [sp, #4]
    7a5e:	2a02      	cmp	r2, #2
    7a60:	d165      	bne.n	7b2e <__aeabi_ddiv+0x182>
    7a62:	9b01      	ldr	r3, [sp, #4]
    7a64:	4c4a      	ldr	r4, [pc, #296]	; (7b90 <__aeabi_ddiv+0x1e4>)
    7a66:	469c      	mov	ip, r3
    7a68:	2300      	movs	r3, #0
    7a6a:	2200      	movs	r2, #0
    7a6c:	4698      	mov	r8, r3
    7a6e:	e06b      	b.n	7b48 <__aeabi_ddiv+0x19c>
    7a70:	0003      	movs	r3, r0
    7a72:	4333      	orrs	r3, r6
    7a74:	4699      	mov	r9, r3
    7a76:	d04e      	beq.n	7b16 <__aeabi_ddiv+0x16a>
    7a78:	2e00      	cmp	r6, #0
    7a7a:	d100      	bne.n	7a7e <__aeabi_ddiv+0xd2>
    7a7c:	e1bc      	b.n	7df8 <__aeabi_ddiv+0x44c>
    7a7e:	0030      	movs	r0, r6
    7a80:	f001 f8ca 	bl	8c18 <__clzsi2>
    7a84:	0003      	movs	r3, r0
    7a86:	3b0b      	subs	r3, #11
    7a88:	2b1c      	cmp	r3, #28
    7a8a:	dd00      	ble.n	7a8e <__aeabi_ddiv+0xe2>
    7a8c:	e1ac      	b.n	7de8 <__aeabi_ddiv+0x43c>
    7a8e:	221d      	movs	r2, #29
    7a90:	1ad3      	subs	r3, r2, r3
    7a92:	465a      	mov	r2, fp
    7a94:	0001      	movs	r1, r0
    7a96:	40da      	lsrs	r2, r3
    7a98:	3908      	subs	r1, #8
    7a9a:	408e      	lsls	r6, r1
    7a9c:	0013      	movs	r3, r2
    7a9e:	4333      	orrs	r3, r6
    7aa0:	4699      	mov	r9, r3
    7aa2:	465b      	mov	r3, fp
    7aa4:	408b      	lsls	r3, r1
    7aa6:	4698      	mov	r8, r3
    7aa8:	2300      	movs	r3, #0
    7aaa:	4c3c      	ldr	r4, [pc, #240]	; (7b9c <__aeabi_ddiv+0x1f0>)
    7aac:	2600      	movs	r6, #0
    7aae:	1a24      	subs	r4, r4, r0
    7ab0:	9303      	str	r3, [sp, #12]
    7ab2:	e79f      	b.n	79f4 <__aeabi_ddiv+0x48>
    7ab4:	4651      	mov	r1, sl
    7ab6:	465a      	mov	r2, fp
    7ab8:	4311      	orrs	r1, r2
    7aba:	d129      	bne.n	7b10 <__aeabi_ddiv+0x164>
    7abc:	2200      	movs	r2, #0
    7abe:	4693      	mov	fp, r2
    7ac0:	3202      	adds	r2, #2
    7ac2:	e7b1      	b.n	7a28 <__aeabi_ddiv+0x7c>
    7ac4:	4659      	mov	r1, fp
    7ac6:	4301      	orrs	r1, r0
    7ac8:	d01e      	beq.n	7b08 <__aeabi_ddiv+0x15c>
    7aca:	465b      	mov	r3, fp
    7acc:	2b00      	cmp	r3, #0
    7ace:	d100      	bne.n	7ad2 <__aeabi_ddiv+0x126>
    7ad0:	e19e      	b.n	7e10 <__aeabi_ddiv+0x464>
    7ad2:	4658      	mov	r0, fp
    7ad4:	f001 f8a0 	bl	8c18 <__clzsi2>
    7ad8:	0003      	movs	r3, r0
    7ada:	3b0b      	subs	r3, #11
    7adc:	2b1c      	cmp	r3, #28
    7ade:	dd00      	ble.n	7ae2 <__aeabi_ddiv+0x136>
    7ae0:	e18f      	b.n	7e02 <__aeabi_ddiv+0x456>
    7ae2:	0002      	movs	r2, r0
    7ae4:	4659      	mov	r1, fp
    7ae6:	3a08      	subs	r2, #8
    7ae8:	4091      	lsls	r1, r2
    7aea:	468b      	mov	fp, r1
    7aec:	211d      	movs	r1, #29
    7aee:	1acb      	subs	r3, r1, r3
    7af0:	4651      	mov	r1, sl
    7af2:	40d9      	lsrs	r1, r3
    7af4:	000b      	movs	r3, r1
    7af6:	4659      	mov	r1, fp
    7af8:	430b      	orrs	r3, r1
    7afa:	4651      	mov	r1, sl
    7afc:	469b      	mov	fp, r3
    7afe:	4091      	lsls	r1, r2
    7b00:	4b26      	ldr	r3, [pc, #152]	; (7b9c <__aeabi_ddiv+0x1f0>)
    7b02:	2200      	movs	r2, #0
    7b04:	1a1b      	subs	r3, r3, r0
    7b06:	e78f      	b.n	7a28 <__aeabi_ddiv+0x7c>
    7b08:	2300      	movs	r3, #0
    7b0a:	2201      	movs	r2, #1
    7b0c:	469b      	mov	fp, r3
    7b0e:	e78b      	b.n	7a28 <__aeabi_ddiv+0x7c>
    7b10:	4651      	mov	r1, sl
    7b12:	2203      	movs	r2, #3
    7b14:	e788      	b.n	7a28 <__aeabi_ddiv+0x7c>
    7b16:	2300      	movs	r3, #0
    7b18:	4698      	mov	r8, r3
    7b1a:	3301      	adds	r3, #1
    7b1c:	2604      	movs	r6, #4
    7b1e:	2400      	movs	r4, #0
    7b20:	9303      	str	r3, [sp, #12]
    7b22:	e767      	b.n	79f4 <__aeabi_ddiv+0x48>
    7b24:	2303      	movs	r3, #3
    7b26:	46b1      	mov	r9, r6
    7b28:	9303      	str	r3, [sp, #12]
    7b2a:	260c      	movs	r6, #12
    7b2c:	e762      	b.n	79f4 <__aeabi_ddiv+0x48>
    7b2e:	2a03      	cmp	r2, #3
    7b30:	d100      	bne.n	7b34 <__aeabi_ddiv+0x188>
    7b32:	e25c      	b.n	7fee <__aeabi_ddiv+0x642>
    7b34:	9b01      	ldr	r3, [sp, #4]
    7b36:	2a01      	cmp	r2, #1
    7b38:	d000      	beq.n	7b3c <__aeabi_ddiv+0x190>
    7b3a:	e1e4      	b.n	7f06 <__aeabi_ddiv+0x55a>
    7b3c:	4013      	ands	r3, r2
    7b3e:	469c      	mov	ip, r3
    7b40:	2300      	movs	r3, #0
    7b42:	2400      	movs	r4, #0
    7b44:	2200      	movs	r2, #0
    7b46:	4698      	mov	r8, r3
    7b48:	2100      	movs	r1, #0
    7b4a:	0312      	lsls	r2, r2, #12
    7b4c:	0b13      	lsrs	r3, r2, #12
    7b4e:	0d0a      	lsrs	r2, r1, #20
    7b50:	0512      	lsls	r2, r2, #20
    7b52:	431a      	orrs	r2, r3
    7b54:	0523      	lsls	r3, r4, #20
    7b56:	4c12      	ldr	r4, [pc, #72]	; (7ba0 <__aeabi_ddiv+0x1f4>)
    7b58:	4640      	mov	r0, r8
    7b5a:	4022      	ands	r2, r4
    7b5c:	4313      	orrs	r3, r2
    7b5e:	4662      	mov	r2, ip
    7b60:	005b      	lsls	r3, r3, #1
    7b62:	07d2      	lsls	r2, r2, #31
    7b64:	085b      	lsrs	r3, r3, #1
    7b66:	4313      	orrs	r3, r2
    7b68:	0019      	movs	r1, r3
    7b6a:	b007      	add	sp, #28
    7b6c:	bc3c      	pop	{r2, r3, r4, r5}
    7b6e:	4690      	mov	r8, r2
    7b70:	4699      	mov	r9, r3
    7b72:	46a2      	mov	sl, r4
    7b74:	46ab      	mov	fp, r5
    7b76:	bdf0      	pop	{r4, r5, r6, r7, pc}
    7b78:	2300      	movs	r3, #0
    7b7a:	2280      	movs	r2, #128	; 0x80
    7b7c:	469c      	mov	ip, r3
    7b7e:	0312      	lsls	r2, r2, #12
    7b80:	4698      	mov	r8, r3
    7b82:	4c03      	ldr	r4, [pc, #12]	; (7b90 <__aeabi_ddiv+0x1e4>)
    7b84:	e7e0      	b.n	7b48 <__aeabi_ddiv+0x19c>
    7b86:	2300      	movs	r3, #0
    7b88:	4c01      	ldr	r4, [pc, #4]	; (7b90 <__aeabi_ddiv+0x1e4>)
    7b8a:	2200      	movs	r2, #0
    7b8c:	4698      	mov	r8, r3
    7b8e:	e7db      	b.n	7b48 <__aeabi_ddiv+0x19c>
    7b90:	000007ff 	.word	0x000007ff
    7b94:	fffffc01 	.word	0xfffffc01
    7b98:	0000aa20 	.word	0x0000aa20
    7b9c:	fffffc0d 	.word	0xfffffc0d
    7ba0:	800fffff 	.word	0x800fffff
    7ba4:	45d9      	cmp	r9, fp
    7ba6:	d900      	bls.n	7baa <__aeabi_ddiv+0x1fe>
    7ba8:	e139      	b.n	7e1e <__aeabi_ddiv+0x472>
    7baa:	d100      	bne.n	7bae <__aeabi_ddiv+0x202>
    7bac:	e134      	b.n	7e18 <__aeabi_ddiv+0x46c>
    7bae:	2300      	movs	r3, #0
    7bb0:	4646      	mov	r6, r8
    7bb2:	464d      	mov	r5, r9
    7bb4:	469a      	mov	sl, r3
    7bb6:	3c01      	subs	r4, #1
    7bb8:	465b      	mov	r3, fp
    7bba:	0e0a      	lsrs	r2, r1, #24
    7bbc:	021b      	lsls	r3, r3, #8
    7bbe:	431a      	orrs	r2, r3
    7bc0:	020b      	lsls	r3, r1, #8
    7bc2:	0c17      	lsrs	r7, r2, #16
    7bc4:	9303      	str	r3, [sp, #12]
    7bc6:	0413      	lsls	r3, r2, #16
    7bc8:	0c1b      	lsrs	r3, r3, #16
    7bca:	0039      	movs	r1, r7
    7bcc:	0028      	movs	r0, r5
    7bce:	4690      	mov	r8, r2
    7bd0:	9301      	str	r3, [sp, #4]
    7bd2:	f7ff f995 	bl	6f00 <__udivsi3>
    7bd6:	0002      	movs	r2, r0
    7bd8:	9b01      	ldr	r3, [sp, #4]
    7bda:	4683      	mov	fp, r0
    7bdc:	435a      	muls	r2, r3
    7bde:	0028      	movs	r0, r5
    7be0:	0039      	movs	r1, r7
    7be2:	4691      	mov	r9, r2
    7be4:	f7ff fa12 	bl	700c <__aeabi_uidivmod>
    7be8:	0c35      	lsrs	r5, r6, #16
    7bea:	0409      	lsls	r1, r1, #16
    7bec:	430d      	orrs	r5, r1
    7bee:	45a9      	cmp	r9, r5
    7bf0:	d90d      	bls.n	7c0e <__aeabi_ddiv+0x262>
    7bf2:	465b      	mov	r3, fp
    7bf4:	4445      	add	r5, r8
    7bf6:	3b01      	subs	r3, #1
    7bf8:	45a8      	cmp	r8, r5
    7bfa:	d900      	bls.n	7bfe <__aeabi_ddiv+0x252>
    7bfc:	e13a      	b.n	7e74 <__aeabi_ddiv+0x4c8>
    7bfe:	45a9      	cmp	r9, r5
    7c00:	d800      	bhi.n	7c04 <__aeabi_ddiv+0x258>
    7c02:	e137      	b.n	7e74 <__aeabi_ddiv+0x4c8>
    7c04:	2302      	movs	r3, #2
    7c06:	425b      	negs	r3, r3
    7c08:	469c      	mov	ip, r3
    7c0a:	4445      	add	r5, r8
    7c0c:	44e3      	add	fp, ip
    7c0e:	464b      	mov	r3, r9
    7c10:	1aeb      	subs	r3, r5, r3
    7c12:	0039      	movs	r1, r7
    7c14:	0018      	movs	r0, r3
    7c16:	9304      	str	r3, [sp, #16]
    7c18:	f7ff f972 	bl	6f00 <__udivsi3>
    7c1c:	9b01      	ldr	r3, [sp, #4]
    7c1e:	0005      	movs	r5, r0
    7c20:	4343      	muls	r3, r0
    7c22:	0039      	movs	r1, r7
    7c24:	9804      	ldr	r0, [sp, #16]
    7c26:	4699      	mov	r9, r3
    7c28:	f7ff f9f0 	bl	700c <__aeabi_uidivmod>
    7c2c:	0433      	lsls	r3, r6, #16
    7c2e:	0409      	lsls	r1, r1, #16
    7c30:	0c1b      	lsrs	r3, r3, #16
    7c32:	430b      	orrs	r3, r1
    7c34:	4599      	cmp	r9, r3
    7c36:	d909      	bls.n	7c4c <__aeabi_ddiv+0x2a0>
    7c38:	4443      	add	r3, r8
    7c3a:	1e6a      	subs	r2, r5, #1
    7c3c:	4598      	cmp	r8, r3
    7c3e:	d900      	bls.n	7c42 <__aeabi_ddiv+0x296>
    7c40:	e11a      	b.n	7e78 <__aeabi_ddiv+0x4cc>
    7c42:	4599      	cmp	r9, r3
    7c44:	d800      	bhi.n	7c48 <__aeabi_ddiv+0x29c>
    7c46:	e117      	b.n	7e78 <__aeabi_ddiv+0x4cc>
    7c48:	3d02      	subs	r5, #2
    7c4a:	4443      	add	r3, r8
    7c4c:	464a      	mov	r2, r9
    7c4e:	1a9b      	subs	r3, r3, r2
    7c50:	465a      	mov	r2, fp
    7c52:	0412      	lsls	r2, r2, #16
    7c54:	432a      	orrs	r2, r5
    7c56:	9903      	ldr	r1, [sp, #12]
    7c58:	4693      	mov	fp, r2
    7c5a:	0c10      	lsrs	r0, r2, #16
    7c5c:	0c0a      	lsrs	r2, r1, #16
    7c5e:	4691      	mov	r9, r2
    7c60:	0409      	lsls	r1, r1, #16
    7c62:	465a      	mov	r2, fp
    7c64:	0c09      	lsrs	r1, r1, #16
    7c66:	464e      	mov	r6, r9
    7c68:	000d      	movs	r5, r1
    7c6a:	0412      	lsls	r2, r2, #16
    7c6c:	0c12      	lsrs	r2, r2, #16
    7c6e:	4345      	muls	r5, r0
    7c70:	9105      	str	r1, [sp, #20]
    7c72:	4351      	muls	r1, r2
    7c74:	4372      	muls	r2, r6
    7c76:	4370      	muls	r0, r6
    7c78:	1952      	adds	r2, r2, r5
    7c7a:	0c0e      	lsrs	r6, r1, #16
    7c7c:	18b2      	adds	r2, r6, r2
    7c7e:	4295      	cmp	r5, r2
    7c80:	d903      	bls.n	7c8a <__aeabi_ddiv+0x2de>
    7c82:	2580      	movs	r5, #128	; 0x80
    7c84:	026d      	lsls	r5, r5, #9
    7c86:	46ac      	mov	ip, r5
    7c88:	4460      	add	r0, ip
    7c8a:	0c15      	lsrs	r5, r2, #16
    7c8c:	0409      	lsls	r1, r1, #16
    7c8e:	0412      	lsls	r2, r2, #16
    7c90:	0c09      	lsrs	r1, r1, #16
    7c92:	1828      	adds	r0, r5, r0
    7c94:	1852      	adds	r2, r2, r1
    7c96:	4283      	cmp	r3, r0
    7c98:	d200      	bcs.n	7c9c <__aeabi_ddiv+0x2f0>
    7c9a:	e0ce      	b.n	7e3a <__aeabi_ddiv+0x48e>
    7c9c:	d100      	bne.n	7ca0 <__aeabi_ddiv+0x2f4>
    7c9e:	e0c8      	b.n	7e32 <__aeabi_ddiv+0x486>
    7ca0:	1a1d      	subs	r5, r3, r0
    7ca2:	4653      	mov	r3, sl
    7ca4:	1a9e      	subs	r6, r3, r2
    7ca6:	45b2      	cmp	sl, r6
    7ca8:	4192      	sbcs	r2, r2
    7caa:	4252      	negs	r2, r2
    7cac:	1aab      	subs	r3, r5, r2
    7cae:	469a      	mov	sl, r3
    7cb0:	4598      	cmp	r8, r3
    7cb2:	d100      	bne.n	7cb6 <__aeabi_ddiv+0x30a>
    7cb4:	e117      	b.n	7ee6 <__aeabi_ddiv+0x53a>
    7cb6:	0039      	movs	r1, r7
    7cb8:	0018      	movs	r0, r3
    7cba:	f7ff f921 	bl	6f00 <__udivsi3>
    7cbe:	9b01      	ldr	r3, [sp, #4]
    7cc0:	0005      	movs	r5, r0
    7cc2:	4343      	muls	r3, r0
    7cc4:	0039      	movs	r1, r7
    7cc6:	4650      	mov	r0, sl
    7cc8:	9304      	str	r3, [sp, #16]
    7cca:	f7ff f99f 	bl	700c <__aeabi_uidivmod>
    7cce:	9804      	ldr	r0, [sp, #16]
    7cd0:	040b      	lsls	r3, r1, #16
    7cd2:	0c31      	lsrs	r1, r6, #16
    7cd4:	4319      	orrs	r1, r3
    7cd6:	4288      	cmp	r0, r1
    7cd8:	d909      	bls.n	7cee <__aeabi_ddiv+0x342>
    7cda:	4441      	add	r1, r8
    7cdc:	1e6b      	subs	r3, r5, #1
    7cde:	4588      	cmp	r8, r1
    7ce0:	d900      	bls.n	7ce4 <__aeabi_ddiv+0x338>
    7ce2:	e107      	b.n	7ef4 <__aeabi_ddiv+0x548>
    7ce4:	4288      	cmp	r0, r1
    7ce6:	d800      	bhi.n	7cea <__aeabi_ddiv+0x33e>
    7ce8:	e104      	b.n	7ef4 <__aeabi_ddiv+0x548>
    7cea:	3d02      	subs	r5, #2
    7cec:	4441      	add	r1, r8
    7cee:	9b04      	ldr	r3, [sp, #16]
    7cf0:	1acb      	subs	r3, r1, r3
    7cf2:	0018      	movs	r0, r3
    7cf4:	0039      	movs	r1, r7
    7cf6:	9304      	str	r3, [sp, #16]
    7cf8:	f7ff f902 	bl	6f00 <__udivsi3>
    7cfc:	9b01      	ldr	r3, [sp, #4]
    7cfe:	4682      	mov	sl, r0
    7d00:	4343      	muls	r3, r0
    7d02:	0039      	movs	r1, r7
    7d04:	9804      	ldr	r0, [sp, #16]
    7d06:	9301      	str	r3, [sp, #4]
    7d08:	f7ff f980 	bl	700c <__aeabi_uidivmod>
    7d0c:	9801      	ldr	r0, [sp, #4]
    7d0e:	040b      	lsls	r3, r1, #16
    7d10:	0431      	lsls	r1, r6, #16
    7d12:	0c09      	lsrs	r1, r1, #16
    7d14:	4319      	orrs	r1, r3
    7d16:	4288      	cmp	r0, r1
    7d18:	d90d      	bls.n	7d36 <__aeabi_ddiv+0x38a>
    7d1a:	4653      	mov	r3, sl
    7d1c:	4441      	add	r1, r8
    7d1e:	3b01      	subs	r3, #1
    7d20:	4588      	cmp	r8, r1
    7d22:	d900      	bls.n	7d26 <__aeabi_ddiv+0x37a>
    7d24:	e0e8      	b.n	7ef8 <__aeabi_ddiv+0x54c>
    7d26:	4288      	cmp	r0, r1
    7d28:	d800      	bhi.n	7d2c <__aeabi_ddiv+0x380>
    7d2a:	e0e5      	b.n	7ef8 <__aeabi_ddiv+0x54c>
    7d2c:	2302      	movs	r3, #2
    7d2e:	425b      	negs	r3, r3
    7d30:	469c      	mov	ip, r3
    7d32:	4441      	add	r1, r8
    7d34:	44e2      	add	sl, ip
    7d36:	9b01      	ldr	r3, [sp, #4]
    7d38:	042d      	lsls	r5, r5, #16
    7d3a:	1ace      	subs	r6, r1, r3
    7d3c:	4651      	mov	r1, sl
    7d3e:	4329      	orrs	r1, r5
    7d40:	9d05      	ldr	r5, [sp, #20]
    7d42:	464f      	mov	r7, r9
    7d44:	002a      	movs	r2, r5
    7d46:	040b      	lsls	r3, r1, #16
    7d48:	0c08      	lsrs	r0, r1, #16
    7d4a:	0c1b      	lsrs	r3, r3, #16
    7d4c:	435a      	muls	r2, r3
    7d4e:	4345      	muls	r5, r0
    7d50:	437b      	muls	r3, r7
    7d52:	4378      	muls	r0, r7
    7d54:	195b      	adds	r3, r3, r5
    7d56:	0c17      	lsrs	r7, r2, #16
    7d58:	18fb      	adds	r3, r7, r3
    7d5a:	429d      	cmp	r5, r3
    7d5c:	d903      	bls.n	7d66 <__aeabi_ddiv+0x3ba>
    7d5e:	2580      	movs	r5, #128	; 0x80
    7d60:	026d      	lsls	r5, r5, #9
    7d62:	46ac      	mov	ip, r5
    7d64:	4460      	add	r0, ip
    7d66:	0c1d      	lsrs	r5, r3, #16
    7d68:	0412      	lsls	r2, r2, #16
    7d6a:	041b      	lsls	r3, r3, #16
    7d6c:	0c12      	lsrs	r2, r2, #16
    7d6e:	1828      	adds	r0, r5, r0
    7d70:	189b      	adds	r3, r3, r2
    7d72:	4286      	cmp	r6, r0
    7d74:	d200      	bcs.n	7d78 <__aeabi_ddiv+0x3cc>
    7d76:	e093      	b.n	7ea0 <__aeabi_ddiv+0x4f4>
    7d78:	d100      	bne.n	7d7c <__aeabi_ddiv+0x3d0>
    7d7a:	e08e      	b.n	7e9a <__aeabi_ddiv+0x4ee>
    7d7c:	2301      	movs	r3, #1
    7d7e:	4319      	orrs	r1, r3
    7d80:	4ba0      	ldr	r3, [pc, #640]	; (8004 <__aeabi_ddiv+0x658>)
    7d82:	18e3      	adds	r3, r4, r3
    7d84:	2b00      	cmp	r3, #0
    7d86:	dc00      	bgt.n	7d8a <__aeabi_ddiv+0x3de>
    7d88:	e099      	b.n	7ebe <__aeabi_ddiv+0x512>
    7d8a:	074a      	lsls	r2, r1, #29
    7d8c:	d000      	beq.n	7d90 <__aeabi_ddiv+0x3e4>
    7d8e:	e09e      	b.n	7ece <__aeabi_ddiv+0x522>
    7d90:	465a      	mov	r2, fp
    7d92:	01d2      	lsls	r2, r2, #7
    7d94:	d506      	bpl.n	7da4 <__aeabi_ddiv+0x3f8>
    7d96:	465a      	mov	r2, fp
    7d98:	4b9b      	ldr	r3, [pc, #620]	; (8008 <__aeabi_ddiv+0x65c>)
    7d9a:	401a      	ands	r2, r3
    7d9c:	2380      	movs	r3, #128	; 0x80
    7d9e:	4693      	mov	fp, r2
    7da0:	00db      	lsls	r3, r3, #3
    7da2:	18e3      	adds	r3, r4, r3
    7da4:	4a99      	ldr	r2, [pc, #612]	; (800c <__aeabi_ddiv+0x660>)
    7da6:	4293      	cmp	r3, r2
    7da8:	dd68      	ble.n	7e7c <__aeabi_ddiv+0x4d0>
    7daa:	2301      	movs	r3, #1
    7dac:	9a02      	ldr	r2, [sp, #8]
    7dae:	4c98      	ldr	r4, [pc, #608]	; (8010 <__aeabi_ddiv+0x664>)
    7db0:	401a      	ands	r2, r3
    7db2:	2300      	movs	r3, #0
    7db4:	4694      	mov	ip, r2
    7db6:	4698      	mov	r8, r3
    7db8:	2200      	movs	r2, #0
    7dba:	e6c5      	b.n	7b48 <__aeabi_ddiv+0x19c>
    7dbc:	2280      	movs	r2, #128	; 0x80
    7dbe:	464b      	mov	r3, r9
    7dc0:	0312      	lsls	r2, r2, #12
    7dc2:	4213      	tst	r3, r2
    7dc4:	d00a      	beq.n	7ddc <__aeabi_ddiv+0x430>
    7dc6:	465b      	mov	r3, fp
    7dc8:	4213      	tst	r3, r2
    7dca:	d106      	bne.n	7dda <__aeabi_ddiv+0x42e>
    7dcc:	431a      	orrs	r2, r3
    7dce:	0312      	lsls	r2, r2, #12
    7dd0:	0b12      	lsrs	r2, r2, #12
    7dd2:	46ac      	mov	ip, r5
    7dd4:	4688      	mov	r8, r1
    7dd6:	4c8e      	ldr	r4, [pc, #568]	; (8010 <__aeabi_ddiv+0x664>)
    7dd8:	e6b6      	b.n	7b48 <__aeabi_ddiv+0x19c>
    7dda:	464b      	mov	r3, r9
    7ddc:	431a      	orrs	r2, r3
    7dde:	0312      	lsls	r2, r2, #12
    7de0:	0b12      	lsrs	r2, r2, #12
    7de2:	46bc      	mov	ip, r7
    7de4:	4c8a      	ldr	r4, [pc, #552]	; (8010 <__aeabi_ddiv+0x664>)
    7de6:	e6af      	b.n	7b48 <__aeabi_ddiv+0x19c>
    7de8:	0003      	movs	r3, r0
    7dea:	465a      	mov	r2, fp
    7dec:	3b28      	subs	r3, #40	; 0x28
    7dee:	409a      	lsls	r2, r3
    7df0:	2300      	movs	r3, #0
    7df2:	4691      	mov	r9, r2
    7df4:	4698      	mov	r8, r3
    7df6:	e657      	b.n	7aa8 <__aeabi_ddiv+0xfc>
    7df8:	4658      	mov	r0, fp
    7dfa:	f000 ff0d 	bl	8c18 <__clzsi2>
    7dfe:	3020      	adds	r0, #32
    7e00:	e640      	b.n	7a84 <__aeabi_ddiv+0xd8>
    7e02:	0003      	movs	r3, r0
    7e04:	4652      	mov	r2, sl
    7e06:	3b28      	subs	r3, #40	; 0x28
    7e08:	409a      	lsls	r2, r3
    7e0a:	2100      	movs	r1, #0
    7e0c:	4693      	mov	fp, r2
    7e0e:	e677      	b.n	7b00 <__aeabi_ddiv+0x154>
    7e10:	f000 ff02 	bl	8c18 <__clzsi2>
    7e14:	3020      	adds	r0, #32
    7e16:	e65f      	b.n	7ad8 <__aeabi_ddiv+0x12c>
    7e18:	4588      	cmp	r8, r1
    7e1a:	d200      	bcs.n	7e1e <__aeabi_ddiv+0x472>
    7e1c:	e6c7      	b.n	7bae <__aeabi_ddiv+0x202>
    7e1e:	464b      	mov	r3, r9
    7e20:	07de      	lsls	r6, r3, #31
    7e22:	085d      	lsrs	r5, r3, #1
    7e24:	4643      	mov	r3, r8
    7e26:	085b      	lsrs	r3, r3, #1
    7e28:	431e      	orrs	r6, r3
    7e2a:	4643      	mov	r3, r8
    7e2c:	07db      	lsls	r3, r3, #31
    7e2e:	469a      	mov	sl, r3
    7e30:	e6c2      	b.n	7bb8 <__aeabi_ddiv+0x20c>
    7e32:	2500      	movs	r5, #0
    7e34:	4592      	cmp	sl, r2
    7e36:	d300      	bcc.n	7e3a <__aeabi_ddiv+0x48e>
    7e38:	e733      	b.n	7ca2 <__aeabi_ddiv+0x2f6>
    7e3a:	9e03      	ldr	r6, [sp, #12]
    7e3c:	4659      	mov	r1, fp
    7e3e:	46b4      	mov	ip, r6
    7e40:	44e2      	add	sl, ip
    7e42:	45b2      	cmp	sl, r6
    7e44:	41ad      	sbcs	r5, r5
    7e46:	426d      	negs	r5, r5
    7e48:	4445      	add	r5, r8
    7e4a:	18eb      	adds	r3, r5, r3
    7e4c:	3901      	subs	r1, #1
    7e4e:	4598      	cmp	r8, r3
    7e50:	d207      	bcs.n	7e62 <__aeabi_ddiv+0x4b6>
    7e52:	4298      	cmp	r0, r3
    7e54:	d900      	bls.n	7e58 <__aeabi_ddiv+0x4ac>
    7e56:	e07f      	b.n	7f58 <__aeabi_ddiv+0x5ac>
    7e58:	d100      	bne.n	7e5c <__aeabi_ddiv+0x4b0>
    7e5a:	e0bc      	b.n	7fd6 <__aeabi_ddiv+0x62a>
    7e5c:	1a1d      	subs	r5, r3, r0
    7e5e:	468b      	mov	fp, r1
    7e60:	e71f      	b.n	7ca2 <__aeabi_ddiv+0x2f6>
    7e62:	4598      	cmp	r8, r3
    7e64:	d1fa      	bne.n	7e5c <__aeabi_ddiv+0x4b0>
    7e66:	9d03      	ldr	r5, [sp, #12]
    7e68:	4555      	cmp	r5, sl
    7e6a:	d9f2      	bls.n	7e52 <__aeabi_ddiv+0x4a6>
    7e6c:	4643      	mov	r3, r8
    7e6e:	468b      	mov	fp, r1
    7e70:	1a1d      	subs	r5, r3, r0
    7e72:	e716      	b.n	7ca2 <__aeabi_ddiv+0x2f6>
    7e74:	469b      	mov	fp, r3
    7e76:	e6ca      	b.n	7c0e <__aeabi_ddiv+0x262>
    7e78:	0015      	movs	r5, r2
    7e7a:	e6e7      	b.n	7c4c <__aeabi_ddiv+0x2a0>
    7e7c:	465a      	mov	r2, fp
    7e7e:	08c9      	lsrs	r1, r1, #3
    7e80:	0752      	lsls	r2, r2, #29
    7e82:	430a      	orrs	r2, r1
    7e84:	055b      	lsls	r3, r3, #21
    7e86:	4690      	mov	r8, r2
    7e88:	0d5c      	lsrs	r4, r3, #21
    7e8a:	465a      	mov	r2, fp
    7e8c:	2301      	movs	r3, #1
    7e8e:	9902      	ldr	r1, [sp, #8]
    7e90:	0252      	lsls	r2, r2, #9
    7e92:	4019      	ands	r1, r3
    7e94:	0b12      	lsrs	r2, r2, #12
    7e96:	468c      	mov	ip, r1
    7e98:	e656      	b.n	7b48 <__aeabi_ddiv+0x19c>
    7e9a:	2b00      	cmp	r3, #0
    7e9c:	d100      	bne.n	7ea0 <__aeabi_ddiv+0x4f4>
    7e9e:	e76f      	b.n	7d80 <__aeabi_ddiv+0x3d4>
    7ea0:	4446      	add	r6, r8
    7ea2:	1e4a      	subs	r2, r1, #1
    7ea4:	45b0      	cmp	r8, r6
    7ea6:	d929      	bls.n	7efc <__aeabi_ddiv+0x550>
    7ea8:	0011      	movs	r1, r2
    7eaa:	4286      	cmp	r6, r0
    7eac:	d000      	beq.n	7eb0 <__aeabi_ddiv+0x504>
    7eae:	e765      	b.n	7d7c <__aeabi_ddiv+0x3d0>
    7eb0:	9a03      	ldr	r2, [sp, #12]
    7eb2:	4293      	cmp	r3, r2
    7eb4:	d000      	beq.n	7eb8 <__aeabi_ddiv+0x50c>
    7eb6:	e761      	b.n	7d7c <__aeabi_ddiv+0x3d0>
    7eb8:	e762      	b.n	7d80 <__aeabi_ddiv+0x3d4>
    7eba:	2101      	movs	r1, #1
    7ebc:	4249      	negs	r1, r1
    7ebe:	2001      	movs	r0, #1
    7ec0:	1ac2      	subs	r2, r0, r3
    7ec2:	2a38      	cmp	r2, #56	; 0x38
    7ec4:	dd21      	ble.n	7f0a <__aeabi_ddiv+0x55e>
    7ec6:	9b02      	ldr	r3, [sp, #8]
    7ec8:	4003      	ands	r3, r0
    7eca:	469c      	mov	ip, r3
    7ecc:	e638      	b.n	7b40 <__aeabi_ddiv+0x194>
    7ece:	220f      	movs	r2, #15
    7ed0:	400a      	ands	r2, r1
    7ed2:	2a04      	cmp	r2, #4
    7ed4:	d100      	bne.n	7ed8 <__aeabi_ddiv+0x52c>
    7ed6:	e75b      	b.n	7d90 <__aeabi_ddiv+0x3e4>
    7ed8:	000a      	movs	r2, r1
    7eda:	1d11      	adds	r1, r2, #4
    7edc:	4291      	cmp	r1, r2
    7ede:	4192      	sbcs	r2, r2
    7ee0:	4252      	negs	r2, r2
    7ee2:	4493      	add	fp, r2
    7ee4:	e754      	b.n	7d90 <__aeabi_ddiv+0x3e4>
    7ee6:	4b47      	ldr	r3, [pc, #284]	; (8004 <__aeabi_ddiv+0x658>)
    7ee8:	18e3      	adds	r3, r4, r3
    7eea:	2b00      	cmp	r3, #0
    7eec:	dde5      	ble.n	7eba <__aeabi_ddiv+0x50e>
    7eee:	2201      	movs	r2, #1
    7ef0:	4252      	negs	r2, r2
    7ef2:	e7f2      	b.n	7eda <__aeabi_ddiv+0x52e>
    7ef4:	001d      	movs	r5, r3
    7ef6:	e6fa      	b.n	7cee <__aeabi_ddiv+0x342>
    7ef8:	469a      	mov	sl, r3
    7efa:	e71c      	b.n	7d36 <__aeabi_ddiv+0x38a>
    7efc:	42b0      	cmp	r0, r6
    7efe:	d839      	bhi.n	7f74 <__aeabi_ddiv+0x5c8>
    7f00:	d06e      	beq.n	7fe0 <__aeabi_ddiv+0x634>
    7f02:	0011      	movs	r1, r2
    7f04:	e73a      	b.n	7d7c <__aeabi_ddiv+0x3d0>
    7f06:	9302      	str	r3, [sp, #8]
    7f08:	e73a      	b.n	7d80 <__aeabi_ddiv+0x3d4>
    7f0a:	2a1f      	cmp	r2, #31
    7f0c:	dc3c      	bgt.n	7f88 <__aeabi_ddiv+0x5dc>
    7f0e:	2320      	movs	r3, #32
    7f10:	1a9b      	subs	r3, r3, r2
    7f12:	000c      	movs	r4, r1
    7f14:	4658      	mov	r0, fp
    7f16:	4099      	lsls	r1, r3
    7f18:	4098      	lsls	r0, r3
    7f1a:	1e4b      	subs	r3, r1, #1
    7f1c:	4199      	sbcs	r1, r3
    7f1e:	465b      	mov	r3, fp
    7f20:	40d4      	lsrs	r4, r2
    7f22:	40d3      	lsrs	r3, r2
    7f24:	4320      	orrs	r0, r4
    7f26:	4308      	orrs	r0, r1
    7f28:	001a      	movs	r2, r3
    7f2a:	0743      	lsls	r3, r0, #29
    7f2c:	d009      	beq.n	7f42 <__aeabi_ddiv+0x596>
    7f2e:	230f      	movs	r3, #15
    7f30:	4003      	ands	r3, r0
    7f32:	2b04      	cmp	r3, #4
    7f34:	d005      	beq.n	7f42 <__aeabi_ddiv+0x596>
    7f36:	0001      	movs	r1, r0
    7f38:	1d08      	adds	r0, r1, #4
    7f3a:	4288      	cmp	r0, r1
    7f3c:	419b      	sbcs	r3, r3
    7f3e:	425b      	negs	r3, r3
    7f40:	18d2      	adds	r2, r2, r3
    7f42:	0213      	lsls	r3, r2, #8
    7f44:	d53a      	bpl.n	7fbc <__aeabi_ddiv+0x610>
    7f46:	2301      	movs	r3, #1
    7f48:	9a02      	ldr	r2, [sp, #8]
    7f4a:	2401      	movs	r4, #1
    7f4c:	401a      	ands	r2, r3
    7f4e:	2300      	movs	r3, #0
    7f50:	4694      	mov	ip, r2
    7f52:	4698      	mov	r8, r3
    7f54:	2200      	movs	r2, #0
    7f56:	e5f7      	b.n	7b48 <__aeabi_ddiv+0x19c>
    7f58:	2102      	movs	r1, #2
    7f5a:	4249      	negs	r1, r1
    7f5c:	468c      	mov	ip, r1
    7f5e:	9d03      	ldr	r5, [sp, #12]
    7f60:	44e3      	add	fp, ip
    7f62:	46ac      	mov	ip, r5
    7f64:	44e2      	add	sl, ip
    7f66:	45aa      	cmp	sl, r5
    7f68:	41ad      	sbcs	r5, r5
    7f6a:	426d      	negs	r5, r5
    7f6c:	4445      	add	r5, r8
    7f6e:	18ed      	adds	r5, r5, r3
    7f70:	1a2d      	subs	r5, r5, r0
    7f72:	e696      	b.n	7ca2 <__aeabi_ddiv+0x2f6>
    7f74:	1e8a      	subs	r2, r1, #2
    7f76:	9903      	ldr	r1, [sp, #12]
    7f78:	004d      	lsls	r5, r1, #1
    7f7a:	428d      	cmp	r5, r1
    7f7c:	4189      	sbcs	r1, r1
    7f7e:	4249      	negs	r1, r1
    7f80:	4441      	add	r1, r8
    7f82:	1876      	adds	r6, r6, r1
    7f84:	9503      	str	r5, [sp, #12]
    7f86:	e78f      	b.n	7ea8 <__aeabi_ddiv+0x4fc>
    7f88:	201f      	movs	r0, #31
    7f8a:	4240      	negs	r0, r0
    7f8c:	1ac3      	subs	r3, r0, r3
    7f8e:	4658      	mov	r0, fp
    7f90:	40d8      	lsrs	r0, r3
    7f92:	0003      	movs	r3, r0
    7f94:	2a20      	cmp	r2, #32
    7f96:	d028      	beq.n	7fea <__aeabi_ddiv+0x63e>
    7f98:	2040      	movs	r0, #64	; 0x40
    7f9a:	465d      	mov	r5, fp
    7f9c:	1a82      	subs	r2, r0, r2
    7f9e:	4095      	lsls	r5, r2
    7fa0:	4329      	orrs	r1, r5
    7fa2:	1e4a      	subs	r2, r1, #1
    7fa4:	4191      	sbcs	r1, r2
    7fa6:	4319      	orrs	r1, r3
    7fa8:	2307      	movs	r3, #7
    7faa:	2200      	movs	r2, #0
    7fac:	400b      	ands	r3, r1
    7fae:	d009      	beq.n	7fc4 <__aeabi_ddiv+0x618>
    7fb0:	230f      	movs	r3, #15
    7fb2:	2200      	movs	r2, #0
    7fb4:	400b      	ands	r3, r1
    7fb6:	0008      	movs	r0, r1
    7fb8:	2b04      	cmp	r3, #4
    7fba:	d1bd      	bne.n	7f38 <__aeabi_ddiv+0x58c>
    7fbc:	0001      	movs	r1, r0
    7fbe:	0753      	lsls	r3, r2, #29
    7fc0:	0252      	lsls	r2, r2, #9
    7fc2:	0b12      	lsrs	r2, r2, #12
    7fc4:	08c9      	lsrs	r1, r1, #3
    7fc6:	4319      	orrs	r1, r3
    7fc8:	2301      	movs	r3, #1
    7fca:	4688      	mov	r8, r1
    7fcc:	9902      	ldr	r1, [sp, #8]
    7fce:	2400      	movs	r4, #0
    7fd0:	4019      	ands	r1, r3
    7fd2:	468c      	mov	ip, r1
    7fd4:	e5b8      	b.n	7b48 <__aeabi_ddiv+0x19c>
    7fd6:	4552      	cmp	r2, sl
    7fd8:	d8be      	bhi.n	7f58 <__aeabi_ddiv+0x5ac>
    7fda:	468b      	mov	fp, r1
    7fdc:	2500      	movs	r5, #0
    7fde:	e660      	b.n	7ca2 <__aeabi_ddiv+0x2f6>
    7fe0:	9d03      	ldr	r5, [sp, #12]
    7fe2:	429d      	cmp	r5, r3
    7fe4:	d3c6      	bcc.n	7f74 <__aeabi_ddiv+0x5c8>
    7fe6:	0011      	movs	r1, r2
    7fe8:	e762      	b.n	7eb0 <__aeabi_ddiv+0x504>
    7fea:	2500      	movs	r5, #0
    7fec:	e7d8      	b.n	7fa0 <__aeabi_ddiv+0x5f4>
    7fee:	2280      	movs	r2, #128	; 0x80
    7ff0:	465b      	mov	r3, fp
    7ff2:	0312      	lsls	r2, r2, #12
    7ff4:	431a      	orrs	r2, r3
    7ff6:	9b01      	ldr	r3, [sp, #4]
    7ff8:	0312      	lsls	r2, r2, #12
    7ffa:	0b12      	lsrs	r2, r2, #12
    7ffc:	469c      	mov	ip, r3
    7ffe:	4688      	mov	r8, r1
    8000:	4c03      	ldr	r4, [pc, #12]	; (8010 <__aeabi_ddiv+0x664>)
    8002:	e5a1      	b.n	7b48 <__aeabi_ddiv+0x19c>
    8004:	000003ff 	.word	0x000003ff
    8008:	feffffff 	.word	0xfeffffff
    800c:	000007fe 	.word	0x000007fe
    8010:	000007ff 	.word	0x000007ff

00008014 <__aeabi_dmul>:
    8014:	b5f0      	push	{r4, r5, r6, r7, lr}
    8016:	4657      	mov	r7, sl
    8018:	4645      	mov	r5, r8
    801a:	46de      	mov	lr, fp
    801c:	464e      	mov	r6, r9
    801e:	b5e0      	push	{r5, r6, r7, lr}
    8020:	030c      	lsls	r4, r1, #12
    8022:	4698      	mov	r8, r3
    8024:	004e      	lsls	r6, r1, #1
    8026:	0b23      	lsrs	r3, r4, #12
    8028:	b087      	sub	sp, #28
    802a:	0007      	movs	r7, r0
    802c:	4692      	mov	sl, r2
    802e:	469b      	mov	fp, r3
    8030:	0d76      	lsrs	r6, r6, #21
    8032:	0fcd      	lsrs	r5, r1, #31
    8034:	2e00      	cmp	r6, #0
    8036:	d06b      	beq.n	8110 <__aeabi_dmul+0xfc>
    8038:	4b6d      	ldr	r3, [pc, #436]	; (81f0 <__aeabi_dmul+0x1dc>)
    803a:	429e      	cmp	r6, r3
    803c:	d035      	beq.n	80aa <__aeabi_dmul+0x96>
    803e:	2480      	movs	r4, #128	; 0x80
    8040:	465b      	mov	r3, fp
    8042:	0f42      	lsrs	r2, r0, #29
    8044:	0424      	lsls	r4, r4, #16
    8046:	00db      	lsls	r3, r3, #3
    8048:	4314      	orrs	r4, r2
    804a:	431c      	orrs	r4, r3
    804c:	00c3      	lsls	r3, r0, #3
    804e:	4699      	mov	r9, r3
    8050:	4b68      	ldr	r3, [pc, #416]	; (81f4 <__aeabi_dmul+0x1e0>)
    8052:	46a3      	mov	fp, r4
    8054:	469c      	mov	ip, r3
    8056:	2300      	movs	r3, #0
    8058:	2700      	movs	r7, #0
    805a:	4466      	add	r6, ip
    805c:	9302      	str	r3, [sp, #8]
    805e:	4643      	mov	r3, r8
    8060:	031c      	lsls	r4, r3, #12
    8062:	005a      	lsls	r2, r3, #1
    8064:	0fdb      	lsrs	r3, r3, #31
    8066:	4650      	mov	r0, sl
    8068:	0b24      	lsrs	r4, r4, #12
    806a:	0d52      	lsrs	r2, r2, #21
    806c:	4698      	mov	r8, r3
    806e:	d100      	bne.n	8072 <__aeabi_dmul+0x5e>
    8070:	e076      	b.n	8160 <__aeabi_dmul+0x14c>
    8072:	4b5f      	ldr	r3, [pc, #380]	; (81f0 <__aeabi_dmul+0x1dc>)
    8074:	429a      	cmp	r2, r3
    8076:	d06d      	beq.n	8154 <__aeabi_dmul+0x140>
    8078:	2380      	movs	r3, #128	; 0x80
    807a:	0f41      	lsrs	r1, r0, #29
    807c:	041b      	lsls	r3, r3, #16
    807e:	430b      	orrs	r3, r1
    8080:	495c      	ldr	r1, [pc, #368]	; (81f4 <__aeabi_dmul+0x1e0>)
    8082:	00e4      	lsls	r4, r4, #3
    8084:	468c      	mov	ip, r1
    8086:	431c      	orrs	r4, r3
    8088:	00c3      	lsls	r3, r0, #3
    808a:	2000      	movs	r0, #0
    808c:	4462      	add	r2, ip
    808e:	4641      	mov	r1, r8
    8090:	18b6      	adds	r6, r6, r2
    8092:	4069      	eors	r1, r5
    8094:	1c72      	adds	r2, r6, #1
    8096:	9101      	str	r1, [sp, #4]
    8098:	4694      	mov	ip, r2
    809a:	4307      	orrs	r7, r0
    809c:	2f0f      	cmp	r7, #15
    809e:	d900      	bls.n	80a2 <__aeabi_dmul+0x8e>
    80a0:	e0b0      	b.n	8204 <__aeabi_dmul+0x1f0>
    80a2:	4a55      	ldr	r2, [pc, #340]	; (81f8 <__aeabi_dmul+0x1e4>)
    80a4:	00bf      	lsls	r7, r7, #2
    80a6:	59d2      	ldr	r2, [r2, r7]
    80a8:	4697      	mov	pc, r2
    80aa:	465b      	mov	r3, fp
    80ac:	4303      	orrs	r3, r0
    80ae:	4699      	mov	r9, r3
    80b0:	d000      	beq.n	80b4 <__aeabi_dmul+0xa0>
    80b2:	e087      	b.n	81c4 <__aeabi_dmul+0x1b0>
    80b4:	2300      	movs	r3, #0
    80b6:	469b      	mov	fp, r3
    80b8:	3302      	adds	r3, #2
    80ba:	2708      	movs	r7, #8
    80bc:	9302      	str	r3, [sp, #8]
    80be:	e7ce      	b.n	805e <__aeabi_dmul+0x4a>
    80c0:	4642      	mov	r2, r8
    80c2:	9201      	str	r2, [sp, #4]
    80c4:	2802      	cmp	r0, #2
    80c6:	d067      	beq.n	8198 <__aeabi_dmul+0x184>
    80c8:	2803      	cmp	r0, #3
    80ca:	d100      	bne.n	80ce <__aeabi_dmul+0xba>
    80cc:	e20e      	b.n	84ec <__aeabi_dmul+0x4d8>
    80ce:	2801      	cmp	r0, #1
    80d0:	d000      	beq.n	80d4 <__aeabi_dmul+0xc0>
    80d2:	e162      	b.n	839a <__aeabi_dmul+0x386>
    80d4:	2300      	movs	r3, #0
    80d6:	2400      	movs	r4, #0
    80d8:	2200      	movs	r2, #0
    80da:	4699      	mov	r9, r3
    80dc:	9901      	ldr	r1, [sp, #4]
    80de:	4001      	ands	r1, r0
    80e0:	b2cd      	uxtb	r5, r1
    80e2:	2100      	movs	r1, #0
    80e4:	0312      	lsls	r2, r2, #12
    80e6:	0d0b      	lsrs	r3, r1, #20
    80e8:	0b12      	lsrs	r2, r2, #12
    80ea:	051b      	lsls	r3, r3, #20
    80ec:	4313      	orrs	r3, r2
    80ee:	4a43      	ldr	r2, [pc, #268]	; (81fc <__aeabi_dmul+0x1e8>)
    80f0:	0524      	lsls	r4, r4, #20
    80f2:	4013      	ands	r3, r2
    80f4:	431c      	orrs	r4, r3
    80f6:	0064      	lsls	r4, r4, #1
    80f8:	07ed      	lsls	r5, r5, #31
    80fa:	0864      	lsrs	r4, r4, #1
    80fc:	432c      	orrs	r4, r5
    80fe:	4648      	mov	r0, r9
    8100:	0021      	movs	r1, r4
    8102:	b007      	add	sp, #28
    8104:	bc3c      	pop	{r2, r3, r4, r5}
    8106:	4690      	mov	r8, r2
    8108:	4699      	mov	r9, r3
    810a:	46a2      	mov	sl, r4
    810c:	46ab      	mov	fp, r5
    810e:	bdf0      	pop	{r4, r5, r6, r7, pc}
    8110:	4303      	orrs	r3, r0
    8112:	4699      	mov	r9, r3
    8114:	d04f      	beq.n	81b6 <__aeabi_dmul+0x1a2>
    8116:	465b      	mov	r3, fp
    8118:	2b00      	cmp	r3, #0
    811a:	d100      	bne.n	811e <__aeabi_dmul+0x10a>
    811c:	e189      	b.n	8432 <__aeabi_dmul+0x41e>
    811e:	4658      	mov	r0, fp
    8120:	f000 fd7a 	bl	8c18 <__clzsi2>
    8124:	0003      	movs	r3, r0
    8126:	3b0b      	subs	r3, #11
    8128:	2b1c      	cmp	r3, #28
    812a:	dd00      	ble.n	812e <__aeabi_dmul+0x11a>
    812c:	e17a      	b.n	8424 <__aeabi_dmul+0x410>
    812e:	221d      	movs	r2, #29
    8130:	1ad3      	subs	r3, r2, r3
    8132:	003a      	movs	r2, r7
    8134:	0001      	movs	r1, r0
    8136:	465c      	mov	r4, fp
    8138:	40da      	lsrs	r2, r3
    813a:	3908      	subs	r1, #8
    813c:	408c      	lsls	r4, r1
    813e:	0013      	movs	r3, r2
    8140:	408f      	lsls	r7, r1
    8142:	4323      	orrs	r3, r4
    8144:	469b      	mov	fp, r3
    8146:	46b9      	mov	r9, r7
    8148:	2300      	movs	r3, #0
    814a:	4e2d      	ldr	r6, [pc, #180]	; (8200 <__aeabi_dmul+0x1ec>)
    814c:	2700      	movs	r7, #0
    814e:	1a36      	subs	r6, r6, r0
    8150:	9302      	str	r3, [sp, #8]
    8152:	e784      	b.n	805e <__aeabi_dmul+0x4a>
    8154:	4653      	mov	r3, sl
    8156:	4323      	orrs	r3, r4
    8158:	d12a      	bne.n	81b0 <__aeabi_dmul+0x19c>
    815a:	2400      	movs	r4, #0
    815c:	2002      	movs	r0, #2
    815e:	e796      	b.n	808e <__aeabi_dmul+0x7a>
    8160:	4653      	mov	r3, sl
    8162:	4323      	orrs	r3, r4
    8164:	d020      	beq.n	81a8 <__aeabi_dmul+0x194>
    8166:	2c00      	cmp	r4, #0
    8168:	d100      	bne.n	816c <__aeabi_dmul+0x158>
    816a:	e157      	b.n	841c <__aeabi_dmul+0x408>
    816c:	0020      	movs	r0, r4
    816e:	f000 fd53 	bl	8c18 <__clzsi2>
    8172:	0003      	movs	r3, r0
    8174:	3b0b      	subs	r3, #11
    8176:	2b1c      	cmp	r3, #28
    8178:	dd00      	ble.n	817c <__aeabi_dmul+0x168>
    817a:	e149      	b.n	8410 <__aeabi_dmul+0x3fc>
    817c:	211d      	movs	r1, #29
    817e:	1acb      	subs	r3, r1, r3
    8180:	4651      	mov	r1, sl
    8182:	0002      	movs	r2, r0
    8184:	40d9      	lsrs	r1, r3
    8186:	4653      	mov	r3, sl
    8188:	3a08      	subs	r2, #8
    818a:	4094      	lsls	r4, r2
    818c:	4093      	lsls	r3, r2
    818e:	430c      	orrs	r4, r1
    8190:	4a1b      	ldr	r2, [pc, #108]	; (8200 <__aeabi_dmul+0x1ec>)
    8192:	1a12      	subs	r2, r2, r0
    8194:	2000      	movs	r0, #0
    8196:	e77a      	b.n	808e <__aeabi_dmul+0x7a>
    8198:	2501      	movs	r5, #1
    819a:	9b01      	ldr	r3, [sp, #4]
    819c:	4c14      	ldr	r4, [pc, #80]	; (81f0 <__aeabi_dmul+0x1dc>)
    819e:	401d      	ands	r5, r3
    81a0:	2300      	movs	r3, #0
    81a2:	2200      	movs	r2, #0
    81a4:	4699      	mov	r9, r3
    81a6:	e79c      	b.n	80e2 <__aeabi_dmul+0xce>
    81a8:	2400      	movs	r4, #0
    81aa:	2200      	movs	r2, #0
    81ac:	2001      	movs	r0, #1
    81ae:	e76e      	b.n	808e <__aeabi_dmul+0x7a>
    81b0:	4653      	mov	r3, sl
    81b2:	2003      	movs	r0, #3
    81b4:	e76b      	b.n	808e <__aeabi_dmul+0x7a>
    81b6:	2300      	movs	r3, #0
    81b8:	469b      	mov	fp, r3
    81ba:	3301      	adds	r3, #1
    81bc:	2704      	movs	r7, #4
    81be:	2600      	movs	r6, #0
    81c0:	9302      	str	r3, [sp, #8]
    81c2:	e74c      	b.n	805e <__aeabi_dmul+0x4a>
    81c4:	2303      	movs	r3, #3
    81c6:	4681      	mov	r9, r0
    81c8:	270c      	movs	r7, #12
    81ca:	9302      	str	r3, [sp, #8]
    81cc:	e747      	b.n	805e <__aeabi_dmul+0x4a>
    81ce:	2280      	movs	r2, #128	; 0x80
    81d0:	2300      	movs	r3, #0
    81d2:	2500      	movs	r5, #0
    81d4:	0312      	lsls	r2, r2, #12
    81d6:	4699      	mov	r9, r3
    81d8:	4c05      	ldr	r4, [pc, #20]	; (81f0 <__aeabi_dmul+0x1dc>)
    81da:	e782      	b.n	80e2 <__aeabi_dmul+0xce>
    81dc:	465c      	mov	r4, fp
    81de:	464b      	mov	r3, r9
    81e0:	9802      	ldr	r0, [sp, #8]
    81e2:	e76f      	b.n	80c4 <__aeabi_dmul+0xb0>
    81e4:	465c      	mov	r4, fp
    81e6:	464b      	mov	r3, r9
    81e8:	9501      	str	r5, [sp, #4]
    81ea:	9802      	ldr	r0, [sp, #8]
    81ec:	e76a      	b.n	80c4 <__aeabi_dmul+0xb0>
    81ee:	46c0      	nop			; (mov r8, r8)
    81f0:	000007ff 	.word	0x000007ff
    81f4:	fffffc01 	.word	0xfffffc01
    81f8:	0000aa60 	.word	0x0000aa60
    81fc:	800fffff 	.word	0x800fffff
    8200:	fffffc0d 	.word	0xfffffc0d
    8204:	464a      	mov	r2, r9
    8206:	4649      	mov	r1, r9
    8208:	0c17      	lsrs	r7, r2, #16
    820a:	0c1a      	lsrs	r2, r3, #16
    820c:	041b      	lsls	r3, r3, #16
    820e:	0c1b      	lsrs	r3, r3, #16
    8210:	0408      	lsls	r0, r1, #16
    8212:	0019      	movs	r1, r3
    8214:	0c00      	lsrs	r0, r0, #16
    8216:	4341      	muls	r1, r0
    8218:	0015      	movs	r5, r2
    821a:	4688      	mov	r8, r1
    821c:	0019      	movs	r1, r3
    821e:	437d      	muls	r5, r7
    8220:	4379      	muls	r1, r7
    8222:	9503      	str	r5, [sp, #12]
    8224:	4689      	mov	r9, r1
    8226:	0029      	movs	r1, r5
    8228:	0015      	movs	r5, r2
    822a:	4345      	muls	r5, r0
    822c:	444d      	add	r5, r9
    822e:	9502      	str	r5, [sp, #8]
    8230:	4645      	mov	r5, r8
    8232:	0c2d      	lsrs	r5, r5, #16
    8234:	46aa      	mov	sl, r5
    8236:	9d02      	ldr	r5, [sp, #8]
    8238:	4455      	add	r5, sl
    823a:	45a9      	cmp	r9, r5
    823c:	d906      	bls.n	824c <__aeabi_dmul+0x238>
    823e:	468a      	mov	sl, r1
    8240:	2180      	movs	r1, #128	; 0x80
    8242:	0249      	lsls	r1, r1, #9
    8244:	4689      	mov	r9, r1
    8246:	44ca      	add	sl, r9
    8248:	4651      	mov	r1, sl
    824a:	9103      	str	r1, [sp, #12]
    824c:	0c29      	lsrs	r1, r5, #16
    824e:	9104      	str	r1, [sp, #16]
    8250:	4641      	mov	r1, r8
    8252:	0409      	lsls	r1, r1, #16
    8254:	042d      	lsls	r5, r5, #16
    8256:	0c09      	lsrs	r1, r1, #16
    8258:	4688      	mov	r8, r1
    825a:	0029      	movs	r1, r5
    825c:	0c25      	lsrs	r5, r4, #16
    825e:	0424      	lsls	r4, r4, #16
    8260:	4441      	add	r1, r8
    8262:	0c24      	lsrs	r4, r4, #16
    8264:	9105      	str	r1, [sp, #20]
    8266:	0021      	movs	r1, r4
    8268:	4341      	muls	r1, r0
    826a:	4688      	mov	r8, r1
    826c:	0021      	movs	r1, r4
    826e:	4379      	muls	r1, r7
    8270:	468a      	mov	sl, r1
    8272:	4368      	muls	r0, r5
    8274:	4641      	mov	r1, r8
    8276:	4450      	add	r0, sl
    8278:	4681      	mov	r9, r0
    827a:	0c08      	lsrs	r0, r1, #16
    827c:	4448      	add	r0, r9
    827e:	436f      	muls	r7, r5
    8280:	4582      	cmp	sl, r0
    8282:	d903      	bls.n	828c <__aeabi_dmul+0x278>
    8284:	2180      	movs	r1, #128	; 0x80
    8286:	0249      	lsls	r1, r1, #9
    8288:	4689      	mov	r9, r1
    828a:	444f      	add	r7, r9
    828c:	0c01      	lsrs	r1, r0, #16
    828e:	4689      	mov	r9, r1
    8290:	0039      	movs	r1, r7
    8292:	4449      	add	r1, r9
    8294:	9102      	str	r1, [sp, #8]
    8296:	4641      	mov	r1, r8
    8298:	040f      	lsls	r7, r1, #16
    829a:	9904      	ldr	r1, [sp, #16]
    829c:	0c3f      	lsrs	r7, r7, #16
    829e:	4688      	mov	r8, r1
    82a0:	0400      	lsls	r0, r0, #16
    82a2:	19c0      	adds	r0, r0, r7
    82a4:	4480      	add	r8, r0
    82a6:	4641      	mov	r1, r8
    82a8:	9104      	str	r1, [sp, #16]
    82aa:	4659      	mov	r1, fp
    82ac:	0c0f      	lsrs	r7, r1, #16
    82ae:	0409      	lsls	r1, r1, #16
    82b0:	0c09      	lsrs	r1, r1, #16
    82b2:	4688      	mov	r8, r1
    82b4:	4359      	muls	r1, r3
    82b6:	468a      	mov	sl, r1
    82b8:	0039      	movs	r1, r7
    82ba:	4351      	muls	r1, r2
    82bc:	4689      	mov	r9, r1
    82be:	4641      	mov	r1, r8
    82c0:	434a      	muls	r2, r1
    82c2:	4651      	mov	r1, sl
    82c4:	0c09      	lsrs	r1, r1, #16
    82c6:	468b      	mov	fp, r1
    82c8:	437b      	muls	r3, r7
    82ca:	18d2      	adds	r2, r2, r3
    82cc:	445a      	add	r2, fp
    82ce:	4293      	cmp	r3, r2
    82d0:	d903      	bls.n	82da <__aeabi_dmul+0x2c6>
    82d2:	2380      	movs	r3, #128	; 0x80
    82d4:	025b      	lsls	r3, r3, #9
    82d6:	469b      	mov	fp, r3
    82d8:	44d9      	add	r9, fp
    82da:	4651      	mov	r1, sl
    82dc:	0409      	lsls	r1, r1, #16
    82de:	0c09      	lsrs	r1, r1, #16
    82e0:	468a      	mov	sl, r1
    82e2:	4641      	mov	r1, r8
    82e4:	4361      	muls	r1, r4
    82e6:	437c      	muls	r4, r7
    82e8:	0c13      	lsrs	r3, r2, #16
    82ea:	0412      	lsls	r2, r2, #16
    82ec:	444b      	add	r3, r9
    82ee:	4452      	add	r2, sl
    82f0:	46a1      	mov	r9, r4
    82f2:	468a      	mov	sl, r1
    82f4:	003c      	movs	r4, r7
    82f6:	4641      	mov	r1, r8
    82f8:	436c      	muls	r4, r5
    82fa:	434d      	muls	r5, r1
    82fc:	4651      	mov	r1, sl
    82fe:	444d      	add	r5, r9
    8300:	0c0f      	lsrs	r7, r1, #16
    8302:	197d      	adds	r5, r7, r5
    8304:	45a9      	cmp	r9, r5
    8306:	d903      	bls.n	8310 <__aeabi_dmul+0x2fc>
    8308:	2180      	movs	r1, #128	; 0x80
    830a:	0249      	lsls	r1, r1, #9
    830c:	4688      	mov	r8, r1
    830e:	4444      	add	r4, r8
    8310:	9f04      	ldr	r7, [sp, #16]
    8312:	9903      	ldr	r1, [sp, #12]
    8314:	46b8      	mov	r8, r7
    8316:	4441      	add	r1, r8
    8318:	468b      	mov	fp, r1
    831a:	4583      	cmp	fp, r0
    831c:	4180      	sbcs	r0, r0
    831e:	4241      	negs	r1, r0
    8320:	4688      	mov	r8, r1
    8322:	4651      	mov	r1, sl
    8324:	0408      	lsls	r0, r1, #16
    8326:	042f      	lsls	r7, r5, #16
    8328:	0c00      	lsrs	r0, r0, #16
    832a:	183f      	adds	r7, r7, r0
    832c:	4658      	mov	r0, fp
    832e:	9902      	ldr	r1, [sp, #8]
    8330:	1810      	adds	r0, r2, r0
    8332:	4689      	mov	r9, r1
    8334:	4290      	cmp	r0, r2
    8336:	4192      	sbcs	r2, r2
    8338:	444f      	add	r7, r9
    833a:	46ba      	mov	sl, r7
    833c:	4252      	negs	r2, r2
    833e:	4699      	mov	r9, r3
    8340:	4693      	mov	fp, r2
    8342:	44c2      	add	sl, r8
    8344:	44d1      	add	r9, sl
    8346:	44cb      	add	fp, r9
    8348:	428f      	cmp	r7, r1
    834a:	41bf      	sbcs	r7, r7
    834c:	45c2      	cmp	sl, r8
    834e:	4189      	sbcs	r1, r1
    8350:	4599      	cmp	r9, r3
    8352:	419b      	sbcs	r3, r3
    8354:	4593      	cmp	fp, r2
    8356:	4192      	sbcs	r2, r2
    8358:	427f      	negs	r7, r7
    835a:	4249      	negs	r1, r1
    835c:	0c2d      	lsrs	r5, r5, #16
    835e:	4252      	negs	r2, r2
    8360:	430f      	orrs	r7, r1
    8362:	425b      	negs	r3, r3
    8364:	4313      	orrs	r3, r2
    8366:	197f      	adds	r7, r7, r5
    8368:	18ff      	adds	r7, r7, r3
    836a:	465b      	mov	r3, fp
    836c:	193c      	adds	r4, r7, r4
    836e:	0ddb      	lsrs	r3, r3, #23
    8370:	9a05      	ldr	r2, [sp, #20]
    8372:	0264      	lsls	r4, r4, #9
    8374:	431c      	orrs	r4, r3
    8376:	0243      	lsls	r3, r0, #9
    8378:	4313      	orrs	r3, r2
    837a:	1e5d      	subs	r5, r3, #1
    837c:	41ab      	sbcs	r3, r5
    837e:	465a      	mov	r2, fp
    8380:	0dc0      	lsrs	r0, r0, #23
    8382:	4303      	orrs	r3, r0
    8384:	0252      	lsls	r2, r2, #9
    8386:	4313      	orrs	r3, r2
    8388:	01e2      	lsls	r2, r4, #7
    838a:	d556      	bpl.n	843a <__aeabi_dmul+0x426>
    838c:	2001      	movs	r0, #1
    838e:	085a      	lsrs	r2, r3, #1
    8390:	4003      	ands	r3, r0
    8392:	4313      	orrs	r3, r2
    8394:	07e2      	lsls	r2, r4, #31
    8396:	4313      	orrs	r3, r2
    8398:	0864      	lsrs	r4, r4, #1
    839a:	485a      	ldr	r0, [pc, #360]	; (8504 <__aeabi_dmul+0x4f0>)
    839c:	4460      	add	r0, ip
    839e:	2800      	cmp	r0, #0
    83a0:	dd4d      	ble.n	843e <__aeabi_dmul+0x42a>
    83a2:	075a      	lsls	r2, r3, #29
    83a4:	d009      	beq.n	83ba <__aeabi_dmul+0x3a6>
    83a6:	220f      	movs	r2, #15
    83a8:	401a      	ands	r2, r3
    83aa:	2a04      	cmp	r2, #4
    83ac:	d005      	beq.n	83ba <__aeabi_dmul+0x3a6>
    83ae:	1d1a      	adds	r2, r3, #4
    83b0:	429a      	cmp	r2, r3
    83b2:	419b      	sbcs	r3, r3
    83b4:	425b      	negs	r3, r3
    83b6:	18e4      	adds	r4, r4, r3
    83b8:	0013      	movs	r3, r2
    83ba:	01e2      	lsls	r2, r4, #7
    83bc:	d504      	bpl.n	83c8 <__aeabi_dmul+0x3b4>
    83be:	2080      	movs	r0, #128	; 0x80
    83c0:	4a51      	ldr	r2, [pc, #324]	; (8508 <__aeabi_dmul+0x4f4>)
    83c2:	00c0      	lsls	r0, r0, #3
    83c4:	4014      	ands	r4, r2
    83c6:	4460      	add	r0, ip
    83c8:	4a50      	ldr	r2, [pc, #320]	; (850c <__aeabi_dmul+0x4f8>)
    83ca:	4290      	cmp	r0, r2
    83cc:	dd00      	ble.n	83d0 <__aeabi_dmul+0x3bc>
    83ce:	e6e3      	b.n	8198 <__aeabi_dmul+0x184>
    83d0:	2501      	movs	r5, #1
    83d2:	08db      	lsrs	r3, r3, #3
    83d4:	0762      	lsls	r2, r4, #29
    83d6:	431a      	orrs	r2, r3
    83d8:	0264      	lsls	r4, r4, #9
    83da:	9b01      	ldr	r3, [sp, #4]
    83dc:	4691      	mov	r9, r2
    83de:	0b22      	lsrs	r2, r4, #12
    83e0:	0544      	lsls	r4, r0, #21
    83e2:	0d64      	lsrs	r4, r4, #21
    83e4:	401d      	ands	r5, r3
    83e6:	e67c      	b.n	80e2 <__aeabi_dmul+0xce>
    83e8:	2280      	movs	r2, #128	; 0x80
    83ea:	4659      	mov	r1, fp
    83ec:	0312      	lsls	r2, r2, #12
    83ee:	4211      	tst	r1, r2
    83f0:	d008      	beq.n	8404 <__aeabi_dmul+0x3f0>
    83f2:	4214      	tst	r4, r2
    83f4:	d106      	bne.n	8404 <__aeabi_dmul+0x3f0>
    83f6:	4322      	orrs	r2, r4
    83f8:	0312      	lsls	r2, r2, #12
    83fa:	0b12      	lsrs	r2, r2, #12
    83fc:	4645      	mov	r5, r8
    83fe:	4699      	mov	r9, r3
    8400:	4c43      	ldr	r4, [pc, #268]	; (8510 <__aeabi_dmul+0x4fc>)
    8402:	e66e      	b.n	80e2 <__aeabi_dmul+0xce>
    8404:	465b      	mov	r3, fp
    8406:	431a      	orrs	r2, r3
    8408:	0312      	lsls	r2, r2, #12
    840a:	0b12      	lsrs	r2, r2, #12
    840c:	4c40      	ldr	r4, [pc, #256]	; (8510 <__aeabi_dmul+0x4fc>)
    840e:	e668      	b.n	80e2 <__aeabi_dmul+0xce>
    8410:	0003      	movs	r3, r0
    8412:	4654      	mov	r4, sl
    8414:	3b28      	subs	r3, #40	; 0x28
    8416:	409c      	lsls	r4, r3
    8418:	2300      	movs	r3, #0
    841a:	e6b9      	b.n	8190 <__aeabi_dmul+0x17c>
    841c:	f000 fbfc 	bl	8c18 <__clzsi2>
    8420:	3020      	adds	r0, #32
    8422:	e6a6      	b.n	8172 <__aeabi_dmul+0x15e>
    8424:	0003      	movs	r3, r0
    8426:	3b28      	subs	r3, #40	; 0x28
    8428:	409f      	lsls	r7, r3
    842a:	2300      	movs	r3, #0
    842c:	46bb      	mov	fp, r7
    842e:	4699      	mov	r9, r3
    8430:	e68a      	b.n	8148 <__aeabi_dmul+0x134>
    8432:	f000 fbf1 	bl	8c18 <__clzsi2>
    8436:	3020      	adds	r0, #32
    8438:	e674      	b.n	8124 <__aeabi_dmul+0x110>
    843a:	46b4      	mov	ip, r6
    843c:	e7ad      	b.n	839a <__aeabi_dmul+0x386>
    843e:	2501      	movs	r5, #1
    8440:	1a2a      	subs	r2, r5, r0
    8442:	2a38      	cmp	r2, #56	; 0x38
    8444:	dd06      	ble.n	8454 <__aeabi_dmul+0x440>
    8446:	9b01      	ldr	r3, [sp, #4]
    8448:	2400      	movs	r4, #0
    844a:	401d      	ands	r5, r3
    844c:	2300      	movs	r3, #0
    844e:	2200      	movs	r2, #0
    8450:	4699      	mov	r9, r3
    8452:	e646      	b.n	80e2 <__aeabi_dmul+0xce>
    8454:	2a1f      	cmp	r2, #31
    8456:	dc21      	bgt.n	849c <__aeabi_dmul+0x488>
    8458:	2520      	movs	r5, #32
    845a:	0020      	movs	r0, r4
    845c:	1aad      	subs	r5, r5, r2
    845e:	001e      	movs	r6, r3
    8460:	40ab      	lsls	r3, r5
    8462:	40a8      	lsls	r0, r5
    8464:	40d6      	lsrs	r6, r2
    8466:	1e5d      	subs	r5, r3, #1
    8468:	41ab      	sbcs	r3, r5
    846a:	4330      	orrs	r0, r6
    846c:	4318      	orrs	r0, r3
    846e:	40d4      	lsrs	r4, r2
    8470:	0743      	lsls	r3, r0, #29
    8472:	d009      	beq.n	8488 <__aeabi_dmul+0x474>
    8474:	230f      	movs	r3, #15
    8476:	4003      	ands	r3, r0
    8478:	2b04      	cmp	r3, #4
    847a:	d005      	beq.n	8488 <__aeabi_dmul+0x474>
    847c:	0003      	movs	r3, r0
    847e:	1d18      	adds	r0, r3, #4
    8480:	4298      	cmp	r0, r3
    8482:	419b      	sbcs	r3, r3
    8484:	425b      	negs	r3, r3
    8486:	18e4      	adds	r4, r4, r3
    8488:	0223      	lsls	r3, r4, #8
    848a:	d521      	bpl.n	84d0 <__aeabi_dmul+0x4bc>
    848c:	2501      	movs	r5, #1
    848e:	9b01      	ldr	r3, [sp, #4]
    8490:	2401      	movs	r4, #1
    8492:	401d      	ands	r5, r3
    8494:	2300      	movs	r3, #0
    8496:	2200      	movs	r2, #0
    8498:	4699      	mov	r9, r3
    849a:	e622      	b.n	80e2 <__aeabi_dmul+0xce>
    849c:	251f      	movs	r5, #31
    849e:	0021      	movs	r1, r4
    84a0:	426d      	negs	r5, r5
    84a2:	1a28      	subs	r0, r5, r0
    84a4:	40c1      	lsrs	r1, r0
    84a6:	0008      	movs	r0, r1
    84a8:	2a20      	cmp	r2, #32
    84aa:	d01d      	beq.n	84e8 <__aeabi_dmul+0x4d4>
    84ac:	355f      	adds	r5, #95	; 0x5f
    84ae:	1aaa      	subs	r2, r5, r2
    84b0:	4094      	lsls	r4, r2
    84b2:	4323      	orrs	r3, r4
    84b4:	1e5c      	subs	r4, r3, #1
    84b6:	41a3      	sbcs	r3, r4
    84b8:	2507      	movs	r5, #7
    84ba:	4303      	orrs	r3, r0
    84bc:	401d      	ands	r5, r3
    84be:	2200      	movs	r2, #0
    84c0:	2d00      	cmp	r5, #0
    84c2:	d009      	beq.n	84d8 <__aeabi_dmul+0x4c4>
    84c4:	220f      	movs	r2, #15
    84c6:	2400      	movs	r4, #0
    84c8:	401a      	ands	r2, r3
    84ca:	0018      	movs	r0, r3
    84cc:	2a04      	cmp	r2, #4
    84ce:	d1d6      	bne.n	847e <__aeabi_dmul+0x46a>
    84d0:	0003      	movs	r3, r0
    84d2:	0765      	lsls	r5, r4, #29
    84d4:	0264      	lsls	r4, r4, #9
    84d6:	0b22      	lsrs	r2, r4, #12
    84d8:	08db      	lsrs	r3, r3, #3
    84da:	432b      	orrs	r3, r5
    84dc:	2501      	movs	r5, #1
    84de:	4699      	mov	r9, r3
    84e0:	9b01      	ldr	r3, [sp, #4]
    84e2:	2400      	movs	r4, #0
    84e4:	401d      	ands	r5, r3
    84e6:	e5fc      	b.n	80e2 <__aeabi_dmul+0xce>
    84e8:	2400      	movs	r4, #0
    84ea:	e7e2      	b.n	84b2 <__aeabi_dmul+0x49e>
    84ec:	2280      	movs	r2, #128	; 0x80
    84ee:	2501      	movs	r5, #1
    84f0:	0312      	lsls	r2, r2, #12
    84f2:	4322      	orrs	r2, r4
    84f4:	9901      	ldr	r1, [sp, #4]
    84f6:	0312      	lsls	r2, r2, #12
    84f8:	0b12      	lsrs	r2, r2, #12
    84fa:	400d      	ands	r5, r1
    84fc:	4699      	mov	r9, r3
    84fe:	4c04      	ldr	r4, [pc, #16]	; (8510 <__aeabi_dmul+0x4fc>)
    8500:	e5ef      	b.n	80e2 <__aeabi_dmul+0xce>
    8502:	46c0      	nop			; (mov r8, r8)
    8504:	000003ff 	.word	0x000003ff
    8508:	feffffff 	.word	0xfeffffff
    850c:	000007fe 	.word	0x000007fe
    8510:	000007ff 	.word	0x000007ff

00008514 <__aeabi_dsub>:
    8514:	b5f0      	push	{r4, r5, r6, r7, lr}
    8516:	4646      	mov	r6, r8
    8518:	46d6      	mov	lr, sl
    851a:	464f      	mov	r7, r9
    851c:	030c      	lsls	r4, r1, #12
    851e:	b5c0      	push	{r6, r7, lr}
    8520:	0fcd      	lsrs	r5, r1, #31
    8522:	004e      	lsls	r6, r1, #1
    8524:	0a61      	lsrs	r1, r4, #9
    8526:	0f44      	lsrs	r4, r0, #29
    8528:	430c      	orrs	r4, r1
    852a:	00c1      	lsls	r1, r0, #3
    852c:	0058      	lsls	r0, r3, #1
    852e:	0d40      	lsrs	r0, r0, #21
    8530:	4684      	mov	ip, r0
    8532:	468a      	mov	sl, r1
    8534:	000f      	movs	r7, r1
    8536:	0319      	lsls	r1, r3, #12
    8538:	0f50      	lsrs	r0, r2, #29
    853a:	0a49      	lsrs	r1, r1, #9
    853c:	4301      	orrs	r1, r0
    853e:	48c6      	ldr	r0, [pc, #792]	; (8858 <__aeabi_dsub+0x344>)
    8540:	0d76      	lsrs	r6, r6, #21
    8542:	46a8      	mov	r8, r5
    8544:	0fdb      	lsrs	r3, r3, #31
    8546:	00d2      	lsls	r2, r2, #3
    8548:	4584      	cmp	ip, r0
    854a:	d100      	bne.n	854e <__aeabi_dsub+0x3a>
    854c:	e0d8      	b.n	8700 <__aeabi_dsub+0x1ec>
    854e:	2001      	movs	r0, #1
    8550:	4043      	eors	r3, r0
    8552:	42ab      	cmp	r3, r5
    8554:	d100      	bne.n	8558 <__aeabi_dsub+0x44>
    8556:	e0a6      	b.n	86a6 <__aeabi_dsub+0x192>
    8558:	4660      	mov	r0, ip
    855a:	1a35      	subs	r5, r6, r0
    855c:	2d00      	cmp	r5, #0
    855e:	dc00      	bgt.n	8562 <__aeabi_dsub+0x4e>
    8560:	e105      	b.n	876e <__aeabi_dsub+0x25a>
    8562:	2800      	cmp	r0, #0
    8564:	d110      	bne.n	8588 <__aeabi_dsub+0x74>
    8566:	000b      	movs	r3, r1
    8568:	4313      	orrs	r3, r2
    856a:	d100      	bne.n	856e <__aeabi_dsub+0x5a>
    856c:	e0d7      	b.n	871e <__aeabi_dsub+0x20a>
    856e:	1e6b      	subs	r3, r5, #1
    8570:	2b00      	cmp	r3, #0
    8572:	d000      	beq.n	8576 <__aeabi_dsub+0x62>
    8574:	e14b      	b.n	880e <__aeabi_dsub+0x2fa>
    8576:	4653      	mov	r3, sl
    8578:	1a9f      	subs	r7, r3, r2
    857a:	45ba      	cmp	sl, r7
    857c:	4180      	sbcs	r0, r0
    857e:	1a64      	subs	r4, r4, r1
    8580:	4240      	negs	r0, r0
    8582:	1a24      	subs	r4, r4, r0
    8584:	2601      	movs	r6, #1
    8586:	e01e      	b.n	85c6 <__aeabi_dsub+0xb2>
    8588:	4bb3      	ldr	r3, [pc, #716]	; (8858 <__aeabi_dsub+0x344>)
    858a:	429e      	cmp	r6, r3
    858c:	d048      	beq.n	8620 <__aeabi_dsub+0x10c>
    858e:	2380      	movs	r3, #128	; 0x80
    8590:	041b      	lsls	r3, r3, #16
    8592:	4319      	orrs	r1, r3
    8594:	2d38      	cmp	r5, #56	; 0x38
    8596:	dd00      	ble.n	859a <__aeabi_dsub+0x86>
    8598:	e119      	b.n	87ce <__aeabi_dsub+0x2ba>
    859a:	2d1f      	cmp	r5, #31
    859c:	dd00      	ble.n	85a0 <__aeabi_dsub+0x8c>
    859e:	e14c      	b.n	883a <__aeabi_dsub+0x326>
    85a0:	2320      	movs	r3, #32
    85a2:	000f      	movs	r7, r1
    85a4:	1b5b      	subs	r3, r3, r5
    85a6:	0010      	movs	r0, r2
    85a8:	409a      	lsls	r2, r3
    85aa:	409f      	lsls	r7, r3
    85ac:	40e8      	lsrs	r0, r5
    85ae:	1e53      	subs	r3, r2, #1
    85b0:	419a      	sbcs	r2, r3
    85b2:	40e9      	lsrs	r1, r5
    85b4:	4307      	orrs	r7, r0
    85b6:	4317      	orrs	r7, r2
    85b8:	4653      	mov	r3, sl
    85ba:	1bdf      	subs	r7, r3, r7
    85bc:	1a61      	subs	r1, r4, r1
    85be:	45ba      	cmp	sl, r7
    85c0:	41a4      	sbcs	r4, r4
    85c2:	4264      	negs	r4, r4
    85c4:	1b0c      	subs	r4, r1, r4
    85c6:	0223      	lsls	r3, r4, #8
    85c8:	d400      	bmi.n	85cc <__aeabi_dsub+0xb8>
    85ca:	e0c5      	b.n	8758 <__aeabi_dsub+0x244>
    85cc:	0264      	lsls	r4, r4, #9
    85ce:	0a65      	lsrs	r5, r4, #9
    85d0:	2d00      	cmp	r5, #0
    85d2:	d100      	bne.n	85d6 <__aeabi_dsub+0xc2>
    85d4:	e0f6      	b.n	87c4 <__aeabi_dsub+0x2b0>
    85d6:	0028      	movs	r0, r5
    85d8:	f000 fb1e 	bl	8c18 <__clzsi2>
    85dc:	0003      	movs	r3, r0
    85de:	3b08      	subs	r3, #8
    85e0:	2b1f      	cmp	r3, #31
    85e2:	dd00      	ble.n	85e6 <__aeabi_dsub+0xd2>
    85e4:	e0e9      	b.n	87ba <__aeabi_dsub+0x2a6>
    85e6:	2220      	movs	r2, #32
    85e8:	003c      	movs	r4, r7
    85ea:	1ad2      	subs	r2, r2, r3
    85ec:	409d      	lsls	r5, r3
    85ee:	40d4      	lsrs	r4, r2
    85f0:	409f      	lsls	r7, r3
    85f2:	4325      	orrs	r5, r4
    85f4:	429e      	cmp	r6, r3
    85f6:	dd00      	ble.n	85fa <__aeabi_dsub+0xe6>
    85f8:	e0db      	b.n	87b2 <__aeabi_dsub+0x29e>
    85fa:	1b9e      	subs	r6, r3, r6
    85fc:	1c73      	adds	r3, r6, #1
    85fe:	2b1f      	cmp	r3, #31
    8600:	dd00      	ble.n	8604 <__aeabi_dsub+0xf0>
    8602:	e10a      	b.n	881a <__aeabi_dsub+0x306>
    8604:	2220      	movs	r2, #32
    8606:	0038      	movs	r0, r7
    8608:	1ad2      	subs	r2, r2, r3
    860a:	0029      	movs	r1, r5
    860c:	4097      	lsls	r7, r2
    860e:	002c      	movs	r4, r5
    8610:	4091      	lsls	r1, r2
    8612:	40d8      	lsrs	r0, r3
    8614:	1e7a      	subs	r2, r7, #1
    8616:	4197      	sbcs	r7, r2
    8618:	40dc      	lsrs	r4, r3
    861a:	2600      	movs	r6, #0
    861c:	4301      	orrs	r1, r0
    861e:	430f      	orrs	r7, r1
    8620:	077b      	lsls	r3, r7, #29
    8622:	d009      	beq.n	8638 <__aeabi_dsub+0x124>
    8624:	230f      	movs	r3, #15
    8626:	403b      	ands	r3, r7
    8628:	2b04      	cmp	r3, #4
    862a:	d005      	beq.n	8638 <__aeabi_dsub+0x124>
    862c:	1d3b      	adds	r3, r7, #4
    862e:	42bb      	cmp	r3, r7
    8630:	41bf      	sbcs	r7, r7
    8632:	427f      	negs	r7, r7
    8634:	19e4      	adds	r4, r4, r7
    8636:	001f      	movs	r7, r3
    8638:	0223      	lsls	r3, r4, #8
    863a:	d525      	bpl.n	8688 <__aeabi_dsub+0x174>
    863c:	4b86      	ldr	r3, [pc, #536]	; (8858 <__aeabi_dsub+0x344>)
    863e:	3601      	adds	r6, #1
    8640:	429e      	cmp	r6, r3
    8642:	d100      	bne.n	8646 <__aeabi_dsub+0x132>
    8644:	e0af      	b.n	87a6 <__aeabi_dsub+0x292>
    8646:	4b85      	ldr	r3, [pc, #532]	; (885c <__aeabi_dsub+0x348>)
    8648:	2501      	movs	r5, #1
    864a:	401c      	ands	r4, r3
    864c:	4643      	mov	r3, r8
    864e:	0762      	lsls	r2, r4, #29
    8650:	08ff      	lsrs	r7, r7, #3
    8652:	0264      	lsls	r4, r4, #9
    8654:	0576      	lsls	r6, r6, #21
    8656:	4317      	orrs	r7, r2
    8658:	0b24      	lsrs	r4, r4, #12
    865a:	0d76      	lsrs	r6, r6, #21
    865c:	401d      	ands	r5, r3
    865e:	2100      	movs	r1, #0
    8660:	0324      	lsls	r4, r4, #12
    8662:	0b23      	lsrs	r3, r4, #12
    8664:	0d0c      	lsrs	r4, r1, #20
    8666:	4a7e      	ldr	r2, [pc, #504]	; (8860 <__aeabi_dsub+0x34c>)
    8668:	0524      	lsls	r4, r4, #20
    866a:	431c      	orrs	r4, r3
    866c:	4014      	ands	r4, r2
    866e:	0533      	lsls	r3, r6, #20
    8670:	4323      	orrs	r3, r4
    8672:	005b      	lsls	r3, r3, #1
    8674:	07ed      	lsls	r5, r5, #31
    8676:	085b      	lsrs	r3, r3, #1
    8678:	432b      	orrs	r3, r5
    867a:	0038      	movs	r0, r7
    867c:	0019      	movs	r1, r3
    867e:	bc1c      	pop	{r2, r3, r4}
    8680:	4690      	mov	r8, r2
    8682:	4699      	mov	r9, r3
    8684:	46a2      	mov	sl, r4
    8686:	bdf0      	pop	{r4, r5, r6, r7, pc}
    8688:	2501      	movs	r5, #1
    868a:	4643      	mov	r3, r8
    868c:	0762      	lsls	r2, r4, #29
    868e:	08ff      	lsrs	r7, r7, #3
    8690:	4317      	orrs	r7, r2
    8692:	08e4      	lsrs	r4, r4, #3
    8694:	401d      	ands	r5, r3
    8696:	4b70      	ldr	r3, [pc, #448]	; (8858 <__aeabi_dsub+0x344>)
    8698:	429e      	cmp	r6, r3
    869a:	d036      	beq.n	870a <__aeabi_dsub+0x1f6>
    869c:	0324      	lsls	r4, r4, #12
    869e:	0576      	lsls	r6, r6, #21
    86a0:	0b24      	lsrs	r4, r4, #12
    86a2:	0d76      	lsrs	r6, r6, #21
    86a4:	e7db      	b.n	865e <__aeabi_dsub+0x14a>
    86a6:	4663      	mov	r3, ip
    86a8:	1af3      	subs	r3, r6, r3
    86aa:	2b00      	cmp	r3, #0
    86ac:	dc00      	bgt.n	86b0 <__aeabi_dsub+0x19c>
    86ae:	e094      	b.n	87da <__aeabi_dsub+0x2c6>
    86b0:	4660      	mov	r0, ip
    86b2:	2800      	cmp	r0, #0
    86b4:	d035      	beq.n	8722 <__aeabi_dsub+0x20e>
    86b6:	4868      	ldr	r0, [pc, #416]	; (8858 <__aeabi_dsub+0x344>)
    86b8:	4286      	cmp	r6, r0
    86ba:	d0b1      	beq.n	8620 <__aeabi_dsub+0x10c>
    86bc:	2780      	movs	r7, #128	; 0x80
    86be:	043f      	lsls	r7, r7, #16
    86c0:	4339      	orrs	r1, r7
    86c2:	2b38      	cmp	r3, #56	; 0x38
    86c4:	dc00      	bgt.n	86c8 <__aeabi_dsub+0x1b4>
    86c6:	e0fd      	b.n	88c4 <__aeabi_dsub+0x3b0>
    86c8:	430a      	orrs	r2, r1
    86ca:	0017      	movs	r7, r2
    86cc:	2100      	movs	r1, #0
    86ce:	1e7a      	subs	r2, r7, #1
    86d0:	4197      	sbcs	r7, r2
    86d2:	4457      	add	r7, sl
    86d4:	4557      	cmp	r7, sl
    86d6:	4180      	sbcs	r0, r0
    86d8:	1909      	adds	r1, r1, r4
    86da:	4244      	negs	r4, r0
    86dc:	190c      	adds	r4, r1, r4
    86de:	0223      	lsls	r3, r4, #8
    86e0:	d53a      	bpl.n	8758 <__aeabi_dsub+0x244>
    86e2:	4b5d      	ldr	r3, [pc, #372]	; (8858 <__aeabi_dsub+0x344>)
    86e4:	3601      	adds	r6, #1
    86e6:	429e      	cmp	r6, r3
    86e8:	d100      	bne.n	86ec <__aeabi_dsub+0x1d8>
    86ea:	e14b      	b.n	8984 <__aeabi_dsub+0x470>
    86ec:	2201      	movs	r2, #1
    86ee:	4b5b      	ldr	r3, [pc, #364]	; (885c <__aeabi_dsub+0x348>)
    86f0:	401c      	ands	r4, r3
    86f2:	087b      	lsrs	r3, r7, #1
    86f4:	4017      	ands	r7, r2
    86f6:	431f      	orrs	r7, r3
    86f8:	07e2      	lsls	r2, r4, #31
    86fa:	4317      	orrs	r7, r2
    86fc:	0864      	lsrs	r4, r4, #1
    86fe:	e78f      	b.n	8620 <__aeabi_dsub+0x10c>
    8700:	0008      	movs	r0, r1
    8702:	4310      	orrs	r0, r2
    8704:	d000      	beq.n	8708 <__aeabi_dsub+0x1f4>
    8706:	e724      	b.n	8552 <__aeabi_dsub+0x3e>
    8708:	e721      	b.n	854e <__aeabi_dsub+0x3a>
    870a:	0023      	movs	r3, r4
    870c:	433b      	orrs	r3, r7
    870e:	d100      	bne.n	8712 <__aeabi_dsub+0x1fe>
    8710:	e1b9      	b.n	8a86 <__aeabi_dsub+0x572>
    8712:	2280      	movs	r2, #128	; 0x80
    8714:	0312      	lsls	r2, r2, #12
    8716:	4314      	orrs	r4, r2
    8718:	0324      	lsls	r4, r4, #12
    871a:	0b24      	lsrs	r4, r4, #12
    871c:	e79f      	b.n	865e <__aeabi_dsub+0x14a>
    871e:	002e      	movs	r6, r5
    8720:	e77e      	b.n	8620 <__aeabi_dsub+0x10c>
    8722:	0008      	movs	r0, r1
    8724:	4310      	orrs	r0, r2
    8726:	d100      	bne.n	872a <__aeabi_dsub+0x216>
    8728:	e0ca      	b.n	88c0 <__aeabi_dsub+0x3ac>
    872a:	1e58      	subs	r0, r3, #1
    872c:	4684      	mov	ip, r0
    872e:	2800      	cmp	r0, #0
    8730:	d000      	beq.n	8734 <__aeabi_dsub+0x220>
    8732:	e0e7      	b.n	8904 <__aeabi_dsub+0x3f0>
    8734:	4452      	add	r2, sl
    8736:	4552      	cmp	r2, sl
    8738:	4180      	sbcs	r0, r0
    873a:	1864      	adds	r4, r4, r1
    873c:	4240      	negs	r0, r0
    873e:	1824      	adds	r4, r4, r0
    8740:	0017      	movs	r7, r2
    8742:	2601      	movs	r6, #1
    8744:	0223      	lsls	r3, r4, #8
    8746:	d507      	bpl.n	8758 <__aeabi_dsub+0x244>
    8748:	2602      	movs	r6, #2
    874a:	e7cf      	b.n	86ec <__aeabi_dsub+0x1d8>
    874c:	4664      	mov	r4, ip
    874e:	432c      	orrs	r4, r5
    8750:	d100      	bne.n	8754 <__aeabi_dsub+0x240>
    8752:	e1b3      	b.n	8abc <__aeabi_dsub+0x5a8>
    8754:	002c      	movs	r4, r5
    8756:	4667      	mov	r7, ip
    8758:	077b      	lsls	r3, r7, #29
    875a:	d000      	beq.n	875e <__aeabi_dsub+0x24a>
    875c:	e762      	b.n	8624 <__aeabi_dsub+0x110>
    875e:	0763      	lsls	r3, r4, #29
    8760:	08ff      	lsrs	r7, r7, #3
    8762:	431f      	orrs	r7, r3
    8764:	2501      	movs	r5, #1
    8766:	4643      	mov	r3, r8
    8768:	08e4      	lsrs	r4, r4, #3
    876a:	401d      	ands	r5, r3
    876c:	e793      	b.n	8696 <__aeabi_dsub+0x182>
    876e:	2d00      	cmp	r5, #0
    8770:	d178      	bne.n	8864 <__aeabi_dsub+0x350>
    8772:	1c75      	adds	r5, r6, #1
    8774:	056d      	lsls	r5, r5, #21
    8776:	0d6d      	lsrs	r5, r5, #21
    8778:	2d01      	cmp	r5, #1
    877a:	dc00      	bgt.n	877e <__aeabi_dsub+0x26a>
    877c:	e0f2      	b.n	8964 <__aeabi_dsub+0x450>
    877e:	4650      	mov	r0, sl
    8780:	1a80      	subs	r0, r0, r2
    8782:	4582      	cmp	sl, r0
    8784:	41bf      	sbcs	r7, r7
    8786:	1a65      	subs	r5, r4, r1
    8788:	427f      	negs	r7, r7
    878a:	1bed      	subs	r5, r5, r7
    878c:	4684      	mov	ip, r0
    878e:	0228      	lsls	r0, r5, #8
    8790:	d400      	bmi.n	8794 <__aeabi_dsub+0x280>
    8792:	e08c      	b.n	88ae <__aeabi_dsub+0x39a>
    8794:	4650      	mov	r0, sl
    8796:	1a17      	subs	r7, r2, r0
    8798:	42ba      	cmp	r2, r7
    879a:	4192      	sbcs	r2, r2
    879c:	1b0c      	subs	r4, r1, r4
    879e:	4255      	negs	r5, r2
    87a0:	1b65      	subs	r5, r4, r5
    87a2:	4698      	mov	r8, r3
    87a4:	e714      	b.n	85d0 <__aeabi_dsub+0xbc>
    87a6:	2501      	movs	r5, #1
    87a8:	4643      	mov	r3, r8
    87aa:	2400      	movs	r4, #0
    87ac:	401d      	ands	r5, r3
    87ae:	2700      	movs	r7, #0
    87b0:	e755      	b.n	865e <__aeabi_dsub+0x14a>
    87b2:	4c2a      	ldr	r4, [pc, #168]	; (885c <__aeabi_dsub+0x348>)
    87b4:	1af6      	subs	r6, r6, r3
    87b6:	402c      	ands	r4, r5
    87b8:	e732      	b.n	8620 <__aeabi_dsub+0x10c>
    87ba:	003d      	movs	r5, r7
    87bc:	3828      	subs	r0, #40	; 0x28
    87be:	4085      	lsls	r5, r0
    87c0:	2700      	movs	r7, #0
    87c2:	e717      	b.n	85f4 <__aeabi_dsub+0xe0>
    87c4:	0038      	movs	r0, r7
    87c6:	f000 fa27 	bl	8c18 <__clzsi2>
    87ca:	3020      	adds	r0, #32
    87cc:	e706      	b.n	85dc <__aeabi_dsub+0xc8>
    87ce:	430a      	orrs	r2, r1
    87d0:	0017      	movs	r7, r2
    87d2:	2100      	movs	r1, #0
    87d4:	1e7a      	subs	r2, r7, #1
    87d6:	4197      	sbcs	r7, r2
    87d8:	e6ee      	b.n	85b8 <__aeabi_dsub+0xa4>
    87da:	2b00      	cmp	r3, #0
    87dc:	d000      	beq.n	87e0 <__aeabi_dsub+0x2cc>
    87de:	e0e5      	b.n	89ac <__aeabi_dsub+0x498>
    87e0:	1c73      	adds	r3, r6, #1
    87e2:	469c      	mov	ip, r3
    87e4:	055b      	lsls	r3, r3, #21
    87e6:	0d5b      	lsrs	r3, r3, #21
    87e8:	2b01      	cmp	r3, #1
    87ea:	dc00      	bgt.n	87ee <__aeabi_dsub+0x2da>
    87ec:	e09f      	b.n	892e <__aeabi_dsub+0x41a>
    87ee:	4b1a      	ldr	r3, [pc, #104]	; (8858 <__aeabi_dsub+0x344>)
    87f0:	459c      	cmp	ip, r3
    87f2:	d100      	bne.n	87f6 <__aeabi_dsub+0x2e2>
    87f4:	e0c5      	b.n	8982 <__aeabi_dsub+0x46e>
    87f6:	4452      	add	r2, sl
    87f8:	4552      	cmp	r2, sl
    87fa:	4180      	sbcs	r0, r0
    87fc:	1864      	adds	r4, r4, r1
    87fe:	4240      	negs	r0, r0
    8800:	1824      	adds	r4, r4, r0
    8802:	07e7      	lsls	r7, r4, #31
    8804:	0852      	lsrs	r2, r2, #1
    8806:	4317      	orrs	r7, r2
    8808:	0864      	lsrs	r4, r4, #1
    880a:	4666      	mov	r6, ip
    880c:	e708      	b.n	8620 <__aeabi_dsub+0x10c>
    880e:	4812      	ldr	r0, [pc, #72]	; (8858 <__aeabi_dsub+0x344>)
    8810:	4285      	cmp	r5, r0
    8812:	d100      	bne.n	8816 <__aeabi_dsub+0x302>
    8814:	e085      	b.n	8922 <__aeabi_dsub+0x40e>
    8816:	001d      	movs	r5, r3
    8818:	e6bc      	b.n	8594 <__aeabi_dsub+0x80>
    881a:	0029      	movs	r1, r5
    881c:	3e1f      	subs	r6, #31
    881e:	40f1      	lsrs	r1, r6
    8820:	2b20      	cmp	r3, #32
    8822:	d100      	bne.n	8826 <__aeabi_dsub+0x312>
    8824:	e07f      	b.n	8926 <__aeabi_dsub+0x412>
    8826:	2240      	movs	r2, #64	; 0x40
    8828:	1ad3      	subs	r3, r2, r3
    882a:	409d      	lsls	r5, r3
    882c:	432f      	orrs	r7, r5
    882e:	1e7d      	subs	r5, r7, #1
    8830:	41af      	sbcs	r7, r5
    8832:	2400      	movs	r4, #0
    8834:	430f      	orrs	r7, r1
    8836:	2600      	movs	r6, #0
    8838:	e78e      	b.n	8758 <__aeabi_dsub+0x244>
    883a:	002b      	movs	r3, r5
    883c:	000f      	movs	r7, r1
    883e:	3b20      	subs	r3, #32
    8840:	40df      	lsrs	r7, r3
    8842:	2d20      	cmp	r5, #32
    8844:	d071      	beq.n	892a <__aeabi_dsub+0x416>
    8846:	2340      	movs	r3, #64	; 0x40
    8848:	1b5d      	subs	r5, r3, r5
    884a:	40a9      	lsls	r1, r5
    884c:	430a      	orrs	r2, r1
    884e:	1e51      	subs	r1, r2, #1
    8850:	418a      	sbcs	r2, r1
    8852:	2100      	movs	r1, #0
    8854:	4317      	orrs	r7, r2
    8856:	e6af      	b.n	85b8 <__aeabi_dsub+0xa4>
    8858:	000007ff 	.word	0x000007ff
    885c:	ff7fffff 	.word	0xff7fffff
    8860:	800fffff 	.word	0x800fffff
    8864:	2e00      	cmp	r6, #0
    8866:	d03e      	beq.n	88e6 <__aeabi_dsub+0x3d2>
    8868:	4eb3      	ldr	r6, [pc, #716]	; (8b38 <__aeabi_dsub+0x624>)
    886a:	45b4      	cmp	ip, r6
    886c:	d045      	beq.n	88fa <__aeabi_dsub+0x3e6>
    886e:	2680      	movs	r6, #128	; 0x80
    8870:	0436      	lsls	r6, r6, #16
    8872:	426d      	negs	r5, r5
    8874:	4334      	orrs	r4, r6
    8876:	2d38      	cmp	r5, #56	; 0x38
    8878:	dd00      	ble.n	887c <__aeabi_dsub+0x368>
    887a:	e0a8      	b.n	89ce <__aeabi_dsub+0x4ba>
    887c:	2d1f      	cmp	r5, #31
    887e:	dd00      	ble.n	8882 <__aeabi_dsub+0x36e>
    8880:	e11f      	b.n	8ac2 <__aeabi_dsub+0x5ae>
    8882:	2620      	movs	r6, #32
    8884:	0027      	movs	r7, r4
    8886:	4650      	mov	r0, sl
    8888:	1b76      	subs	r6, r6, r5
    888a:	40b7      	lsls	r7, r6
    888c:	40e8      	lsrs	r0, r5
    888e:	4307      	orrs	r7, r0
    8890:	4650      	mov	r0, sl
    8892:	40b0      	lsls	r0, r6
    8894:	1e46      	subs	r6, r0, #1
    8896:	41b0      	sbcs	r0, r6
    8898:	40ec      	lsrs	r4, r5
    889a:	4338      	orrs	r0, r7
    889c:	1a17      	subs	r7, r2, r0
    889e:	42ba      	cmp	r2, r7
    88a0:	4192      	sbcs	r2, r2
    88a2:	1b0c      	subs	r4, r1, r4
    88a4:	4252      	negs	r2, r2
    88a6:	1aa4      	subs	r4, r4, r2
    88a8:	4666      	mov	r6, ip
    88aa:	4698      	mov	r8, r3
    88ac:	e68b      	b.n	85c6 <__aeabi_dsub+0xb2>
    88ae:	4664      	mov	r4, ip
    88b0:	4667      	mov	r7, ip
    88b2:	432c      	orrs	r4, r5
    88b4:	d000      	beq.n	88b8 <__aeabi_dsub+0x3a4>
    88b6:	e68b      	b.n	85d0 <__aeabi_dsub+0xbc>
    88b8:	2500      	movs	r5, #0
    88ba:	2600      	movs	r6, #0
    88bc:	2700      	movs	r7, #0
    88be:	e6ea      	b.n	8696 <__aeabi_dsub+0x182>
    88c0:	001e      	movs	r6, r3
    88c2:	e6ad      	b.n	8620 <__aeabi_dsub+0x10c>
    88c4:	2b1f      	cmp	r3, #31
    88c6:	dc60      	bgt.n	898a <__aeabi_dsub+0x476>
    88c8:	2720      	movs	r7, #32
    88ca:	1af8      	subs	r0, r7, r3
    88cc:	000f      	movs	r7, r1
    88ce:	4684      	mov	ip, r0
    88d0:	4087      	lsls	r7, r0
    88d2:	0010      	movs	r0, r2
    88d4:	40d8      	lsrs	r0, r3
    88d6:	4307      	orrs	r7, r0
    88d8:	4660      	mov	r0, ip
    88da:	4082      	lsls	r2, r0
    88dc:	1e50      	subs	r0, r2, #1
    88de:	4182      	sbcs	r2, r0
    88e0:	40d9      	lsrs	r1, r3
    88e2:	4317      	orrs	r7, r2
    88e4:	e6f5      	b.n	86d2 <__aeabi_dsub+0x1be>
    88e6:	0026      	movs	r6, r4
    88e8:	4650      	mov	r0, sl
    88ea:	4306      	orrs	r6, r0
    88ec:	d005      	beq.n	88fa <__aeabi_dsub+0x3e6>
    88ee:	43ed      	mvns	r5, r5
    88f0:	2d00      	cmp	r5, #0
    88f2:	d0d3      	beq.n	889c <__aeabi_dsub+0x388>
    88f4:	4e90      	ldr	r6, [pc, #576]	; (8b38 <__aeabi_dsub+0x624>)
    88f6:	45b4      	cmp	ip, r6
    88f8:	d1bd      	bne.n	8876 <__aeabi_dsub+0x362>
    88fa:	000c      	movs	r4, r1
    88fc:	0017      	movs	r7, r2
    88fe:	4666      	mov	r6, ip
    8900:	4698      	mov	r8, r3
    8902:	e68d      	b.n	8620 <__aeabi_dsub+0x10c>
    8904:	488c      	ldr	r0, [pc, #560]	; (8b38 <__aeabi_dsub+0x624>)
    8906:	4283      	cmp	r3, r0
    8908:	d00b      	beq.n	8922 <__aeabi_dsub+0x40e>
    890a:	4663      	mov	r3, ip
    890c:	e6d9      	b.n	86c2 <__aeabi_dsub+0x1ae>
    890e:	2d00      	cmp	r5, #0
    8910:	d000      	beq.n	8914 <__aeabi_dsub+0x400>
    8912:	e096      	b.n	8a42 <__aeabi_dsub+0x52e>
    8914:	0008      	movs	r0, r1
    8916:	4310      	orrs	r0, r2
    8918:	d100      	bne.n	891c <__aeabi_dsub+0x408>
    891a:	e0e2      	b.n	8ae2 <__aeabi_dsub+0x5ce>
    891c:	000c      	movs	r4, r1
    891e:	0017      	movs	r7, r2
    8920:	4698      	mov	r8, r3
    8922:	4e85      	ldr	r6, [pc, #532]	; (8b38 <__aeabi_dsub+0x624>)
    8924:	e67c      	b.n	8620 <__aeabi_dsub+0x10c>
    8926:	2500      	movs	r5, #0
    8928:	e780      	b.n	882c <__aeabi_dsub+0x318>
    892a:	2100      	movs	r1, #0
    892c:	e78e      	b.n	884c <__aeabi_dsub+0x338>
    892e:	0023      	movs	r3, r4
    8930:	4650      	mov	r0, sl
    8932:	4303      	orrs	r3, r0
    8934:	2e00      	cmp	r6, #0
    8936:	d000      	beq.n	893a <__aeabi_dsub+0x426>
    8938:	e0a8      	b.n	8a8c <__aeabi_dsub+0x578>
    893a:	2b00      	cmp	r3, #0
    893c:	d100      	bne.n	8940 <__aeabi_dsub+0x42c>
    893e:	e0de      	b.n	8afe <__aeabi_dsub+0x5ea>
    8940:	000b      	movs	r3, r1
    8942:	4313      	orrs	r3, r2
    8944:	d100      	bne.n	8948 <__aeabi_dsub+0x434>
    8946:	e66b      	b.n	8620 <__aeabi_dsub+0x10c>
    8948:	4452      	add	r2, sl
    894a:	4552      	cmp	r2, sl
    894c:	4180      	sbcs	r0, r0
    894e:	1864      	adds	r4, r4, r1
    8950:	4240      	negs	r0, r0
    8952:	1824      	adds	r4, r4, r0
    8954:	0017      	movs	r7, r2
    8956:	0223      	lsls	r3, r4, #8
    8958:	d400      	bmi.n	895c <__aeabi_dsub+0x448>
    895a:	e6fd      	b.n	8758 <__aeabi_dsub+0x244>
    895c:	4b77      	ldr	r3, [pc, #476]	; (8b3c <__aeabi_dsub+0x628>)
    895e:	4666      	mov	r6, ip
    8960:	401c      	ands	r4, r3
    8962:	e65d      	b.n	8620 <__aeabi_dsub+0x10c>
    8964:	0025      	movs	r5, r4
    8966:	4650      	mov	r0, sl
    8968:	4305      	orrs	r5, r0
    896a:	2e00      	cmp	r6, #0
    896c:	d1cf      	bne.n	890e <__aeabi_dsub+0x3fa>
    896e:	2d00      	cmp	r5, #0
    8970:	d14f      	bne.n	8a12 <__aeabi_dsub+0x4fe>
    8972:	000c      	movs	r4, r1
    8974:	4314      	orrs	r4, r2
    8976:	d100      	bne.n	897a <__aeabi_dsub+0x466>
    8978:	e0a0      	b.n	8abc <__aeabi_dsub+0x5a8>
    897a:	000c      	movs	r4, r1
    897c:	0017      	movs	r7, r2
    897e:	4698      	mov	r8, r3
    8980:	e64e      	b.n	8620 <__aeabi_dsub+0x10c>
    8982:	4666      	mov	r6, ip
    8984:	2400      	movs	r4, #0
    8986:	2700      	movs	r7, #0
    8988:	e685      	b.n	8696 <__aeabi_dsub+0x182>
    898a:	001f      	movs	r7, r3
    898c:	0008      	movs	r0, r1
    898e:	3f20      	subs	r7, #32
    8990:	40f8      	lsrs	r0, r7
    8992:	0007      	movs	r7, r0
    8994:	2b20      	cmp	r3, #32
    8996:	d100      	bne.n	899a <__aeabi_dsub+0x486>
    8998:	e08e      	b.n	8ab8 <__aeabi_dsub+0x5a4>
    899a:	2040      	movs	r0, #64	; 0x40
    899c:	1ac3      	subs	r3, r0, r3
    899e:	4099      	lsls	r1, r3
    89a0:	430a      	orrs	r2, r1
    89a2:	1e51      	subs	r1, r2, #1
    89a4:	418a      	sbcs	r2, r1
    89a6:	2100      	movs	r1, #0
    89a8:	4317      	orrs	r7, r2
    89aa:	e692      	b.n	86d2 <__aeabi_dsub+0x1be>
    89ac:	2e00      	cmp	r6, #0
    89ae:	d114      	bne.n	89da <__aeabi_dsub+0x4c6>
    89b0:	0026      	movs	r6, r4
    89b2:	4650      	mov	r0, sl
    89b4:	4306      	orrs	r6, r0
    89b6:	d062      	beq.n	8a7e <__aeabi_dsub+0x56a>
    89b8:	43db      	mvns	r3, r3
    89ba:	2b00      	cmp	r3, #0
    89bc:	d15c      	bne.n	8a78 <__aeabi_dsub+0x564>
    89be:	1887      	adds	r7, r0, r2
    89c0:	4297      	cmp	r7, r2
    89c2:	4192      	sbcs	r2, r2
    89c4:	1864      	adds	r4, r4, r1
    89c6:	4252      	negs	r2, r2
    89c8:	18a4      	adds	r4, r4, r2
    89ca:	4666      	mov	r6, ip
    89cc:	e687      	b.n	86de <__aeabi_dsub+0x1ca>
    89ce:	4650      	mov	r0, sl
    89d0:	4320      	orrs	r0, r4
    89d2:	1e44      	subs	r4, r0, #1
    89d4:	41a0      	sbcs	r0, r4
    89d6:	2400      	movs	r4, #0
    89d8:	e760      	b.n	889c <__aeabi_dsub+0x388>
    89da:	4e57      	ldr	r6, [pc, #348]	; (8b38 <__aeabi_dsub+0x624>)
    89dc:	45b4      	cmp	ip, r6
    89de:	d04e      	beq.n	8a7e <__aeabi_dsub+0x56a>
    89e0:	2680      	movs	r6, #128	; 0x80
    89e2:	0436      	lsls	r6, r6, #16
    89e4:	425b      	negs	r3, r3
    89e6:	4334      	orrs	r4, r6
    89e8:	2b38      	cmp	r3, #56	; 0x38
    89ea:	dd00      	ble.n	89ee <__aeabi_dsub+0x4da>
    89ec:	e07f      	b.n	8aee <__aeabi_dsub+0x5da>
    89ee:	2b1f      	cmp	r3, #31
    89f0:	dd00      	ble.n	89f4 <__aeabi_dsub+0x4e0>
    89f2:	e08b      	b.n	8b0c <__aeabi_dsub+0x5f8>
    89f4:	2620      	movs	r6, #32
    89f6:	0027      	movs	r7, r4
    89f8:	4650      	mov	r0, sl
    89fa:	1af6      	subs	r6, r6, r3
    89fc:	40b7      	lsls	r7, r6
    89fe:	40d8      	lsrs	r0, r3
    8a00:	4307      	orrs	r7, r0
    8a02:	4650      	mov	r0, sl
    8a04:	40b0      	lsls	r0, r6
    8a06:	1e46      	subs	r6, r0, #1
    8a08:	41b0      	sbcs	r0, r6
    8a0a:	4307      	orrs	r7, r0
    8a0c:	40dc      	lsrs	r4, r3
    8a0e:	18bf      	adds	r7, r7, r2
    8a10:	e7d6      	b.n	89c0 <__aeabi_dsub+0x4ac>
    8a12:	000d      	movs	r5, r1
    8a14:	4315      	orrs	r5, r2
    8a16:	d100      	bne.n	8a1a <__aeabi_dsub+0x506>
    8a18:	e602      	b.n	8620 <__aeabi_dsub+0x10c>
    8a1a:	4650      	mov	r0, sl
    8a1c:	1a80      	subs	r0, r0, r2
    8a1e:	4582      	cmp	sl, r0
    8a20:	41bf      	sbcs	r7, r7
    8a22:	1a65      	subs	r5, r4, r1
    8a24:	427f      	negs	r7, r7
    8a26:	1bed      	subs	r5, r5, r7
    8a28:	4684      	mov	ip, r0
    8a2a:	0228      	lsls	r0, r5, #8
    8a2c:	d400      	bmi.n	8a30 <__aeabi_dsub+0x51c>
    8a2e:	e68d      	b.n	874c <__aeabi_dsub+0x238>
    8a30:	4650      	mov	r0, sl
    8a32:	1a17      	subs	r7, r2, r0
    8a34:	42ba      	cmp	r2, r7
    8a36:	4192      	sbcs	r2, r2
    8a38:	1b0c      	subs	r4, r1, r4
    8a3a:	4252      	negs	r2, r2
    8a3c:	1aa4      	subs	r4, r4, r2
    8a3e:	4698      	mov	r8, r3
    8a40:	e5ee      	b.n	8620 <__aeabi_dsub+0x10c>
    8a42:	000d      	movs	r5, r1
    8a44:	4315      	orrs	r5, r2
    8a46:	d100      	bne.n	8a4a <__aeabi_dsub+0x536>
    8a48:	e76b      	b.n	8922 <__aeabi_dsub+0x40e>
    8a4a:	4650      	mov	r0, sl
    8a4c:	0767      	lsls	r7, r4, #29
    8a4e:	08c0      	lsrs	r0, r0, #3
    8a50:	4307      	orrs	r7, r0
    8a52:	2080      	movs	r0, #128	; 0x80
    8a54:	08e4      	lsrs	r4, r4, #3
    8a56:	0300      	lsls	r0, r0, #12
    8a58:	4204      	tst	r4, r0
    8a5a:	d007      	beq.n	8a6c <__aeabi_dsub+0x558>
    8a5c:	08cd      	lsrs	r5, r1, #3
    8a5e:	4205      	tst	r5, r0
    8a60:	d104      	bne.n	8a6c <__aeabi_dsub+0x558>
    8a62:	002c      	movs	r4, r5
    8a64:	4698      	mov	r8, r3
    8a66:	08d7      	lsrs	r7, r2, #3
    8a68:	0749      	lsls	r1, r1, #29
    8a6a:	430f      	orrs	r7, r1
    8a6c:	0f7b      	lsrs	r3, r7, #29
    8a6e:	00e4      	lsls	r4, r4, #3
    8a70:	431c      	orrs	r4, r3
    8a72:	00ff      	lsls	r7, r7, #3
    8a74:	4e30      	ldr	r6, [pc, #192]	; (8b38 <__aeabi_dsub+0x624>)
    8a76:	e5d3      	b.n	8620 <__aeabi_dsub+0x10c>
    8a78:	4e2f      	ldr	r6, [pc, #188]	; (8b38 <__aeabi_dsub+0x624>)
    8a7a:	45b4      	cmp	ip, r6
    8a7c:	d1b4      	bne.n	89e8 <__aeabi_dsub+0x4d4>
    8a7e:	000c      	movs	r4, r1
    8a80:	0017      	movs	r7, r2
    8a82:	4666      	mov	r6, ip
    8a84:	e5cc      	b.n	8620 <__aeabi_dsub+0x10c>
    8a86:	2700      	movs	r7, #0
    8a88:	2400      	movs	r4, #0
    8a8a:	e5e8      	b.n	865e <__aeabi_dsub+0x14a>
    8a8c:	2b00      	cmp	r3, #0
    8a8e:	d039      	beq.n	8b04 <__aeabi_dsub+0x5f0>
    8a90:	000b      	movs	r3, r1
    8a92:	4313      	orrs	r3, r2
    8a94:	d100      	bne.n	8a98 <__aeabi_dsub+0x584>
    8a96:	e744      	b.n	8922 <__aeabi_dsub+0x40e>
    8a98:	08c0      	lsrs	r0, r0, #3
    8a9a:	0767      	lsls	r7, r4, #29
    8a9c:	4307      	orrs	r7, r0
    8a9e:	2080      	movs	r0, #128	; 0x80
    8aa0:	08e4      	lsrs	r4, r4, #3
    8aa2:	0300      	lsls	r0, r0, #12
    8aa4:	4204      	tst	r4, r0
    8aa6:	d0e1      	beq.n	8a6c <__aeabi_dsub+0x558>
    8aa8:	08cb      	lsrs	r3, r1, #3
    8aaa:	4203      	tst	r3, r0
    8aac:	d1de      	bne.n	8a6c <__aeabi_dsub+0x558>
    8aae:	08d7      	lsrs	r7, r2, #3
    8ab0:	0749      	lsls	r1, r1, #29
    8ab2:	430f      	orrs	r7, r1
    8ab4:	001c      	movs	r4, r3
    8ab6:	e7d9      	b.n	8a6c <__aeabi_dsub+0x558>
    8ab8:	2100      	movs	r1, #0
    8aba:	e771      	b.n	89a0 <__aeabi_dsub+0x48c>
    8abc:	2500      	movs	r5, #0
    8abe:	2700      	movs	r7, #0
    8ac0:	e5e9      	b.n	8696 <__aeabi_dsub+0x182>
    8ac2:	002e      	movs	r6, r5
    8ac4:	0027      	movs	r7, r4
    8ac6:	3e20      	subs	r6, #32
    8ac8:	40f7      	lsrs	r7, r6
    8aca:	2d20      	cmp	r5, #32
    8acc:	d02f      	beq.n	8b2e <__aeabi_dsub+0x61a>
    8ace:	2640      	movs	r6, #64	; 0x40
    8ad0:	1b75      	subs	r5, r6, r5
    8ad2:	40ac      	lsls	r4, r5
    8ad4:	4650      	mov	r0, sl
    8ad6:	4320      	orrs	r0, r4
    8ad8:	1e44      	subs	r4, r0, #1
    8ada:	41a0      	sbcs	r0, r4
    8adc:	2400      	movs	r4, #0
    8ade:	4338      	orrs	r0, r7
    8ae0:	e6dc      	b.n	889c <__aeabi_dsub+0x388>
    8ae2:	2480      	movs	r4, #128	; 0x80
    8ae4:	2500      	movs	r5, #0
    8ae6:	0324      	lsls	r4, r4, #12
    8ae8:	4e13      	ldr	r6, [pc, #76]	; (8b38 <__aeabi_dsub+0x624>)
    8aea:	2700      	movs	r7, #0
    8aec:	e5d3      	b.n	8696 <__aeabi_dsub+0x182>
    8aee:	4650      	mov	r0, sl
    8af0:	4320      	orrs	r0, r4
    8af2:	0007      	movs	r7, r0
    8af4:	1e78      	subs	r0, r7, #1
    8af6:	4187      	sbcs	r7, r0
    8af8:	2400      	movs	r4, #0
    8afa:	18bf      	adds	r7, r7, r2
    8afc:	e760      	b.n	89c0 <__aeabi_dsub+0x4ac>
    8afe:	000c      	movs	r4, r1
    8b00:	0017      	movs	r7, r2
    8b02:	e58d      	b.n	8620 <__aeabi_dsub+0x10c>
    8b04:	000c      	movs	r4, r1
    8b06:	0017      	movs	r7, r2
    8b08:	4e0b      	ldr	r6, [pc, #44]	; (8b38 <__aeabi_dsub+0x624>)
    8b0a:	e589      	b.n	8620 <__aeabi_dsub+0x10c>
    8b0c:	001e      	movs	r6, r3
    8b0e:	0027      	movs	r7, r4
    8b10:	3e20      	subs	r6, #32
    8b12:	40f7      	lsrs	r7, r6
    8b14:	2b20      	cmp	r3, #32
    8b16:	d00c      	beq.n	8b32 <__aeabi_dsub+0x61e>
    8b18:	2640      	movs	r6, #64	; 0x40
    8b1a:	1af3      	subs	r3, r6, r3
    8b1c:	409c      	lsls	r4, r3
    8b1e:	4650      	mov	r0, sl
    8b20:	4320      	orrs	r0, r4
    8b22:	1e44      	subs	r4, r0, #1
    8b24:	41a0      	sbcs	r0, r4
    8b26:	4307      	orrs	r7, r0
    8b28:	2400      	movs	r4, #0
    8b2a:	18bf      	adds	r7, r7, r2
    8b2c:	e748      	b.n	89c0 <__aeabi_dsub+0x4ac>
    8b2e:	2400      	movs	r4, #0
    8b30:	e7d0      	b.n	8ad4 <__aeabi_dsub+0x5c0>
    8b32:	2400      	movs	r4, #0
    8b34:	e7f3      	b.n	8b1e <__aeabi_dsub+0x60a>
    8b36:	46c0      	nop			; (mov r8, r8)
    8b38:	000007ff 	.word	0x000007ff
    8b3c:	ff7fffff 	.word	0xff7fffff

00008b40 <__aeabi_d2iz>:
    8b40:	b530      	push	{r4, r5, lr}
    8b42:	4d13      	ldr	r5, [pc, #76]	; (8b90 <__aeabi_d2iz+0x50>)
    8b44:	030a      	lsls	r2, r1, #12
    8b46:	004b      	lsls	r3, r1, #1
    8b48:	0b12      	lsrs	r2, r2, #12
    8b4a:	0d5b      	lsrs	r3, r3, #21
    8b4c:	0fc9      	lsrs	r1, r1, #31
    8b4e:	2400      	movs	r4, #0
    8b50:	42ab      	cmp	r3, r5
    8b52:	dd10      	ble.n	8b76 <__aeabi_d2iz+0x36>
    8b54:	4c0f      	ldr	r4, [pc, #60]	; (8b94 <__aeabi_d2iz+0x54>)
    8b56:	42a3      	cmp	r3, r4
    8b58:	dc0f      	bgt.n	8b7a <__aeabi_d2iz+0x3a>
    8b5a:	2480      	movs	r4, #128	; 0x80
    8b5c:	4d0e      	ldr	r5, [pc, #56]	; (8b98 <__aeabi_d2iz+0x58>)
    8b5e:	0364      	lsls	r4, r4, #13
    8b60:	4322      	orrs	r2, r4
    8b62:	1aed      	subs	r5, r5, r3
    8b64:	2d1f      	cmp	r5, #31
    8b66:	dd0b      	ble.n	8b80 <__aeabi_d2iz+0x40>
    8b68:	480c      	ldr	r0, [pc, #48]	; (8b9c <__aeabi_d2iz+0x5c>)
    8b6a:	1ac3      	subs	r3, r0, r3
    8b6c:	40da      	lsrs	r2, r3
    8b6e:	4254      	negs	r4, r2
    8b70:	2900      	cmp	r1, #0
    8b72:	d100      	bne.n	8b76 <__aeabi_d2iz+0x36>
    8b74:	0014      	movs	r4, r2
    8b76:	0020      	movs	r0, r4
    8b78:	bd30      	pop	{r4, r5, pc}
    8b7a:	4b09      	ldr	r3, [pc, #36]	; (8ba0 <__aeabi_d2iz+0x60>)
    8b7c:	18cc      	adds	r4, r1, r3
    8b7e:	e7fa      	b.n	8b76 <__aeabi_d2iz+0x36>
    8b80:	4c08      	ldr	r4, [pc, #32]	; (8ba4 <__aeabi_d2iz+0x64>)
    8b82:	40e8      	lsrs	r0, r5
    8b84:	46a4      	mov	ip, r4
    8b86:	4463      	add	r3, ip
    8b88:	409a      	lsls	r2, r3
    8b8a:	4302      	orrs	r2, r0
    8b8c:	e7ef      	b.n	8b6e <__aeabi_d2iz+0x2e>
    8b8e:	46c0      	nop			; (mov r8, r8)
    8b90:	000003fe 	.word	0x000003fe
    8b94:	0000041d 	.word	0x0000041d
    8b98:	00000433 	.word	0x00000433
    8b9c:	00000413 	.word	0x00000413
    8ba0:	7fffffff 	.word	0x7fffffff
    8ba4:	fffffbed 	.word	0xfffffbed

00008ba8 <__aeabi_ui2d>:
    8ba8:	b510      	push	{r4, lr}
    8baa:	1e04      	subs	r4, r0, #0
    8bac:	d028      	beq.n	8c00 <__aeabi_ui2d+0x58>
    8bae:	f000 f833 	bl	8c18 <__clzsi2>
    8bb2:	4b15      	ldr	r3, [pc, #84]	; (8c08 <__aeabi_ui2d+0x60>)
    8bb4:	4a15      	ldr	r2, [pc, #84]	; (8c0c <__aeabi_ui2d+0x64>)
    8bb6:	1a1b      	subs	r3, r3, r0
    8bb8:	1ad2      	subs	r2, r2, r3
    8bba:	2a1f      	cmp	r2, #31
    8bbc:	dd15      	ble.n	8bea <__aeabi_ui2d+0x42>
    8bbe:	4a14      	ldr	r2, [pc, #80]	; (8c10 <__aeabi_ui2d+0x68>)
    8bc0:	1ad2      	subs	r2, r2, r3
    8bc2:	4094      	lsls	r4, r2
    8bc4:	2200      	movs	r2, #0
    8bc6:	0324      	lsls	r4, r4, #12
    8bc8:	055b      	lsls	r3, r3, #21
    8bca:	0b24      	lsrs	r4, r4, #12
    8bcc:	0d5b      	lsrs	r3, r3, #21
    8bce:	2100      	movs	r1, #0
    8bd0:	0010      	movs	r0, r2
    8bd2:	0324      	lsls	r4, r4, #12
    8bd4:	0d0a      	lsrs	r2, r1, #20
    8bd6:	0b24      	lsrs	r4, r4, #12
    8bd8:	0512      	lsls	r2, r2, #20
    8bda:	4322      	orrs	r2, r4
    8bdc:	4c0d      	ldr	r4, [pc, #52]	; (8c14 <__aeabi_ui2d+0x6c>)
    8bde:	051b      	lsls	r3, r3, #20
    8be0:	4022      	ands	r2, r4
    8be2:	4313      	orrs	r3, r2
    8be4:	005b      	lsls	r3, r3, #1
    8be6:	0859      	lsrs	r1, r3, #1
    8be8:	bd10      	pop	{r4, pc}
    8bea:	0021      	movs	r1, r4
    8bec:	4091      	lsls	r1, r2
    8bee:	000a      	movs	r2, r1
    8bf0:	210b      	movs	r1, #11
    8bf2:	1a08      	subs	r0, r1, r0
    8bf4:	40c4      	lsrs	r4, r0
    8bf6:	055b      	lsls	r3, r3, #21
    8bf8:	0324      	lsls	r4, r4, #12
    8bfa:	0b24      	lsrs	r4, r4, #12
    8bfc:	0d5b      	lsrs	r3, r3, #21
    8bfe:	e7e6      	b.n	8bce <__aeabi_ui2d+0x26>
    8c00:	2300      	movs	r3, #0
    8c02:	2400      	movs	r4, #0
    8c04:	2200      	movs	r2, #0
    8c06:	e7e2      	b.n	8bce <__aeabi_ui2d+0x26>
    8c08:	0000041e 	.word	0x0000041e
    8c0c:	00000433 	.word	0x00000433
    8c10:	00000413 	.word	0x00000413
    8c14:	800fffff 	.word	0x800fffff

00008c18 <__clzsi2>:
    8c18:	211c      	movs	r1, #28
    8c1a:	2301      	movs	r3, #1
    8c1c:	041b      	lsls	r3, r3, #16
    8c1e:	4298      	cmp	r0, r3
    8c20:	d301      	bcc.n	8c26 <__clzsi2+0xe>
    8c22:	0c00      	lsrs	r0, r0, #16
    8c24:	3910      	subs	r1, #16
    8c26:	0a1b      	lsrs	r3, r3, #8
    8c28:	4298      	cmp	r0, r3
    8c2a:	d301      	bcc.n	8c30 <__clzsi2+0x18>
    8c2c:	0a00      	lsrs	r0, r0, #8
    8c2e:	3908      	subs	r1, #8
    8c30:	091b      	lsrs	r3, r3, #4
    8c32:	4298      	cmp	r0, r3
    8c34:	d301      	bcc.n	8c3a <__clzsi2+0x22>
    8c36:	0900      	lsrs	r0, r0, #4
    8c38:	3904      	subs	r1, #4
    8c3a:	a202      	add	r2, pc, #8	; (adr r2, 8c44 <__clzsi2+0x2c>)
    8c3c:	5c10      	ldrb	r0, [r2, r0]
    8c3e:	1840      	adds	r0, r0, r1
    8c40:	4770      	bx	lr
    8c42:	46c0      	nop			; (mov r8, r8)
    8c44:	02020304 	.word	0x02020304
    8c48:	01010101 	.word	0x01010101
	...

00008c54 <__libc_init_array>:
    8c54:	b570      	push	{r4, r5, r6, lr}
    8c56:	2600      	movs	r6, #0
    8c58:	4d0c      	ldr	r5, [pc, #48]	; (8c8c <__libc_init_array+0x38>)
    8c5a:	4c0d      	ldr	r4, [pc, #52]	; (8c90 <__libc_init_array+0x3c>)
    8c5c:	1b64      	subs	r4, r4, r5
    8c5e:	10a4      	asrs	r4, r4, #2
    8c60:	42a6      	cmp	r6, r4
    8c62:	d109      	bne.n	8c78 <__libc_init_array+0x24>
    8c64:	2600      	movs	r6, #0
    8c66:	f001 ffbb 	bl	abe0 <_init>
    8c6a:	4d0a      	ldr	r5, [pc, #40]	; (8c94 <__libc_init_array+0x40>)
    8c6c:	4c0a      	ldr	r4, [pc, #40]	; (8c98 <__libc_init_array+0x44>)
    8c6e:	1b64      	subs	r4, r4, r5
    8c70:	10a4      	asrs	r4, r4, #2
    8c72:	42a6      	cmp	r6, r4
    8c74:	d105      	bne.n	8c82 <__libc_init_array+0x2e>
    8c76:	bd70      	pop	{r4, r5, r6, pc}
    8c78:	00b3      	lsls	r3, r6, #2
    8c7a:	58eb      	ldr	r3, [r5, r3]
    8c7c:	4798      	blx	r3
    8c7e:	3601      	adds	r6, #1
    8c80:	e7ee      	b.n	8c60 <__libc_init_array+0xc>
    8c82:	00b3      	lsls	r3, r6, #2
    8c84:	58eb      	ldr	r3, [r5, r3]
    8c86:	4798      	blx	r3
    8c88:	3601      	adds	r6, #1
    8c8a:	e7f2      	b.n	8c72 <__libc_init_array+0x1e>
    8c8c:	0000abec 	.word	0x0000abec
    8c90:	0000abec 	.word	0x0000abec
    8c94:	0000abec 	.word	0x0000abec
    8c98:	0000abf0 	.word	0x0000abf0

00008c9c <malloc>:
    8c9c:	b510      	push	{r4, lr}
    8c9e:	4b03      	ldr	r3, [pc, #12]	; (8cac <malloc+0x10>)
    8ca0:	0001      	movs	r1, r0
    8ca2:	6818      	ldr	r0, [r3, #0]
    8ca4:	f000 f860 	bl	8d68 <_malloc_r>
    8ca8:	bd10      	pop	{r4, pc}
    8caa:	46c0      	nop			; (mov r8, r8)
    8cac:	20000030 	.word	0x20000030

00008cb0 <memcpy>:
    8cb0:	2300      	movs	r3, #0
    8cb2:	b510      	push	{r4, lr}
    8cb4:	429a      	cmp	r2, r3
    8cb6:	d100      	bne.n	8cba <memcpy+0xa>
    8cb8:	bd10      	pop	{r4, pc}
    8cba:	5ccc      	ldrb	r4, [r1, r3]
    8cbc:	54c4      	strb	r4, [r0, r3]
    8cbe:	3301      	adds	r3, #1
    8cc0:	e7f8      	b.n	8cb4 <memcpy+0x4>

00008cc2 <memset>:
    8cc2:	0003      	movs	r3, r0
    8cc4:	1882      	adds	r2, r0, r2
    8cc6:	4293      	cmp	r3, r2
    8cc8:	d100      	bne.n	8ccc <memset+0xa>
    8cca:	4770      	bx	lr
    8ccc:	7019      	strb	r1, [r3, #0]
    8cce:	3301      	adds	r3, #1
    8cd0:	e7f9      	b.n	8cc6 <memset+0x4>
	...

00008cd4 <_free_r>:
    8cd4:	b570      	push	{r4, r5, r6, lr}
    8cd6:	0005      	movs	r5, r0
    8cd8:	2900      	cmp	r1, #0
    8cda:	d010      	beq.n	8cfe <_free_r+0x2a>
    8cdc:	1f0c      	subs	r4, r1, #4
    8cde:	6823      	ldr	r3, [r4, #0]
    8ce0:	2b00      	cmp	r3, #0
    8ce2:	da00      	bge.n	8ce6 <_free_r+0x12>
    8ce4:	18e4      	adds	r4, r4, r3
    8ce6:	0028      	movs	r0, r5
    8ce8:	f000 f9a4 	bl	9034 <__malloc_lock>
    8cec:	4a1d      	ldr	r2, [pc, #116]	; (8d64 <_free_r+0x90>)
    8cee:	6813      	ldr	r3, [r2, #0]
    8cf0:	2b00      	cmp	r3, #0
    8cf2:	d105      	bne.n	8d00 <_free_r+0x2c>
    8cf4:	6063      	str	r3, [r4, #4]
    8cf6:	6014      	str	r4, [r2, #0]
    8cf8:	0028      	movs	r0, r5
    8cfa:	f000 f99c 	bl	9036 <__malloc_unlock>
    8cfe:	bd70      	pop	{r4, r5, r6, pc}
    8d00:	42a3      	cmp	r3, r4
    8d02:	d909      	bls.n	8d18 <_free_r+0x44>
    8d04:	6821      	ldr	r1, [r4, #0]
    8d06:	1860      	adds	r0, r4, r1
    8d08:	4283      	cmp	r3, r0
    8d0a:	d1f3      	bne.n	8cf4 <_free_r+0x20>
    8d0c:	6818      	ldr	r0, [r3, #0]
    8d0e:	685b      	ldr	r3, [r3, #4]
    8d10:	1841      	adds	r1, r0, r1
    8d12:	6021      	str	r1, [r4, #0]
    8d14:	e7ee      	b.n	8cf4 <_free_r+0x20>
    8d16:	0013      	movs	r3, r2
    8d18:	685a      	ldr	r2, [r3, #4]
    8d1a:	2a00      	cmp	r2, #0
    8d1c:	d001      	beq.n	8d22 <_free_r+0x4e>
    8d1e:	42a2      	cmp	r2, r4
    8d20:	d9f9      	bls.n	8d16 <_free_r+0x42>
    8d22:	6819      	ldr	r1, [r3, #0]
    8d24:	1858      	adds	r0, r3, r1
    8d26:	42a0      	cmp	r0, r4
    8d28:	d10b      	bne.n	8d42 <_free_r+0x6e>
    8d2a:	6820      	ldr	r0, [r4, #0]
    8d2c:	1809      	adds	r1, r1, r0
    8d2e:	1858      	adds	r0, r3, r1
    8d30:	6019      	str	r1, [r3, #0]
    8d32:	4282      	cmp	r2, r0
    8d34:	d1e0      	bne.n	8cf8 <_free_r+0x24>
    8d36:	6810      	ldr	r0, [r2, #0]
    8d38:	6852      	ldr	r2, [r2, #4]
    8d3a:	1841      	adds	r1, r0, r1
    8d3c:	6019      	str	r1, [r3, #0]
    8d3e:	605a      	str	r2, [r3, #4]
    8d40:	e7da      	b.n	8cf8 <_free_r+0x24>
    8d42:	42a0      	cmp	r0, r4
    8d44:	d902      	bls.n	8d4c <_free_r+0x78>
    8d46:	230c      	movs	r3, #12
    8d48:	602b      	str	r3, [r5, #0]
    8d4a:	e7d5      	b.n	8cf8 <_free_r+0x24>
    8d4c:	6821      	ldr	r1, [r4, #0]
    8d4e:	1860      	adds	r0, r4, r1
    8d50:	4282      	cmp	r2, r0
    8d52:	d103      	bne.n	8d5c <_free_r+0x88>
    8d54:	6810      	ldr	r0, [r2, #0]
    8d56:	6852      	ldr	r2, [r2, #4]
    8d58:	1841      	adds	r1, r0, r1
    8d5a:	6021      	str	r1, [r4, #0]
    8d5c:	6062      	str	r2, [r4, #4]
    8d5e:	605c      	str	r4, [r3, #4]
    8d60:	e7ca      	b.n	8cf8 <_free_r+0x24>
    8d62:	46c0      	nop			; (mov r8, r8)
    8d64:	2000385c 	.word	0x2000385c

00008d68 <_malloc_r>:
    8d68:	2303      	movs	r3, #3
    8d6a:	b570      	push	{r4, r5, r6, lr}
    8d6c:	1ccd      	adds	r5, r1, #3
    8d6e:	439d      	bics	r5, r3
    8d70:	3508      	adds	r5, #8
    8d72:	0006      	movs	r6, r0
    8d74:	2d0c      	cmp	r5, #12
    8d76:	d21e      	bcs.n	8db6 <_malloc_r+0x4e>
    8d78:	250c      	movs	r5, #12
    8d7a:	42a9      	cmp	r1, r5
    8d7c:	d81d      	bhi.n	8dba <_malloc_r+0x52>
    8d7e:	0030      	movs	r0, r6
    8d80:	f000 f958 	bl	9034 <__malloc_lock>
    8d84:	4a25      	ldr	r2, [pc, #148]	; (8e1c <_malloc_r+0xb4>)
    8d86:	6814      	ldr	r4, [r2, #0]
    8d88:	0021      	movs	r1, r4
    8d8a:	2900      	cmp	r1, #0
    8d8c:	d119      	bne.n	8dc2 <_malloc_r+0x5a>
    8d8e:	4c24      	ldr	r4, [pc, #144]	; (8e20 <_malloc_r+0xb8>)
    8d90:	6823      	ldr	r3, [r4, #0]
    8d92:	2b00      	cmp	r3, #0
    8d94:	d103      	bne.n	8d9e <_malloc_r+0x36>
    8d96:	0030      	movs	r0, r6
    8d98:	f000 f844 	bl	8e24 <_sbrk_r>
    8d9c:	6020      	str	r0, [r4, #0]
    8d9e:	0029      	movs	r1, r5
    8da0:	0030      	movs	r0, r6
    8da2:	f000 f83f 	bl	8e24 <_sbrk_r>
    8da6:	1c43      	adds	r3, r0, #1
    8da8:	d12c      	bne.n	8e04 <_malloc_r+0x9c>
    8daa:	230c      	movs	r3, #12
    8dac:	0030      	movs	r0, r6
    8dae:	6033      	str	r3, [r6, #0]
    8db0:	f000 f941 	bl	9036 <__malloc_unlock>
    8db4:	e003      	b.n	8dbe <_malloc_r+0x56>
    8db6:	2d00      	cmp	r5, #0
    8db8:	dadf      	bge.n	8d7a <_malloc_r+0x12>
    8dba:	230c      	movs	r3, #12
    8dbc:	6033      	str	r3, [r6, #0]
    8dbe:	2000      	movs	r0, #0
    8dc0:	bd70      	pop	{r4, r5, r6, pc}
    8dc2:	680b      	ldr	r3, [r1, #0]
    8dc4:	1b5b      	subs	r3, r3, r5
    8dc6:	d41a      	bmi.n	8dfe <_malloc_r+0x96>
    8dc8:	2b0b      	cmp	r3, #11
    8dca:	d903      	bls.n	8dd4 <_malloc_r+0x6c>
    8dcc:	600b      	str	r3, [r1, #0]
    8dce:	18cc      	adds	r4, r1, r3
    8dd0:	6025      	str	r5, [r4, #0]
    8dd2:	e003      	b.n	8ddc <_malloc_r+0x74>
    8dd4:	428c      	cmp	r4, r1
    8dd6:	d10e      	bne.n	8df6 <_malloc_r+0x8e>
    8dd8:	6863      	ldr	r3, [r4, #4]
    8dda:	6013      	str	r3, [r2, #0]
    8ddc:	0030      	movs	r0, r6
    8dde:	f000 f92a 	bl	9036 <__malloc_unlock>
    8de2:	0020      	movs	r0, r4
    8de4:	2207      	movs	r2, #7
    8de6:	300b      	adds	r0, #11
    8de8:	1d23      	adds	r3, r4, #4
    8dea:	4390      	bics	r0, r2
    8dec:	1ac3      	subs	r3, r0, r3
    8dee:	d0e7      	beq.n	8dc0 <_malloc_r+0x58>
    8df0:	425a      	negs	r2, r3
    8df2:	50e2      	str	r2, [r4, r3]
    8df4:	e7e4      	b.n	8dc0 <_malloc_r+0x58>
    8df6:	684b      	ldr	r3, [r1, #4]
    8df8:	6063      	str	r3, [r4, #4]
    8dfa:	000c      	movs	r4, r1
    8dfc:	e7ee      	b.n	8ddc <_malloc_r+0x74>
    8dfe:	000c      	movs	r4, r1
    8e00:	6849      	ldr	r1, [r1, #4]
    8e02:	e7c2      	b.n	8d8a <_malloc_r+0x22>
    8e04:	2303      	movs	r3, #3
    8e06:	1cc4      	adds	r4, r0, #3
    8e08:	439c      	bics	r4, r3
    8e0a:	42a0      	cmp	r0, r4
    8e0c:	d0e0      	beq.n	8dd0 <_malloc_r+0x68>
    8e0e:	1a21      	subs	r1, r4, r0
    8e10:	0030      	movs	r0, r6
    8e12:	f000 f807 	bl	8e24 <_sbrk_r>
    8e16:	1c43      	adds	r3, r0, #1
    8e18:	d1da      	bne.n	8dd0 <_malloc_r+0x68>
    8e1a:	e7c6      	b.n	8daa <_malloc_r+0x42>
    8e1c:	2000385c 	.word	0x2000385c
    8e20:	20003860 	.word	0x20003860

00008e24 <_sbrk_r>:
    8e24:	2300      	movs	r3, #0
    8e26:	b570      	push	{r4, r5, r6, lr}
    8e28:	4c06      	ldr	r4, [pc, #24]	; (8e44 <_sbrk_r+0x20>)
    8e2a:	0005      	movs	r5, r0
    8e2c:	0008      	movs	r0, r1
    8e2e:	6023      	str	r3, [r4, #0]
    8e30:	f7fd ff68 	bl	6d04 <_sbrk>
    8e34:	1c43      	adds	r3, r0, #1
    8e36:	d103      	bne.n	8e40 <_sbrk_r+0x1c>
    8e38:	6823      	ldr	r3, [r4, #0]
    8e3a:	2b00      	cmp	r3, #0
    8e3c:	d000      	beq.n	8e40 <_sbrk_r+0x1c>
    8e3e:	602b      	str	r3, [r5, #0]
    8e40:	bd70      	pop	{r4, r5, r6, pc}
    8e42:	46c0      	nop			; (mov r8, r8)
    8e44:	20004f40 	.word	0x20004f40

00008e48 <sniprintf>:
    8e48:	b40c      	push	{r2, r3}
    8e4a:	b530      	push	{r4, r5, lr}
    8e4c:	4b16      	ldr	r3, [pc, #88]	; (8ea8 <sniprintf+0x60>)
    8e4e:	b09d      	sub	sp, #116	; 0x74
    8e50:	1e0c      	subs	r4, r1, #0
    8e52:	681d      	ldr	r5, [r3, #0]
    8e54:	da08      	bge.n	8e68 <sniprintf+0x20>
    8e56:	238b      	movs	r3, #139	; 0x8b
    8e58:	2001      	movs	r0, #1
    8e5a:	602b      	str	r3, [r5, #0]
    8e5c:	4240      	negs	r0, r0
    8e5e:	b01d      	add	sp, #116	; 0x74
    8e60:	bc30      	pop	{r4, r5}
    8e62:	bc08      	pop	{r3}
    8e64:	b002      	add	sp, #8
    8e66:	4718      	bx	r3
    8e68:	2382      	movs	r3, #130	; 0x82
    8e6a:	a902      	add	r1, sp, #8
    8e6c:	009b      	lsls	r3, r3, #2
    8e6e:	818b      	strh	r3, [r1, #12]
    8e70:	2300      	movs	r3, #0
    8e72:	9002      	str	r0, [sp, #8]
    8e74:	6108      	str	r0, [r1, #16]
    8e76:	429c      	cmp	r4, r3
    8e78:	d000      	beq.n	8e7c <sniprintf+0x34>
    8e7a:	1e63      	subs	r3, r4, #1
    8e7c:	608b      	str	r3, [r1, #8]
    8e7e:	614b      	str	r3, [r1, #20]
    8e80:	2301      	movs	r3, #1
    8e82:	425b      	negs	r3, r3
    8e84:	81cb      	strh	r3, [r1, #14]
    8e86:	9a20      	ldr	r2, [sp, #128]	; 0x80
    8e88:	ab21      	add	r3, sp, #132	; 0x84
    8e8a:	0028      	movs	r0, r5
    8e8c:	9301      	str	r3, [sp, #4]
    8e8e:	f000 f935 	bl	90fc <_svfiprintf_r>
    8e92:	1c43      	adds	r3, r0, #1
    8e94:	da01      	bge.n	8e9a <sniprintf+0x52>
    8e96:	238b      	movs	r3, #139	; 0x8b
    8e98:	602b      	str	r3, [r5, #0]
    8e9a:	2c00      	cmp	r4, #0
    8e9c:	d0df      	beq.n	8e5e <sniprintf+0x16>
    8e9e:	2300      	movs	r3, #0
    8ea0:	9a02      	ldr	r2, [sp, #8]
    8ea2:	7013      	strb	r3, [r2, #0]
    8ea4:	e7db      	b.n	8e5e <sniprintf+0x16>
    8ea6:	46c0      	nop			; (mov r8, r8)
    8ea8:	20000030 	.word	0x20000030

00008eac <siprintf>:
    8eac:	b40e      	push	{r1, r2, r3}
    8eae:	b510      	push	{r4, lr}
    8eb0:	b09d      	sub	sp, #116	; 0x74
    8eb2:	a902      	add	r1, sp, #8
    8eb4:	9002      	str	r0, [sp, #8]
    8eb6:	6108      	str	r0, [r1, #16]
    8eb8:	480b      	ldr	r0, [pc, #44]	; (8ee8 <siprintf+0x3c>)
    8eba:	2482      	movs	r4, #130	; 0x82
    8ebc:	6088      	str	r0, [r1, #8]
    8ebe:	6148      	str	r0, [r1, #20]
    8ec0:	2001      	movs	r0, #1
    8ec2:	4240      	negs	r0, r0
    8ec4:	ab1f      	add	r3, sp, #124	; 0x7c
    8ec6:	81c8      	strh	r0, [r1, #14]
    8ec8:	4808      	ldr	r0, [pc, #32]	; (8eec <siprintf+0x40>)
    8eca:	cb04      	ldmia	r3!, {r2}
    8ecc:	00a4      	lsls	r4, r4, #2
    8ece:	6800      	ldr	r0, [r0, #0]
    8ed0:	9301      	str	r3, [sp, #4]
    8ed2:	818c      	strh	r4, [r1, #12]
    8ed4:	f000 f912 	bl	90fc <_svfiprintf_r>
    8ed8:	2300      	movs	r3, #0
    8eda:	9a02      	ldr	r2, [sp, #8]
    8edc:	7013      	strb	r3, [r2, #0]
    8ede:	b01d      	add	sp, #116	; 0x74
    8ee0:	bc10      	pop	{r4}
    8ee2:	bc08      	pop	{r3}
    8ee4:	b003      	add	sp, #12
    8ee6:	4718      	bx	r3
    8ee8:	7fffffff 	.word	0x7fffffff
    8eec:	20000030 	.word	0x20000030

00008ef0 <strcasecmp>:
    8ef0:	b5f8      	push	{r3, r4, r5, r6, r7, lr}
    8ef2:	0007      	movs	r7, r0
    8ef4:	000e      	movs	r6, r1
    8ef6:	783c      	ldrb	r4, [r7, #0]
    8ef8:	f000 f87c 	bl	8ff4 <__locale_ctype_ptr>
    8efc:	2203      	movs	r2, #3
    8efe:	1900      	adds	r0, r0, r4
    8f00:	7843      	ldrb	r3, [r0, #1]
    8f02:	4013      	ands	r3, r2
    8f04:	2b01      	cmp	r3, #1
    8f06:	d100      	bne.n	8f0a <strcasecmp+0x1a>
    8f08:	3420      	adds	r4, #32
    8f0a:	7835      	ldrb	r5, [r6, #0]
    8f0c:	f000 f872 	bl	8ff4 <__locale_ctype_ptr>
    8f10:	2203      	movs	r2, #3
    8f12:	1940      	adds	r0, r0, r5
    8f14:	7843      	ldrb	r3, [r0, #1]
    8f16:	4013      	ands	r3, r2
    8f18:	2b01      	cmp	r3, #1
    8f1a:	d100      	bne.n	8f1e <strcasecmp+0x2e>
    8f1c:	3520      	adds	r5, #32
    8f1e:	1b60      	subs	r0, r4, r5
    8f20:	d103      	bne.n	8f2a <strcasecmp+0x3a>
    8f22:	3701      	adds	r7, #1
    8f24:	3601      	adds	r6, #1
    8f26:	2d00      	cmp	r5, #0
    8f28:	d1e5      	bne.n	8ef6 <strcasecmp+0x6>
    8f2a:	bdf8      	pop	{r3, r4, r5, r6, r7, pc}

00008f2c <strlen>:
    8f2c:	2300      	movs	r3, #0
    8f2e:	5cc2      	ldrb	r2, [r0, r3]
    8f30:	3301      	adds	r3, #1
    8f32:	2a00      	cmp	r2, #0
    8f34:	d1fb      	bne.n	8f2e <strlen+0x2>
    8f36:	1e58      	subs	r0, r3, #1
    8f38:	4770      	bx	lr

00008f3a <strncmp>:
    8f3a:	2300      	movs	r3, #0
    8f3c:	b530      	push	{r4, r5, lr}
    8f3e:	429a      	cmp	r2, r3
    8f40:	d00a      	beq.n	8f58 <strncmp+0x1e>
    8f42:	3a01      	subs	r2, #1
    8f44:	5cc4      	ldrb	r4, [r0, r3]
    8f46:	5ccd      	ldrb	r5, [r1, r3]
    8f48:	42ac      	cmp	r4, r5
    8f4a:	d104      	bne.n	8f56 <strncmp+0x1c>
    8f4c:	429a      	cmp	r2, r3
    8f4e:	d002      	beq.n	8f56 <strncmp+0x1c>
    8f50:	3301      	adds	r3, #1
    8f52:	2c00      	cmp	r4, #0
    8f54:	d1f6      	bne.n	8f44 <strncmp+0xa>
    8f56:	1b63      	subs	r3, r4, r5
    8f58:	0018      	movs	r0, r3
    8f5a:	bd30      	pop	{r4, r5, pc}

00008f5c <strncpy>:
    8f5c:	b570      	push	{r4, r5, r6, lr}
    8f5e:	0004      	movs	r4, r0
    8f60:	2a00      	cmp	r2, #0
    8f62:	d100      	bne.n	8f66 <strncpy+0xa>
    8f64:	bd70      	pop	{r4, r5, r6, pc}
    8f66:	780d      	ldrb	r5, [r1, #0]
    8f68:	1e56      	subs	r6, r2, #1
    8f6a:	1c63      	adds	r3, r4, #1
    8f6c:	7025      	strb	r5, [r4, #0]
    8f6e:	3101      	adds	r1, #1
    8f70:	2d00      	cmp	r5, #0
    8f72:	d105      	bne.n	8f80 <strncpy+0x24>
    8f74:	18a4      	adds	r4, r4, r2
    8f76:	429c      	cmp	r4, r3
    8f78:	d0f4      	beq.n	8f64 <strncpy+0x8>
    8f7a:	701d      	strb	r5, [r3, #0]
    8f7c:	3301      	adds	r3, #1
    8f7e:	e7fa      	b.n	8f76 <strncpy+0x1a>
    8f80:	001c      	movs	r4, r3
    8f82:	0032      	movs	r2, r6
    8f84:	e7ec      	b.n	8f60 <strncpy+0x4>

00008f86 <_vsniprintf_r>:
    8f86:	b530      	push	{r4, r5, lr}
    8f88:	0014      	movs	r4, r2
    8f8a:	b09b      	sub	sp, #108	; 0x6c
    8f8c:	0005      	movs	r5, r0
    8f8e:	001a      	movs	r2, r3
    8f90:	2c00      	cmp	r4, #0
    8f92:	da05      	bge.n	8fa0 <_vsniprintf_r+0x1a>
    8f94:	238b      	movs	r3, #139	; 0x8b
    8f96:	6003      	str	r3, [r0, #0]
    8f98:	2001      	movs	r0, #1
    8f9a:	4240      	negs	r0, r0
    8f9c:	b01b      	add	sp, #108	; 0x6c
    8f9e:	bd30      	pop	{r4, r5, pc}
    8fa0:	2382      	movs	r3, #130	; 0x82
    8fa2:	4668      	mov	r0, sp
    8fa4:	009b      	lsls	r3, r3, #2
    8fa6:	8183      	strh	r3, [r0, #12]
    8fa8:	2300      	movs	r3, #0
    8faa:	9100      	str	r1, [sp, #0]
    8fac:	9104      	str	r1, [sp, #16]
    8fae:	429c      	cmp	r4, r3
    8fb0:	d000      	beq.n	8fb4 <_vsniprintf_r+0x2e>
    8fb2:	1e63      	subs	r3, r4, #1
    8fb4:	9302      	str	r3, [sp, #8]
    8fb6:	9305      	str	r3, [sp, #20]
    8fb8:	2301      	movs	r3, #1
    8fba:	4669      	mov	r1, sp
    8fbc:	425b      	negs	r3, r3
    8fbe:	81cb      	strh	r3, [r1, #14]
    8fc0:	0028      	movs	r0, r5
    8fc2:	9b1e      	ldr	r3, [sp, #120]	; 0x78
    8fc4:	f000 f89a 	bl	90fc <_svfiprintf_r>
    8fc8:	1c43      	adds	r3, r0, #1
    8fca:	da01      	bge.n	8fd0 <_vsniprintf_r+0x4a>
    8fcc:	238b      	movs	r3, #139	; 0x8b
    8fce:	602b      	str	r3, [r5, #0]
    8fd0:	2c00      	cmp	r4, #0
    8fd2:	d0e3      	beq.n	8f9c <_vsniprintf_r+0x16>
    8fd4:	2300      	movs	r3, #0
    8fd6:	9a00      	ldr	r2, [sp, #0]
    8fd8:	7013      	strb	r3, [r2, #0]
    8fda:	e7df      	b.n	8f9c <_vsniprintf_r+0x16>

00008fdc <vsniprintf>:
    8fdc:	b507      	push	{r0, r1, r2, lr}
    8fde:	9300      	str	r3, [sp, #0]
    8fe0:	0013      	movs	r3, r2
    8fe2:	000a      	movs	r2, r1
    8fe4:	0001      	movs	r1, r0
    8fe6:	4802      	ldr	r0, [pc, #8]	; (8ff0 <vsniprintf+0x14>)
    8fe8:	6800      	ldr	r0, [r0, #0]
    8fea:	f7ff ffcc 	bl	8f86 <_vsniprintf_r>
    8fee:	bd0e      	pop	{r1, r2, r3, pc}
    8ff0:	20000030 	.word	0x20000030

00008ff4 <__locale_ctype_ptr>:
    8ff4:	4b04      	ldr	r3, [pc, #16]	; (9008 <__locale_ctype_ptr+0x14>)
    8ff6:	681b      	ldr	r3, [r3, #0]
    8ff8:	6a1b      	ldr	r3, [r3, #32]
    8ffa:	2b00      	cmp	r3, #0
    8ffc:	d100      	bne.n	9000 <__locale_ctype_ptr+0xc>
    8ffe:	4b03      	ldr	r3, [pc, #12]	; (900c <__locale_ctype_ptr+0x18>)
    9000:	33ec      	adds	r3, #236	; 0xec
    9002:	6818      	ldr	r0, [r3, #0]
    9004:	4770      	bx	lr
    9006:	46c0      	nop			; (mov r8, r8)
    9008:	20000030 	.word	0x20000030
    900c:	20000094 	.word	0x20000094

00009010 <__ascii_mbtowc>:
    9010:	b082      	sub	sp, #8
    9012:	2900      	cmp	r1, #0
    9014:	d100      	bne.n	9018 <__ascii_mbtowc+0x8>
    9016:	a901      	add	r1, sp, #4
    9018:	1e10      	subs	r0, r2, #0
    901a:	d006      	beq.n	902a <__ascii_mbtowc+0x1a>
    901c:	2b00      	cmp	r3, #0
    901e:	d006      	beq.n	902e <__ascii_mbtowc+0x1e>
    9020:	7813      	ldrb	r3, [r2, #0]
    9022:	600b      	str	r3, [r1, #0]
    9024:	7810      	ldrb	r0, [r2, #0]
    9026:	1e43      	subs	r3, r0, #1
    9028:	4198      	sbcs	r0, r3
    902a:	b002      	add	sp, #8
    902c:	4770      	bx	lr
    902e:	2002      	movs	r0, #2
    9030:	4240      	negs	r0, r0
    9032:	e7fa      	b.n	902a <__ascii_mbtowc+0x1a>

00009034 <__malloc_lock>:
    9034:	4770      	bx	lr

00009036 <__malloc_unlock>:
    9036:	4770      	bx	lr

00009038 <__ssputs_r>:
    9038:	b5f0      	push	{r4, r5, r6, r7, lr}
    903a:	688e      	ldr	r6, [r1, #8]
    903c:	b085      	sub	sp, #20
    903e:	0007      	movs	r7, r0
    9040:	000c      	movs	r4, r1
    9042:	9203      	str	r2, [sp, #12]
    9044:	9301      	str	r3, [sp, #4]
    9046:	429e      	cmp	r6, r3
    9048:	d839      	bhi.n	90be <__ssputs_r+0x86>
    904a:	2390      	movs	r3, #144	; 0x90
    904c:	898a      	ldrh	r2, [r1, #12]
    904e:	00db      	lsls	r3, r3, #3
    9050:	421a      	tst	r2, r3
    9052:	d034      	beq.n	90be <__ssputs_r+0x86>
    9054:	2503      	movs	r5, #3
    9056:	6909      	ldr	r1, [r1, #16]
    9058:	6823      	ldr	r3, [r4, #0]
    905a:	1a5b      	subs	r3, r3, r1
    905c:	9302      	str	r3, [sp, #8]
    905e:	6963      	ldr	r3, [r4, #20]
    9060:	9802      	ldr	r0, [sp, #8]
    9062:	435d      	muls	r5, r3
    9064:	0feb      	lsrs	r3, r5, #31
    9066:	195d      	adds	r5, r3, r5
    9068:	9b01      	ldr	r3, [sp, #4]
    906a:	106d      	asrs	r5, r5, #1
    906c:	3301      	adds	r3, #1
    906e:	181b      	adds	r3, r3, r0
    9070:	42ab      	cmp	r3, r5
    9072:	d900      	bls.n	9076 <__ssputs_r+0x3e>
    9074:	001d      	movs	r5, r3
    9076:	0553      	lsls	r3, r2, #21
    9078:	d532      	bpl.n	90e0 <__ssputs_r+0xa8>
    907a:	0029      	movs	r1, r5
    907c:	0038      	movs	r0, r7
    907e:	f7ff fe73 	bl	8d68 <_malloc_r>
    9082:	1e06      	subs	r6, r0, #0
    9084:	d109      	bne.n	909a <__ssputs_r+0x62>
    9086:	230c      	movs	r3, #12
    9088:	603b      	str	r3, [r7, #0]
    908a:	2340      	movs	r3, #64	; 0x40
    908c:	2001      	movs	r0, #1
    908e:	89a2      	ldrh	r2, [r4, #12]
    9090:	4240      	negs	r0, r0
    9092:	4313      	orrs	r3, r2
    9094:	81a3      	strh	r3, [r4, #12]
    9096:	b005      	add	sp, #20
    9098:	bdf0      	pop	{r4, r5, r6, r7, pc}
    909a:	9a02      	ldr	r2, [sp, #8]
    909c:	6921      	ldr	r1, [r4, #16]
    909e:	f7ff fe07 	bl	8cb0 <memcpy>
    90a2:	89a3      	ldrh	r3, [r4, #12]
    90a4:	4a14      	ldr	r2, [pc, #80]	; (90f8 <__ssputs_r+0xc0>)
    90a6:	401a      	ands	r2, r3
    90a8:	2380      	movs	r3, #128	; 0x80
    90aa:	4313      	orrs	r3, r2
    90ac:	81a3      	strh	r3, [r4, #12]
    90ae:	9b02      	ldr	r3, [sp, #8]
    90b0:	6126      	str	r6, [r4, #16]
    90b2:	18f6      	adds	r6, r6, r3
    90b4:	6026      	str	r6, [r4, #0]
    90b6:	6165      	str	r5, [r4, #20]
    90b8:	9e01      	ldr	r6, [sp, #4]
    90ba:	1aed      	subs	r5, r5, r3
    90bc:	60a5      	str	r5, [r4, #8]
    90be:	9b01      	ldr	r3, [sp, #4]
    90c0:	42b3      	cmp	r3, r6
    90c2:	d200      	bcs.n	90c6 <__ssputs_r+0x8e>
    90c4:	001e      	movs	r6, r3
    90c6:	0032      	movs	r2, r6
    90c8:	9903      	ldr	r1, [sp, #12]
    90ca:	6820      	ldr	r0, [r4, #0]
    90cc:	f000 fab9 	bl	9642 <memmove>
    90d0:	68a3      	ldr	r3, [r4, #8]
    90d2:	2000      	movs	r0, #0
    90d4:	1b9b      	subs	r3, r3, r6
    90d6:	60a3      	str	r3, [r4, #8]
    90d8:	6823      	ldr	r3, [r4, #0]
    90da:	199e      	adds	r6, r3, r6
    90dc:	6026      	str	r6, [r4, #0]
    90de:	e7da      	b.n	9096 <__ssputs_r+0x5e>
    90e0:	002a      	movs	r2, r5
    90e2:	0038      	movs	r0, r7
    90e4:	f000 fabf 	bl	9666 <_realloc_r>
    90e8:	1e06      	subs	r6, r0, #0
    90ea:	d1e0      	bne.n	90ae <__ssputs_r+0x76>
    90ec:	6921      	ldr	r1, [r4, #16]
    90ee:	0038      	movs	r0, r7
    90f0:	f7ff fdf0 	bl	8cd4 <_free_r>
    90f4:	e7c7      	b.n	9086 <__ssputs_r+0x4e>
    90f6:	46c0      	nop			; (mov r8, r8)
    90f8:	fffffb7f 	.word	0xfffffb7f

000090fc <_svfiprintf_r>:
    90fc:	b5f0      	push	{r4, r5, r6, r7, lr}
    90fe:	b09f      	sub	sp, #124	; 0x7c
    9100:	9002      	str	r0, [sp, #8]
    9102:	9305      	str	r3, [sp, #20]
    9104:	898b      	ldrh	r3, [r1, #12]
    9106:	000f      	movs	r7, r1
    9108:	0016      	movs	r6, r2
    910a:	061b      	lsls	r3, r3, #24
    910c:	d511      	bpl.n	9132 <_svfiprintf_r+0x36>
    910e:	690b      	ldr	r3, [r1, #16]
    9110:	2b00      	cmp	r3, #0
    9112:	d10e      	bne.n	9132 <_svfiprintf_r+0x36>
    9114:	2140      	movs	r1, #64	; 0x40
    9116:	f7ff fe27 	bl	8d68 <_malloc_r>
    911a:	6038      	str	r0, [r7, #0]
    911c:	6138      	str	r0, [r7, #16]
    911e:	2800      	cmp	r0, #0
    9120:	d105      	bne.n	912e <_svfiprintf_r+0x32>
    9122:	230c      	movs	r3, #12
    9124:	9a02      	ldr	r2, [sp, #8]
    9126:	3801      	subs	r0, #1
    9128:	6013      	str	r3, [r2, #0]
    912a:	b01f      	add	sp, #124	; 0x7c
    912c:	bdf0      	pop	{r4, r5, r6, r7, pc}
    912e:	2340      	movs	r3, #64	; 0x40
    9130:	617b      	str	r3, [r7, #20]
    9132:	2300      	movs	r3, #0
    9134:	ad06      	add	r5, sp, #24
    9136:	616b      	str	r3, [r5, #20]
    9138:	3320      	adds	r3, #32
    913a:	766b      	strb	r3, [r5, #25]
    913c:	3310      	adds	r3, #16
    913e:	76ab      	strb	r3, [r5, #26]
    9140:	0034      	movs	r4, r6
    9142:	7823      	ldrb	r3, [r4, #0]
    9144:	2b00      	cmp	r3, #0
    9146:	d147      	bne.n	91d8 <_svfiprintf_r+0xdc>
    9148:	1ba3      	subs	r3, r4, r6
    914a:	9304      	str	r3, [sp, #16]
    914c:	d00d      	beq.n	916a <_svfiprintf_r+0x6e>
    914e:	1ba3      	subs	r3, r4, r6
    9150:	0032      	movs	r2, r6
    9152:	0039      	movs	r1, r7
    9154:	9802      	ldr	r0, [sp, #8]
    9156:	f7ff ff6f 	bl	9038 <__ssputs_r>
    915a:	1c43      	adds	r3, r0, #1
    915c:	d100      	bne.n	9160 <_svfiprintf_r+0x64>
    915e:	e0b5      	b.n	92cc <_svfiprintf_r+0x1d0>
    9160:	696a      	ldr	r2, [r5, #20]
    9162:	9b04      	ldr	r3, [sp, #16]
    9164:	4694      	mov	ip, r2
    9166:	4463      	add	r3, ip
    9168:	616b      	str	r3, [r5, #20]
    916a:	7823      	ldrb	r3, [r4, #0]
    916c:	2b00      	cmp	r3, #0
    916e:	d100      	bne.n	9172 <_svfiprintf_r+0x76>
    9170:	e0ac      	b.n	92cc <_svfiprintf_r+0x1d0>
    9172:	2201      	movs	r2, #1
    9174:	2300      	movs	r3, #0
    9176:	4252      	negs	r2, r2
    9178:	606a      	str	r2, [r5, #4]
    917a:	a902      	add	r1, sp, #8
    917c:	3254      	adds	r2, #84	; 0x54
    917e:	1852      	adds	r2, r2, r1
    9180:	3401      	adds	r4, #1
    9182:	602b      	str	r3, [r5, #0]
    9184:	60eb      	str	r3, [r5, #12]
    9186:	60ab      	str	r3, [r5, #8]
    9188:	7013      	strb	r3, [r2, #0]
    918a:	65ab      	str	r3, [r5, #88]	; 0x58
    918c:	4e58      	ldr	r6, [pc, #352]	; (92f0 <_svfiprintf_r+0x1f4>)
    918e:	2205      	movs	r2, #5
    9190:	7821      	ldrb	r1, [r4, #0]
    9192:	0030      	movs	r0, r6
    9194:	f000 fa4a 	bl	962c <memchr>
    9198:	1c62      	adds	r2, r4, #1
    919a:	2800      	cmp	r0, #0
    919c:	d120      	bne.n	91e0 <_svfiprintf_r+0xe4>
    919e:	6829      	ldr	r1, [r5, #0]
    91a0:	06cb      	lsls	r3, r1, #27
    91a2:	d504      	bpl.n	91ae <_svfiprintf_r+0xb2>
    91a4:	2353      	movs	r3, #83	; 0x53
    91a6:	ae02      	add	r6, sp, #8
    91a8:	3020      	adds	r0, #32
    91aa:	199b      	adds	r3, r3, r6
    91ac:	7018      	strb	r0, [r3, #0]
    91ae:	070b      	lsls	r3, r1, #28
    91b0:	d504      	bpl.n	91bc <_svfiprintf_r+0xc0>
    91b2:	2353      	movs	r3, #83	; 0x53
    91b4:	202b      	movs	r0, #43	; 0x2b
    91b6:	ae02      	add	r6, sp, #8
    91b8:	199b      	adds	r3, r3, r6
    91ba:	7018      	strb	r0, [r3, #0]
    91bc:	7823      	ldrb	r3, [r4, #0]
    91be:	2b2a      	cmp	r3, #42	; 0x2a
    91c0:	d016      	beq.n	91f0 <_svfiprintf_r+0xf4>
    91c2:	2000      	movs	r0, #0
    91c4:	210a      	movs	r1, #10
    91c6:	9b09      	ldr	r3, [sp, #36]	; 0x24
    91c8:	7822      	ldrb	r2, [r4, #0]
    91ca:	3a30      	subs	r2, #48	; 0x30
    91cc:	2a09      	cmp	r2, #9
    91ce:	d955      	bls.n	927c <_svfiprintf_r+0x180>
    91d0:	2800      	cmp	r0, #0
    91d2:	d015      	beq.n	9200 <_svfiprintf_r+0x104>
    91d4:	9309      	str	r3, [sp, #36]	; 0x24
    91d6:	e013      	b.n	9200 <_svfiprintf_r+0x104>
    91d8:	2b25      	cmp	r3, #37	; 0x25
    91da:	d0b5      	beq.n	9148 <_svfiprintf_r+0x4c>
    91dc:	3401      	adds	r4, #1
    91de:	e7b0      	b.n	9142 <_svfiprintf_r+0x46>
    91e0:	2301      	movs	r3, #1
    91e2:	1b80      	subs	r0, r0, r6
    91e4:	4083      	lsls	r3, r0
    91e6:	6829      	ldr	r1, [r5, #0]
    91e8:	0014      	movs	r4, r2
    91ea:	430b      	orrs	r3, r1
    91ec:	602b      	str	r3, [r5, #0]
    91ee:	e7cd      	b.n	918c <_svfiprintf_r+0x90>
    91f0:	9b05      	ldr	r3, [sp, #20]
    91f2:	1d18      	adds	r0, r3, #4
    91f4:	681b      	ldr	r3, [r3, #0]
    91f6:	9005      	str	r0, [sp, #20]
    91f8:	2b00      	cmp	r3, #0
    91fa:	db39      	blt.n	9270 <_svfiprintf_r+0x174>
    91fc:	9309      	str	r3, [sp, #36]	; 0x24
    91fe:	0014      	movs	r4, r2
    9200:	7823      	ldrb	r3, [r4, #0]
    9202:	2b2e      	cmp	r3, #46	; 0x2e
    9204:	d10b      	bne.n	921e <_svfiprintf_r+0x122>
    9206:	7863      	ldrb	r3, [r4, #1]
    9208:	1c62      	adds	r2, r4, #1
    920a:	2b2a      	cmp	r3, #42	; 0x2a
    920c:	d13e      	bne.n	928c <_svfiprintf_r+0x190>
    920e:	9b05      	ldr	r3, [sp, #20]
    9210:	3402      	adds	r4, #2
    9212:	1d1a      	adds	r2, r3, #4
    9214:	681b      	ldr	r3, [r3, #0]
    9216:	9205      	str	r2, [sp, #20]
    9218:	2b00      	cmp	r3, #0
    921a:	db34      	blt.n	9286 <_svfiprintf_r+0x18a>
    921c:	9307      	str	r3, [sp, #28]
    921e:	4e35      	ldr	r6, [pc, #212]	; (92f4 <_svfiprintf_r+0x1f8>)
    9220:	7821      	ldrb	r1, [r4, #0]
    9222:	2203      	movs	r2, #3
    9224:	0030      	movs	r0, r6
    9226:	f000 fa01 	bl	962c <memchr>
    922a:	2800      	cmp	r0, #0
    922c:	d006      	beq.n	923c <_svfiprintf_r+0x140>
    922e:	2340      	movs	r3, #64	; 0x40
    9230:	1b80      	subs	r0, r0, r6
    9232:	4083      	lsls	r3, r0
    9234:	682a      	ldr	r2, [r5, #0]
    9236:	3401      	adds	r4, #1
    9238:	4313      	orrs	r3, r2
    923a:	602b      	str	r3, [r5, #0]
    923c:	7821      	ldrb	r1, [r4, #0]
    923e:	2206      	movs	r2, #6
    9240:	482d      	ldr	r0, [pc, #180]	; (92f8 <_svfiprintf_r+0x1fc>)
    9242:	1c66      	adds	r6, r4, #1
    9244:	7629      	strb	r1, [r5, #24]
    9246:	f000 f9f1 	bl	962c <memchr>
    924a:	2800      	cmp	r0, #0
    924c:	d046      	beq.n	92dc <_svfiprintf_r+0x1e0>
    924e:	4b2b      	ldr	r3, [pc, #172]	; (92fc <_svfiprintf_r+0x200>)
    9250:	2b00      	cmp	r3, #0
    9252:	d12f      	bne.n	92b4 <_svfiprintf_r+0x1b8>
    9254:	6829      	ldr	r1, [r5, #0]
    9256:	9b05      	ldr	r3, [sp, #20]
    9258:	2207      	movs	r2, #7
    925a:	05c9      	lsls	r1, r1, #23
    925c:	d528      	bpl.n	92b0 <_svfiprintf_r+0x1b4>
    925e:	189b      	adds	r3, r3, r2
    9260:	4393      	bics	r3, r2
    9262:	3308      	adds	r3, #8
    9264:	9305      	str	r3, [sp, #20]
    9266:	696b      	ldr	r3, [r5, #20]
    9268:	9a03      	ldr	r2, [sp, #12]
    926a:	189b      	adds	r3, r3, r2
    926c:	616b      	str	r3, [r5, #20]
    926e:	e767      	b.n	9140 <_svfiprintf_r+0x44>
    9270:	425b      	negs	r3, r3
    9272:	60eb      	str	r3, [r5, #12]
    9274:	2302      	movs	r3, #2
    9276:	430b      	orrs	r3, r1
    9278:	602b      	str	r3, [r5, #0]
    927a:	e7c0      	b.n	91fe <_svfiprintf_r+0x102>
    927c:	434b      	muls	r3, r1
    927e:	3401      	adds	r4, #1
    9280:	189b      	adds	r3, r3, r2
    9282:	2001      	movs	r0, #1
    9284:	e7a0      	b.n	91c8 <_svfiprintf_r+0xcc>
    9286:	2301      	movs	r3, #1
    9288:	425b      	negs	r3, r3
    928a:	e7c7      	b.n	921c <_svfiprintf_r+0x120>
    928c:	2300      	movs	r3, #0
    928e:	0014      	movs	r4, r2
    9290:	200a      	movs	r0, #10
    9292:	001a      	movs	r2, r3
    9294:	606b      	str	r3, [r5, #4]
    9296:	7821      	ldrb	r1, [r4, #0]
    9298:	3930      	subs	r1, #48	; 0x30
    929a:	2909      	cmp	r1, #9
    929c:	d903      	bls.n	92a6 <_svfiprintf_r+0x1aa>
    929e:	2b00      	cmp	r3, #0
    92a0:	d0bd      	beq.n	921e <_svfiprintf_r+0x122>
    92a2:	9207      	str	r2, [sp, #28]
    92a4:	e7bb      	b.n	921e <_svfiprintf_r+0x122>
    92a6:	4342      	muls	r2, r0
    92a8:	3401      	adds	r4, #1
    92aa:	1852      	adds	r2, r2, r1
    92ac:	2301      	movs	r3, #1
    92ae:	e7f2      	b.n	9296 <_svfiprintf_r+0x19a>
    92b0:	3307      	adds	r3, #7
    92b2:	e7d5      	b.n	9260 <_svfiprintf_r+0x164>
    92b4:	ab05      	add	r3, sp, #20
    92b6:	9300      	str	r3, [sp, #0]
    92b8:	003a      	movs	r2, r7
    92ba:	4b11      	ldr	r3, [pc, #68]	; (9300 <_svfiprintf_r+0x204>)
    92bc:	0029      	movs	r1, r5
    92be:	9802      	ldr	r0, [sp, #8]
    92c0:	e000      	b.n	92c4 <_svfiprintf_r+0x1c8>
    92c2:	bf00      	nop
    92c4:	9003      	str	r0, [sp, #12]
    92c6:	9b03      	ldr	r3, [sp, #12]
    92c8:	3301      	adds	r3, #1
    92ca:	d1cc      	bne.n	9266 <_svfiprintf_r+0x16a>
    92cc:	89bb      	ldrh	r3, [r7, #12]
    92ce:	980b      	ldr	r0, [sp, #44]	; 0x2c
    92d0:	065b      	lsls	r3, r3, #25
    92d2:	d400      	bmi.n	92d6 <_svfiprintf_r+0x1da>
    92d4:	e729      	b.n	912a <_svfiprintf_r+0x2e>
    92d6:	2001      	movs	r0, #1
    92d8:	4240      	negs	r0, r0
    92da:	e726      	b.n	912a <_svfiprintf_r+0x2e>
    92dc:	ab05      	add	r3, sp, #20
    92de:	9300      	str	r3, [sp, #0]
    92e0:	003a      	movs	r2, r7
    92e2:	4b07      	ldr	r3, [pc, #28]	; (9300 <_svfiprintf_r+0x204>)
    92e4:	0029      	movs	r1, r5
    92e6:	9802      	ldr	r0, [sp, #8]
    92e8:	f000 f87a 	bl	93e0 <_printf_i>
    92ec:	e7ea      	b.n	92c4 <_svfiprintf_r+0x1c8>
    92ee:	46c0      	nop			; (mov r8, r8)
    92f0:	0000aaaa 	.word	0x0000aaaa
    92f4:	0000aab0 	.word	0x0000aab0
    92f8:	0000aab4 	.word	0x0000aab4
    92fc:	00000000 	.word	0x00000000
    9300:	00009039 	.word	0x00009039

00009304 <_printf_common>:
    9304:	b5f7      	push	{r0, r1, r2, r4, r5, r6, r7, lr}
    9306:	0015      	movs	r5, r2
    9308:	9301      	str	r3, [sp, #4]
    930a:	688a      	ldr	r2, [r1, #8]
    930c:	690b      	ldr	r3, [r1, #16]
    930e:	9000      	str	r0, [sp, #0]
    9310:	000c      	movs	r4, r1
    9312:	4293      	cmp	r3, r2
    9314:	da00      	bge.n	9318 <_printf_common+0x14>
    9316:	0013      	movs	r3, r2
    9318:	0022      	movs	r2, r4
    931a:	602b      	str	r3, [r5, #0]
    931c:	3243      	adds	r2, #67	; 0x43
    931e:	7812      	ldrb	r2, [r2, #0]
    9320:	2a00      	cmp	r2, #0
    9322:	d001      	beq.n	9328 <_printf_common+0x24>
    9324:	3301      	adds	r3, #1
    9326:	602b      	str	r3, [r5, #0]
    9328:	6823      	ldr	r3, [r4, #0]
    932a:	069b      	lsls	r3, r3, #26
    932c:	d502      	bpl.n	9334 <_printf_common+0x30>
    932e:	682b      	ldr	r3, [r5, #0]
    9330:	3302      	adds	r3, #2
    9332:	602b      	str	r3, [r5, #0]
    9334:	2706      	movs	r7, #6
    9336:	6823      	ldr	r3, [r4, #0]
    9338:	401f      	ands	r7, r3
    933a:	d027      	beq.n	938c <_printf_common+0x88>
    933c:	0023      	movs	r3, r4
    933e:	3343      	adds	r3, #67	; 0x43
    9340:	781b      	ldrb	r3, [r3, #0]
    9342:	1e5a      	subs	r2, r3, #1
    9344:	4193      	sbcs	r3, r2
    9346:	6822      	ldr	r2, [r4, #0]
    9348:	0692      	lsls	r2, r2, #26
    934a:	d430      	bmi.n	93ae <_printf_common+0xaa>
    934c:	0022      	movs	r2, r4
    934e:	9901      	ldr	r1, [sp, #4]
    9350:	3243      	adds	r2, #67	; 0x43
    9352:	9800      	ldr	r0, [sp, #0]
    9354:	9e08      	ldr	r6, [sp, #32]
    9356:	47b0      	blx	r6
    9358:	1c43      	adds	r3, r0, #1
    935a:	d025      	beq.n	93a8 <_printf_common+0xa4>
    935c:	2306      	movs	r3, #6
    935e:	6820      	ldr	r0, [r4, #0]
    9360:	682a      	ldr	r2, [r5, #0]
    9362:	68e1      	ldr	r1, [r4, #12]
    9364:	4003      	ands	r3, r0
    9366:	2500      	movs	r5, #0
    9368:	2b04      	cmp	r3, #4
    936a:	d103      	bne.n	9374 <_printf_common+0x70>
    936c:	1a8d      	subs	r5, r1, r2
    936e:	43eb      	mvns	r3, r5
    9370:	17db      	asrs	r3, r3, #31
    9372:	401d      	ands	r5, r3
    9374:	68a3      	ldr	r3, [r4, #8]
    9376:	6922      	ldr	r2, [r4, #16]
    9378:	4293      	cmp	r3, r2
    937a:	dd01      	ble.n	9380 <_printf_common+0x7c>
    937c:	1a9b      	subs	r3, r3, r2
    937e:	18ed      	adds	r5, r5, r3
    9380:	2700      	movs	r7, #0
    9382:	42bd      	cmp	r5, r7
    9384:	d120      	bne.n	93c8 <_printf_common+0xc4>
    9386:	2000      	movs	r0, #0
    9388:	e010      	b.n	93ac <_printf_common+0xa8>
    938a:	3701      	adds	r7, #1
    938c:	68e3      	ldr	r3, [r4, #12]
    938e:	682a      	ldr	r2, [r5, #0]
    9390:	1a9b      	subs	r3, r3, r2
    9392:	429f      	cmp	r7, r3
    9394:	dad2      	bge.n	933c <_printf_common+0x38>
    9396:	0022      	movs	r2, r4
    9398:	2301      	movs	r3, #1
    939a:	3219      	adds	r2, #25
    939c:	9901      	ldr	r1, [sp, #4]
    939e:	9800      	ldr	r0, [sp, #0]
    93a0:	9e08      	ldr	r6, [sp, #32]
    93a2:	47b0      	blx	r6
    93a4:	1c43      	adds	r3, r0, #1
    93a6:	d1f0      	bne.n	938a <_printf_common+0x86>
    93a8:	2001      	movs	r0, #1
    93aa:	4240      	negs	r0, r0
    93ac:	bdfe      	pop	{r1, r2, r3, r4, r5, r6, r7, pc}
    93ae:	2030      	movs	r0, #48	; 0x30
    93b0:	18e1      	adds	r1, r4, r3
    93b2:	3143      	adds	r1, #67	; 0x43
    93b4:	7008      	strb	r0, [r1, #0]
    93b6:	0021      	movs	r1, r4
    93b8:	1c5a      	adds	r2, r3, #1
    93ba:	3145      	adds	r1, #69	; 0x45
    93bc:	7809      	ldrb	r1, [r1, #0]
    93be:	18a2      	adds	r2, r4, r2
    93c0:	3243      	adds	r2, #67	; 0x43
    93c2:	3302      	adds	r3, #2
    93c4:	7011      	strb	r1, [r2, #0]
    93c6:	e7c1      	b.n	934c <_printf_common+0x48>
    93c8:	0022      	movs	r2, r4
    93ca:	2301      	movs	r3, #1
    93cc:	321a      	adds	r2, #26
    93ce:	9901      	ldr	r1, [sp, #4]
    93d0:	9800      	ldr	r0, [sp, #0]
    93d2:	9e08      	ldr	r6, [sp, #32]
    93d4:	47b0      	blx	r6
    93d6:	1c43      	adds	r3, r0, #1
    93d8:	d0e6      	beq.n	93a8 <_printf_common+0xa4>
    93da:	3701      	adds	r7, #1
    93dc:	e7d1      	b.n	9382 <_printf_common+0x7e>
	...

000093e0 <_printf_i>:
    93e0:	b5f0      	push	{r4, r5, r6, r7, lr}
    93e2:	b08b      	sub	sp, #44	; 0x2c
    93e4:	9206      	str	r2, [sp, #24]
    93e6:	000a      	movs	r2, r1
    93e8:	3243      	adds	r2, #67	; 0x43
    93ea:	9307      	str	r3, [sp, #28]
    93ec:	9005      	str	r0, [sp, #20]
    93ee:	9204      	str	r2, [sp, #16]
    93f0:	7e0a      	ldrb	r2, [r1, #24]
    93f2:	000c      	movs	r4, r1
    93f4:	9b10      	ldr	r3, [sp, #64]	; 0x40
    93f6:	2a6e      	cmp	r2, #110	; 0x6e
    93f8:	d100      	bne.n	93fc <_printf_i+0x1c>
    93fa:	e08f      	b.n	951c <_printf_i+0x13c>
    93fc:	d817      	bhi.n	942e <_printf_i+0x4e>
    93fe:	2a63      	cmp	r2, #99	; 0x63
    9400:	d02c      	beq.n	945c <_printf_i+0x7c>
    9402:	d808      	bhi.n	9416 <_printf_i+0x36>
    9404:	2a00      	cmp	r2, #0
    9406:	d100      	bne.n	940a <_printf_i+0x2a>
    9408:	e099      	b.n	953e <_printf_i+0x15e>
    940a:	2a58      	cmp	r2, #88	; 0x58
    940c:	d054      	beq.n	94b8 <_printf_i+0xd8>
    940e:	0026      	movs	r6, r4
    9410:	3642      	adds	r6, #66	; 0x42
    9412:	7032      	strb	r2, [r6, #0]
    9414:	e029      	b.n	946a <_printf_i+0x8a>
    9416:	2a64      	cmp	r2, #100	; 0x64
    9418:	d001      	beq.n	941e <_printf_i+0x3e>
    941a:	2a69      	cmp	r2, #105	; 0x69
    941c:	d1f7      	bne.n	940e <_printf_i+0x2e>
    941e:	6821      	ldr	r1, [r4, #0]
    9420:	681a      	ldr	r2, [r3, #0]
    9422:	0608      	lsls	r0, r1, #24
    9424:	d523      	bpl.n	946e <_printf_i+0x8e>
    9426:	1d11      	adds	r1, r2, #4
    9428:	6019      	str	r1, [r3, #0]
    942a:	6815      	ldr	r5, [r2, #0]
    942c:	e025      	b.n	947a <_printf_i+0x9a>
    942e:	2a73      	cmp	r2, #115	; 0x73
    9430:	d100      	bne.n	9434 <_printf_i+0x54>
    9432:	e088      	b.n	9546 <_printf_i+0x166>
    9434:	d808      	bhi.n	9448 <_printf_i+0x68>
    9436:	2a6f      	cmp	r2, #111	; 0x6f
    9438:	d029      	beq.n	948e <_printf_i+0xae>
    943a:	2a70      	cmp	r2, #112	; 0x70
    943c:	d1e7      	bne.n	940e <_printf_i+0x2e>
    943e:	2220      	movs	r2, #32
    9440:	6809      	ldr	r1, [r1, #0]
    9442:	430a      	orrs	r2, r1
    9444:	6022      	str	r2, [r4, #0]
    9446:	e003      	b.n	9450 <_printf_i+0x70>
    9448:	2a75      	cmp	r2, #117	; 0x75
    944a:	d020      	beq.n	948e <_printf_i+0xae>
    944c:	2a78      	cmp	r2, #120	; 0x78
    944e:	d1de      	bne.n	940e <_printf_i+0x2e>
    9450:	0022      	movs	r2, r4
    9452:	2178      	movs	r1, #120	; 0x78
    9454:	3245      	adds	r2, #69	; 0x45
    9456:	7011      	strb	r1, [r2, #0]
    9458:	4a6c      	ldr	r2, [pc, #432]	; (960c <_printf_i+0x22c>)
    945a:	e030      	b.n	94be <_printf_i+0xde>
    945c:	000e      	movs	r6, r1
    945e:	681a      	ldr	r2, [r3, #0]
    9460:	3642      	adds	r6, #66	; 0x42
    9462:	1d11      	adds	r1, r2, #4
    9464:	6019      	str	r1, [r3, #0]
    9466:	6813      	ldr	r3, [r2, #0]
    9468:	7033      	strb	r3, [r6, #0]
    946a:	2301      	movs	r3, #1
    946c:	e079      	b.n	9562 <_printf_i+0x182>
    946e:	0649      	lsls	r1, r1, #25
    9470:	d5d9      	bpl.n	9426 <_printf_i+0x46>
    9472:	1d11      	adds	r1, r2, #4
    9474:	6019      	str	r1, [r3, #0]
    9476:	2300      	movs	r3, #0
    9478:	5ed5      	ldrsh	r5, [r2, r3]
    947a:	2d00      	cmp	r5, #0
    947c:	da03      	bge.n	9486 <_printf_i+0xa6>
    947e:	232d      	movs	r3, #45	; 0x2d
    9480:	9a04      	ldr	r2, [sp, #16]
    9482:	426d      	negs	r5, r5
    9484:	7013      	strb	r3, [r2, #0]
    9486:	4b62      	ldr	r3, [pc, #392]	; (9610 <_printf_i+0x230>)
    9488:	270a      	movs	r7, #10
    948a:	9303      	str	r3, [sp, #12]
    948c:	e02f      	b.n	94ee <_printf_i+0x10e>
    948e:	6820      	ldr	r0, [r4, #0]
    9490:	6819      	ldr	r1, [r3, #0]
    9492:	0605      	lsls	r5, r0, #24
    9494:	d503      	bpl.n	949e <_printf_i+0xbe>
    9496:	1d08      	adds	r0, r1, #4
    9498:	6018      	str	r0, [r3, #0]
    949a:	680d      	ldr	r5, [r1, #0]
    949c:	e005      	b.n	94aa <_printf_i+0xca>
    949e:	0640      	lsls	r0, r0, #25
    94a0:	d5f9      	bpl.n	9496 <_printf_i+0xb6>
    94a2:	680d      	ldr	r5, [r1, #0]
    94a4:	1d08      	adds	r0, r1, #4
    94a6:	6018      	str	r0, [r3, #0]
    94a8:	b2ad      	uxth	r5, r5
    94aa:	4b59      	ldr	r3, [pc, #356]	; (9610 <_printf_i+0x230>)
    94ac:	2708      	movs	r7, #8
    94ae:	9303      	str	r3, [sp, #12]
    94b0:	2a6f      	cmp	r2, #111	; 0x6f
    94b2:	d018      	beq.n	94e6 <_printf_i+0x106>
    94b4:	270a      	movs	r7, #10
    94b6:	e016      	b.n	94e6 <_printf_i+0x106>
    94b8:	3145      	adds	r1, #69	; 0x45
    94ba:	700a      	strb	r2, [r1, #0]
    94bc:	4a54      	ldr	r2, [pc, #336]	; (9610 <_printf_i+0x230>)
    94be:	9203      	str	r2, [sp, #12]
    94c0:	681a      	ldr	r2, [r3, #0]
    94c2:	6821      	ldr	r1, [r4, #0]
    94c4:	1d10      	adds	r0, r2, #4
    94c6:	6018      	str	r0, [r3, #0]
    94c8:	6815      	ldr	r5, [r2, #0]
    94ca:	0608      	lsls	r0, r1, #24
    94cc:	d522      	bpl.n	9514 <_printf_i+0x134>
    94ce:	07cb      	lsls	r3, r1, #31
    94d0:	d502      	bpl.n	94d8 <_printf_i+0xf8>
    94d2:	2320      	movs	r3, #32
    94d4:	4319      	orrs	r1, r3
    94d6:	6021      	str	r1, [r4, #0]
    94d8:	2710      	movs	r7, #16
    94da:	2d00      	cmp	r5, #0
    94dc:	d103      	bne.n	94e6 <_printf_i+0x106>
    94de:	2320      	movs	r3, #32
    94e0:	6822      	ldr	r2, [r4, #0]
    94e2:	439a      	bics	r2, r3
    94e4:	6022      	str	r2, [r4, #0]
    94e6:	0023      	movs	r3, r4
    94e8:	2200      	movs	r2, #0
    94ea:	3343      	adds	r3, #67	; 0x43
    94ec:	701a      	strb	r2, [r3, #0]
    94ee:	6863      	ldr	r3, [r4, #4]
    94f0:	60a3      	str	r3, [r4, #8]
    94f2:	2b00      	cmp	r3, #0
    94f4:	db5c      	blt.n	95b0 <_printf_i+0x1d0>
    94f6:	2204      	movs	r2, #4
    94f8:	6821      	ldr	r1, [r4, #0]
    94fa:	4391      	bics	r1, r2
    94fc:	6021      	str	r1, [r4, #0]
    94fe:	2d00      	cmp	r5, #0
    9500:	d158      	bne.n	95b4 <_printf_i+0x1d4>
    9502:	9e04      	ldr	r6, [sp, #16]
    9504:	2b00      	cmp	r3, #0
    9506:	d064      	beq.n	95d2 <_printf_i+0x1f2>
    9508:	0026      	movs	r6, r4
    950a:	9b03      	ldr	r3, [sp, #12]
    950c:	3642      	adds	r6, #66	; 0x42
    950e:	781b      	ldrb	r3, [r3, #0]
    9510:	7033      	strb	r3, [r6, #0]
    9512:	e05e      	b.n	95d2 <_printf_i+0x1f2>
    9514:	0648      	lsls	r0, r1, #25
    9516:	d5da      	bpl.n	94ce <_printf_i+0xee>
    9518:	b2ad      	uxth	r5, r5
    951a:	e7d8      	b.n	94ce <_printf_i+0xee>
    951c:	6809      	ldr	r1, [r1, #0]
    951e:	681a      	ldr	r2, [r3, #0]
    9520:	0608      	lsls	r0, r1, #24
    9522:	d505      	bpl.n	9530 <_printf_i+0x150>
    9524:	1d11      	adds	r1, r2, #4
    9526:	6019      	str	r1, [r3, #0]
    9528:	6813      	ldr	r3, [r2, #0]
    952a:	6962      	ldr	r2, [r4, #20]
    952c:	601a      	str	r2, [r3, #0]
    952e:	e006      	b.n	953e <_printf_i+0x15e>
    9530:	0649      	lsls	r1, r1, #25
    9532:	d5f7      	bpl.n	9524 <_printf_i+0x144>
    9534:	1d11      	adds	r1, r2, #4
    9536:	6019      	str	r1, [r3, #0]
    9538:	6813      	ldr	r3, [r2, #0]
    953a:	8aa2      	ldrh	r2, [r4, #20]
    953c:	801a      	strh	r2, [r3, #0]
    953e:	2300      	movs	r3, #0
    9540:	9e04      	ldr	r6, [sp, #16]
    9542:	6123      	str	r3, [r4, #16]
    9544:	e054      	b.n	95f0 <_printf_i+0x210>
    9546:	681a      	ldr	r2, [r3, #0]
    9548:	1d11      	adds	r1, r2, #4
    954a:	6019      	str	r1, [r3, #0]
    954c:	6816      	ldr	r6, [r2, #0]
    954e:	2100      	movs	r1, #0
    9550:	6862      	ldr	r2, [r4, #4]
    9552:	0030      	movs	r0, r6
    9554:	f000 f86a 	bl	962c <memchr>
    9558:	2800      	cmp	r0, #0
    955a:	d001      	beq.n	9560 <_printf_i+0x180>
    955c:	1b80      	subs	r0, r0, r6
    955e:	6060      	str	r0, [r4, #4]
    9560:	6863      	ldr	r3, [r4, #4]
    9562:	6123      	str	r3, [r4, #16]
    9564:	2300      	movs	r3, #0
    9566:	9a04      	ldr	r2, [sp, #16]
    9568:	7013      	strb	r3, [r2, #0]
    956a:	e041      	b.n	95f0 <_printf_i+0x210>
    956c:	6923      	ldr	r3, [r4, #16]
    956e:	0032      	movs	r2, r6
    9570:	9906      	ldr	r1, [sp, #24]
    9572:	9805      	ldr	r0, [sp, #20]
    9574:	9d07      	ldr	r5, [sp, #28]
    9576:	47a8      	blx	r5
    9578:	1c43      	adds	r3, r0, #1
    957a:	d043      	beq.n	9604 <_printf_i+0x224>
    957c:	6823      	ldr	r3, [r4, #0]
    957e:	2500      	movs	r5, #0
    9580:	079b      	lsls	r3, r3, #30
    9582:	d40f      	bmi.n	95a4 <_printf_i+0x1c4>
    9584:	9b09      	ldr	r3, [sp, #36]	; 0x24
    9586:	68e0      	ldr	r0, [r4, #12]
    9588:	4298      	cmp	r0, r3
    958a:	da3d      	bge.n	9608 <_printf_i+0x228>
    958c:	0018      	movs	r0, r3
    958e:	e03b      	b.n	9608 <_printf_i+0x228>
    9590:	0022      	movs	r2, r4
    9592:	2301      	movs	r3, #1
    9594:	3219      	adds	r2, #25
    9596:	9906      	ldr	r1, [sp, #24]
    9598:	9805      	ldr	r0, [sp, #20]
    959a:	9e07      	ldr	r6, [sp, #28]
    959c:	47b0      	blx	r6
    959e:	1c43      	adds	r3, r0, #1
    95a0:	d030      	beq.n	9604 <_printf_i+0x224>
    95a2:	3501      	adds	r5, #1
    95a4:	68e3      	ldr	r3, [r4, #12]
    95a6:	9a09      	ldr	r2, [sp, #36]	; 0x24
    95a8:	1a9b      	subs	r3, r3, r2
    95aa:	429d      	cmp	r5, r3
    95ac:	dbf0      	blt.n	9590 <_printf_i+0x1b0>
    95ae:	e7e9      	b.n	9584 <_printf_i+0x1a4>
    95b0:	2d00      	cmp	r5, #0
    95b2:	d0a9      	beq.n	9508 <_printf_i+0x128>
    95b4:	9e04      	ldr	r6, [sp, #16]
    95b6:	0028      	movs	r0, r5
    95b8:	0039      	movs	r1, r7
    95ba:	f7fd fd27 	bl	700c <__aeabi_uidivmod>
    95be:	9b03      	ldr	r3, [sp, #12]
    95c0:	3e01      	subs	r6, #1
    95c2:	5c5b      	ldrb	r3, [r3, r1]
    95c4:	0028      	movs	r0, r5
    95c6:	7033      	strb	r3, [r6, #0]
    95c8:	0039      	movs	r1, r7
    95ca:	f7fd fc99 	bl	6f00 <__udivsi3>
    95ce:	1e05      	subs	r5, r0, #0
    95d0:	d1f1      	bne.n	95b6 <_printf_i+0x1d6>
    95d2:	2f08      	cmp	r7, #8
    95d4:	d109      	bne.n	95ea <_printf_i+0x20a>
    95d6:	6823      	ldr	r3, [r4, #0]
    95d8:	07db      	lsls	r3, r3, #31
    95da:	d506      	bpl.n	95ea <_printf_i+0x20a>
    95dc:	6863      	ldr	r3, [r4, #4]
    95de:	6922      	ldr	r2, [r4, #16]
    95e0:	4293      	cmp	r3, r2
    95e2:	dc02      	bgt.n	95ea <_printf_i+0x20a>
    95e4:	2330      	movs	r3, #48	; 0x30
    95e6:	3e01      	subs	r6, #1
    95e8:	7033      	strb	r3, [r6, #0]
    95ea:	9b04      	ldr	r3, [sp, #16]
    95ec:	1b9b      	subs	r3, r3, r6
    95ee:	6123      	str	r3, [r4, #16]
    95f0:	9b07      	ldr	r3, [sp, #28]
    95f2:	aa09      	add	r2, sp, #36	; 0x24
    95f4:	9300      	str	r3, [sp, #0]
    95f6:	0021      	movs	r1, r4
    95f8:	9b06      	ldr	r3, [sp, #24]
    95fa:	9805      	ldr	r0, [sp, #20]
    95fc:	f7ff fe82 	bl	9304 <_printf_common>
    9600:	1c43      	adds	r3, r0, #1
    9602:	d1b3      	bne.n	956c <_printf_i+0x18c>
    9604:	2001      	movs	r0, #1
    9606:	4240      	negs	r0, r0
    9608:	b00b      	add	sp, #44	; 0x2c
    960a:	bdf0      	pop	{r4, r5, r6, r7, pc}
    960c:	0000aacc 	.word	0x0000aacc
    9610:	0000aabb 	.word	0x0000aabb

00009614 <__ascii_wctomb>:
    9614:	1e0b      	subs	r3, r1, #0
    9616:	d004      	beq.n	9622 <__ascii_wctomb+0xe>
    9618:	2aff      	cmp	r2, #255	; 0xff
    961a:	d904      	bls.n	9626 <__ascii_wctomb+0x12>
    961c:	238a      	movs	r3, #138	; 0x8a
    961e:	6003      	str	r3, [r0, #0]
    9620:	3b8b      	subs	r3, #139	; 0x8b
    9622:	0018      	movs	r0, r3
    9624:	4770      	bx	lr
    9626:	700a      	strb	r2, [r1, #0]
    9628:	2301      	movs	r3, #1
    962a:	e7fa      	b.n	9622 <__ascii_wctomb+0xe>

0000962c <memchr>:
    962c:	b2c9      	uxtb	r1, r1
    962e:	1882      	adds	r2, r0, r2
    9630:	4290      	cmp	r0, r2
    9632:	d101      	bne.n	9638 <memchr+0xc>
    9634:	2000      	movs	r0, #0
    9636:	4770      	bx	lr
    9638:	7803      	ldrb	r3, [r0, #0]
    963a:	428b      	cmp	r3, r1
    963c:	d0fb      	beq.n	9636 <memchr+0xa>
    963e:	3001      	adds	r0, #1
    9640:	e7f6      	b.n	9630 <memchr+0x4>

00009642 <memmove>:
    9642:	b510      	push	{r4, lr}
    9644:	4288      	cmp	r0, r1
    9646:	d902      	bls.n	964e <memmove+0xc>
    9648:	188b      	adds	r3, r1, r2
    964a:	4298      	cmp	r0, r3
    964c:	d308      	bcc.n	9660 <memmove+0x1e>
    964e:	2300      	movs	r3, #0
    9650:	429a      	cmp	r2, r3
    9652:	d007      	beq.n	9664 <memmove+0x22>
    9654:	5ccc      	ldrb	r4, [r1, r3]
    9656:	54c4      	strb	r4, [r0, r3]
    9658:	3301      	adds	r3, #1
    965a:	e7f9      	b.n	9650 <memmove+0xe>
    965c:	5c8b      	ldrb	r3, [r1, r2]
    965e:	5483      	strb	r3, [r0, r2]
    9660:	3a01      	subs	r2, #1
    9662:	d2fb      	bcs.n	965c <memmove+0x1a>
    9664:	bd10      	pop	{r4, pc}

00009666 <_realloc_r>:
    9666:	b5f8      	push	{r3, r4, r5, r6, r7, lr}
    9668:	0007      	movs	r7, r0
    966a:	000d      	movs	r5, r1
    966c:	0016      	movs	r6, r2
    966e:	2900      	cmp	r1, #0
    9670:	d105      	bne.n	967e <_realloc_r+0x18>
    9672:	0011      	movs	r1, r2
    9674:	f7ff fb78 	bl	8d68 <_malloc_r>
    9678:	0004      	movs	r4, r0
    967a:	0020      	movs	r0, r4
    967c:	bdf8      	pop	{r3, r4, r5, r6, r7, pc}
    967e:	2a00      	cmp	r2, #0
    9680:	d103      	bne.n	968a <_realloc_r+0x24>
    9682:	f7ff fb27 	bl	8cd4 <_free_r>
    9686:	0034      	movs	r4, r6
    9688:	e7f7      	b.n	967a <_realloc_r+0x14>
    968a:	f000 f812 	bl	96b2 <_malloc_usable_size_r>
    968e:	002c      	movs	r4, r5
    9690:	4286      	cmp	r6, r0
    9692:	d9f2      	bls.n	967a <_realloc_r+0x14>
    9694:	0031      	movs	r1, r6
    9696:	0038      	movs	r0, r7
    9698:	f7ff fb66 	bl	8d68 <_malloc_r>
    969c:	1e04      	subs	r4, r0, #0
    969e:	d0ec      	beq.n	967a <_realloc_r+0x14>
    96a0:	0029      	movs	r1, r5
    96a2:	0032      	movs	r2, r6
    96a4:	f7ff fb04 	bl	8cb0 <memcpy>
    96a8:	0029      	movs	r1, r5
    96aa:	0038      	movs	r0, r7
    96ac:	f7ff fb12 	bl	8cd4 <_free_r>
    96b0:	e7e3      	b.n	967a <_realloc_r+0x14>

000096b2 <_malloc_usable_size_r>:
    96b2:	1f0b      	subs	r3, r1, #4
    96b4:	681b      	ldr	r3, [r3, #0]
    96b6:	1f18      	subs	r0, r3, #4
    96b8:	2b00      	cmp	r3, #0
    96ba:	da01      	bge.n	96c0 <_malloc_usable_size_r+0xe>
    96bc:	580b      	ldr	r3, [r1, r0]
    96be:	18c0      	adds	r0, r0, r3
    96c0:	4770      	bx	lr
    96c2:	0000      	movs	r0, r0
    96c4:	00082008 	.word	0x00082008
    96c8:	65636341 	.word	0x65636341
    96cc:	6172656c 	.word	0x6172656c
    96d0:	6e6f6974 	.word	0x6e6f6974
    96d4:	676d5b20 	.word	0x676d5b20
    96d8:	20583a5d 	.word	0x20583a5d
    96dc:	59096425 	.word	0x59096425
    96e0:	09642520 	.word	0x09642520
    96e4:	6425205a 	.word	0x6425205a
    96e8:	00000a0d 	.word	0x00000a0d
    96ec:	64206f4e 	.word	0x64206f4e
    96f0:	20617461 	.word	0x20617461
    96f4:	64616572 	.word	0x64616572
    96f8:	0d202179 	.word	0x0d202179
    96fc:	0000000a 	.word	0x0000000a
    9700:	64757453 	.word	0x64757453
    9704:	73746e65 	.word	0x73746e65
    9708:	206f7420 	.word	0x206f7420
    970c:	6c6c6966 	.word	0x6c6c6966
    9710:	74756f20 	.word	0x74756f20
    9714:	00000021 	.word	0x00000021
    9718:	00736c63 	.word	0x00736c63
    971c:	3a736c63 	.word	0x3a736c63
    9720:	656c4320 	.word	0x656c4320
    9724:	20737261 	.word	0x20737261
    9728:	20656874 	.word	0x20656874
    972c:	6d726574 	.word	0x6d726574
    9730:	6c616e69 	.word	0x6c616e69
    9734:	72637320 	.word	0x72637320
    9738:	0d6e6565 	.word	0x0d6e6565
    973c:	0000000a 	.word	0x0000000a
    9740:	0064656c 	.word	0x0064656c
    9744:	2064656c 	.word	0x2064656c
    9748:	79656b5b 	.word	0x79656b5b
    974c:	5d6d756e 	.word	0x5d6d756e
    9750:	5b5d525b 	.word	0x5b5d525b
    9754:	425b5d47 	.word	0x425b5d47
    9758:	53203a5d 	.word	0x53203a5d
    975c:	20737465 	.word	0x20737465
    9760:	20656874 	.word	0x20656874
    9764:	65766967 	.word	0x65766967
    9768:	454c206e 	.word	0x454c206e
    976c:	6f742044 	.word	0x6f742044
    9770:	65687420 	.word	0x65687420
    9774:	76696720 	.word	0x76696720
    9778:	52206e65 	.word	0x52206e65
    977c:	422c472c 	.word	0x422c472c
    9780:	6c617620 	.word	0x6c617620
    9784:	2e736575 	.word	0x2e736575
    9788:	00000a0d 	.word	0x00000a0d
    978c:	65736572 	.word	0x65736572
    9790:	00000074 	.word	0x00000074
    9794:	65736572 	.word	0x65736572
    9798:	52203a74 	.word	0x52203a74
    979c:	74657365 	.word	0x74657365
    97a0:	68742073 	.word	0x68742073
    97a4:	65642065 	.word	0x65642065
    97a8:	65636976 	.word	0x65636976
    97ac:	00000a0d 	.word	0x00000a0d
    97b0:	00756d69 	.word	0x00756d69
    97b4:	3a756d69 	.word	0x3a756d69
    97b8:	74655220 	.word	0x74655220
    97bc:	736e7275 	.word	0x736e7275
    97c0:	76206120 	.word	0x76206120
    97c4:	65756c61 	.word	0x65756c61
    97c8:	6f726620 	.word	0x6f726620
    97cc:	6874206d 	.word	0x6874206d
    97d0:	4d492065 	.word	0x4d492065
    97d4:	000a0d55 	.word	0x000a0d55
    97d8:	65657246 	.word	0x65657246
    97dc:	534f5452 	.word	0x534f5452
    97e0:	494c4320 	.word	0x494c4320
    97e4:	540a0d2e 	.word	0x540a0d2e
    97e8:	20657079 	.word	0x20657079
    97ec:	706c6548 	.word	0x706c6548
    97f0:	206f7420 	.word	0x206f7420
    97f4:	77656976 	.word	0x77656976
    97f8:	6c206120 	.word	0x6c206120
    97fc:	20747369 	.word	0x20747369
    9800:	7220666f 	.word	0x7220666f
    9804:	73696765 	.word	0x73696765
    9808:	65726574 	.word	0x65726574
    980c:	6f632064 	.word	0x6f632064
    9810:	6e616d6d 	.word	0x6e616d6d
    9814:	0d2e7364 	.word	0x0d2e7364
    9818:	0000000a 	.word	0x0000000a
    981c:	6c756f43 	.word	0x6c756f43
    9820:	6f6e2064 	.word	0x6f6e2064
    9824:	6c612074 	.word	0x6c612074
    9828:	61636f6c 	.word	0x61636f6c
    982c:	73206574 	.word	0x73206574
    9830:	70616d65 	.word	0x70616d65
    9834:	65726f68 	.word	0x65726f68
    9838:	00000a0d 	.word	0x00000a0d
    983c:	0000616f 	.word	0x0000616f
    9840:	325b6325 	.word	0x325b6325
    9844:	003e0d4b 	.word	0x003e0d4b

00009848 <xClearScreen>:
    9848:	00009718 0000971c 0000062d 00000000     ........-.......
    9858:	325b6325 0000004a                       %c[2J...

00009860 <xImuGetCommand>:
    9860:	000097b0 000097b4 00000579 00000000     ........y.......

00009870 <xNeotrellisTurnLEDCommand>:
    9870:	00009740 00009744 00000659 00000004     @...D...Y.......

00009880 <xResetCommand>:
    9880:	0000978c 00009794 00000561 00000000     ........a.......
    9890:	00001010 0000050e 6f727245 6e692072     ........Error in
    98a0:	61697469 697a696c 5320676e 61736565     itializing Seesa
    98b0:	0a0d2177 00000000 6f727245 2f722f72     w!......Error/r/
    98c0:	0000006e 6e756f46 65532064 77617365     n...Found Seesaw
    98d0:	2f722f21 0000006e 6c756f43 6f6e2064     !/r/n...Could no
    98e0:	72772074 20657469 73656553 70207761     t write Seesaw p
    98f0:	2f216e69 006e2f72 6c756f43 6f6e2064     in!/r/n.Could no
    9900:	65732074 65732074 77617365 6f654e20     t set seesaw Neo
    9910:	65786970 7073206c 21646565 6e2f722f     pixel speed!/r/n
    9920:	00000000 6c756f43 6f6e2064 65732074     ....Could not se
    9930:	65732074 77617365 6f654e20 65786970     t seesaw Neopixe
    9940:	756e206c 7265626d 20666f20 69766564     l number of devi
    9950:	2f736563 006e2f72 6c756f43 6f6e2064     ces/r/n.Could no
    9960:	6e692074 61697469 657a696c 79654b20     t initialize Key
    9970:	21646170 6e2f722f 00000000              pad!/r/n....

0000997c <msgBaseGetHWID>:
    997c:	00000100                                ....

00009980 <msgKeypadEnableInt>:
    9980:	00010210                                ....

00009984 <msgNeopixelBufLength>:
    9984:	3000030e                                ...0

00009988 <msgNeopixelPin>:
    9988:	0003010e                                ....

0000998c <msgNeopixelSpeed>:
    998c:	0001020e 54204955 206b7361 72617453     ....UI Task Star
    999c:	21646574 00000000 6f636e49 63657272     ted!....Incorrec
    99ac:	6f632074 6e616d6d 61702064 656d6172     t command parame
    99bc:	28726574 202e2973 746e4520 22207265     ter(s).  Enter "
    99cc:	706c6568 6f742022 65697620 20612077     help" to view a 
    99dc:	7473696c 20666f20 69617661 6c62616c     list of availabl
    99ec:	6f632065 6e616d6d 0d2e7364 000a0d0a     e commands......
    99fc:	6d6d6f43 20646e61 20746f6e 6f636572     Command not reco
    9a0c:	73696e67 202e6465 746e4520 27207265     gnised.  Enter '
    9a1c:	706c6568 6f742027 65697620 20612077     help' to view a 
    9a2c:	7473696c 20666f20 69617661 6c62616c     list of availabl
    9a3c:	6f632065 6e616d6d 0d2e7364 000a0d0a     e commands......
    9a4c:	706c6568 00000000 65680a0d 0d3a706c     help......help:.
    9a5c:	694c200a 20737473 206c6c61 20656874     . Lists all the 
    9a6c:	69676572 72657473 63206465 616d6d6f     registered comma
    9a7c:	0d73646e 000a0d0a                       nds.....

00009a84 <xHelpCommand>:
    9a84:	00009a4c 00009a54 00001a61 00000000     L...T...a.......
    9a94:	00001e68 00001e60 00001e64 00001e80     h...`...d.......
    9aa4:	00001e5c 00001e6c 00001e70 00001e74     \...l...p...t...
    9ab4:	00001e78 20746f4e 756f6e65 54206867     x...Not enough T
    9ac4:	204b5341 646e6168 2073656c 6e69202d     ASK handles - in
    9ad4:	61657263 54206573 435f4352 4e5f4746     crease TRC_CFG_N
    9ae4:	4b534154 206e6920 53637274 7370616e     TASK in trcSnaps
    9af4:	43746f68 69666e6f 00682e67 20746f4e     hotConfig.h.Not 
    9b04:	756f6e65 49206867 68205253 6c646e61     enough ISR handl
    9b14:	2d207365 636e6920 73616572 52542065     es - increase TR
    9b24:	46435f43 494e5f47 69205253 7274206e     C_CFG_NISR in tr
    9b34:	616e5363 6f687370 6e6f4374 2e676966     cSnapshotConfig.
    9b44:	00000068 20746f4e 756f6e65 53206867     h...Not enough S
    9b54:	50414d45 45524f48 6e616820 73656c64     EMAPHORE handles
    9b64:	69202d20 6572636e 20657361 5f435254      - increase TRC_
    9b74:	5f474643 4d45534e 4f485041 69204552     CFG_NSEMAPHORE i
    9b84:	7274206e 616e5363 6f687370 6e6f4374     n trcSnapshotCon
    9b94:	2e676966 00000068 20746f4e 756f6e65     fig.h...Not enou
    9ba4:	4d206867 58455455 6e616820 73656c64     gh MUTEX handles
    9bb4:	69202d20 6572636e 20657361 5f435254      - increase TRC_
    9bc4:	5f474643 54554d4e 69205845 7274206e     CFG_NMUTEX in tr
    9bd4:	616e5363 6f687370 6e6f4374 2e676966     cSnapshotConfig.
    9be4:	00000068 20746f4e 756f6e65 51206867     h...Not enough Q
    9bf4:	45554555 6e616820 73656c64 69202d20     UEUE handles - i
    9c04:	6572636e 20657361 5f435254 5f474643     ncrease TRC_CFG_
    9c14:	4555514e 69204555 7274206e 616e5363     NQUEUE in trcSna
    9c24:	6f687370 6e6f4374 2e676966 00000068     pshotConfig.h...
    9c34:	20746f4e 756f6e65 54206867 52454d49     Not enough TIMER
    9c44:	6e616820 73656c64 69202d20 6572636e      handles - incre
    9c54:	20657361 5f435254 5f474643 4d49544e     ase TRC_CFG_NTIM
    9c64:	69205245 7274206e 616e5363 6f687370     ER in trcSnapsho
    9c74:	6e6f4374 2e676966 00000068 20746f4e     tConfig.h...Not 
    9c84:	756f6e65 45206867 544e4556 554f5247     enough EVENTGROU
    9c94:	61682050 656c646e 202d2073 72636e69     P handles - incr
    9ca4:	65736165 43525420 4746435f 56454e5f     ease TRC_CFG_NEV
    9cb4:	47544e45 50554f52 206e6920 53637274     ENTGROUP in trcS
    9cc4:	7370616e 43746f68 69666e6f 00682e67     napshotConfig.h.
    9cd4:	20746f4e 756f6e65 53206867 41455254     Not enough STREA
    9ce4:	4655424d 20524546 646e6168 2073656c     MBUFFER handles 
    9cf4:	6e69202d 61657263 54206573 435f4352     - increase TRC_C
    9d04:	4e5f4746 45525453 55424d41 52454646     FG_NSTREAMBUFFER
    9d14:	206e6920 53637274 7370616e 43746f68      in trcSnapshotC
    9d24:	69666e6f 00682e67 20746f4e 756f6e65     onfig.h.Not enou
    9d34:	4d206867 41535345 55424547 52454646     gh MESSAGEBUFFER
    9d44:	6e616820 73656c64 69202d20 6572636e      handles - incre
    9d54:	20657361 5f435254 5f474643 53454d4e     ase TRC_CFG_NMES
    9d64:	45474153 46465542 69205245 7274206e     SAGEBUFFER in tr
    9d74:	616e5363 6f687370 6e6f4374 2e676966     cSnapshotConfig.
    9d84:	00000068 547a7370 65636172 45746547     h...pszTraceGetE
    9d94:	726f7272 646e6148 3a73656c 766e4920     rrorHandles: Inv
    9da4:	64696c61 6a626f20 63746365 7373616c     alid objectclass
    9db4:	00000021 61725476 6e456563 656c6261     !...vTraceEnable
    9dc4:	43525428 4154535f 415f5452 54494157     (TRC_START_AWAIT
    9dd4:	534f485f 6e202954 6120746f 776f6c6c     _HOST) not allow
    9de4:	69206465 6e53206e 68737061 6d20746f     ed in Snapshot m
    9df4:	0065646f 78656e55 74636570 61206465     ode.Unexpected a
    9e04:	6d756772 20746e65 76206f74 63617254     rgument to vTrac
    9e14:	616e4565 20656c62 616e7328 6f687370     eEnable (snapsho
    9e24:	6f6d2074 00296564 43415254 53415f45     t mode).TRACE_AS
    9e34:	54524553 7270203a 65684376 61446b63     SERT: prvCheckDa
    9e44:	6f546174 764f6542 72777265 65747469     taToBeOverwritte
    9e54:	726f466e 746c754d 746e4569 76457972     nForMultiEntryEv
    9e64:	73746e65 6f6e203a 746e4566 73656972     ents: nofEntries
    9e74:	68436f54 206b6365 30203d3d 00000000     ToCheck == 0....
    9e84:	43415254 53415f45 54524553 7270203a     TRACE_ASSERT: pr
    9e94:	61725476 65476563 53544474 6e49203a     vTraceGetDTS: In
    9ea4:	696c6176 61762064 2065756c 20726f66     valid value for 
    9eb4:	61726170 616d5f6d 53544478 00000000     param_maxDTS....
    9ec4:	20646142 61726170 616d5f6d 53544478     Bad param_maxDTS
    9ed4:	206e6920 54767270 65636172 44746547      in prvTraceGetD
    9ee4:	00005354 43415254 53415f45 54524553     TS..TRACE_ASSERT
    9ef4:	7270203a 61725476 65476563 6a624f74     : prvTraceGetObj
    9f04:	48746365 6c646e61 49203a65 6c61766e     ectHandle: Inval
    9f14:	76206469 65756c61 726f6620 6a626f20     id value for obj
    9f24:	63746365 7373616c 00000000 43415254     ectclass....TRAC
    9f34:	53415f45 54524553 7270203a 61725476     E_ASSERT: prvTra
    9f44:	65476563 72615074 203a6d61 61766e49     ceGetParam: Inva
    9f54:	2064696c 756c6176 6f662065 61702072     lid value for pa
    9f64:	5f6d6172 0078616d 43415254 53415f45     ram_max.TRACE_AS
    9f74:	54524553 7270203a 61725476 65476563     SERT: prvTraceGe
    9f84:	69725074 7469726f 6f725079 74726570     tPriorityPropert
    9f94:	6f203a79 63656a62 616c6374 3e207373     y: objectclass >
    9fa4:	5254203d 5f454341 414c434e 53455353     = TRACE_NCLASSES
    9fb4:	00000000 43415254 53415f45 54524553     ....TRACE_ASSERT
    9fc4:	7270203a 61725476 65476563 69725074     : prvTraceGetPri
    9fd4:	7469726f 6f725079 74726570 49203a79     orityProperty: I
    9fe4:	6c61766e 76206469 65756c61 726f6620     nvalid value for
    9ff4:	00646920 63617254 65522065 64726f63      id.Trace Record
    a004:	44207265 006f6d65 65747441 2074706d     er Demo.Attempt 
    a014:	69206f74 7865646e 74756f20 65646973     to index outside
    a024:	65766520 6220746e 65666675 00002172      event buffer!..
    a034:	43415254 53415f45 54524553 7270203a     TRACE_ASSERT: pr
    a044:	61725476 65536563 6a624f74 4e746365     vTraceSetObjectN
    a054:	3a656d61 6d616e20 3d3d2065 4c554e20     ame: name == NUL
    a064:	0000004c 656c6c49 206c6167 656a626f     L...Illegal obje
    a074:	63207463 7373616c 206e6920 54767270     ct class in prvT
    a084:	65636172 4f746553 63656a62 6d614e74     raceSetObjectNam
    a094:	00000065 656c6c49 206c6167 646e6168     e...Illegal hand
    a0a4:	2820656c 69202930 7270206e 61725476     le (0) in prvTra
    a0b4:	65536563 6a624f74 4e746365 2e656d61     ceSetObjectName.
    a0c4:	00000000 43415254 53415f45 54524553     ....TRACE_ASSERT
    a0d4:	7270203a 61725476 65536563 6a624f74     : prvTraceSetObj
    a0e4:	53746365 65746174 626f203a 7463656a     ectState: object
    a0f4:	73616c63 3d3e2073 41525420 4e5f4543     class >= TRACE_N
    a104:	53414c43 00534553 43415254 53415f45     CLASSES.TRACE_AS
    a114:	54524553 7270203a 61725476 65536563     SERT: prvTraceSe
    a124:	6a624f74 53746365 65746174 6e49203a     tObjectState: In
    a134:	696c6176 61762064 2065756c 20726f66     valid value for 
    a144:	00006469 43415254 53415f45 54524553     id..TRACE_ASSERT
    a154:	7270203a 61725476 65536563 69725074     : prvTraceSetPri
    a164:	7469726f 6f725079 74726570 6f203a79     orityProperty: o
    a174:	63656a62 616c6374 3e207373 5254203d     bjectclass >= TR
    a184:	5f454341 414c434e 53455353 00000000     ACE_NCLASSES....
    a194:	43415254 53415f45 54524553 7270203a     TRACE_ASSERT: pr
    a1a4:	61725476 65536563 69725074 7469726f     vTraceSetPriorit
    a1b4:	6f725079 74726570 49203a79 6c61766e     yProperty: Inval
    a1c4:	76206469 65756c61 726f6620 00646920     id value for id.
    a1d4:	43415254 53415f45 54524553 7270203a     TRACE_ASSERT: pr
    a1e4:	61725476 65536563 73615474 736e496b     vTraceSetTaskIns
    a1f4:	636e6174 6e694665 65687369 49203a64     tanceFinished: I
    a204:	6c61766e 76206469 65756c61 726f6620     nvalid value for
    a214:	6e616820 00656c64 43415254 53415f45      handle.TRACE_AS
    a224:	54524553 7270203a 61725476 74536563     SERT: prvTraceSt
    a234:	4b65726f 656e7265 6c61436c 65203a6c     oreKernelCall: e
    a244:	65646f63 203d3e20 46467830 00000000     code >= 0xFF....
    a254:	43415254 53415f45 54524553 7270203a     TRACE_ASSERT: pr
    a264:	61725476 74536563 4b65726f 656e7265     vTraceStoreKerne
    a274:	6c61436c 6f203a6c 63656a62 616c4374     lCall: objectCla
    a284:	3e207373 5254203d 5f454341 414c434e     ss >= TRACE_NCLA
    a294:	53455353 00000000 43415254 53415f45     SSES....TRACE_AS
    a2a4:	54524553 7270203a 61725476 74536563     SERT: prvTraceSt
    a2b4:	4b65726f 656e7265 6c61436c 49203a6c     oreKernelCall: I
    a2c4:	6c61766e 76206469 65756c61 726f6620     nvalid value for
    a2d4:	6a626f20 4e746365 65626d75 00000072      objectNumber...
    a2e4:	6f636552 72656472 73756220 202d2079     Recorder busy - 
    a2f4:	68676968 69727020 7469726f 53492079     high priority IS
    a304:	73752052 20676e69 63737973 3f6c6c61     R using syscall?
    a314:	29322820 00000000 43415254 53415f45      (2)....TRACE_AS
    a324:	54524553 7270203a 61725476 74536563     SERT: prvTraceSt
    a334:	4b65726f 656e7265 6c61436c 7469576c     oreKernelCallWit
    a344:	6d754e68 63697265 61726150 6c6e4f6d     hNumericParamOnl
    a354:	49203a79 6c61766e 76206469 65756c61     y: Invalid value
    a364:	726f6620 74766520 65646f63 00000000      for evtcode....
    a374:	6f636552 72656472 73756220 202d2079     Recorder busy - 
    a384:	68676968 69727020 7469726f 53492079     high priority IS
    a394:	73752052 20676e69 63737973 3f6c6c61     R using syscall?
    a3a4:	29342820 00000000 43415254 53415f45      (4)....TRACE_AS
    a3b4:	54524553 7270203a 61725476 74536563     SERT: prvTraceSt
    a3c4:	4b65726f 656e7265 6c61436c 7469576c     oreKernelCallWit
    a3d4:	72615068 203a6d61 63747665 2065646f     hParam: evtcode 
    a3e4:	30203d3e 00464678 43415254 53415f45     >= 0xFF.TRACE_AS
    a3f4:	54524553 7270203a 61725476 74536563     SERT: prvTraceSt
    a404:	4b65726f 656e7265 6c61436c 7469576c     oreKernelCallWit
    a414:	72615068 203a6d61 656a626f 6c437463     hParam: objectCl
    a424:	20737361 54203d3e 45434152 4c434e5f     ass >= TRACE_NCL
    a434:	45535341 00000053 43415254 53415f45     ASSES...TRACE_AS
    a444:	54524553 7270203a 61725476 74536563     SERT: prvTraceSt
    a454:	4b65726f 656e7265 6c61436c 7469576c     oreKernelCallWit
    a464:	72615068 203a6d61 61766e49 2064696c     hParam: Invalid 
    a474:	756c6176 6f662065 626f2072 7463656a     value for object
    a484:	626d754e 00007265 6f636552 72656472     Number..Recorder
    a494:	73756220 202d2079 68676968 69727020      busy - high pri
    a4a4:	7469726f 53492079 73752052 20676e69     ority ISR using 
    a4b4:	63737973 3f6c6c61 29332820 00000000     syscall? (3)....
    a4c4:	43415254 53415f45 54524553 7270203a     TRACE_ASSERT: pr
    a4d4:	61725476 74536563 5465726f 526b7361     vTraceStoreTaskR
    a4e4:	79646165 6e49203a 696c6176 61762064     eady: Invalid va
    a4f4:	2065756c 20726f66 646e6168 0000656c     lue for handle..
    a504:	6f636552 72656472 73756220 202d2079     Recorder busy - 
    a514:	68676968 69727020 7469726f 53492079     high priority IS
    a524:	73752052 20676e69 63737973 3f6c6c61     R using syscall?
    a534:	29312820 00000000 43415254 53415f45      (1)....TRACE_AS
    a544:	54524553 7270203a 61725476 74536563     SERT: prvTraceSt
    a554:	5465726f 736b7361 63746977 49203a68     oreTaskswitch: I
    a564:	6c61766e 76206469 65756c61 726f6620     nvalid value for
    a574:	73617420 61685f6b 656c646e 00000000      task_handle....
    a584:	43415254 53415f45 54524553 7270203a     TRACE_ASSERT: pr
    a594:	61725476 65476563 6a624f74 53746365     vTraceGetObjectS
    a5a4:	65746174 6e49203a 696c6176 61762064     tate: Invalid va
    a5b4:	2065756c 20726f66 00006469 43415254     lue for id..TRAC
    a5c4:	53415f45 54524553 6975203a 65646e49     E_ASSERT: uiInde
    a5d4:	4f664f78 63656a62 49203a74 6c61766e     xOfObject: Inval
    a5e4:	76206469 65756c61 726f6620 6a626f20     id value for obj
    a5f4:	63746365 7373616c 00000000 43415254     ectclass....TRAC
    a604:	53415f45 54524553 6975203a 65646e49     E_ASSERT: uiInde
    a614:	4f664f78 63656a62 49203a74 6c61766e     xOfObject: Inval
    a624:	76206469 65756c61 726f6620 6a626f20     id value for obj
    a634:	68746365 6c646e61 00000065 43415254     ecthandle...TRAC
    a644:	53415f45 54524553 6552203a 64726f63     E_ASSERT: Record
    a654:	6e207265 6920746f 6974696e 7a696c61     er not initializ
    a664:	202e6465 20657355 61725476 6e456563     ed. Use vTraceEn
    a674:	656c6261 69202928 6574736e 00216461     able() instead!.
    a684:	61747328 70757472 00000029 43415254     (startup)...TRAC
    a694:	53415f45 54524553 5478203a 65636172     E_ASSERT: xTrace
    a6a4:	69676552 72657473 69727453 203a676e     RegisterString: 
    a6b4:	6562616c 3d3d206c 4c554e20 0000004c     label == NULL...
    a6c4:	43415254 53415f45 54524553 6552203a     TRACE_ASSERT: Re
    a6d4:	64726f63 6e207265 6920746f 6974696e     corder not initi
    a6e4:	7a696c61 202c6465 6c6c6163 72547620     alized, call vTr
    a6f4:	45656361 6c62616e 20292865 73726966     aceEnable() firs
    a704:	00002174 454c4449 00000000 000053f4     t!..IDLE.....S..
    a714:	000053f4 000053f4 0000536c 00005436     .S...S..lS..6T..
    a724:	00005450 000053f4 000053f4 0000536c     PT...S...S..lS..
    a734:	00005436 20726d54 00637653 42000800     6T..Tmr Svc....B
    a744:	42000c00 42001000 42001400 42001800     ...B...B...B...B
    a754:	42001c00 000063e2 000063de 000063de     ...B.c...c...c..
    a764:	00006444 00006444 000063f6 000063e8     Dd..Dd...c...c..
    a774:	000063fc 00006432 00006570 00006550     .c..2d..pe..Pe..
    a784:	00006550 000065dc 00006562 0000657e     Pe...e..be..~e..
    a794:	00006554 0000658c 000065cc              Te...e...e..

0000a7a0 <_tcc_intflag>:
    a7a0:	00000001 00000002 00000004 00000008     ................
    a7b0:	00001000 00002000 00004000 00008000     ..... ...@......
    a7c0:	00010000 00020000 00040000 00080000     ................
    a7d0:	0a0d0a0d 2d2d2d2d 4553452d 20363135     ....-----ESE516 
    a7e0:	6e69614d 6f725020 6d617267 2d2d2d2d     Main Program----
    a7f0:	000a0d2d 0a0d0a0d 74696e49 696c6169     -.......Initiali
    a800:	4820657a 2e2e2e57 00000a0d 6f727245     ze HW.......Erro
    a810:	6e692072 61697469 697a696c 4920676e     r initializing I
    a820:	44204332 65766972 0a0d2172 00000000     2C Driver!......
    a830:	74696e49 696c6169 2064657a 20433249     Initialized I2C 
    a840:	76697244 0d217265 0000000a 74696e49     Driver!.....Init
    a850:	696c6169 2064657a 73656553 0d217761     ialized Seesaw!.
    a860:	0000000a 6e6e6143 6620746f 20646e69     ....Cannot find 
    a870:	21554d49 00000a0d 20554d49 6e756f66     IMU!....IMU foun
    a880:	0a0d2164 00000000 20554d49 74696e69     d!......IMU init
    a890:	696c6169 2164657a 00000a0d 6c756f43     ialized!....Coul
    a8a0:	6f6e2064 6e692074 61697469 657a696c     d not initialize
    a8b0:	554d4920 00000a0d 70616548 66656220      IMU....Heap bef
    a8c0:	2065726f 72617473 676e6974 73617420     ore starting tas
    a8d0:	203a736b 0a0d6425 00000000 5f494c43     ks: %d......CLI_
    a8e0:	4b534154 00000000 3a525245 494c4320     TASK....ERR: CLI
    a8f0:	73617420 6f63206b 20646c75 20746f6e      task could not 
    a900:	69206562 6974696e 7a696c61 0d216465     be initialized!.
    a910:	0000000a 70616548 74666120 73207265     ....Heap after s
    a920:	74726174 20676e69 3a494c43 0d642520     tarting CLI: %d.
    a930:	0000000a 54204955 006b7361 3a525245     ....UI Task.ERR:
    a940:	20495520 6b736174 756f6320 6e20646c      UI task could n
    a950:	6220746f 6e692065 61697469 657a696c     ot be initialize
    a960:	0a0d2164 00000000 70616548 74666120     d!......Heap aft
    a970:	73207265 74726174 20676e69 54204955     er starting UI T
    a980:	3a6b7361 0d642520 0000000a 6f727245     ask: %d.....Erro
    a990:	6e6f2072 6d656d20 2079726f 6f6c6c61     r on memory allo
    a9a0:	69746163 6f206e6f 5246206e 54524545     cation on FREERT
    a9b0:	0d21534f 0000000a 6f727245 6e6f2072     OS!.....Error on
    a9c0:	61747320 6f206b63 66726576 20776f6c      stack overflow 
    a9d0:	46206e6f 52454552 21534f54 00000a0d     on FREERTOS!....
    a9e0:	00007198 000070e8 000070e8 000070e6     .q...p...p...p..
    a9f0:	0000718a 0000718a 00007180 000070e6     .q...q...q...p..
    aa00:	0000718a 00007180 0000718a 000070e6     .q...q...q...p..
    aa10:	00007190 00007190 00007190 00007220     .q...q...q.. r..
    aa20:	00007ba4 00007b86 00007b40 00007a5e     .{...{..@{..^z..
    aa30:	00007b40 00007b78 00007b40 00007a5e     @{..x{..@{..^z..
    aa40:	00007b86 00007b86 00007b78 00007a5e     .{...{..x{..^z..
    aa50:	00007a56 00007a56 00007a56 00007dbc     Vz..Vz..Vz...}..
    aa60:	00008204 000080c4 000080c4 000080c0     ................
    aa70:	000081dc 000081dc 000081ce 000080c0     ................
    aa80:	000081dc 000081ce 000081dc 000080c0     ................
    aa90:	000081e4 000081e4 000081e4 000083e8     ................
    aaa0:	4f500043 00584953 2d23002e 00202b30     C.POSIX...#-0+ .
    aab0:	004c6c68 45676665 30004746 34333231     hlL.efgEFG.01234
    aac0:	38373635 43424139 00464544 33323130     56789ABCDEF.0123
    aad0:	37363534 62613938 66656463 20200000              456789abcdef.

0000aadd <_ctype_>:
    aadd:	20202000 20202020 28282020 20282828     .         ((((( 
    aaed:	20202020 20202020 20202020 20202020                     
    aafd:	10108820 10101010 10101010 10101010      ...............
    ab0d:	04040410 04040404 10040404 10101010     ................
    ab1d:	41411010 41414141 01010101 01010101     ..AAAAAA........
    ab2d:	01010101 01010101 01010101 10101010     ................
    ab3d:	42421010 42424242 02020202 02020202     ..BBBBBB........
    ab4d:	02020202 02020202 02020202 10101010     ................
    ab5d:	00000020 00000000 00000000 00000000      ...............
	...

0000abe0 <_init>:
    abe0:	b5f8      	push	{r3, r4, r5, r6, r7, lr}
    abe2:	46c0      	nop			; (mov r8, r8)
    abe4:	bcf8      	pop	{r3, r4, r5, r6, r7}
    abe6:	bc08      	pop	{r3}
    abe8:	469e      	mov	lr, r3
    abea:	4770      	bx	lr

0000abec <__init_array_start>:
    abec:	000000dd 	.word	0x000000dd

0000abf0 <_fini>:
    abf0:	b5f8      	push	{r3, r4, r5, r6, r7, lr}
    abf2:	46c0      	nop			; (mov r8, r8)
    abf4:	bcf8      	pop	{r3, r4, r5, r6, r7}
    abf6:	bc08      	pop	{r3}
    abf8:	469e      	mov	lr, r3
    abfa:	4770      	bx	lr

0000abfc <__fini_array_start>:
    abfc:	000000b5 	.word	0x000000b5
