
ESE516 MAIN FW.elf:     file format elf32-littlearm

Sections:
Idx Name          Size      VMA       LMA       File off  Algn
  0 .text         0000acc4  00000000  00000000  00010000  2**4
                  CONTENTS, ALLOC, LOAD, READONLY, CODE
  1 .relocate     00000200  20000000  0000acc4  00020000  2**2
                  CONTENTS, ALLOC, LOAD, DATA
  2 .bss          00004dc4  20000200  0000aec4  00020200  2**2
                  ALLOC
  3 .stack        00002004  20004fc4  0000fc88  00020200  2**0
                  ALLOC
  4 .ARM.attributes 00000028  00000000  00000000  00020200  2**0
                  CONTENTS, READONLY
  5 .comment      00000059  00000000  00000000  00020228  2**0
                  CONTENTS, READONLY
  6 .debug_info   0006d627  00000000  00000000  00020281  2**0
                  CONTENTS, READONLY, DEBUGGING
  7 .debug_abbrev 00008908  00000000  00000000  0008d8a8  2**0
                  CONTENTS, READONLY, DEBUGGING
  8 .debug_loc    000234c1  00000000  00000000  000961b0  2**0
                  CONTENTS, READONLY, DEBUGGING
  9 .debug_aranges 00001b10  00000000  00000000  000b9671  2**0
                  CONTENTS, READONLY, DEBUGGING
 10 .debug_ranges 00001ef0  00000000  00000000  000bb181  2**0
                  CONTENTS, READONLY, DEBUGGING
 11 .debug_macro  00012e6e  00000000  00000000  000bd071  2**0
                  CONTENTS, READONLY, DEBUGGING
 12 .debug_line   00024373  00000000  00000000  000cfedf  2**0
                  CONTENTS, READONLY, DEBUGGING
 13 .debug_str    000ae0bc  00000000  00000000  000f4252  2**0
                  CONTENTS, READONLY, DEBUGGING
 14 .debug_frame  00005b4c  00000000  00000000  001a2310  2**2
                  CONTENTS, READONLY, DEBUGGING

Disassembly of section .text:

00000000 <exception_table>:
       0:	c8 6f 00 20 2d 6c 00 00 11 6c 00 00 11 6c 00 00     .o. -l...l...l..
	...
      2c:	65 2e 00 00 00 00 00 00 00 00 00 00 41 2f 00 00     e...........A/..
      3c:	85 2f 00 00 11 6c 00 00 11 6c 00 00 11 6c 00 00     ./...l...l...l..
      4c:	e1 59 00 00 e5 58 00 00 11 6c 00 00 11 6c 00 00     .Y...X...l...l..
      5c:	11 6c 00 00 11 6c 00 00 09 5e 00 00 19 5e 00 00     .l...l...^...^..
      6c:	29 5e 00 00 39 5e 00 00 49 5e 00 00 59 5e 00 00     )^..9^..I^..Y^..
      7c:	e1 6b 00 00 f1 6b 00 00 01 6c 00 00 a1 1a 00 00     .k...k...l......
      8c:	b1 1a 00 00 c1 1a 00 00 00 00 00 00 00 00 00 00     ................
      9c:	11 6c 00 00 11 6c 00 00 11 6c 00 00 11 6c 00 00     .l...l...l...l..
      ac:	11 6c 00 00 00 00 00 00                             .l......

000000b4 <__do_global_dtors_aux>:
      b4:	b510      	push	{r4, lr}
      b6:	4c06      	ldr	r4, [pc, #24]	; (d0 <__do_global_dtors_aux+0x1c>)
      b8:	7823      	ldrb	r3, [r4, #0]
      ba:	2b00      	cmp	r3, #0
      bc:	d107      	bne.n	ce <__do_global_dtors_aux+0x1a>
      be:	4b05      	ldr	r3, [pc, #20]	; (d4 <__do_global_dtors_aux+0x20>)
      c0:	2b00      	cmp	r3, #0
      c2:	d002      	beq.n	ca <__do_global_dtors_aux+0x16>
      c4:	4804      	ldr	r0, [pc, #16]	; (d8 <__do_global_dtors_aux+0x24>)
      c6:	e000      	b.n	ca <__do_global_dtors_aux+0x16>
      c8:	bf00      	nop
      ca:	2301      	movs	r3, #1
      cc:	7023      	strb	r3, [r4, #0]
      ce:	bd10      	pop	{r4, pc}
      d0:	20000200 	.word	0x20000200
      d4:	00000000 	.word	0x00000000
      d8:	0000acc4 	.word	0x0000acc4

000000dc <frame_dummy>:
      dc:	4b08      	ldr	r3, [pc, #32]	; (100 <frame_dummy+0x24>)
      de:	b510      	push	{r4, lr}
      e0:	2b00      	cmp	r3, #0
      e2:	d003      	beq.n	ec <frame_dummy+0x10>
      e4:	4907      	ldr	r1, [pc, #28]	; (104 <frame_dummy+0x28>)
      e6:	4808      	ldr	r0, [pc, #32]	; (108 <frame_dummy+0x2c>)
      e8:	e000      	b.n	ec <frame_dummy+0x10>
      ea:	bf00      	nop
      ec:	4807      	ldr	r0, [pc, #28]	; (10c <frame_dummy+0x30>)
      ee:	6803      	ldr	r3, [r0, #0]
      f0:	2b00      	cmp	r3, #0
      f2:	d100      	bne.n	f6 <frame_dummy+0x1a>
      f4:	bd10      	pop	{r4, pc}
      f6:	4b06      	ldr	r3, [pc, #24]	; (110 <frame_dummy+0x34>)
      f8:	2b00      	cmp	r3, #0
      fa:	d0fb      	beq.n	f4 <frame_dummy+0x18>
      fc:	4798      	blx	r3
      fe:	e7f9      	b.n	f4 <frame_dummy+0x18>
     100:	00000000 	.word	0x00000000
     104:	20000204 	.word	0x20000204
     108:	0000acc4 	.word	0x0000acc4
     10c:	0000acc4 	.word	0x0000acc4
     110:	00000000 	.word	0x00000000

00000114 <_i2c_master_wait_for_sync>:
     114:	6801      	ldr	r1, [r0, #0]
     116:	2207      	movs	r2, #7
     118:	69cb      	ldr	r3, [r1, #28]
     11a:	421a      	tst	r2, r3
     11c:	d1fc      	bne.n	118 <_i2c_master_wait_for_sync+0x4>
     11e:	4770      	bx	lr

00000120 <_i2c_master_read>:
     120:	b570      	push	{r4, r5, r6, lr}
     122:	0004      	movs	r4, r0
     124:	6806      	ldr	r6, [r0, #0]
     126:	6832      	ldr	r2, [r6, #0]
     128:	8b45      	ldrh	r5, [r0, #26]
     12a:	8b83      	ldrh	r3, [r0, #28]
     12c:	1aed      	subs	r5, r5, r3
     12e:	b2ad      	uxth	r5, r5
     130:	8b83      	ldrh	r3, [r0, #28]
     132:	3b01      	subs	r3, #1
     134:	b29b      	uxth	r3, r3
     136:	8383      	strh	r3, [r0, #28]
     138:	0113      	lsls	r3, r2, #4
     13a:	d51d      	bpl.n	178 <_i2c_master_read+0x58>
     13c:	7ac3      	ldrb	r3, [r0, #11]
     13e:	2b00      	cmp	r3, #0
     140:	d003      	beq.n	14a <_i2c_master_read+0x2a>
     142:	8b83      	ldrh	r3, [r0, #28]
     144:	b29b      	uxth	r3, r3
     146:	2b01      	cmp	r3, #1
     148:	d010      	beq.n	16c <_i2c_master_read+0x4c>
     14a:	8ba3      	ldrh	r3, [r4, #28]
     14c:	b29b      	uxth	r3, r3
     14e:	2b00      	cmp	r3, #0
     150:	d102      	bne.n	158 <_i2c_master_read+0x38>
     152:	7aa3      	ldrb	r3, [r4, #10]
     154:	2b00      	cmp	r3, #0
     156:	d11c      	bne.n	192 <_i2c_master_read+0x72>
     158:	0020      	movs	r0, r4
     15a:	4b12      	ldr	r3, [pc, #72]	; (1a4 <_i2c_master_read+0x84>)
     15c:	4798      	blx	r3
     15e:	6a23      	ldr	r3, [r4, #32]
     160:	195d      	adds	r5, r3, r5
     162:	2328      	movs	r3, #40	; 0x28
     164:	5cf3      	ldrb	r3, [r6, r3]
     166:	b2db      	uxtb	r3, r3
     168:	702b      	strb	r3, [r5, #0]
     16a:	bd70      	pop	{r4, r5, r6, pc}
     16c:	6872      	ldr	r2, [r6, #4]
     16e:	2380      	movs	r3, #128	; 0x80
     170:	02db      	lsls	r3, r3, #11
     172:	4313      	orrs	r3, r2
     174:	6073      	str	r3, [r6, #4]
     176:	e7e8      	b.n	14a <_i2c_master_read+0x2a>
     178:	7ac3      	ldrb	r3, [r0, #11]
     17a:	2b00      	cmp	r3, #0
     17c:	d0e5      	beq.n	14a <_i2c_master_read+0x2a>
     17e:	8b83      	ldrh	r3, [r0, #28]
     180:	b29b      	uxth	r3, r3
     182:	2b00      	cmp	r3, #0
     184:	d1e1      	bne.n	14a <_i2c_master_read+0x2a>
     186:	6872      	ldr	r2, [r6, #4]
     188:	2380      	movs	r3, #128	; 0x80
     18a:	02db      	lsls	r3, r3, #11
     18c:	4313      	orrs	r3, r2
     18e:	6073      	str	r3, [r6, #4]
     190:	e7db      	b.n	14a <_i2c_master_read+0x2a>
     192:	0020      	movs	r0, r4
     194:	4b03      	ldr	r3, [pc, #12]	; (1a4 <_i2c_master_read+0x84>)
     196:	4798      	blx	r3
     198:	6872      	ldr	r2, [r6, #4]
     19a:	23c0      	movs	r3, #192	; 0xc0
     19c:	029b      	lsls	r3, r3, #10
     19e:	4313      	orrs	r3, r2
     1a0:	6073      	str	r3, [r6, #4]
     1a2:	e7d9      	b.n	158 <_i2c_master_read+0x38>
     1a4:	00000115 	.word	0x00000115

000001a8 <_i2c_master_write>:
     1a8:	b570      	push	{r4, r5, r6, lr}
     1aa:	0004      	movs	r4, r0
     1ac:	6805      	ldr	r5, [r0, #0]
     1ae:	8b6b      	ldrh	r3, [r5, #26]
     1b0:	075b      	lsls	r3, r3, #29
     1b2:	d503      	bpl.n	1bc <_i2c_master_write+0x14>
     1b4:	221e      	movs	r2, #30
     1b6:	2325      	movs	r3, #37	; 0x25
     1b8:	54c2      	strb	r2, [r0, r3]
     1ba:	bd70      	pop	{r4, r5, r6, pc}
     1bc:	8b46      	ldrh	r6, [r0, #26]
     1be:	8b83      	ldrh	r3, [r0, #28]
     1c0:	1af6      	subs	r6, r6, r3
     1c2:	b2b6      	uxth	r6, r6
     1c4:	8b83      	ldrh	r3, [r0, #28]
     1c6:	3b01      	subs	r3, #1
     1c8:	b29b      	uxth	r3, r3
     1ca:	8383      	strh	r3, [r0, #28]
     1cc:	4b04      	ldr	r3, [pc, #16]	; (1e0 <_i2c_master_write+0x38>)
     1ce:	4798      	blx	r3
     1d0:	6a23      	ldr	r3, [r4, #32]
     1d2:	199e      	adds	r6, r3, r6
     1d4:	7833      	ldrb	r3, [r6, #0]
     1d6:	b2db      	uxtb	r3, r3
     1d8:	2228      	movs	r2, #40	; 0x28
     1da:	54ab      	strb	r3, [r5, r2]
     1dc:	e7ed      	b.n	1ba <_i2c_master_write+0x12>
     1de:	46c0      	nop			; (mov r8, r8)
     1e0:	00000115 	.word	0x00000115

000001e4 <_i2c_master_write_packet>:
     1e4:	b570      	push	{r4, r5, r6, lr}
     1e6:	0005      	movs	r5, r0
     1e8:	000c      	movs	r4, r1
     1ea:	6806      	ldr	r6, [r0, #0]
     1ec:	7a4b      	ldrb	r3, [r1, #9]
     1ee:	2b00      	cmp	r3, #0
     1f0:	d11a      	bne.n	228 <_i2c_master_write_packet+0x44>
     1f2:	6873      	ldr	r3, [r6, #4]
     1f4:	4a13      	ldr	r2, [pc, #76]	; (244 <_i2c_master_write_packet+0x60>)
     1f6:	4013      	ands	r3, r2
     1f8:	6073      	str	r3, [r6, #4]
     1fa:	6863      	ldr	r3, [r4, #4]
     1fc:	622b      	str	r3, [r5, #32]
     1fe:	8863      	ldrh	r3, [r4, #2]
     200:	83ab      	strh	r3, [r5, #28]
     202:	2200      	movs	r2, #0
     204:	2324      	movs	r3, #36	; 0x24
     206:	54ea      	strb	r2, [r5, r3]
     208:	3205      	adds	r2, #5
     20a:	3301      	adds	r3, #1
     20c:	54ea      	strb	r2, [r5, r3]
     20e:	3b22      	subs	r3, #34	; 0x22
     210:	75b3      	strb	r3, [r6, #22]
     212:	7a23      	ldrb	r3, [r4, #8]
     214:	2b00      	cmp	r3, #0
     216:	d10b      	bne.n	230 <_i2c_master_write_packet+0x4c>
     218:	8823      	ldrh	r3, [r4, #0]
     21a:	005b      	lsls	r3, r3, #1
     21c:	7a62      	ldrb	r2, [r4, #9]
     21e:	0392      	lsls	r2, r2, #14
     220:	4313      	orrs	r3, r2
     222:	6273      	str	r3, [r6, #36]	; 0x24
     224:	2000      	movs	r0, #0
     226:	bd70      	pop	{r4, r5, r6, pc}
     228:	7a89      	ldrb	r1, [r1, #10]
     22a:	4b07      	ldr	r3, [pc, #28]	; (248 <_i2c_master_write_packet+0x64>)
     22c:	4798      	blx	r3
     22e:	e7e0      	b.n	1f2 <_i2c_master_write_packet+0xe>
     230:	8823      	ldrh	r3, [r4, #0]
     232:	005b      	lsls	r3, r3, #1
     234:	7a62      	ldrb	r2, [r4, #9]
     236:	0392      	lsls	r2, r2, #14
     238:	4313      	orrs	r3, r2
     23a:	2280      	movs	r2, #128	; 0x80
     23c:	0212      	lsls	r2, r2, #8
     23e:	4313      	orrs	r3, r2
     240:	6273      	str	r3, [r6, #36]	; 0x24
     242:	e7ef      	b.n	224 <_i2c_master_write_packet+0x40>
     244:	fffbffff 	.word	0xfffbffff
     248:	00001a1d 	.word	0x00001a1d

0000024c <_i2c_master_read_packet>:
     24c:	b5f8      	push	{r3, r4, r5, r6, r7, lr}
     24e:	0005      	movs	r5, r0
     250:	000c      	movs	r4, r1
     252:	6806      	ldr	r6, [r0, #0]
     254:	684b      	ldr	r3, [r1, #4]
     256:	6203      	str	r3, [r0, #32]
     258:	884b      	ldrh	r3, [r1, #2]
     25a:	8383      	strh	r3, [r0, #28]
     25c:	2201      	movs	r2, #1
     25e:	2324      	movs	r3, #36	; 0x24
     260:	54c2      	strb	r2, [r0, r3]
     262:	3204      	adds	r2, #4
     264:	3301      	adds	r3, #1
     266:	54c2      	strb	r2, [r0, r3]
     268:	6837      	ldr	r7, [r6, #0]
     26a:	013f      	lsls	r7, r7, #4
     26c:	0fff      	lsrs	r7, r7, #31
     26e:	7a4b      	ldrb	r3, [r1, #9]
     270:	2b00      	cmp	r3, #0
     272:	d117      	bne.n	2a4 <_i2c_master_read_packet+0x58>
     274:	2f00      	cmp	r7, #0
     276:	d002      	beq.n	27e <_i2c_master_read_packet+0x32>
     278:	8863      	ldrh	r3, [r4, #2]
     27a:	2b01      	cmp	r3, #1
     27c:	d016      	beq.n	2ac <_i2c_master_read_packet+0x60>
     27e:	6873      	ldr	r3, [r6, #4]
     280:	4a20      	ldr	r2, [pc, #128]	; (304 <_i2c_master_read_packet+0xb8>)
     282:	4013      	ands	r3, r2
     284:	6073      	str	r3, [r6, #4]
     286:	7a23      	ldrb	r3, [r4, #8]
     288:	2b00      	cmp	r3, #0
     28a:	d115      	bne.n	2b8 <_i2c_master_read_packet+0x6c>
     28c:	2303      	movs	r3, #3
     28e:	75b3      	strb	r3, [r6, #22]
     290:	8823      	ldrh	r3, [r4, #0]
     292:	005b      	lsls	r3, r3, #1
     294:	7a62      	ldrb	r2, [r4, #9]
     296:	0392      	lsls	r2, r2, #14
     298:	4313      	orrs	r3, r2
     29a:	2201      	movs	r2, #1
     29c:	4313      	orrs	r3, r2
     29e:	6273      	str	r3, [r6, #36]	; 0x24
     2a0:	2000      	movs	r0, #0
     2a2:	bdf8      	pop	{r3, r4, r5, r6, r7, pc}
     2a4:	7a89      	ldrb	r1, [r1, #10]
     2a6:	4b18      	ldr	r3, [pc, #96]	; (308 <_i2c_master_read_packet+0xbc>)
     2a8:	4798      	blx	r3
     2aa:	e7e3      	b.n	274 <_i2c_master_read_packet+0x28>
     2ac:	6872      	ldr	r2, [r6, #4]
     2ae:	2380      	movs	r3, #128	; 0x80
     2b0:	02db      	lsls	r3, r3, #11
     2b2:	4313      	orrs	r3, r2
     2b4:	6073      	str	r3, [r6, #4]
     2b6:	e7e6      	b.n	286 <_i2c_master_read_packet+0x3a>
     2b8:	8823      	ldrh	r3, [r4, #0]
     2ba:	005b      	lsls	r3, r3, #1
     2bc:	7a62      	ldrb	r2, [r4, #9]
     2be:	0392      	lsls	r2, r2, #14
     2c0:	4313      	orrs	r3, r2
     2c2:	2280      	movs	r2, #128	; 0x80
     2c4:	0212      	lsls	r2, r2, #8
     2c6:	4313      	orrs	r3, r2
     2c8:	6273      	str	r3, [r6, #36]	; 0x24
     2ca:	0028      	movs	r0, r5
     2cc:	4b0f      	ldr	r3, [pc, #60]	; (30c <_i2c_master_read_packet+0xc0>)
     2ce:	4798      	blx	r3
     2d0:	6873      	ldr	r3, [r6, #4]
     2d2:	4a0c      	ldr	r2, [pc, #48]	; (304 <_i2c_master_read_packet+0xb8>)
     2d4:	4013      	ands	r3, r2
     2d6:	6073      	str	r3, [r6, #4]
     2d8:	2800      	cmp	r0, #0
     2da:	d1e2      	bne.n	2a2 <_i2c_master_read_packet+0x56>
     2dc:	0028      	movs	r0, r5
     2de:	4b0c      	ldr	r3, [pc, #48]	; (310 <_i2c_master_read_packet+0xc4>)
     2e0:	4798      	blx	r3
     2e2:	2800      	cmp	r0, #0
     2e4:	d1dd      	bne.n	2a2 <_i2c_master_read_packet+0x56>
     2e6:	2303      	movs	r3, #3
     2e8:	75b3      	strb	r3, [r6, #22]
     2ea:	8823      	ldrh	r3, [r4, #0]
     2ec:	0a1b      	lsrs	r3, r3, #8
     2ee:	2278      	movs	r2, #120	; 0x78
     2f0:	4313      	orrs	r3, r2
     2f2:	005b      	lsls	r3, r3, #1
     2f4:	7a62      	ldrb	r2, [r4, #9]
     2f6:	0392      	lsls	r2, r2, #14
     2f8:	2101      	movs	r1, #1
     2fa:	430a      	orrs	r2, r1
     2fc:	4313      	orrs	r3, r2
     2fe:	6273      	str	r3, [r6, #36]	; 0x24
     300:	e7cf      	b.n	2a2 <_i2c_master_read_packet+0x56>
     302:	46c0      	nop			; (mov r8, r8)
     304:	fffbffff 	.word	0xfffbffff
     308:	00001a1d 	.word	0x00001a1d
     30c:	000019f1 	.word	0x000019f1
     310:	000019c1 	.word	0x000019c1

00000314 <i2c_master_register_callback>:
     314:	1c93      	adds	r3, r2, #2
     316:	009b      	lsls	r3, r3, #2
     318:	18c3      	adds	r3, r0, r3
     31a:	6059      	str	r1, [r3, #4]
     31c:	7e03      	ldrb	r3, [r0, #24]
     31e:	2101      	movs	r1, #1
     320:	4091      	lsls	r1, r2
     322:	430b      	orrs	r3, r1
     324:	b2db      	uxtb	r3, r3
     326:	7603      	strb	r3, [r0, #24]
     328:	4770      	bx	lr
	...

0000032c <i2c_master_read_packet_job>:
     32c:	b510      	push	{r4, lr}
     32e:	8b83      	ldrh	r3, [r0, #28]
     330:	b29b      	uxth	r3, r3
     332:	2205      	movs	r2, #5
     334:	2b00      	cmp	r3, #0
     336:	d001      	beq.n	33c <i2c_master_read_packet_job+0x10>
     338:	0010      	movs	r0, r2
     33a:	bd10      	pop	{r4, pc}
     33c:	3301      	adds	r3, #1
     33e:	7283      	strb	r3, [r0, #10]
     340:	72c3      	strb	r3, [r0, #11]
     342:	4b02      	ldr	r3, [pc, #8]	; (34c <i2c_master_read_packet_job+0x20>)
     344:	4798      	blx	r3
     346:	0002      	movs	r2, r0
     348:	e7f6      	b.n	338 <i2c_master_read_packet_job+0xc>
     34a:	46c0      	nop			; (mov r8, r8)
     34c:	0000024d 	.word	0x0000024d

00000350 <i2c_master_write_packet_job>:
     350:	b510      	push	{r4, lr}
     352:	8b83      	ldrh	r3, [r0, #28]
     354:	b29b      	uxth	r3, r3
     356:	2205      	movs	r2, #5
     358:	2b00      	cmp	r3, #0
     35a:	d001      	beq.n	360 <i2c_master_write_packet_job+0x10>
     35c:	0010      	movs	r0, r2
     35e:	bd10      	pop	{r4, pc}
     360:	3301      	adds	r3, #1
     362:	7283      	strb	r3, [r0, #10]
     364:	72c3      	strb	r3, [r0, #11]
     366:	4b02      	ldr	r3, [pc, #8]	; (370 <i2c_master_write_packet_job+0x20>)
     368:	4798      	blx	r3
     36a:	0002      	movs	r2, r0
     36c:	e7f6      	b.n	35c <i2c_master_write_packet_job+0xc>
     36e:	46c0      	nop			; (mov r8, r8)
     370:	000001e5 	.word	0x000001e5

00000374 <_i2c_master_interrupt_handler>:
     374:	b570      	push	{r4, r5, r6, lr}
     376:	0080      	lsls	r0, r0, #2
     378:	4b75      	ldr	r3, [pc, #468]	; (550 <_i2c_master_interrupt_handler+0x1dc>)
     37a:	58c4      	ldr	r4, [r0, r3]
     37c:	6825      	ldr	r5, [r4, #0]
     37e:	682b      	ldr	r3, [r5, #0]
     380:	011b      	lsls	r3, r3, #4
     382:	0fda      	lsrs	r2, r3, #31
     384:	7e63      	ldrb	r3, [r4, #25]
     386:	7e26      	ldrb	r6, [r4, #24]
     388:	401e      	ands	r6, r3
     38a:	8b63      	ldrh	r3, [r4, #26]
     38c:	b29b      	uxth	r3, r3
     38e:	2b00      	cmp	r3, #0
     390:	d103      	bne.n	39a <_i2c_master_interrupt_handler+0x26>
     392:	8ba3      	ldrh	r3, [r4, #28]
     394:	b29b      	uxth	r3, r3
     396:	2b00      	cmp	r3, #0
     398:	d123      	bne.n	3e2 <_i2c_master_interrupt_handler+0x6e>
     39a:	8b63      	ldrh	r3, [r4, #26]
     39c:	b29b      	uxth	r3, r3
     39e:	2b00      	cmp	r3, #0
     3a0:	d008      	beq.n	3b4 <_i2c_master_interrupt_handler+0x40>
     3a2:	8ba3      	ldrh	r3, [r4, #28]
     3a4:	b29b      	uxth	r3, r3
     3a6:	2b00      	cmp	r3, #0
     3a8:	d104      	bne.n	3b4 <_i2c_master_interrupt_handler+0x40>
     3aa:	3325      	adds	r3, #37	; 0x25
     3ac:	5ce3      	ldrb	r3, [r4, r3]
     3ae:	2b05      	cmp	r3, #5
     3b0:	d100      	bne.n	3b4 <_i2c_master_interrupt_handler+0x40>
     3b2:	e06d      	b.n	490 <_i2c_master_interrupt_handler+0x11c>
     3b4:	8b63      	ldrh	r3, [r4, #26]
     3b6:	b29b      	uxth	r3, r3
     3b8:	2b00      	cmp	r3, #0
     3ba:	d024      	beq.n	406 <_i2c_master_interrupt_handler+0x92>
     3bc:	8ba3      	ldrh	r3, [r4, #28]
     3be:	b29b      	uxth	r3, r3
     3c0:	2b00      	cmp	r3, #0
     3c2:	d020      	beq.n	406 <_i2c_master_interrupt_handler+0x92>
     3c4:	8b6b      	ldrh	r3, [r5, #26]
     3c6:	069b      	lsls	r3, r3, #26
     3c8:	d500      	bpl.n	3cc <_i2c_master_interrupt_handler+0x58>
     3ca:	e081      	b.n	4d0 <_i2c_master_interrupt_handler+0x15c>
     3cc:	2a00      	cmp	r2, #0
     3ce:	d004      	beq.n	3da <_i2c_master_interrupt_handler+0x66>
     3d0:	8ba3      	ldrh	r3, [r4, #28]
     3d2:	b29b      	uxth	r3, r3
     3d4:	2b01      	cmp	r3, #1
     3d6:	d100      	bne.n	3da <_i2c_master_interrupt_handler+0x66>
     3d8:	e07a      	b.n	4d0 <_i2c_master_interrupt_handler+0x15c>
     3da:	2241      	movs	r2, #65	; 0x41
     3dc:	2325      	movs	r3, #37	; 0x25
     3de:	54e2      	strb	r2, [r4, r3]
     3e0:	e011      	b.n	406 <_i2c_master_interrupt_handler+0x92>
     3e2:	7e2b      	ldrb	r3, [r5, #24]
     3e4:	07db      	lsls	r3, r3, #31
     3e6:	d507      	bpl.n	3f8 <_i2c_master_interrupt_handler+0x84>
     3e8:	2301      	movs	r3, #1
     3ea:	762b      	strb	r3, [r5, #24]
     3ec:	8b6b      	ldrh	r3, [r5, #26]
     3ee:	079b      	lsls	r3, r3, #30
     3f0:	d52e      	bpl.n	450 <_i2c_master_interrupt_handler+0xdc>
     3f2:	2241      	movs	r2, #65	; 0x41
     3f4:	2325      	movs	r3, #37	; 0x25
     3f6:	54e2      	strb	r2, [r4, r3]
     3f8:	8ba3      	ldrh	r3, [r4, #28]
     3fa:	b29b      	uxth	r3, r3
     3fc:	8363      	strh	r3, [r4, #26]
     3fe:	2325      	movs	r3, #37	; 0x25
     400:	5ce3      	ldrb	r3, [r4, r3]
     402:	2b05      	cmp	r3, #5
     404:	d038      	beq.n	478 <_i2c_master_interrupt_handler+0x104>
     406:	8b63      	ldrh	r3, [r4, #26]
     408:	b29b      	uxth	r3, r3
     40a:	2b00      	cmp	r3, #0
     40c:	d007      	beq.n	41e <_i2c_master_interrupt_handler+0xaa>
     40e:	8ba3      	ldrh	r3, [r4, #28]
     410:	b29b      	uxth	r3, r3
     412:	2b00      	cmp	r3, #0
     414:	d103      	bne.n	41e <_i2c_master_interrupt_handler+0xaa>
     416:	3325      	adds	r3, #37	; 0x25
     418:	5ce3      	ldrb	r3, [r4, r3]
     41a:	2b05      	cmp	r3, #5
     41c:	d064      	beq.n	4e8 <_i2c_master_interrupt_handler+0x174>
     41e:	2325      	movs	r3, #37	; 0x25
     420:	5ce3      	ldrb	r3, [r4, r3]
     422:	2b05      	cmp	r3, #5
     424:	d013      	beq.n	44e <_i2c_master_interrupt_handler+0xda>
     426:	2325      	movs	r3, #37	; 0x25
     428:	5ce3      	ldrb	r3, [r4, r3]
     42a:	2b00      	cmp	r3, #0
     42c:	d00f      	beq.n	44e <_i2c_master_interrupt_handler+0xda>
     42e:	2303      	movs	r3, #3
     430:	752b      	strb	r3, [r5, #20]
     432:	2300      	movs	r3, #0
     434:	8363      	strh	r3, [r4, #26]
     436:	83a3      	strh	r3, [r4, #28]
     438:	3325      	adds	r3, #37	; 0x25
     43a:	5ce3      	ldrb	r3, [r4, r3]
     43c:	2b41      	cmp	r3, #65	; 0x41
     43e:	d003      	beq.n	448 <_i2c_master_interrupt_handler+0xd4>
     440:	7aa3      	ldrb	r3, [r4, #10]
     442:	2b00      	cmp	r3, #0
     444:	d000      	beq.n	448 <_i2c_master_interrupt_handler+0xd4>
     446:	e075      	b.n	534 <_i2c_master_interrupt_handler+0x1c0>
     448:	0773      	lsls	r3, r6, #29
     44a:	d500      	bpl.n	44e <_i2c_master_interrupt_handler+0xda>
     44c:	e07b      	b.n	546 <_i2c_master_interrupt_handler+0x1d2>
     44e:	bd70      	pop	{r4, r5, r6, pc}
     450:	8b6b      	ldrh	r3, [r5, #26]
     452:	075b      	lsls	r3, r3, #29
     454:	d5d0      	bpl.n	3f8 <_i2c_master_interrupt_handler+0x84>
     456:	2218      	movs	r2, #24
     458:	2325      	movs	r3, #37	; 0x25
     45a:	54e2      	strb	r2, [r4, r3]
     45c:	2300      	movs	r3, #0
     45e:	83a3      	strh	r3, [r4, #28]
     460:	7aa3      	ldrb	r3, [r4, #10]
     462:	2b00      	cmp	r3, #0
     464:	d0c8      	beq.n	3f8 <_i2c_master_interrupt_handler+0x84>
     466:	0020      	movs	r0, r4
     468:	4b3a      	ldr	r3, [pc, #232]	; (554 <_i2c_master_interrupt_handler+0x1e0>)
     46a:	4798      	blx	r3
     46c:	686a      	ldr	r2, [r5, #4]
     46e:	23c0      	movs	r3, #192	; 0xc0
     470:	029b      	lsls	r3, r3, #10
     472:	4313      	orrs	r3, r2
     474:	606b      	str	r3, [r5, #4]
     476:	e7bf      	b.n	3f8 <_i2c_master_interrupt_handler+0x84>
     478:	331f      	adds	r3, #31
     47a:	5ce3      	ldrb	r3, [r4, r3]
     47c:	2b00      	cmp	r3, #0
     47e:	d003      	beq.n	488 <_i2c_master_interrupt_handler+0x114>
     480:	0020      	movs	r0, r4
     482:	4b35      	ldr	r3, [pc, #212]	; (558 <_i2c_master_interrupt_handler+0x1e4>)
     484:	4798      	blx	r3
     486:	e7be      	b.n	406 <_i2c_master_interrupt_handler+0x92>
     488:	0020      	movs	r0, r4
     48a:	4b34      	ldr	r3, [pc, #208]	; (55c <_i2c_master_interrupt_handler+0x1e8>)
     48c:	4798      	blx	r3
     48e:	e7ba      	b.n	406 <_i2c_master_interrupt_handler+0x92>
     490:	331f      	adds	r3, #31
     492:	5ce3      	ldrb	r3, [r4, r3]
     494:	2b00      	cmp	r3, #0
     496:	d000      	beq.n	49a <_i2c_master_interrupt_handler+0x126>
     498:	e78c      	b.n	3b4 <_i2c_master_interrupt_handler+0x40>
     49a:	3303      	adds	r3, #3
     49c:	752b      	strb	r3, [r5, #20]
     49e:	2300      	movs	r3, #0
     4a0:	8363      	strh	r3, [r4, #26]
     4a2:	3325      	adds	r3, #37	; 0x25
     4a4:	2200      	movs	r2, #0
     4a6:	54e2      	strb	r2, [r4, r3]
     4a8:	7aa3      	ldrb	r3, [r4, #10]
     4aa:	2b00      	cmp	r3, #0
     4ac:	d107      	bne.n	4be <_i2c_master_interrupt_handler+0x14a>
     4ae:	2301      	movs	r3, #1
     4b0:	762b      	strb	r3, [r5, #24]
     4b2:	07f3      	lsls	r3, r6, #31
     4b4:	d5a7      	bpl.n	406 <_i2c_master_interrupt_handler+0x92>
     4b6:	68e3      	ldr	r3, [r4, #12]
     4b8:	0020      	movs	r0, r4
     4ba:	4798      	blx	r3
     4bc:	e7a3      	b.n	406 <_i2c_master_interrupt_handler+0x92>
     4be:	0020      	movs	r0, r4
     4c0:	4b24      	ldr	r3, [pc, #144]	; (554 <_i2c_master_interrupt_handler+0x1e0>)
     4c2:	4798      	blx	r3
     4c4:	686a      	ldr	r2, [r5, #4]
     4c6:	23c0      	movs	r3, #192	; 0xc0
     4c8:	029b      	lsls	r3, r3, #10
     4ca:	4313      	orrs	r3, r2
     4cc:	606b      	str	r3, [r5, #4]
     4ce:	e7f0      	b.n	4b2 <_i2c_master_interrupt_handler+0x13e>
     4d0:	2324      	movs	r3, #36	; 0x24
     4d2:	5ce3      	ldrb	r3, [r4, r3]
     4d4:	2b00      	cmp	r3, #0
     4d6:	d103      	bne.n	4e0 <_i2c_master_interrupt_handler+0x16c>
     4d8:	0020      	movs	r0, r4
     4da:	4b20      	ldr	r3, [pc, #128]	; (55c <_i2c_master_interrupt_handler+0x1e8>)
     4dc:	4798      	blx	r3
     4de:	e792      	b.n	406 <_i2c_master_interrupt_handler+0x92>
     4e0:	0020      	movs	r0, r4
     4e2:	4b1d      	ldr	r3, [pc, #116]	; (558 <_i2c_master_interrupt_handler+0x1e4>)
     4e4:	4798      	blx	r3
     4e6:	e78e      	b.n	406 <_i2c_master_interrupt_handler+0x92>
     4e8:	331f      	adds	r3, #31
     4ea:	5ce3      	ldrb	r3, [r4, r3]
     4ec:	2b01      	cmp	r3, #1
     4ee:	d196      	bne.n	41e <_i2c_master_interrupt_handler+0xaa>
     4f0:	7e2b      	ldrb	r3, [r5, #24]
     4f2:	079b      	lsls	r3, r3, #30
     4f4:	d501      	bpl.n	4fa <_i2c_master_interrupt_handler+0x186>
     4f6:	2302      	movs	r3, #2
     4f8:	762b      	strb	r3, [r5, #24]
     4fa:	2303      	movs	r3, #3
     4fc:	752b      	strb	r3, [r5, #20]
     4fe:	2300      	movs	r3, #0
     500:	8363      	strh	r3, [r4, #26]
     502:	3325      	adds	r3, #37	; 0x25
     504:	2200      	movs	r2, #0
     506:	54e2      	strb	r2, [r4, r3]
     508:	07b3      	lsls	r3, r6, #30
     50a:	d503      	bpl.n	514 <_i2c_master_interrupt_handler+0x1a0>
     50c:	2324      	movs	r3, #36	; 0x24
     50e:	5ce3      	ldrb	r3, [r4, r3]
     510:	2b01      	cmp	r3, #1
     512:	d00b      	beq.n	52c <_i2c_master_interrupt_handler+0x1b8>
     514:	07f3      	lsls	r3, r6, #31
     516:	d400      	bmi.n	51a <_i2c_master_interrupt_handler+0x1a6>
     518:	e781      	b.n	41e <_i2c_master_interrupt_handler+0xaa>
     51a:	2324      	movs	r3, #36	; 0x24
     51c:	5ce3      	ldrb	r3, [r4, r3]
     51e:	2b00      	cmp	r3, #0
     520:	d000      	beq.n	524 <_i2c_master_interrupt_handler+0x1b0>
     522:	e77c      	b.n	41e <_i2c_master_interrupt_handler+0xaa>
     524:	68e3      	ldr	r3, [r4, #12]
     526:	0020      	movs	r0, r4
     528:	4798      	blx	r3
     52a:	e778      	b.n	41e <_i2c_master_interrupt_handler+0xaa>
     52c:	6923      	ldr	r3, [r4, #16]
     52e:	0020      	movs	r0, r4
     530:	4798      	blx	r3
     532:	e774      	b.n	41e <_i2c_master_interrupt_handler+0xaa>
     534:	0020      	movs	r0, r4
     536:	4b07      	ldr	r3, [pc, #28]	; (554 <_i2c_master_interrupt_handler+0x1e0>)
     538:	4798      	blx	r3
     53a:	686a      	ldr	r2, [r5, #4]
     53c:	23e0      	movs	r3, #224	; 0xe0
     53e:	02db      	lsls	r3, r3, #11
     540:	4313      	orrs	r3, r2
     542:	606b      	str	r3, [r5, #4]
     544:	e780      	b.n	448 <_i2c_master_interrupt_handler+0xd4>
     546:	6963      	ldr	r3, [r4, #20]
     548:	0020      	movs	r0, r4
     54a:	4798      	blx	r3
     54c:	e77f      	b.n	44e <_i2c_master_interrupt_handler+0xda>
     54e:	46c0      	nop			; (mov r8, r8)
     550:	20004e5c 	.word	0x20004e5c
     554:	00000115 	.word	0x00000115
     558:	00000121 	.word	0x00000121
     55c:	000001a9 	.word	0x000001a9

00000560 <CLI_ResetDevice>:
    This function acts as a special kind of Data Memory Barrier.
    It completes when all explicit memory accesses before this instruction complete.
 */
__attribute__( ( always_inline ) ) __STATIC_INLINE void __DSB(void)
{
  __ASM volatile ("dsb");
     560:	f3bf 8f4f 	dsb	sy
 */
__STATIC_INLINE void NVIC_SystemReset(void)
{
  __DSB();                                                     /* Ensure all outstanding memory accesses included
                                                                  buffered write are completed before reset */
  SCB->AIRCR  = ((0x5FA << SCB_AIRCR_VECTKEY_Pos)      |
     564:	4a02      	ldr	r2, [pc, #8]	; (570 <CLI_ResetDevice+0x10>)
     566:	4b03      	ldr	r3, [pc, #12]	; (574 <CLI_ResetDevice+0x14>)
     568:	60da      	str	r2, [r3, #12]
     56a:	f3bf 8f4f 	dsb	sy
     56e:	e7fe      	b.n	56e <CLI_ResetDevice+0xe>
     570:	05fa0004 	.word	0x05fa0004
     574:	e000ed00 	.word	0xe000ed00

00000578 <CLI_GetImuData>:
/******************************************************************************
* CLI Functions - Define here
******************************************************************************/
//Example CLI Command. Reads from the IMU and returns data.
BaseType_t CLI_GetImuData( int8_t *pcWriteBuffer,size_t xWriteBufferLen,const int8_t *pcCommandString )
{
     578:	b5f0      	push	{r4, r5, r6, r7, lr}
     57a:	b087      	sub	sp, #28
     57c:	9002      	str	r0, [sp, #8]
     57e:	000e      	movs	r6, r1
static int16_t  data_raw_acceleration[3];
static int16_t  data_raw_angular_rate;
static float acceleration_mg[3];
uint8_t reg;
stmdev_ctx_t *dev_ctx = GetImuStruct();
     580:	4b1f      	ldr	r3, [pc, #124]	; (600 <CLI_GetImuData+0x88>)
     582:	4798      	blx	r3
     584:	9004      	str	r0, [sp, #16]


/* Read output only if new xl value is available */
lsm6dso_xl_flag_data_ready_get(dev_ctx, &reg);
     586:	240f      	movs	r4, #15
     588:	ab02      	add	r3, sp, #8
     58a:	469c      	mov	ip, r3
     58c:	4464      	add	r4, ip
     58e:	0021      	movs	r1, r4
     590:	4b1c      	ldr	r3, [pc, #112]	; (604 <CLI_GetImuData+0x8c>)
     592:	4798      	blx	r3

if(reg){
     594:	7823      	ldrb	r3, [r4, #0]
     596:	2b00      	cmp	r3, #0
     598:	d107      	bne.n	5aa <CLI_GetImuData+0x32>

	snprintf(pcWriteBuffer,xWriteBufferLen, "Acceleration [mg]:X %d\tY %d\tZ %d\r\n",
	(int)acceleration_mg[0], (int)acceleration_mg[1], (int)acceleration_mg[2]);
}else
{
	snprintf(pcWriteBuffer,xWriteBufferLen, "No data ready! \r\n");
     59a:	4a1b      	ldr	r2, [pc, #108]	; (608 <CLI_GetImuData+0x90>)
     59c:	0031      	movs	r1, r6
     59e:	9802      	ldr	r0, [sp, #8]
     5a0:	4b1a      	ldr	r3, [pc, #104]	; (60c <CLI_GetImuData+0x94>)
     5a2:	4798      	blx	r3
}
return pdFALSE;
}
     5a4:	2000      	movs	r0, #0
     5a6:	b007      	add	sp, #28
     5a8:	bdf0      	pop	{r4, r5, r6, r7, pc}
	memset(data_raw_angular_rate, 0x00, 3 * sizeof(int16_t));
     5aa:	2206      	movs	r2, #6
     5ac:	2100      	movs	r1, #0
     5ae:	2000      	movs	r0, #0
     5b0:	4b17      	ldr	r3, [pc, #92]	; (610 <CLI_GetImuData+0x98>)
     5b2:	4798      	blx	r3
      lsm6dso_acceleration_raw_get(&dev_ctx, data_raw_acceleration);
     5b4:	4c17      	ldr	r4, [pc, #92]	; (614 <CLI_GetImuData+0x9c>)
     5b6:	0021      	movs	r1, r4
     5b8:	a804      	add	r0, sp, #16
     5ba:	4b17      	ldr	r3, [pc, #92]	; (618 <CLI_GetImuData+0xa0>)
     5bc:	4798      	blx	r3
      lsm6dso_from_fs2_to_mg(data_raw_acceleration[0]);
     5be:	2300      	movs	r3, #0
     5c0:	5ee0      	ldrsh	r0, [r4, r3]
     5c2:	4f16      	ldr	r7, [pc, #88]	; (61c <CLI_GetImuData+0xa4>)
     5c4:	47b8      	blx	r7
      acceleration_mg[0] =
     5c6:	4d16      	ldr	r5, [pc, #88]	; (620 <CLI_GetImuData+0xa8>)
     5c8:	6028      	str	r0, [r5, #0]
      lsm6dso_from_fs2_to_mg(data_raw_acceleration[1]);
     5ca:	2302      	movs	r3, #2
     5cc:	5ee0      	ldrsh	r0, [r4, r3]
     5ce:	47b8      	blx	r7
      acceleration_mg[1] =
     5d0:	6068      	str	r0, [r5, #4]
      lsm6dso_from_fs2_to_mg(data_raw_acceleration[2]);
     5d2:	2304      	movs	r3, #4
     5d4:	5ee0      	ldrsh	r0, [r4, r3]
     5d6:	47b8      	blx	r7
     5d8:	1c04      	adds	r4, r0, #0
      acceleration_mg[2] =
     5da:	60a8      	str	r0, [r5, #8]
	snprintf(pcWriteBuffer,xWriteBufferLen, "Acceleration [mg]:X %d\tY %d\tZ %d\r\n",
     5dc:	4f11      	ldr	r7, [pc, #68]	; (624 <CLI_GetImuData+0xac>)
     5de:	6828      	ldr	r0, [r5, #0]
     5e0:	47b8      	blx	r7
     5e2:	9003      	str	r0, [sp, #12]
     5e4:	1c20      	adds	r0, r4, #0
     5e6:	47b8      	blx	r7
     5e8:	9001      	str	r0, [sp, #4]
     5ea:	6868      	ldr	r0, [r5, #4]
     5ec:	47b8      	blx	r7
     5ee:	9000      	str	r0, [sp, #0]
     5f0:	9b03      	ldr	r3, [sp, #12]
     5f2:	4a0d      	ldr	r2, [pc, #52]	; (628 <CLI_GetImuData+0xb0>)
     5f4:	0031      	movs	r1, r6
     5f6:	9802      	ldr	r0, [sp, #8]
     5f8:	4c04      	ldr	r4, [pc, #16]	; (60c <CLI_GetImuData+0x94>)
     5fa:	47a0      	blx	r4
     5fc:	e7d2      	b.n	5a4 <CLI_GetImuData+0x2c>
     5fe:	46c0      	nop			; (mov r8, r8)
     600:	0000130d 	.word	0x0000130d
     604:	00000e59 	.word	0x00000e59
     608:	00009778 	.word	0x00009778
     60c:	00008ed5 	.word	0x00008ed5
     610:	00008d4f 	.word	0x00008d4f
     614:	20000238 	.word	0x20000238
     618:	00000e7d 	.word	0x00000e7d
     61c:	00000d3d 	.word	0x00000d3d
     620:	2000021c 	.word	0x2000021c
     624:	00007339 	.word	0x00007339
     628:	00009754 	.word	0x00009754

0000062c <xCliClearTerminalScreen>:
//THIS COMMAND USES vt100 TERMINAL COMMANDS TO CLEAR THE SCREEN ON A TERMINAL PROGRAM LIKE TERA TERM
//SEE http://www.csie.ntu.edu.tw/~r92094/c++/VT100.html for more info
//CLI SPECIFIC COMMANDS
static char bufCli[CLI_MSG_LEN];
BaseType_t xCliClearTerminalScreen( char *pcWriteBuffer,size_t xWriteBufferLen,const int8_t *pcCommandString )
{
     62c:	b5f8      	push	{r3, r4, r5, r6, r7, lr}
     62e:	0006      	movs	r6, r0
     630:	000f      	movs	r7, r1
	char clearScreen = ASCII_ESC;
	snprintf(bufCli, CLI_MSG_LEN - 1, "%c[2J", clearScreen);
     632:	4d06      	ldr	r5, [pc, #24]	; (64c <xCliClearTerminalScreen+0x20>)
     634:	231b      	movs	r3, #27
     636:	4a06      	ldr	r2, [pc, #24]	; (650 <xCliClearTerminalScreen+0x24>)
     638:	210f      	movs	r1, #15
     63a:	0028      	movs	r0, r5
     63c:	4c05      	ldr	r4, [pc, #20]	; (654 <xCliClearTerminalScreen+0x28>)
     63e:	47a0      	blx	r4
	snprintf(pcWriteBuffer, xWriteBufferLen, bufCli);
     640:	002a      	movs	r2, r5
     642:	0039      	movs	r1, r7
     644:	0030      	movs	r0, r6
     646:	47a0      	blx	r4
	return pdFALSE;
}
     648:	2000      	movs	r0, #0
     64a:	bdf8      	pop	{r3, r4, r5, r6, r7, pc}
     64c:	20000228 	.word	0x20000228
     650:	000098e4 	.word	0x000098e4
     654:	00008ed5 	.word	0x00008ed5

00000658 <CLI_NeotrellisSetLed>:
* @note         Please see https://www.freertos.org/FreeRTOS-Plus/FreeRTOS_Plus_CLI/FreeRTOS_Plus_CLI_Accessing_Command_Line_Parameters.html
				for more information on how to use the FreeRTOS CLI.

*****************************************************************************/
BaseType_t CLI_NeotrellisSetLed( int8_t *pcWriteBuffer,size_t xWriteBufferLen,const int8_t *pcCommandString )
{
     658:	b510      	push	{r4, lr}
	snprintf(pcWriteBuffer,xWriteBufferLen, "Students to fill out!");
     65a:	4a02      	ldr	r2, [pc, #8]	; (664 <CLI_NeotrellisSetLed+0xc>)
     65c:	4b02      	ldr	r3, [pc, #8]	; (668 <CLI_NeotrellisSetLed+0x10>)
     65e:	4798      	blx	r3
	//How do you get parameters? check link in comments!
	//Check that the input is sanitized: Key between 0-15, RGB between 0-255. Print if there is an error!
	//return pdFalse to tell the FreeRTOS CLI your call is done and does not need to call again.
	//This function expects 4 arguments inside pcCommandString: key, R, G, B.
	return pdFALSE;
}
     660:	2000      	movs	r0, #0
     662:	bd10      	pop	{r4, pc}
     664:	0000978c 	.word	0x0000978c
     668:	00008ed5 	.word	0x00008ed5

0000066c <vCommandConsoleTask>:
{
     66c:	b5f0      	push	{r4, r5, r6, r7, lr}
     66e:	46d6      	mov	lr, sl
     670:	464f      	mov	r7, r9
     672:	b580      	push	{r7, lr}
     674:	b083      	sub	sp, #12
FreeRTOS_CLIRegisterCommand( &xImuGetCommand );
     676:	4866      	ldr	r0, [pc, #408]	; (810 <vCommandConsoleTask+0x1a4>)
     678:	4c66      	ldr	r4, [pc, #408]	; (814 <vCommandConsoleTask+0x1a8>)
     67a:	47a0      	blx	r4
FreeRTOS_CLIRegisterCommand( &xClearScreen );
     67c:	4866      	ldr	r0, [pc, #408]	; (818 <vCommandConsoleTask+0x1ac>)
     67e:	47a0      	blx	r4
FreeRTOS_CLIRegisterCommand( &xResetCommand );
     680:	4866      	ldr	r0, [pc, #408]	; (81c <vCommandConsoleTask+0x1b0>)
     682:	47a0      	blx	r4
FreeRTOS_CLIRegisterCommand( &xNeotrellisTurnLEDCommand );
     684:	4866      	ldr	r0, [pc, #408]	; (820 <vCommandConsoleTask+0x1b4>)
     686:	47a0      	blx	r4
    SerialConsoleWriteString( pcWelcomeMessage);
     688:	4866      	ldr	r0, [pc, #408]	; (824 <vCommandConsoleTask+0x1b8>)
     68a:	4b67      	ldr	r3, [pc, #412]	; (828 <vCommandConsoleTask+0x1bc>)
     68c:	4798      	blx	r3
	cliCharReadySemaphore = xSemaphoreCreateBinary();
     68e:	2203      	movs	r2, #3
     690:	2100      	movs	r1, #0
     692:	2001      	movs	r0, #1
     694:	4b65      	ldr	r3, [pc, #404]	; (82c <vCommandConsoleTask+0x1c0>)
     696:	4798      	blx	r3
     698:	4b65      	ldr	r3, [pc, #404]	; (830 <vCommandConsoleTask+0x1c4>)
     69a:	6018      	str	r0, [r3, #0]
	if(cliCharReadySemaphore == NULL)
     69c:	2800      	cmp	r0, #0
     69e:	d106      	bne.n	6ae <vCommandConsoleTask+0x42>
		LogMessage(LOG_ERROR_LVL, "Could not allocate semaphore\r\n");
     6a0:	4964      	ldr	r1, [pc, #400]	; (834 <vCommandConsoleTask+0x1c8>)
     6a2:	3003      	adds	r0, #3
     6a4:	4b64      	ldr	r3, [pc, #400]	; (838 <vCommandConsoleTask+0x1cc>)
     6a6:	4798      	blx	r3
		vTaskSuspend( NULL );
     6a8:	2000      	movs	r0, #0
     6aa:	4b64      	ldr	r3, [pc, #400]	; (83c <vCommandConsoleTask+0x1d0>)
     6ac:	4798      	blx	r3
            cInputIndex = 0;
     6ae:	2400      	movs	r4, #0
int ret = SerialConsoleReadCharacter(character);
     6b0:	4b63      	ldr	r3, [pc, #396]	; (840 <vCommandConsoleTask+0x1d4>)
     6b2:	4699      	mov	r9, r3
	xSemaphoreTake(cliCharReadySemaphore, portMAX_DELAY);
     6b4:	4b5e      	ldr	r3, [pc, #376]	; (830 <vCommandConsoleTask+0x1c4>)
     6b6:	469a      	mov	sl, r3
     6b8:	e033      	b.n	722 <vCommandConsoleTask+0xb6>
     6ba:	2101      	movs	r1, #1
     6bc:	4249      	negs	r1, r1
     6be:	4653      	mov	r3, sl
     6c0:	6818      	ldr	r0, [r3, #0]
     6c2:	4b60      	ldr	r3, [pc, #384]	; (844 <vCommandConsoleTask+0x1d8>)
     6c4:	4798      	blx	r3
	SerialConsoleReadCharacter(character);
     6c6:	a801      	add	r0, sp, #4
     6c8:	4b5d      	ldr	r3, [pc, #372]	; (840 <vCommandConsoleTask+0x1d4>)
     6ca:	4798      	blx	r3
     6cc:	e02d      	b.n	72a <vCommandConsoleTask+0xbe>
            SerialConsoleWriteString("\r\n");
     6ce:	485e      	ldr	r0, [pc, #376]	; (848 <vCommandConsoleTask+0x1dc>)
     6d0:	4b55      	ldr	r3, [pc, #340]	; (828 <vCommandConsoleTask+0x1bc>)
     6d2:	4798      	blx	r3
			isEscapeCode = false; pcEscapeCodePos = 0;
     6d4:	2400      	movs	r4, #0
     6d6:	4b5d      	ldr	r3, [pc, #372]	; (84c <vCommandConsoleTask+0x1e0>)
     6d8:	701c      	strb	r4, [r3, #0]
     6da:	4b5d      	ldr	r3, [pc, #372]	; (850 <vCommandConsoleTask+0x1e4>)
     6dc:	701c      	strb	r4, [r3, #0]
			strncpy(pcLastCommand, pcInputString, MAX_INPUT_LENGTH_CLI-1);
     6de:	4d5d      	ldr	r5, [pc, #372]	; (854 <vCommandConsoleTask+0x1e8>)
     6e0:	2231      	movs	r2, #49	; 0x31
     6e2:	495d      	ldr	r1, [pc, #372]	; (858 <vCommandConsoleTask+0x1ec>)
     6e4:	0028      	movs	r0, r5
     6e6:	4b5d      	ldr	r3, [pc, #372]	; (85c <vCommandConsoleTask+0x1f0>)
     6e8:	4798      	blx	r3
			pcLastCommand[MAX_INPUT_LENGTH_CLI-1] = 0;	//Ensure null termination
     6ea:	2331      	movs	r3, #49	; 0x31
     6ec:	54ec      	strb	r4, [r5, r3]
                xMoreDataToFollow = FreeRTOS_CLIProcessCommand
     6ee:	4c5c      	ldr	r4, [pc, #368]	; (860 <vCommandConsoleTask+0x1f4>)
     6f0:	4e59      	ldr	r6, [pc, #356]	; (858 <vCommandConsoleTask+0x1ec>)
     6f2:	4f5c      	ldr	r7, [pc, #368]	; (864 <vCommandConsoleTask+0x1f8>)
     6f4:	2264      	movs	r2, #100	; 0x64
     6f6:	0021      	movs	r1, r4
     6f8:	0030      	movs	r0, r6
     6fa:	47b8      	blx	r7
     6fc:	0005      	movs	r5, r0
				pcOutputString[MAX_OUTPUT_LENGTH_CLI - 1] = 0;
     6fe:	2200      	movs	r2, #0
     700:	2363      	movs	r3, #99	; 0x63
     702:	54e2      	strb	r2, [r4, r3]
                SerialConsoleWriteString(pcOutputString);
     704:	0020      	movs	r0, r4
     706:	4b48      	ldr	r3, [pc, #288]	; (828 <vCommandConsoleTask+0x1bc>)
     708:	4798      	blx	r3
            } while( xMoreDataToFollow != pdFALSE );
     70a:	2d00      	cmp	r5, #0
     70c:	d1f2      	bne.n	6f4 <vCommandConsoleTask+0x88>
            memset( pcInputString, 0x00, MAX_INPUT_LENGTH_CLI );
     70e:	2232      	movs	r2, #50	; 0x32
     710:	2100      	movs	r1, #0
     712:	4851      	ldr	r0, [pc, #324]	; (858 <vCommandConsoleTask+0x1ec>)
     714:	4c54      	ldr	r4, [pc, #336]	; (868 <vCommandConsoleTask+0x1fc>)
     716:	47a0      	blx	r4
			memset( pcOutputString, 0, MAX_OUTPUT_LENGTH_CLI);
     718:	2264      	movs	r2, #100	; 0x64
     71a:	2100      	movs	r1, #0
     71c:	4850      	ldr	r0, [pc, #320]	; (860 <vCommandConsoleTask+0x1f4>)
     71e:	47a0      	blx	r4
            cInputIndex = 0;
     720:	2400      	movs	r4, #0
int ret = SerialConsoleReadCharacter(character);
     722:	a801      	add	r0, sp, #4
     724:	47c8      	blx	r9
if(ret == -1)
     726:	1c43      	adds	r3, r0, #1
     728:	d0c7      	beq.n	6ba <vCommandConsoleTask+0x4e>
	if( cRxedChar[0] == '\n' || cRxedChar[0] == '\r'  )
     72a:	466b      	mov	r3, sp
     72c:	791b      	ldrb	r3, [r3, #4]
     72e:	2b0a      	cmp	r3, #10
     730:	d0cd      	beq.n	6ce <vCommandConsoleTask+0x62>
     732:	2b0d      	cmp	r3, #13
     734:	d0cb      	beq.n	6ce <vCommandConsoleTask+0x62>
			if (true == isEscapeCode) {
     736:	4a45      	ldr	r2, [pc, #276]	; (84c <vCommandConsoleTask+0x1e0>)
     738:	7812      	ldrb	r2, [r2, #0]
     73a:	2a00      	cmp	r2, #0
     73c:	d03f      	beq.n	7be <vCommandConsoleTask+0x152>
				if(pcEscapeCodePos < CLI_PC_ESCAPE_CODE_SIZE) {
     73e:	4a44      	ldr	r2, [pc, #272]	; (850 <vCommandConsoleTask+0x1e4>)
     740:	7812      	ldrb	r2, [r2, #0]
     742:	2a03      	cmp	r2, #3
     744:	d813      	bhi.n	76e <vCommandConsoleTask+0x102>
					pcEscapeCodes[pcEscapeCodePos++] = cRxedChar[0];
     746:	1c51      	adds	r1, r2, #1
     748:	b2c9      	uxtb	r1, r1
     74a:	4841      	ldr	r0, [pc, #260]	; (850 <vCommandConsoleTask+0x1e4>)
     74c:	7001      	strb	r1, [r0, #0]
     74e:	4847      	ldr	r0, [pc, #284]	; (86c <vCommandConsoleTask+0x200>)
     750:	5483      	strb	r3, [r0, r2]
				if (pcEscapeCodePos >= CLI_PC_MIN_ESCAPE_CODE_SIZE) {
     752:	2901      	cmp	r1, #1
     754:	d9e5      	bls.n	722 <vCommandConsoleTask+0xb6>
					if(strcasecmp(pcEscapeCodes, "oa"))	{
     756:	4946      	ldr	r1, [pc, #280]	; (870 <vCommandConsoleTask+0x204>)
     758:	4844      	ldr	r0, [pc, #272]	; (86c <vCommandConsoleTask+0x200>)
     75a:	4b46      	ldr	r3, [pc, #280]	; (874 <vCommandConsoleTask+0x208>)
     75c:	4798      	blx	r3
     75e:	2800      	cmp	r0, #0
     760:	d10b      	bne.n	77a <vCommandConsoleTask+0x10e>
					isEscapeCode = false; pcEscapeCodePos = 0;
     762:	2300      	movs	r3, #0
     764:	4a39      	ldr	r2, [pc, #228]	; (84c <vCommandConsoleTask+0x1e0>)
     766:	7013      	strb	r3, [r2, #0]
     768:	4a39      	ldr	r2, [pc, #228]	; (850 <vCommandConsoleTask+0x1e4>)
     76a:	7013      	strb	r3, [r2, #0]
     76c:	e7d9      	b.n	722 <vCommandConsoleTask+0xb6>
					isEscapeCode = false; pcEscapeCodePos = 0;
     76e:	2300      	movs	r3, #0
     770:	4a36      	ldr	r2, [pc, #216]	; (84c <vCommandConsoleTask+0x1e0>)
     772:	7013      	strb	r3, [r2, #0]
     774:	4a36      	ldr	r2, [pc, #216]	; (850 <vCommandConsoleTask+0x1e4>)
     776:	7013      	strb	r3, [r2, #0]
     778:	e7d3      	b.n	722 <vCommandConsoleTask+0xb6>
                            sprintf(pcInputString, "%c[2K\r>", 27);
     77a:	4c37      	ldr	r4, [pc, #220]	; (858 <vCommandConsoleTask+0x1ec>)
     77c:	221b      	movs	r2, #27
     77e:	493e      	ldr	r1, [pc, #248]	; (878 <vCommandConsoleTask+0x20c>)
     780:	0020      	movs	r0, r4
     782:	4b3e      	ldr	r3, [pc, #248]	; (87c <vCommandConsoleTask+0x210>)
     784:	4798      	blx	r3
				            SerialConsoleWriteString((char*)pcInputString);
     786:	0020      	movs	r0, r4
     788:	4b27      	ldr	r3, [pc, #156]	; (828 <vCommandConsoleTask+0x1bc>)
     78a:	4798      	blx	r3
                            memset( pcInputString, 0x00, MAX_INPUT_LENGTH_CLI );
     78c:	2232      	movs	r2, #50	; 0x32
     78e:	2100      	movs	r1, #0
     790:	0020      	movs	r0, r4
     792:	4b35      	ldr	r3, [pc, #212]	; (868 <vCommandConsoleTask+0x1fc>)
     794:	4798      	blx	r3
						strncpy(pcInputString, pcLastCommand, MAX_INPUT_LENGTH_CLI - 1); 	
     796:	2231      	movs	r2, #49	; 0x31
     798:	492e      	ldr	r1, [pc, #184]	; (854 <vCommandConsoleTask+0x1e8>)
     79a:	0020      	movs	r0, r4
     79c:	4b2f      	ldr	r3, [pc, #188]	; (85c <vCommandConsoleTask+0x1f0>)
     79e:	4798      	blx	r3
                        cInputIndex = (strlen(pcInputString) < MAX_INPUT_LENGTH_CLI - 1) ? strlen(pcLastCommand) : MAX_INPUT_LENGTH_CLI - 1;
     7a0:	0020      	movs	r0, r4
     7a2:	4b37      	ldr	r3, [pc, #220]	; (880 <vCommandConsoleTask+0x214>)
     7a4:	4798      	blx	r3
     7a6:	2431      	movs	r4, #49	; 0x31
     7a8:	2830      	cmp	r0, #48	; 0x30
     7aa:	d803      	bhi.n	7b4 <vCommandConsoleTask+0x148>
     7ac:	4829      	ldr	r0, [pc, #164]	; (854 <vCommandConsoleTask+0x1e8>)
     7ae:	4b34      	ldr	r3, [pc, #208]	; (880 <vCommandConsoleTask+0x214>)
     7b0:	4798      	blx	r3
     7b2:	0004      	movs	r4, r0
     7b4:	b2e4      	uxtb	r4, r4
						SerialConsoleWriteString(pcInputString);
     7b6:	4828      	ldr	r0, [pc, #160]	; (858 <vCommandConsoleTask+0x1ec>)
     7b8:	4b1b      	ldr	r3, [pc, #108]	; (828 <vCommandConsoleTask+0x1bc>)
     7ba:	4798      	blx	r3
     7bc:	e7d1      	b.n	762 <vCommandConsoleTask+0xf6>
            else if( cRxedChar[0] == ASCII_BACKSPACE || cRxedChar[0] == ASCII_DELETE )
     7be:	2b08      	cmp	r3, #8
     7c0:	d010      	beq.n	7e4 <vCommandConsoleTask+0x178>
     7c2:	2b7f      	cmp	r3, #127	; 0x7f
     7c4:	d00e      	beq.n	7e4 <vCommandConsoleTask+0x178>
			else if( cRxedChar[0] == ASCII_ESC) {
     7c6:	2b1b      	cmp	r3, #27
     7c8:	d01a      	beq.n	800 <vCommandConsoleTask+0x194>
                if( cInputIndex < MAX_INPUT_LENGTH_CLI )
     7ca:	2c31      	cmp	r4, #49	; 0x31
     7cc:	d803      	bhi.n	7d6 <vCommandConsoleTask+0x16a>
                    pcInputString[ cInputIndex ] = cRxedChar[0];
     7ce:	4a22      	ldr	r2, [pc, #136]	; (858 <vCommandConsoleTask+0x1ec>)
     7d0:	5513      	strb	r3, [r2, r4]
                    cInputIndex++;
     7d2:	3401      	adds	r4, #1
     7d4:	b2e4      	uxtb	r4, r4
					cRxedChar[1] = 0;
     7d6:	2300      	movs	r3, #0
     7d8:	466a      	mov	r2, sp
     7da:	7153      	strb	r3, [r2, #5]
					SerialConsoleWriteString(&cRxedChar[0]);
     7dc:	a801      	add	r0, sp, #4
     7de:	4b12      	ldr	r3, [pc, #72]	; (828 <vCommandConsoleTask+0x1bc>)
     7e0:	4798      	blx	r3
     7e2:	e79e      	b.n	722 <vCommandConsoleTask+0xb6>
				char erase[4] = {0x08, 0x20, 0x08, 0x00};
     7e4:	4b27      	ldr	r3, [pc, #156]	; (884 <vCommandConsoleTask+0x218>)
     7e6:	681b      	ldr	r3, [r3, #0]
     7e8:	9300      	str	r3, [sp, #0]
				SerialConsoleWriteString(erase);
     7ea:	4668      	mov	r0, sp
     7ec:	4b0e      	ldr	r3, [pc, #56]	; (828 <vCommandConsoleTask+0x1bc>)
     7ee:	4798      	blx	r3
                if( cInputIndex > 0 )
     7f0:	2c00      	cmp	r4, #0
     7f2:	d096      	beq.n	722 <vCommandConsoleTask+0xb6>
                    cInputIndex--;
     7f4:	3c01      	subs	r4, #1
     7f6:	b2e4      	uxtb	r4, r4
                    pcInputString[ cInputIndex ] = 0;
     7f8:	2200      	movs	r2, #0
     7fa:	4b17      	ldr	r3, [pc, #92]	; (858 <vCommandConsoleTask+0x1ec>)
     7fc:	551a      	strb	r2, [r3, r4]
            {
     7fe:	e790      	b.n	722 <vCommandConsoleTask+0xb6>
				isEscapeCode = true; //Next characters will be code arguments
     800:	2201      	movs	r2, #1
     802:	4b12      	ldr	r3, [pc, #72]	; (84c <vCommandConsoleTask+0x1e0>)
     804:	701a      	strb	r2, [r3, #0]
				pcEscapeCodePos = 0;
     806:	2200      	movs	r2, #0
     808:	4b11      	ldr	r3, [pc, #68]	; (850 <vCommandConsoleTask+0x1e4>)
     80a:	701a      	strb	r2, [r3, #0]
     80c:	e789      	b.n	722 <vCommandConsoleTask+0xb6>
     80e:	46c0      	nop			; (mov r8, r8)
     810:	000098ec 	.word	0x000098ec
     814:	00001b09 	.word	0x00001b09
     818:	000098d4 	.word	0x000098d4
     81c:	0000990c 	.word	0x0000990c
     820:	000098fc 	.word	0x000098fc
     824:	00009864 	.word	0x00009864
     828:	0000574d 	.word	0x0000574d
     82c:	00003369 	.word	0x00003369
     830:	20003864 	.word	0x20003864
     834:	000098a8 	.word	0x000098a8
     838:	000057fd 	.word	0x000057fd
     83c:	00004ac9 	.word	0x00004ac9
     840:	000057d1 	.word	0x000057d1
     844:	00003e4d 	.word	0x00003e4d
     848:	0000aaa0 	.word	0x0000aaa0
     84c:	2000023e 	.word	0x2000023e
     850:	2000023f 	.word	0x2000023f
     854:	20000278 	.word	0x20000278
     858:	20000244 	.word	0x20000244
     85c:	00008fe9 	.word	0x00008fe9
     860:	200002ac 	.word	0x200002ac
     864:	00001b4d 	.word	0x00001b4d
     868:	00008d4f 	.word	0x00008d4f
     86c:	20000240 	.word	0x20000240
     870:	000098c8 	.word	0x000098c8
     874:	00008f7d 	.word	0x00008f7d
     878:	000098cc 	.word	0x000098cc
     87c:	00008f39 	.word	0x00008f39
     880:	00008fb9 	.word	0x00008fb9
     884:	00009750 	.word	0x00009750

00000888 <CliCharReadySemaphoreGiveFromISR>:
{
     888:	b510      	push	{r4, lr}
	xHigherPriorityTaskWoken = pdFALSE;
     88a:	4c08      	ldr	r4, [pc, #32]	; (8ac <CliCharReadySemaphoreGiveFromISR+0x24>)
     88c:	2300      	movs	r3, #0
     88e:	6023      	str	r3, [r4, #0]
	xSemaphoreGiveFromISR( cliCharReadySemaphore, &xHigherPriorityTaskWoken );
     890:	4b07      	ldr	r3, [pc, #28]	; (8b0 <CliCharReadySemaphoreGiveFromISR+0x28>)
     892:	6818      	ldr	r0, [r3, #0]
     894:	0021      	movs	r1, r4
     896:	4b07      	ldr	r3, [pc, #28]	; (8b4 <CliCharReadySemaphoreGiveFromISR+0x2c>)
     898:	4798      	blx	r3
	portYIELD_FROM_ISR( xHigherPriorityTaskWoken );
     89a:	6823      	ldr	r3, [r4, #0]
     89c:	2b00      	cmp	r3, #0
     89e:	d003      	beq.n	8a8 <CliCharReadySemaphoreGiveFromISR+0x20>
     8a0:	2280      	movs	r2, #128	; 0x80
     8a2:	0552      	lsls	r2, r2, #21
     8a4:	4b04      	ldr	r3, [pc, #16]	; (8b8 <CliCharReadySemaphoreGiveFromISR+0x30>)
     8a6:	601a      	str	r2, [r3, #0]
}
     8a8:	bd10      	pop	{r4, pc}
     8aa:	46c0      	nop			; (mov r8, r8)
     8ac:	20000310 	.word	0x20000310
     8b0:	20003864 	.word	0x20003864
     8b4:	00003b31 	.word	0x00003b31
     8b8:	e000ed04 	.word	0xe000ed04

000008bc <I2cSensorsTxComplete>:
				and is currently waiting for a notification that it has finished.
 * @param[in]   i2c Pointer to I2C structure used inside the Atmel ASFv3  framework
 * @return      This function is a callback, and it is registered as such when we send an I2C transmission on this I2C bus.
 * @note        
 *****************************************************************************/
void I2cSensorsTxComplete(struct i2c_master_module *const module){
     8bc:	b510      	push	{r4, lr}
     8be:	b082      	sub	sp, #8
	
	I2cSensorBusState.i2cState = I2C_BUS_READY;
     8c0:	4b0a      	ldr	r3, [pc, #40]	; (8ec <I2cSensorsTxComplete+0x30>)
     8c2:	2400      	movs	r4, #0
     8c4:	701c      	strb	r4, [r3, #0]
	I2cSensorBusState.rxDoneFlag = true;			
     8c6:	2201      	movs	r2, #1
     8c8:	609a      	str	r2, [r3, #8]
	BaseType_t xHigherPriorityTaskWoken = pdFALSE;
     8ca:	9401      	str	r4, [sp, #4]
	
	xSemaphoreGiveFromISR( sensorI2cSemaphoreHandle, &xHigherPriorityTaskWoken );
     8cc:	4b08      	ldr	r3, [pc, #32]	; (8f0 <I2cSensorsTxComplete+0x34>)
     8ce:	6818      	ldr	r0, [r3, #0]
     8d0:	a901      	add	r1, sp, #4
     8d2:	4b08      	ldr	r3, [pc, #32]	; (8f4 <I2cSensorsTxComplete+0x38>)
     8d4:	4798      	blx	r3
	sensorTransmitError = false;
     8d6:	4b08      	ldr	r3, [pc, #32]	; (8f8 <I2cSensorsTxComplete+0x3c>)
     8d8:	701c      	strb	r4, [r3, #0]
	portYIELD_FROM_ISR( xHigherPriorityTaskWoken );
     8da:	9b01      	ldr	r3, [sp, #4]
     8dc:	2b00      	cmp	r3, #0
     8de:	d003      	beq.n	8e8 <I2cSensorsTxComplete+0x2c>
     8e0:	2280      	movs	r2, #128	; 0x80
     8e2:	0552      	lsls	r2, r2, #21
     8e4:	4b05      	ldr	r3, [pc, #20]	; (8fc <I2cSensorsTxComplete+0x40>)
     8e6:	601a      	str	r2, [r3, #0]
}
     8e8:	b002      	add	sp, #8
     8ea:	bd10      	pop	{r4, pc}
     8ec:	20000314 	.word	0x20000314
     8f0:	20003894 	.word	0x20003894
     8f4:	00003b31 	.word	0x00003b31
     8f8:	20000328 	.word	0x20000328
     8fc:	e000ed04 	.word	0xe000ed04

00000900 <I2cSensorsRxComplete>:
					and is currently waiting for a notification that it has finished.
 * @param[in]		i2c Pointer to I2C structure used inside the Atmel ASFv3  framework
 * @return			This function is a callback, and it is registered as such when we send an I2C reception on this I2C bus.
 * @note        
 *****************************************************************************/
void I2cSensorsRxComplete(struct i2c_master_module *const module){
     900:	b510      	push	{r4, lr}
     902:	b082      	sub	sp, #8
	
	I2cSensorBusState.i2cState = I2C_BUS_READY;
     904:	4b0a      	ldr	r3, [pc, #40]	; (930 <I2cSensorsRxComplete+0x30>)
     906:	2400      	movs	r4, #0
     908:	701c      	strb	r4, [r3, #0]
	I2cSensorBusState.rxDoneFlag = true;
     90a:	2201      	movs	r2, #1
     90c:	609a      	str	r2, [r3, #8]
	BaseType_t xHigherPriorityTaskWoken = pdFALSE;
     90e:	9401      	str	r4, [sp, #4]
	
	xSemaphoreGiveFromISR( sensorI2cSemaphoreHandle, &xHigherPriorityTaskWoken );
     910:	4b08      	ldr	r3, [pc, #32]	; (934 <I2cSensorsRxComplete+0x34>)
     912:	6818      	ldr	r0, [r3, #0]
     914:	a901      	add	r1, sp, #4
     916:	4b08      	ldr	r3, [pc, #32]	; (938 <I2cSensorsRxComplete+0x38>)
     918:	4798      	blx	r3
	sensorTransmitError = false;
     91a:	4b08      	ldr	r3, [pc, #32]	; (93c <I2cSensorsRxComplete+0x3c>)
     91c:	701c      	strb	r4, [r3, #0]
	portYIELD_FROM_ISR( xHigherPriorityTaskWoken );
     91e:	9b01      	ldr	r3, [sp, #4]
     920:	2b00      	cmp	r3, #0
     922:	d003      	beq.n	92c <I2cSensorsRxComplete+0x2c>
     924:	2280      	movs	r2, #128	; 0x80
     926:	0552      	lsls	r2, r2, #21
     928:	4b05      	ldr	r3, [pc, #20]	; (940 <I2cSensorsRxComplete+0x40>)
     92a:	601a      	str	r2, [r3, #0]
}
     92c:	b002      	add	sp, #8
     92e:	bd10      	pop	{r4, pc}
     930:	20000314 	.word	0x20000314
     934:	20003894 	.word	0x20003894
     938:	00003b31 	.word	0x00003b31
     93c:	20000328 	.word	0x20000328
     940:	e000ed04 	.word	0xe000ed04

00000944 <I2cSensorsError>:
					and is currently waiting for a notification that it has finished.
 * @param[in]		i2c Pointer to I2C structure used inside the Atmel ASFv3  framework
 * @return			This function is a callback, and it is registered as such when we send an I2C reception on this I2C bus.
 * @note        
 *****************************************************************************/
void I2cSensorsError(struct i2c_master_module *const module){
     944:	b510      	push	{r4, lr}
     946:	b082      	sub	sp, #8
	
	I2cSensorBusState.i2cState = I2C_BUS_READY;
     948:	4b0a      	ldr	r3, [pc, #40]	; (974 <I2cSensorsError+0x30>)
     94a:	2400      	movs	r4, #0
     94c:	701c      	strb	r4, [r3, #0]
	I2cSensorBusState.txDoneFlag = true;
     94e:	2201      	movs	r2, #1
     950:	605a      	str	r2, [r3, #4]
	BaseType_t xHigherPriorityTaskWoken = pdFALSE;
     952:	9401      	str	r4, [sp, #4]
	
	xSemaphoreGiveFromISR( sensorI2cSemaphoreHandle, &xHigherPriorityTaskWoken );
     954:	4b08      	ldr	r3, [pc, #32]	; (978 <I2cSensorsError+0x34>)
     956:	6818      	ldr	r0, [r3, #0]
     958:	a901      	add	r1, sp, #4
     95a:	4b08      	ldr	r3, [pc, #32]	; (97c <I2cSensorsError+0x38>)
     95c:	4798      	blx	r3
	sensorTransmitError = false;
     95e:	4b08      	ldr	r3, [pc, #32]	; (980 <I2cSensorsError+0x3c>)
     960:	701c      	strb	r4, [r3, #0]
	portYIELD_FROM_ISR( xHigherPriorityTaskWoken );
     962:	9b01      	ldr	r3, [sp, #4]
     964:	2b00      	cmp	r3, #0
     966:	d003      	beq.n	970 <I2cSensorsError+0x2c>
     968:	2280      	movs	r2, #128	; 0x80
     96a:	0552      	lsls	r2, r2, #21
     96c:	4b05      	ldr	r3, [pc, #20]	; (984 <I2cSensorsError+0x40>)
     96e:	601a      	str	r2, [r3, #0]
}
     970:	b002      	add	sp, #8
     972:	bd10      	pop	{r4, pc}
     974:	20000314 	.word	0x20000314
     978:	20003894 	.word	0x20003894
     97c:	00003b31 	.word	0x00003b31
     980:	20000328 	.word	0x20000328
     984:	e000ed04 	.word	0xe000ed04

00000988 <I2cDriverRegisterSensorBusCallbacks>:



void I2cDriverRegisterSensorBusCallbacks(void)
{
     988:	b570      	push	{r4, r5, r6, lr}
	/* Register callback function. */
	i2c_master_register_callback(&i2cSensorBusInstance, I2cSensorsTxComplete,I2C_MASTER_CALLBACK_WRITE_COMPLETE);
     98a:	4c0c      	ldr	r4, [pc, #48]	; (9bc <I2cDriverRegisterSensorBusCallbacks+0x34>)
     98c:	2200      	movs	r2, #0
     98e:	490c      	ldr	r1, [pc, #48]	; (9c0 <I2cDriverRegisterSensorBusCallbacks+0x38>)
     990:	0020      	movs	r0, r4
     992:	4d0c      	ldr	r5, [pc, #48]	; (9c4 <I2cDriverRegisterSensorBusCallbacks+0x3c>)
     994:	47a8      	blx	r5
	/* Sanity check */
	Assert(module);
	Assert(module->hw);

	/* Mark callback as enabled */
	module->enabled_callback |= (1 << callback_type);
     996:	7e63      	ldrb	r3, [r4, #25]
     998:	2201      	movs	r2, #1
     99a:	4313      	orrs	r3, r2
     99c:	7663      	strb	r3, [r4, #25]
	i2c_master_enable_callback(&i2cSensorBusInstance,I2C_MASTER_CALLBACK_WRITE_COMPLETE);
	
	i2c_master_register_callback(&i2cSensorBusInstance, I2cSensorsRxComplete, I2C_MASTER_CALLBACK_READ_COMPLETE);
     99e:	490a      	ldr	r1, [pc, #40]	; (9c8 <I2cDriverRegisterSensorBusCallbacks+0x40>)
     9a0:	0020      	movs	r0, r4
     9a2:	47a8      	blx	r5
     9a4:	7e63      	ldrb	r3, [r4, #25]
     9a6:	2202      	movs	r2, #2
     9a8:	4313      	orrs	r3, r2
     9aa:	7663      	strb	r3, [r4, #25]
	i2c_master_enable_callback(&i2cSensorBusInstance,I2C_MASTER_CALLBACK_READ_COMPLETE);
	
	i2c_master_register_callback(&i2cSensorBusInstance, I2cSensorsError,I2C_MASTER_CALLBACK_ERROR);
     9ac:	4907      	ldr	r1, [pc, #28]	; (9cc <I2cDriverRegisterSensorBusCallbacks+0x44>)
     9ae:	0020      	movs	r0, r4
     9b0:	47a8      	blx	r5
     9b2:	7e63      	ldrb	r3, [r4, #25]
     9b4:	2204      	movs	r2, #4
     9b6:	4313      	orrs	r3, r2
     9b8:	7663      	strb	r3, [r4, #25]
	i2c_master_enable_callback(&i2cSensorBusInstance,I2C_MASTER_CALLBACK_ERROR);
}
     9ba:	bd70      	pop	{r4, r5, r6, pc}
     9bc:	2000386c 	.word	0x2000386c
     9c0:	000008bd 	.word	0x000008bd
     9c4:	00000315 	.word	0x00000315
     9c8:	00000901 	.word	0x00000901
     9cc:	00000945 	.word	0x00000945

000009d0 <I2cInitializeDriver>:
 * @fn			int32_t I2cInitializeDriver(void)
 * @brief       Function call to initialize the I2C driver\
 * @details     This function must be called from an RTOS thread if using RTOS, and must be called before any I2C call
 * @note        
 *****************************************************************************/
 int32_t I2cInitializeDriver(void){
     9d0:	b570      	push	{r4, r5, r6, lr}
     9d2:	b08e      	sub	sp, #56	; 0x38
static inline void i2c_master_get_config_defaults(
		struct i2c_master_config *const config)
{
	/*Sanity check argument */
	Assert(config);
	config->baud_rate        = I2C_MASTER_BAUD_RATE_100KHZ;
     9d4:	ab01      	add	r3, sp, #4
     9d6:	2264      	movs	r2, #100	; 0x64
     9d8:	9201      	str	r2, [sp, #4]
#ifdef FEATURE_I2C_FAST_MODE_PLUS_AND_HIGH_SPEED
	config->baud_rate_high_speed = I2C_MASTER_BAUD_RATE_3400KHZ;
     9da:	4a33      	ldr	r2, [pc, #204]	; (aa8 <I2cInitializeDriver+0xd8>)
     9dc:	9202      	str	r2, [sp, #8]
	config->transfer_speed       = I2C_MASTER_SPEED_STANDARD_AND_FAST;
     9de:	2200      	movs	r2, #0
     9e0:	9203      	str	r2, [sp, #12]
#endif
	config->generator_source = GCLK_GENERATOR_0;
     9e2:	731a      	strb	r2, [r3, #12]
	config->run_in_standby   = false;
     9e4:	761a      	strb	r2, [r3, #24]
	config->start_hold_time  = I2C_MASTER_START_HOLD_TIME_300NS_600NS;
     9e6:	2180      	movs	r1, #128	; 0x80
     9e8:	0389      	lsls	r1, r1, #14
     9ea:	9105      	str	r1, [sp, #20]
	config->buffer_timeout   = 65535;
	config->unknown_bus_state_timeout = 65535;
     9ec:	2101      	movs	r1, #1
     9ee:	4249      	negs	r1, r1
     9f0:	8299      	strh	r1, [r3, #20]
	config->pinmux_pad0      = PINMUX_DEFAULT;
	config->pinmux_pad1      = PINMUX_DEFAULT;
	config->scl_low_timeout  = false;
     9f2:	3125      	adds	r1, #37	; 0x25
     9f4:	545a      	strb	r2, [r3, r1]
	config->inactive_timeout = I2C_MASTER_INACTIVE_TIMEOUT_DISABLED;
     9f6:	920b      	str	r2, [sp, #44]	; 0x2c
#ifdef FEATURE_I2C_SCL_STRETCH_MODE
	config->scl_stretch_only_after_ack_bit = false;
     9f8:	3108      	adds	r1, #8
     9fa:	545a      	strb	r2, [r3, r1]
#endif
#ifdef FEATURE_I2C_SCL_EXTEND_TIMEOUT
	config->slave_scl_low_extend_timeout   = false;
     9fc:	3101      	adds	r1, #1
     9fe:	545a      	strb	r2, [r3, r1]
	config->master_scl_low_extend_timeout  = false;
     a00:	3101      	adds	r1, #1
     a02:	545a      	strb	r2, [r3, r1]
#endif
	/* The typical value is 215ns */
	config->sda_scl_rise_time_ns = 215;
     a04:	32d7      	adds	r2, #215	; 0xd7
     a06:	861a      	strh	r2, [r3, #48]	; 0x30
	config_i2c_master.pinmux_pad0 = PINMUX_PA08C_SERCOM0_PAD0;
     a08:	4a28      	ldr	r2, [pc, #160]	; (aac <I2cInitializeDriver+0xdc>)
     a0a:	9208      	str	r2, [sp, #32]
	config_i2c_master.pinmux_pad1 = PINMUX_PA09C_SERCOM0_PAD1;
     a0c:	4a28      	ldr	r2, [pc, #160]	; (ab0 <I2cInitializeDriver+0xe0>)
     a0e:	9209      	str	r2, [sp, #36]	; 0x24
	config_i2c_master.buffer_timeout = 1000;
     a10:	22fa      	movs	r2, #250	; 0xfa
     a12:	0092      	lsls	r2, r2, #2
     a14:	82da      	strh	r2, [r3, #22]
     a16:	2403      	movs	r4, #3
		errCodeAsf = i2c_master_init(&i2cSensorBusInstance, SERCOM0, &config_i2c_master);
     a18:	4d26      	ldr	r5, [pc, #152]	; (ab4 <I2cInitializeDriver+0xe4>)
     a1a:	4e27      	ldr	r6, [pc, #156]	; (ab8 <I2cInitializeDriver+0xe8>)
     a1c:	aa01      	add	r2, sp, #4
     a1e:	4927      	ldr	r1, [pc, #156]	; (abc <I2cInitializeDriver+0xec>)
     a20:	0028      	movs	r0, r5
     a22:	47b0      	blx	r6
		if(STATUS_OK == errCodeAsf){
     a24:	2800      	cmp	r0, #0
     a26:	d006      	beq.n	a36 <I2cInitializeDriver+0x66>
			i2c_master_reset(&i2cSensorBusInstance);
     a28:	4822      	ldr	r0, [pc, #136]	; (ab4 <I2cInitializeDriver+0xe4>)
     a2a:	4b25      	ldr	r3, [pc, #148]	; (ac0 <I2cInitializeDriver+0xf0>)
     a2c:	4798      	blx	r3
     a2e:	3c01      	subs	r4, #1
     a30:	b2e4      	uxtb	r4, r4
	for(uint8_t i = I2C_INIT_ATTEMPTS; i != 0; i--){
     a32:	2c00      	cmp	r4, #0
     a34:	d1f2      	bne.n	a1c <I2cInitializeDriver+0x4c>
{
	/* Sanity check of arguments */
	Assert(module);
	Assert(module->hw);

	SercomI2cm *const i2c_module = &(module->hw->I2CM);
     a36:	4b1f      	ldr	r3, [pc, #124]	; (ab4 <I2cInitializeDriver+0xe4>)
     a38:	681c      	ldr	r4, [r3, #0]
	return (i2c_hw->SYNCBUSY.reg & SERCOM_I2CM_SYNCBUSY_MASK);
     a3a:	2207      	movs	r2, #7
     a3c:	69e3      	ldr	r3, [r4, #28]
	while (i2c_master_is_syncing(module)) {
     a3e:	421a      	tst	r2, r3
     a40:	d1fc      	bne.n	a3c <I2cInitializeDriver+0x6c>

	/* Wait for module to sync */
	_i2c_master_wait_for_sync(module);

	/* Enable module */
	i2c_module->CTRLA.reg |= SERCOM_I2CM_CTRLA_ENABLE;
     a42:	6823      	ldr	r3, [r4, #0]
     a44:	2202      	movs	r2, #2
     a46:	4313      	orrs	r3, r2
     a48:	6023      	str	r3, [r4, #0]

#if I2C_MASTER_CALLBACK_MODE == true
	/* Enable module interrupts */
	system_interrupt_enable(_sercom_get_interrupt_vector(module->hw));
     a4a:	4d1a      	ldr	r5, [pc, #104]	; (ab4 <I2cInitializeDriver+0xe4>)
     a4c:	6828      	ldr	r0, [r5, #0]
     a4e:	4b1d      	ldr	r3, [pc, #116]	; (ac4 <I2cInitializeDriver+0xf4>)
     a50:	4798      	blx	r3
 * \param[in] vector Interrupt vector to enable
 */
static inline void system_interrupt_enable(
		const enum system_interrupt_vector vector)
{
	NVIC->ISER[0] = (uint32_t)(1 << ((uint32_t)vector & 0x0000001f));
     a52:	231f      	movs	r3, #31
     a54:	4018      	ands	r0, r3
     a56:	3b1e      	subs	r3, #30
     a58:	4083      	lsls	r3, r0
     a5a:	4a1b      	ldr	r2, [pc, #108]	; (ac8 <I2cInitializeDriver+0xf8>)
     a5c:	6013      	str	r3, [r2, #0]
#endif
	/* Start timeout if bus state is unknown */
	while (!(i2c_module->STATUS.reg & SERCOM_I2CM_STATUS_BUSSTATE(1))) {
		timeout_counter++;
		if(timeout_counter >= (module->unknown_bus_state_timeout)) {
     a5e:	88e8      	ldrh	r0, [r5, #6]
	uint32_t timeout_counter = 0;
     a60:	2300      	movs	r3, #0
	while (!(i2c_module->STATUS.reg & SERCOM_I2CM_STATUS_BUSSTATE(1))) {
     a62:	2110      	movs	r1, #16
     a64:	8b62      	ldrh	r2, [r4, #26]
     a66:	420a      	tst	r2, r1
     a68:	d104      	bne.n	a74 <I2cInitializeDriver+0xa4>
		timeout_counter++;
     a6a:	3301      	adds	r3, #1
		if(timeout_counter >= (module->unknown_bus_state_timeout)) {
     a6c:	4283      	cmp	r3, r0
     a6e:	d3f9      	bcc.n	a64 <I2cInitializeDriver+0x94>
			/* Timeout, force bus state to idle */
			i2c_module->STATUS.reg = SERCOM_I2CM_STATUS_BUSSTATE(1);
     a70:	2310      	movs	r3, #16
     a72:	8363      	strh	r3, [r4, #26]


	error = I2cDriverConfigureSensorBus();
	if(STATUS_OK != error) goto exit;
	
	I2cDriverRegisterSensorBusCallbacks();
     a74:	4b15      	ldr	r3, [pc, #84]	; (acc <I2cInitializeDriver+0xfc>)
     a76:	4798      	blx	r3
	
		
	sensorI2cMutexHandle = xSemaphoreCreateMutex();
     a78:	2001      	movs	r0, #1
     a7a:	4b15      	ldr	r3, [pc, #84]	; (ad0 <I2cInitializeDriver+0x100>)
     a7c:	4798      	blx	r3
     a7e:	4c15      	ldr	r4, [pc, #84]	; (ad4 <I2cInitializeDriver+0x104>)
     a80:	6020      	str	r0, [r4, #0]
	
	sensorI2cSemaphoreHandle = xSemaphoreCreateBinary();
     a82:	2203      	movs	r2, #3
     a84:	2100      	movs	r1, #0
     a86:	2001      	movs	r0, #1
     a88:	4b13      	ldr	r3, [pc, #76]	; (ad8 <I2cInitializeDriver+0x108>)
     a8a:	4798      	blx	r3
     a8c:	4b13      	ldr	r3, [pc, #76]	; (adc <I2cInitializeDriver+0x10c>)
     a8e:	6018      	str	r0, [r3, #0]
	//xSemaphoreGive(sensorI2cSemaphoreHandle);

	
	if(NULL == sensorI2cMutexHandle || NULL == sensorI2cSemaphoreHandle){
     a90:	6823      	ldr	r3, [r4, #0]
     a92:	2b00      	cmp	r3, #0
     a94:	d004      	beq.n	aa0 <I2cInitializeDriver+0xd0>
	error = I2cDriverConfigureSensorBus();
     a96:	2300      	movs	r3, #0
	if(NULL == sensorI2cMutexHandle || NULL == sensorI2cSemaphoreHandle){
     a98:	2800      	cmp	r0, #0
     a9a:	d102      	bne.n	aa2 <I2cInitializeDriver+0xd2>
		error = STATUS_SUSPEND;	//Could not initialize mutex!
     a9c:	3306      	adds	r3, #6
     a9e:	e000      	b.n	aa2 <I2cInitializeDriver+0xd2>
     aa0:	2306      	movs	r3, #6
		goto exit;
	}

	exit:
	return error;		
}
     aa2:	0018      	movs	r0, r3
     aa4:	b00e      	add	sp, #56	; 0x38
     aa6:	bd70      	pop	{r4, r5, r6, pc}
     aa8:	00000d48 	.word	0x00000d48
     aac:	00080002 	.word	0x00080002
     ab0:	00090002 	.word	0x00090002
     ab4:	2000386c 	.word	0x2000386c
     ab8:	00001651 	.word	0x00001651
     abc:	42000800 	.word	0x42000800
     ac0:	00001949 	.word	0x00001949
     ac4:	00005dd9 	.word	0x00005dd9
     ac8:	e000e100 	.word	0xe000e100
     acc:	00000989 	.word	0x00000989
     ad0:	000037cd 	.word	0x000037cd
     ad4:	20003868 	.word	0x20003868
     ad8:	00003369 	.word	0x00003369
     adc:	20003894 	.word	0x20003894

00000ae0 <I2cWriteData>:
 * @param[in]   data Pointer to I2C data structure which has all the information needed to send an I2C message
 * @return      Returns an error message in case of error. See ErrCodes.h
 * @note        
 *****************************************************************************/

int32_t I2cWriteData(I2C_Data *data){
     ae0:	b510      	push	{r4, lr}
	I2C_Bus_State * busI2cState;
	struct i2c_master_packet *writePacket = NULL;
	struct i2c_master_packet *readPacket = NULL;
	
	//Check parameters
	if(data == NULL || data->msgOut == NULL){
     ae2:	2800      	cmp	r0, #0
     ae4:	d012      	beq.n	b0c <I2cWriteData+0x2c>
     ae6:	6843      	ldr	r3, [r0, #4]
     ae8:	2b00      	cmp	r3, #0
     aea:	d012      	beq.n	b12 <I2cWriteData+0x32>
		error = ERR_INVALID_ARG;
		goto exit;
	}

	//Prepare to write
	sensorPacketWrite.address = data->address;
     aec:	490a      	ldr	r1, [pc, #40]	; (b18 <I2cWriteData+0x38>)
     aee:	7802      	ldrb	r2, [r0, #0]
     af0:	800a      	strh	r2, [r1, #0]
	sensorPacketWrite.data = (uint8_t*) data->msgOut;
     af2:	604b      	str	r3, [r1, #4]
	sensorPacketWrite.data_length = data->lenOut;
     af4:	89c3      	ldrh	r3, [r0, #14]
     af6:	804b      	strh	r3, [r1, #2]
	
	//Write

	 hwError = i2c_master_write_packet_job(&i2cSensorBusInstance, &sensorPacketWrite);
     af8:	4808      	ldr	r0, [pc, #32]	; (b1c <I2cWriteData+0x3c>)
     afa:	4b09      	ldr	r3, [pc, #36]	; (b20 <I2cWriteData+0x40>)
     afc:	4798      	blx	r3
	int32_t error = ERROR_NONE;
     afe:	2300      	movs	r3, #0
	
	if(STATUS_OK != hwError)
     b00:	2800      	cmp	r0, #0
     b02:	d101      	bne.n	b08 <I2cWriteData+0x28>
		goto exit;
	}
	
	exit:
	return error;
}
     b04:	0018      	movs	r0, r3
     b06:	bd10      	pop	{r4, pc}
		error = ERROR_IO;
     b08:	3b06      	subs	r3, #6
     b0a:	e7fb      	b.n	b04 <I2cWriteData+0x24>
		error = ERR_INVALID_ARG;
     b0c:	2308      	movs	r3, #8
     b0e:	425b      	negs	r3, r3
     b10:	e7f8      	b.n	b04 <I2cWriteData+0x24>
     b12:	2308      	movs	r3, #8
     b14:	425b      	negs	r3, r3
     b16:	e7f5      	b.n	b04 <I2cWriteData+0x24>
     b18:	200038d8 	.word	0x200038d8
     b1c:	2000386c 	.word	0x2000386c
     b20:	00000351 	.word	0x00000351

00000b24 <I2cReadData>:
 * @details     
 * @param[in]   data Pointer to I2C data structure which has all the information needed to send an I2C message
 * @return      Returns an error message in case of error. See ErrCodes.h
 * @note        
 *****************************************************************************/
int32_t I2cReadData(I2C_Data *data){
     b24:	b510      	push	{r4, lr}
	struct i2c_master_packet *writePacket = NULL;
	struct i2c_master_packet *readPacket = NULL;
	
	
	//Check parameters
	if(data == NULL || data->msgOut == NULL){
     b26:	2800      	cmp	r0, #0
     b28:	d013      	beq.n	b52 <I2cReadData+0x2e>
     b2a:	6843      	ldr	r3, [r0, #4]
     b2c:	2b00      	cmp	r3, #0
     b2e:	d013      	beq.n	b58 <I2cReadData+0x34>
		error = ERR_INVALID_ARG;
		goto exit;
	}

	//Prepare to read
	sensorPacketWrite.address = data->address;
     b30:	490b      	ldr	r1, [pc, #44]	; (b60 <I2cReadData+0x3c>)
     b32:	7803      	ldrb	r3, [r0, #0]
     b34:	800b      	strh	r3, [r1, #0]
	sensorPacketWrite.data = data->msgIn;
     b36:	6883      	ldr	r3, [r0, #8]
     b38:	604b      	str	r3, [r1, #4]
	sensorPacketWrite.data_length = data->lenIn;
     b3a:	8983      	ldrh	r3, [r0, #12]
     b3c:	804b      	strh	r3, [r1, #2]
	
	//Read

	hwError = i2c_master_read_packet_job(&i2cSensorBusInstance, &sensorPacketWrite);
     b3e:	4809      	ldr	r0, [pc, #36]	; (b64 <I2cReadData+0x40>)
     b40:	4b09      	ldr	r3, [pc, #36]	; (b68 <I2cReadData+0x44>)
     b42:	4798      	blx	r3
	int32_t error = ERROR_NONE;
     b44:	2300      	movs	r3, #0
	
	if(STATUS_OK != hwError)
     b46:	2800      	cmp	r0, #0
     b48:	d101      	bne.n	b4e <I2cReadData+0x2a>
		goto exit;
	}
	
	exit:
	return error;
}
     b4a:	0018      	movs	r0, r3
     b4c:	bd10      	pop	{r4, pc}
		error = ERROR_IO;
     b4e:	3b06      	subs	r3, #6
     b50:	e7fb      	b.n	b4a <I2cReadData+0x26>
		error = ERR_INVALID_ARG;
     b52:	2308      	movs	r3, #8
     b54:	425b      	negs	r3, r3
     b56:	e7f8      	b.n	b4a <I2cReadData+0x26>
     b58:	2308      	movs	r3, #8
     b5a:	425b      	negs	r3, r3
     b5c:	e7f5      	b.n	b4a <I2cReadData+0x26>
     b5e:	46c0      	nop			; (mov r8, r8)
     b60:	200038d8 	.word	0x200038d8
     b64:	2000386c 	.word	0x2000386c
     b68:	0000032d 	.word	0x0000032d

00000b6c <I2cFreeMutex>:
 * @details     
 * @param[in]   bus Enum that represents the bus in which we are interested to free the mutex of.
 * @return      Returns (ERROR_NONE) if the bus is ready, (ERROR_NOT_INITIALIZED) if it is busy.
 * @note        STUDENTS TO FILL OUT!
 *****************************************************************************/
int32_t I2cFreeMutex(void){
     b6c:	b510      	push	{r4, lr}
	int32_t error = ERROR_NONE;
	
	//students to fill out. Check what the function has to return
	
	if(I2cSensorBusState.i2cState == I2C_BUS_READY)
     b6e:	4b0a      	ldr	r3, [pc, #40]	; (b98 <I2cFreeMutex+0x2c>)
     b70:	781b      	ldrb	r3, [r3, #0]
     b72:	2b00      	cmp	r3, #0
     b74:	d10d      	bne.n	b92 <I2cFreeMutex+0x26>
	{
		if(xSemaphoreGive(sensorI2cMutexHandle) != pdTRUE)
     b76:	4b09      	ldr	r3, [pc, #36]	; (b9c <I2cFreeMutex+0x30>)
     b78:	6818      	ldr	r0, [r3, #0]
     b7a:	2300      	movs	r3, #0
     b7c:	2200      	movs	r2, #0
     b7e:	2100      	movs	r1, #0
     b80:	4c07      	ldr	r4, [pc, #28]	; (ba0 <I2cFreeMutex+0x34>)
     b82:	47a0      	blx	r4
	int32_t error = ERROR_NONE;
     b84:	2300      	movs	r3, #0
		if(xSemaphoreGive(sensorI2cMutexHandle) != pdTRUE)
     b86:	2801      	cmp	r0, #1
     b88:	d101      	bne.n	b8e <I2cFreeMutex+0x22>
		//SerialConsoleWriteString(checkerPrint);
	}
	//snprintf(checkerPrint, 64, "Our error inside I2cFreeMutex is: %d\r\n", error);
	//SerialConsoleWriteString(checkerPrint);
	return error;
}
     b8a:	0018      	movs	r0, r3
     b8c:	bd10      	pop	{r4, pc}
			error = ERROR_FAILURE; //whatever - Derek
     b8e:	3b1e      	subs	r3, #30
     b90:	e7fb      	b.n	b8a <I2cFreeMutex+0x1e>
		error = ERROR_NOT_INITIALIZED;
     b92:	2314      	movs	r3, #20
     b94:	425b      	negs	r3, r3
     b96:	e7f8      	b.n	b8a <I2cFreeMutex+0x1e>
     b98:	20000314 	.word	0x20000314
     b9c:	20003868 	.word	0x20003868
     ba0:	000034a5 	.word	0x000034a5

00000ba4 <I2cGetMutex>:
 * @details     
 * @param[in]   waitTime Time to wait for the mutex to be freed.
 * @return      Returns (ERROR_NONE) if we got the mutex, (ERROR_NOT_READY) if we time out before we got it
 * @note        
 *****************************************************************************/
int32_t I2cGetMutex(TickType_t waitTime){
     ba4:	b510      	push	{r4, lr}
	
	int32_t error = ERROR_NONE;
	
	//students to fill out. Check what the function has to return
	
	if(xSemaphoreTake(sensorI2cMutexHandle, portMAX_DELAY) != pdTRUE)
     ba6:	4b06      	ldr	r3, [pc, #24]	; (bc0 <I2cGetMutex+0x1c>)
     ba8:	6818      	ldr	r0, [r3, #0]
     baa:	2101      	movs	r1, #1
     bac:	4249      	negs	r1, r1
     bae:	4b05      	ldr	r3, [pc, #20]	; (bc4 <I2cGetMutex+0x20>)
     bb0:	4798      	blx	r3
	int32_t error = ERROR_NONE;
     bb2:	2300      	movs	r3, #0
	if(xSemaphoreTake(sensorI2cMutexHandle, portMAX_DELAY) != pdTRUE)
     bb4:	2801      	cmp	r0, #1
     bb6:	d101      	bne.n	bbc <I2cGetMutex+0x18>
	{
		error = ERROR_NOT_READY;
	}
	
	return error;
}
     bb8:	0018      	movs	r0, r3
     bba:	bd10      	pop	{r4, pc}
		error = ERROR_NOT_READY;
     bbc:	3b1d      	subs	r3, #29
     bbe:	e7fb      	b.n	bb8 <I2cGetMutex+0x14>
     bc0:	20003868 	.word	0x20003868
     bc4:	00003e4d 	.word	0x00003e4d

00000bc8 <I2cWriteDataWait>:
				the delay an I2C device needs to make a measurement.
 * @param[in]   xMaxBlockTime Maximum time for the thread to wait until the I2C mutex is free.
 * @return      Returns an error message in case of error.
 * @note        
 *****************************************************************************/
int32_t I2cWriteDataWait(I2C_Data *data, const TickType_t xMaxBlockTime){
     bc8:	b570      	push	{r4, r5, r6, lr}
     bca:	0005      	movs	r5, r0
     bcc:	000c      	movs	r4, r1
int32_t error = ERROR_NONE;
SemaphoreHandle_t semHandle = NULL;


//---0. Get Mutex
error = I2cGetMutex(xMaxBlockTime); //Students to fill out
     bce:	0008      	movs	r0, r1
     bd0:	4b0f      	ldr	r3, [pc, #60]	; (c10 <I2cWriteDataWait+0x48>)
     bd2:	4798      	blx	r3
if(ERROR_NONE != error) goto exit;
     bd4:	2800      	cmp	r0, #0
     bd6:	d000      	beq.n	bda <I2cWriteDataWait+0x12>
exitError0:
error = I2cFreeMutex();

return error;

}
     bd8:	bd70      	pop	{r4, r5, r6, pc}
	*handle = sensorI2cSemaphoreHandle;
     bda:	4b0e      	ldr	r3, [pc, #56]	; (c14 <I2cWriteDataWait+0x4c>)
     bdc:	681e      	ldr	r6, [r3, #0]
error = I2cWriteData(data);
     bde:	0028      	movs	r0, r5
     be0:	4b0d      	ldr	r3, [pc, #52]	; (c18 <I2cWriteDataWait+0x50>)
     be2:	4798      	blx	r3
if (ERROR_NONE != error){
     be4:	2800      	cmp	r0, #0
     be6:	d105      	bne.n	bf4 <I2cWriteDataWait+0x2c>
if( xSemaphoreTake( semHandle, xMaxBlockTime ) == pdTRUE ){
     be8:	0021      	movs	r1, r4
     bea:	0030      	movs	r0, r6
     bec:	4b0b      	ldr	r3, [pc, #44]	; (c1c <I2cWriteDataWait+0x54>)
     bee:	4798      	blx	r3
     bf0:	2801      	cmp	r0, #1
     bf2:	d002      	beq.n	bfa <I2cWriteDataWait+0x32>
error = I2cFreeMutex();
     bf4:	4b0a      	ldr	r3, [pc, #40]	; (c20 <I2cWriteDataWait+0x58>)
     bf6:	4798      	blx	r3
return error;
     bf8:	e7ee      	b.n	bd8 <I2cWriteDataWait+0x10>
	 return sensorTransmitError;
     bfa:	4b0a      	ldr	r3, [pc, #40]	; (c24 <I2cWriteDataWait+0x5c>)
	if(I2cGetTaskErrorStatus()){
     bfc:	781b      	ldrb	r3, [r3, #0]
     bfe:	2b00      	cmp	r3, #0
     c00:	d003      	beq.n	c0a <I2cWriteDataWait+0x42>
	sensorTransmitError = value;
     c02:	2200      	movs	r2, #0
     c04:	4b07      	ldr	r3, [pc, #28]	; (c24 <I2cWriteDataWait+0x5c>)
     c06:	701a      	strb	r2, [r3, #0]
     c08:	e7f4      	b.n	bf4 <I2cWriteDataWait+0x2c>
error |= I2cFreeMutex();
     c0a:	4b05      	ldr	r3, [pc, #20]	; (c20 <I2cWriteDataWait+0x58>)
     c0c:	4798      	blx	r3
     c0e:	e7e3      	b.n	bd8 <I2cWriteDataWait+0x10>
     c10:	00000ba5 	.word	0x00000ba5
     c14:	20003894 	.word	0x20003894
     c18:	00000ae1 	.word	0x00000ae1
     c1c:	00003e4d 	.word	0x00003e4d
     c20:	00000b6d 	.word	0x00000b6d
     c24:	20000328 	.word	0x20000328

00000c28 <I2cReadDataWait>:
 * @return      Returns an error message in case of error. See ErrCodes.h
 * @note        THIS IS THE FREERTOS VERSION! DO NOT Declare #define USE_FREERTOS if you wish to use the baremetal version!      
				students to fill!
 *****************************************************************************/

int32_t I2cReadDataWait(I2C_Data *data, const TickType_t delay, const TickType_t xMaxBlockTime){
     c28:	b570      	push	{r4, r5, r6, lr}
     c2a:	0004      	movs	r4, r0
     c2c:	0015      	movs	r5, r2
	int32_t error = ERROR_NONE;
	SemaphoreHandle_t semHandle = NULL;


	//---0. Get Mutex
	error = I2cGetMutex(xMaxBlockTime); //Students to fill out
     c2e:	0010      	movs	r0, r2
     c30:	4b19      	ldr	r3, [pc, #100]	; (c98 <I2cReadDataWait+0x70>)
     c32:	4798      	blx	r3
	if(ERROR_NONE != error) goto exit;
     c34:	2800      	cmp	r0, #0
     c36:	d000      	beq.n	c3a <I2cReadDataWait+0x12>
	error = I2cFreeMutex();

	return error;


}
     c38:	bd70      	pop	{r4, r5, r6, pc}
	*handle = sensorI2cSemaphoreHandle;
     c3a:	4b18      	ldr	r3, [pc, #96]	; (c9c <I2cReadDataWait+0x74>)
     c3c:	681e      	ldr	r6, [r3, #0]
	error = I2cWriteData(data);
     c3e:	0020      	movs	r0, r4
     c40:	4b17      	ldr	r3, [pc, #92]	; (ca0 <I2cReadDataWait+0x78>)
     c42:	4798      	blx	r3
	if (ERROR_NONE != error){
     c44:	2800      	cmp	r0, #0
     c46:	d105      	bne.n	c54 <I2cReadDataWait+0x2c>
	if( xSemaphoreTake( semHandle, xMaxBlockTime ) == pdTRUE ){
     c48:	0029      	movs	r1, r5
     c4a:	0030      	movs	r0, r6
     c4c:	4b15      	ldr	r3, [pc, #84]	; (ca4 <I2cReadDataWait+0x7c>)
     c4e:	4798      	blx	r3
     c50:	2801      	cmp	r0, #1
     c52:	d002      	beq.n	c5a <I2cReadDataWait+0x32>
	error = I2cFreeMutex();
     c54:	4b14      	ldr	r3, [pc, #80]	; (ca8 <I2cReadDataWait+0x80>)
     c56:	4798      	blx	r3
	return error;
     c58:	e7ee      	b.n	c38 <I2cReadDataWait+0x10>
	 return sensorTransmitError;
     c5a:	4b14      	ldr	r3, [pc, #80]	; (cac <I2cReadDataWait+0x84>)
		if(I2cGetTaskErrorStatus()){
     c5c:	781b      	ldrb	r3, [r3, #0]
     c5e:	2b00      	cmp	r3, #0
     c60:	d003      	beq.n	c6a <I2cReadDataWait+0x42>
	sensorTransmitError = value;
     c62:	2200      	movs	r2, #0
     c64:	4b11      	ldr	r3, [pc, #68]	; (cac <I2cReadDataWait+0x84>)
     c66:	701a      	strb	r2, [r3, #0]
     c68:	e7f4      	b.n	c54 <I2cReadDataWait+0x2c>
	error = I2cReadData(data);
     c6a:	0020      	movs	r0, r4
     c6c:	4b10      	ldr	r3, [pc, #64]	; (cb0 <I2cReadDataWait+0x88>)
     c6e:	4798      	blx	r3
     c70:	0004      	movs	r4, r0
	if( xSemaphoreTake( semHandle, xMaxBlockTime ) == pdTRUE ){
     c72:	0029      	movs	r1, r5
     c74:	0030      	movs	r0, r6
     c76:	4b0b      	ldr	r3, [pc, #44]	; (ca4 <I2cReadDataWait+0x7c>)
     c78:	4798      	blx	r3
     c7a:	2801      	cmp	r0, #1
     c7c:	d1ea      	bne.n	c54 <I2cReadDataWait+0x2c>
	 return sensorTransmitError;
     c7e:	4b0b      	ldr	r3, [pc, #44]	; (cac <I2cReadDataWait+0x84>)
		if(I2cGetTaskErrorStatus()){
     c80:	781b      	ldrb	r3, [r3, #0]
     c82:	2b00      	cmp	r3, #0
     c84:	d003      	beq.n	c8e <I2cReadDataWait+0x66>
	sensorTransmitError = value;
     c86:	2200      	movs	r2, #0
     c88:	4b08      	ldr	r3, [pc, #32]	; (cac <I2cReadDataWait+0x84>)
     c8a:	701a      	strb	r2, [r3, #0]
     c8c:	e7e2      	b.n	c54 <I2cReadDataWait+0x2c>
	error |= I2cFreeMutex();
     c8e:	4b06      	ldr	r3, [pc, #24]	; (ca8 <I2cReadDataWait+0x80>)
     c90:	4798      	blx	r3
     c92:	4320      	orrs	r0, r4
     c94:	e7d0      	b.n	c38 <I2cReadDataWait+0x10>
     c96:	46c0      	nop			; (mov r8, r8)
     c98:	00000ba5 	.word	0x00000ba5
     c9c:	20003894 	.word	0x20003894
     ca0:	00000ae1 	.word	0x00000ae1
     ca4:	00003e4d 	.word	0x00003e4d
     ca8:	00000b6d 	.word	0x00000b6d
     cac:	20000328 	.word	0x20000328
     cb0:	00000b25 	.word	0x00000b25

00000cb4 <platform_read>:
 * @param[in]   len Length of the data to be read
 * @return      Returns what the function "I2cWriteDataWait" returns
 * @note        STUDENTS TO FILL  
*****************************************************************************/
static  int32_t platform_read(void *handle, uint8_t reg, uint8_t *bufp, uint16_t len)
{
     cb4:	b510      	push	{r4, lr}
	//YOUR JOB: Fill out the structure "imuData" to send to the device
	//TIP: Check the structure "imuData" and notice that it has a msgOut and msgIn parameter. How do we fill this to our advantage?
	int32_t error = ERROR_NONE;
	
	imuData.address = LSM6DSO_I2C_ADD_H;
     cb6:	4808      	ldr	r0, [pc, #32]	; (cd8 <platform_read+0x24>)
     cb8:	246b      	movs	r4, #107	; 0x6b
     cba:	7004      	strb	r4, [r0, #0]
	imuData.lenIn = len;
     cbc:	8183      	strh	r3, [r0, #12]
	imuData.msgIn = bufp;
     cbe:	6082      	str	r2, [r0, #8]
	
	imuData.lenOut = 1;
     cc0:	2301      	movs	r3, #1
     cc2:	81c3      	strh	r3, [r0, #14]
	msgOutImu[0] = reg;
     cc4:	4b05      	ldr	r3, [pc, #20]	; (cdc <platform_read+0x28>)
     cc6:	7019      	strb	r1, [r3, #0]
	msgOutImu[1] = 0;
     cc8:	2200      	movs	r2, #0
     cca:	705a      	strb	r2, [r3, #1]
	imuData.msgOut = &msgOutImu;
     ccc:	6043      	str	r3, [r0, #4]

	error = I2cReadDataWait(&imuData, 50, 100);
     cce:	3264      	adds	r2, #100	; 0x64
     cd0:	2132      	movs	r1, #50	; 0x32
     cd2:	4b03      	ldr	r3, [pc, #12]	; (ce0 <platform_read+0x2c>)
     cd4:	4798      	blx	r3
	
	return error;

}
     cd6:	bd10      	pop	{r4, pc}
     cd8:	20003924 	.word	0x20003924
     cdc:	200038e4 	.word	0x200038e4
     ce0:	00000c29 	.word	0x00000c29

00000ce4 <platform_write>:
{
     ce4:	b510      	push	{r4, lr}
	msgOutImu[0] = reg;
     ce6:	480b      	ldr	r0, [pc, #44]	; (d14 <platform_write+0x30>)
     ce8:	7001      	strb	r1, [r0, #0]
 	for(int i = 0; i < len; i++)
     cea:	2b00      	cmp	r3, #0
     cec:	dd07      	ble.n	cfe <platform_write+0x1a>
     cee:	490a      	ldr	r1, [pc, #40]	; (d18 <platform_write+0x34>)
     cf0:	18cc      	adds	r4, r1, r3
 		msgOutImu[i+1] = bufp[i];
     cf2:	7810      	ldrb	r0, [r2, #0]
     cf4:	7008      	strb	r0, [r1, #0]
     cf6:	3201      	adds	r2, #1
     cf8:	3101      	adds	r1, #1
 	for(int i = 0; i < len; i++)
     cfa:	42a1      	cmp	r1, r4
     cfc:	d1f9      	bne.n	cf2 <platform_write+0xe>
	imuData.address = LSM6DSO_I2C_ADD_H;
     cfe:	4807      	ldr	r0, [pc, #28]	; (d1c <platform_write+0x38>)
     d00:	226b      	movs	r2, #107	; 0x6b
     d02:	7002      	strb	r2, [r0, #0]
	imuData.lenOut = 1+len;
     d04:	3301      	adds	r3, #1
     d06:	81c3      	strh	r3, [r0, #14]
	imuData.msgOut = &msgOutImu;
     d08:	4b02      	ldr	r3, [pc, #8]	; (d14 <platform_write+0x30>)
     d0a:	6043      	str	r3, [r0, #4]
	error = I2cWriteDataWait(&imuData, 100);
     d0c:	2164      	movs	r1, #100	; 0x64
     d0e:	4b04      	ldr	r3, [pc, #16]	; (d20 <platform_write+0x3c>)
     d10:	4798      	blx	r3
}
     d12:	bd10      	pop	{r4, pc}
     d14:	200038e4 	.word	0x200038e4
     d18:	200038e5 	.word	0x200038e5
     d1c:	20003924 	.word	0x20003924
     d20:	00000bc9 	.word	0x00000bc9

00000d24 <lsm6dso_read_reg>:
{
     d24:	b570      	push	{r4, r5, r6, lr}
  ret = ctx->read_reg(ctx->handle, reg, data, len);
     d26:	6885      	ldr	r5, [r0, #8]
     d28:	6844      	ldr	r4, [r0, #4]
     d2a:	0028      	movs	r0, r5
     d2c:	47a0      	blx	r4
}
     d2e:	bd70      	pop	{r4, r5, r6, pc}

00000d30 <lsm6dso_write_reg>:
{
     d30:	b570      	push	{r4, r5, r6, lr}
  ret = ctx->write_reg(ctx->handle, reg, data, len);
     d32:	6885      	ldr	r5, [r0, #8]
     d34:	6804      	ldr	r4, [r0, #0]
     d36:	0028      	movs	r0, r5
     d38:	47a0      	blx	r4
}
     d3a:	bd70      	pop	{r4, r5, r6, pc}

00000d3c <lsm6dso_from_fs2_to_mg>:
{
     d3c:	b510      	push	{r4, lr}
  return ((float_t)lsb) * 0.061f;
     d3e:	4b03      	ldr	r3, [pc, #12]	; (d4c <lsm6dso_from_fs2_to_mg+0x10>)
     d40:	4798      	blx	r3
     d42:	4903      	ldr	r1, [pc, #12]	; (d50 <lsm6dso_from_fs2_to_mg+0x14>)
     d44:	4b03      	ldr	r3, [pc, #12]	; (d54 <lsm6dso_from_fs2_to_mg+0x18>)
     d46:	4798      	blx	r3
}
     d48:	bd10      	pop	{r4, pc}
     d4a:	46c0      	nop			; (mov r8, r8)
     d4c:	00007379 	.word	0x00007379
     d50:	3d79db23 	.word	0x3d79db23
     d54:	000070f9 	.word	0x000070f9

00000d58 <lsm6dso_xl_full_scale_set>:
{
     d58:	b570      	push	{r4, r5, r6, lr}
     d5a:	b082      	sub	sp, #8
     d5c:	0004      	movs	r4, r0
     d5e:	000d      	movs	r5, r1
  ret = lsm6dso_read_reg(ctx, LSM6DSO_CTRL1_XL, (uint8_t *)&reg, 1);
     d60:	2301      	movs	r3, #1
     d62:	aa01      	add	r2, sp, #4
     d64:	2110      	movs	r1, #16
     d66:	4e0a      	ldr	r6, [pc, #40]	; (d90 <lsm6dso_xl_full_scale_set+0x38>)
     d68:	47b0      	blx	r6
  if (ret == 0)
     d6a:	2800      	cmp	r0, #0
     d6c:	d001      	beq.n	d72 <lsm6dso_xl_full_scale_set+0x1a>
}
     d6e:	b002      	add	sp, #8
     d70:	bd70      	pop	{r4, r5, r6, pc}
    reg.fs_xl = (uint8_t) val;
     d72:	aa01      	add	r2, sp, #4
     d74:	2103      	movs	r1, #3
     d76:	4029      	ands	r1, r5
     d78:	008b      	lsls	r3, r1, #2
     d7a:	7811      	ldrb	r1, [r2, #0]
     d7c:	300c      	adds	r0, #12
     d7e:	4381      	bics	r1, r0
     d80:	4319      	orrs	r1, r3
     d82:	7011      	strb	r1, [r2, #0]
    ret = lsm6dso_write_reg(ctx, LSM6DSO_CTRL1_XL, (uint8_t *)&reg, 1);
     d84:	2301      	movs	r3, #1
     d86:	2110      	movs	r1, #16
     d88:	0020      	movs	r0, r4
     d8a:	4c02      	ldr	r4, [pc, #8]	; (d94 <lsm6dso_xl_full_scale_set+0x3c>)
     d8c:	47a0      	blx	r4
  return ret;
     d8e:	e7ee      	b.n	d6e <lsm6dso_xl_full_scale_set+0x16>
     d90:	00000d25 	.word	0x00000d25
     d94:	00000d31 	.word	0x00000d31

00000d98 <lsm6dso_gy_full_scale_set>:
{
     d98:	b570      	push	{r4, r5, r6, lr}
     d9a:	b082      	sub	sp, #8
     d9c:	0004      	movs	r4, r0
     d9e:	000d      	movs	r5, r1
  ret = lsm6dso_read_reg(ctx, LSM6DSO_CTRL2_G, (uint8_t *)&reg, 1);
     da0:	2301      	movs	r3, #1
     da2:	aa01      	add	r2, sp, #4
     da4:	2111      	movs	r1, #17
     da6:	4e0a      	ldr	r6, [pc, #40]	; (dd0 <lsm6dso_gy_full_scale_set+0x38>)
     da8:	47b0      	blx	r6
  if (ret == 0)
     daa:	2800      	cmp	r0, #0
     dac:	d001      	beq.n	db2 <lsm6dso_gy_full_scale_set+0x1a>
}
     dae:	b002      	add	sp, #8
     db0:	bd70      	pop	{r4, r5, r6, pc}
    reg.fs_g = (uint8_t) val;
     db2:	aa01      	add	r2, sp, #4
     db4:	2107      	movs	r1, #7
     db6:	4029      	ands	r1, r5
     db8:	004b      	lsls	r3, r1, #1
     dba:	7811      	ldrb	r1, [r2, #0]
     dbc:	300e      	adds	r0, #14
     dbe:	4381      	bics	r1, r0
     dc0:	4319      	orrs	r1, r3
     dc2:	7011      	strb	r1, [r2, #0]
    ret = lsm6dso_write_reg(ctx, LSM6DSO_CTRL2_G, (uint8_t *)&reg, 1);
     dc4:	2301      	movs	r3, #1
     dc6:	2111      	movs	r1, #17
     dc8:	0020      	movs	r0, r4
     dca:	4c02      	ldr	r4, [pc, #8]	; (dd4 <lsm6dso_gy_full_scale_set+0x3c>)
     dcc:	47a0      	blx	r4
  return ret;
     dce:	e7ee      	b.n	dae <lsm6dso_gy_full_scale_set+0x16>
     dd0:	00000d25 	.word	0x00000d25
     dd4:	00000d31 	.word	0x00000d31

00000dd8 <lsm6dso_block_data_update_set>:
{
     dd8:	b570      	push	{r4, r5, r6, lr}
     dda:	b082      	sub	sp, #8
     ddc:	0004      	movs	r4, r0
     dde:	000d      	movs	r5, r1
  ret = lsm6dso_read_reg(ctx, LSM6DSO_CTRL3_C, (uint8_t *)&reg, 1);
     de0:	2301      	movs	r3, #1
     de2:	aa01      	add	r2, sp, #4
     de4:	2112      	movs	r1, #18
     de6:	4e0a      	ldr	r6, [pc, #40]	; (e10 <lsm6dso_block_data_update_set+0x38>)
     de8:	47b0      	blx	r6
  if (ret == 0)
     dea:	2800      	cmp	r0, #0
     dec:	d001      	beq.n	df2 <lsm6dso_block_data_update_set+0x1a>
}
     dee:	b002      	add	sp, #8
     df0:	bd70      	pop	{r4, r5, r6, pc}
    reg.bdu = val;
     df2:	aa01      	add	r2, sp, #4
     df4:	2101      	movs	r1, #1
     df6:	4029      	ands	r1, r5
     df8:	018b      	lsls	r3, r1, #6
     dfa:	7811      	ldrb	r1, [r2, #0]
     dfc:	3040      	adds	r0, #64	; 0x40
     dfe:	4381      	bics	r1, r0
     e00:	4319      	orrs	r1, r3
     e02:	7011      	strb	r1, [r2, #0]
    ret = lsm6dso_write_reg(ctx, LSM6DSO_CTRL3_C, (uint8_t *)&reg, 1);
     e04:	2301      	movs	r3, #1
     e06:	2112      	movs	r1, #18
     e08:	0020      	movs	r0, r4
     e0a:	4c02      	ldr	r4, [pc, #8]	; (e14 <lsm6dso_block_data_update_set+0x3c>)
     e0c:	47a0      	blx	r4
  return ret;
     e0e:	e7ee      	b.n	dee <lsm6dso_block_data_update_set+0x16>
     e10:	00000d25 	.word	0x00000d25
     e14:	00000d31 	.word	0x00000d31

00000e18 <lsm6dso_xl_offset_weight_set>:
{
     e18:	b570      	push	{r4, r5, r6, lr}
     e1a:	b082      	sub	sp, #8
     e1c:	0004      	movs	r4, r0
     e1e:	000d      	movs	r5, r1
  ret = lsm6dso_read_reg(ctx, LSM6DSO_CTRL6_C, (uint8_t *)&reg, 1);
     e20:	2301      	movs	r3, #1
     e22:	aa01      	add	r2, sp, #4
     e24:	2115      	movs	r1, #21
     e26:	4e0a      	ldr	r6, [pc, #40]	; (e50 <lsm6dso_xl_offset_weight_set+0x38>)
     e28:	47b0      	blx	r6
  if (ret == 0)
     e2a:	2800      	cmp	r0, #0
     e2c:	d001      	beq.n	e32 <lsm6dso_xl_offset_weight_set+0x1a>
}
     e2e:	b002      	add	sp, #8
     e30:	bd70      	pop	{r4, r5, r6, pc}
    reg.usr_off_w = (uint8_t)val;
     e32:	aa01      	add	r2, sp, #4
     e34:	2101      	movs	r1, #1
     e36:	4029      	ands	r1, r5
     e38:	00cb      	lsls	r3, r1, #3
     e3a:	7811      	ldrb	r1, [r2, #0]
     e3c:	3008      	adds	r0, #8
     e3e:	4381      	bics	r1, r0
     e40:	4319      	orrs	r1, r3
     e42:	7011      	strb	r1, [r2, #0]
    ret = lsm6dso_write_reg(ctx, LSM6DSO_CTRL6_C, (uint8_t *)&reg, 1);
     e44:	2301      	movs	r3, #1
     e46:	2115      	movs	r1, #21
     e48:	0020      	movs	r0, r4
     e4a:	4c02      	ldr	r4, [pc, #8]	; (e54 <lsm6dso_xl_offset_weight_set+0x3c>)
     e4c:	47a0      	blx	r4
  return ret;
     e4e:	e7ee      	b.n	e2e <lsm6dso_xl_offset_weight_set+0x16>
     e50:	00000d25 	.word	0x00000d25
     e54:	00000d31 	.word	0x00000d31

00000e58 <lsm6dso_xl_flag_data_ready_get>:
{
     e58:	b570      	push	{r4, r5, r6, lr}
     e5a:	b082      	sub	sp, #8
     e5c:	000d      	movs	r5, r1
  ret = lsm6dso_read_reg(ctx, LSM6DSO_STATUS_REG, (uint8_t *)&reg, 1);
     e5e:	ac01      	add	r4, sp, #4
     e60:	2301      	movs	r3, #1
     e62:	0022      	movs	r2, r4
     e64:	211e      	movs	r1, #30
     e66:	4e04      	ldr	r6, [pc, #16]	; (e78 <lsm6dso_xl_flag_data_ready_get+0x20>)
     e68:	47b0      	blx	r6
  *val = reg.xlda;
     e6a:	7823      	ldrb	r3, [r4, #0]
     e6c:	07db      	lsls	r3, r3, #31
     e6e:	0fdb      	lsrs	r3, r3, #31
     e70:	702b      	strb	r3, [r5, #0]
}
     e72:	b002      	add	sp, #8
     e74:	bd70      	pop	{r4, r5, r6, pc}
     e76:	46c0      	nop			; (mov r8, r8)
     e78:	00000d25 	.word	0x00000d25

00000e7c <lsm6dso_acceleration_raw_get>:
{
     e7c:	b530      	push	{r4, r5, lr}
     e7e:	b083      	sub	sp, #12
     e80:	000c      	movs	r4, r1
  ret = lsm6dso_read_reg(ctx, LSM6DSO_OUTX_L_A, buff, 6);
     e82:	2306      	movs	r3, #6
     e84:	466a      	mov	r2, sp
     e86:	2128      	movs	r1, #40	; 0x28
     e88:	4d0a      	ldr	r5, [pc, #40]	; (eb4 <lsm6dso_acceleration_raw_get+0x38>)
     e8a:	47a8      	blx	r5
  val[0] = (val[0] * 256) + (int16_t)buff[0];
     e8c:	466b      	mov	r3, sp
     e8e:	785a      	ldrb	r2, [r3, #1]
     e90:	0212      	lsls	r2, r2, #8
     e92:	781b      	ldrb	r3, [r3, #0]
     e94:	189b      	adds	r3, r3, r2
     e96:	8023      	strh	r3, [r4, #0]
  val[1] = (val[1] * 256) + (int16_t)buff[2];
     e98:	466b      	mov	r3, sp
     e9a:	78da      	ldrb	r2, [r3, #3]
     e9c:	0212      	lsls	r2, r2, #8
     e9e:	789b      	ldrb	r3, [r3, #2]
     ea0:	189b      	adds	r3, r3, r2
     ea2:	8063      	strh	r3, [r4, #2]
  val[2] = (val[2] * 256) + (int16_t)buff[4];
     ea4:	466b      	mov	r3, sp
     ea6:	795a      	ldrb	r2, [r3, #5]
     ea8:	0212      	lsls	r2, r2, #8
     eaa:	791b      	ldrb	r3, [r3, #4]
     eac:	189b      	adds	r3, r3, r2
     eae:	80a3      	strh	r3, [r4, #4]
}
     eb0:	b003      	add	sp, #12
     eb2:	bd30      	pop	{r4, r5, pc}
     eb4:	00000d25 	.word	0x00000d25

00000eb8 <lsm6dso_mem_bank_set>:
{
     eb8:	b570      	push	{r4, r5, r6, lr}
     eba:	b082      	sub	sp, #8
     ebc:	0004      	movs	r4, r0
     ebe:	000d      	movs	r5, r1
  ret = lsm6dso_read_reg(ctx, LSM6DSO_FUNC_CFG_ACCESS, (uint8_t *)&reg, 1);
     ec0:	2301      	movs	r3, #1
     ec2:	aa01      	add	r2, sp, #4
     ec4:	2101      	movs	r1, #1
     ec6:	4e09      	ldr	r6, [pc, #36]	; (eec <lsm6dso_mem_bank_set+0x34>)
     ec8:	47b0      	blx	r6
  if (ret == 0)
     eca:	2800      	cmp	r0, #0
     ecc:	d001      	beq.n	ed2 <lsm6dso_mem_bank_set+0x1a>
}
     ece:	b002      	add	sp, #8
     ed0:	bd70      	pop	{r4, r5, r6, pc}
    reg.reg_access = (uint8_t)val;
     ed2:	aa01      	add	r2, sp, #4
     ed4:	01ad      	lsls	r5, r5, #6
     ed6:	7813      	ldrb	r3, [r2, #0]
     ed8:	213f      	movs	r1, #63	; 0x3f
     eda:	4019      	ands	r1, r3
     edc:	4329      	orrs	r1, r5
     ede:	7011      	strb	r1, [r2, #0]
    ret = lsm6dso_write_reg(ctx, LSM6DSO_FUNC_CFG_ACCESS, (uint8_t *)&reg, 1);
     ee0:	2301      	movs	r3, #1
     ee2:	2101      	movs	r1, #1
     ee4:	0020      	movs	r0, r4
     ee6:	4c02      	ldr	r4, [pc, #8]	; (ef0 <lsm6dso_mem_bank_set+0x38>)
     ee8:	47a0      	blx	r4
  return ret;
     eea:	e7f0      	b.n	ece <lsm6dso_mem_bank_set+0x16>
     eec:	00000d25 	.word	0x00000d25
     ef0:	00000d31 	.word	0x00000d31

00000ef4 <lsm6dso_device_id_get>:
{
     ef4:	b510      	push	{r4, lr}
     ef6:	000a      	movs	r2, r1
  ret = lsm6dso_read_reg(ctx, LSM6DSO_WHO_AM_I, buff, 1);
     ef8:	2301      	movs	r3, #1
     efa:	210f      	movs	r1, #15
     efc:	4c01      	ldr	r4, [pc, #4]	; (f04 <lsm6dso_device_id_get+0x10>)
     efe:	47a0      	blx	r4
}
     f00:	bd10      	pop	{r4, pc}
     f02:	46c0      	nop			; (mov r8, r8)
     f04:	00000d25 	.word	0x00000d25

00000f08 <lsm6dso_reset_set>:
{
     f08:	b570      	push	{r4, r5, r6, lr}
     f0a:	b082      	sub	sp, #8
     f0c:	0004      	movs	r4, r0
     f0e:	000e      	movs	r6, r1
  ret = lsm6dso_read_reg(ctx, LSM6DSO_CTRL3_C, (uint8_t *)&reg, 1);
     f10:	2301      	movs	r3, #1
     f12:	aa01      	add	r2, sp, #4
     f14:	2112      	movs	r1, #18
     f16:	4d09      	ldr	r5, [pc, #36]	; (f3c <lsm6dso_reset_set+0x34>)
     f18:	47a8      	blx	r5
  if (ret == 0)
     f1a:	2800      	cmp	r0, #0
     f1c:	d001      	beq.n	f22 <lsm6dso_reset_set+0x1a>
}
     f1e:	b002      	add	sp, #8
     f20:	bd70      	pop	{r4, r5, r6, pc}
    reg.sw_reset = val;
     f22:	aa01      	add	r2, sp, #4
     f24:	2101      	movs	r1, #1
     f26:	400e      	ands	r6, r1
     f28:	7811      	ldrb	r1, [r2, #0]
     f2a:	2301      	movs	r3, #1
     f2c:	4399      	bics	r1, r3
     f2e:	4331      	orrs	r1, r6
     f30:	7011      	strb	r1, [r2, #0]
    ret = lsm6dso_write_reg(ctx, LSM6DSO_CTRL3_C, (uint8_t *)&reg, 1);
     f32:	2112      	movs	r1, #18
     f34:	0020      	movs	r0, r4
     f36:	4c02      	ldr	r4, [pc, #8]	; (f40 <lsm6dso_reset_set+0x38>)
     f38:	47a0      	blx	r4
  return ret;
     f3a:	e7f0      	b.n	f1e <lsm6dso_reset_set+0x16>
     f3c:	00000d25 	.word	0x00000d25
     f40:	00000d31 	.word	0x00000d31

00000f44 <lsm6dso_reset_get>:
{
     f44:	b570      	push	{r4, r5, r6, lr}
     f46:	b082      	sub	sp, #8
     f48:	000d      	movs	r5, r1
  ret = lsm6dso_read_reg(ctx, LSM6DSO_CTRL3_C, (uint8_t *)&reg, 1);
     f4a:	ac01      	add	r4, sp, #4
     f4c:	2301      	movs	r3, #1
     f4e:	0022      	movs	r2, r4
     f50:	2112      	movs	r1, #18
     f52:	4e04      	ldr	r6, [pc, #16]	; (f64 <lsm6dso_reset_get+0x20>)
     f54:	47b0      	blx	r6
  *val = reg.sw_reset;
     f56:	7823      	ldrb	r3, [r4, #0]
     f58:	07db      	lsls	r3, r3, #31
     f5a:	0fdb      	lsrs	r3, r3, #31
     f5c:	702b      	strb	r3, [r5, #0]
}
     f5e:	b002      	add	sp, #8
     f60:	bd70      	pop	{r4, r5, r6, pc}
     f62:	46c0      	nop			; (mov r8, r8)
     f64:	00000d25 	.word	0x00000d25

00000f68 <lsm6dso_xl_filter_lp2_set>:
{
     f68:	b570      	push	{r4, r5, r6, lr}
     f6a:	b082      	sub	sp, #8
     f6c:	0004      	movs	r4, r0
     f6e:	000d      	movs	r5, r1
  ret = lsm6dso_read_reg(ctx, LSM6DSO_CTRL1_XL, (uint8_t *)&reg, 1);
     f70:	2301      	movs	r3, #1
     f72:	aa01      	add	r2, sp, #4
     f74:	2110      	movs	r1, #16
     f76:	4e0a      	ldr	r6, [pc, #40]	; (fa0 <lsm6dso_xl_filter_lp2_set+0x38>)
     f78:	47b0      	blx	r6
  if (ret == 0)
     f7a:	2800      	cmp	r0, #0
     f7c:	d001      	beq.n	f82 <lsm6dso_xl_filter_lp2_set+0x1a>
}
     f7e:	b002      	add	sp, #8
     f80:	bd70      	pop	{r4, r5, r6, pc}
    reg.lpf2_xl_en = val;
     f82:	aa01      	add	r2, sp, #4
     f84:	2101      	movs	r1, #1
     f86:	4029      	ands	r1, r5
     f88:	004b      	lsls	r3, r1, #1
     f8a:	7811      	ldrb	r1, [r2, #0]
     f8c:	3002      	adds	r0, #2
     f8e:	4381      	bics	r1, r0
     f90:	4319      	orrs	r1, r3
     f92:	7011      	strb	r1, [r2, #0]
    ret = lsm6dso_write_reg(ctx, LSM6DSO_CTRL1_XL, (uint8_t *)&reg, 1);
     f94:	2301      	movs	r3, #1
     f96:	2110      	movs	r1, #16
     f98:	0020      	movs	r0, r4
     f9a:	4c02      	ldr	r4, [pc, #8]	; (fa4 <lsm6dso_xl_filter_lp2_set+0x3c>)
     f9c:	47a0      	blx	r4
  return ret;
     f9e:	e7ee      	b.n	f7e <lsm6dso_xl_filter_lp2_set+0x16>
     fa0:	00000d25 	.word	0x00000d25
     fa4:	00000d31 	.word	0x00000d31

00000fa8 <lsm6dso_xl_hp_path_on_out_set>:
{
     fa8:	b570      	push	{r4, r5, r6, lr}
     faa:	b082      	sub	sp, #8
     fac:	0004      	movs	r4, r0
     fae:	000d      	movs	r5, r1
  ret = lsm6dso_read_reg(ctx, LSM6DSO_CTRL8_XL, (uint8_t *)&reg, 1);
     fb0:	2301      	movs	r3, #1
     fb2:	aa01      	add	r2, sp, #4
     fb4:	2117      	movs	r1, #23
     fb6:	4e10      	ldr	r6, [pc, #64]	; (ff8 <lsm6dso_xl_hp_path_on_out_set+0x50>)
     fb8:	47b0      	blx	r6
  if (ret == 0)
     fba:	2800      	cmp	r0, #0
     fbc:	d001      	beq.n	fc2 <lsm6dso_xl_hp_path_on_out_set+0x1a>
}
     fbe:	b002      	add	sp, #8
     fc0:	bd70      	pop	{r4, r5, r6, pc}
    reg.hp_slope_xl_en = ((uint8_t)val & 0x10U) >> 4;
     fc2:	aa01      	add	r2, sp, #4
     fc4:	092b      	lsrs	r3, r5, #4
     fc6:	2101      	movs	r1, #1
     fc8:	400b      	ands	r3, r1
     fca:	0098      	lsls	r0, r3, #2
     fcc:	7813      	ldrb	r3, [r2, #0]
     fce:	2604      	movs	r6, #4
     fd0:	43b3      	bics	r3, r6
    reg.hp_ref_mode_xl = ((uint8_t)val & 0x20U) >> 5;
     fd2:	096e      	lsrs	r6, r5, #5
     fd4:	4031      	ands	r1, r6
     fd6:	0109      	lsls	r1, r1, #4
     fd8:	4303      	orrs	r3, r0
     fda:	2010      	movs	r0, #16
     fdc:	4383      	bics	r3, r0
    reg.hpcf_xl = (uint8_t)val & 0x07U;
     fde:	016d      	lsls	r5, r5, #5
     fe0:	430b      	orrs	r3, r1
     fe2:	211f      	movs	r1, #31
     fe4:	400b      	ands	r3, r1
     fe6:	431d      	orrs	r5, r3
     fe8:	7015      	strb	r5, [r2, #0]
    ret = lsm6dso_write_reg(ctx, LSM6DSO_CTRL8_XL, (uint8_t *)&reg, 1);
     fea:	2301      	movs	r3, #1
     fec:	3908      	subs	r1, #8
     fee:	0020      	movs	r0, r4
     ff0:	4c02      	ldr	r4, [pc, #8]	; (ffc <lsm6dso_xl_hp_path_on_out_set+0x54>)
     ff2:	47a0      	blx	r4
  return ret;
     ff4:	e7e3      	b.n	fbe <lsm6dso_xl_hp_path_on_out_set+0x16>
     ff6:	46c0      	nop			; (mov r8, r8)
     ff8:	00000d25 	.word	0x00000d25
     ffc:	00000d31 	.word	0x00000d31

00001000 <lsm6dso_i3c_disable_set>:
{
    1000:	b570      	push	{r4, r5, r6, lr}
    1002:	b082      	sub	sp, #8
    1004:	0004      	movs	r4, r0
    1006:	000d      	movs	r5, r1
  ret = lsm6dso_read_reg(ctx, LSM6DSO_CTRL9_XL, (uint8_t *)&ctrl9_xl, 1);
    1008:	2301      	movs	r3, #1
    100a:	466a      	mov	r2, sp
    100c:	2118      	movs	r1, #24
    100e:	4e16      	ldr	r6, [pc, #88]	; (1068 <lsm6dso_i3c_disable_set+0x68>)
    1010:	47b0      	blx	r6
  if (ret == 0)
    1012:	2800      	cmp	r0, #0
    1014:	d001      	beq.n	101a <lsm6dso_i3c_disable_set+0x1a>
}
    1016:	b002      	add	sp, #8
    1018:	bd70      	pop	{r4, r5, r6, pc}
    ctrl9_xl.i3c_disable = ((uint8_t)val & 0x80U) >> 7;
    101a:	09ea      	lsrs	r2, r5, #7
    101c:	0052      	lsls	r2, r2, #1
    101e:	466b      	mov	r3, sp
    1020:	781b      	ldrb	r3, [r3, #0]
    1022:	2102      	movs	r1, #2
    1024:	438b      	bics	r3, r1
    1026:	4313      	orrs	r3, r2
    1028:	466a      	mov	r2, sp
    102a:	7013      	strb	r3, [r2, #0]
    ret = lsm6dso_write_reg(ctx, LSM6DSO_CTRL9_XL, (uint8_t *)&ctrl9_xl, 1);
    102c:	2301      	movs	r3, #1
    102e:	3116      	adds	r1, #22
    1030:	0020      	movs	r0, r4
    1032:	4e0e      	ldr	r6, [pc, #56]	; (106c <lsm6dso_i3c_disable_set+0x6c>)
    1034:	47b0      	blx	r6
  if (ret == 0)
    1036:	2800      	cmp	r0, #0
    1038:	d1ed      	bne.n	1016 <lsm6dso_i3c_disable_set+0x16>
    ret = lsm6dso_read_reg(ctx, LSM6DSO_I3C_BUS_AVB,
    103a:	2301      	movs	r3, #1
    103c:	aa01      	add	r2, sp, #4
    103e:	2162      	movs	r1, #98	; 0x62
    1040:	0020      	movs	r0, r4
    1042:	4e09      	ldr	r6, [pc, #36]	; (1068 <lsm6dso_i3c_disable_set+0x68>)
    1044:	47b0      	blx	r6
  if (ret == 0)
    1046:	2800      	cmp	r0, #0
    1048:	d1e5      	bne.n	1016 <lsm6dso_i3c_disable_set+0x16>
    i3c_bus_avb.i3c_bus_avb_sel = (uint8_t)val & 0x03U;
    104a:	aa01      	add	r2, sp, #4
    104c:	2103      	movs	r1, #3
    104e:	4029      	ands	r1, r5
    1050:	00cb      	lsls	r3, r1, #3
    1052:	7811      	ldrb	r1, [r2, #0]
    1054:	3018      	adds	r0, #24
    1056:	4381      	bics	r1, r0
    1058:	4319      	orrs	r1, r3
    105a:	7011      	strb	r1, [r2, #0]
    ret = lsm6dso_write_reg(ctx, LSM6DSO_I3C_BUS_AVB,
    105c:	2301      	movs	r3, #1
    105e:	2162      	movs	r1, #98	; 0x62
    1060:	0020      	movs	r0, r4
    1062:	4c02      	ldr	r4, [pc, #8]	; (106c <lsm6dso_i3c_disable_set+0x6c>)
    1064:	47a0      	blx	r4
  return ret;
    1066:	e7d6      	b.n	1016 <lsm6dso_i3c_disable_set+0x16>
    1068:	00000d25 	.word	0x00000d25
    106c:	00000d31 	.word	0x00000d31

00001070 <lsm6dso_fsm_enable_get>:
{
    1070:	b570      	push	{r4, r5, r6, lr}
    1072:	0004      	movs	r4, r0
    1074:	000d      	movs	r5, r1
  ret = lsm6dso_mem_bank_set(ctx, LSM6DSO_EMBEDDED_FUNC_BANK);
    1076:	2102      	movs	r1, #2
    1078:	4b08      	ldr	r3, [pc, #32]	; (109c <lsm6dso_fsm_enable_get+0x2c>)
    107a:	4798      	blx	r3
  if (ret == 0)
    107c:	2800      	cmp	r0, #0
    107e:	d000      	beq.n	1082 <lsm6dso_fsm_enable_get+0x12>
}
    1080:	bd70      	pop	{r4, r5, r6, pc}
    ret = lsm6dso_read_reg(ctx, LSM6DSO_FSM_ENABLE_A, (uint8_t *) val, 2);
    1082:	2302      	movs	r3, #2
    1084:	002a      	movs	r2, r5
    1086:	2146      	movs	r1, #70	; 0x46
    1088:	0020      	movs	r0, r4
    108a:	4d05      	ldr	r5, [pc, #20]	; (10a0 <lsm6dso_fsm_enable_get+0x30>)
    108c:	47a8      	blx	r5
  if (ret == 0)
    108e:	2800      	cmp	r0, #0
    1090:	d1f6      	bne.n	1080 <lsm6dso_fsm_enable_get+0x10>
    ret = lsm6dso_mem_bank_set(ctx, LSM6DSO_USER_BANK);
    1092:	2100      	movs	r1, #0
    1094:	0020      	movs	r0, r4
    1096:	4b01      	ldr	r3, [pc, #4]	; (109c <lsm6dso_fsm_enable_get+0x2c>)
    1098:	4798      	blx	r3
  return ret;
    109a:	e7f1      	b.n	1080 <lsm6dso_fsm_enable_get+0x10>
    109c:	00000eb9 	.word	0x00000eb9
    10a0:	00000d25 	.word	0x00000d25

000010a4 <lsm6dso_fsm_data_rate_get>:
{
    10a4:	b570      	push	{r4, r5, r6, lr}
    10a6:	b082      	sub	sp, #8
    10a8:	0004      	movs	r4, r0
    10aa:	000d      	movs	r5, r1
  ret = lsm6dso_mem_bank_set(ctx, LSM6DSO_EMBEDDED_FUNC_BANK);
    10ac:	2102      	movs	r1, #2
    10ae:	4b17      	ldr	r3, [pc, #92]	; (110c <lsm6dso_fsm_data_rate_get+0x68>)
    10b0:	4798      	blx	r3
  if (ret == 0)
    10b2:	2800      	cmp	r0, #0
    10b4:	d001      	beq.n	10ba <lsm6dso_fsm_data_rate_get+0x16>
}
    10b6:	b002      	add	sp, #8
    10b8:	bd70      	pop	{r4, r5, r6, pc}
    ret = lsm6dso_read_reg(ctx, LSM6DSO_EMB_FUNC_ODR_CFG_B,
    10ba:	2301      	movs	r3, #1
    10bc:	aa01      	add	r2, sp, #4
    10be:	215f      	movs	r1, #95	; 0x5f
    10c0:	0020      	movs	r0, r4
    10c2:	4e13      	ldr	r6, [pc, #76]	; (1110 <lsm6dso_fsm_data_rate_get+0x6c>)
    10c4:	47b0      	blx	r6
  if (ret == 0)
    10c6:	2800      	cmp	r0, #0
    10c8:	d1f5      	bne.n	10b6 <lsm6dso_fsm_data_rate_get+0x12>
    switch (reg.fsm_odr)
    10ca:	ab01      	add	r3, sp, #4
    10cc:	781b      	ldrb	r3, [r3, #0]
    10ce:	06db      	lsls	r3, r3, #27
    10d0:	0f9b      	lsrs	r3, r3, #30
    10d2:	b2da      	uxtb	r2, r3
    10d4:	2a01      	cmp	r2, #1
    10d6:	d00f      	beq.n	10f8 <lsm6dso_fsm_data_rate_get+0x54>
    10d8:	2a00      	cmp	r2, #0
    10da:	d006      	beq.n	10ea <lsm6dso_fsm_data_rate_get+0x46>
    10dc:	2a02      	cmp	r2, #2
    10de:	d00e      	beq.n	10fe <lsm6dso_fsm_data_rate_get+0x5a>
    10e0:	2a03      	cmp	r2, #3
    10e2:	d00f      	beq.n	1104 <lsm6dso_fsm_data_rate_get+0x60>
        *val = LSM6DSO_ODR_FSM_12Hz5;
    10e4:	2300      	movs	r3, #0
    10e6:	702b      	strb	r3, [r5, #0]
        break;
    10e8:	e001      	b.n	10ee <lsm6dso_fsm_data_rate_get+0x4a>
        *val = LSM6DSO_ODR_FSM_12Hz5;
    10ea:	2300      	movs	r3, #0
    10ec:	702b      	strb	r3, [r5, #0]
    ret = lsm6dso_mem_bank_set(ctx, LSM6DSO_USER_BANK);
    10ee:	2100      	movs	r1, #0
    10f0:	0020      	movs	r0, r4
    10f2:	4b06      	ldr	r3, [pc, #24]	; (110c <lsm6dso_fsm_data_rate_get+0x68>)
    10f4:	4798      	blx	r3
  return ret;
    10f6:	e7de      	b.n	10b6 <lsm6dso_fsm_data_rate_get+0x12>
        *val = LSM6DSO_ODR_FSM_26Hz;
    10f8:	2301      	movs	r3, #1
    10fa:	702b      	strb	r3, [r5, #0]
        break;
    10fc:	e7f7      	b.n	10ee <lsm6dso_fsm_data_rate_get+0x4a>
        *val = LSM6DSO_ODR_FSM_52Hz;
    10fe:	2302      	movs	r3, #2
    1100:	702b      	strb	r3, [r5, #0]
        break;
    1102:	e7f4      	b.n	10ee <lsm6dso_fsm_data_rate_get+0x4a>
        *val = LSM6DSO_ODR_FSM_104Hz;
    1104:	2303      	movs	r3, #3
    1106:	702b      	strb	r3, [r5, #0]
        break;
    1108:	e7f1      	b.n	10ee <lsm6dso_fsm_data_rate_get+0x4a>
    110a:	46c0      	nop			; (mov r8, r8)
    110c:	00000eb9 	.word	0x00000eb9
    1110:	00000d25 	.word	0x00000d25

00001114 <lsm6dso_xl_data_rate_set>:
{
    1114:	b570      	push	{r4, r5, r6, lr}
    1116:	b082      	sub	sp, #8
    1118:	0004      	movs	r4, r0
    111a:	000d      	movs	r5, r1
  ret =  lsm6dso_fsm_enable_get(ctx, &fsm_enable);
    111c:	a901      	add	r1, sp, #4
    111e:	4b38      	ldr	r3, [pc, #224]	; (1200 <lsm6dso_xl_data_rate_set+0xec>)
    1120:	4798      	blx	r3
  if (ret == 0)
    1122:	2800      	cmp	r0, #0
    1124:	d142      	bne.n	11ac <lsm6dso_xl_data_rate_set+0x98>
    if ((fsm_enable.fsm_enable_a.fsm1_en  |
    1126:	a901      	add	r1, sp, #4
    1128:	780a      	ldrb	r2, [r1, #0]
    112a:	07d0      	lsls	r0, r2, #31
         fsm_enable.fsm_enable_a.fsm2_en  |
    112c:	0793      	lsls	r3, r2, #30
    112e:	4318      	orrs	r0, r3
         fsm_enable.fsm_enable_a.fsm3_en  |
    1130:	0753      	lsls	r3, r2, #29
    1132:	4303      	orrs	r3, r0
         fsm_enable.fsm_enable_a.fsm4_en  |
    1134:	0710      	lsls	r0, r2, #28
    1136:	4303      	orrs	r3, r0
         fsm_enable.fsm_enable_a.fsm5_en  |
    1138:	06d0      	lsls	r0, r2, #27
    113a:	4318      	orrs	r0, r3
         fsm_enable.fsm_enable_a.fsm6_en  |
    113c:	0693      	lsls	r3, r2, #26
    113e:	4318      	orrs	r0, r3
         fsm_enable.fsm_enable_a.fsm7_en  |
    1140:	0653      	lsls	r3, r2, #25
    1142:	4303      	orrs	r3, r0
         fsm_enable.fsm_enable_a.fsm6_en  |
    1144:	0fdb      	lsrs	r3, r3, #31
         fsm_enable.fsm_enable_a.fsm8_en  |
    1146:	09d2      	lsrs	r2, r2, #7
         fsm_enable.fsm_enable_a.fsm7_en  |
    1148:	4313      	orrs	r3, r2
         fsm_enable.fsm_enable_b.fsm9_en  |
    114a:	784a      	ldrb	r2, [r1, #1]
    114c:	07d1      	lsls	r1, r2, #31
    114e:	0fc9      	lsrs	r1, r1, #31
         fsm_enable.fsm_enable_a.fsm8_en  |
    1150:	430b      	orrs	r3, r1
         fsm_enable.fsm_enable_b.fsm10_en |
    1152:	0791      	lsls	r1, r2, #30
    1154:	0fc9      	lsrs	r1, r1, #31
         fsm_enable.fsm_enable_b.fsm9_en  |
    1156:	430b      	orrs	r3, r1
         fsm_enable.fsm_enable_b.fsm11_en |
    1158:	0751      	lsls	r1, r2, #29
    115a:	0fc9      	lsrs	r1, r1, #31
         fsm_enable.fsm_enable_b.fsm10_en |
    115c:	430b      	orrs	r3, r1
         fsm_enable.fsm_enable_b.fsm12_en |
    115e:	0711      	lsls	r1, r2, #28
    1160:	0fc9      	lsrs	r1, r1, #31
         fsm_enable.fsm_enable_b.fsm11_en |
    1162:	430b      	orrs	r3, r1
         fsm_enable.fsm_enable_b.fsm13_en |
    1164:	06d1      	lsls	r1, r2, #27
    1166:	0fc9      	lsrs	r1, r1, #31
         fsm_enable.fsm_enable_b.fsm12_en |
    1168:	430b      	orrs	r3, r1
         fsm_enable.fsm_enable_b.fsm14_en |
    116a:	0691      	lsls	r1, r2, #26
    116c:	0fc9      	lsrs	r1, r1, #31
         fsm_enable.fsm_enable_b.fsm13_en |
    116e:	430b      	orrs	r3, r1
         fsm_enable.fsm_enable_b.fsm15_en |
    1170:	0651      	lsls	r1, r2, #25
    1172:	0fc9      	lsrs	r1, r1, #31
         fsm_enable.fsm_enable_b.fsm14_en |
    1174:	430b      	orrs	r3, r1
         fsm_enable.fsm_enable_b.fsm16_en) == PROPERTY_ENABLE)
    1176:	09d2      	lsrs	r2, r2, #7
         fsm_enable.fsm_enable_b.fsm15_en |
    1178:	4313      	orrs	r3, r2
    if ((fsm_enable.fsm_enable_a.fsm1_en  |
    117a:	b2db      	uxtb	r3, r3
    117c:	2b01      	cmp	r3, #1
    117e:	d017      	beq.n	11b0 <lsm6dso_xl_data_rate_set+0x9c>
    ret = lsm6dso_read_reg(ctx, LSM6DSO_CTRL1_XL, (uint8_t *)&reg, 1);
    1180:	2301      	movs	r3, #1
    1182:	466a      	mov	r2, sp
    1184:	2110      	movs	r1, #16
    1186:	0020      	movs	r0, r4
    1188:	4e1e      	ldr	r6, [pc, #120]	; (1204 <lsm6dso_xl_data_rate_set+0xf0>)
    118a:	47b0      	blx	r6
  if (ret == 0)
    118c:	2800      	cmp	r0, #0
    118e:	d10d      	bne.n	11ac <lsm6dso_xl_data_rate_set+0x98>
    reg.odr_xl = (uint8_t) odr_xl;
    1190:	012b      	lsls	r3, r5, #4
    1192:	466a      	mov	r2, sp
    1194:	7812      	ldrb	r2, [r2, #0]
    1196:	250f      	movs	r5, #15
    1198:	4015      	ands	r5, r2
    119a:	431d      	orrs	r5, r3
    119c:	466b      	mov	r3, sp
    119e:	701d      	strb	r5, [r3, #0]
    ret = lsm6dso_write_reg(ctx, LSM6DSO_CTRL1_XL, (uint8_t *)&reg, 1);
    11a0:	2301      	movs	r3, #1
    11a2:	466a      	mov	r2, sp
    11a4:	2110      	movs	r1, #16
    11a6:	0020      	movs	r0, r4
    11a8:	4c17      	ldr	r4, [pc, #92]	; (1208 <lsm6dso_xl_data_rate_set+0xf4>)
    11aa:	47a0      	blx	r4
}
    11ac:	b002      	add	sp, #8
    11ae:	bd70      	pop	{r4, r5, r6, pc}
      ret =  lsm6dso_fsm_data_rate_get(ctx, &fsm_odr);
    11b0:	466b      	mov	r3, sp
    11b2:	1cd9      	adds	r1, r3, #3
    11b4:	0020      	movs	r0, r4
    11b6:	4b15      	ldr	r3, [pc, #84]	; (120c <lsm6dso_xl_data_rate_set+0xf8>)
    11b8:	4798      	blx	r3
      if (ret == 0)
    11ba:	2800      	cmp	r0, #0
    11bc:	d1f6      	bne.n	11ac <lsm6dso_xl_data_rate_set+0x98>
        switch (fsm_odr)
    11be:	466b      	mov	r3, sp
    11c0:	3303      	adds	r3, #3
    11c2:	781b      	ldrb	r3, [r3, #0]
    11c4:	2b01      	cmp	r3, #1
    11c6:	d00f      	beq.n	11e8 <lsm6dso_xl_data_rate_set+0xd4>
    11c8:	2b00      	cmp	r3, #0
    11ca:	d009      	beq.n	11e0 <lsm6dso_xl_data_rate_set+0xcc>
    11cc:	2b02      	cmp	r3, #2
    11ce:	d011      	beq.n	11f4 <lsm6dso_xl_data_rate_set+0xe0>
    11d0:	2b03      	cmp	r3, #3
    11d2:	d1d5      	bne.n	1180 <lsm6dso_xl_data_rate_set+0x6c>
    11d4:	1c2b      	adds	r3, r5, #0
    11d6:	2d03      	cmp	r5, #3
    11d8:	d800      	bhi.n	11dc <lsm6dso_xl_data_rate_set+0xc8>
    11da:	2304      	movs	r3, #4
    11dc:	b2dd      	uxtb	r5, r3
    11de:	e7cf      	b.n	1180 <lsm6dso_xl_data_rate_set+0x6c>
            if (val == LSM6DSO_XL_ODR_OFF)
    11e0:	2d00      	cmp	r5, #0
    11e2:	d1cd      	bne.n	1180 <lsm6dso_xl_data_rate_set+0x6c>
              odr_xl = LSM6DSO_XL_ODR_12Hz5;
    11e4:	2501      	movs	r5, #1
    11e6:	e7cb      	b.n	1180 <lsm6dso_xl_data_rate_set+0x6c>
    11e8:	1c2b      	adds	r3, r5, #0
    11ea:	2d01      	cmp	r5, #1
    11ec:	d800      	bhi.n	11f0 <lsm6dso_xl_data_rate_set+0xdc>
    11ee:	2302      	movs	r3, #2
    11f0:	b2dd      	uxtb	r5, r3
    11f2:	e7c5      	b.n	1180 <lsm6dso_xl_data_rate_set+0x6c>
    11f4:	1c2b      	adds	r3, r5, #0
    11f6:	2d02      	cmp	r5, #2
    11f8:	d800      	bhi.n	11fc <lsm6dso_xl_data_rate_set+0xe8>
    11fa:	2303      	movs	r3, #3
    11fc:	b2dd      	uxtb	r5, r3
    11fe:	e7bf      	b.n	1180 <lsm6dso_xl_data_rate_set+0x6c>
    1200:	00001071 	.word	0x00001071
    1204:	00000d25 	.word	0x00000d25
    1208:	00000d31 	.word	0x00000d31
    120c:	000010a5 	.word	0x000010a5

00001210 <lsm6dso_gy_data_rate_set>:
{
    1210:	b570      	push	{r4, r5, r6, lr}
    1212:	b082      	sub	sp, #8
    1214:	0004      	movs	r4, r0
    1216:	000d      	movs	r5, r1
  ret =  lsm6dso_fsm_enable_get(ctx, &fsm_enable);
    1218:	a901      	add	r1, sp, #4
    121a:	4b38      	ldr	r3, [pc, #224]	; (12fc <lsm6dso_gy_data_rate_set+0xec>)
    121c:	4798      	blx	r3
  if (ret == 0)
    121e:	2800      	cmp	r0, #0
    1220:	d142      	bne.n	12a8 <lsm6dso_gy_data_rate_set+0x98>
    if ((fsm_enable.fsm_enable_a.fsm1_en  |
    1222:	a901      	add	r1, sp, #4
    1224:	780a      	ldrb	r2, [r1, #0]
    1226:	07d0      	lsls	r0, r2, #31
         fsm_enable.fsm_enable_a.fsm2_en  |
    1228:	0793      	lsls	r3, r2, #30
    122a:	4318      	orrs	r0, r3
         fsm_enable.fsm_enable_a.fsm3_en  |
    122c:	0753      	lsls	r3, r2, #29
    122e:	4303      	orrs	r3, r0
         fsm_enable.fsm_enable_a.fsm4_en  |
    1230:	0710      	lsls	r0, r2, #28
    1232:	4303      	orrs	r3, r0
         fsm_enable.fsm_enable_a.fsm5_en  |
    1234:	06d0      	lsls	r0, r2, #27
    1236:	4318      	orrs	r0, r3
         fsm_enable.fsm_enable_a.fsm6_en  |
    1238:	0693      	lsls	r3, r2, #26
    123a:	4318      	orrs	r0, r3
         fsm_enable.fsm_enable_a.fsm7_en  |
    123c:	0653      	lsls	r3, r2, #25
    123e:	4303      	orrs	r3, r0
         fsm_enable.fsm_enable_a.fsm6_en  |
    1240:	0fdb      	lsrs	r3, r3, #31
         fsm_enable.fsm_enable_a.fsm8_en  |
    1242:	09d2      	lsrs	r2, r2, #7
         fsm_enable.fsm_enable_a.fsm7_en  |
    1244:	4313      	orrs	r3, r2
         fsm_enable.fsm_enable_b.fsm9_en  |
    1246:	784a      	ldrb	r2, [r1, #1]
    1248:	07d1      	lsls	r1, r2, #31
    124a:	0fc9      	lsrs	r1, r1, #31
         fsm_enable.fsm_enable_a.fsm8_en  |
    124c:	430b      	orrs	r3, r1
         fsm_enable.fsm_enable_b.fsm10_en |
    124e:	0791      	lsls	r1, r2, #30
    1250:	0fc9      	lsrs	r1, r1, #31
         fsm_enable.fsm_enable_b.fsm9_en  |
    1252:	430b      	orrs	r3, r1
         fsm_enable.fsm_enable_b.fsm11_en |
    1254:	0751      	lsls	r1, r2, #29
    1256:	0fc9      	lsrs	r1, r1, #31
         fsm_enable.fsm_enable_b.fsm10_en |
    1258:	430b      	orrs	r3, r1
         fsm_enable.fsm_enable_b.fsm12_en |
    125a:	0711      	lsls	r1, r2, #28
    125c:	0fc9      	lsrs	r1, r1, #31
         fsm_enable.fsm_enable_b.fsm11_en |
    125e:	430b      	orrs	r3, r1
         fsm_enable.fsm_enable_b.fsm13_en |
    1260:	06d1      	lsls	r1, r2, #27
    1262:	0fc9      	lsrs	r1, r1, #31
         fsm_enable.fsm_enable_b.fsm12_en |
    1264:	430b      	orrs	r3, r1
         fsm_enable.fsm_enable_b.fsm14_en |
    1266:	0691      	lsls	r1, r2, #26
    1268:	0fc9      	lsrs	r1, r1, #31
         fsm_enable.fsm_enable_b.fsm13_en |
    126a:	430b      	orrs	r3, r1
         fsm_enable.fsm_enable_b.fsm15_en |
    126c:	0651      	lsls	r1, r2, #25
    126e:	0fc9      	lsrs	r1, r1, #31
         fsm_enable.fsm_enable_b.fsm14_en |
    1270:	430b      	orrs	r3, r1
         fsm_enable.fsm_enable_b.fsm16_en) == PROPERTY_ENABLE)
    1272:	09d2      	lsrs	r2, r2, #7
         fsm_enable.fsm_enable_b.fsm15_en |
    1274:	4313      	orrs	r3, r2
    if ((fsm_enable.fsm_enable_a.fsm1_en  |
    1276:	b2db      	uxtb	r3, r3
    1278:	2b01      	cmp	r3, #1
    127a:	d017      	beq.n	12ac <lsm6dso_gy_data_rate_set+0x9c>
    ret = lsm6dso_read_reg(ctx, LSM6DSO_CTRL2_G, (uint8_t *)&reg, 1);
    127c:	2301      	movs	r3, #1
    127e:	466a      	mov	r2, sp
    1280:	2111      	movs	r1, #17
    1282:	0020      	movs	r0, r4
    1284:	4e1e      	ldr	r6, [pc, #120]	; (1300 <lsm6dso_gy_data_rate_set+0xf0>)
    1286:	47b0      	blx	r6
  if (ret == 0)
    1288:	2800      	cmp	r0, #0
    128a:	d10d      	bne.n	12a8 <lsm6dso_gy_data_rate_set+0x98>
    reg.odr_g = (uint8_t) odr_gy;
    128c:	012b      	lsls	r3, r5, #4
    128e:	466a      	mov	r2, sp
    1290:	7812      	ldrb	r2, [r2, #0]
    1292:	250f      	movs	r5, #15
    1294:	4015      	ands	r5, r2
    1296:	431d      	orrs	r5, r3
    1298:	466b      	mov	r3, sp
    129a:	701d      	strb	r5, [r3, #0]
    ret = lsm6dso_write_reg(ctx, LSM6DSO_CTRL2_G, (uint8_t *)&reg, 1);
    129c:	2301      	movs	r3, #1
    129e:	466a      	mov	r2, sp
    12a0:	2111      	movs	r1, #17
    12a2:	0020      	movs	r0, r4
    12a4:	4c17      	ldr	r4, [pc, #92]	; (1304 <lsm6dso_gy_data_rate_set+0xf4>)
    12a6:	47a0      	blx	r4
}
    12a8:	b002      	add	sp, #8
    12aa:	bd70      	pop	{r4, r5, r6, pc}
      ret =  lsm6dso_fsm_data_rate_get(ctx, &fsm_odr);
    12ac:	466b      	mov	r3, sp
    12ae:	1cd9      	adds	r1, r3, #3
    12b0:	0020      	movs	r0, r4
    12b2:	4b15      	ldr	r3, [pc, #84]	; (1308 <lsm6dso_gy_data_rate_set+0xf8>)
    12b4:	4798      	blx	r3
      if (ret == 0)
    12b6:	2800      	cmp	r0, #0
    12b8:	d1f6      	bne.n	12a8 <lsm6dso_gy_data_rate_set+0x98>
        switch (fsm_odr)
    12ba:	466b      	mov	r3, sp
    12bc:	3303      	adds	r3, #3
    12be:	781b      	ldrb	r3, [r3, #0]
    12c0:	2b01      	cmp	r3, #1
    12c2:	d00f      	beq.n	12e4 <lsm6dso_gy_data_rate_set+0xd4>
    12c4:	2b00      	cmp	r3, #0
    12c6:	d009      	beq.n	12dc <lsm6dso_gy_data_rate_set+0xcc>
    12c8:	2b02      	cmp	r3, #2
    12ca:	d011      	beq.n	12f0 <lsm6dso_gy_data_rate_set+0xe0>
    12cc:	2b03      	cmp	r3, #3
    12ce:	d1d5      	bne.n	127c <lsm6dso_gy_data_rate_set+0x6c>
    12d0:	1c2b      	adds	r3, r5, #0
    12d2:	2d03      	cmp	r5, #3
    12d4:	d800      	bhi.n	12d8 <lsm6dso_gy_data_rate_set+0xc8>
    12d6:	2304      	movs	r3, #4
    12d8:	b2dd      	uxtb	r5, r3
    12da:	e7cf      	b.n	127c <lsm6dso_gy_data_rate_set+0x6c>
            if (val == LSM6DSO_GY_ODR_OFF)
    12dc:	2d00      	cmp	r5, #0
    12de:	d1cd      	bne.n	127c <lsm6dso_gy_data_rate_set+0x6c>
              odr_gy = LSM6DSO_GY_ODR_12Hz5;
    12e0:	2501      	movs	r5, #1
    12e2:	e7cb      	b.n	127c <lsm6dso_gy_data_rate_set+0x6c>
    12e4:	1c2b      	adds	r3, r5, #0
    12e6:	2d01      	cmp	r5, #1
    12e8:	d800      	bhi.n	12ec <lsm6dso_gy_data_rate_set+0xdc>
    12ea:	2302      	movs	r3, #2
    12ec:	b2dd      	uxtb	r5, r3
    12ee:	e7c5      	b.n	127c <lsm6dso_gy_data_rate_set+0x6c>
    12f0:	1c2b      	adds	r3, r5, #0
    12f2:	2d02      	cmp	r5, #2
    12f4:	d800      	bhi.n	12f8 <lsm6dso_gy_data_rate_set+0xe8>
    12f6:	2303      	movs	r3, #3
    12f8:	b2dd      	uxtb	r5, r3
    12fa:	e7bf      	b.n	127c <lsm6dso_gy_data_rate_set+0x6c>
    12fc:	00001071 	.word	0x00001071
    1300:	00000d25 	.word	0x00000d25
    1304:	00000d31 	.word	0x00000d31
    1308:	000010a5 	.word	0x000010a5

0000130c <GetImuStruct>:


stmdev_ctx_t * GetImuStruct(void)
{
return &dev_ctx;
}
    130c:	4800      	ldr	r0, [pc, #0]	; (1310 <GetImuStruct+0x4>)
    130e:	4770      	bx	lr
    1310:	20000000 	.word	0x20000000

00001314 <InitImu>:



int32_t InitImu(void)
{
    1314:	b5f0      	push	{r4, r5, r6, r7, lr}
    1316:	b083      	sub	sp, #12
uint8_t rst;
int32_t error = 0;
/*
   * Restore default configuration
   */
  error = lsm6dso_reset_set(&dev_ctx, PROPERTY_ENABLE);
    1318:	2101      	movs	r1, #1
    131a:	481b      	ldr	r0, [pc, #108]	; (1388 <InitImu+0x74>)
    131c:	4b1b      	ldr	r3, [pc, #108]	; (138c <InitImu+0x78>)
    131e:	4798      	blx	r3
    1320:	0004      	movs	r4, r0
  do {
    error |= lsm6dso_reset_get(&dev_ctx, &rst);
    1322:	466b      	mov	r3, sp
    1324:	1ddd      	adds	r5, r3, #7
    1326:	4e18      	ldr	r6, [pc, #96]	; (1388 <InitImu+0x74>)
    1328:	4f19      	ldr	r7, [pc, #100]	; (1390 <InitImu+0x7c>)
    132a:	0029      	movs	r1, r5
    132c:	0030      	movs	r0, r6
    132e:	47b8      	blx	r7
    1330:	4304      	orrs	r4, r0
  } while (rst);
    1332:	782b      	ldrb	r3, [r5, #0]
    1334:	2b00      	cmp	r3, #0
    1336:	d1f8      	bne.n	132a <InitImu+0x16>

  /* Disable I3C interface */
  lsm6dso_i3c_disable_set(&dev_ctx, LSM6DSO_I3C_DISABLE);
    1338:	4d13      	ldr	r5, [pc, #76]	; (1388 <InitImu+0x74>)
    133a:	2180      	movs	r1, #128	; 0x80
    133c:	0028      	movs	r0, r5
    133e:	4b15      	ldr	r3, [pc, #84]	; (1394 <InitImu+0x80>)
    1340:	4798      	blx	r3
  /* Enable Block Data Update */
  lsm6dso_block_data_update_set(&dev_ctx, PROPERTY_ENABLE);
    1342:	2101      	movs	r1, #1
    1344:	0028      	movs	r0, r5
    1346:	4b14      	ldr	r3, [pc, #80]	; (1398 <InitImu+0x84>)
    1348:	4798      	blx	r3
  /* Weight of XL user offset to 2^(-10) g/LSB */
  lsm6dso_xl_offset_weight_set(&dev_ctx, LSM6DSO_LSb_1mg);
    134a:	2100      	movs	r1, #0
    134c:	0028      	movs	r0, r5
    134e:	4b13      	ldr	r3, [pc, #76]	; (139c <InitImu+0x88>)
    1350:	4798      	blx	r3
  /* Accelerometer X,Y,Z axis user offset correction expressed
   * in twos complement. Set X to 48mg, Y tp 64 mg, Z to -127 mg
   */

  /* Set Output Data Rate */
  lsm6dso_xl_data_rate_set(&dev_ctx, LSM6DSO_XL_ODR_12Hz5);
    1352:	2101      	movs	r1, #1
    1354:	0028      	movs	r0, r5
    1356:	4b12      	ldr	r3, [pc, #72]	; (13a0 <InitImu+0x8c>)
    1358:	4798      	blx	r3
  lsm6dso_gy_data_rate_set(&dev_ctx, LSM6DSO_GY_ODR_12Hz5);
    135a:	2101      	movs	r1, #1
    135c:	0028      	movs	r0, r5
    135e:	4b11      	ldr	r3, [pc, #68]	; (13a4 <InitImu+0x90>)
    1360:	4798      	blx	r3
  /* Set full scale */
  lsm6dso_xl_full_scale_set(&dev_ctx, LSM6DSO_2g);
    1362:	2100      	movs	r1, #0
    1364:	0028      	movs	r0, r5
    1366:	4b10      	ldr	r3, [pc, #64]	; (13a8 <InitImu+0x94>)
    1368:	4798      	blx	r3
  lsm6dso_gy_full_scale_set(&dev_ctx, LSM6DSO_2000dps);
    136a:	2106      	movs	r1, #6
    136c:	0028      	movs	r0, r5
    136e:	4b0f      	ldr	r3, [pc, #60]	; (13ac <InitImu+0x98>)
    1370:	4798      	blx	r3
  /* Configure filtering chain(No aux interface). */
  /* Accelerometer - LPF1 + LPF2 path */
  lsm6dso_xl_hp_path_on_out_set(&dev_ctx, LSM6DSO_LP_ODR_DIV_100);
    1372:	2104      	movs	r1, #4
    1374:	0028      	movs	r0, r5
    1376:	4b0e      	ldr	r3, [pc, #56]	; (13b0 <InitImu+0x9c>)
    1378:	4798      	blx	r3
  lsm6dso_xl_filter_lp2_set(&dev_ctx, PROPERTY_ENABLE);
    137a:	2101      	movs	r1, #1
    137c:	0028      	movs	r0, r5
    137e:	4b0d      	ldr	r3, [pc, #52]	; (13b4 <InitImu+0xa0>)
    1380:	4798      	blx	r3

  return error;
}
    1382:	0020      	movs	r0, r4
    1384:	b003      	add	sp, #12
    1386:	bdf0      	pop	{r4, r5, r6, r7, pc}
    1388:	20000000 	.word	0x20000000
    138c:	00000f09 	.word	0x00000f09
    1390:	00000f45 	.word	0x00000f45
    1394:	00001001 	.word	0x00001001
    1398:	00000dd9 	.word	0x00000dd9
    139c:	00000e19 	.word	0x00000e19
    13a0:	00001115 	.word	0x00001115
    13a4:	00001211 	.word	0x00001211
    13a8:	00000d59 	.word	0x00000d59
    13ac:	00000d99 	.word	0x00000d99
    13b0:	00000fa9 	.word	0x00000fa9
    13b4:	00000f69 	.word	0x00000f69

000013b8 <SeesawActivateKey>:
                				
* @return		Returns zero if no I2C errors occurred. Other number in case of error
* @note         
*****************************************************************************/
int32_t SeesawActivateKey(uint8_t key, uint8_t edge, bool enable)
	{
    13b8:	b510      	push	{r4, lr}
    13ba:	b082      	sub	sp, #8
	union keyState ks;
	ks.bit.STATE = enable;
    13bc:	2401      	movs	r4, #1
	ks.bit.ACTIVE = (1 << edge);
    13be:	0023      	movs	r3, r4
    13c0:	408b      	lsls	r3, r1
    13c2:	210f      	movs	r1, #15
    13c4:	4019      	ands	r1, r3
    13c6:	0049      	lsls	r1, r1, #1
    13c8:	2301      	movs	r3, #1
    13ca:	401a      	ands	r2, r3
    13cc:	430a      	orrs	r2, r1
	uint8_t cmd[] = {SEESAW_KEYPAD_BASE, SEESAW_KEYPAD_EVENT, key, ks.reg};
    13ce:	ab01      	add	r3, sp, #4
    13d0:	2110      	movs	r1, #16
    13d2:	7019      	strb	r1, [r3, #0]
    13d4:	705c      	strb	r4, [r3, #1]
    13d6:	7098      	strb	r0, [r3, #2]
    13d8:	70da      	strb	r2, [r3, #3]

	seesawData.address = NEO_TRELLIS_ADDR;
    13da:	4806      	ldr	r0, [pc, #24]	; (13f4 <SeesawActivateKey+0x3c>)
    13dc:	222e      	movs	r2, #46	; 0x2e
    13de:	7002      	strb	r2, [r0, #0]
	seesawData.msgOut = &cmd;
    13e0:	6043      	str	r3, [r0, #4]
	seesawData.lenOut = sizeof(cmd);
    13e2:	2304      	movs	r3, #4
    13e4:	81c3      	strh	r3, [r0, #14]
	seesawData.lenIn = 0;
    13e6:	2300      	movs	r3, #0
    13e8:	8183      	strh	r3, [r0, #12]
	int32_t error = I2cWriteDataWait(&seesawData, 100);
    13ea:	3154      	adds	r1, #84	; 0x54
    13ec:	4b02      	ldr	r3, [pc, #8]	; (13f8 <SeesawActivateKey+0x40>)
    13ee:	4798      	blx	r3
	return error;
}
    13f0:	b002      	add	sp, #8
    13f2:	bd10      	pop	{r4, pc}
    13f4:	20003974 	.word	0x20003974
    13f8:	00000bc9 	.word	0x00000bc9

000013fc <SeesawSetLed>:
* @return		Returns zero if no I2C errors occurred. Other number in case of error
* @note         Note that the LEDs wont turn on until you send a "SeesawOrderLedUpdate" command.
	FOR ESE516 Board, please do not turn ALL the LEDs to maximum brightness (255,255,255)!
*****************************************************************************/
int32_t SeesawSetLed(uint8_t key, uint8_t red, uint8_t green, uint8_t blue)
{
    13fc:	b530      	push	{r4, r5, lr}
    13fe:	b083      	sub	sp, #12
	uint8_t write_buffer1[7] = {SEESAW_NEOPIXEL_BASE, SEESAW_NEOPIXEL_BUF, 0, 0, green, red, blue};
    1400:	240e      	movs	r4, #14
    1402:	466d      	mov	r5, sp
    1404:	702c      	strb	r4, [r5, #0]
    1406:	3c0a      	subs	r4, #10
    1408:	706c      	strb	r4, [r5, #1]
    140a:	712a      	strb	r2, [r5, #4]
    140c:	7169      	strb	r1, [r5, #5]
    140e:	71ab      	strb	r3, [r5, #6]
	uint8_t orderBuffer[2] = {SEESAW_NEOPIXEL_BASE, SEESAW_NEOPIXEL_SHOW};

	uint16_t offset = 3 * key; //RGB LED
    1410:	0043      	lsls	r3, r0, #1
    1412:	18c0      	adds	r0, r0, r3
	write_buffer1[2] = (offset >> 8);
    1414:	0a03      	lsrs	r3, r0, #8
    1416:	70ab      	strb	r3, [r5, #2]
	write_buffer1[3] = (offset);
    1418:	70e8      	strb	r0, [r5, #3]

	seesawData.msgOut = &write_buffer1;
    141a:	4804      	ldr	r0, [pc, #16]	; (142c <SeesawSetLed+0x30>)
    141c:	6045      	str	r5, [r0, #4]
	seesawData.lenOut = sizeof(write_buffer1);
    141e:	2307      	movs	r3, #7
    1420:	81c3      	strh	r3, [r0, #14]
	int error = I2cWriteDataWait(&seesawData, 100);
    1422:	2164      	movs	r1, #100	; 0x64
    1424:	4b02      	ldr	r3, [pc, #8]	; (1430 <SeesawSetLed+0x34>)
    1426:	4798      	blx	r3
	return error;

}
    1428:	b003      	add	sp, #12
    142a:	bd30      	pop	{r4, r5, pc}
    142c:	20003974 	.word	0x20003974
    1430:	00000bc9 	.word	0x00000bc9

00001434 <SeesawOrderLedUpdate>:
* @return		Returns zero if no I2C errors occurred. Other number in case of error
* @note         Use "SeesawSetLed" to send LED Data. The data will not be use to update the display until this function has been called!

*****************************************************************************/
int32_t SeesawOrderLedUpdate(void)
{
    1434:	b500      	push	{lr}
    1436:	b083      	sub	sp, #12
	uint8_t orderBuffer[2] = {SEESAW_NEOPIXEL_BASE, SEESAW_NEOPIXEL_SHOW};
    1438:	ab01      	add	r3, sp, #4
    143a:	4a06      	ldr	r2, [pc, #24]	; (1454 <SeesawOrderLedUpdate+0x20>)
    143c:	8892      	ldrh	r2, [r2, #4]
    143e:	801a      	strh	r2, [r3, #0]

	seesawData.msgOut = &orderBuffer;
    1440:	4805      	ldr	r0, [pc, #20]	; (1458 <SeesawOrderLedUpdate+0x24>)
    1442:	6043      	str	r3, [r0, #4]
	seesawData.lenOut = sizeof(orderBuffer);
    1444:	2302      	movs	r3, #2
    1446:	81c3      	strh	r3, [r0, #14]
	int error = I2cWriteDataWait(&seesawData, 100);
    1448:	2164      	movs	r1, #100	; 0x64
    144a:	4b04      	ldr	r3, [pc, #16]	; (145c <SeesawOrderLedUpdate+0x28>)
    144c:	4798      	blx	r3
	return error;
}
    144e:	b003      	add	sp, #12
    1450:	bd00      	pop	{pc}
    1452:	46c0      	nop			; (mov r8, r8)
    1454:	0000991c 	.word	0x0000991c
    1458:	20003974 	.word	0x20003974
    145c:	00000bc9 	.word	0x00000bc9

00001460 <InitializeSeesaw>:
{
    1460:	b5f0      	push	{r4, r5, r6, r7, lr}
    1462:	46ce      	mov	lr, r9
    1464:	b500      	push	{lr}
    1466:	b084      	sub	sp, #16
	seesawData.address = NEO_TRELLIS_ADDR;
    1468:	4851      	ldr	r0, [pc, #324]	; (15b0 <InitializeSeesaw+0x150>)
    146a:	232e      	movs	r3, #46	; 0x2e
    146c:	7003      	strb	r3, [r0, #0]
	seesawData.msgOut = &msgBaseGetHWID;
    146e:	4b51      	ldr	r3, [pc, #324]	; (15b4 <InitializeSeesaw+0x154>)
    1470:	6043      	str	r3, [r0, #4]
	seesawData.lenOut = sizeof(msgBaseGetHWID);
    1472:	2302      	movs	r3, #2
    1474:	81c3      	strh	r3, [r0, #14]
	seesawData.msgIn = &readData;
    1476:	ab03      	add	r3, sp, #12
    1478:	6083      	str	r3, [r0, #8]
	seesawData.lenIn = 1;
    147a:	2301      	movs	r3, #1
    147c:	8183      	strh	r3, [r0, #12]
	int error = I2cReadDataWait(&seesawData, 0, 100);
    147e:	2264      	movs	r2, #100	; 0x64
    1480:	2100      	movs	r1, #0
    1482:	4b4d      	ldr	r3, [pc, #308]	; (15b8 <InitializeSeesaw+0x158>)
    1484:	4798      	blx	r3
    1486:	1e04      	subs	r4, r0, #0
	if(ERROR_NONE != error)
    1488:	d10f      	bne.n	14aa <InitializeSeesaw+0x4a>
		if(readData[0] != SEESAW_HW_ID_CODE )
    148a:	ab03      	add	r3, sp, #12
    148c:	781b      	ldrb	r3, [r3, #0]
    148e:	2b55      	cmp	r3, #85	; 0x55
    1490:	d05a      	beq.n	1548 <InitializeSeesaw+0xe8>
			SerialConsoleWriteString("Error\r\n");
    1492:	484a      	ldr	r0, [pc, #296]	; (15bc <InitializeSeesaw+0x15c>)
    1494:	4c4a      	ldr	r4, [pc, #296]	; (15c0 <InitializeSeesaw+0x160>)
    1496:	47a0      	blx	r4
			SerialConsoleWriteString("No seesaw ID \r\n");
    1498:	484a      	ldr	r0, [pc, #296]	; (15c4 <InitializeSeesaw+0x164>)
    149a:	47a0      	blx	r4
			return 1;
    149c:	2301      	movs	r3, #1
    149e:	9301      	str	r3, [sp, #4]
}
    14a0:	9801      	ldr	r0, [sp, #4]
    14a2:	b004      	add	sp, #16
    14a4:	bc04      	pop	{r2}
    14a6:	4691      	mov	r9, r2
    14a8:	bdf0      	pop	{r4, r5, r6, r7, pc}
		SerialConsoleWriteString("Error initializing Seesaw!\r\n");
    14aa:	4847      	ldr	r0, [pc, #284]	; (15c8 <InitializeSeesaw+0x168>)
    14ac:	4d44      	ldr	r5, [pc, #272]	; (15c0 <InitializeSeesaw+0x160>)
    14ae:	47a8      	blx	r5
		snprintf(seesawPrint, 64, "Our error inside seesaw is: %d\r\n", error);
    14b0:	4e46      	ldr	r6, [pc, #280]	; (15cc <InitializeSeesaw+0x16c>)
    14b2:	0023      	movs	r3, r4
    14b4:	4a46      	ldr	r2, [pc, #280]	; (15d0 <InitializeSeesaw+0x170>)
    14b6:	2140      	movs	r1, #64	; 0x40
    14b8:	0030      	movs	r0, r6
    14ba:	4c46      	ldr	r4, [pc, #280]	; (15d4 <InitializeSeesaw+0x174>)
    14bc:	47a0      	blx	r4
		SerialConsoleWriteString(seesawPrint);
    14be:	0030      	movs	r0, r6
    14c0:	47a8      	blx	r5
	seesawData.msgOut = &msgNeopixelPin;
    14c2:	483b      	ldr	r0, [pc, #236]	; (15b0 <InitializeSeesaw+0x150>)
    14c4:	4b44      	ldr	r3, [pc, #272]	; (15d8 <InitializeSeesaw+0x178>)
    14c6:	6043      	str	r3, [r0, #4]
	seesawData.lenOut = sizeof(msgNeopixelPin);
    14c8:	2303      	movs	r3, #3
    14ca:	81c3      	strh	r3, [r0, #14]
	error = I2cWriteDataWait(&seesawData, 100);
    14cc:	2164      	movs	r1, #100	; 0x64
    14ce:	4b43      	ldr	r3, [pc, #268]	; (15dc <InitializeSeesaw+0x17c>)
    14d0:	4798      	blx	r3
	if(ERROR_NONE != error)
    14d2:	2800      	cmp	r0, #0
    14d4:	d13c      	bne.n	1550 <InitializeSeesaw+0xf0>
	seesawData.msgOut = &msgNeopixelSpeed;
    14d6:	4836      	ldr	r0, [pc, #216]	; (15b0 <InitializeSeesaw+0x150>)
    14d8:	4b41      	ldr	r3, [pc, #260]	; (15e0 <InitializeSeesaw+0x180>)
    14da:	6043      	str	r3, [r0, #4]
	seesawData.lenOut = sizeof(msgNeopixelSpeed);
    14dc:	2303      	movs	r3, #3
    14de:	81c3      	strh	r3, [r0, #14]
	error = I2cWriteDataWait(&seesawData, 100);
    14e0:	2164      	movs	r1, #100	; 0x64
    14e2:	4b3e      	ldr	r3, [pc, #248]	; (15dc <InitializeSeesaw+0x17c>)
    14e4:	4798      	blx	r3
	if(ERROR_NONE != error)
    14e6:	2800      	cmp	r0, #0
    14e8:	d136      	bne.n	1558 <InitializeSeesaw+0xf8>
	seesawData.msgOut = &msgNeopixelBufLength;
    14ea:	4831      	ldr	r0, [pc, #196]	; (15b0 <InitializeSeesaw+0x150>)
    14ec:	4b3d      	ldr	r3, [pc, #244]	; (15e4 <InitializeSeesaw+0x184>)
    14ee:	6043      	str	r3, [r0, #4]
	seesawData.lenOut = sizeof(msgNeopixelBufLength);
    14f0:	2304      	movs	r3, #4
    14f2:	81c3      	strh	r3, [r0, #14]
	error = I2cWriteDataWait(&seesawData, 100);
    14f4:	2164      	movs	r1, #100	; 0x64
    14f6:	4b39      	ldr	r3, [pc, #228]	; (15dc <InitializeSeesaw+0x17c>)
    14f8:	4798      	blx	r3
    14fa:	9001      	str	r0, [sp, #4]
	if(ERROR_NONE != error)
    14fc:	2800      	cmp	r0, #0
    14fe:	d12f      	bne.n	1560 <InitializeSeesaw+0x100>
}


static void SeesawTurnOnLedTest(void)
{
	SeesawSetLed(15, 255, 255, 255);
    1500:	23ff      	movs	r3, #255	; 0xff
    1502:	22ff      	movs	r2, #255	; 0xff
    1504:	21ff      	movs	r1, #255	; 0xff
    1506:	200f      	movs	r0, #15
    1508:	4e37      	ldr	r6, [pc, #220]	; (15e8 <InitializeSeesaw+0x188>)
    150a:	47b0      	blx	r6
	SeesawOrderLedUpdate();
    150c:	4c37      	ldr	r4, [pc, #220]	; (15ec <InitializeSeesaw+0x18c>)
    150e:	47a0      	blx	r4
	vTaskDelay(400);
    1510:	20c8      	movs	r0, #200	; 0xc8
    1512:	0040      	lsls	r0, r0, #1
    1514:	4b36      	ldr	r3, [pc, #216]	; (15f0 <InitializeSeesaw+0x190>)
    1516:	4798      	blx	r3

	SeesawSetLed(15, 0, 0, 0);
    1518:	2300      	movs	r3, #0
    151a:	2200      	movs	r2, #0
    151c:	2100      	movs	r1, #0
    151e:	200f      	movs	r0, #15
    1520:	47b0      	blx	r6
	SeesawOrderLedUpdate();
    1522:	47a0      	blx	r4
	seesawData.address = NEO_TRELLIS_ADDR;
    1524:	4822      	ldr	r0, [pc, #136]	; (15b0 <InitializeSeesaw+0x150>)
    1526:	232e      	movs	r3, #46	; 0x2e
    1528:	7003      	strb	r3, [r0, #0]
	seesawData.msgOut = &msgKeypadEnableInt;
    152a:	4b32      	ldr	r3, [pc, #200]	; (15f4 <InitializeSeesaw+0x194>)
    152c:	6043      	str	r3, [r0, #4]
	seesawData.lenOut = sizeof(msgKeypadEnableInt);
    152e:	2303      	movs	r3, #3
    1530:	81c3      	strh	r3, [r0, #14]
	seesawData.lenIn = 0;
    1532:	2300      	movs	r3, #0
    1534:	8183      	strh	r3, [r0, #12]
	int32_t error = I2cWriteDataWait(&seesawData, 100);
    1536:	2164      	movs	r1, #100	; 0x64
    1538:	4b28      	ldr	r3, [pc, #160]	; (15dc <InitializeSeesaw+0x17c>)
    153a:	4798      	blx	r3
	if(ERROR_NONE != error)
    153c:	2800      	cmp	r0, #0
    153e:	d113      	bne.n	1568 <InitializeSeesaw+0x108>
{
    1540:	2600      	movs	r6, #0
		error = SeesawActivateKey(NEO_TRELLIS_KEY(i), SEESAW_KEYPAD_EDGE_RISING, true);
    1542:	2703      	movs	r7, #3
    1544:	4d2c      	ldr	r5, [pc, #176]	; (15f8 <InitializeSeesaw+0x198>)
    1546:	e016      	b.n	1576 <InitializeSeesaw+0x116>
		SerialConsoleWriteString("Found Seesaw!\r\n");
    1548:	482c      	ldr	r0, [pc, #176]	; (15fc <InitializeSeesaw+0x19c>)
    154a:	4b1d      	ldr	r3, [pc, #116]	; (15c0 <InitializeSeesaw+0x160>)
    154c:	4798      	blx	r3
    154e:	e7b8      	b.n	14c2 <InitializeSeesaw+0x62>
		SerialConsoleWriteString("Could not write Seesaw pin!\r\n");
    1550:	482b      	ldr	r0, [pc, #172]	; (1600 <InitializeSeesaw+0x1a0>)
    1552:	4b1b      	ldr	r3, [pc, #108]	; (15c0 <InitializeSeesaw+0x160>)
    1554:	4798      	blx	r3
    1556:	e7be      	b.n	14d6 <InitializeSeesaw+0x76>
		SerialConsoleWriteString("Could not set seesaw Neopixel speed!\r\n");
    1558:	482a      	ldr	r0, [pc, #168]	; (1604 <InitializeSeesaw+0x1a4>)
    155a:	4b19      	ldr	r3, [pc, #100]	; (15c0 <InitializeSeesaw+0x160>)
    155c:	4798      	blx	r3
    155e:	e7c4      	b.n	14ea <InitializeSeesaw+0x8a>
		SerialConsoleWriteString("Could not set seesaw Neopixel number of devices\r\n");
    1560:	4829      	ldr	r0, [pc, #164]	; (1608 <InitializeSeesaw+0x1a8>)
    1562:	4b17      	ldr	r3, [pc, #92]	; (15c0 <InitializeSeesaw+0x160>)
    1564:	4798      	blx	r3
    1566:	e7cb      	b.n	1500 <InitializeSeesaw+0xa0>
		SerialConsoleWriteString("Could not initialize Keypad!\r\n");
    1568:	4828      	ldr	r0, [pc, #160]	; (160c <InitializeSeesaw+0x1ac>)
    156a:	4b15      	ldr	r3, [pc, #84]	; (15c0 <InitializeSeesaw+0x160>)
    156c:	4798      	blx	r3
    156e:	e7e7      	b.n	1540 <InitializeSeesaw+0xe0>
	for(int i=0; i<16; i++){
    1570:	3601      	adds	r6, #1
    1572:	2e10      	cmp	r6, #16
    1574:	d094      	beq.n	14a0 <InitializeSeesaw+0x40>
		error = SeesawActivateKey(NEO_TRELLIS_KEY(i), SEESAW_KEYPAD_EDGE_RISING, true);
    1576:	17f2      	asrs	r2, r6, #31
    1578:	003c      	movs	r4, r7
    157a:	4014      	ands	r4, r2
    157c:	19a4      	adds	r4, r4, r6
    157e:	10a4      	asrs	r4, r4, #2
    1580:	00e4      	lsls	r4, r4, #3
    1582:	0f92      	lsrs	r2, r2, #30
    1584:	18b3      	adds	r3, r6, r2
    1586:	403b      	ands	r3, r7
    1588:	1a9b      	subs	r3, r3, r2
    158a:	18e4      	adds	r4, r4, r3
    158c:	b2e4      	uxtb	r4, r4
    158e:	2201      	movs	r2, #1
    1590:	0039      	movs	r1, r7
    1592:	0020      	movs	r0, r4
    1594:	47a8      	blx	r5
    1596:	4681      	mov	r9, r0
		error |= SeesawActivateKey(NEO_TRELLIS_KEY(i), SEESAW_KEYPAD_EDGE_FALLING, true);
    1598:	2201      	movs	r2, #1
    159a:	2102      	movs	r1, #2
    159c:	0020      	movs	r0, r4
    159e:	47a8      	blx	r5
    15a0:	464b      	mov	r3, r9
    15a2:	4303      	orrs	r3, r0
		if(ERROR_NONE != error)
    15a4:	d0e4      	beq.n	1570 <InitializeSeesaw+0x110>
			SerialConsoleWriteString("Could not initialize Keypad!\r\n");
    15a6:	4819      	ldr	r0, [pc, #100]	; (160c <InitializeSeesaw+0x1ac>)
    15a8:	4b05      	ldr	r3, [pc, #20]	; (15c0 <InitializeSeesaw+0x160>)
    15aa:	4798      	blx	r3
    15ac:	e7e0      	b.n	1570 <InitializeSeesaw+0x110>
    15ae:	46c0      	nop			; (mov r8, r8)
    15b0:	20003974 	.word	0x20003974
    15b4:	00009a2c 	.word	0x00009a2c
    15b8:	00000c29 	.word	0x00000c29
    15bc:	00009968 	.word	0x00009968
    15c0:	0000574d 	.word	0x0000574d
    15c4:	00009970 	.word	0x00009970
    15c8:	00009924 	.word	0x00009924
    15cc:	20003934 	.word	0x20003934
    15d0:	00009944 	.word	0x00009944
    15d4:	00008ed5 	.word	0x00008ed5
    15d8:	00009a38 	.word	0x00009a38
    15dc:	00000bc9 	.word	0x00000bc9
    15e0:	00009a3c 	.word	0x00009a3c
    15e4:	00009a34 	.word	0x00009a34
    15e8:	000013fd 	.word	0x000013fd
    15ec:	00001435 	.word	0x00001435
    15f0:	00004929 	.word	0x00004929
    15f4:	00009a30 	.word	0x00009a30
    15f8:	000013b9 	.word	0x000013b9
    15fc:	00009980 	.word	0x00009980
    1600:	00009990 	.word	0x00009990
    1604:	000099b0 	.word	0x000099b0
    1608:	000099d8 	.word	0x000099d8
    160c:	00009a0c 	.word	0x00009a0c

00001610 <vUiHandlerTask>:
    1610:	b570      	push	{r4, r5, r6, lr}
    1612:	4808      	ldr	r0, [pc, #32]	; (1634 <vUiHandlerTask+0x24>)
    1614:	4b08      	ldr	r3, [pc, #32]	; (1638 <vUiHandlerTask+0x28>)
    1616:	4798      	blx	r3
    1618:	2200      	movs	r2, #0
    161a:	4b08      	ldr	r3, [pc, #32]	; (163c <vUiHandlerTask+0x2c>)
    161c:	701a      	strb	r2, [r3, #0]
    161e:	4d08      	ldr	r5, [pc, #32]	; (1640 <vUiHandlerTask+0x30>)
    1620:	001c      	movs	r4, r3
    1622:	001e      	movs	r6, r3
    1624:	2032      	movs	r0, #50	; 0x32
    1626:	47a8      	blx	r5
    1628:	7823      	ldrb	r3, [r4, #0]
    162a:	2b02      	cmp	r3, #2
    162c:	d9fa      	bls.n	1624 <vUiHandlerTask+0x14>
    162e:	2300      	movs	r3, #0
    1630:	7033      	strb	r3, [r6, #0]
    1632:	e7f7      	b.n	1624 <vUiHandlerTask+0x14>
    1634:	00009a40 	.word	0x00009a40
    1638:	0000574d 	.word	0x0000574d
    163c:	20003984 	.word	0x20003984
    1640:	00004929 	.word	0x00004929

00001644 <_i2c_master_wait_for_sync>:
    1644:	6801      	ldr	r1, [r0, #0]
    1646:	2207      	movs	r2, #7
    1648:	69cb      	ldr	r3, [r1, #28]
    164a:	421a      	tst	r2, r3
    164c:	d1fc      	bne.n	1648 <_i2c_master_wait_for_sync+0x4>
    164e:	4770      	bx	lr

00001650 <i2c_master_init>:
    1650:	b5f0      	push	{r4, r5, r6, r7, lr}
    1652:	46d6      	mov	lr, sl
    1654:	464f      	mov	r7, r9
    1656:	4646      	mov	r6, r8
    1658:	b5c0      	push	{r6, r7, lr}
    165a:	b08a      	sub	sp, #40	; 0x28
    165c:	0006      	movs	r6, r0
    165e:	000f      	movs	r7, r1
    1660:	0014      	movs	r4, r2
    1662:	6031      	str	r1, [r6, #0]
    1664:	0008      	movs	r0, r1
    1666:	4ba0      	ldr	r3, [pc, #640]	; (18e8 <i2c_master_init+0x298>)
    1668:	4798      	blx	r3
    166a:	4aa0      	ldr	r2, [pc, #640]	; (18ec <i2c_master_init+0x29c>)
    166c:	6a11      	ldr	r1, [r2, #32]
    166e:	1c85      	adds	r5, r0, #2
    1670:	2301      	movs	r3, #1
    1672:	40ab      	lsls	r3, r5
    1674:	430b      	orrs	r3, r1
    1676:	6213      	str	r3, [r2, #32]
    1678:	a909      	add	r1, sp, #36	; 0x24
    167a:	7b23      	ldrb	r3, [r4, #12]
    167c:	700b      	strb	r3, [r1, #0]
    167e:	3014      	adds	r0, #20
    1680:	b2c5      	uxtb	r5, r0
    1682:	0028      	movs	r0, r5
    1684:	4b9a      	ldr	r3, [pc, #616]	; (18f0 <i2c_master_init+0x2a0>)
    1686:	4798      	blx	r3
    1688:	0028      	movs	r0, r5
    168a:	4b9a      	ldr	r3, [pc, #616]	; (18f4 <i2c_master_init+0x2a4>)
    168c:	4798      	blx	r3
    168e:	7b20      	ldrb	r0, [r4, #12]
    1690:	2100      	movs	r1, #0
    1692:	4b99      	ldr	r3, [pc, #612]	; (18f8 <i2c_master_init+0x2a8>)
    1694:	4798      	blx	r3
    1696:	683b      	ldr	r3, [r7, #0]
    1698:	201c      	movs	r0, #28
    169a:	079b      	lsls	r3, r3, #30
    169c:	d505      	bpl.n	16aa <i2c_master_init+0x5a>
    169e:	b00a      	add	sp, #40	; 0x28
    16a0:	bc1c      	pop	{r2, r3, r4}
    16a2:	4690      	mov	r8, r2
    16a4:	4699      	mov	r9, r3
    16a6:	46a2      	mov	sl, r4
    16a8:	bdf0      	pop	{r4, r5, r6, r7, pc}
    16aa:	683b      	ldr	r3, [r7, #0]
    16ac:	3817      	subs	r0, #23
    16ae:	07db      	lsls	r3, r3, #31
    16b0:	d4f5      	bmi.n	169e <i2c_master_init+0x4e>
    16b2:	6830      	ldr	r0, [r6, #0]
    16b4:	4b8c      	ldr	r3, [pc, #560]	; (18e8 <i2c_master_init+0x298>)
    16b6:	4699      	mov	r9, r3
    16b8:	4798      	blx	r3
    16ba:	0005      	movs	r5, r0
    16bc:	498f      	ldr	r1, [pc, #572]	; (18fc <i2c_master_init+0x2ac>)
    16be:	4b90      	ldr	r3, [pc, #576]	; (1900 <i2c_master_init+0x2b0>)
    16c0:	4798      	blx	r3
    16c2:	00ad      	lsls	r5, r5, #2
    16c4:	4b8f      	ldr	r3, [pc, #572]	; (1904 <i2c_master_init+0x2b4>)
    16c6:	50ee      	str	r6, [r5, r3]
    16c8:	2300      	movs	r3, #0
    16ca:	7633      	strb	r3, [r6, #24]
    16cc:	7673      	strb	r3, [r6, #25]
    16ce:	2500      	movs	r5, #0
    16d0:	8373      	strh	r3, [r6, #26]
    16d2:	83b3      	strh	r3, [r6, #28]
    16d4:	2225      	movs	r2, #37	; 0x25
    16d6:	54b5      	strb	r5, [r6, r2]
    16d8:	6233      	str	r3, [r6, #32]
    16da:	3314      	adds	r3, #20
    16dc:	603b      	str	r3, [r7, #0]
    16de:	6833      	ldr	r3, [r6, #0]
    16e0:	4698      	mov	r8, r3
    16e2:	0018      	movs	r0, r3
    16e4:	47c8      	blx	r9
    16e6:	4681      	mov	r9, r0
    16e8:	2380      	movs	r3, #128	; 0x80
    16ea:	aa08      	add	r2, sp, #32
    16ec:	7013      	strb	r3, [r2, #0]
    16ee:	7055      	strb	r5, [r2, #1]
    16f0:	2301      	movs	r3, #1
    16f2:	7093      	strb	r3, [r2, #2]
    16f4:	70d5      	strb	r5, [r2, #3]
    16f6:	69e0      	ldr	r0, [r4, #28]
    16f8:	6a27      	ldr	r7, [r4, #32]
    16fa:	2800      	cmp	r0, #0
    16fc:	d100      	bne.n	1700 <i2c_master_init+0xb0>
    16fe:	e0af      	b.n	1860 <i2c_master_init+0x210>
    1700:	ab08      	add	r3, sp, #32
    1702:	7018      	strb	r0, [r3, #0]
    1704:	2302      	movs	r3, #2
    1706:	aa08      	add	r2, sp, #32
    1708:	7053      	strb	r3, [r2, #1]
    170a:	0c00      	lsrs	r0, r0, #16
    170c:	b2c0      	uxtb	r0, r0
    170e:	0011      	movs	r1, r2
    1710:	4b7d      	ldr	r3, [pc, #500]	; (1908 <i2c_master_init+0x2b8>)
    1712:	4798      	blx	r3
    1714:	2f00      	cmp	r7, #0
    1716:	d100      	bne.n	171a <i2c_master_init+0xca>
    1718:	e0a7      	b.n	186a <i2c_master_init+0x21a>
    171a:	ab08      	add	r3, sp, #32
    171c:	701f      	strb	r7, [r3, #0]
    171e:	2302      	movs	r3, #2
    1720:	aa08      	add	r2, sp, #32
    1722:	7053      	strb	r3, [r2, #1]
    1724:	0c3f      	lsrs	r7, r7, #16
    1726:	b2f8      	uxtb	r0, r7
    1728:	0011      	movs	r1, r2
    172a:	4b77      	ldr	r3, [pc, #476]	; (1908 <i2c_master_init+0x2b8>)
    172c:	4798      	blx	r3
    172e:	8aa3      	ldrh	r3, [r4, #20]
    1730:	80f3      	strh	r3, [r6, #6]
    1732:	8ae3      	ldrh	r3, [r4, #22]
    1734:	8133      	strh	r3, [r6, #8]
    1736:	7e23      	ldrb	r3, [r4, #24]
    1738:	2280      	movs	r2, #128	; 0x80
    173a:	2b00      	cmp	r3, #0
    173c:	d104      	bne.n	1748 <i2c_master_init+0xf8>
    173e:	4b73      	ldr	r3, [pc, #460]	; (190c <i2c_master_init+0x2bc>)
    1740:	789b      	ldrb	r3, [r3, #2]
    1742:	079b      	lsls	r3, r3, #30
    1744:	0fdb      	lsrs	r3, r3, #31
    1746:	01da      	lsls	r2, r3, #7
    1748:	68a1      	ldr	r1, [r4, #8]
    174a:	6923      	ldr	r3, [r4, #16]
    174c:	430b      	orrs	r3, r1
    174e:	4313      	orrs	r3, r2
    1750:	2224      	movs	r2, #36	; 0x24
    1752:	5ca2      	ldrb	r2, [r4, r2]
    1754:	2a00      	cmp	r2, #0
    1756:	d002      	beq.n	175e <i2c_master_init+0x10e>
    1758:	2280      	movs	r2, #128	; 0x80
    175a:	05d2      	lsls	r2, r2, #23
    175c:	4313      	orrs	r3, r2
    175e:	6aa2      	ldr	r2, [r4, #40]	; 0x28
    1760:	4313      	orrs	r3, r2
    1762:	222c      	movs	r2, #44	; 0x2c
    1764:	5ca2      	ldrb	r2, [r4, r2]
    1766:	2a00      	cmp	r2, #0
    1768:	d103      	bne.n	1772 <i2c_master_init+0x122>
    176a:	2280      	movs	r2, #128	; 0x80
    176c:	0492      	lsls	r2, r2, #18
    176e:	4291      	cmp	r1, r2
    1770:	d102      	bne.n	1778 <i2c_master_init+0x128>
    1772:	2280      	movs	r2, #128	; 0x80
    1774:	0512      	lsls	r2, r2, #20
    1776:	4313      	orrs	r3, r2
    1778:	222d      	movs	r2, #45	; 0x2d
    177a:	5ca2      	ldrb	r2, [r4, r2]
    177c:	2a00      	cmp	r2, #0
    177e:	d002      	beq.n	1786 <i2c_master_init+0x136>
    1780:	2280      	movs	r2, #128	; 0x80
    1782:	0412      	lsls	r2, r2, #16
    1784:	4313      	orrs	r3, r2
    1786:	222e      	movs	r2, #46	; 0x2e
    1788:	5ca2      	ldrb	r2, [r4, r2]
    178a:	2a00      	cmp	r2, #0
    178c:	d002      	beq.n	1794 <i2c_master_init+0x144>
    178e:	2280      	movs	r2, #128	; 0x80
    1790:	03d2      	lsls	r2, r2, #15
    1792:	4313      	orrs	r3, r2
    1794:	4642      	mov	r2, r8
    1796:	6812      	ldr	r2, [r2, #0]
    1798:	4313      	orrs	r3, r2
    179a:	4642      	mov	r2, r8
    179c:	6013      	str	r3, [r2, #0]
    179e:	2380      	movs	r3, #128	; 0x80
    17a0:	005b      	lsls	r3, r3, #1
    17a2:	6053      	str	r3, [r2, #4]
    17a4:	4648      	mov	r0, r9
    17a6:	3014      	adds	r0, #20
    17a8:	b2c0      	uxtb	r0, r0
    17aa:	4b59      	ldr	r3, [pc, #356]	; (1910 <i2c_master_init+0x2c0>)
    17ac:	4798      	blx	r3
    17ae:	9007      	str	r0, [sp, #28]
    17b0:	23fa      	movs	r3, #250	; 0xfa
    17b2:	009b      	lsls	r3, r3, #2
    17b4:	6822      	ldr	r2, [r4, #0]
    17b6:	435a      	muls	r2, r3
    17b8:	4691      	mov	r9, r2
    17ba:	6863      	ldr	r3, [r4, #4]
    17bc:	469a      	mov	sl, r3
    17be:	4d55      	ldr	r5, [pc, #340]	; (1914 <i2c_master_init+0x2c4>)
    17c0:	47a8      	blx	r5
    17c2:	9000      	str	r0, [sp, #0]
    17c4:	9101      	str	r1, [sp, #4]
    17c6:	464b      	mov	r3, r9
    17c8:	0058      	lsls	r0, r3, #1
    17ca:	47a8      	blx	r5
    17cc:	9002      	str	r0, [sp, #8]
    17ce:	9103      	str	r1, [sp, #12]
    17d0:	8e20      	ldrh	r0, [r4, #48]	; 0x30
    17d2:	47a8      	blx	r5
    17d4:	9004      	str	r0, [sp, #16]
    17d6:	9105      	str	r1, [sp, #20]
    17d8:	4f4f      	ldr	r7, [pc, #316]	; (1918 <i2c_master_init+0x2c8>)
    17da:	4a50      	ldr	r2, [pc, #320]	; (191c <i2c_master_init+0x2cc>)
    17dc:	4b50      	ldr	r3, [pc, #320]	; (1920 <i2c_master_init+0x2d0>)
    17de:	9800      	ldr	r0, [sp, #0]
    17e0:	9901      	ldr	r1, [sp, #4]
    17e2:	47b8      	blx	r7
    17e4:	0002      	movs	r2, r0
    17e6:	000b      	movs	r3, r1
    17e8:	9804      	ldr	r0, [sp, #16]
    17ea:	9905      	ldr	r1, [sp, #20]
    17ec:	47b8      	blx	r7
    17ee:	4e4d      	ldr	r6, [pc, #308]	; (1924 <i2c_master_init+0x2d4>)
    17f0:	2200      	movs	r2, #0
    17f2:	4b4d      	ldr	r3, [pc, #308]	; (1928 <i2c_master_init+0x2d8>)
    17f4:	47b0      	blx	r6
    17f6:	9004      	str	r0, [sp, #16]
    17f8:	9105      	str	r1, [sp, #20]
    17fa:	4648      	mov	r0, r9
    17fc:	47a8      	blx	r5
    17fe:	0002      	movs	r2, r0
    1800:	000b      	movs	r3, r1
    1802:	9804      	ldr	r0, [sp, #16]
    1804:	9905      	ldr	r1, [sp, #20]
    1806:	47b8      	blx	r7
    1808:	0002      	movs	r2, r0
    180a:	000b      	movs	r3, r1
    180c:	4d47      	ldr	r5, [pc, #284]	; (192c <i2c_master_init+0x2dc>)
    180e:	9800      	ldr	r0, [sp, #0]
    1810:	9901      	ldr	r1, [sp, #4]
    1812:	47a8      	blx	r5
    1814:	9a02      	ldr	r2, [sp, #8]
    1816:	9b03      	ldr	r3, [sp, #12]
    1818:	47b0      	blx	r6
    181a:	2200      	movs	r2, #0
    181c:	4b44      	ldr	r3, [pc, #272]	; (1930 <i2c_master_init+0x2e0>)
    181e:	47a8      	blx	r5
    1820:	9a02      	ldr	r2, [sp, #8]
    1822:	9b03      	ldr	r3, [sp, #12]
    1824:	4d43      	ldr	r5, [pc, #268]	; (1934 <i2c_master_init+0x2e4>)
    1826:	47a8      	blx	r5
    1828:	4b43      	ldr	r3, [pc, #268]	; (1938 <i2c_master_init+0x2e8>)
    182a:	4798      	blx	r3
    182c:	0005      	movs	r5, r0
    182e:	2380      	movs	r3, #128	; 0x80
    1830:	049b      	lsls	r3, r3, #18
    1832:	68a2      	ldr	r2, [r4, #8]
    1834:	429a      	cmp	r2, r3
    1836:	d01e      	beq.n	1876 <i2c_master_init+0x226>
    1838:	0003      	movs	r3, r0
    183a:	2040      	movs	r0, #64	; 0x40
    183c:	2dff      	cmp	r5, #255	; 0xff
    183e:	d900      	bls.n	1842 <i2c_master_init+0x1f2>
    1840:	e72d      	b.n	169e <i2c_master_init+0x4e>
    1842:	2400      	movs	r4, #0
    1844:	2000      	movs	r0, #0
    1846:	25ff      	movs	r5, #255	; 0xff
    1848:	401d      	ands	r5, r3
    184a:	0624      	lsls	r4, r4, #24
    184c:	4325      	orrs	r5, r4
    184e:	0400      	lsls	r0, r0, #16
    1850:	23ff      	movs	r3, #255	; 0xff
    1852:	041b      	lsls	r3, r3, #16
    1854:	4018      	ands	r0, r3
    1856:	4305      	orrs	r5, r0
    1858:	4643      	mov	r3, r8
    185a:	60dd      	str	r5, [r3, #12]
    185c:	2000      	movs	r0, #0
    185e:	e71e      	b.n	169e <i2c_master_init+0x4e>
    1860:	2100      	movs	r1, #0
    1862:	4640      	mov	r0, r8
    1864:	4b35      	ldr	r3, [pc, #212]	; (193c <i2c_master_init+0x2ec>)
    1866:	4798      	blx	r3
    1868:	e74a      	b.n	1700 <i2c_master_init+0xb0>
    186a:	2101      	movs	r1, #1
    186c:	4640      	mov	r0, r8
    186e:	4b33      	ldr	r3, [pc, #204]	; (193c <i2c_master_init+0x2ec>)
    1870:	4798      	blx	r3
    1872:	0007      	movs	r7, r0
    1874:	e751      	b.n	171a <i2c_master_init+0xca>
    1876:	26fa      	movs	r6, #250	; 0xfa
    1878:	00b6      	lsls	r6, r6, #2
    187a:	4653      	mov	r3, sl
    187c:	435e      	muls	r6, r3
    187e:	9800      	ldr	r0, [sp, #0]
    1880:	9901      	ldr	r1, [sp, #4]
    1882:	0002      	movs	r2, r0
    1884:	000b      	movs	r3, r1
    1886:	4c27      	ldr	r4, [pc, #156]	; (1924 <i2c_master_init+0x2d4>)
    1888:	47a0      	blx	r4
    188a:	9000      	str	r0, [sp, #0]
    188c:	9101      	str	r1, [sp, #4]
    188e:	0030      	movs	r0, r6
    1890:	4b20      	ldr	r3, [pc, #128]	; (1914 <i2c_master_init+0x2c4>)
    1892:	4798      	blx	r3
    1894:	2200      	movs	r2, #0
    1896:	4b2a      	ldr	r3, [pc, #168]	; (1940 <i2c_master_init+0x2f0>)
    1898:	47b8      	blx	r7
    189a:	0002      	movs	r2, r0
    189c:	000b      	movs	r3, r1
    189e:	9800      	ldr	r0, [sp, #0]
    18a0:	9901      	ldr	r1, [sp, #4]
    18a2:	4c24      	ldr	r4, [pc, #144]	; (1934 <i2c_master_init+0x2e4>)
    18a4:	47a0      	blx	r4
    18a6:	2200      	movs	r2, #0
    18a8:	4b21      	ldr	r3, [pc, #132]	; (1930 <i2c_master_init+0x2e0>)
    18aa:	4c20      	ldr	r4, [pc, #128]	; (192c <i2c_master_init+0x2dc>)
    18ac:	47a0      	blx	r4
    18ae:	4b22      	ldr	r3, [pc, #136]	; (1938 <i2c_master_init+0x2e8>)
    18b0:	4798      	blx	r3
    18b2:	1e04      	subs	r4, r0, #0
    18b4:	d00c      	beq.n	18d0 <i2c_master_init+0x280>
    18b6:	0031      	movs	r1, r6
    18b8:	9807      	ldr	r0, [sp, #28]
    18ba:	4b22      	ldr	r3, [pc, #136]	; (1944 <i2c_master_init+0x2f4>)
    18bc:	4798      	blx	r3
    18be:	3802      	subs	r0, #2
    18c0:	1b00      	subs	r0, r0, r4
    18c2:	002b      	movs	r3, r5
    18c4:	2dff      	cmp	r5, #255	; 0xff
    18c6:	d80c      	bhi.n	18e2 <i2c_master_init+0x292>
    18c8:	28ff      	cmp	r0, #255	; 0xff
    18ca:	d9bc      	bls.n	1846 <i2c_master_init+0x1f6>
    18cc:	2040      	movs	r0, #64	; 0x40
    18ce:	e6e6      	b.n	169e <i2c_master_init+0x4e>
    18d0:	0071      	lsls	r1, r6, #1
    18d2:	1e48      	subs	r0, r1, #1
    18d4:	9b07      	ldr	r3, [sp, #28]
    18d6:	469c      	mov	ip, r3
    18d8:	4460      	add	r0, ip
    18da:	4b1a      	ldr	r3, [pc, #104]	; (1944 <i2c_master_init+0x2f4>)
    18dc:	4798      	blx	r3
    18de:	3801      	subs	r0, #1
    18e0:	e7ef      	b.n	18c2 <i2c_master_init+0x272>
    18e2:	2040      	movs	r0, #64	; 0x40
    18e4:	e6db      	b.n	169e <i2c_master_init+0x4e>
    18e6:	46c0      	nop			; (mov r8, r8)
    18e8:	00005d61 	.word	0x00005d61
    18ec:	40000400 	.word	0x40000400
    18f0:	00006a0d 	.word	0x00006a0d
    18f4:	00006981 	.word	0x00006981
    18f8:	00005b9d 	.word	0x00005b9d
    18fc:	00000375 	.word	0x00000375
    1900:	00005d9d 	.word	0x00005d9d
    1904:	20004e5c 	.word	0x20004e5c
    1908:	00006b35 	.word	0x00006b35
    190c:	41002000 	.word	0x41002000
    1910:	00006a29 	.word	0x00006a29
    1914:	00008c35 	.word	0x00008c35
    1918:	000080a1 	.word	0x000080a1
    191c:	e826d695 	.word	0xe826d695
    1920:	3e112e0b 	.word	0x3e112e0b
    1924:	00007419 	.word	0x00007419
    1928:	40240000 	.word	0x40240000
    192c:	000085a1 	.word	0x000085a1
    1930:	3ff00000 	.word	0x3ff00000
    1934:	00007a39 	.word	0x00007a39
    1938:	00008bcd 	.word	0x00008bcd
    193c:	00005be9 	.word	0x00005be9
    1940:	40080000 	.word	0x40080000
    1944:	00006f8d 	.word	0x00006f8d

00001948 <i2c_master_reset>:
    1948:	b5f8      	push	{r3, r4, r5, r6, r7, lr}
    194a:	46ce      	mov	lr, r9
    194c:	4647      	mov	r7, r8
    194e:	b580      	push	{r7, lr}
    1950:	0004      	movs	r4, r0
    1952:	6803      	ldr	r3, [r0, #0]
    1954:	4699      	mov	r9, r3
    1956:	4e14      	ldr	r6, [pc, #80]	; (19a8 <i2c_master_reset+0x60>)
    1958:	47b0      	blx	r6
    195a:	6825      	ldr	r5, [r4, #0]
    195c:	0028      	movs	r0, r5
    195e:	4b13      	ldr	r3, [pc, #76]	; (19ac <i2c_master_reset+0x64>)
    1960:	4698      	mov	r8, r3
    1962:	4798      	blx	r3
    1964:	231f      	movs	r3, #31
    1966:	4018      	ands	r0, r3
    1968:	2701      	movs	r7, #1
    196a:	0039      	movs	r1, r7
    196c:	4081      	lsls	r1, r0
    196e:	3361      	adds	r3, #97	; 0x61
    1970:	4a0f      	ldr	r2, [pc, #60]	; (19b0 <i2c_master_reset+0x68>)
    1972:	50d1      	str	r1, [r2, r3]
    1974:	0020      	movs	r0, r4
    1976:	47b0      	blx	r6
    1978:	2383      	movs	r3, #131	; 0x83
    197a:	752b      	strb	r3, [r5, #20]
    197c:	762b      	strb	r3, [r5, #24]
    197e:	682b      	ldr	r3, [r5, #0]
    1980:	2202      	movs	r2, #2
    1982:	4393      	bics	r3, r2
    1984:	602b      	str	r3, [r5, #0]
    1986:	4b0b      	ldr	r3, [pc, #44]	; (19b4 <i2c_master_reset+0x6c>)
    1988:	4798      	blx	r3
    198a:	6820      	ldr	r0, [r4, #0]
    198c:	47c0      	blx	r8
    198e:	4b0a      	ldr	r3, [pc, #40]	; (19b8 <i2c_master_reset+0x70>)
    1990:	4798      	blx	r3
    1992:	4b0a      	ldr	r3, [pc, #40]	; (19bc <i2c_master_reset+0x74>)
    1994:	4798      	blx	r3
    1996:	0020      	movs	r0, r4
    1998:	47b0      	blx	r6
    199a:	464b      	mov	r3, r9
    199c:	601f      	str	r7, [r3, #0]
    199e:	bc0c      	pop	{r2, r3}
    19a0:	4690      	mov	r8, r2
    19a2:	4699      	mov	r9, r3
    19a4:	bdf8      	pop	{r3, r4, r5, r6, r7, pc}
    19a6:	46c0      	nop			; (mov r8, r8)
    19a8:	00001645 	.word	0x00001645
    19ac:	00005dd9 	.word	0x00005dd9
    19b0:	e000e100 	.word	0xe000e100
    19b4:	0000583d 	.word	0x0000583d
    19b8:	00006a5d 	.word	0x00006a5d
    19bc:	0000587d 	.word	0x0000587d

000019c0 <_i2c_master_address_response>:
    19c0:	6803      	ldr	r3, [r0, #0]
    19c2:	7e1a      	ldrb	r2, [r3, #24]
    19c4:	0792      	lsls	r2, r2, #30
    19c6:	d507      	bpl.n	19d8 <_i2c_master_address_response+0x18>
    19c8:	2202      	movs	r2, #2
    19ca:	761a      	strb	r2, [r3, #24]
    19cc:	8b5b      	ldrh	r3, [r3, #26]
    19ce:	079b      	lsls	r3, r3, #30
    19d0:	2041      	movs	r0, #65	; 0x41
    19d2:	17db      	asrs	r3, r3, #31
    19d4:	4018      	ands	r0, r3
    19d6:	4770      	bx	lr
    19d8:	8b5a      	ldrh	r2, [r3, #26]
    19da:	0752      	lsls	r2, r2, #29
    19dc:	d506      	bpl.n	19ec <_i2c_master_address_response+0x2c>
    19de:	6859      	ldr	r1, [r3, #4]
    19e0:	22c0      	movs	r2, #192	; 0xc0
    19e2:	0292      	lsls	r2, r2, #10
    19e4:	430a      	orrs	r2, r1
    19e6:	605a      	str	r2, [r3, #4]
    19e8:	2018      	movs	r0, #24
    19ea:	e7f4      	b.n	19d6 <_i2c_master_address_response+0x16>
    19ec:	2000      	movs	r0, #0
    19ee:	e7f2      	b.n	19d6 <_i2c_master_address_response+0x16>

000019f0 <_i2c_master_wait_for_bus>:
    19f0:	b530      	push	{r4, r5, lr}
    19f2:	6802      	ldr	r2, [r0, #0]
    19f4:	2300      	movs	r3, #0
    19f6:	2401      	movs	r4, #1
    19f8:	2502      	movs	r5, #2
    19fa:	7e11      	ldrb	r1, [r2, #24]
    19fc:	4221      	tst	r1, r4
    19fe:	d10b      	bne.n	1a18 <_i2c_master_wait_for_bus+0x28>
    1a00:	7e11      	ldrb	r1, [r2, #24]
    1a02:	4229      	tst	r1, r5
    1a04:	d106      	bne.n	1a14 <_i2c_master_wait_for_bus+0x24>
    1a06:	3301      	adds	r3, #1
    1a08:	b29b      	uxth	r3, r3
    1a0a:	8901      	ldrh	r1, [r0, #8]
    1a0c:	4299      	cmp	r1, r3
    1a0e:	d8f4      	bhi.n	19fa <_i2c_master_wait_for_bus+0xa>
    1a10:	2012      	movs	r0, #18
    1a12:	e002      	b.n	1a1a <_i2c_master_wait_for_bus+0x2a>
    1a14:	2000      	movs	r0, #0
    1a16:	e000      	b.n	1a1a <_i2c_master_wait_for_bus+0x2a>
    1a18:	2000      	movs	r0, #0
    1a1a:	bd30      	pop	{r4, r5, pc}

00001a1c <_i2c_master_send_hs_master_code>:
    1a1c:	b510      	push	{r4, lr}
    1a1e:	6804      	ldr	r4, [r0, #0]
    1a20:	6862      	ldr	r2, [r4, #4]
    1a22:	2380      	movs	r3, #128	; 0x80
    1a24:	02db      	lsls	r3, r3, #11
    1a26:	4313      	orrs	r3, r2
    1a28:	6063      	str	r3, [r4, #4]
    1a2a:	6261      	str	r1, [r4, #36]	; 0x24
    1a2c:	4b02      	ldr	r3, [pc, #8]	; (1a38 <_i2c_master_send_hs_master_code+0x1c>)
    1a2e:	4798      	blx	r3
    1a30:	2301      	movs	r3, #1
    1a32:	7623      	strb	r3, [r4, #24]
    1a34:	bd10      	pop	{r4, pc}
    1a36:	46c0      	nop			; (mov r8, r8)
    1a38:	000019f1 	.word	0x000019f1

00001a3c <_tc_interrupt_handler>:
    1a3c:	b570      	push	{r4, r5, r6, lr}
    1a3e:	0080      	lsls	r0, r0, #2
    1a40:	4b16      	ldr	r3, [pc, #88]	; (1a9c <_tc_interrupt_handler+0x60>)
    1a42:	58c4      	ldr	r4, [r0, r3]
    1a44:	6823      	ldr	r3, [r4, #0]
    1a46:	7b9d      	ldrb	r5, [r3, #14]
    1a48:	7e22      	ldrb	r2, [r4, #24]
    1a4a:	7e63      	ldrb	r3, [r4, #25]
    1a4c:	4013      	ands	r3, r2
    1a4e:	401d      	ands	r5, r3
    1a50:	07eb      	lsls	r3, r5, #31
    1a52:	d406      	bmi.n	1a62 <_tc_interrupt_handler+0x26>
    1a54:	07ab      	lsls	r3, r5, #30
    1a56:	d40b      	bmi.n	1a70 <_tc_interrupt_handler+0x34>
    1a58:	06eb      	lsls	r3, r5, #27
    1a5a:	d410      	bmi.n	1a7e <_tc_interrupt_handler+0x42>
    1a5c:	06ab      	lsls	r3, r5, #26
    1a5e:	d415      	bmi.n	1a8c <_tc_interrupt_handler+0x50>
    1a60:	bd70      	pop	{r4, r5, r6, pc}
    1a62:	0020      	movs	r0, r4
    1a64:	68a3      	ldr	r3, [r4, #8]
    1a66:	4798      	blx	r3
    1a68:	2301      	movs	r3, #1
    1a6a:	6822      	ldr	r2, [r4, #0]
    1a6c:	7393      	strb	r3, [r2, #14]
    1a6e:	e7f1      	b.n	1a54 <_tc_interrupt_handler+0x18>
    1a70:	0020      	movs	r0, r4
    1a72:	68e3      	ldr	r3, [r4, #12]
    1a74:	4798      	blx	r3
    1a76:	2302      	movs	r3, #2
    1a78:	6822      	ldr	r2, [r4, #0]
    1a7a:	7393      	strb	r3, [r2, #14]
    1a7c:	e7ec      	b.n	1a58 <_tc_interrupt_handler+0x1c>
    1a7e:	0020      	movs	r0, r4
    1a80:	6923      	ldr	r3, [r4, #16]
    1a82:	4798      	blx	r3
    1a84:	2310      	movs	r3, #16
    1a86:	6822      	ldr	r2, [r4, #0]
    1a88:	7393      	strb	r3, [r2, #14]
    1a8a:	e7e7      	b.n	1a5c <_tc_interrupt_handler+0x20>
    1a8c:	0020      	movs	r0, r4
    1a8e:	6963      	ldr	r3, [r4, #20]
    1a90:	4798      	blx	r3
    1a92:	6823      	ldr	r3, [r4, #0]
    1a94:	2220      	movs	r2, #32
    1a96:	739a      	strb	r2, [r3, #14]
    1a98:	e7e2      	b.n	1a60 <_tc_interrupt_handler+0x24>
    1a9a:	46c0      	nop			; (mov r8, r8)
    1a9c:	20003988 	.word	0x20003988

00001aa0 <TC3_Handler>:
    1aa0:	b510      	push	{r4, lr}
    1aa2:	2000      	movs	r0, #0
    1aa4:	4b01      	ldr	r3, [pc, #4]	; (1aac <TC3_Handler+0xc>)
    1aa6:	4798      	blx	r3
    1aa8:	bd10      	pop	{r4, pc}
    1aaa:	46c0      	nop			; (mov r8, r8)
    1aac:	00001a3d 	.word	0x00001a3d

00001ab0 <TC4_Handler>:
    1ab0:	b510      	push	{r4, lr}
    1ab2:	2001      	movs	r0, #1
    1ab4:	4b01      	ldr	r3, [pc, #4]	; (1abc <TC4_Handler+0xc>)
    1ab6:	4798      	blx	r3
    1ab8:	bd10      	pop	{r4, pc}
    1aba:	46c0      	nop			; (mov r8, r8)
    1abc:	00001a3d 	.word	0x00001a3d

00001ac0 <TC5_Handler>:
    1ac0:	b510      	push	{r4, lr}
    1ac2:	2002      	movs	r0, #2
    1ac4:	4b01      	ldr	r3, [pc, #4]	; (1acc <TC5_Handler+0xc>)
    1ac6:	4798      	blx	r3
    1ac8:	bd10      	pop	{r4, pc}
    1aca:	46c0      	nop			; (mov r8, r8)
    1acc:	00001a3d 	.word	0x00001a3d

00001ad0 <prvHelpCommand>:
    1ad0:	b570      	push	{r4, r5, r6, lr}
    1ad2:	000a      	movs	r2, r1
    1ad4:	4b09      	ldr	r3, [pc, #36]	; (1afc <prvHelpCommand+0x2c>)
    1ad6:	681b      	ldr	r3, [r3, #0]
    1ad8:	2b00      	cmp	r3, #0
    1ada:	d00a      	beq.n	1af2 <prvHelpCommand+0x22>
    1adc:	4c07      	ldr	r4, [pc, #28]	; (1afc <prvHelpCommand+0x2c>)
    1ade:	6825      	ldr	r5, [r4, #0]
    1ae0:	682b      	ldr	r3, [r5, #0]
    1ae2:	6859      	ldr	r1, [r3, #4]
    1ae4:	4b06      	ldr	r3, [pc, #24]	; (1b00 <prvHelpCommand+0x30>)
    1ae6:	4798      	blx	r3
    1ae8:	6868      	ldr	r0, [r5, #4]
    1aea:	6020      	str	r0, [r4, #0]
    1aec:	1e43      	subs	r3, r0, #1
    1aee:	4198      	sbcs	r0, r3
    1af0:	bd70      	pop	{r4, r5, r6, pc}
    1af2:	4904      	ldr	r1, [pc, #16]	; (1b04 <prvHelpCommand+0x34>)
    1af4:	4b01      	ldr	r3, [pc, #4]	; (1afc <prvHelpCommand+0x2c>)
    1af6:	6019      	str	r1, [r3, #0]
    1af8:	e7f0      	b.n	1adc <prvHelpCommand+0xc>
    1afa:	46c0      	nop			; (mov r8, r8)
    1afc:	20000330 	.word	0x20000330
    1b00:	00008fe9 	.word	0x00008fe9
    1b04:	20000010 	.word	0x20000010

00001b08 <FreeRTOS_CLIRegisterCommand>:
    1b08:	b570      	push	{r4, r5, r6, lr}
    1b0a:	1e05      	subs	r5, r0, #0
    1b0c:	d006      	beq.n	1b1c <FreeRTOS_CLIRegisterCommand+0x14>
    1b0e:	2008      	movs	r0, #8
    1b10:	4b0a      	ldr	r3, [pc, #40]	; (1b3c <FreeRTOS_CLIRegisterCommand+0x34>)
    1b12:	4798      	blx	r3
    1b14:	1e04      	subs	r4, r0, #0
    1b16:	d103      	bne.n	1b20 <FreeRTOS_CLIRegisterCommand+0x18>
    1b18:	b672      	cpsid	i
    1b1a:	e7fe      	b.n	1b1a <FreeRTOS_CLIRegisterCommand+0x12>
    1b1c:	b672      	cpsid	i
    1b1e:	e7fe      	b.n	1b1e <FreeRTOS_CLIRegisterCommand+0x16>
    1b20:	4b07      	ldr	r3, [pc, #28]	; (1b40 <FreeRTOS_CLIRegisterCommand+0x38>)
    1b22:	4798      	blx	r3
    1b24:	6025      	str	r5, [r4, #0]
    1b26:	2300      	movs	r3, #0
    1b28:	6063      	str	r3, [r4, #4]
    1b2a:	4b06      	ldr	r3, [pc, #24]	; (1b44 <FreeRTOS_CLIRegisterCommand+0x3c>)
    1b2c:	681a      	ldr	r2, [r3, #0]
    1b2e:	6054      	str	r4, [r2, #4]
    1b30:	601c      	str	r4, [r3, #0]
    1b32:	4b05      	ldr	r3, [pc, #20]	; (1b48 <FreeRTOS_CLIRegisterCommand+0x40>)
    1b34:	4798      	blx	r3
    1b36:	2001      	movs	r0, #1
    1b38:	bd70      	pop	{r4, r5, r6, pc}
    1b3a:	46c0      	nop			; (mov r8, r8)
    1b3c:	00002fb5 	.word	0x00002fb5
    1b40:	00002ef1 	.word	0x00002ef1
    1b44:	2000000c 	.word	0x2000000c
    1b48:	00002f09 	.word	0x00002f09

00001b4c <FreeRTOS_CLIProcessCommand>:
    1b4c:	b5f0      	push	{r4, r5, r6, r7, lr}
    1b4e:	46de      	mov	lr, fp
    1b50:	4657      	mov	r7, sl
    1b52:	464e      	mov	r6, r9
    1b54:	4645      	mov	r5, r8
    1b56:	b5e0      	push	{r5, r6, r7, lr}
    1b58:	b083      	sub	sp, #12
    1b5a:	0006      	movs	r6, r0
    1b5c:	9100      	str	r1, [sp, #0]
    1b5e:	9201      	str	r2, [sp, #4]
    1b60:	4b39      	ldr	r3, [pc, #228]	; (1c48 <FreeRTOS_CLIProcessCommand+0xfc>)
    1b62:	681b      	ldr	r3, [r3, #0]
    1b64:	2b00      	cmp	r3, #0
    1b66:	d011      	beq.n	1b8c <FreeRTOS_CLIProcessCommand+0x40>
    1b68:	681b      	ldr	r3, [r3, #0]
    1b6a:	689b      	ldr	r3, [r3, #8]
    1b6c:	0032      	movs	r2, r6
    1b6e:	9901      	ldr	r1, [sp, #4]
    1b70:	9800      	ldr	r0, [sp, #0]
    1b72:	4798      	blx	r3
    1b74:	2800      	cmp	r0, #0
    1b76:	d102      	bne.n	1b7e <FreeRTOS_CLIProcessCommand+0x32>
    1b78:	2200      	movs	r2, #0
    1b7a:	4b33      	ldr	r3, [pc, #204]	; (1c48 <FreeRTOS_CLIProcessCommand+0xfc>)
    1b7c:	601a      	str	r2, [r3, #0]
    1b7e:	b003      	add	sp, #12
    1b80:	bc3c      	pop	{r2, r3, r4, r5}
    1b82:	4690      	mov	r8, r2
    1b84:	4699      	mov	r9, r3
    1b86:	46a2      	mov	sl, r4
    1b88:	46ab      	mov	fp, r5
    1b8a:	bdf0      	pop	{r4, r5, r6, r7, pc}
    1b8c:	4c2f      	ldr	r4, [pc, #188]	; (1c4c <FreeRTOS_CLIProcessCommand+0x100>)
    1b8e:	4b2e      	ldr	r3, [pc, #184]	; (1c48 <FreeRTOS_CLIProcessCommand+0xfc>)
    1b90:	601c      	str	r4, [r3, #0]
    1b92:	4b2f      	ldr	r3, [pc, #188]	; (1c50 <FreeRTOS_CLIProcessCommand+0x104>)
    1b94:	4699      	mov	r9, r3
    1b96:	2320      	movs	r3, #32
    1b98:	4698      	mov	r8, r3
    1b9a:	4b2e      	ldr	r3, [pc, #184]	; (1c54 <FreeRTOS_CLIProcessCommand+0x108>)
    1b9c:	469b      	mov	fp, r3
    1b9e:	4b2a      	ldr	r3, [pc, #168]	; (1c48 <FreeRTOS_CLIProcessCommand+0xfc>)
    1ba0:	469a      	mov	sl, r3
    1ba2:	e00a      	b.n	1bba <FreeRTOS_CLIProcessCommand+0x6e>
    1ba4:	0002      	movs	r2, r0
    1ba6:	0029      	movs	r1, r5
    1ba8:	0030      	movs	r0, r6
    1baa:	47d8      	blx	fp
    1bac:	2800      	cmp	r0, #0
    1bae:	d00d      	beq.n	1bcc <FreeRTOS_CLIProcessCommand+0x80>
    1bb0:	6864      	ldr	r4, [r4, #4]
    1bb2:	4653      	mov	r3, sl
    1bb4:	601c      	str	r4, [r3, #0]
    1bb6:	2c00      	cmp	r4, #0
    1bb8:	d03e      	beq.n	1c38 <FreeRTOS_CLIProcessCommand+0xec>
    1bba:	6827      	ldr	r7, [r4, #0]
    1bbc:	683d      	ldr	r5, [r7, #0]
    1bbe:	0028      	movs	r0, r5
    1bc0:	47c8      	blx	r9
    1bc2:	5c33      	ldrb	r3, [r6, r0]
    1bc4:	4642      	mov	r2, r8
    1bc6:	4393      	bics	r3, r2
    1bc8:	d1f2      	bne.n	1bb0 <FreeRTOS_CLIProcessCommand+0x64>
    1bca:	e7eb      	b.n	1ba4 <FreeRTOS_CLIProcessCommand+0x58>
    1bcc:	7b3f      	ldrb	r7, [r7, #12]
    1bce:	b27f      	sxtb	r7, r7
    1bd0:	2f00      	cmp	r7, #0
    1bd2:	db2d      	blt.n	1c30 <FreeRTOS_CLIProcessCommand+0xe4>
    1bd4:	7833      	ldrb	r3, [r6, #0]
    1bd6:	2b00      	cmp	r3, #0
    1bd8:	d028      	beq.n	1c2c <FreeRTOS_CLIProcessCommand+0xe0>
    1bda:	0032      	movs	r2, r6
    1bdc:	2500      	movs	r5, #0
    1bde:	2100      	movs	r1, #0
    1be0:	2401      	movs	r4, #1
    1be2:	e008      	b.n	1bf6 <FreeRTOS_CLIProcessCommand+0xaa>
    1be4:	2901      	cmp	r1, #1
    1be6:	d00a      	beq.n	1bfe <FreeRTOS_CLIProcessCommand+0xb2>
    1be8:	3501      	adds	r5, #1
    1bea:	b26d      	sxtb	r5, r5
    1bec:	0021      	movs	r1, r4
    1bee:	3201      	adds	r2, #1
    1bf0:	7813      	ldrb	r3, [r2, #0]
    1bf2:	2b00      	cmp	r3, #0
    1bf4:	d005      	beq.n	1c02 <FreeRTOS_CLIProcessCommand+0xb6>
    1bf6:	2b20      	cmp	r3, #32
    1bf8:	d0f4      	beq.n	1be4 <FreeRTOS_CLIProcessCommand+0x98>
    1bfa:	0001      	movs	r1, r0
    1bfc:	e7f7      	b.n	1bee <FreeRTOS_CLIProcessCommand+0xa2>
    1bfe:	0021      	movs	r1, r4
    1c00:	e7f5      	b.n	1bee <FreeRTOS_CLIProcessCommand+0xa2>
    1c02:	2901      	cmp	r1, #1
    1c04:	d00f      	beq.n	1c26 <FreeRTOS_CLIProcessCommand+0xda>
    1c06:	4b10      	ldr	r3, [pc, #64]	; (1c48 <FreeRTOS_CLIProcessCommand+0xfc>)
    1c08:	681b      	ldr	r3, [r3, #0]
    1c0a:	2b00      	cmp	r3, #0
    1c0c:	d014      	beq.n	1c38 <FreeRTOS_CLIProcessCommand+0xec>
    1c0e:	42af      	cmp	r7, r5
    1c10:	d0aa      	beq.n	1b68 <FreeRTOS_CLIProcessCommand+0x1c>
    1c12:	9a01      	ldr	r2, [sp, #4]
    1c14:	4910      	ldr	r1, [pc, #64]	; (1c58 <FreeRTOS_CLIProcessCommand+0x10c>)
    1c16:	9800      	ldr	r0, [sp, #0]
    1c18:	4b10      	ldr	r3, [pc, #64]	; (1c5c <FreeRTOS_CLIProcessCommand+0x110>)
    1c1a:	4798      	blx	r3
    1c1c:	2200      	movs	r2, #0
    1c1e:	4b0a      	ldr	r3, [pc, #40]	; (1c48 <FreeRTOS_CLIProcessCommand+0xfc>)
    1c20:	601a      	str	r2, [r3, #0]
    1c22:	2000      	movs	r0, #0
    1c24:	e7ab      	b.n	1b7e <FreeRTOS_CLIProcessCommand+0x32>
    1c26:	3d01      	subs	r5, #1
    1c28:	b26d      	sxtb	r5, r5
    1c2a:	e7ec      	b.n	1c06 <FreeRTOS_CLIProcessCommand+0xba>
    1c2c:	2500      	movs	r5, #0
    1c2e:	e7ea      	b.n	1c06 <FreeRTOS_CLIProcessCommand+0xba>
    1c30:	4b05      	ldr	r3, [pc, #20]	; (1c48 <FreeRTOS_CLIProcessCommand+0xfc>)
    1c32:	681b      	ldr	r3, [r3, #0]
    1c34:	2b00      	cmp	r3, #0
    1c36:	d197      	bne.n	1b68 <FreeRTOS_CLIProcessCommand+0x1c>
    1c38:	9a01      	ldr	r2, [sp, #4]
    1c3a:	4909      	ldr	r1, [pc, #36]	; (1c60 <FreeRTOS_CLIProcessCommand+0x114>)
    1c3c:	9800      	ldr	r0, [sp, #0]
    1c3e:	4b07      	ldr	r3, [pc, #28]	; (1c5c <FreeRTOS_CLIProcessCommand+0x110>)
    1c40:	4798      	blx	r3
    1c42:	2000      	movs	r0, #0
    1c44:	e79b      	b.n	1b7e <FreeRTOS_CLIProcessCommand+0x32>
    1c46:	46c0      	nop			; (mov r8, r8)
    1c48:	2000032c 	.word	0x2000032c
    1c4c:	20000010 	.word	0x20000010
    1c50:	00008fb9 	.word	0x00008fb9
    1c54:	00008fc7 	.word	0x00008fc7
    1c58:	00009a54 	.word	0x00009a54
    1c5c:	00008fe9 	.word	0x00008fe9
    1c60:	00009aac 	.word	0x00009aac

00001c64 <prvTraceGetQueueType>:
    1c64:	b510      	push	{r4, lr}
    1c66:	4b01      	ldr	r3, [pc, #4]	; (1c6c <prvTraceGetQueueType+0x8>)
    1c68:	4798      	blx	r3
    1c6a:	bd10      	pop	{r4, pc}
    1c6c:	000041a5 	.word	0x000041a5

00001c70 <prvTraceGetTaskNumberLow16>:
    1c70:	b510      	push	{r4, lr}
    1c72:	4b02      	ldr	r3, [pc, #8]	; (1c7c <prvTraceGetTaskNumberLow16+0xc>)
    1c74:	4798      	blx	r3
    1c76:	b280      	uxth	r0, r0
    1c78:	bd10      	pop	{r4, pc}
    1c7a:	46c0      	nop			; (mov r8, r8)
    1c7c:	00004df5 	.word	0x00004df5

00001c80 <prvTraceGetTaskNumberHigh16>:
    1c80:	b510      	push	{r4, lr}
    1c82:	4b02      	ldr	r3, [pc, #8]	; (1c8c <prvTraceGetTaskNumberHigh16+0xc>)
    1c84:	4798      	blx	r3
    1c86:	0c00      	lsrs	r0, r0, #16
    1c88:	bd10      	pop	{r4, pc}
    1c8a:	46c0      	nop			; (mov r8, r8)
    1c8c:	00004df5 	.word	0x00004df5

00001c90 <prvTraceSetTaskNumberLow16>:
    1c90:	b570      	push	{r4, r5, r6, lr}
    1c92:	0004      	movs	r4, r0
    1c94:	000d      	movs	r5, r1
    1c96:	4b04      	ldr	r3, [pc, #16]	; (1ca8 <prvTraceSetTaskNumberLow16+0x18>)
    1c98:	4798      	blx	r3
    1c9a:	0c01      	lsrs	r1, r0, #16
    1c9c:	0409      	lsls	r1, r1, #16
    1c9e:	4329      	orrs	r1, r5
    1ca0:	0020      	movs	r0, r4
    1ca2:	4b02      	ldr	r3, [pc, #8]	; (1cac <prvTraceSetTaskNumberLow16+0x1c>)
    1ca4:	4798      	blx	r3
    1ca6:	bd70      	pop	{r4, r5, r6, pc}
    1ca8:	00004df5 	.word	0x00004df5
    1cac:	00004e01 	.word	0x00004e01

00001cb0 <prvTraceSetTaskNumberHigh16>:
    1cb0:	b570      	push	{r4, r5, r6, lr}
    1cb2:	0004      	movs	r4, r0
    1cb4:	000d      	movs	r5, r1
    1cb6:	4b05      	ldr	r3, [pc, #20]	; (1ccc <prvTraceSetTaskNumberHigh16+0x1c>)
    1cb8:	4798      	blx	r3
    1cba:	0401      	lsls	r1, r0, #16
    1cbc:	0c09      	lsrs	r1, r1, #16
    1cbe:	042d      	lsls	r5, r5, #16
    1cc0:	4329      	orrs	r1, r5
    1cc2:	0020      	movs	r0, r4
    1cc4:	4b02      	ldr	r3, [pc, #8]	; (1cd0 <prvTraceSetTaskNumberHigh16+0x20>)
    1cc6:	4798      	blx	r3
    1cc8:	bd70      	pop	{r4, r5, r6, pc}
    1cca:	46c0      	nop			; (mov r8, r8)
    1ccc:	00004df5 	.word	0x00004df5
    1cd0:	00004e01 	.word	0x00004e01

00001cd4 <prvTraceGetQueueNumberLow16>:
    1cd4:	b510      	push	{r4, lr}
    1cd6:	4b02      	ldr	r3, [pc, #8]	; (1ce0 <prvTraceGetQueueNumberLow16+0xc>)
    1cd8:	4798      	blx	r3
    1cda:	b280      	uxth	r0, r0
    1cdc:	bd10      	pop	{r4, pc}
    1cde:	46c0      	nop			; (mov r8, r8)
    1ce0:	0000419d 	.word	0x0000419d

00001ce4 <prvTraceGetQueueNumberHigh16>:
    1ce4:	b510      	push	{r4, lr}
    1ce6:	4b02      	ldr	r3, [pc, #8]	; (1cf0 <prvTraceGetQueueNumberHigh16+0xc>)
    1ce8:	4798      	blx	r3
    1cea:	0c00      	lsrs	r0, r0, #16
    1cec:	bd10      	pop	{r4, pc}
    1cee:	46c0      	nop			; (mov r8, r8)
    1cf0:	0000419d 	.word	0x0000419d

00001cf4 <prvTraceSetQueueNumberLow16>:
    1cf4:	b570      	push	{r4, r5, r6, lr}
    1cf6:	0004      	movs	r4, r0
    1cf8:	000d      	movs	r5, r1
    1cfa:	4b04      	ldr	r3, [pc, #16]	; (1d0c <prvTraceSetQueueNumberLow16+0x18>)
    1cfc:	4798      	blx	r3
    1cfe:	0c01      	lsrs	r1, r0, #16
    1d00:	0409      	lsls	r1, r1, #16
    1d02:	4329      	orrs	r1, r5
    1d04:	0020      	movs	r0, r4
    1d06:	4b02      	ldr	r3, [pc, #8]	; (1d10 <prvTraceSetQueueNumberLow16+0x1c>)
    1d08:	4798      	blx	r3
    1d0a:	bd70      	pop	{r4, r5, r6, pc}
    1d0c:	0000419d 	.word	0x0000419d
    1d10:	000041a1 	.word	0x000041a1

00001d14 <prvTraceSetQueueNumberHigh16>:
    1d14:	b570      	push	{r4, r5, r6, lr}
    1d16:	0004      	movs	r4, r0
    1d18:	000d      	movs	r5, r1
    1d1a:	4b05      	ldr	r3, [pc, #20]	; (1d30 <prvTraceSetQueueNumberHigh16+0x1c>)
    1d1c:	4798      	blx	r3
    1d1e:	0401      	lsls	r1, r0, #16
    1d20:	0c09      	lsrs	r1, r1, #16
    1d22:	042d      	lsls	r5, r5, #16
    1d24:	4329      	orrs	r1, r5
    1d26:	0020      	movs	r0, r4
    1d28:	4b02      	ldr	r3, [pc, #8]	; (1d34 <prvTraceSetQueueNumberHigh16+0x20>)
    1d2a:	4798      	blx	r3
    1d2c:	bd70      	pop	{r4, r5, r6, pc}
    1d2e:	46c0      	nop			; (mov r8, r8)
    1d30:	0000419d 	.word	0x0000419d
    1d34:	000041a1 	.word	0x000041a1

00001d38 <prvTraceGetCurrentTaskHandle>:
    1d38:	b510      	push	{r4, lr}
    1d3a:	4b01      	ldr	r3, [pc, #4]	; (1d40 <prvTraceGetCurrentTaskHandle+0x8>)
    1d3c:	4798      	blx	r3
    1d3e:	bd10      	pop	{r4, pc}
    1d40:	00004e09 	.word	0x00004e09

00001d44 <vTraceEnable>:
    1d44:	b510      	push	{r4, lr}
    1d46:	0004      	movs	r4, r0
    1d48:	4b09      	ldr	r3, [pc, #36]	; (1d70 <vTraceEnable+0x2c>)
    1d4a:	4798      	blx	r3
    1d4c:	2c01      	cmp	r4, #1
    1d4e:	d004      	beq.n	1d5a <vTraceEnable+0x16>
    1d50:	2c02      	cmp	r4, #2
    1d52:	d005      	beq.n	1d60 <vTraceEnable+0x1c>
    1d54:	2c00      	cmp	r4, #0
    1d56:	d107      	bne.n	1d68 <vTraceEnable+0x24>
    1d58:	bd10      	pop	{r4, pc}
    1d5a:	4b06      	ldr	r3, [pc, #24]	; (1d74 <vTraceEnable+0x30>)
    1d5c:	4798      	blx	r3
    1d5e:	e7fb      	b.n	1d58 <vTraceEnable+0x14>
    1d60:	4805      	ldr	r0, [pc, #20]	; (1d78 <vTraceEnable+0x34>)
    1d62:	4b06      	ldr	r3, [pc, #24]	; (1d7c <vTraceEnable+0x38>)
    1d64:	4798      	blx	r3
    1d66:	e7f7      	b.n	1d58 <vTraceEnable+0x14>
    1d68:	4805      	ldr	r0, [pc, #20]	; (1d80 <vTraceEnable+0x3c>)
    1d6a:	4b04      	ldr	r3, [pc, #16]	; (1d7c <vTraceEnable+0x38>)
    1d6c:	4798      	blx	r3
    1d6e:	e7f3      	b.n	1d58 <vTraceEnable+0x14>
    1d70:	00001f69 	.word	0x00001f69
    1d74:	00002d49 	.word	0x00002d49
    1d78:	00009e68 	.word	0x00009e68
    1d7c:	00002141 	.word	0x00002141
    1d80:	00009ea8 	.word	0x00009ea8

00001d84 <vTraceInitObjectPropertyTable>:
    1d84:	b510      	push	{r4, lr}
    1d86:	4b2f      	ldr	r3, [pc, #188]	; (1e44 <vTraceInitObjectPropertyTable+0xc0>)
    1d88:	681b      	ldr	r3, [r3, #0]
    1d8a:	2209      	movs	r2, #9
    1d8c:	65da      	str	r2, [r3, #92]	; 0x5c
    1d8e:	3201      	adds	r2, #1
    1d90:	2164      	movs	r1, #100	; 0x64
    1d92:	545a      	strb	r2, [r3, r1]
    1d94:	3101      	adds	r1, #1
    1d96:	545a      	strb	r2, [r3, r1]
    1d98:	3101      	adds	r1, #1
    1d9a:	545a      	strb	r2, [r3, r1]
    1d9c:	3205      	adds	r2, #5
    1d9e:	3101      	adds	r1, #1
    1da0:	545a      	strb	r2, [r3, r1]
    1da2:	3962      	subs	r1, #98	; 0x62
    1da4:	2068      	movs	r0, #104	; 0x68
    1da6:	5419      	strb	r1, [r3, r0]
    1da8:	3001      	adds	r0, #1
    1daa:	5419      	strb	r1, [r3, r0]
    1dac:	3001      	adds	r0, #1
    1dae:	5419      	strb	r1, [r3, r0]
    1db0:	3001      	adds	r0, #1
    1db2:	5419      	strb	r1, [r3, r0]
    1db4:	3001      	adds	r0, #1
    1db6:	5419      	strb	r1, [r3, r0]
    1db8:	316b      	adds	r1, #107	; 0x6b
    1dba:	545a      	strb	r2, [r3, r1]
    1dbc:	3101      	adds	r1, #1
    1dbe:	545a      	strb	r2, [r3, r1]
    1dc0:	3101      	adds	r1, #1
    1dc2:	545a      	strb	r2, [r3, r1]
    1dc4:	3101      	adds	r1, #1
    1dc6:	545a      	strb	r2, [r3, r1]
    1dc8:	3101      	adds	r1, #1
    1dca:	545a      	strb	r2, [r3, r1]
    1dcc:	3101      	adds	r1, #1
    1dce:	545a      	strb	r2, [r3, r1]
    1dd0:	3101      	adds	r1, #1
    1dd2:	545a      	strb	r2, [r3, r1]
    1dd4:	3101      	adds	r1, #1
    1dd6:	545a      	strb	r2, [r3, r1]
    1dd8:	3101      	adds	r1, #1
    1dda:	545a      	strb	r2, [r3, r1]
    1ddc:	3968      	subs	r1, #104	; 0x68
    1dde:	326d      	adds	r2, #109	; 0x6d
    1de0:	5499      	strb	r1, [r3, r2]
    1de2:	3201      	adds	r2, #1
    1de4:	5499      	strb	r1, [r3, r2]
    1de6:	3201      	adds	r2, #1
    1de8:	5499      	strb	r1, [r3, r2]
    1dea:	3a6b      	subs	r2, #107	; 0x6b
    1dec:	3013      	adds	r0, #19
    1dee:	541a      	strb	r2, [r3, r0]
    1df0:	2411      	movs	r4, #17
    1df2:	3001      	adds	r0, #1
    1df4:	541c      	strb	r4, [r3, r0]
    1df6:	3001      	adds	r0, #1
    1df8:	5419      	strb	r1, [r3, r0]
    1dfa:	3172      	adds	r1, #114	; 0x72
    1dfc:	545a      	strb	r2, [r3, r1]
    1dfe:	3101      	adds	r1, #1
    1e00:	545a      	strb	r2, [r3, r1]
    1e02:	3101      	adds	r1, #1
    1e04:	545a      	strb	r2, [r3, r1]
    1e06:	2100      	movs	r1, #0
    1e08:	3275      	adds	r2, #117	; 0x75
    1e0a:	5299      	strh	r1, [r3, r2]
    1e0c:	31a0      	adds	r1, #160	; 0xa0
    1e0e:	3202      	adds	r2, #2
    1e10:	5299      	strh	r1, [r3, r2]
    1e12:	31a0      	adds	r1, #160	; 0xa0
    1e14:	3202      	adds	r2, #2
    1e16:	5299      	strh	r1, [r3, r2]
    1e18:	31a0      	adds	r1, #160	; 0xa0
    1e1a:	3202      	adds	r2, #2
    1e1c:	5299      	strh	r1, [r3, r2]
    1e1e:	490a      	ldr	r1, [pc, #40]	; (1e48 <vTraceInitObjectPropertyTable+0xc4>)
    1e20:	3202      	adds	r2, #2
    1e22:	5299      	strh	r1, [r3, r2]
    1e24:	4909      	ldr	r1, [pc, #36]	; (1e4c <vTraceInitObjectPropertyTable+0xc8>)
    1e26:	3202      	adds	r2, #2
    1e28:	5299      	strh	r1, [r3, r2]
    1e2a:	4909      	ldr	r1, [pc, #36]	; (1e50 <vTraceInitObjectPropertyTable+0xcc>)
    1e2c:	3202      	adds	r2, #2
    1e2e:	5299      	strh	r1, [r3, r2]
    1e30:	4908      	ldr	r1, [pc, #32]	; (1e54 <vTraceInitObjectPropertyTable+0xd0>)
    1e32:	3202      	adds	r2, #2
    1e34:	5299      	strh	r1, [r3, r2]
    1e36:	315f      	adds	r1, #95	; 0x5f
    1e38:	3202      	adds	r2, #2
    1e3a:	5299      	strh	r1, [r3, r2]
    1e3c:	4a06      	ldr	r2, [pc, #24]	; (1e58 <vTraceInitObjectPropertyTable+0xd4>)
    1e3e:	661a      	str	r2, [r3, #96]	; 0x60
    1e40:	bd10      	pop	{r4, pc}
    1e42:	46c0      	nop			; (mov r8, r8)
    1e44:	20000334 	.word	0x20000334
    1e48:	000002fd 	.word	0x000002fd
    1e4c:	00000352 	.word	0x00000352
    1e50:	000003a2 	.word	0x000003a2
    1e54:	00000401 	.word	0x00000401
    1e58:	000004bf 	.word	0x000004bf

00001e5c <vTraceInitObjectHandleStack>:
    1e5c:	4b17      	ldr	r3, [pc, #92]	; (1ebc <vTraceInitObjectHandleStack+0x60>)
    1e5e:	2200      	movs	r2, #0
    1e60:	825a      	strh	r2, [r3, #18]
    1e62:	801a      	strh	r2, [r3, #0]
    1e64:	320a      	adds	r2, #10
    1e66:	829a      	strh	r2, [r3, #20]
    1e68:	805a      	strh	r2, [r3, #2]
    1e6a:	320a      	adds	r2, #10
    1e6c:	82da      	strh	r2, [r3, #22]
    1e6e:	809a      	strh	r2, [r3, #4]
    1e70:	320a      	adds	r2, #10
    1e72:	831a      	strh	r2, [r3, #24]
    1e74:	80da      	strh	r2, [r3, #6]
    1e76:	320f      	adds	r2, #15
    1e78:	835a      	strh	r2, [r3, #26]
    1e7a:	811a      	strh	r2, [r3, #8]
    1e7c:	3205      	adds	r2, #5
    1e7e:	839a      	strh	r2, [r3, #28]
    1e80:	815a      	strh	r2, [r3, #10]
    1e82:	3205      	adds	r2, #5
    1e84:	83da      	strh	r2, [r3, #30]
    1e86:	819a      	strh	r2, [r3, #12]
    1e88:	3205      	adds	r2, #5
    1e8a:	841a      	strh	r2, [r3, #32]
    1e8c:	81da      	strh	r2, [r3, #14]
    1e8e:	3205      	adds	r2, #5
    1e90:	845a      	strh	r2, [r3, #34]	; 0x22
    1e92:	821a      	strh	r2, [r3, #16]
    1e94:	3a38      	subs	r2, #56	; 0x38
    1e96:	849a      	strh	r2, [r3, #36]	; 0x24
    1e98:	320a      	adds	r2, #10
    1e9a:	84da      	strh	r2, [r3, #38]	; 0x26
    1e9c:	320a      	adds	r2, #10
    1e9e:	851a      	strh	r2, [r3, #40]	; 0x28
    1ea0:	320f      	adds	r2, #15
    1ea2:	855a      	strh	r2, [r3, #42]	; 0x2a
    1ea4:	3205      	adds	r2, #5
    1ea6:	859a      	strh	r2, [r3, #44]	; 0x2c
    1ea8:	3205      	adds	r2, #5
    1eaa:	85da      	strh	r2, [r3, #46]	; 0x2e
    1eac:	3205      	adds	r2, #5
    1eae:	861a      	strh	r2, [r3, #48]	; 0x30
    1eb0:	3205      	adds	r2, #5
    1eb2:	865a      	strh	r2, [r3, #50]	; 0x32
    1eb4:	3205      	adds	r2, #5
    1eb6:	869a      	strh	r2, [r3, #52]	; 0x34
    1eb8:	4770      	bx	lr
    1eba:	46c0      	nop			; (mov r8, r8)
    1ebc:	20000350 	.word	0x20000350

00001ec0 <pszTraceGetErrorNotEnoughHandles>:
    1ec0:	2808      	cmp	r0, #8
    1ec2:	d813      	bhi.n	1eec <pszTraceGetErrorNotEnoughHandles+0x2c>
    1ec4:	0080      	lsls	r0, r0, #2
    1ec6:	4b0b      	ldr	r3, [pc, #44]	; (1ef4 <pszTraceGetErrorNotEnoughHandles+0x34>)
    1ec8:	581b      	ldr	r3, [r3, r0]
    1eca:	469f      	mov	pc, r3
    1ecc:	480a      	ldr	r0, [pc, #40]	; (1ef8 <pszTraceGetErrorNotEnoughHandles+0x38>)
    1ece:	e010      	b.n	1ef2 <pszTraceGetErrorNotEnoughHandles+0x32>
    1ed0:	480a      	ldr	r0, [pc, #40]	; (1efc <pszTraceGetErrorNotEnoughHandles+0x3c>)
    1ed2:	e00e      	b.n	1ef2 <pszTraceGetErrorNotEnoughHandles+0x32>
    1ed4:	480a      	ldr	r0, [pc, #40]	; (1f00 <pszTraceGetErrorNotEnoughHandles+0x40>)
    1ed6:	e00c      	b.n	1ef2 <pszTraceGetErrorNotEnoughHandles+0x32>
    1ed8:	480a      	ldr	r0, [pc, #40]	; (1f04 <pszTraceGetErrorNotEnoughHandles+0x44>)
    1eda:	e00a      	b.n	1ef2 <pszTraceGetErrorNotEnoughHandles+0x32>
    1edc:	480a      	ldr	r0, [pc, #40]	; (1f08 <pszTraceGetErrorNotEnoughHandles+0x48>)
    1ede:	e008      	b.n	1ef2 <pszTraceGetErrorNotEnoughHandles+0x32>
    1ee0:	480a      	ldr	r0, [pc, #40]	; (1f0c <pszTraceGetErrorNotEnoughHandles+0x4c>)
    1ee2:	e006      	b.n	1ef2 <pszTraceGetErrorNotEnoughHandles+0x32>
    1ee4:	480a      	ldr	r0, [pc, #40]	; (1f10 <pszTraceGetErrorNotEnoughHandles+0x50>)
    1ee6:	e004      	b.n	1ef2 <pszTraceGetErrorNotEnoughHandles+0x32>
    1ee8:	480a      	ldr	r0, [pc, #40]	; (1f14 <pszTraceGetErrorNotEnoughHandles+0x54>)
    1eea:	e002      	b.n	1ef2 <pszTraceGetErrorNotEnoughHandles+0x32>
    1eec:	480a      	ldr	r0, [pc, #40]	; (1f18 <pszTraceGetErrorNotEnoughHandles+0x58>)
    1eee:	e000      	b.n	1ef2 <pszTraceGetErrorNotEnoughHandles+0x32>
    1ef0:	480a      	ldr	r0, [pc, #40]	; (1f1c <pszTraceGetErrorNotEnoughHandles+0x5c>)
    1ef2:	4770      	bx	lr
    1ef4:	00009b44 	.word	0x00009b44
    1ef8:	00009bb0 	.word	0x00009bb0
    1efc:	00009bf8 	.word	0x00009bf8
    1f00:	00009c4c 	.word	0x00009c4c
    1f04:	00009c98 	.word	0x00009c98
    1f08:	00009ce4 	.word	0x00009ce4
    1f0c:	00009d30 	.word	0x00009d30
    1f10:	00009d84 	.word	0x00009d84
    1f14:	00009ddc 	.word	0x00009ddc
    1f18:	00009e38 	.word	0x00009e38
    1f1c:	00009b68 	.word	0x00009b68

00001f20 <prvStrncpy>:
    1f20:	b510      	push	{r4, lr}
    1f22:	2a00      	cmp	r2, #0
    1f24:	d00d      	beq.n	1f42 <prvStrncpy+0x22>
    1f26:	780b      	ldrb	r3, [r1, #0]
    1f28:	7003      	strb	r3, [r0, #0]
    1f2a:	780b      	ldrb	r3, [r1, #0]
    1f2c:	2b00      	cmp	r3, #0
    1f2e:	d008      	beq.n	1f42 <prvStrncpy+0x22>
    1f30:	2300      	movs	r3, #0
    1f32:	3301      	adds	r3, #1
    1f34:	429a      	cmp	r2, r3
    1f36:	d004      	beq.n	1f42 <prvStrncpy+0x22>
    1f38:	5ccc      	ldrb	r4, [r1, r3]
    1f3a:	54c4      	strb	r4, [r0, r3]
    1f3c:	5ccc      	ldrb	r4, [r1, r3]
    1f3e:	2c00      	cmp	r4, #0
    1f40:	d1f7      	bne.n	1f32 <prvStrncpy+0x12>
    1f42:	bd10      	pop	{r4, pc}

00001f44 <vTraceStop>:
    1f44:	b510      	push	{r4, lr}
    1f46:	4b06      	ldr	r3, [pc, #24]	; (1f60 <vTraceStop+0x1c>)
    1f48:	681b      	ldr	r3, [r3, #0]
    1f4a:	2b00      	cmp	r3, #0
    1f4c:	d001      	beq.n	1f52 <vTraceStop+0xe>
    1f4e:	2200      	movs	r2, #0
    1f50:	631a      	str	r2, [r3, #48]	; 0x30
    1f52:	4b04      	ldr	r3, [pc, #16]	; (1f64 <vTraceStop+0x20>)
    1f54:	681b      	ldr	r3, [r3, #0]
    1f56:	2b00      	cmp	r3, #0
    1f58:	d000      	beq.n	1f5c <vTraceStop+0x18>
    1f5a:	4798      	blx	r3
    1f5c:	bd10      	pop	{r4, pc}
    1f5e:	46c0      	nop			; (mov r8, r8)
    1f60:	20000334 	.word	0x20000334
    1f64:	200003fc 	.word	0x200003fc

00001f68 <prvTraceInitTraceData>:
    1f68:	b5f8      	push	{r3, r4, r5, r6, r7, lr}
    1f6a:	46de      	mov	lr, fp
    1f6c:	4657      	mov	r7, sl
    1f6e:	464e      	mov	r6, r9
    1f70:	4645      	mov	r5, r8
    1f72:	b5e0      	push	{r5, r6, r7, lr}
    1f74:	4b51      	ldr	r3, [pc, #324]	; (20bc <STACK_SIZE+0xbc>)
    1f76:	681b      	ldr	r3, [r3, #0]
    1f78:	2b00      	cmp	r3, #0
    1f7a:	d100      	bne.n	1f7e <prvTraceInitTraceData+0x16>
    1f7c:	e099      	b.n	20b2 <STACK_SIZE+0xb2>
    1f7e:	781b      	ldrb	r3, [r3, #0]
    1f80:	2b01      	cmp	r3, #1
    1f82:	d100      	bne.n	1f86 <prvTraceInitTraceData+0x1e>
    1f84:	e08f      	b.n	20a6 <STACK_SIZE+0xa6>
    1f86:	4b4e      	ldr	r3, [pc, #312]	; (20c0 <STACK_SIZE+0xc0>)
    1f88:	681a      	ldr	r2, [r3, #0]
    1f8a:	4b4e      	ldr	r3, [pc, #312]	; (20c4 <STACK_SIZE+0xc4>)
    1f8c:	601a      	str	r2, [r3, #0]
    1f8e:	4c4b      	ldr	r4, [pc, #300]	; (20bc <STACK_SIZE+0xbc>)
    1f90:	4d4d      	ldr	r5, [pc, #308]	; (20c8 <STACK_SIZE+0xc8>)
    1f92:	002a      	movs	r2, r5
    1f94:	2100      	movs	r1, #0
    1f96:	6820      	ldr	r0, [r4, #0]
    1f98:	4b4c      	ldr	r3, [pc, #304]	; (20cc <STACK_SIZE+0xcc>)
    1f9a:	4798      	blx	r3
    1f9c:	6823      	ldr	r3, [r4, #0]
    1f9e:	4a4c      	ldr	r2, [pc, #304]	; (20d0 <STACK_SIZE+0xd0>)
    1fa0:	819a      	strh	r2, [r3, #12]
    1fa2:	2205      	movs	r2, #5
    1fa4:	739a      	strb	r2, [r3, #14]
    1fa6:	2200      	movs	r2, #0
    1fa8:	73da      	strb	r2, [r3, #15]
    1faa:	611d      	str	r5, [r3, #16]
    1fac:	21c8      	movs	r1, #200	; 0xc8
    1fae:	0049      	lsls	r1, r1, #1
    1fb0:	6199      	str	r1, [r3, #24]
    1fb2:	4948      	ldr	r1, [pc, #288]	; (20d4 <STACK_SIZE+0xd4>)
    1fb4:	6559      	str	r1, [r3, #84]	; 0x54
    1fb6:	659a      	str	r2, [r3, #88]	; 0x58
    1fb8:	635a      	str	r2, [r3, #52]	; 0x34
    1fba:	4b47      	ldr	r3, [pc, #284]	; (20d8 <STACK_SIZE+0xd8>)
    1fbc:	4798      	blx	r3
    1fbe:	6820      	ldr	r0, [r4, #0]
    1fc0:	4a46      	ldr	r2, [pc, #280]	; (20dc <STACK_SIZE+0xdc>)
    1fc2:	4b47      	ldr	r3, [pc, #284]	; (20e0 <STACK_SIZE+0xe0>)
    1fc4:	50c2      	str	r2, [r0, r3]
    1fc6:	22c8      	movs	r2, #200	; 0xc8
    1fc8:	0092      	lsls	r2, r2, #2
    1fca:	3304      	adds	r3, #4
    1fcc:	50c2      	str	r2, [r0, r3]
    1fce:	4b45      	ldr	r3, [pc, #276]	; (20e4 <STACK_SIZE+0xe4>)
    1fd0:	2201      	movs	r2, #1
    1fd2:	50c2      	str	r2, [r0, r3]
    1fd4:	4a44      	ldr	r2, [pc, #272]	; (20e8 <STACK_SIZE+0xe8>)
    1fd6:	2391      	movs	r3, #145	; 0x91
    1fd8:	011b      	lsls	r3, r3, #4
    1fda:	50c2      	str	r2, [r0, r3]
    1fdc:	4b43      	ldr	r3, [pc, #268]	; (20ec <STACK_SIZE+0xec>)
    1fde:	469c      	mov	ip, r3
    1fe0:	4460      	add	r0, ip
    1fe2:	2250      	movs	r2, #80	; 0x50
    1fe4:	4942      	ldr	r1, [pc, #264]	; (20f0 <STACK_SIZE+0xf0>)
    1fe6:	4b43      	ldr	r3, [pc, #268]	; (20f4 <STACK_SIZE+0xf4>)
    1fe8:	4798      	blx	r3
    1fea:	6823      	ldr	r3, [r4, #0]
    1fec:	4942      	ldr	r1, [pc, #264]	; (20f8 <STACK_SIZE+0xf8>)
    1fee:	4a43      	ldr	r2, [pc, #268]	; (20fc <STACK_SIZE+0xfc>)
    1ff0:	5099      	str	r1, [r3, r2]
    1ff2:	210a      	movs	r1, #10
    1ff4:	4a42      	ldr	r2, [pc, #264]	; (2100 <STACK_SIZE+0x100>)
    1ff6:	5499      	strb	r1, [r3, r2]
    1ff8:	3101      	adds	r1, #1
    1ffa:	4a42      	ldr	r2, [pc, #264]	; (2104 <STACK_SIZE+0x104>)
    1ffc:	5499      	strb	r1, [r3, r2]
    1ffe:	3101      	adds	r1, #1
    2000:	4a41      	ldr	r2, [pc, #260]	; (2108 <STACK_SIZE+0x108>)
    2002:	5499      	strb	r1, [r3, r2]
    2004:	3101      	adds	r1, #1
    2006:	4a41      	ldr	r2, [pc, #260]	; (210c <STACK_SIZE+0x10c>)
    2008:	5499      	strb	r1, [r3, r2]
    200a:	3201      	adds	r2, #1
    200c:	3164      	adds	r1, #100	; 0x64
    200e:	5499      	strb	r1, [r3, r2]
    2010:	2572      	movs	r5, #114	; 0x72
    2012:	4a3f      	ldr	r2, [pc, #252]	; (2110 <STACK_SIZE+0x110>)
    2014:	549d      	strb	r5, [r3, r2]
    2016:	2673      	movs	r6, #115	; 0x73
    2018:	4a3e      	ldr	r2, [pc, #248]	; (2114 <STACK_SIZE+0x114>)
    201a:	549e      	strb	r6, [r3, r2]
    201c:	2774      	movs	r7, #116	; 0x74
    201e:	4a3e      	ldr	r2, [pc, #248]	; (2118 <STACK_SIZE+0x118>)
    2020:	549f      	strb	r7, [r3, r2]
    2022:	22f1      	movs	r2, #241	; 0xf1
    2024:	4690      	mov	r8, r2
    2026:	4a3d      	ldr	r2, [pc, #244]	; (211c <STACK_SIZE+0x11c>)
    2028:	4641      	mov	r1, r8
    202a:	5499      	strb	r1, [r3, r2]
    202c:	22f2      	movs	r2, #242	; 0xf2
    202e:	4691      	mov	r9, r2
    2030:	4a3b      	ldr	r2, [pc, #236]	; (2120 <STACK_SIZE+0x120>)
    2032:	4649      	mov	r1, r9
    2034:	5499      	strb	r1, [r3, r2]
    2036:	22f3      	movs	r2, #243	; 0xf3
    2038:	4692      	mov	sl, r2
    203a:	4a3a      	ldr	r2, [pc, #232]	; (2124 <STACK_SIZE+0x124>)
    203c:	4651      	mov	r1, sl
    203e:	5499      	strb	r1, [r3, r2]
    2040:	22f4      	movs	r2, #244	; 0xf4
    2042:	4693      	mov	fp, r2
    2044:	4a38      	ldr	r2, [pc, #224]	; (2128 <STACK_SIZE+0x128>)
    2046:	4659      	mov	r1, fp
    2048:	5499      	strb	r1, [r3, r2]
    204a:	4b38      	ldr	r3, [pc, #224]	; (212c <STACK_SIZE+0x12c>)
    204c:	4798      	blx	r3
    204e:	6823      	ldr	r3, [r4, #0]
    2050:	465a      	mov	r2, fp
    2052:	72da      	strb	r2, [r3, #11]
    2054:	4652      	mov	r2, sl
    2056:	729a      	strb	r2, [r3, #10]
    2058:	464a      	mov	r2, r9
    205a:	725a      	strb	r2, [r3, #9]
    205c:	4642      	mov	r2, r8
    205e:	721a      	strb	r2, [r3, #8]
    2060:	71df      	strb	r7, [r3, #7]
    2062:	719e      	strb	r6, [r3, #6]
    2064:	715d      	strb	r5, [r3, #5]
    2066:	2271      	movs	r2, #113	; 0x71
    2068:	711a      	strb	r2, [r3, #4]
    206a:	2204      	movs	r2, #4
    206c:	70da      	strb	r2, [r3, #3]
    206e:	2303      	movs	r3, #3
    2070:	6822      	ldr	r2, [r4, #0]
    2072:	7093      	strb	r3, [r2, #2]
    2074:	3b01      	subs	r3, #1
    2076:	6822      	ldr	r2, [r4, #0]
    2078:	7053      	strb	r3, [r2, #1]
    207a:	6823      	ldr	r3, [r4, #0]
    207c:	2201      	movs	r2, #1
    207e:	701a      	strb	r2, [r3, #0]
    2080:	4b2b      	ldr	r3, [pc, #172]	; (2130 <STACK_SIZE+0x130>)
    2082:	6819      	ldr	r1, [r3, #0]
    2084:	2900      	cmp	r1, #0
    2086:	d00e      	beq.n	20a6 <STACK_SIZE+0xa6>
    2088:	4c0c      	ldr	r4, [pc, #48]	; (20bc <STACK_SIZE+0xbc>)
    208a:	6823      	ldr	r3, [r4, #0]
    208c:	4a17      	ldr	r2, [pc, #92]	; (20ec <STACK_SIZE+0xec>)
    208e:	4694      	mov	ip, r2
    2090:	4463      	add	r3, ip
    2092:	0018      	movs	r0, r3
    2094:	2250      	movs	r2, #80	; 0x50
    2096:	4b17      	ldr	r3, [pc, #92]	; (20f4 <STACK_SIZE+0xf4>)
    2098:	4798      	blx	r3
    209a:	6822      	ldr	r2, [r4, #0]
    209c:	2101      	movs	r1, #1
    209e:	4b25      	ldr	r3, [pc, #148]	; (2134 <STACK_SIZE+0x134>)
    20a0:	50d1      	str	r1, [r2, r3]
    20a2:	4b25      	ldr	r3, [pc, #148]	; (2138 <STACK_SIZE+0x138>)
    20a4:	4798      	blx	r3
    20a6:	bc3c      	pop	{r2, r3, r4, r5}
    20a8:	4690      	mov	r8, r2
    20aa:	4699      	mov	r9, r3
    20ac:	46a2      	mov	sl, r4
    20ae:	46ab      	mov	fp, r5
    20b0:	bdf8      	pop	{r3, r4, r5, r6, r7, pc}
    20b2:	4a22      	ldr	r2, [pc, #136]	; (213c <STACK_SIZE+0x13c>)
    20b4:	4b01      	ldr	r3, [pc, #4]	; (20bc <STACK_SIZE+0xbc>)
    20b6:	601a      	str	r2, [r3, #0]
    20b8:	e765      	b.n	1f86 <prvTraceInitTraceData+0x1e>
    20ba:	46c0      	nop			; (mov r8, r8)
    20bc:	20000334 	.word	0x20000334
    20c0:	e000e018 	.word	0xe000e018
    20c4:	2000494c 	.word	0x2000494c
    20c8:	00000fb8 	.word	0x00000fb8
    20cc:	00008d4f 	.word	0x00008d4f
    20d0:	00001aa1 	.word	0x00001aa1
    20d4:	f0f0f0f0 	.word	0xf0f0f0f0
    20d8:	00001d85 	.word	0x00001d85
    20dc:	f1f1f1f1 	.word	0xf1f1f1f1
    20e0:	0000055c 	.word	0x0000055c
    20e4:	00000564 	.word	0x00000564
    20e8:	f2f2f2f2 	.word	0xf2f2f2f2
    20ec:	00000914 	.word	0x00000914
    20f0:	0000a0a8 	.word	0x0000a0a8
    20f4:	00001f21 	.word	0x00001f21
    20f8:	f3f3f3f3 	.word	0xf3f3f3f3
    20fc:	00000964 	.word	0x00000964
    2100:	00000fac 	.word	0x00000fac
    2104:	00000fad 	.word	0x00000fad
    2108:	00000fae 	.word	0x00000fae
    210c:	00000faf 	.word	0x00000faf
    2110:	00000fb1 	.word	0x00000fb1
    2114:	00000fb2 	.word	0x00000fb2
    2118:	00000fb3 	.word	0x00000fb3
    211c:	00000fb4 	.word	0x00000fb4
    2120:	00000fb5 	.word	0x00000fb5
    2124:	00000fb6 	.word	0x00000fb6
    2128:	00000fb7 	.word	0x00000fb7
    212c:	00001e5d 	.word	0x00001e5d
    2130:	200003ec 	.word	0x200003ec
    2134:	0000090c 	.word	0x0000090c
    2138:	00001f45 	.word	0x00001f45
    213c:	20003994 	.word	0x20003994

00002140 <prvTraceError>:
    2140:	b510      	push	{r4, lr}
    2142:	0004      	movs	r4, r0
    2144:	4b0e      	ldr	r3, [pc, #56]	; (2180 <prvTraceError+0x40>)
    2146:	681b      	ldr	r3, [r3, #0]
    2148:	2b00      	cmp	r3, #0
    214a:	d001      	beq.n	2150 <prvTraceError+0x10>
    214c:	4b0d      	ldr	r3, [pc, #52]	; (2184 <prvTraceError+0x44>)
    214e:	4798      	blx	r3
    2150:	4b0d      	ldr	r3, [pc, #52]	; (2188 <prvTraceError+0x48>)
    2152:	681b      	ldr	r3, [r3, #0]
    2154:	2b00      	cmp	r3, #0
    2156:	d000      	beq.n	215a <prvTraceError+0x1a>
    2158:	bd10      	pop	{r4, pc}
    215a:	4b0b      	ldr	r3, [pc, #44]	; (2188 <prvTraceError+0x48>)
    215c:	601c      	str	r4, [r3, #0]
    215e:	4b08      	ldr	r3, [pc, #32]	; (2180 <prvTraceError+0x40>)
    2160:	6818      	ldr	r0, [r3, #0]
    2162:	2800      	cmp	r0, #0
    2164:	d0f8      	beq.n	2158 <prvTraceError+0x18>
    2166:	4b09      	ldr	r3, [pc, #36]	; (218c <prvTraceError+0x4c>)
    2168:	469c      	mov	ip, r3
    216a:	4460      	add	r0, ip
    216c:	2250      	movs	r2, #80	; 0x50
    216e:	0021      	movs	r1, r4
    2170:	4b07      	ldr	r3, [pc, #28]	; (2190 <prvTraceError+0x50>)
    2172:	4798      	blx	r3
    2174:	4b02      	ldr	r3, [pc, #8]	; (2180 <prvTraceError+0x40>)
    2176:	681a      	ldr	r2, [r3, #0]
    2178:	2101      	movs	r1, #1
    217a:	4b06      	ldr	r3, [pc, #24]	; (2194 <prvTraceError+0x54>)
    217c:	50d1      	str	r1, [r2, r3]
    217e:	e7eb      	b.n	2158 <prvTraceError+0x18>
    2180:	20000334 	.word	0x20000334
    2184:	00001f45 	.word	0x00001f45
    2188:	200003ec 	.word	0x200003ec
    218c:	00000914 	.word	0x00000914
    2190:	00001f21 	.word	0x00001f21
    2194:	0000090c 	.word	0x0000090c

00002198 <prvTraceNextFreeEventBufferSlot>:
    2198:	b510      	push	{r4, lr}
    219a:	4b0b      	ldr	r3, [pc, #44]	; (21c8 <prvTraceNextFreeEventBufferSlot+0x30>)
    219c:	6818      	ldr	r0, [r3, #0]
    219e:	6b03      	ldr	r3, [r0, #48]	; 0x30
    21a0:	2b00      	cmp	r3, #0
    21a2:	d00f      	beq.n	21c4 <prvTraceNextFreeEventBufferSlot+0x2c>
    21a4:	69c3      	ldr	r3, [r0, #28]
    21a6:	2290      	movs	r2, #144	; 0x90
    21a8:	32ff      	adds	r2, #255	; 0xff
    21aa:	4293      	cmp	r3, r2
    21ac:	d805      	bhi.n	21ba <prvTraceNextFreeEventBufferSlot+0x22>
    21ae:	009b      	lsls	r3, r3, #2
    21b0:	4a06      	ldr	r2, [pc, #24]	; (21cc <prvTraceNextFreeEventBufferSlot+0x34>)
    21b2:	4694      	mov	ip, r2
    21b4:	4463      	add	r3, ip
    21b6:	18c0      	adds	r0, r0, r3
    21b8:	bd10      	pop	{r4, pc}
    21ba:	4805      	ldr	r0, [pc, #20]	; (21d0 <prvTraceNextFreeEventBufferSlot+0x38>)
    21bc:	4b05      	ldr	r3, [pc, #20]	; (21d4 <prvTraceNextFreeEventBufferSlot+0x3c>)
    21be:	4798      	blx	r3
    21c0:	2000      	movs	r0, #0
    21c2:	e7f9      	b.n	21b8 <prvTraceNextFreeEventBufferSlot+0x20>
    21c4:	2000      	movs	r0, #0
    21c6:	e7f7      	b.n	21b8 <prvTraceNextFreeEventBufferSlot+0x20>
    21c8:	20000334 	.word	0x20000334
    21cc:	00000968 	.word	0x00000968
    21d0:	0000a0bc 	.word	0x0000a0bc
    21d4:	00002141 	.word	0x00002141

000021d8 <prvCheckDataToBeOverwrittenForMultiEntryEvents>:
    21d8:	b5f0      	push	{r4, r5, r6, r7, lr}
    21da:	46c6      	mov	lr, r8
    21dc:	b500      	push	{lr}
    21de:	2800      	cmp	r0, #0
    21e0:	d006      	beq.n	21f0 <prvCheckDataToBeOverwrittenForMultiEntryEvents+0x18>
    21e2:	0007      	movs	r7, r0
    21e4:	2500      	movs	r5, #0
    21e6:	2800      	cmp	r0, #0
    21e8:	d005      	beq.n	21f6 <prvCheckDataToBeOverwrittenForMultiEntryEvents+0x1e>
    21ea:	4b23      	ldr	r3, [pc, #140]	; (2278 <prvCheckDataToBeOverwrittenForMultiEntryEvents+0xa0>)
    21ec:	4698      	mov	r8, r3
    21ee:	e00a      	b.n	2206 <prvCheckDataToBeOverwrittenForMultiEntryEvents+0x2e>
    21f0:	4822      	ldr	r0, [pc, #136]	; (227c <prvCheckDataToBeOverwrittenForMultiEntryEvents+0xa4>)
    21f2:	4b23      	ldr	r3, [pc, #140]	; (2280 <prvCheckDataToBeOverwrittenForMultiEntryEvents+0xa8>)
    21f4:	4798      	blx	r3
    21f6:	bc04      	pop	{r2}
    21f8:	4690      	mov	r8, r2
    21fa:	bdf0      	pop	{r4, r5, r6, r7, pc}
    21fc:	2a01      	cmp	r2, #1
    21fe:	d020      	beq.n	2242 <prvCheckDataToBeOverwrittenForMultiEntryEvents+0x6a>
    2200:	3501      	adds	r5, #1
    2202:	42bd      	cmp	r5, r7
    2204:	d2f7      	bcs.n	21f6 <prvCheckDataToBeOverwrittenForMultiEntryEvents+0x1e>
    2206:	4643      	mov	r3, r8
    2208:	681c      	ldr	r4, [r3, #0]
    220a:	69e3      	ldr	r3, [r4, #28]
    220c:	18eb      	adds	r3, r5, r3
    220e:	009e      	lsls	r6, r3, #2
    2210:	19a2      	adds	r2, r4, r6
    2212:	491c      	ldr	r1, [pc, #112]	; (2284 <prvCheckDataToBeOverwrittenForMultiEntryEvents+0xac>)
    2214:	468c      	mov	ip, r1
    2216:	4462      	add	r2, ip
    2218:	7812      	ldrb	r2, [r2, #0]
    221a:	0011      	movs	r1, r2
    221c:	3167      	adds	r1, #103	; 0x67
    221e:	b2c9      	uxtb	r1, r1
    2220:	290e      	cmp	r1, #14
    2222:	d8eb      	bhi.n	21fc <prvCheckDataToBeOverwrittenForMultiEntryEvents+0x24>
    2224:	3268      	adds	r2, #104	; 0x68
    2226:	b2d2      	uxtb	r2, r2
    2228:	18d3      	adds	r3, r2, r3
    222a:	69a1      	ldr	r1, [r4, #24]
    222c:	428b      	cmp	r3, r1
    222e:	d2e7      	bcs.n	2200 <prvCheckDataToBeOverwrittenForMultiEntryEvents+0x28>
    2230:	3201      	adds	r2, #1
    2232:	0092      	lsls	r2, r2, #2
    2234:	4663      	mov	r3, ip
    2236:	18f0      	adds	r0, r6, r3
    2238:	1820      	adds	r0, r4, r0
    223a:	2100      	movs	r1, #0
    223c:	4b12      	ldr	r3, [pc, #72]	; (2288 <prvCheckDataToBeOverwrittenForMultiEntryEvents+0xb0>)
    223e:	4798      	blx	r3
    2240:	e7de      	b.n	2200 <prvCheckDataToBeOverwrittenForMultiEntryEvents+0x28>
    2242:	3301      	adds	r3, #1
    2244:	69a2      	ldr	r2, [r4, #24]
    2246:	4293      	cmp	r3, r2
    2248:	d207      	bcs.n	225a <prvCheckDataToBeOverwrittenForMultiEntryEvents+0x82>
    224a:	4b0e      	ldr	r3, [pc, #56]	; (2284 <prvCheckDataToBeOverwrittenForMultiEntryEvents+0xac>)
    224c:	18f0      	adds	r0, r6, r3
    224e:	1820      	adds	r0, r4, r0
    2250:	2208      	movs	r2, #8
    2252:	2100      	movs	r1, #0
    2254:	4b0c      	ldr	r3, [pc, #48]	; (2288 <prvCheckDataToBeOverwrittenForMultiEntryEvents+0xb0>)
    2256:	4798      	blx	r3
    2258:	e7d2      	b.n	2200 <prvCheckDataToBeOverwrittenForMultiEntryEvents+0x28>
    225a:	4b0a      	ldr	r3, [pc, #40]	; (2284 <prvCheckDataToBeOverwrittenForMultiEntryEvents+0xac>)
    225c:	18e0      	adds	r0, r4, r3
    225e:	2204      	movs	r2, #4
    2260:	2100      	movs	r1, #0
    2262:	4b09      	ldr	r3, [pc, #36]	; (2288 <prvCheckDataToBeOverwrittenForMultiEntryEvents+0xb0>)
    2264:	4798      	blx	r3
    2266:	4b07      	ldr	r3, [pc, #28]	; (2284 <prvCheckDataToBeOverwrittenForMultiEntryEvents+0xac>)
    2268:	18f0      	adds	r0, r6, r3
    226a:	1820      	adds	r0, r4, r0
    226c:	2204      	movs	r2, #4
    226e:	2100      	movs	r1, #0
    2270:	4b05      	ldr	r3, [pc, #20]	; (2288 <prvCheckDataToBeOverwrittenForMultiEntryEvents+0xb0>)
    2272:	4798      	blx	r3
    2274:	e7c4      	b.n	2200 <prvCheckDataToBeOverwrittenForMultiEntryEvents+0x28>
    2276:	46c0      	nop			; (mov r8, r8)
    2278:	20000334 	.word	0x20000334
    227c:	00009edc 	.word	0x00009edc
    2280:	00002141 	.word	0x00002141
    2284:	00000968 	.word	0x00000968
    2288:	00008d4f 	.word	0x00008d4f

0000228c <prvTraceUpdateCounters>:
    228c:	b510      	push	{r4, lr}
    228e:	4b0b      	ldr	r3, [pc, #44]	; (22bc <prvTraceUpdateCounters+0x30>)
    2290:	681b      	ldr	r3, [r3, #0]
    2292:	6b1a      	ldr	r2, [r3, #48]	; 0x30
    2294:	2a00      	cmp	r2, #0
    2296:	d010      	beq.n	22ba <prvTraceUpdateCounters+0x2e>
    2298:	695a      	ldr	r2, [r3, #20]
    229a:	3201      	adds	r2, #1
    229c:	615a      	str	r2, [r3, #20]
    229e:	69da      	ldr	r2, [r3, #28]
    22a0:	3201      	adds	r2, #1
    22a2:	61da      	str	r2, [r3, #28]
    22a4:	2190      	movs	r1, #144	; 0x90
    22a6:	31ff      	adds	r1, #255	; 0xff
    22a8:	428a      	cmp	r2, r1
    22aa:	d903      	bls.n	22b4 <prvTraceUpdateCounters+0x28>
    22ac:	2201      	movs	r2, #1
    22ae:	621a      	str	r2, [r3, #32]
    22b0:	2200      	movs	r2, #0
    22b2:	61da      	str	r2, [r3, #28]
    22b4:	2001      	movs	r0, #1
    22b6:	4b02      	ldr	r3, [pc, #8]	; (22c0 <prvTraceUpdateCounters+0x34>)
    22b8:	4798      	blx	r3
    22ba:	bd10      	pop	{r4, pc}
    22bc:	20000334 	.word	0x20000334
    22c0:	000021d9 	.word	0x000021d9

000022c4 <prvTraceGetParam>:
    22c4:	b570      	push	{r4, r5, r6, lr}
    22c6:	0004      	movs	r4, r0
    22c8:	000d      	movs	r5, r1
    22ca:	28ff      	cmp	r0, #255	; 0xff
    22cc:	d002      	beq.n	22d4 <prvTraceGetParam+0x10>
    22ce:	4b0d      	ldr	r3, [pc, #52]	; (2304 <prvTraceGetParam+0x40>)
    22d0:	4298      	cmp	r0, r3
    22d2:	d103      	bne.n	22dc <prvTraceGetParam+0x18>
    22d4:	42ac      	cmp	r4, r5
    22d6:	d305      	bcc.n	22e4 <prvTraceGetParam+0x20>
    22d8:	0028      	movs	r0, r5
    22da:	bd70      	pop	{r4, r5, r6, pc}
    22dc:	480a      	ldr	r0, [pc, #40]	; (2308 <prvTraceGetParam+0x44>)
    22de:	4b0b      	ldr	r3, [pc, #44]	; (230c <prvTraceGetParam+0x48>)
    22e0:	4798      	blx	r3
    22e2:	e7f9      	b.n	22d8 <prvTraceGetParam+0x14>
    22e4:	4b0a      	ldr	r3, [pc, #40]	; (2310 <prvTraceGetParam+0x4c>)
    22e6:	4798      	blx	r3
    22e8:	2800      	cmp	r0, #0
    22ea:	d009      	beq.n	2300 <prvTraceGetParam+0x3c>
    22ec:	2301      	movs	r3, #1
    22ee:	7003      	strb	r3, [r0, #0]
    22f0:	002b      	movs	r3, r5
    22f2:	43a3      	bics	r3, r4
    22f4:	0a1a      	lsrs	r2, r3, #8
    22f6:	7042      	strb	r2, [r0, #1]
    22f8:	0c1b      	lsrs	r3, r3, #16
    22fa:	8043      	strh	r3, [r0, #2]
    22fc:	4b05      	ldr	r3, [pc, #20]	; (2314 <prvTraceGetParam+0x50>)
    22fe:	4798      	blx	r3
    2300:	4025      	ands	r5, r4
    2302:	e7e9      	b.n	22d8 <prvTraceGetParam+0x14>
    2304:	0000ffff 	.word	0x0000ffff
    2308:	00009fe0 	.word	0x00009fe0
    230c:	00002141 	.word	0x00002141
    2310:	00002199 	.word	0x00002199
    2314:	0000228d 	.word	0x0000228d

00002318 <uiIndexOfObject>:
    2318:	b510      	push	{r4, lr}
    231a:	2908      	cmp	r1, #8
    231c:	d814      	bhi.n	2348 <uiIndexOfObject+0x30>
    231e:	2800      	cmp	r0, #0
    2320:	d017      	beq.n	2352 <uiIndexOfObject+0x3a>
    2322:	4b0e      	ldr	r3, [pc, #56]	; (235c <uiIndexOfObject+0x44>)
    2324:	681a      	ldr	r2, [r3, #0]
    2326:	1853      	adds	r3, r2, r1
    2328:	3364      	adds	r3, #100	; 0x64
    232a:	781b      	ldrb	r3, [r3, #0]
    232c:	4283      	cmp	r3, r0
    232e:	d310      	bcc.n	2352 <uiIndexOfObject+0x3a>
    2330:	1853      	adds	r3, r2, r1
    2332:	337c      	adds	r3, #124	; 0x7c
    2334:	781b      	ldrb	r3, [r3, #0]
    2336:	3801      	subs	r0, #1
    2338:	4358      	muls	r0, r3
    233a:	3140      	adds	r1, #64	; 0x40
    233c:	0049      	lsls	r1, r1, #1
    233e:	1851      	adds	r1, r2, r1
    2340:	890b      	ldrh	r3, [r1, #8]
    2342:	18c0      	adds	r0, r0, r3
    2344:	b280      	uxth	r0, r0
    2346:	e008      	b.n	235a <uiIndexOfObject+0x42>
    2348:	4805      	ldr	r0, [pc, #20]	; (2360 <uiIndexOfObject+0x48>)
    234a:	4b06      	ldr	r3, [pc, #24]	; (2364 <uiIndexOfObject+0x4c>)
    234c:	4798      	blx	r3
    234e:	2000      	movs	r0, #0
    2350:	e003      	b.n	235a <uiIndexOfObject+0x42>
    2352:	4805      	ldr	r0, [pc, #20]	; (2368 <uiIndexOfObject+0x50>)
    2354:	4b03      	ldr	r3, [pc, #12]	; (2364 <uiIndexOfObject+0x4c>)
    2356:	4798      	blx	r3
    2358:	2000      	movs	r0, #0
    235a:	bd10      	pop	{r4, pc}
    235c:	20000334 	.word	0x20000334
    2360:	0000a670 	.word	0x0000a670
    2364:	00002141 	.word	0x00002141
    2368:	0000a6b0 	.word	0x0000a6b0

0000236c <prvMarkObjectAsUsed>:
    236c:	b510      	push	{r4, lr}
    236e:	000b      	movs	r3, r1
    2370:	0001      	movs	r1, r0
    2372:	0018      	movs	r0, r3
    2374:	4b04      	ldr	r3, [pc, #16]	; (2388 <prvMarkObjectAsUsed+0x1c>)
    2376:	4798      	blx	r3
    2378:	4b04      	ldr	r3, [pc, #16]	; (238c <prvMarkObjectAsUsed+0x20>)
    237a:	681b      	ldr	r3, [r3, #0]
    237c:	1818      	adds	r0, r3, r0
    237e:	309c      	adds	r0, #156	; 0x9c
    2380:	2301      	movs	r3, #1
    2382:	7003      	strb	r3, [r0, #0]
    2384:	bd10      	pop	{r4, pc}
    2386:	46c0      	nop			; (mov r8, r8)
    2388:	00002319 	.word	0x00002319
    238c:	20000334 	.word	0x20000334

00002390 <prvTraceSetPriorityProperty>:
    2390:	b570      	push	{r4, r5, r6, lr}
    2392:	0004      	movs	r4, r0
    2394:	0008      	movs	r0, r1
    2396:	0015      	movs	r5, r2
    2398:	2c08      	cmp	r4, #8
    239a:	d813      	bhi.n	23c4 <prvTraceSetPriorityProperty+0x34>
    239c:	4b0d      	ldr	r3, [pc, #52]	; (23d4 <prvTraceSetPriorityProperty+0x44>)
    239e:	681b      	ldr	r3, [r3, #0]
    23a0:	191b      	adds	r3, r3, r4
    23a2:	3364      	adds	r3, #100	; 0x64
    23a4:	781b      	ldrb	r3, [r3, #0]
    23a6:	428b      	cmp	r3, r1
    23a8:	d310      	bcc.n	23cc <prvTraceSetPriorityProperty+0x3c>
    23aa:	0021      	movs	r1, r4
    23ac:	4b0a      	ldr	r3, [pc, #40]	; (23d8 <prvTraceSetPriorityProperty+0x48>)
    23ae:	4798      	blx	r3
    23b0:	4b08      	ldr	r3, [pc, #32]	; (23d4 <prvTraceSetPriorityProperty+0x44>)
    23b2:	681b      	ldr	r3, [r3, #0]
    23b4:	191c      	adds	r4, r3, r4
    23b6:	3470      	adds	r4, #112	; 0x70
    23b8:	7822      	ldrb	r2, [r4, #0]
    23ba:	181b      	adds	r3, r3, r0
    23bc:	189b      	adds	r3, r3, r2
    23be:	339d      	adds	r3, #157	; 0x9d
    23c0:	701d      	strb	r5, [r3, #0]
    23c2:	bd70      	pop	{r4, r5, r6, pc}
    23c4:	4805      	ldr	r0, [pc, #20]	; (23dc <prvTraceSetPriorityProperty+0x4c>)
    23c6:	4b06      	ldr	r3, [pc, #24]	; (23e0 <prvTraceSetPriorityProperty+0x50>)
    23c8:	4798      	blx	r3
    23ca:	e7fa      	b.n	23c2 <prvTraceSetPriorityProperty+0x32>
    23cc:	4805      	ldr	r0, [pc, #20]	; (23e4 <prvTraceSetPriorityProperty+0x54>)
    23ce:	4b04      	ldr	r3, [pc, #16]	; (23e0 <prvTraceSetPriorityProperty+0x50>)
    23d0:	4798      	blx	r3
    23d2:	e7f6      	b.n	23c2 <prvTraceSetPriorityProperty+0x32>
    23d4:	20000334 	.word	0x20000334
    23d8:	00002319 	.word	0x00002319
    23dc:	0000a1f8 	.word	0x0000a1f8
    23e0:	00002141 	.word	0x00002141
    23e4:	0000a244 	.word	0x0000a244

000023e8 <prvTraceGetPriorityProperty>:
    23e8:	b510      	push	{r4, lr}
    23ea:	0004      	movs	r4, r0
    23ec:	0008      	movs	r0, r1
    23ee:	2c08      	cmp	r4, #8
    23f0:	d813      	bhi.n	241a <prvTraceGetPriorityProperty+0x32>
    23f2:	4b0f      	ldr	r3, [pc, #60]	; (2430 <prvTraceGetPriorityProperty+0x48>)
    23f4:	681b      	ldr	r3, [r3, #0]
    23f6:	191b      	adds	r3, r3, r4
    23f8:	3364      	adds	r3, #100	; 0x64
    23fa:	781b      	ldrb	r3, [r3, #0]
    23fc:	428b      	cmp	r3, r1
    23fe:	d311      	bcc.n	2424 <prvTraceGetPriorityProperty+0x3c>
    2400:	0021      	movs	r1, r4
    2402:	4b0c      	ldr	r3, [pc, #48]	; (2434 <prvTraceGetPriorityProperty+0x4c>)
    2404:	4798      	blx	r3
    2406:	4b0a      	ldr	r3, [pc, #40]	; (2430 <prvTraceGetPriorityProperty+0x48>)
    2408:	681b      	ldr	r3, [r3, #0]
    240a:	191c      	adds	r4, r3, r4
    240c:	3470      	adds	r4, #112	; 0x70
    240e:	7822      	ldrb	r2, [r4, #0]
    2410:	181b      	adds	r3, r3, r0
    2412:	189b      	adds	r3, r3, r2
    2414:	339d      	adds	r3, #157	; 0x9d
    2416:	7818      	ldrb	r0, [r3, #0]
    2418:	bd10      	pop	{r4, pc}
    241a:	4807      	ldr	r0, [pc, #28]	; (2438 <prvTraceGetPriorityProperty+0x50>)
    241c:	4b07      	ldr	r3, [pc, #28]	; (243c <prvTraceGetPriorityProperty+0x54>)
    241e:	4798      	blx	r3
    2420:	2000      	movs	r0, #0
    2422:	e7f9      	b.n	2418 <prvTraceGetPriorityProperty+0x30>
    2424:	4806      	ldr	r0, [pc, #24]	; (2440 <prvTraceGetPriorityProperty+0x58>)
    2426:	4b05      	ldr	r3, [pc, #20]	; (243c <prvTraceGetPriorityProperty+0x54>)
    2428:	4798      	blx	r3
    242a:	2000      	movs	r0, #0
    242c:	e7f4      	b.n	2418 <prvTraceGetPriorityProperty+0x30>
    242e:	46c0      	nop			; (mov r8, r8)
    2430:	20000334 	.word	0x20000334
    2434:	00002319 	.word	0x00002319
    2438:	0000a01c 	.word	0x0000a01c
    243c:	00002141 	.word	0x00002141
    2440:	0000a068 	.word	0x0000a068

00002444 <prvTraceSetObjectState>:
    2444:	b570      	push	{r4, r5, r6, lr}
    2446:	0004      	movs	r4, r0
    2448:	0008      	movs	r0, r1
    244a:	0015      	movs	r5, r2
    244c:	2c08      	cmp	r4, #8
    244e:	d813      	bhi.n	2478 <prvTraceSetObjectState+0x34>
    2450:	4b0d      	ldr	r3, [pc, #52]	; (2488 <prvTraceSetObjectState+0x44>)
    2452:	681b      	ldr	r3, [r3, #0]
    2454:	191b      	adds	r3, r3, r4
    2456:	3364      	adds	r3, #100	; 0x64
    2458:	781b      	ldrb	r3, [r3, #0]
    245a:	428b      	cmp	r3, r1
    245c:	d310      	bcc.n	2480 <prvTraceSetObjectState+0x3c>
    245e:	0021      	movs	r1, r4
    2460:	4b0a      	ldr	r3, [pc, #40]	; (248c <prvTraceSetObjectState+0x48>)
    2462:	4798      	blx	r3
    2464:	4b08      	ldr	r3, [pc, #32]	; (2488 <prvTraceSetObjectState+0x44>)
    2466:	681b      	ldr	r3, [r3, #0]
    2468:	191c      	adds	r4, r3, r4
    246a:	3470      	adds	r4, #112	; 0x70
    246c:	7822      	ldrb	r2, [r4, #0]
    246e:	181b      	adds	r3, r3, r0
    2470:	189b      	adds	r3, r3, r2
    2472:	339c      	adds	r3, #156	; 0x9c
    2474:	701d      	strb	r5, [r3, #0]
    2476:	bd70      	pop	{r4, r5, r6, pc}
    2478:	4805      	ldr	r0, [pc, #20]	; (2490 <prvTraceSetObjectState+0x4c>)
    247a:	4b06      	ldr	r3, [pc, #24]	; (2494 <prvTraceSetObjectState+0x50>)
    247c:	4798      	blx	r3
    247e:	e7fa      	b.n	2476 <prvTraceSetObjectState+0x32>
    2480:	4805      	ldr	r0, [pc, #20]	; (2498 <prvTraceSetObjectState+0x54>)
    2482:	4b04      	ldr	r3, [pc, #16]	; (2494 <prvTraceSetObjectState+0x50>)
    2484:	4798      	blx	r3
    2486:	e7f6      	b.n	2476 <prvTraceSetObjectState+0x32>
    2488:	20000334 	.word	0x20000334
    248c:	00002319 	.word	0x00002319
    2490:	0000a178 	.word	0x0000a178
    2494:	00002141 	.word	0x00002141
    2498:	0000a1bc 	.word	0x0000a1bc

0000249c <prvTraceSetTaskInstanceFinished>:
    249c:	b510      	push	{r4, lr}
    249e:	4b0b      	ldr	r3, [pc, #44]	; (24cc <prvTraceSetTaskInstanceFinished+0x30>)
    24a0:	681a      	ldr	r2, [r3, #0]
    24a2:	2367      	movs	r3, #103	; 0x67
    24a4:	5cd3      	ldrb	r3, [r2, r3]
    24a6:	4283      	cmp	r3, r0
    24a8:	d30c      	bcc.n	24c4 <prvTraceSetTaskInstanceFinished+0x28>
    24aa:	2103      	movs	r1, #3
    24ac:	4b08      	ldr	r3, [pc, #32]	; (24d0 <prvTraceSetTaskInstanceFinished+0x34>)
    24ae:	4798      	blx	r3
    24b0:	4b06      	ldr	r3, [pc, #24]	; (24cc <prvTraceSetTaskInstanceFinished+0x30>)
    24b2:	681b      	ldr	r3, [r3, #0]
    24b4:	2273      	movs	r2, #115	; 0x73
    24b6:	5c9a      	ldrb	r2, [r3, r2]
    24b8:	181b      	adds	r3, r3, r0
    24ba:	189b      	adds	r3, r3, r2
    24bc:	339c      	adds	r3, #156	; 0x9c
    24be:	2200      	movs	r2, #0
    24c0:	701a      	strb	r2, [r3, #0]
    24c2:	bd10      	pop	{r4, pc}
    24c4:	4803      	ldr	r0, [pc, #12]	; (24d4 <prvTraceSetTaskInstanceFinished+0x38>)
    24c6:	4b04      	ldr	r3, [pc, #16]	; (24d8 <prvTraceSetTaskInstanceFinished+0x3c>)
    24c8:	4798      	blx	r3
    24ca:	e7fa      	b.n	24c2 <prvTraceSetTaskInstanceFinished+0x26>
    24cc:	20000334 	.word	0x20000334
    24d0:	00002319 	.word	0x00002319
    24d4:	0000a284 	.word	0x0000a284
    24d8:	00002141 	.word	0x00002141

000024dc <prvTraceGetObjectHandle>:
    24dc:	b570      	push	{r4, r5, r6, lr}
    24de:	4b2d      	ldr	r3, [pc, #180]	; (2594 <prvTraceGetObjectHandle+0xb8>)
    24e0:	681b      	ldr	r3, [r3, #0]
    24e2:	2b00      	cmp	r3, #0
    24e4:	d046      	beq.n	2574 <prvTraceGetObjectHandle+0x98>
    24e6:	2808      	cmp	r0, #8
    24e8:	d849      	bhi.n	257e <prvTraceGetObjectHandle+0xa2>
    24ea:	f3ef 8410 	mrs	r4, PRIMASK
    24ee:	2301      	movs	r3, #1
    24f0:	f383 8810 	msr	PRIMASK, r3
    24f4:	4a28      	ldr	r2, [pc, #160]	; (2598 <prvTraceGetObjectHandle+0xbc>)
    24f6:	6813      	ldr	r3, [r2, #0]
    24f8:	3301      	adds	r3, #1
    24fa:	6013      	str	r3, [r2, #0]
    24fc:	4a27      	ldr	r2, [pc, #156]	; (259c <prvTraceGetObjectHandle+0xc0>)
    24fe:	0043      	lsls	r3, r0, #1
    2500:	5a9b      	ldrh	r3, [r3, r2]
    2502:	18d2      	adds	r2, r2, r3
    2504:	3248      	adds	r2, #72	; 0x48
    2506:	7812      	ldrb	r2, [r2, #0]
    2508:	2a00      	cmp	r2, #0
    250a:	d10a      	bne.n	2522 <prvTraceGetObjectHandle+0x46>
    250c:	4923      	ldr	r1, [pc, #140]	; (259c <prvTraceGetObjectHandle+0xc0>)
    250e:	18cd      	adds	r5, r1, r3
    2510:	3548      	adds	r5, #72	; 0x48
    2512:	1c5a      	adds	r2, r3, #1
    2514:	0006      	movs	r6, r0
    2516:	3608      	adds	r6, #8
    2518:	0076      	lsls	r6, r6, #1
    251a:	1989      	adds	r1, r1, r6
    251c:	8849      	ldrh	r1, [r1, #2]
    251e:	1a52      	subs	r2, r2, r1
    2520:	702a      	strb	r2, [r5, #0]
    2522:	0001      	movs	r1, r0
    2524:	3110      	adds	r1, #16
    2526:	0049      	lsls	r1, r1, #1
    2528:	4a1c      	ldr	r2, [pc, #112]	; (259c <prvTraceGetObjectHandle+0xc0>)
    252a:	1852      	adds	r2, r2, r1
    252c:	8892      	ldrh	r2, [r2, #4]
    252e:	429a      	cmp	r2, r3
    2530:	d32a      	bcc.n	2588 <prvTraceGetObjectHandle+0xac>
    2532:	491a      	ldr	r1, [pc, #104]	; (259c <prvTraceGetObjectHandle+0xc0>)
    2534:	18ca      	adds	r2, r1, r3
    2536:	3248      	adds	r2, #72	; 0x48
    2538:	7812      	ldrb	r2, [r2, #0]
    253a:	3301      	adds	r3, #1
    253c:	b29b      	uxth	r3, r3
    253e:	0045      	lsls	r5, r0, #1
    2540:	526b      	strh	r3, [r5, r1]
    2542:	0005      	movs	r5, r0
    2544:	3508      	adds	r5, #8
    2546:	006d      	lsls	r5, r5, #1
    2548:	194d      	adds	r5, r1, r5
    254a:	886d      	ldrh	r5, [r5, #2]
    254c:	1b5b      	subs	r3, r3, r5
    254e:	0005      	movs	r5, r0
    2550:	3518      	adds	r5, #24
    2552:	006d      	lsls	r5, r5, #1
    2554:	1949      	adds	r1, r1, r5
    2556:	88c9      	ldrh	r1, [r1, #6]
    2558:	428b      	cmp	r3, r1
    255a:	dd03      	ble.n	2564 <prvTraceGetObjectHandle+0x88>
    255c:	490f      	ldr	r1, [pc, #60]	; (259c <prvTraceGetObjectHandle+0xc0>)
    255e:	1948      	adds	r0, r1, r5
    2560:	b2db      	uxtb	r3, r3
    2562:	80c3      	strh	r3, [r0, #6]
    2564:	490c      	ldr	r1, [pc, #48]	; (2598 <prvTraceGetObjectHandle+0xbc>)
    2566:	680b      	ldr	r3, [r1, #0]
    2568:	3b01      	subs	r3, #1
    256a:	600b      	str	r3, [r1, #0]
    256c:	f384 8810 	msr	PRIMASK, r4
    2570:	0010      	movs	r0, r2
    2572:	bd70      	pop	{r4, r5, r6, pc}
    2574:	480a      	ldr	r0, [pc, #40]	; (25a0 <prvTraceGetObjectHandle+0xc4>)
    2576:	4b0b      	ldr	r3, [pc, #44]	; (25a4 <prvTraceGetObjectHandle+0xc8>)
    2578:	4798      	blx	r3
    257a:	2200      	movs	r2, #0
    257c:	e7f8      	b.n	2570 <prvTraceGetObjectHandle+0x94>
    257e:	480a      	ldr	r0, [pc, #40]	; (25a8 <prvTraceGetObjectHandle+0xcc>)
    2580:	4b08      	ldr	r3, [pc, #32]	; (25a4 <prvTraceGetObjectHandle+0xc8>)
    2582:	4798      	blx	r3
    2584:	2200      	movs	r2, #0
    2586:	e7f3      	b.n	2570 <prvTraceGetObjectHandle+0x94>
    2588:	4b08      	ldr	r3, [pc, #32]	; (25ac <prvTraceGetObjectHandle+0xd0>)
    258a:	4798      	blx	r3
    258c:	4b05      	ldr	r3, [pc, #20]	; (25a4 <prvTraceGetObjectHandle+0xc8>)
    258e:	4798      	blx	r3
    2590:	2200      	movs	r2, #0
    2592:	e7e7      	b.n	2564 <prvTraceGetObjectHandle+0x88>
    2594:	20000334 	.word	0x20000334
    2598:	200003e4 	.word	0x200003e4
    259c:	20000350 	.word	0x20000350
    25a0:	0000a774 	.word	0x0000a774
    25a4:	00002141 	.word	0x00002141
    25a8:	00009f98 	.word	0x00009f98
    25ac:	00001ec1 	.word	0x00001ec1

000025b0 <prvTraceSetObjectName>:
    25b0:	b570      	push	{r4, r5, r6, lr}
    25b2:	0004      	movs	r4, r0
    25b4:	0008      	movs	r0, r1
    25b6:	1e15      	subs	r5, r2, #0
    25b8:	d012      	beq.n	25e0 <prvTraceSetObjectName+0x30>
    25ba:	2c08      	cmp	r4, #8
    25bc:	d814      	bhi.n	25e8 <prvTraceSetObjectName+0x38>
    25be:	2900      	cmp	r1, #0
    25c0:	d016      	beq.n	25f0 <prvTraceSetObjectName+0x40>
    25c2:	4b16      	ldr	r3, [pc, #88]	; (261c <prvTraceSetObjectName+0x6c>)
    25c4:	681b      	ldr	r3, [r3, #0]
    25c6:	191b      	adds	r3, r3, r4
    25c8:	3364      	adds	r3, #100	; 0x64
    25ca:	781b      	ldrb	r3, [r3, #0]
    25cc:	428b      	cmp	r3, r1
    25ce:	d313      	bcc.n	25f8 <prvTraceSetObjectName+0x48>
    25d0:	0021      	movs	r1, r4
    25d2:	4b13      	ldr	r3, [pc, #76]	; (2620 <prvTraceSetObjectName+0x70>)
    25d4:	4798      	blx	r3
    25d6:	4b13      	ldr	r3, [pc, #76]	; (2624 <prvTraceSetObjectName+0x74>)
    25d8:	681b      	ldr	r3, [r3, #0]
    25da:	2b00      	cmp	r3, #0
    25dc:	d012      	beq.n	2604 <prvTraceSetObjectName+0x54>
    25de:	bd70      	pop	{r4, r5, r6, pc}
    25e0:	4811      	ldr	r0, [pc, #68]	; (2628 <prvTraceSetObjectName+0x78>)
    25e2:	4b12      	ldr	r3, [pc, #72]	; (262c <prvTraceSetObjectName+0x7c>)
    25e4:	4798      	blx	r3
    25e6:	e7fa      	b.n	25de <prvTraceSetObjectName+0x2e>
    25e8:	4811      	ldr	r0, [pc, #68]	; (2630 <prvTraceSetObjectName+0x80>)
    25ea:	4b10      	ldr	r3, [pc, #64]	; (262c <prvTraceSetObjectName+0x7c>)
    25ec:	4798      	blx	r3
    25ee:	e7f6      	b.n	25de <prvTraceSetObjectName+0x2e>
    25f0:	4810      	ldr	r0, [pc, #64]	; (2634 <prvTraceSetObjectName+0x84>)
    25f2:	4b0e      	ldr	r3, [pc, #56]	; (262c <prvTraceSetObjectName+0x7c>)
    25f4:	4798      	blx	r3
    25f6:	e7f2      	b.n	25de <prvTraceSetObjectName+0x2e>
    25f8:	0020      	movs	r0, r4
    25fa:	4b0f      	ldr	r3, [pc, #60]	; (2638 <prvTraceSetObjectName+0x88>)
    25fc:	4798      	blx	r3
    25fe:	4b0b      	ldr	r3, [pc, #44]	; (262c <prvTraceSetObjectName+0x7c>)
    2600:	4798      	blx	r3
    2602:	e7ec      	b.n	25de <prvTraceSetObjectName+0x2e>
    2604:	4b05      	ldr	r3, [pc, #20]	; (261c <prvTraceSetObjectName+0x6c>)
    2606:	681b      	ldr	r3, [r3, #0]
    2608:	191c      	adds	r4, r3, r4
    260a:	3470      	adds	r4, #112	; 0x70
    260c:	7822      	ldrb	r2, [r4, #0]
    260e:	309c      	adds	r0, #156	; 0x9c
    2610:	1818      	adds	r0, r3, r0
    2612:	0029      	movs	r1, r5
    2614:	4b09      	ldr	r3, [pc, #36]	; (263c <prvTraceSetObjectName+0x8c>)
    2616:	4798      	blx	r3
    2618:	e7e1      	b.n	25de <prvTraceSetObjectName+0x2e>
    261a:	46c0      	nop			; (mov r8, r8)
    261c:	20000334 	.word	0x20000334
    2620:	00002319 	.word	0x00002319
    2624:	200003ec 	.word	0x200003ec
    2628:	0000a0e4 	.word	0x0000a0e4
    262c:	00002141 	.word	0x00002141
    2630:	0000a118 	.word	0x0000a118
    2634:	0000a148 	.word	0x0000a148
    2638:	00001ec1 	.word	0x00001ec1
    263c:	00001f21 	.word	0x00001f21

00002640 <prvTracePortGetTimeStamp>:
    2640:	b570      	push	{r4, r5, r6, lr}
    2642:	4b1e      	ldr	r3, [pc, #120]	; (26bc <prvTracePortGetTimeStamp+0x7c>)
    2644:	681b      	ldr	r3, [r3, #0]
    2646:	2b01      	cmp	r3, #1
    2648:	d02b      	beq.n	26a2 <prvTracePortGetTimeStamp+0x62>
    264a:	4b1d      	ldr	r3, [pc, #116]	; (26c0 <prvTracePortGetTimeStamp+0x80>)
    264c:	6819      	ldr	r1, [r3, #0]
    264e:	4b1d      	ldr	r3, [pc, #116]	; (26c4 <prvTracePortGetTimeStamp+0x84>)
    2650:	681b      	ldr	r3, [r3, #0]
    2652:	3101      	adds	r1, #1
    2654:	1ac9      	subs	r1, r1, r3
    2656:	4b1c      	ldr	r3, [pc, #112]	; (26c8 <prvTracePortGetTimeStamp+0x88>)
    2658:	681b      	ldr	r3, [r3, #0]
    265a:	4a1c      	ldr	r2, [pc, #112]	; (26cc <prvTracePortGetTimeStamp+0x8c>)
    265c:	6814      	ldr	r4, [r2, #0]
    265e:	43e2      	mvns	r2, r4
    2660:	42da      	cmn	r2, r3
    2662:	d424      	bmi.n	26ae <prvTracePortGetTimeStamp+0x6e>
    2664:	4a1a      	ldr	r2, [pc, #104]	; (26d0 <prvTracePortGetTimeStamp+0x90>)
    2666:	6814      	ldr	r4, [r2, #0]
    2668:	42a1      	cmp	r1, r4
    266a:	41a4      	sbcs	r4, r4
    266c:	4264      	negs	r4, r4
    266e:	191c      	adds	r4, r3, r4
    2670:	2800      	cmp	r0, #0
    2672:	d01f      	beq.n	26b4 <prvTracePortGetTimeStamp+0x74>
    2674:	4d12      	ldr	r5, [pc, #72]	; (26c0 <prvTracePortGetTimeStamp+0x80>)
    2676:	682b      	ldr	r3, [r5, #0]
    2678:	3301      	adds	r3, #1
    267a:	089b      	lsrs	r3, r3, #2
    267c:	4363      	muls	r3, r4
    267e:	001a      	movs	r2, r3
    2680:	4e14      	ldr	r6, [pc, #80]	; (26d4 <prvTracePortGetTimeStamp+0x94>)
    2682:	6033      	str	r3, [r6, #0]
    2684:	682d      	ldr	r5, [r5, #0]
    2686:	3501      	adds	r5, #1
    2688:	2303      	movs	r3, #3
    268a:	402b      	ands	r3, r5
    268c:	4363      	muls	r3, r4
    268e:	185b      	adds	r3, r3, r1
    2690:	089b      	lsrs	r3, r3, #2
    2692:	189b      	adds	r3, r3, r2
    2694:	6033      	str	r3, [r6, #0]
    2696:	4a0c      	ldr	r2, [pc, #48]	; (26c8 <prvTracePortGetTimeStamp+0x88>)
    2698:	6014      	str	r4, [r2, #0]
    269a:	6003      	str	r3, [r0, #0]
    269c:	4b0c      	ldr	r3, [pc, #48]	; (26d0 <prvTracePortGetTimeStamp+0x90>)
    269e:	6019      	str	r1, [r3, #0]
    26a0:	bd70      	pop	{r4, r5, r6, pc}
    26a2:	2800      	cmp	r0, #0
    26a4:	d0fc      	beq.n	26a0 <prvTracePortGetTimeStamp+0x60>
    26a6:	4b0b      	ldr	r3, [pc, #44]	; (26d4 <prvTracePortGetTimeStamp+0x94>)
    26a8:	681b      	ldr	r3, [r3, #0]
    26aa:	6003      	str	r3, [r0, #0]
    26ac:	e7f8      	b.n	26a0 <prvTracePortGetTimeStamp+0x60>
    26ae:	42a3      	cmp	r3, r4
    26b0:	d1de      	bne.n	2670 <prvTracePortGetTimeStamp+0x30>
    26b2:	e7d7      	b.n	2664 <prvTracePortGetTimeStamp+0x24>
    26b4:	4b04      	ldr	r3, [pc, #16]	; (26c8 <prvTracePortGetTimeStamp+0x88>)
    26b6:	601c      	str	r4, [r3, #0]
    26b8:	e7f0      	b.n	269c <prvTracePortGetTimeStamp+0x5c>
    26ba:	46c0      	nop			; (mov r8, r8)
    26bc:	200003f0 	.word	0x200003f0
    26c0:	e000e014 	.word	0xe000e014
    26c4:	e000e018 	.word	0xe000e018
    26c8:	2000034c 	.word	0x2000034c
    26cc:	200003f8 	.word	0x200003f8
    26d0:	20000344 	.word	0x20000344
    26d4:	20000348 	.word	0x20000348

000026d8 <prvTraceGetDTS>:
    26d8:	b5f0      	push	{r4, r5, r6, r7, lr}
    26da:	b083      	sub	sp, #12
    26dc:	0005      	movs	r5, r0
    26de:	2300      	movs	r3, #0
    26e0:	9301      	str	r3, [sp, #4]
    26e2:	28ff      	cmp	r0, #255	; 0xff
    26e4:	d002      	beq.n	26ec <prvTraceGetDTS+0x14>
    26e6:	4b39      	ldr	r3, [pc, #228]	; (27cc <prvTraceGetDTS+0xf4>)
    26e8:	4298      	cmp	r0, r3
    26ea:	d135      	bne.n	2758 <prvTraceGetDTS+0x80>
    26ec:	4b38      	ldr	r3, [pc, #224]	; (27d0 <prvTraceGetDTS+0xf8>)
    26ee:	681c      	ldr	r4, [r3, #0]
    26f0:	6a63      	ldr	r3, [r4, #36]	; 0x24
    26f2:	2b00      	cmp	r3, #0
    26f4:	d105      	bne.n	2702 <prvTraceGetDTS+0x2a>
    26f6:	4b37      	ldr	r3, [pc, #220]	; (27d4 <prvTraceGetDTS+0xfc>)
    26f8:	681b      	ldr	r3, [r3, #0]
    26fa:	2b00      	cmp	r3, #0
    26fc:	d031      	beq.n	2762 <prvTraceGetDTS+0x8a>
    26fe:	089b      	lsrs	r3, r3, #2
    2700:	6263      	str	r3, [r4, #36]	; 0x24
    2702:	a801      	add	r0, sp, #4
    2704:	4b34      	ldr	r3, [pc, #208]	; (27d8 <prvTraceGetDTS+0x100>)
    2706:	4798      	blx	r3
    2708:	9b01      	ldr	r3, [sp, #4]
    270a:	4a34      	ldr	r2, [pc, #208]	; (27dc <prvTraceGetDTS+0x104>)
    270c:	6811      	ldr	r1, [r2, #0]
    270e:	1a5c      	subs	r4, r3, r1
    2710:	6013      	str	r3, [r2, #0]
    2712:	4a2f      	ldr	r2, [pc, #188]	; (27d0 <prvTraceGetDTS+0xf8>)
    2714:	6816      	ldr	r6, [r2, #0]
    2716:	6a77      	ldr	r7, [r6, #36]	; 0x24
    2718:	2f00      	cmp	r7, #0
    271a:	d032      	beq.n	2782 <prvTraceGetDTS+0xaa>
    271c:	42bc      	cmp	r4, r7
    271e:	d92c      	bls.n	277a <prvTraceGetDTS+0xa2>
    2720:	0039      	movs	r1, r7
    2722:	0020      	movs	r0, r4
    2724:	4b2e      	ldr	r3, [pc, #184]	; (27e0 <prvTraceGetDTS+0x108>)
    2726:	4798      	blx	r3
    2728:	6af3      	ldr	r3, [r6, #44]	; 0x2c
    272a:	469c      	mov	ip, r3
    272c:	4460      	add	r0, ip
    272e:	62f0      	str	r0, [r6, #44]	; 0x2c
    2730:	0039      	movs	r1, r7
    2732:	0020      	movs	r0, r4
    2734:	4b2b      	ldr	r3, [pc, #172]	; (27e4 <prvTraceGetDTS+0x10c>)
    2736:	4798      	blx	r3
    2738:	6ab3      	ldr	r3, [r6, #40]	; 0x28
    273a:	469c      	mov	ip, r3
    273c:	4461      	add	r1, ip
    273e:	62b1      	str	r1, [r6, #40]	; 0x28
    2740:	4b23      	ldr	r3, [pc, #140]	; (27d0 <prvTraceGetDTS+0xf8>)
    2742:	681b      	ldr	r3, [r3, #0]
    2744:	6a9a      	ldr	r2, [r3, #40]	; 0x28
    2746:	6a59      	ldr	r1, [r3, #36]	; 0x24
    2748:	428a      	cmp	r2, r1
    274a:	d31b      	bcc.n	2784 <prvTraceGetDTS+0xac>
    274c:	6ad8      	ldr	r0, [r3, #44]	; 0x2c
    274e:	3001      	adds	r0, #1
    2750:	62d8      	str	r0, [r3, #44]	; 0x2c
    2752:	1a52      	subs	r2, r2, r1
    2754:	629a      	str	r2, [r3, #40]	; 0x28
    2756:	e015      	b.n	2784 <prvTraceGetDTS+0xac>
    2758:	4823      	ldr	r0, [pc, #140]	; (27e8 <prvTraceGetDTS+0x110>)
    275a:	4b24      	ldr	r3, [pc, #144]	; (27ec <prvTraceGetDTS+0x114>)
    275c:	4798      	blx	r3
    275e:	2000      	movs	r0, #0
    2760:	e014      	b.n	278c <prvTraceGetDTS+0xb4>
    2762:	4b23      	ldr	r3, [pc, #140]	; (27f0 <prvTraceGetDTS+0x118>)
    2764:	681a      	ldr	r2, [r3, #0]
    2766:	4b23      	ldr	r3, [pc, #140]	; (27f4 <prvTraceGetDTS+0x11c>)
    2768:	681b      	ldr	r3, [r3, #0]
    276a:	429a      	cmp	r2, r3
    276c:	d0c9      	beq.n	2702 <prvTraceGetDTS+0x2a>
    276e:	2000      	movs	r0, #0
    2770:	4b21      	ldr	r3, [pc, #132]	; (27f8 <prvTraceGetDTS+0x120>)
    2772:	4798      	blx	r3
    2774:	0880      	lsrs	r0, r0, #2
    2776:	6260      	str	r0, [r4, #36]	; 0x24
    2778:	e7c3      	b.n	2702 <prvTraceGetDTS+0x2a>
    277a:	6ab3      	ldr	r3, [r6, #40]	; 0x28
    277c:	191b      	adds	r3, r3, r4
    277e:	62b3      	str	r3, [r6, #40]	; 0x28
    2780:	e7de      	b.n	2740 <prvTraceGetDTS+0x68>
    2782:	62b3      	str	r3, [r6, #40]	; 0x28
    2784:	42ac      	cmp	r4, r5
    2786:	d803      	bhi.n	2790 <prvTraceGetDTS+0xb8>
    2788:	0020      	movs	r0, r4
    278a:	4028      	ands	r0, r5
    278c:	b003      	add	sp, #12
    278e:	bdf0      	pop	{r4, r5, r6, r7, pc}
    2790:	4b1a      	ldr	r3, [pc, #104]	; (27fc <prvTraceGetDTS+0x124>)
    2792:	4798      	blx	r3
    2794:	2800      	cmp	r0, #0
    2796:	d0f7      	beq.n	2788 <prvTraceGetDTS+0xb0>
    2798:	4b0c      	ldr	r3, [pc, #48]	; (27cc <prvTraceGetDTS+0xf4>)
    279a:	429d      	cmp	r5, r3
    279c:	d007      	beq.n	27ae <prvTraceGetDTS+0xd6>
    279e:	2dff      	cmp	r5, #255	; 0xff
    27a0:	d00c      	beq.n	27bc <prvTraceGetDTS+0xe4>
    27a2:	4817      	ldr	r0, [pc, #92]	; (2800 <prvTraceGetDTS+0x128>)
    27a4:	4b11      	ldr	r3, [pc, #68]	; (27ec <prvTraceGetDTS+0x114>)
    27a6:	4798      	blx	r3
    27a8:	4b16      	ldr	r3, [pc, #88]	; (2804 <prvTraceGetDTS+0x12c>)
    27aa:	4798      	blx	r3
    27ac:	e7ec      	b.n	2788 <prvTraceGetDTS+0xb0>
    27ae:	23a9      	movs	r3, #169	; 0xa9
    27b0:	7003      	strb	r3, [r0, #0]
    27b2:	0c23      	lsrs	r3, r4, #16
    27b4:	8043      	strh	r3, [r0, #2]
    27b6:	2300      	movs	r3, #0
    27b8:	7043      	strb	r3, [r0, #1]
    27ba:	e7f5      	b.n	27a8 <prvTraceGetDTS+0xd0>
    27bc:	23a8      	movs	r3, #168	; 0xa8
    27be:	7003      	strb	r3, [r0, #0]
    27c0:	0a23      	lsrs	r3, r4, #8
    27c2:	8043      	strh	r3, [r0, #2]
    27c4:	0e23      	lsrs	r3, r4, #24
    27c6:	7043      	strb	r3, [r0, #1]
    27c8:	e7ee      	b.n	27a8 <prvTraceGetDTS+0xd0>
    27ca:	46c0      	nop			; (mov r8, r8)
    27cc:	0000ffff 	.word	0x0000ffff
    27d0:	20000334 	.word	0x20000334
    27d4:	200003e8 	.word	0x200003e8
    27d8:	00002641 	.word	0x00002641
    27dc:	200003e0 	.word	0x200003e0
    27e0:	00006f8d 	.word	0x00006f8d
    27e4:	00007099 	.word	0x00007099
    27e8:	00009f34 	.word	0x00009f34
    27ec:	00002141 	.word	0x00002141
    27f0:	e000e018 	.word	0xe000e018
    27f4:	2000494c 	.word	0x2000494c
    27f8:	000068f5 	.word	0x000068f5
    27fc:	00002199 	.word	0x00002199
    2800:	00009f74 	.word	0x00009f74
    2804:	0000228d 	.word	0x0000228d

00002808 <prvTraceStoreTaskReady>:
    2808:	b570      	push	{r4, r5, r6, lr}
    280a:	1e04      	subs	r4, r0, #0
    280c:	d01d      	beq.n	284a <prvTraceStoreTaskReady+0x42>
    280e:	4b1b      	ldr	r3, [pc, #108]	; (287c <prvTraceStoreTaskReady+0x74>)
    2810:	681b      	ldr	r3, [r3, #0]
    2812:	2b00      	cmp	r3, #0
    2814:	d019      	beq.n	284a <prvTraceStoreTaskReady+0x42>
    2816:	280f      	cmp	r0, #15
    2818:	d818      	bhi.n	284c <prvTraceStoreTaskReady+0x44>
    281a:	4b19      	ldr	r3, [pc, #100]	; (2880 <prvTraceStoreTaskReady+0x78>)
    281c:	681b      	ldr	r3, [r3, #0]
    281e:	2b00      	cmp	r3, #0
    2820:	d118      	bne.n	2854 <prvTraceStoreTaskReady+0x4c>
    2822:	f3ef 8510 	mrs	r5, PRIMASK
    2826:	2301      	movs	r3, #1
    2828:	f383 8810 	msr	PRIMASK, r3
    282c:	4a14      	ldr	r2, [pc, #80]	; (2880 <prvTraceStoreTaskReady+0x78>)
    282e:	6813      	ldr	r3, [r2, #0]
    2830:	3301      	adds	r3, #1
    2832:	6013      	str	r3, [r2, #0]
    2834:	4b13      	ldr	r3, [pc, #76]	; (2884 <prvTraceStoreTaskReady+0x7c>)
    2836:	681b      	ldr	r3, [r3, #0]
    2838:	6b1b      	ldr	r3, [r3, #48]	; 0x30
    283a:	2b00      	cmp	r3, #0
    283c:	d10e      	bne.n	285c <prvTraceStoreTaskReady+0x54>
    283e:	4a10      	ldr	r2, [pc, #64]	; (2880 <prvTraceStoreTaskReady+0x78>)
    2840:	6813      	ldr	r3, [r2, #0]
    2842:	3b01      	subs	r3, #1
    2844:	6013      	str	r3, [r2, #0]
    2846:	f385 8810 	msr	PRIMASK, r5
    284a:	bd70      	pop	{r4, r5, r6, pc}
    284c:	480e      	ldr	r0, [pc, #56]	; (2888 <prvTraceStoreTaskReady+0x80>)
    284e:	4b0f      	ldr	r3, [pc, #60]	; (288c <prvTraceStoreTaskReady+0x84>)
    2850:	4798      	blx	r3
    2852:	e7fa      	b.n	284a <prvTraceStoreTaskReady+0x42>
    2854:	480e      	ldr	r0, [pc, #56]	; (2890 <prvTraceStoreTaskReady+0x88>)
    2856:	4b0d      	ldr	r3, [pc, #52]	; (288c <prvTraceStoreTaskReady+0x84>)
    2858:	4798      	blx	r3
    285a:	e7f6      	b.n	284a <prvTraceStoreTaskReady+0x42>
    285c:	480d      	ldr	r0, [pc, #52]	; (2894 <prvTraceStoreTaskReady+0x8c>)
    285e:	4b0e      	ldr	r3, [pc, #56]	; (2898 <prvTraceStoreTaskReady+0x90>)
    2860:	4798      	blx	r3
    2862:	0006      	movs	r6, r0
    2864:	4b0d      	ldr	r3, [pc, #52]	; (289c <prvTraceStoreTaskReady+0x94>)
    2866:	4798      	blx	r3
    2868:	2800      	cmp	r0, #0
    286a:	d0e8      	beq.n	283e <prvTraceStoreTaskReady+0x36>
    286c:	2302      	movs	r3, #2
    286e:	7003      	strb	r3, [r0, #0]
    2870:	8046      	strh	r6, [r0, #2]
    2872:	7044      	strb	r4, [r0, #1]
    2874:	4b0a      	ldr	r3, [pc, #40]	; (28a0 <prvTraceStoreTaskReady+0x98>)
    2876:	4798      	blx	r3
    2878:	e7e1      	b.n	283e <prvTraceStoreTaskReady+0x36>
    287a:	46c0      	nop			; (mov r8, r8)
    287c:	20000024 	.word	0x20000024
    2880:	200003e4 	.word	0x200003e4
    2884:	20000334 	.word	0x20000334
    2888:	0000a574 	.word	0x0000a574
    288c:	00002141 	.word	0x00002141
    2890:	0000a5b4 	.word	0x0000a5b4
    2894:	0000ffff 	.word	0x0000ffff
    2898:	000026d9 	.word	0x000026d9
    289c:	00002199 	.word	0x00002199
    28a0:	0000228d 	.word	0x0000228d

000028a4 <vTraceStoreMemMangEvent>:
    28a4:	b5f0      	push	{r4, r5, r6, r7, lr}
    28a6:	b083      	sub	sp, #12
    28a8:	9000      	str	r0, [sp, #0]
    28aa:	000c      	movs	r4, r1
    28ac:	4b28      	ldr	r3, [pc, #160]	; (2950 <vTraceStoreMemMangEvent+0xac>)
    28ae:	681b      	ldr	r3, [r3, #0]
    28b0:	2b00      	cmp	r3, #0
    28b2:	d01d      	beq.n	28f0 <vTraceStoreMemMangEvent+0x4c>
    28b4:	17d3      	asrs	r3, r2, #31
    28b6:	18d6      	adds	r6, r2, r3
    28b8:	405e      	eors	r6, r3
    28ba:	f3ef 8510 	mrs	r5, PRIMASK
    28be:	2301      	movs	r3, #1
    28c0:	f383 8810 	msr	PRIMASK, r3
    28c4:	4923      	ldr	r1, [pc, #140]	; (2954 <vTraceStoreMemMangEvent+0xb0>)
    28c6:	680b      	ldr	r3, [r1, #0]
    28c8:	3301      	adds	r3, #1
    28ca:	600b      	str	r3, [r1, #0]
    28cc:	2c00      	cmp	r4, #0
    28ce:	d004      	beq.n	28da <vTraceStoreMemMangEvent+0x36>
    28d0:	4b21      	ldr	r3, [pc, #132]	; (2958 <vTraceStoreMemMangEvent+0xb4>)
    28d2:	6819      	ldr	r1, [r3, #0]
    28d4:	468c      	mov	ip, r1
    28d6:	4462      	add	r2, ip
    28d8:	601a      	str	r2, [r3, #0]
    28da:	4b1d      	ldr	r3, [pc, #116]	; (2950 <vTraceStoreMemMangEvent+0xac>)
    28dc:	681b      	ldr	r3, [r3, #0]
    28de:	6b1b      	ldr	r3, [r3, #48]	; 0x30
    28e0:	2b00      	cmp	r3, #0
    28e2:	d107      	bne.n	28f4 <vTraceStoreMemMangEvent+0x50>
    28e4:	4a1b      	ldr	r2, [pc, #108]	; (2954 <vTraceStoreMemMangEvent+0xb0>)
    28e6:	6813      	ldr	r3, [r2, #0]
    28e8:	3b01      	subs	r3, #1
    28ea:	6013      	str	r3, [r2, #0]
    28ec:	f385 8810 	msr	PRIMASK, r5
    28f0:	b003      	add	sp, #12
    28f2:	bdf0      	pop	{r4, r5, r6, r7, pc}
    28f4:	20ff      	movs	r0, #255	; 0xff
    28f6:	4b19      	ldr	r3, [pc, #100]	; (295c <vTraceStoreMemMangEvent+0xb8>)
    28f8:	4798      	blx	r3
    28fa:	9001      	str	r0, [sp, #4]
    28fc:	0031      	movs	r1, r6
    28fe:	4818      	ldr	r0, [pc, #96]	; (2960 <vTraceStoreMemMangEvent+0xbc>)
    2900:	4b18      	ldr	r3, [pc, #96]	; (2964 <vTraceStoreMemMangEvent+0xc0>)
    2902:	4798      	blx	r3
    2904:	0006      	movs	r6, r0
    2906:	4b18      	ldr	r3, [pc, #96]	; (2968 <vTraceStoreMemMangEvent+0xc4>)
    2908:	4798      	blx	r3
    290a:	1e07      	subs	r7, r0, #0
    290c:	d0ea      	beq.n	28e4 <vTraceStoreMemMangEvent+0x40>
    290e:	466b      	mov	r3, sp
    2910:	791b      	ldrb	r3, [r3, #4]
    2912:	7043      	strb	r3, [r0, #1]
    2914:	2300      	movs	r3, #0
    2916:	7003      	strb	r3, [r0, #0]
    2918:	8046      	strh	r6, [r0, #2]
    291a:	4b14      	ldr	r3, [pc, #80]	; (296c <vTraceStoreMemMangEvent+0xc8>)
    291c:	4798      	blx	r3
    291e:	0021      	movs	r1, r4
    2920:	480f      	ldr	r0, [pc, #60]	; (2960 <vTraceStoreMemMangEvent+0xbc>)
    2922:	4b10      	ldr	r3, [pc, #64]	; (2964 <vTraceStoreMemMangEvent+0xc0>)
    2924:	4798      	blx	r3
    2926:	0006      	movs	r6, r0
    2928:	4b0f      	ldr	r3, [pc, #60]	; (2968 <vTraceStoreMemMangEvent+0xc4>)
    292a:	4798      	blx	r3
    292c:	2800      	cmp	r0, #0
    292e:	d0d9      	beq.n	28e4 <vTraceStoreMemMangEvent+0x40>
    2930:	8046      	strh	r6, [r0, #2]
    2932:	2300      	movs	r3, #0
    2934:	7043      	strb	r3, [r0, #1]
    2936:	466b      	mov	r3, sp
    2938:	781c      	ldrb	r4, [r3, #0]
    293a:	1c63      	adds	r3, r4, #1
    293c:	7003      	strb	r3, [r0, #0]
    293e:	703c      	strb	r4, [r7, #0]
    2940:	4b0a      	ldr	r3, [pc, #40]	; (296c <vTraceStoreMemMangEvent+0xc8>)
    2942:	4798      	blx	r3
    2944:	4b02      	ldr	r3, [pc, #8]	; (2950 <vTraceStoreMemMangEvent+0xac>)
    2946:	681b      	ldr	r3, [r3, #0]
    2948:	4a03      	ldr	r2, [pc, #12]	; (2958 <vTraceStoreMemMangEvent+0xb4>)
    294a:	6812      	ldr	r2, [r2, #0]
    294c:	651a      	str	r2, [r3, #80]	; 0x50
    294e:	e7c9      	b.n	28e4 <vTraceStoreMemMangEvent+0x40>
    2950:	20000334 	.word	0x20000334
    2954:	200003e4 	.word	0x200003e4
    2958:	2000033c 	.word	0x2000033c
    295c:	000026d9 	.word	0x000026d9
    2960:	0000ffff 	.word	0x0000ffff
    2964:	000022c5 	.word	0x000022c5
    2968:	00002199 	.word	0x00002199
    296c:	0000228d 	.word	0x0000228d

00002970 <prvTraceStoreKernelCall>:
    2970:	b5f8      	push	{r3, r4, r5, r6, r7, lr}
    2972:	0005      	movs	r5, r0
    2974:	0014      	movs	r4, r2
    2976:	28fe      	cmp	r0, #254	; 0xfe
    2978:	d825      	bhi.n	29c6 <prvTraceStoreKernelCall+0x56>
    297a:	2908      	cmp	r1, #8
    297c:	d827      	bhi.n	29ce <prvTraceStoreKernelCall+0x5e>
    297e:	4b21      	ldr	r3, [pc, #132]	; (2a04 <prvTraceStoreKernelCall+0x94>)
    2980:	681b      	ldr	r3, [r3, #0]
    2982:	1859      	adds	r1, r3, r1
    2984:	3164      	adds	r1, #100	; 0x64
    2986:	780b      	ldrb	r3, [r1, #0]
    2988:	4293      	cmp	r3, r2
    298a:	d324      	bcc.n	29d6 <prvTraceStoreKernelCall+0x66>
    298c:	4b1e      	ldr	r3, [pc, #120]	; (2a08 <prvTraceStoreKernelCall+0x98>)
    298e:	681b      	ldr	r3, [r3, #0]
    2990:	2b00      	cmp	r3, #0
    2992:	d124      	bne.n	29de <prvTraceStoreKernelCall+0x6e>
    2994:	4b1d      	ldr	r3, [pc, #116]	; (2a0c <prvTraceStoreKernelCall+0x9c>)
    2996:	781b      	ldrb	r3, [r3, #0]
    2998:	2b00      	cmp	r3, #0
    299a:	d013      	beq.n	29c4 <prvTraceStoreKernelCall+0x54>
    299c:	f3ef 8610 	mrs	r6, PRIMASK
    29a0:	2301      	movs	r3, #1
    29a2:	f383 8810 	msr	PRIMASK, r3
    29a6:	4a18      	ldr	r2, [pc, #96]	; (2a08 <prvTraceStoreKernelCall+0x98>)
    29a8:	6813      	ldr	r3, [r2, #0]
    29aa:	3301      	adds	r3, #1
    29ac:	6013      	str	r3, [r2, #0]
    29ae:	4b15      	ldr	r3, [pc, #84]	; (2a04 <prvTraceStoreKernelCall+0x94>)
    29b0:	681b      	ldr	r3, [r3, #0]
    29b2:	6b1b      	ldr	r3, [r3, #48]	; 0x30
    29b4:	2b00      	cmp	r3, #0
    29b6:	d116      	bne.n	29e6 <prvTraceStoreKernelCall+0x76>
    29b8:	4a13      	ldr	r2, [pc, #76]	; (2a08 <prvTraceStoreKernelCall+0x98>)
    29ba:	6813      	ldr	r3, [r2, #0]
    29bc:	3b01      	subs	r3, #1
    29be:	6013      	str	r3, [r2, #0]
    29c0:	f386 8810 	msr	PRIMASK, r6
    29c4:	bdf8      	pop	{r3, r4, r5, r6, r7, pc}
    29c6:	4812      	ldr	r0, [pc, #72]	; (2a10 <prvTraceStoreKernelCall+0xa0>)
    29c8:	4b12      	ldr	r3, [pc, #72]	; (2a14 <prvTraceStoreKernelCall+0xa4>)
    29ca:	4798      	blx	r3
    29cc:	e7fa      	b.n	29c4 <prvTraceStoreKernelCall+0x54>
    29ce:	4812      	ldr	r0, [pc, #72]	; (2a18 <prvTraceStoreKernelCall+0xa8>)
    29d0:	4b10      	ldr	r3, [pc, #64]	; (2a14 <prvTraceStoreKernelCall+0xa4>)
    29d2:	4798      	blx	r3
    29d4:	e7f6      	b.n	29c4 <prvTraceStoreKernelCall+0x54>
    29d6:	4811      	ldr	r0, [pc, #68]	; (2a1c <prvTraceStoreKernelCall+0xac>)
    29d8:	4b0e      	ldr	r3, [pc, #56]	; (2a14 <prvTraceStoreKernelCall+0xa4>)
    29da:	4798      	blx	r3
    29dc:	e7f2      	b.n	29c4 <prvTraceStoreKernelCall+0x54>
    29de:	4810      	ldr	r0, [pc, #64]	; (2a20 <prvTraceStoreKernelCall+0xb0>)
    29e0:	4b0c      	ldr	r3, [pc, #48]	; (2a14 <prvTraceStoreKernelCall+0xa4>)
    29e2:	4798      	blx	r3
    29e4:	e7ee      	b.n	29c4 <prvTraceStoreKernelCall+0x54>
    29e6:	480f      	ldr	r0, [pc, #60]	; (2a24 <prvTraceStoreKernelCall+0xb4>)
    29e8:	4b0f      	ldr	r3, [pc, #60]	; (2a28 <prvTraceStoreKernelCall+0xb8>)
    29ea:	4798      	blx	r3
    29ec:	0007      	movs	r7, r0
    29ee:	4b0f      	ldr	r3, [pc, #60]	; (2a2c <prvTraceStoreKernelCall+0xbc>)
    29f0:	4798      	blx	r3
    29f2:	2800      	cmp	r0, #0
    29f4:	d0e0      	beq.n	29b8 <prvTraceStoreKernelCall+0x48>
    29f6:	8047      	strh	r7, [r0, #2]
    29f8:	7005      	strb	r5, [r0, #0]
    29fa:	7044      	strb	r4, [r0, #1]
    29fc:	4b0c      	ldr	r3, [pc, #48]	; (2a30 <prvTraceStoreKernelCall+0xc0>)
    29fe:	4798      	blx	r3
    2a00:	e7da      	b.n	29b8 <prvTraceStoreKernelCall+0x48>
    2a02:	46c0      	nop			; (mov r8, r8)
    2a04:	20000334 	.word	0x20000334
    2a08:	200003e4 	.word	0x200003e4
    2a0c:	20000338 	.word	0x20000338
    2a10:	0000a2cc 	.word	0x0000a2cc
    2a14:	00002141 	.word	0x00002141
    2a18:	0000a304 	.word	0x0000a304
    2a1c:	0000a34c 	.word	0x0000a34c
    2a20:	0000a394 	.word	0x0000a394
    2a24:	0000ffff 	.word	0x0000ffff
    2a28:	000026d9 	.word	0x000026d9
    2a2c:	00002199 	.word	0x00002199
    2a30:	0000228d 	.word	0x0000228d

00002a34 <prvTraceStoreKernelCallWithParam>:
    2a34:	b5f0      	push	{r4, r5, r6, r7, lr}
    2a36:	46c6      	mov	lr, r8
    2a38:	b500      	push	{lr}
    2a3a:	0006      	movs	r6, r0
    2a3c:	0014      	movs	r4, r2
    2a3e:	001d      	movs	r5, r3
    2a40:	28fe      	cmp	r0, #254	; 0xfe
    2a42:	d827      	bhi.n	2a94 <prvTraceStoreKernelCallWithParam+0x60>
    2a44:	2908      	cmp	r1, #8
    2a46:	d829      	bhi.n	2a9c <prvTraceStoreKernelCallWithParam+0x68>
    2a48:	4b24      	ldr	r3, [pc, #144]	; (2adc <prvTraceStoreKernelCallWithParam+0xa8>)
    2a4a:	681b      	ldr	r3, [r3, #0]
    2a4c:	1859      	adds	r1, r3, r1
    2a4e:	3164      	adds	r1, #100	; 0x64
    2a50:	780b      	ldrb	r3, [r1, #0]
    2a52:	4293      	cmp	r3, r2
    2a54:	d326      	bcc.n	2aa4 <prvTraceStoreKernelCallWithParam+0x70>
    2a56:	4b22      	ldr	r3, [pc, #136]	; (2ae0 <prvTraceStoreKernelCallWithParam+0xac>)
    2a58:	681b      	ldr	r3, [r3, #0]
    2a5a:	2b00      	cmp	r3, #0
    2a5c:	d126      	bne.n	2aac <prvTraceStoreKernelCallWithParam+0x78>
    2a5e:	f3ef 8810 	mrs	r8, PRIMASK
    2a62:	2301      	movs	r3, #1
    2a64:	f383 8810 	msr	PRIMASK, r3
    2a68:	4a1d      	ldr	r2, [pc, #116]	; (2ae0 <prvTraceStoreKernelCallWithParam+0xac>)
    2a6a:	6813      	ldr	r3, [r2, #0]
    2a6c:	3301      	adds	r3, #1
    2a6e:	6013      	str	r3, [r2, #0]
    2a70:	4b1a      	ldr	r3, [pc, #104]	; (2adc <prvTraceStoreKernelCallWithParam+0xa8>)
    2a72:	681b      	ldr	r3, [r3, #0]
    2a74:	6b1b      	ldr	r3, [r3, #48]	; 0x30
    2a76:	2b00      	cmp	r3, #0
    2a78:	d003      	beq.n	2a82 <prvTraceStoreKernelCallWithParam+0x4e>
    2a7a:	4b1a      	ldr	r3, [pc, #104]	; (2ae4 <prvTraceStoreKernelCallWithParam+0xb0>)
    2a7c:	781b      	ldrb	r3, [r3, #0]
    2a7e:	2b00      	cmp	r3, #0
    2a80:	d118      	bne.n	2ab4 <prvTraceStoreKernelCallWithParam+0x80>
    2a82:	4a17      	ldr	r2, [pc, #92]	; (2ae0 <prvTraceStoreKernelCallWithParam+0xac>)
    2a84:	6813      	ldr	r3, [r2, #0]
    2a86:	3b01      	subs	r3, #1
    2a88:	6013      	str	r3, [r2, #0]
    2a8a:	f388 8810 	msr	PRIMASK, r8
    2a8e:	bc04      	pop	{r2}
    2a90:	4690      	mov	r8, r2
    2a92:	bdf0      	pop	{r4, r5, r6, r7, pc}
    2a94:	4814      	ldr	r0, [pc, #80]	; (2ae8 <prvTraceStoreKernelCallWithParam+0xb4>)
    2a96:	4b15      	ldr	r3, [pc, #84]	; (2aec <prvTraceStoreKernelCallWithParam+0xb8>)
    2a98:	4798      	blx	r3
    2a9a:	e7f8      	b.n	2a8e <prvTraceStoreKernelCallWithParam+0x5a>
    2a9c:	4814      	ldr	r0, [pc, #80]	; (2af0 <prvTraceStoreKernelCallWithParam+0xbc>)
    2a9e:	4b13      	ldr	r3, [pc, #76]	; (2aec <prvTraceStoreKernelCallWithParam+0xb8>)
    2aa0:	4798      	blx	r3
    2aa2:	e7f4      	b.n	2a8e <prvTraceStoreKernelCallWithParam+0x5a>
    2aa4:	4813      	ldr	r0, [pc, #76]	; (2af4 <prvTraceStoreKernelCallWithParam+0xc0>)
    2aa6:	4b11      	ldr	r3, [pc, #68]	; (2aec <prvTraceStoreKernelCallWithParam+0xb8>)
    2aa8:	4798      	blx	r3
    2aaa:	e7f0      	b.n	2a8e <prvTraceStoreKernelCallWithParam+0x5a>
    2aac:	4812      	ldr	r0, [pc, #72]	; (2af8 <prvTraceStoreKernelCallWithParam+0xc4>)
    2aae:	4b0f      	ldr	r3, [pc, #60]	; (2aec <prvTraceStoreKernelCallWithParam+0xb8>)
    2ab0:	4798      	blx	r3
    2ab2:	e7ec      	b.n	2a8e <prvTraceStoreKernelCallWithParam+0x5a>
    2ab4:	20ff      	movs	r0, #255	; 0xff
    2ab6:	4b11      	ldr	r3, [pc, #68]	; (2afc <prvTraceStoreKernelCallWithParam+0xc8>)
    2ab8:	4798      	blx	r3
    2aba:	0007      	movs	r7, r0
    2abc:	0029      	movs	r1, r5
    2abe:	20ff      	movs	r0, #255	; 0xff
    2ac0:	4b0f      	ldr	r3, [pc, #60]	; (2b00 <prvTraceStoreKernelCallWithParam+0xcc>)
    2ac2:	4798      	blx	r3
    2ac4:	0005      	movs	r5, r0
    2ac6:	4b0f      	ldr	r3, [pc, #60]	; (2b04 <prvTraceStoreKernelCallWithParam+0xd0>)
    2ac8:	4798      	blx	r3
    2aca:	2800      	cmp	r0, #0
    2acc:	d0d9      	beq.n	2a82 <prvTraceStoreKernelCallWithParam+0x4e>
    2ace:	70c7      	strb	r7, [r0, #3]
    2ad0:	7006      	strb	r6, [r0, #0]
    2ad2:	7044      	strb	r4, [r0, #1]
    2ad4:	7085      	strb	r5, [r0, #2]
    2ad6:	4b0c      	ldr	r3, [pc, #48]	; (2b08 <prvTraceStoreKernelCallWithParam+0xd4>)
    2ad8:	4798      	blx	r3
    2ada:	e7d2      	b.n	2a82 <prvTraceStoreKernelCallWithParam+0x4e>
    2adc:	20000334 	.word	0x20000334
    2ae0:	200003e4 	.word	0x200003e4
    2ae4:	20000338 	.word	0x20000338
    2ae8:	0000a45c 	.word	0x0000a45c
    2aec:	00002141 	.word	0x00002141
    2af0:	0000a49c 	.word	0x0000a49c
    2af4:	0000a4ec 	.word	0x0000a4ec
    2af8:	0000a53c 	.word	0x0000a53c
    2afc:	000026d9 	.word	0x000026d9
    2b00:	000022c5 	.word	0x000022c5
    2b04:	00002199 	.word	0x00002199
    2b08:	0000228d 	.word	0x0000228d

00002b0c <prvTraceStoreKernelCallWithNumericParamOnly>:
    2b0c:	b5f8      	push	{r3, r4, r5, r6, r7, lr}
    2b0e:	0004      	movs	r4, r0
    2b10:	000d      	movs	r5, r1
    2b12:	28fe      	cmp	r0, #254	; 0xfe
    2b14:	d81c      	bhi.n	2b50 <prvTraceStoreKernelCallWithNumericParamOnly+0x44>
    2b16:	4b1c      	ldr	r3, [pc, #112]	; (2b88 <prvTraceStoreKernelCallWithNumericParamOnly+0x7c>)
    2b18:	681b      	ldr	r3, [r3, #0]
    2b1a:	2b00      	cmp	r3, #0
    2b1c:	d11c      	bne.n	2b58 <prvTraceStoreKernelCallWithNumericParamOnly+0x4c>
    2b1e:	f3ef 8610 	mrs	r6, PRIMASK
    2b22:	2301      	movs	r3, #1
    2b24:	f383 8810 	msr	PRIMASK, r3
    2b28:	4a17      	ldr	r2, [pc, #92]	; (2b88 <prvTraceStoreKernelCallWithNumericParamOnly+0x7c>)
    2b2a:	6813      	ldr	r3, [r2, #0]
    2b2c:	3301      	adds	r3, #1
    2b2e:	6013      	str	r3, [r2, #0]
    2b30:	4b16      	ldr	r3, [pc, #88]	; (2b8c <prvTraceStoreKernelCallWithNumericParamOnly+0x80>)
    2b32:	681b      	ldr	r3, [r3, #0]
    2b34:	6b1b      	ldr	r3, [r3, #48]	; 0x30
    2b36:	2b00      	cmp	r3, #0
    2b38:	d003      	beq.n	2b42 <prvTraceStoreKernelCallWithNumericParamOnly+0x36>
    2b3a:	4b15      	ldr	r3, [pc, #84]	; (2b90 <prvTraceStoreKernelCallWithNumericParamOnly+0x84>)
    2b3c:	781b      	ldrb	r3, [r3, #0]
    2b3e:	2b00      	cmp	r3, #0
    2b40:	d10e      	bne.n	2b60 <prvTraceStoreKernelCallWithNumericParamOnly+0x54>
    2b42:	4a11      	ldr	r2, [pc, #68]	; (2b88 <prvTraceStoreKernelCallWithNumericParamOnly+0x7c>)
    2b44:	6813      	ldr	r3, [r2, #0]
    2b46:	3b01      	subs	r3, #1
    2b48:	6013      	str	r3, [r2, #0]
    2b4a:	f386 8810 	msr	PRIMASK, r6
    2b4e:	bdf8      	pop	{r3, r4, r5, r6, r7, pc}
    2b50:	4810      	ldr	r0, [pc, #64]	; (2b94 <prvTraceStoreKernelCallWithNumericParamOnly+0x88>)
    2b52:	4b11      	ldr	r3, [pc, #68]	; (2b98 <prvTraceStoreKernelCallWithNumericParamOnly+0x8c>)
    2b54:	4798      	blx	r3
    2b56:	e7fa      	b.n	2b4e <prvTraceStoreKernelCallWithNumericParamOnly+0x42>
    2b58:	4810      	ldr	r0, [pc, #64]	; (2b9c <prvTraceStoreKernelCallWithNumericParamOnly+0x90>)
    2b5a:	4b0f      	ldr	r3, [pc, #60]	; (2b98 <prvTraceStoreKernelCallWithNumericParamOnly+0x8c>)
    2b5c:	4798      	blx	r3
    2b5e:	e7f6      	b.n	2b4e <prvTraceStoreKernelCallWithNumericParamOnly+0x42>
    2b60:	20ff      	movs	r0, #255	; 0xff
    2b62:	4b0f      	ldr	r3, [pc, #60]	; (2ba0 <prvTraceStoreKernelCallWithNumericParamOnly+0x94>)
    2b64:	4798      	blx	r3
    2b66:	0007      	movs	r7, r0
    2b68:	0029      	movs	r1, r5
    2b6a:	480e      	ldr	r0, [pc, #56]	; (2ba4 <prvTraceStoreKernelCallWithNumericParamOnly+0x98>)
    2b6c:	4b0e      	ldr	r3, [pc, #56]	; (2ba8 <prvTraceStoreKernelCallWithNumericParamOnly+0x9c>)
    2b6e:	4798      	blx	r3
    2b70:	0005      	movs	r5, r0
    2b72:	4b0e      	ldr	r3, [pc, #56]	; (2bac <prvTraceStoreKernelCallWithNumericParamOnly+0xa0>)
    2b74:	4798      	blx	r3
    2b76:	2800      	cmp	r0, #0
    2b78:	d0e3      	beq.n	2b42 <prvTraceStoreKernelCallWithNumericParamOnly+0x36>
    2b7a:	7047      	strb	r7, [r0, #1]
    2b7c:	7004      	strb	r4, [r0, #0]
    2b7e:	8045      	strh	r5, [r0, #2]
    2b80:	4b0b      	ldr	r3, [pc, #44]	; (2bb0 <prvTraceStoreKernelCallWithNumericParamOnly+0xa4>)
    2b82:	4798      	blx	r3
    2b84:	e7dd      	b.n	2b42 <prvTraceStoreKernelCallWithNumericParamOnly+0x36>
    2b86:	46c0      	nop			; (mov r8, r8)
    2b88:	200003e4 	.word	0x200003e4
    2b8c:	20000334 	.word	0x20000334
    2b90:	20000338 	.word	0x20000338
    2b94:	0000a3cc 	.word	0x0000a3cc
    2b98:	00002141 	.word	0x00002141
    2b9c:	0000a424 	.word	0x0000a424
    2ba0:	000026d9 	.word	0x000026d9
    2ba4:	0000ffff 	.word	0x0000ffff
    2ba8:	000022c5 	.word	0x000022c5
    2bac:	00002199 	.word	0x00002199
    2bb0:	0000228d 	.word	0x0000228d

00002bb4 <prvTraceStoreTaskswitch>:
    2bb4:	b5f8      	push	{r3, r4, r5, r6, r7, lr}
    2bb6:	0004      	movs	r4, r0
    2bb8:	280f      	cmp	r0, #15
    2bba:	d818      	bhi.n	2bee <prvTraceStoreTaskswitch+0x3a>
    2bbc:	f3ef 8510 	mrs	r5, PRIMASK
    2bc0:	2301      	movs	r3, #1
    2bc2:	f383 8810 	msr	PRIMASK, r3
    2bc6:	4a26      	ldr	r2, [pc, #152]	; (2c60 <prvTraceStoreTaskswitch+0xac>)
    2bc8:	6813      	ldr	r3, [r2, #0]
    2bca:	3301      	adds	r3, #1
    2bcc:	6013      	str	r3, [r2, #0]
    2bce:	4b25      	ldr	r3, [pc, #148]	; (2c64 <prvTraceStoreTaskswitch+0xb0>)
    2bd0:	781b      	ldrb	r3, [r3, #0]
    2bd2:	4283      	cmp	r3, r0
    2bd4:	d004      	beq.n	2be0 <prvTraceStoreTaskswitch+0x2c>
    2bd6:	4b24      	ldr	r3, [pc, #144]	; (2c68 <prvTraceStoreTaskswitch+0xb4>)
    2bd8:	681b      	ldr	r3, [r3, #0]
    2bda:	6b1b      	ldr	r3, [r3, #48]	; 0x30
    2bdc:	2b00      	cmp	r3, #0
    2bde:	d10a      	bne.n	2bf6 <prvTraceStoreTaskswitch+0x42>
    2be0:	4a1f      	ldr	r2, [pc, #124]	; (2c60 <prvTraceStoreTaskswitch+0xac>)
    2be2:	6813      	ldr	r3, [r2, #0]
    2be4:	3b01      	subs	r3, #1
    2be6:	6013      	str	r3, [r2, #0]
    2be8:	f385 8810 	msr	PRIMASK, r5
    2bec:	bdf8      	pop	{r3, r4, r5, r6, r7, pc}
    2bee:	481f      	ldr	r0, [pc, #124]	; (2c6c <prvTraceStoreTaskswitch+0xb8>)
    2bf0:	4b1f      	ldr	r3, [pc, #124]	; (2c70 <prvTraceStoreTaskswitch+0xbc>)
    2bf2:	4798      	blx	r3
    2bf4:	e7fa      	b.n	2bec <prvTraceStoreTaskswitch+0x38>
    2bf6:	2200      	movs	r2, #0
    2bf8:	4b1e      	ldr	r3, [pc, #120]	; (2c74 <prvTraceStoreTaskswitch+0xc0>)
    2bfa:	601a      	str	r2, [r3, #0]
    2bfc:	481e      	ldr	r0, [pc, #120]	; (2c78 <prvTraceStoreTaskswitch+0xc4>)
    2bfe:	4b1f      	ldr	r3, [pc, #124]	; (2c7c <prvTraceStoreTaskswitch+0xc8>)
    2c00:	4798      	blx	r3
    2c02:	0007      	movs	r7, r0
    2c04:	4b17      	ldr	r3, [pc, #92]	; (2c64 <prvTraceStoreTaskswitch+0xb0>)
    2c06:	701c      	strb	r4, [r3, #0]
    2c08:	4b1d      	ldr	r3, [pc, #116]	; (2c80 <prvTraceStoreTaskswitch+0xcc>)
    2c0a:	4798      	blx	r3
    2c0c:	1e06      	subs	r6, r0, #0
    2c0e:	d0e7      	beq.n	2be0 <prvTraceStoreTaskswitch+0x2c>
    2c10:	4b14      	ldr	r3, [pc, #80]	; (2c64 <prvTraceStoreTaskswitch+0xb0>)
    2c12:	7818      	ldrb	r0, [r3, #0]
    2c14:	4b14      	ldr	r3, [pc, #80]	; (2c68 <prvTraceStoreTaskswitch+0xb4>)
    2c16:	681a      	ldr	r2, [r3, #0]
    2c18:	2367      	movs	r3, #103	; 0x67
    2c1a:	5cd3      	ldrb	r3, [r2, r3]
    2c1c:	4283      	cmp	r3, r0
    2c1e:	d30f      	bcc.n	2c40 <prvTraceStoreTaskswitch+0x8c>
    2c20:	2103      	movs	r1, #3
    2c22:	4b18      	ldr	r3, [pc, #96]	; (2c84 <prvTraceStoreTaskswitch+0xd0>)
    2c24:	4798      	blx	r3
    2c26:	4b10      	ldr	r3, [pc, #64]	; (2c68 <prvTraceStoreTaskswitch+0xb4>)
    2c28:	681b      	ldr	r3, [r3, #0]
    2c2a:	2273      	movs	r2, #115	; 0x73
    2c2c:	5c9a      	ldrb	r2, [r3, r2]
    2c2e:	181b      	adds	r3, r3, r0
    2c30:	189b      	adds	r3, r3, r2
    2c32:	339c      	adds	r3, #156	; 0x9c
    2c34:	781b      	ldrb	r3, [r3, #0]
    2c36:	2b01      	cmp	r3, #1
    2c38:	d105      	bne.n	2c46 <prvTraceStoreTaskswitch+0x92>
    2c3a:	3306      	adds	r3, #6
    2c3c:	7033      	strb	r3, [r6, #0]
    2c3e:	e004      	b.n	2c4a <prvTraceStoreTaskswitch+0x96>
    2c40:	4811      	ldr	r0, [pc, #68]	; (2c88 <prvTraceStoreTaskswitch+0xd4>)
    2c42:	4b0b      	ldr	r3, [pc, #44]	; (2c70 <prvTraceStoreTaskswitch+0xbc>)
    2c44:	4798      	blx	r3
    2c46:	2306      	movs	r3, #6
    2c48:	7033      	strb	r3, [r6, #0]
    2c4a:	8077      	strh	r7, [r6, #2]
    2c4c:	7074      	strb	r4, [r6, #1]
    2c4e:	4b05      	ldr	r3, [pc, #20]	; (2c64 <prvTraceStoreTaskswitch+0xb0>)
    2c50:	7819      	ldrb	r1, [r3, #0]
    2c52:	2201      	movs	r2, #1
    2c54:	2003      	movs	r0, #3
    2c56:	4b0d      	ldr	r3, [pc, #52]	; (2c8c <prvTraceStoreTaskswitch+0xd8>)
    2c58:	4798      	blx	r3
    2c5a:	4b0d      	ldr	r3, [pc, #52]	; (2c90 <prvTraceStoreTaskswitch+0xdc>)
    2c5c:	4798      	blx	r3
    2c5e:	e7bf      	b.n	2be0 <prvTraceStoreTaskswitch+0x2c>
    2c60:	200003e4 	.word	0x200003e4
    2c64:	20000338 	.word	0x20000338
    2c68:	20000334 	.word	0x20000334
    2c6c:	0000a5ec 	.word	0x0000a5ec
    2c70:	00002141 	.word	0x00002141
    2c74:	20000340 	.word	0x20000340
    2c78:	0000ffff 	.word	0x0000ffff
    2c7c:	000026d9 	.word	0x000026d9
    2c80:	00002199 	.word	0x00002199
    2c84:	00002319 	.word	0x00002319
    2c88:	0000a634 	.word	0x0000a634
    2c8c:	00002445 	.word	0x00002445
    2c90:	0000228d 	.word	0x0000228d

00002c94 <uiTraceStart>:
    2c94:	b570      	push	{r4, r5, r6, lr}
    2c96:	4b20      	ldr	r3, [pc, #128]	; (2d18 <uiTraceStart+0x84>)
    2c98:	681b      	ldr	r3, [r3, #0]
    2c9a:	2b00      	cmp	r3, #0
    2c9c:	d00a      	beq.n	2cb4 <uiTraceStart+0x20>
    2c9e:	6b18      	ldr	r0, [r3, #48]	; 0x30
    2ca0:	2801      	cmp	r0, #1
    2ca2:	d006      	beq.n	2cb2 <uiTraceStart+0x1e>
    2ca4:	4b1d      	ldr	r3, [pc, #116]	; (2d1c <uiTraceStart+0x88>)
    2ca6:	681b      	ldr	r3, [r3, #0]
    2ca8:	2b00      	cmp	r3, #0
    2caa:	d008      	beq.n	2cbe <uiTraceStart+0x2a>
    2cac:	4b1a      	ldr	r3, [pc, #104]	; (2d18 <uiTraceStart+0x84>)
    2cae:	681b      	ldr	r3, [r3, #0]
    2cb0:	6b18      	ldr	r0, [r3, #48]	; 0x30
    2cb2:	bd70      	pop	{r4, r5, r6, pc}
    2cb4:	481a      	ldr	r0, [pc, #104]	; (2d20 <uiTraceStart+0x8c>)
    2cb6:	4b1b      	ldr	r3, [pc, #108]	; (2d24 <uiTraceStart+0x90>)
    2cb8:	4798      	blx	r3
    2cba:	2000      	movs	r0, #0
    2cbc:	e7f9      	b.n	2cb2 <uiTraceStart+0x1e>
    2cbe:	f3ef 8510 	mrs	r5, PRIMASK
    2cc2:	2201      	movs	r2, #1
    2cc4:	f382 8810 	msr	PRIMASK, r2
    2cc8:	4917      	ldr	r1, [pc, #92]	; (2d28 <uiTraceStart+0x94>)
    2cca:	680b      	ldr	r3, [r1, #0]
    2ccc:	3301      	adds	r3, #1
    2cce:	600b      	str	r3, [r1, #0]
    2cd0:	4b11      	ldr	r3, [pc, #68]	; (2d18 <uiTraceStart+0x84>)
    2cd2:	681b      	ldr	r3, [r3, #0]
    2cd4:	631a      	str	r2, [r3, #48]	; 0x30
    2cd6:	4b15      	ldr	r3, [pc, #84]	; (2d2c <uiTraceStart+0x98>)
    2cd8:	4798      	blx	r3
    2cda:	4b15      	ldr	r3, [pc, #84]	; (2d30 <uiTraceStart+0x9c>)
    2cdc:	4798      	blx	r3
    2cde:	b2c4      	uxtb	r4, r0
    2ce0:	2c00      	cmp	r4, #0
    2ce2:	d009      	beq.n	2cf8 <uiTraceStart+0x64>
    2ce4:	0020      	movs	r0, r4
    2ce6:	4b13      	ldr	r3, [pc, #76]	; (2d34 <uiTraceStart+0xa0>)
    2ce8:	4798      	blx	r3
    2cea:	4a0f      	ldr	r2, [pc, #60]	; (2d28 <uiTraceStart+0x94>)
    2cec:	6813      	ldr	r3, [r2, #0]
    2cee:	3b01      	subs	r3, #1
    2cf0:	6013      	str	r3, [r2, #0]
    2cf2:	f385 8810 	msr	PRIMASK, r5
    2cf6:	e7d9      	b.n	2cac <uiTraceStart+0x18>
    2cf8:	2003      	movs	r0, #3
    2cfa:	4b0f      	ldr	r3, [pc, #60]	; (2d38 <uiTraceStart+0xa4>)
    2cfc:	4798      	blx	r3
    2cfe:	0006      	movs	r6, r0
    2d00:	0004      	movs	r4, r0
    2d02:	4a0e      	ldr	r2, [pc, #56]	; (2d3c <uiTraceStart+0xa8>)
    2d04:	0001      	movs	r1, r0
    2d06:	2003      	movs	r0, #3
    2d08:	4b0d      	ldr	r3, [pc, #52]	; (2d40 <uiTraceStart+0xac>)
    2d0a:	4798      	blx	r3
    2d0c:	2200      	movs	r2, #0
    2d0e:	0031      	movs	r1, r6
    2d10:	2003      	movs	r0, #3
    2d12:	4b0c      	ldr	r3, [pc, #48]	; (2d44 <uiTraceStart+0xb0>)
    2d14:	4798      	blx	r3
    2d16:	e7e5      	b.n	2ce4 <uiTraceStart+0x50>
    2d18:	20000334 	.word	0x20000334
    2d1c:	200003ec 	.word	0x200003ec
    2d20:	0000a6f0 	.word	0x0000a6f0
    2d24:	00002141 	.word	0x00002141
    2d28:	200003e4 	.word	0x200003e4
    2d2c:	00001d39 	.word	0x00001d39
    2d30:	00001c71 	.word	0x00001c71
    2d34:	00002bb5 	.word	0x00002bb5
    2d38:	000024dd 	.word	0x000024dd
    2d3c:	0000a734 	.word	0x0000a734
    2d40:	000025b1 	.word	0x000025b1
    2d44:	00002391 	.word	0x00002391

00002d48 <vTraceStart>:
    2d48:	b510      	push	{r4, lr}
    2d4a:	4b01      	ldr	r3, [pc, #4]	; (2d50 <vTraceStart+0x8>)
    2d4c:	4798      	blx	r3
    2d4e:	bd10      	pop	{r4, pc}
    2d50:	00002c95 	.word	0x00002c95

00002d54 <vListInitialise>:
    2d54:	0003      	movs	r3, r0
    2d56:	3308      	adds	r3, #8
    2d58:	6043      	str	r3, [r0, #4]
    2d5a:	2201      	movs	r2, #1
    2d5c:	4252      	negs	r2, r2
    2d5e:	6082      	str	r2, [r0, #8]
    2d60:	60c3      	str	r3, [r0, #12]
    2d62:	6103      	str	r3, [r0, #16]
    2d64:	2300      	movs	r3, #0
    2d66:	6003      	str	r3, [r0, #0]
    2d68:	4770      	bx	lr

00002d6a <vListInitialiseItem>:
    2d6a:	2300      	movs	r3, #0
    2d6c:	6103      	str	r3, [r0, #16]
    2d6e:	4770      	bx	lr

00002d70 <vListInsertEnd>:
    2d70:	6843      	ldr	r3, [r0, #4]
    2d72:	604b      	str	r3, [r1, #4]
    2d74:	689a      	ldr	r2, [r3, #8]
    2d76:	608a      	str	r2, [r1, #8]
    2d78:	689a      	ldr	r2, [r3, #8]
    2d7a:	6051      	str	r1, [r2, #4]
    2d7c:	6099      	str	r1, [r3, #8]
    2d7e:	6108      	str	r0, [r1, #16]
    2d80:	6803      	ldr	r3, [r0, #0]
    2d82:	3301      	adds	r3, #1
    2d84:	6003      	str	r3, [r0, #0]
    2d86:	4770      	bx	lr

00002d88 <vListInsert>:
    2d88:	b530      	push	{r4, r5, lr}
    2d8a:	680c      	ldr	r4, [r1, #0]
    2d8c:	0002      	movs	r2, r0
    2d8e:	3208      	adds	r2, #8
    2d90:	1c63      	adds	r3, r4, #1
    2d92:	d102      	bne.n	2d9a <vListInsert+0x12>
    2d94:	6902      	ldr	r2, [r0, #16]
    2d96:	e004      	b.n	2da2 <vListInsert+0x1a>
    2d98:	001a      	movs	r2, r3
    2d9a:	6853      	ldr	r3, [r2, #4]
    2d9c:	681d      	ldr	r5, [r3, #0]
    2d9e:	42ac      	cmp	r4, r5
    2da0:	d2fa      	bcs.n	2d98 <vListInsert+0x10>
    2da2:	6853      	ldr	r3, [r2, #4]
    2da4:	604b      	str	r3, [r1, #4]
    2da6:	6099      	str	r1, [r3, #8]
    2da8:	608a      	str	r2, [r1, #8]
    2daa:	6051      	str	r1, [r2, #4]
    2dac:	6108      	str	r0, [r1, #16]
    2dae:	6803      	ldr	r3, [r0, #0]
    2db0:	3301      	adds	r3, #1
    2db2:	6003      	str	r3, [r0, #0]
    2db4:	bd30      	pop	{r4, r5, pc}

00002db6 <uxListRemove>:
    2db6:	6903      	ldr	r3, [r0, #16]
    2db8:	6842      	ldr	r2, [r0, #4]
    2dba:	6881      	ldr	r1, [r0, #8]
    2dbc:	6091      	str	r1, [r2, #8]
    2dbe:	6882      	ldr	r2, [r0, #8]
    2dc0:	6841      	ldr	r1, [r0, #4]
    2dc2:	6051      	str	r1, [r2, #4]
    2dc4:	685a      	ldr	r2, [r3, #4]
    2dc6:	4290      	cmp	r0, r2
    2dc8:	d006      	beq.n	2dd8 <uxListRemove+0x22>
    2dca:	2200      	movs	r2, #0
    2dcc:	6102      	str	r2, [r0, #16]
    2dce:	681a      	ldr	r2, [r3, #0]
    2dd0:	3a01      	subs	r2, #1
    2dd2:	601a      	str	r2, [r3, #0]
    2dd4:	6818      	ldr	r0, [r3, #0]
    2dd6:	4770      	bx	lr
    2dd8:	6882      	ldr	r2, [r0, #8]
    2dda:	605a      	str	r2, [r3, #4]
    2ddc:	e7f5      	b.n	2dca <uxListRemove+0x14>
	...

00002de0 <prvTaskExitError>:
    2de0:	b082      	sub	sp, #8
    2de2:	2300      	movs	r3, #0
    2de4:	9301      	str	r3, [sp, #4]
    2de6:	4b06      	ldr	r3, [pc, #24]	; (2e00 <prvTaskExitError+0x20>)
    2de8:	681b      	ldr	r3, [r3, #0]
    2dea:	3301      	adds	r3, #1
    2dec:	d001      	beq.n	2df2 <prvTaskExitError+0x12>
    2dee:	b672      	cpsid	i
    2df0:	e7fe      	b.n	2df0 <prvTaskExitError+0x10>
    2df2:	b672      	cpsid	i
    2df4:	9b01      	ldr	r3, [sp, #4]
    2df6:	2b00      	cmp	r3, #0
    2df8:	d0fc      	beq.n	2df4 <prvTaskExitError+0x14>
    2dfa:	b002      	add	sp, #8
    2dfc:	4770      	bx	lr
    2dfe:	46c0      	nop			; (mov r8, r8)
    2e00:	20000028 	.word	0x20000028
	...

00002e10 <vPortStartFirstTask>:
    2e10:	4a0b      	ldr	r2, [pc, #44]	; (2e40 <pxCurrentTCBConst2>)
    2e12:	6813      	ldr	r3, [r2, #0]
    2e14:	6818      	ldr	r0, [r3, #0]
    2e16:	3020      	adds	r0, #32
    2e18:	f380 8809 	msr	PSP, r0
    2e1c:	2002      	movs	r0, #2
    2e1e:	f380 8814 	msr	CONTROL, r0
    2e22:	f3bf 8f6f 	isb	sy
    2e26:	bc3f      	pop	{r0, r1, r2, r3, r4, r5}
    2e28:	46ae      	mov	lr, r5
    2e2a:	bc08      	pop	{r3}
    2e2c:	bc04      	pop	{r2}
    2e2e:	b662      	cpsie	i
    2e30:	4718      	bx	r3
    2e32:	46c0      	nop			; (mov r8, r8)
    2e34:	46c0      	nop			; (mov r8, r8)
    2e36:	46c0      	nop			; (mov r8, r8)
    2e38:	46c0      	nop			; (mov r8, r8)
    2e3a:	46c0      	nop			; (mov r8, r8)
    2e3c:	46c0      	nop			; (mov r8, r8)
    2e3e:	46c0      	nop			; (mov r8, r8)

00002e40 <pxCurrentTCBConst2>:
    2e40:	200036d0 	.word	0x200036d0

00002e44 <pxPortInitialiseStack>:
    2e44:	b510      	push	{r4, lr}
    2e46:	1f03      	subs	r3, r0, #4
    2e48:	2480      	movs	r4, #128	; 0x80
    2e4a:	0464      	lsls	r4, r4, #17
    2e4c:	601c      	str	r4, [r3, #0]
    2e4e:	3b04      	subs	r3, #4
    2e50:	6019      	str	r1, [r3, #0]
    2e52:	3b04      	subs	r3, #4
    2e54:	4902      	ldr	r1, [pc, #8]	; (2e60 <pxPortInitialiseStack+0x1c>)
    2e56:	6019      	str	r1, [r3, #0]
    2e58:	3b14      	subs	r3, #20
    2e5a:	601a      	str	r2, [r3, #0]
    2e5c:	3840      	subs	r0, #64	; 0x40
    2e5e:	bd10      	pop	{r4, pc}
    2e60:	00002de1 	.word	0x00002de1

00002e64 <SVC_Handler>:
    2e64:	4770      	bx	lr
	...

00002e68 <xPortStartScheduler>:
    2e68:	b570      	push	{r4, r5, r6, lr}
    2e6a:	4b13      	ldr	r3, [pc, #76]	; (2eb8 <xPortStartScheduler+0x50>)
    2e6c:	6819      	ldr	r1, [r3, #0]
    2e6e:	22ff      	movs	r2, #255	; 0xff
    2e70:	0412      	lsls	r2, r2, #16
    2e72:	430a      	orrs	r2, r1
    2e74:	601a      	str	r2, [r3, #0]
    2e76:	6819      	ldr	r1, [r3, #0]
    2e78:	22ff      	movs	r2, #255	; 0xff
    2e7a:	0612      	lsls	r2, r2, #24
    2e7c:	430a      	orrs	r2, r1
    2e7e:	601a      	str	r2, [r3, #0]
    2e80:	4d0e      	ldr	r5, [pc, #56]	; (2ebc <xPortStartScheduler+0x54>)
    2e82:	2400      	movs	r4, #0
    2e84:	602c      	str	r4, [r5, #0]
    2e86:	4b0e      	ldr	r3, [pc, #56]	; (2ec0 <xPortStartScheduler+0x58>)
    2e88:	601c      	str	r4, [r3, #0]
    2e8a:	2000      	movs	r0, #0
    2e8c:	4b0d      	ldr	r3, [pc, #52]	; (2ec4 <xPortStartScheduler+0x5c>)
    2e8e:	4798      	blx	r3
    2e90:	21fa      	movs	r1, #250	; 0xfa
    2e92:	0089      	lsls	r1, r1, #2
    2e94:	4b0c      	ldr	r3, [pc, #48]	; (2ec8 <xPortStartScheduler+0x60>)
    2e96:	4798      	blx	r3
    2e98:	3801      	subs	r0, #1
    2e9a:	4b0c      	ldr	r3, [pc, #48]	; (2ecc <xPortStartScheduler+0x64>)
    2e9c:	6018      	str	r0, [r3, #0]
    2e9e:	2307      	movs	r3, #7
    2ea0:	602b      	str	r3, [r5, #0]
    2ea2:	4b0b      	ldr	r3, [pc, #44]	; (2ed0 <xPortStartScheduler+0x68>)
    2ea4:	601c      	str	r4, [r3, #0]
    2ea6:	4b0b      	ldr	r3, [pc, #44]	; (2ed4 <xPortStartScheduler+0x6c>)
    2ea8:	4798      	blx	r3
    2eaa:	4b0b      	ldr	r3, [pc, #44]	; (2ed8 <xPortStartScheduler+0x70>)
    2eac:	4798      	blx	r3
    2eae:	4b0b      	ldr	r3, [pc, #44]	; (2edc <xPortStartScheduler+0x74>)
    2eb0:	4798      	blx	r3
    2eb2:	2000      	movs	r0, #0
    2eb4:	bd70      	pop	{r4, r5, r6, pc}
    2eb6:	46c0      	nop			; (mov r8, r8)
    2eb8:	e000ed20 	.word	0xe000ed20
    2ebc:	e000e010 	.word	0xe000e010
    2ec0:	e000e018 	.word	0xe000e018
    2ec4:	000068f5 	.word	0x000068f5
    2ec8:	00006f8d 	.word	0x00006f8d
    2ecc:	e000e014 	.word	0xe000e014
    2ed0:	20000028 	.word	0x20000028
    2ed4:	00002e11 	.word	0x00002e11
    2ed8:	000049c9 	.word	0x000049c9
    2edc:	00002de1 	.word	0x00002de1

00002ee0 <vPortYield>:
    2ee0:	2280      	movs	r2, #128	; 0x80
    2ee2:	0552      	lsls	r2, r2, #21
    2ee4:	4b01      	ldr	r3, [pc, #4]	; (2eec <vPortYield+0xc>)
    2ee6:	601a      	str	r2, [r3, #0]
    2ee8:	4770      	bx	lr
    2eea:	46c0      	nop			; (mov r8, r8)
    2eec:	e000ed04 	.word	0xe000ed04

00002ef0 <vPortEnterCritical>:
    2ef0:	b672      	cpsid	i
    2ef2:	4a04      	ldr	r2, [pc, #16]	; (2f04 <vPortEnterCritical+0x14>)
    2ef4:	6813      	ldr	r3, [r2, #0]
    2ef6:	3301      	adds	r3, #1
    2ef8:	6013      	str	r3, [r2, #0]
    2efa:	f3bf 8f4f 	dsb	sy
    2efe:	f3bf 8f6f 	isb	sy
    2f02:	4770      	bx	lr
    2f04:	20000028 	.word	0x20000028

00002f08 <vPortExitCritical>:
    2f08:	4b06      	ldr	r3, [pc, #24]	; (2f24 <vPortExitCritical+0x1c>)
    2f0a:	681b      	ldr	r3, [r3, #0]
    2f0c:	2b00      	cmp	r3, #0
    2f0e:	d101      	bne.n	2f14 <vPortExitCritical+0xc>
    2f10:	b672      	cpsid	i
    2f12:	e7fe      	b.n	2f12 <vPortExitCritical+0xa>
    2f14:	3b01      	subs	r3, #1
    2f16:	4a03      	ldr	r2, [pc, #12]	; (2f24 <vPortExitCritical+0x1c>)
    2f18:	6013      	str	r3, [r2, #0]
    2f1a:	2b00      	cmp	r3, #0
    2f1c:	d100      	bne.n	2f20 <vPortExitCritical+0x18>
    2f1e:	b662      	cpsie	i
    2f20:	4770      	bx	lr
    2f22:	46c0      	nop			; (mov r8, r8)
    2f24:	20000028 	.word	0x20000028

00002f28 <ulSetInterruptMaskFromISR>:
    2f28:	f3ef 8010 	mrs	r0, PRIMASK
    2f2c:	b672      	cpsid	i
    2f2e:	4770      	bx	lr

00002f30 <vClearInterruptMaskFromISR>:
    2f30:	f380 8810 	msr	PRIMASK, r0
    2f34:	4770      	bx	lr
	...

00002f40 <PendSV_Handler>:
    2f40:	f3ef 8009 	mrs	r0, PSP
    2f44:	4b0e      	ldr	r3, [pc, #56]	; (2f80 <pxCurrentTCBConst>)
    2f46:	681a      	ldr	r2, [r3, #0]
    2f48:	3820      	subs	r0, #32
    2f4a:	6010      	str	r0, [r2, #0]
    2f4c:	c0f0      	stmia	r0!, {r4, r5, r6, r7}
    2f4e:	4644      	mov	r4, r8
    2f50:	464d      	mov	r5, r9
    2f52:	4656      	mov	r6, sl
    2f54:	465f      	mov	r7, fp
    2f56:	c0f0      	stmia	r0!, {r4, r5, r6, r7}
    2f58:	b508      	push	{r3, lr}
    2f5a:	b672      	cpsid	i
    2f5c:	f001 fd34 	bl	49c8 <vTaskSwitchContext>
    2f60:	b662      	cpsie	i
    2f62:	bc0c      	pop	{r2, r3}
    2f64:	6811      	ldr	r1, [r2, #0]
    2f66:	6808      	ldr	r0, [r1, #0]
    2f68:	3010      	adds	r0, #16
    2f6a:	c8f0      	ldmia	r0!, {r4, r5, r6, r7}
    2f6c:	46a0      	mov	r8, r4
    2f6e:	46a9      	mov	r9, r5
    2f70:	46b2      	mov	sl, r6
    2f72:	46bb      	mov	fp, r7
    2f74:	f380 8809 	msr	PSP, r0
    2f78:	3820      	subs	r0, #32
    2f7a:	c8f0      	ldmia	r0!, {r4, r5, r6, r7}
    2f7c:	4718      	bx	r3
    2f7e:	46c0      	nop			; (mov r8, r8)

00002f80 <pxCurrentTCBConst>:
    2f80:	200036d0 	.word	0x200036d0

00002f84 <SysTick_Handler>:
    2f84:	b510      	push	{r4, lr}
    2f86:	4b07      	ldr	r3, [pc, #28]	; (2fa4 <SysTick_Handler+0x20>)
    2f88:	4798      	blx	r3
    2f8a:	0004      	movs	r4, r0
    2f8c:	4b06      	ldr	r3, [pc, #24]	; (2fa8 <SysTick_Handler+0x24>)
    2f8e:	4798      	blx	r3
    2f90:	2800      	cmp	r0, #0
    2f92:	d003      	beq.n	2f9c <SysTick_Handler+0x18>
    2f94:	2280      	movs	r2, #128	; 0x80
    2f96:	0552      	lsls	r2, r2, #21
    2f98:	4b04      	ldr	r3, [pc, #16]	; (2fac <SysTick_Handler+0x28>)
    2f9a:	601a      	str	r2, [r3, #0]
    2f9c:	0020      	movs	r0, r4
    2f9e:	4b04      	ldr	r3, [pc, #16]	; (2fb0 <SysTick_Handler+0x2c>)
    2fa0:	4798      	blx	r3
    2fa2:	bd10      	pop	{r4, pc}
    2fa4:	00002f29 	.word	0x00002f29
    2fa8:	00004671 	.word	0x00004671
    2fac:	e000ed04 	.word	0xe000ed04
    2fb0:	00002f31 	.word	0x00002f31

00002fb4 <pvPortMalloc>:
    2fb4:	b570      	push	{r4, r5, r6, lr}
    2fb6:	0004      	movs	r4, r0
    2fb8:	0743      	lsls	r3, r0, #29
    2fba:	d002      	beq.n	2fc2 <pvPortMalloc+0xe>
    2fbc:	2307      	movs	r3, #7
    2fbe:	439c      	bics	r4, r3
    2fc0:	3408      	adds	r4, #8
    2fc2:	4b18      	ldr	r3, [pc, #96]	; (3024 <pvPortMalloc+0x70>)
    2fc4:	4798      	blx	r3
    2fc6:	4b18      	ldr	r3, [pc, #96]	; (3028 <pvPortMalloc+0x74>)
    2fc8:	681b      	ldr	r3, [r3, #0]
    2fca:	2b00      	cmp	r3, #0
    2fcc:	d017      	beq.n	2ffe <pvPortMalloc+0x4a>
    2fce:	4b17      	ldr	r3, [pc, #92]	; (302c <pvPortMalloc+0x78>)
    2fd0:	681a      	ldr	r2, [r3, #0]
    2fd2:	18a3      	adds	r3, r4, r2
    2fd4:	4916      	ldr	r1, [pc, #88]	; (3030 <pvPortMalloc+0x7c>)
    2fd6:	428b      	cmp	r3, r1
    2fd8:	d818      	bhi.n	300c <pvPortMalloc+0x58>
    2fda:	429a      	cmp	r2, r3
    2fdc:	d216      	bcs.n	300c <pvPortMalloc+0x58>
    2fde:	4912      	ldr	r1, [pc, #72]	; (3028 <pvPortMalloc+0x74>)
    2fe0:	680d      	ldr	r5, [r1, #0]
    2fe2:	18ad      	adds	r5, r5, r2
    2fe4:	4a11      	ldr	r2, [pc, #68]	; (302c <pvPortMalloc+0x78>)
    2fe6:	6013      	str	r3, [r2, #0]
    2fe8:	2d00      	cmp	r5, #0
    2fea:	d00f      	beq.n	300c <pvPortMalloc+0x58>
    2fec:	0022      	movs	r2, r4
    2fee:	0029      	movs	r1, r5
    2ff0:	2094      	movs	r0, #148	; 0x94
    2ff2:	4b10      	ldr	r3, [pc, #64]	; (3034 <pvPortMalloc+0x80>)
    2ff4:	4798      	blx	r3
    2ff6:	4b10      	ldr	r3, [pc, #64]	; (3038 <pvPortMalloc+0x84>)
    2ff8:	4798      	blx	r3
    2ffa:	0028      	movs	r0, r5
    2ffc:	bd70      	pop	{r4, r5, r6, pc}
    2ffe:	2207      	movs	r2, #7
    3000:	4b0e      	ldr	r3, [pc, #56]	; (303c <pvPortMalloc+0x88>)
    3002:	3308      	adds	r3, #8
    3004:	4393      	bics	r3, r2
    3006:	4a08      	ldr	r2, [pc, #32]	; (3028 <pvPortMalloc+0x74>)
    3008:	6013      	str	r3, [r2, #0]
    300a:	e7e0      	b.n	2fce <pvPortMalloc+0x1a>
    300c:	0022      	movs	r2, r4
    300e:	2100      	movs	r1, #0
    3010:	20e8      	movs	r0, #232	; 0xe8
    3012:	4b08      	ldr	r3, [pc, #32]	; (3034 <pvPortMalloc+0x80>)
    3014:	4798      	blx	r3
    3016:	4b08      	ldr	r3, [pc, #32]	; (3038 <pvPortMalloc+0x84>)
    3018:	4798      	blx	r3
    301a:	4b09      	ldr	r3, [pc, #36]	; (3040 <pvPortMalloc+0x8c>)
    301c:	4798      	blx	r3
    301e:	2500      	movs	r5, #0
    3020:	e7eb      	b.n	2ffa <pvPortMalloc+0x46>
    3022:	46c0      	nop			; (mov r8, r8)
    3024:	00004655 	.word	0x00004655
    3028:	20000400 	.word	0x20000400
    302c:	200036cc 	.word	0x200036cc
    3030:	000032bf 	.word	0x000032bf
    3034:	000028a5 	.word	0x000028a5
    3038:	000047fd 	.word	0x000047fd
    303c:	20000404 	.word	0x20000404
    3040:	00006f65 	.word	0x00006f65

00003044 <vPortFree>:
    3044:	2800      	cmp	r0, #0
    3046:	d001      	beq.n	304c <vPortFree+0x8>
    3048:	b672      	cpsid	i
    304a:	e7fe      	b.n	304a <vPortFree+0x6>
    304c:	4770      	bx	lr
	...

00003050 <xPortGetFreeHeapSize>:
    3050:	4b02      	ldr	r3, [pc, #8]	; (305c <xPortGetFreeHeapSize+0xc>)
    3052:	681b      	ldr	r3, [r3, #0]
    3054:	20cb      	movs	r0, #203	; 0xcb
    3056:	0180      	lsls	r0, r0, #6
    3058:	1ac0      	subs	r0, r0, r3
    305a:	4770      	bx	lr
    305c:	200036cc 	.word	0x200036cc

00003060 <prvIsQueueEmpty>:
    3060:	b510      	push	{r4, lr}
    3062:	0004      	movs	r4, r0
    3064:	4b03      	ldr	r3, [pc, #12]	; (3074 <prvIsQueueEmpty+0x14>)
    3066:	4798      	blx	r3
    3068:	6ba4      	ldr	r4, [r4, #56]	; 0x38
    306a:	4b03      	ldr	r3, [pc, #12]	; (3078 <prvIsQueueEmpty+0x18>)
    306c:	4798      	blx	r3
    306e:	4260      	negs	r0, r4
    3070:	4160      	adcs	r0, r4
    3072:	bd10      	pop	{r4, pc}
    3074:	00002ef1 	.word	0x00002ef1
    3078:	00002f09 	.word	0x00002f09

0000307c <prvCopyDataToQueue>:
    307c:	b570      	push	{r4, r5, r6, lr}
    307e:	0004      	movs	r4, r0
    3080:	0016      	movs	r6, r2
    3082:	6b85      	ldr	r5, [r0, #56]	; 0x38
    3084:	6c02      	ldr	r2, [r0, #64]	; 0x40
    3086:	2a00      	cmp	r2, #0
    3088:	d10b      	bne.n	30a2 <prvCopyDataToQueue+0x26>
    308a:	2000      	movs	r0, #0
    308c:	6823      	ldr	r3, [r4, #0]
    308e:	4283      	cmp	r3, r0
    3090:	d104      	bne.n	309c <prvCopyDataToQueue+0x20>
    3092:	6860      	ldr	r0, [r4, #4]
    3094:	4b16      	ldr	r3, [pc, #88]	; (30f0 <prvCopyDataToQueue+0x74>)
    3096:	4798      	blx	r3
    3098:	2300      	movs	r3, #0
    309a:	6063      	str	r3, [r4, #4]
    309c:	3501      	adds	r5, #1
    309e:	63a5      	str	r5, [r4, #56]	; 0x38
    30a0:	bd70      	pop	{r4, r5, r6, pc}
    30a2:	2e00      	cmp	r6, #0
    30a4:	d10e      	bne.n	30c4 <prvCopyDataToQueue+0x48>
    30a6:	6880      	ldr	r0, [r0, #8]
    30a8:	4b12      	ldr	r3, [pc, #72]	; (30f4 <prvCopyDataToQueue+0x78>)
    30aa:	4798      	blx	r3
    30ac:	68a3      	ldr	r3, [r4, #8]
    30ae:	6c22      	ldr	r2, [r4, #64]	; 0x40
    30b0:	4694      	mov	ip, r2
    30b2:	4463      	add	r3, ip
    30b4:	60a3      	str	r3, [r4, #8]
    30b6:	2000      	movs	r0, #0
    30b8:	6862      	ldr	r2, [r4, #4]
    30ba:	4293      	cmp	r3, r2
    30bc:	d3ee      	bcc.n	309c <prvCopyDataToQueue+0x20>
    30be:	6823      	ldr	r3, [r4, #0]
    30c0:	60a3      	str	r3, [r4, #8]
    30c2:	e7eb      	b.n	309c <prvCopyDataToQueue+0x20>
    30c4:	68c0      	ldr	r0, [r0, #12]
    30c6:	4b0b      	ldr	r3, [pc, #44]	; (30f4 <prvCopyDataToQueue+0x78>)
    30c8:	4798      	blx	r3
    30ca:	6c23      	ldr	r3, [r4, #64]	; 0x40
    30cc:	425b      	negs	r3, r3
    30ce:	68e2      	ldr	r2, [r4, #12]
    30d0:	18d2      	adds	r2, r2, r3
    30d2:	60e2      	str	r2, [r4, #12]
    30d4:	6821      	ldr	r1, [r4, #0]
    30d6:	428a      	cmp	r2, r1
    30d8:	d203      	bcs.n	30e2 <prvCopyDataToQueue+0x66>
    30da:	6862      	ldr	r2, [r4, #4]
    30dc:	4694      	mov	ip, r2
    30de:	4463      	add	r3, ip
    30e0:	60e3      	str	r3, [r4, #12]
    30e2:	2000      	movs	r0, #0
    30e4:	2e02      	cmp	r6, #2
    30e6:	d1d9      	bne.n	309c <prvCopyDataToQueue+0x20>
    30e8:	4285      	cmp	r5, r0
    30ea:	d0d7      	beq.n	309c <prvCopyDataToQueue+0x20>
    30ec:	3d01      	subs	r5, #1
    30ee:	e7d5      	b.n	309c <prvCopyDataToQueue+0x20>
    30f0:	00004f4d 	.word	0x00004f4d
    30f4:	00008d3d 	.word	0x00008d3d

000030f8 <prvNotifyQueueSetContainer>:
    30f8:	b5f0      	push	{r4, r5, r6, r7, lr}
    30fa:	46ce      	mov	lr, r9
    30fc:	4647      	mov	r7, r8
    30fe:	b580      	push	{r7, lr}
    3100:	b083      	sub	sp, #12
    3102:	9001      	str	r0, [sp, #4]
    3104:	9100      	str	r1, [sp, #0]
    3106:	6c84      	ldr	r4, [r0, #72]	; 0x48
    3108:	2c00      	cmp	r4, #0
    310a:	d005      	beq.n	3118 <prvNotifyQueueSetContainer+0x20>
    310c:	6ba2      	ldr	r2, [r4, #56]	; 0x38
    310e:	6be3      	ldr	r3, [r4, #60]	; 0x3c
    3110:	429a      	cmp	r2, r3
    3112:	d303      	bcc.n	311c <prvNotifyQueueSetContainer+0x24>
    3114:	b672      	cpsid	i
    3116:	e7fe      	b.n	3116 <prvNotifyQueueSetContainer+0x1e>
    3118:	b672      	cpsid	i
    311a:	e7fe      	b.n	311a <prvNotifyQueueSetContainer+0x22>
    311c:	6ba2      	ldr	r2, [r4, #56]	; 0x38
    311e:	2600      	movs	r6, #0
    3120:	4293      	cmp	r3, r2
    3122:	d805      	bhi.n	3130 <prvNotifyQueueSetContainer+0x38>
    3124:	0030      	movs	r0, r6
    3126:	b003      	add	sp, #12
    3128:	bc0c      	pop	{r2, r3}
    312a:	4690      	mov	r8, r2
    312c:	4699      	mov	r9, r3
    312e:	bdf0      	pop	{r4, r5, r6, r7, pc}
    3130:	2345      	movs	r3, #69	; 0x45
    3132:	5ce5      	ldrb	r5, [r4, r3]
    3134:	b26d      	sxtb	r5, r5
    3136:	4b2c      	ldr	r3, [pc, #176]	; (31e8 <prvNotifyQueueSetContainer+0xf0>)
    3138:	4798      	blx	r3
    313a:	4b2c      	ldr	r3, [pc, #176]	; (31ec <prvNotifyQueueSetContainer+0xf4>)
    313c:	4798      	blx	r3
    313e:	4b2c      	ldr	r3, [pc, #176]	; (31f0 <prvNotifyQueueSetContainer+0xf8>)
    3140:	881b      	ldrh	r3, [r3, #0]
    3142:	4203      	tst	r3, r0
    3144:	d01e      	beq.n	3184 <prvNotifyQueueSetContainer+0x8c>
    3146:	0020      	movs	r0, r4
    3148:	4b2a      	ldr	r3, [pc, #168]	; (31f4 <prvNotifyQueueSetContainer+0xfc>)
    314a:	4798      	blx	r3
    314c:	4b28      	ldr	r3, [pc, #160]	; (31f0 <prvNotifyQueueSetContainer+0xf8>)
    314e:	881b      	ldrh	r3, [r3, #0]
    3150:	4203      	tst	r3, r0
    3152:	d017      	beq.n	3184 <prvNotifyQueueSetContainer+0x8c>
    3154:	3625      	adds	r6, #37	; 0x25
    3156:	9b00      	ldr	r3, [sp, #0]
    3158:	2b00      	cmp	r3, #0
    315a:	d106      	bne.n	316a <prvNotifyQueueSetContainer+0x72>
    315c:	0020      	movs	r0, r4
    315e:	4b26      	ldr	r3, [pc, #152]	; (31f8 <prvNotifyQueueSetContainer+0x100>)
    3160:	4798      	blx	r3
    3162:	4b26      	ldr	r3, [pc, #152]	; (31fc <prvNotifyQueueSetContainer+0x104>)
    3164:	5c1e      	ldrb	r6, [r3, r0]
    3166:	3620      	adds	r6, #32
    3168:	b2f6      	uxtb	r6, r6
    316a:	0020      	movs	r0, r4
    316c:	4b22      	ldr	r3, [pc, #136]	; (31f8 <prvNotifyQueueSetContainer+0x100>)
    316e:	4798      	blx	r3
    3170:	4b22      	ldr	r3, [pc, #136]	; (31fc <prvNotifyQueueSetContainer+0x104>)
    3172:	5c1f      	ldrb	r7, [r3, r0]
    3174:	0020      	movs	r0, r4
    3176:	4b22      	ldr	r3, [pc, #136]	; (3200 <prvNotifyQueueSetContainer+0x108>)
    3178:	4798      	blx	r3
    317a:	b2c2      	uxtb	r2, r0
    317c:	0039      	movs	r1, r7
    317e:	0030      	movs	r0, r6
    3180:	4b20      	ldr	r3, [pc, #128]	; (3204 <prvNotifyQueueSetContainer+0x10c>)
    3182:	4798      	blx	r3
    3184:	0020      	movs	r0, r4
    3186:	4f1c      	ldr	r7, [pc, #112]	; (31f8 <prvNotifyQueueSetContainer+0x100>)
    3188:	47b8      	blx	r7
    318a:	4e1c      	ldr	r6, [pc, #112]	; (31fc <prvNotifyQueueSetContainer+0x104>)
    318c:	5c33      	ldrb	r3, [r6, r0]
    318e:	4698      	mov	r8, r3
    3190:	0020      	movs	r0, r4
    3192:	4b1b      	ldr	r3, [pc, #108]	; (3200 <prvNotifyQueueSetContainer+0x108>)
    3194:	4798      	blx	r3
    3196:	b2c3      	uxtb	r3, r0
    3198:	4699      	mov	r9, r3
    319a:	0020      	movs	r0, r4
    319c:	47b8      	blx	r7
    319e:	5c33      	ldrb	r3, [r6, r0]
    31a0:	2b02      	cmp	r3, #2
    31a2:	d019      	beq.n	31d8 <prvNotifyQueueSetContainer+0xe0>
    31a4:	6ba2      	ldr	r2, [r4, #56]	; 0x38
    31a6:	3201      	adds	r2, #1
    31a8:	b2d2      	uxtb	r2, r2
    31aa:	4649      	mov	r1, r9
    31ac:	4640      	mov	r0, r8
    31ae:	4b16      	ldr	r3, [pc, #88]	; (3208 <prvNotifyQueueSetContainer+0x110>)
    31b0:	4798      	blx	r3
    31b2:	9a00      	ldr	r2, [sp, #0]
    31b4:	a901      	add	r1, sp, #4
    31b6:	0020      	movs	r0, r4
    31b8:	4b14      	ldr	r3, [pc, #80]	; (320c <prvNotifyQueueSetContainer+0x114>)
    31ba:	4798      	blx	r3
    31bc:	0006      	movs	r6, r0
    31be:	1c6b      	adds	r3, r5, #1
    31c0:	d10c      	bne.n	31dc <prvNotifyQueueSetContainer+0xe4>
    31c2:	6a63      	ldr	r3, [r4, #36]	; 0x24
    31c4:	2b00      	cmp	r3, #0
    31c6:	d0ad      	beq.n	3124 <prvNotifyQueueSetContainer+0x2c>
    31c8:	0020      	movs	r0, r4
    31ca:	3024      	adds	r0, #36	; 0x24
    31cc:	4b10      	ldr	r3, [pc, #64]	; (3210 <prvNotifyQueueSetContainer+0x118>)
    31ce:	4798      	blx	r3
    31d0:	2800      	cmp	r0, #0
    31d2:	d0a7      	beq.n	3124 <prvNotifyQueueSetContainer+0x2c>
    31d4:	2601      	movs	r6, #1
    31d6:	e7a5      	b.n	3124 <prvNotifyQueueSetContainer+0x2c>
    31d8:	2200      	movs	r2, #0
    31da:	e7e6      	b.n	31aa <prvNotifyQueueSetContainer+0xb2>
    31dc:	3501      	adds	r5, #1
    31de:	b26d      	sxtb	r5, r5
    31e0:	2345      	movs	r3, #69	; 0x45
    31e2:	54e5      	strb	r5, [r4, r3]
    31e4:	e79e      	b.n	3124 <prvNotifyQueueSetContainer+0x2c>
    31e6:	46c0      	nop			; (mov r8, r8)
    31e8:	00001d39 	.word	0x00001d39
    31ec:	00001c81 	.word	0x00001c81
    31f0:	20000020 	.word	0x20000020
    31f4:	00001ce5 	.word	0x00001ce5
    31f8:	00001c65 	.word	0x00001c65
    31fc:	20000018 	.word	0x20000018
    3200:	00001cd5 	.word	0x00001cd5
    3204:	00002971 	.word	0x00002971
    3208:	00002445 	.word	0x00002445
    320c:	0000307d 	.word	0x0000307d
    3210:	00004cad 	.word	0x00004cad

00003214 <prvCopyDataFromQueue>:
    3214:	b510      	push	{r4, lr}
    3216:	000c      	movs	r4, r1
    3218:	6c02      	ldr	r2, [r0, #64]	; 0x40
    321a:	2a00      	cmp	r2, #0
    321c:	d00b      	beq.n	3236 <prvCopyDataFromQueue+0x22>
    321e:	68c3      	ldr	r3, [r0, #12]
    3220:	189b      	adds	r3, r3, r2
    3222:	60c3      	str	r3, [r0, #12]
    3224:	6841      	ldr	r1, [r0, #4]
    3226:	428b      	cmp	r3, r1
    3228:	d301      	bcc.n	322e <prvCopyDataFromQueue+0x1a>
    322a:	6803      	ldr	r3, [r0, #0]
    322c:	60c3      	str	r3, [r0, #12]
    322e:	68c1      	ldr	r1, [r0, #12]
    3230:	0020      	movs	r0, r4
    3232:	4b01      	ldr	r3, [pc, #4]	; (3238 <prvCopyDataFromQueue+0x24>)
    3234:	4798      	blx	r3
    3236:	bd10      	pop	{r4, pc}
    3238:	00008d3d 	.word	0x00008d3d

0000323c <prvUnlockQueue>:
    323c:	b5f8      	push	{r3, r4, r5, r6, r7, lr}
    323e:	0007      	movs	r7, r0
    3240:	4b25      	ldr	r3, [pc, #148]	; (32d8 <prvUnlockQueue+0x9c>)
    3242:	4798      	blx	r3
    3244:	2345      	movs	r3, #69	; 0x45
    3246:	5cfc      	ldrb	r4, [r7, r3]
    3248:	b264      	sxtb	r4, r4
    324a:	2c00      	cmp	r4, #0
    324c:	dd1c      	ble.n	3288 <prvUnlockQueue+0x4c>
    324e:	4e23      	ldr	r6, [pc, #140]	; (32dc <prvUnlockQueue+0xa0>)
    3250:	4d23      	ldr	r5, [pc, #140]	; (32e0 <prvUnlockQueue+0xa4>)
    3252:	e00b      	b.n	326c <prvUnlockQueue+0x30>
    3254:	6a7b      	ldr	r3, [r7, #36]	; 0x24
    3256:	2b00      	cmp	r3, #0
    3258:	d016      	beq.n	3288 <prvUnlockQueue+0x4c>
    325a:	0038      	movs	r0, r7
    325c:	3024      	adds	r0, #36	; 0x24
    325e:	47a8      	blx	r5
    3260:	2800      	cmp	r0, #0
    3262:	d10e      	bne.n	3282 <prvUnlockQueue+0x46>
    3264:	3c01      	subs	r4, #1
    3266:	b264      	sxtb	r4, r4
    3268:	2c00      	cmp	r4, #0
    326a:	d00d      	beq.n	3288 <prvUnlockQueue+0x4c>
    326c:	6cbb      	ldr	r3, [r7, #72]	; 0x48
    326e:	2b00      	cmp	r3, #0
    3270:	d0f0      	beq.n	3254 <prvUnlockQueue+0x18>
    3272:	2100      	movs	r1, #0
    3274:	0038      	movs	r0, r7
    3276:	47b0      	blx	r6
    3278:	2800      	cmp	r0, #0
    327a:	d0f3      	beq.n	3264 <prvUnlockQueue+0x28>
    327c:	4b19      	ldr	r3, [pc, #100]	; (32e4 <prvUnlockQueue+0xa8>)
    327e:	4798      	blx	r3
    3280:	e7f0      	b.n	3264 <prvUnlockQueue+0x28>
    3282:	4b18      	ldr	r3, [pc, #96]	; (32e4 <prvUnlockQueue+0xa8>)
    3284:	4798      	blx	r3
    3286:	e7ed      	b.n	3264 <prvUnlockQueue+0x28>
    3288:	22ff      	movs	r2, #255	; 0xff
    328a:	2345      	movs	r3, #69	; 0x45
    328c:	54fa      	strb	r2, [r7, r3]
    328e:	4b16      	ldr	r3, [pc, #88]	; (32e8 <prvUnlockQueue+0xac>)
    3290:	4798      	blx	r3
    3292:	4b11      	ldr	r3, [pc, #68]	; (32d8 <prvUnlockQueue+0x9c>)
    3294:	4798      	blx	r3
    3296:	2344      	movs	r3, #68	; 0x44
    3298:	5cfc      	ldrb	r4, [r7, r3]
    329a:	b264      	sxtb	r4, r4
    329c:	2c00      	cmp	r4, #0
    329e:	dd14      	ble.n	32ca <prvUnlockQueue+0x8e>
    32a0:	693b      	ldr	r3, [r7, #16]
    32a2:	2b00      	cmp	r3, #0
    32a4:	d011      	beq.n	32ca <prvUnlockQueue+0x8e>
    32a6:	003d      	movs	r5, r7
    32a8:	3510      	adds	r5, #16
    32aa:	4e0d      	ldr	r6, [pc, #52]	; (32e0 <prvUnlockQueue+0xa4>)
    32ac:	e006      	b.n	32bc <prvUnlockQueue+0x80>
    32ae:	3c01      	subs	r4, #1
    32b0:	b264      	sxtb	r4, r4
    32b2:	2c00      	cmp	r4, #0
    32b4:	d009      	beq.n	32ca <prvUnlockQueue+0x8e>
    32b6:	693b      	ldr	r3, [r7, #16]
    32b8:	2b00      	cmp	r3, #0
    32ba:	d006      	beq.n	32ca <prvUnlockQueue+0x8e>
    32bc:	0028      	movs	r0, r5
    32be:	47b0      	blx	r6
    32c0:	2800      	cmp	r0, #0
    32c2:	d0f4      	beq.n	32ae <prvUnlockQueue+0x72>
    32c4:	4b07      	ldr	r3, [pc, #28]	; (32e4 <prvUnlockQueue+0xa8>)
    32c6:	4798      	blx	r3
    32c8:	e7f1      	b.n	32ae <prvUnlockQueue+0x72>
    32ca:	22ff      	movs	r2, #255	; 0xff
    32cc:	2344      	movs	r3, #68	; 0x44
    32ce:	54fa      	strb	r2, [r7, r3]
    32d0:	4b05      	ldr	r3, [pc, #20]	; (32e8 <prvUnlockQueue+0xac>)
    32d2:	4798      	blx	r3
    32d4:	bdf8      	pop	{r3, r4, r5, r6, r7, pc}
    32d6:	46c0      	nop			; (mov r8, r8)
    32d8:	00002ef1 	.word	0x00002ef1
    32dc:	000030f9 	.word	0x000030f9
    32e0:	00004cad 	.word	0x00004cad
    32e4:	00004de9 	.word	0x00004de9
    32e8:	00002f09 	.word	0x00002f09

000032ec <xQueueGenericReset>:
    32ec:	b570      	push	{r4, r5, r6, lr}
    32ee:	0004      	movs	r4, r0
    32f0:	000d      	movs	r5, r1
    32f2:	2800      	cmp	r0, #0
    32f4:	d021      	beq.n	333a <xQueueGenericReset+0x4e>
    32f6:	4b17      	ldr	r3, [pc, #92]	; (3354 <xQueueGenericReset+0x68>)
    32f8:	4798      	blx	r3
    32fa:	6822      	ldr	r2, [r4, #0]
    32fc:	6c21      	ldr	r1, [r4, #64]	; 0x40
    32fe:	6be3      	ldr	r3, [r4, #60]	; 0x3c
    3300:	434b      	muls	r3, r1
    3302:	18d0      	adds	r0, r2, r3
    3304:	6060      	str	r0, [r4, #4]
    3306:	2000      	movs	r0, #0
    3308:	63a0      	str	r0, [r4, #56]	; 0x38
    330a:	60a2      	str	r2, [r4, #8]
    330c:	1a5b      	subs	r3, r3, r1
    330e:	18d3      	adds	r3, r2, r3
    3310:	60e3      	str	r3, [r4, #12]
    3312:	23ff      	movs	r3, #255	; 0xff
    3314:	2244      	movs	r2, #68	; 0x44
    3316:	54a3      	strb	r3, [r4, r2]
    3318:	3201      	adds	r2, #1
    331a:	54a3      	strb	r3, [r4, r2]
    331c:	2d00      	cmp	r5, #0
    331e:	d111      	bne.n	3344 <xQueueGenericReset+0x58>
    3320:	6923      	ldr	r3, [r4, #16]
    3322:	2b00      	cmp	r3, #0
    3324:	d005      	beq.n	3332 <xQueueGenericReset+0x46>
    3326:	0020      	movs	r0, r4
    3328:	3010      	adds	r0, #16
    332a:	4b0b      	ldr	r3, [pc, #44]	; (3358 <xQueueGenericReset+0x6c>)
    332c:	4798      	blx	r3
    332e:	2800      	cmp	r0, #0
    3330:	d105      	bne.n	333e <xQueueGenericReset+0x52>
    3332:	4b0a      	ldr	r3, [pc, #40]	; (335c <xQueueGenericReset+0x70>)
    3334:	4798      	blx	r3
    3336:	2001      	movs	r0, #1
    3338:	bd70      	pop	{r4, r5, r6, pc}
    333a:	b672      	cpsid	i
    333c:	e7fe      	b.n	333c <xQueueGenericReset+0x50>
    333e:	4b08      	ldr	r3, [pc, #32]	; (3360 <xQueueGenericReset+0x74>)
    3340:	4798      	blx	r3
    3342:	e7f6      	b.n	3332 <xQueueGenericReset+0x46>
    3344:	0020      	movs	r0, r4
    3346:	3010      	adds	r0, #16
    3348:	4d06      	ldr	r5, [pc, #24]	; (3364 <xQueueGenericReset+0x78>)
    334a:	47a8      	blx	r5
    334c:	0020      	movs	r0, r4
    334e:	3024      	adds	r0, #36	; 0x24
    3350:	47a8      	blx	r5
    3352:	e7ee      	b.n	3332 <xQueueGenericReset+0x46>
    3354:	00002ef1 	.word	0x00002ef1
    3358:	00004cad 	.word	0x00004cad
    335c:	00002f09 	.word	0x00002f09
    3360:	00002ee1 	.word	0x00002ee1
    3364:	00002d55 	.word	0x00002d55

00003368 <xQueueGenericCreate>:
    3368:	b5f8      	push	{r3, r4, r5, r6, r7, lr}
    336a:	0006      	movs	r6, r0
    336c:	000d      	movs	r5, r1
    336e:	0017      	movs	r7, r2
    3370:	2800      	cmp	r0, #0
    3372:	d101      	bne.n	3378 <xQueueGenericCreate+0x10>
    3374:	b672      	cpsid	i
    3376:	e7fe      	b.n	3376 <xQueueGenericCreate+0xe>
    3378:	0008      	movs	r0, r1
    337a:	4370      	muls	r0, r6
    337c:	3054      	adds	r0, #84	; 0x54
    337e:	4b38      	ldr	r3, [pc, #224]	; (3460 <xQueueGenericCreate+0xf8>)
    3380:	4798      	blx	r3
    3382:	1e04      	subs	r4, r0, #0
    3384:	d05b      	beq.n	343e <xQueueGenericCreate+0xd6>
    3386:	2d00      	cmp	r5, #0
    3388:	d13b      	bne.n	3402 <xQueueGenericCreate+0x9a>
    338a:	6020      	str	r0, [r4, #0]
    338c:	63e6      	str	r6, [r4, #60]	; 0x3c
    338e:	6425      	str	r5, [r4, #64]	; 0x40
    3390:	2101      	movs	r1, #1
    3392:	0020      	movs	r0, r4
    3394:	4b33      	ldr	r3, [pc, #204]	; (3464 <xQueueGenericCreate+0xfc>)
    3396:	4798      	blx	r3
    3398:	2350      	movs	r3, #80	; 0x50
    339a:	54e7      	strb	r7, [r4, r3]
    339c:	2300      	movs	r3, #0
    339e:	64a3      	str	r3, [r4, #72]	; 0x48
    33a0:	0020      	movs	r0, r4
    33a2:	4e31      	ldr	r6, [pc, #196]	; (3468 <xQueueGenericCreate+0x100>)
    33a4:	47b0      	blx	r6
    33a6:	4d31      	ldr	r5, [pc, #196]	; (346c <xQueueGenericCreate+0x104>)
    33a8:	5c28      	ldrb	r0, [r5, r0]
    33aa:	4b31      	ldr	r3, [pc, #196]	; (3470 <xQueueGenericCreate+0x108>)
    33ac:	4798      	blx	r3
    33ae:	b281      	uxth	r1, r0
    33b0:	0020      	movs	r0, r4
    33b2:	4b30      	ldr	r3, [pc, #192]	; (3474 <xQueueGenericCreate+0x10c>)
    33b4:	4798      	blx	r3
    33b6:	4b30      	ldr	r3, [pc, #192]	; (3478 <xQueueGenericCreate+0x110>)
    33b8:	8819      	ldrh	r1, [r3, #0]
    33ba:	0020      	movs	r0, r4
    33bc:	4b2f      	ldr	r3, [pc, #188]	; (347c <xQueueGenericCreate+0x114>)
    33be:	4798      	blx	r3
    33c0:	0020      	movs	r0, r4
    33c2:	47b0      	blx	r6
    33c4:	5c2d      	ldrb	r5, [r5, r0]
    33c6:	0020      	movs	r0, r4
    33c8:	4b2d      	ldr	r3, [pc, #180]	; (3480 <xQueueGenericCreate+0x118>)
    33ca:	4798      	blx	r3
    33cc:	b2c1      	uxtb	r1, r0
    33ce:	0028      	movs	r0, r5
    33d0:	4b2c      	ldr	r3, [pc, #176]	; (3484 <xQueueGenericCreate+0x11c>)
    33d2:	4798      	blx	r3
    33d4:	4b2c      	ldr	r3, [pc, #176]	; (3488 <xQueueGenericCreate+0x120>)
    33d6:	4798      	blx	r3
    33d8:	4b2c      	ldr	r3, [pc, #176]	; (348c <xQueueGenericCreate+0x124>)
    33da:	4798      	blx	r3
    33dc:	4b2c      	ldr	r3, [pc, #176]	; (3490 <xQueueGenericCreate+0x128>)
    33de:	881b      	ldrh	r3, [r3, #0]
    33e0:	4203      	tst	r3, r0
    33e2:	d112      	bne.n	340a <xQueueGenericCreate+0xa2>
    33e4:	0020      	movs	r0, r4
    33e6:	4b20      	ldr	r3, [pc, #128]	; (3468 <xQueueGenericCreate+0x100>)
    33e8:	4798      	blx	r3
    33ea:	4b20      	ldr	r3, [pc, #128]	; (346c <xQueueGenericCreate+0x104>)
    33ec:	5c1d      	ldrb	r5, [r3, r0]
    33ee:	0020      	movs	r0, r4
    33f0:	4b23      	ldr	r3, [pc, #140]	; (3480 <xQueueGenericCreate+0x118>)
    33f2:	4798      	blx	r3
    33f4:	b2c1      	uxtb	r1, r0
    33f6:	2200      	movs	r2, #0
    33f8:	0028      	movs	r0, r5
    33fa:	4b26      	ldr	r3, [pc, #152]	; (3494 <xQueueGenericCreate+0x12c>)
    33fc:	4798      	blx	r3
    33fe:	0020      	movs	r0, r4
    3400:	bdf8      	pop	{r3, r4, r5, r6, r7, pc}
    3402:	0003      	movs	r3, r0
    3404:	3354      	adds	r3, #84	; 0x54
    3406:	6003      	str	r3, [r0, #0]
    3408:	e7c0      	b.n	338c <xQueueGenericCreate+0x24>
    340a:	0020      	movs	r0, r4
    340c:	4b22      	ldr	r3, [pc, #136]	; (3498 <xQueueGenericCreate+0x130>)
    340e:	4798      	blx	r3
    3410:	4b1f      	ldr	r3, [pc, #124]	; (3490 <xQueueGenericCreate+0x128>)
    3412:	881b      	ldrh	r3, [r3, #0]
    3414:	4203      	tst	r3, r0
    3416:	d0e5      	beq.n	33e4 <xQueueGenericCreate+0x7c>
    3418:	0020      	movs	r0, r4
    341a:	4f13      	ldr	r7, [pc, #76]	; (3468 <xQueueGenericCreate+0x100>)
    341c:	47b8      	blx	r7
    341e:	4e13      	ldr	r6, [pc, #76]	; (346c <xQueueGenericCreate+0x104>)
    3420:	5c35      	ldrb	r5, [r6, r0]
    3422:	3518      	adds	r5, #24
    3424:	b2ed      	uxtb	r5, r5
    3426:	0020      	movs	r0, r4
    3428:	47b8      	blx	r7
    342a:	5c36      	ldrb	r6, [r6, r0]
    342c:	0020      	movs	r0, r4
    342e:	4b14      	ldr	r3, [pc, #80]	; (3480 <xQueueGenericCreate+0x118>)
    3430:	4798      	blx	r3
    3432:	b2c2      	uxtb	r2, r0
    3434:	0031      	movs	r1, r6
    3436:	0028      	movs	r0, r5
    3438:	4b18      	ldr	r3, [pc, #96]	; (349c <xQueueGenericCreate+0x134>)
    343a:	4798      	blx	r3
    343c:	e7d2      	b.n	33e4 <xQueueGenericCreate+0x7c>
    343e:	4b12      	ldr	r3, [pc, #72]	; (3488 <xQueueGenericCreate+0x120>)
    3440:	4798      	blx	r3
    3442:	4b12      	ldr	r3, [pc, #72]	; (348c <xQueueGenericCreate+0x124>)
    3444:	4798      	blx	r3
    3446:	4b12      	ldr	r3, [pc, #72]	; (3490 <xQueueGenericCreate+0x128>)
    3448:	881b      	ldrh	r3, [r3, #0]
    344a:	4203      	tst	r3, r0
    344c:	d0d7      	beq.n	33fe <xQueueGenericCreate+0x96>
    344e:	4b07      	ldr	r3, [pc, #28]	; (346c <xQueueGenericCreate+0x104>)
    3450:	5dd8      	ldrb	r0, [r3, r7]
    3452:	3040      	adds	r0, #64	; 0x40
    3454:	b2c0      	uxtb	r0, r0
    3456:	2100      	movs	r1, #0
    3458:	4b11      	ldr	r3, [pc, #68]	; (34a0 <xQueueGenericCreate+0x138>)
    345a:	4798      	blx	r3
    345c:	e7cf      	b.n	33fe <xQueueGenericCreate+0x96>
    345e:	46c0      	nop			; (mov r8, r8)
    3460:	00002fb5 	.word	0x00002fb5
    3464:	000032ed 	.word	0x000032ed
    3468:	00001c65 	.word	0x00001c65
    346c:	20000018 	.word	0x20000018
    3470:	000024dd 	.word	0x000024dd
    3474:	00001cf5 	.word	0x00001cf5
    3478:	2000001e 	.word	0x2000001e
    347c:	00001d15 	.word	0x00001d15
    3480:	00001cd5 	.word	0x00001cd5
    3484:	0000236d 	.word	0x0000236d
    3488:	00001d39 	.word	0x00001d39
    348c:	00001c81 	.word	0x00001c81
    3490:	20000020 	.word	0x20000020
    3494:	00002445 	.word	0x00002445
    3498:	00001ce5 	.word	0x00001ce5
    349c:	00002971 	.word	0x00002971
    34a0:	00002b0d 	.word	0x00002b0d

000034a4 <xQueueGenericSend>:
    34a4:	b5f0      	push	{r4, r5, r6, r7, lr}
    34a6:	46ce      	mov	lr, r9
    34a8:	4647      	mov	r7, r8
    34aa:	b580      	push	{r7, lr}
    34ac:	b085      	sub	sp, #20
    34ae:	0004      	movs	r4, r0
    34b0:	9100      	str	r1, [sp, #0]
    34b2:	9201      	str	r2, [sp, #4]
    34b4:	001d      	movs	r5, r3
    34b6:	2800      	cmp	r0, #0
    34b8:	d00d      	beq.n	34d6 <xQueueGenericSend+0x32>
    34ba:	9b00      	ldr	r3, [sp, #0]
    34bc:	2b00      	cmp	r3, #0
    34be:	d00c      	beq.n	34da <xQueueGenericSend+0x36>
    34c0:	2d02      	cmp	r5, #2
    34c2:	d00f      	beq.n	34e4 <xQueueGenericSend+0x40>
    34c4:	4bab      	ldr	r3, [pc, #684]	; (3774 <xQueueGenericSend+0x2d0>)
    34c6:	4798      	blx	r3
    34c8:	2800      	cmp	r0, #0
    34ca:	d110      	bne.n	34ee <xQueueGenericSend+0x4a>
    34cc:	9b01      	ldr	r3, [sp, #4]
    34ce:	2b00      	cmp	r3, #0
    34d0:	d010      	beq.n	34f4 <xQueueGenericSend+0x50>
    34d2:	b672      	cpsid	i
    34d4:	e7fe      	b.n	34d4 <xQueueGenericSend+0x30>
    34d6:	b672      	cpsid	i
    34d8:	e7fe      	b.n	34d8 <xQueueGenericSend+0x34>
    34da:	6c03      	ldr	r3, [r0, #64]	; 0x40
    34dc:	2b00      	cmp	r3, #0
    34de:	d0ef      	beq.n	34c0 <xQueueGenericSend+0x1c>
    34e0:	b672      	cpsid	i
    34e2:	e7fe      	b.n	34e2 <xQueueGenericSend+0x3e>
    34e4:	6be3      	ldr	r3, [r4, #60]	; 0x3c
    34e6:	2b01      	cmp	r3, #1
    34e8:	d0ec      	beq.n	34c4 <xQueueGenericSend+0x20>
    34ea:	b672      	cpsid	i
    34ec:	e7fe      	b.n	34ec <xQueueGenericSend+0x48>
    34ee:	2700      	movs	r7, #0
    34f0:	4ea1      	ldr	r6, [pc, #644]	; (3778 <xQueueGenericSend+0x2d4>)
    34f2:	e0bc      	b.n	366e <xQueueGenericSend+0x1ca>
    34f4:	2700      	movs	r7, #0
    34f6:	e7fb      	b.n	34f0 <xQueueGenericSend+0x4c>
    34f8:	4ba0      	ldr	r3, [pc, #640]	; (377c <xQueueGenericSend+0x2d8>)
    34fa:	4798      	blx	r3
    34fc:	4ba0      	ldr	r3, [pc, #640]	; (3780 <xQueueGenericSend+0x2dc>)
    34fe:	4798      	blx	r3
    3500:	4ba0      	ldr	r3, [pc, #640]	; (3784 <xQueueGenericSend+0x2e0>)
    3502:	881b      	ldrh	r3, [r3, #0]
    3504:	4203      	tst	r3, r0
    3506:	d01d      	beq.n	3544 <xQueueGenericSend+0xa0>
    3508:	0020      	movs	r0, r4
    350a:	4b9f      	ldr	r3, [pc, #636]	; (3788 <xQueueGenericSend+0x2e4>)
    350c:	4798      	blx	r3
    350e:	4b9d      	ldr	r3, [pc, #628]	; (3784 <xQueueGenericSend+0x2e0>)
    3510:	881b      	ldrh	r3, [r3, #0]
    3512:	4203      	tst	r3, r0
    3514:	d016      	beq.n	3544 <xQueueGenericSend+0xa0>
    3516:	2725      	movs	r7, #37	; 0x25
    3518:	2d00      	cmp	r5, #0
    351a:	d106      	bne.n	352a <xQueueGenericSend+0x86>
    351c:	0020      	movs	r0, r4
    351e:	4b9b      	ldr	r3, [pc, #620]	; (378c <xQueueGenericSend+0x2e8>)
    3520:	4798      	blx	r3
    3522:	4b9b      	ldr	r3, [pc, #620]	; (3790 <xQueueGenericSend+0x2ec>)
    3524:	5c1f      	ldrb	r7, [r3, r0]
    3526:	3720      	adds	r7, #32
    3528:	b2ff      	uxtb	r7, r7
    352a:	0020      	movs	r0, r4
    352c:	4b97      	ldr	r3, [pc, #604]	; (378c <xQueueGenericSend+0x2e8>)
    352e:	4798      	blx	r3
    3530:	4b97      	ldr	r3, [pc, #604]	; (3790 <xQueueGenericSend+0x2ec>)
    3532:	5c1e      	ldrb	r6, [r3, r0]
    3534:	0020      	movs	r0, r4
    3536:	4b97      	ldr	r3, [pc, #604]	; (3794 <xQueueGenericSend+0x2f0>)
    3538:	4798      	blx	r3
    353a:	b2c2      	uxtb	r2, r0
    353c:	0031      	movs	r1, r6
    353e:	0038      	movs	r0, r7
    3540:	4b95      	ldr	r3, [pc, #596]	; (3798 <xQueueGenericSend+0x2f4>)
    3542:	4798      	blx	r3
    3544:	0020      	movs	r0, r4
    3546:	4e91      	ldr	r6, [pc, #580]	; (378c <xQueueGenericSend+0x2e8>)
    3548:	47b0      	blx	r6
    354a:	4f91      	ldr	r7, [pc, #580]	; (3790 <xQueueGenericSend+0x2ec>)
    354c:	5c3b      	ldrb	r3, [r7, r0]
    354e:	4698      	mov	r8, r3
    3550:	0020      	movs	r0, r4
    3552:	4b90      	ldr	r3, [pc, #576]	; (3794 <xQueueGenericSend+0x2f0>)
    3554:	4798      	blx	r3
    3556:	b2c3      	uxtb	r3, r0
    3558:	4699      	mov	r9, r3
    355a:	0020      	movs	r0, r4
    355c:	47b0      	blx	r6
    355e:	5c3b      	ldrb	r3, [r7, r0]
    3560:	2b02      	cmp	r3, #2
    3562:	d01f      	beq.n	35a4 <xQueueGenericSend+0x100>
    3564:	6ba2      	ldr	r2, [r4, #56]	; 0x38
    3566:	3201      	adds	r2, #1
    3568:	b2d2      	uxtb	r2, r2
    356a:	4649      	mov	r1, r9
    356c:	4640      	mov	r0, r8
    356e:	4b8b      	ldr	r3, [pc, #556]	; (379c <xQueueGenericSend+0x2f8>)
    3570:	4798      	blx	r3
    3572:	002a      	movs	r2, r5
    3574:	9900      	ldr	r1, [sp, #0]
    3576:	0020      	movs	r0, r4
    3578:	4b89      	ldr	r3, [pc, #548]	; (37a0 <xQueueGenericSend+0x2fc>)
    357a:	4798      	blx	r3
    357c:	6ca3      	ldr	r3, [r4, #72]	; 0x48
    357e:	2b00      	cmp	r3, #0
    3580:	d012      	beq.n	35a8 <xQueueGenericSend+0x104>
    3582:	0029      	movs	r1, r5
    3584:	0020      	movs	r0, r4
    3586:	4b87      	ldr	r3, [pc, #540]	; (37a4 <xQueueGenericSend+0x300>)
    3588:	4798      	blx	r3
    358a:	2800      	cmp	r0, #0
    358c:	d001      	beq.n	3592 <xQueueGenericSend+0xee>
    358e:	4b86      	ldr	r3, [pc, #536]	; (37a8 <xQueueGenericSend+0x304>)
    3590:	4798      	blx	r3
    3592:	4b86      	ldr	r3, [pc, #536]	; (37ac <xQueueGenericSend+0x308>)
    3594:	4798      	blx	r3
    3596:	2301      	movs	r3, #1
    3598:	0018      	movs	r0, r3
    359a:	b005      	add	sp, #20
    359c:	bc0c      	pop	{r2, r3}
    359e:	4690      	mov	r8, r2
    35a0:	4699      	mov	r9, r3
    35a2:	bdf0      	pop	{r4, r5, r6, r7, pc}
    35a4:	2200      	movs	r2, #0
    35a6:	e7e0      	b.n	356a <xQueueGenericSend+0xc6>
    35a8:	6a63      	ldr	r3, [r4, #36]	; 0x24
    35aa:	2b00      	cmp	r3, #0
    35ac:	d008      	beq.n	35c0 <xQueueGenericSend+0x11c>
    35ae:	0020      	movs	r0, r4
    35b0:	3024      	adds	r0, #36	; 0x24
    35b2:	4b7f      	ldr	r3, [pc, #508]	; (37b0 <xQueueGenericSend+0x30c>)
    35b4:	4798      	blx	r3
    35b6:	2800      	cmp	r0, #0
    35b8:	d0eb      	beq.n	3592 <xQueueGenericSend+0xee>
    35ba:	4b7b      	ldr	r3, [pc, #492]	; (37a8 <xQueueGenericSend+0x304>)
    35bc:	4798      	blx	r3
    35be:	e7e8      	b.n	3592 <xQueueGenericSend+0xee>
    35c0:	2800      	cmp	r0, #0
    35c2:	d0e6      	beq.n	3592 <xQueueGenericSend+0xee>
    35c4:	4b78      	ldr	r3, [pc, #480]	; (37a8 <xQueueGenericSend+0x304>)
    35c6:	4798      	blx	r3
    35c8:	e7e3      	b.n	3592 <xQueueGenericSend+0xee>
    35ca:	4b78      	ldr	r3, [pc, #480]	; (37ac <xQueueGenericSend+0x308>)
    35cc:	4798      	blx	r3
    35ce:	4b6b      	ldr	r3, [pc, #428]	; (377c <xQueueGenericSend+0x2d8>)
    35d0:	4798      	blx	r3
    35d2:	4b6b      	ldr	r3, [pc, #428]	; (3780 <xQueueGenericSend+0x2dc>)
    35d4:	4798      	blx	r3
    35d6:	4b6b      	ldr	r3, [pc, #428]	; (3784 <xQueueGenericSend+0x2e0>)
    35d8:	881a      	ldrh	r2, [r3, #0]
    35da:	2300      	movs	r3, #0
    35dc:	4202      	tst	r2, r0
    35de:	d0db      	beq.n	3598 <xQueueGenericSend+0xf4>
    35e0:	0020      	movs	r0, r4
    35e2:	4b69      	ldr	r3, [pc, #420]	; (3788 <xQueueGenericSend+0x2e4>)
    35e4:	4798      	blx	r3
    35e6:	4b67      	ldr	r3, [pc, #412]	; (3784 <xQueueGenericSend+0x2e0>)
    35e8:	881a      	ldrh	r2, [r3, #0]
    35ea:	2300      	movs	r3, #0
    35ec:	4202      	tst	r2, r0
    35ee:	d0d3      	beq.n	3598 <xQueueGenericSend+0xf4>
    35f0:	264d      	movs	r6, #77	; 0x4d
    35f2:	2d00      	cmp	r5, #0
    35f4:	d106      	bne.n	3604 <xQueueGenericSend+0x160>
    35f6:	0020      	movs	r0, r4
    35f8:	4b64      	ldr	r3, [pc, #400]	; (378c <xQueueGenericSend+0x2e8>)
    35fa:	4798      	blx	r3
    35fc:	4b64      	ldr	r3, [pc, #400]	; (3790 <xQueueGenericSend+0x2ec>)
    35fe:	5c1e      	ldrb	r6, [r3, r0]
    3600:	3648      	adds	r6, #72	; 0x48
    3602:	b2f6      	uxtb	r6, r6
    3604:	0020      	movs	r0, r4
    3606:	4b61      	ldr	r3, [pc, #388]	; (378c <xQueueGenericSend+0x2e8>)
    3608:	4798      	blx	r3
    360a:	4b61      	ldr	r3, [pc, #388]	; (3790 <xQueueGenericSend+0x2ec>)
    360c:	5c1d      	ldrb	r5, [r3, r0]
    360e:	0020      	movs	r0, r4
    3610:	4b60      	ldr	r3, [pc, #384]	; (3794 <xQueueGenericSend+0x2f0>)
    3612:	4798      	blx	r3
    3614:	b2c2      	uxtb	r2, r0
    3616:	0029      	movs	r1, r5
    3618:	0030      	movs	r0, r6
    361a:	4b5f      	ldr	r3, [pc, #380]	; (3798 <xQueueGenericSend+0x2f4>)
    361c:	4798      	blx	r3
    361e:	2300      	movs	r3, #0
    3620:	e7ba      	b.n	3598 <xQueueGenericSend+0xf4>
    3622:	4b62      	ldr	r3, [pc, #392]	; (37ac <xQueueGenericSend+0x308>)
    3624:	4798      	blx	r3
    3626:	a901      	add	r1, sp, #4
    3628:	a802      	add	r0, sp, #8
    362a:	4b62      	ldr	r3, [pc, #392]	; (37b4 <xQueueGenericSend+0x310>)
    362c:	4798      	blx	r3
    362e:	2800      	cmp	r0, #0
    3630:	d16e      	bne.n	3710 <xQueueGenericSend+0x26c>
    3632:	4b51      	ldr	r3, [pc, #324]	; (3778 <xQueueGenericSend+0x2d4>)
    3634:	4798      	blx	r3
    3636:	6ba3      	ldr	r3, [r4, #56]	; 0x38
    3638:	4699      	mov	r9, r3
    363a:	6be7      	ldr	r7, [r4, #60]	; 0x3c
    363c:	4b5b      	ldr	r3, [pc, #364]	; (37ac <xQueueGenericSend+0x308>)
    363e:	4798      	blx	r3
    3640:	45b9      	cmp	r9, r7
    3642:	d15f      	bne.n	3704 <xQueueGenericSend+0x260>
    3644:	4b4d      	ldr	r3, [pc, #308]	; (377c <xQueueGenericSend+0x2d8>)
    3646:	4798      	blx	r3
    3648:	4b4d      	ldr	r3, [pc, #308]	; (3780 <xQueueGenericSend+0x2dc>)
    364a:	4798      	blx	r3
    364c:	4b4d      	ldr	r3, [pc, #308]	; (3784 <xQueueGenericSend+0x2e0>)
    364e:	881b      	ldrh	r3, [r3, #0]
    3650:	4203      	tst	r3, r0
    3652:	d134      	bne.n	36be <xQueueGenericSend+0x21a>
    3654:	0020      	movs	r0, r4
    3656:	3010      	adds	r0, #16
    3658:	9901      	ldr	r1, [sp, #4]
    365a:	4b57      	ldr	r3, [pc, #348]	; (37b8 <xQueueGenericSend+0x314>)
    365c:	4798      	blx	r3
    365e:	0020      	movs	r0, r4
    3660:	4b56      	ldr	r3, [pc, #344]	; (37bc <xQueueGenericSend+0x318>)
    3662:	4798      	blx	r3
    3664:	4b56      	ldr	r3, [pc, #344]	; (37c0 <xQueueGenericSend+0x31c>)
    3666:	4798      	blx	r3
    3668:	2800      	cmp	r0, #0
    366a:	d048      	beq.n	36fe <xQueueGenericSend+0x25a>
    366c:	2701      	movs	r7, #1
    366e:	47b0      	blx	r6
    3670:	6ba3      	ldr	r3, [r4, #56]	; 0x38
    3672:	6be2      	ldr	r2, [r4, #60]	; 0x3c
    3674:	4293      	cmp	r3, r2
    3676:	d200      	bcs.n	367a <xQueueGenericSend+0x1d6>
    3678:	e73e      	b.n	34f8 <xQueueGenericSend+0x54>
    367a:	2d02      	cmp	r5, #2
    367c:	d100      	bne.n	3680 <xQueueGenericSend+0x1dc>
    367e:	e73b      	b.n	34f8 <xQueueGenericSend+0x54>
    3680:	9b01      	ldr	r3, [sp, #4]
    3682:	2b00      	cmp	r3, #0
    3684:	d0a1      	beq.n	35ca <xQueueGenericSend+0x126>
    3686:	2f00      	cmp	r7, #0
    3688:	d102      	bne.n	3690 <xQueueGenericSend+0x1ec>
    368a:	a802      	add	r0, sp, #8
    368c:	4b4d      	ldr	r3, [pc, #308]	; (37c4 <xQueueGenericSend+0x320>)
    368e:	4798      	blx	r3
    3690:	4b46      	ldr	r3, [pc, #280]	; (37ac <xQueueGenericSend+0x308>)
    3692:	4798      	blx	r3
    3694:	4b4c      	ldr	r3, [pc, #304]	; (37c8 <xQueueGenericSend+0x324>)
    3696:	4798      	blx	r3
    3698:	4b37      	ldr	r3, [pc, #220]	; (3778 <xQueueGenericSend+0x2d4>)
    369a:	4798      	blx	r3
    369c:	2344      	movs	r3, #68	; 0x44
    369e:	5ce3      	ldrb	r3, [r4, r3]
    36a0:	b25b      	sxtb	r3, r3
    36a2:	3301      	adds	r3, #1
    36a4:	d102      	bne.n	36ac <xQueueGenericSend+0x208>
    36a6:	2200      	movs	r2, #0
    36a8:	2344      	movs	r3, #68	; 0x44
    36aa:	54e2      	strb	r2, [r4, r3]
    36ac:	2345      	movs	r3, #69	; 0x45
    36ae:	5ce3      	ldrb	r3, [r4, r3]
    36b0:	b25b      	sxtb	r3, r3
    36b2:	3301      	adds	r3, #1
    36b4:	d1b5      	bne.n	3622 <xQueueGenericSend+0x17e>
    36b6:	2200      	movs	r2, #0
    36b8:	2345      	movs	r3, #69	; 0x45
    36ba:	54e2      	strb	r2, [r4, r3]
    36bc:	e7b1      	b.n	3622 <xQueueGenericSend+0x17e>
    36be:	0020      	movs	r0, r4
    36c0:	4b31      	ldr	r3, [pc, #196]	; (3788 <xQueueGenericSend+0x2e4>)
    36c2:	4798      	blx	r3
    36c4:	4b2f      	ldr	r3, [pc, #188]	; (3784 <xQueueGenericSend+0x2e0>)
    36c6:	881b      	ldrh	r3, [r3, #0]
    36c8:	4203      	tst	r3, r0
    36ca:	d0c3      	beq.n	3654 <xQueueGenericSend+0x1b0>
    36cc:	2775      	movs	r7, #117	; 0x75
    36ce:	2d00      	cmp	r5, #0
    36d0:	d106      	bne.n	36e0 <xQueueGenericSend+0x23c>
    36d2:	0020      	movs	r0, r4
    36d4:	4b2d      	ldr	r3, [pc, #180]	; (378c <xQueueGenericSend+0x2e8>)
    36d6:	4798      	blx	r3
    36d8:	4b2d      	ldr	r3, [pc, #180]	; (3790 <xQueueGenericSend+0x2ec>)
    36da:	5c1f      	ldrb	r7, [r3, r0]
    36dc:	3770      	adds	r7, #112	; 0x70
    36de:	b2ff      	uxtb	r7, r7
    36e0:	0020      	movs	r0, r4
    36e2:	4b2a      	ldr	r3, [pc, #168]	; (378c <xQueueGenericSend+0x2e8>)
    36e4:	4798      	blx	r3
    36e6:	4b2a      	ldr	r3, [pc, #168]	; (3790 <xQueueGenericSend+0x2ec>)
    36e8:	5c1b      	ldrb	r3, [r3, r0]
    36ea:	4699      	mov	r9, r3
    36ec:	0020      	movs	r0, r4
    36ee:	4b29      	ldr	r3, [pc, #164]	; (3794 <xQueueGenericSend+0x2f0>)
    36f0:	4798      	blx	r3
    36f2:	b2c2      	uxtb	r2, r0
    36f4:	4649      	mov	r1, r9
    36f6:	0038      	movs	r0, r7
    36f8:	4b27      	ldr	r3, [pc, #156]	; (3798 <xQueueGenericSend+0x2f4>)
    36fa:	4798      	blx	r3
    36fc:	e7aa      	b.n	3654 <xQueueGenericSend+0x1b0>
    36fe:	4b2a      	ldr	r3, [pc, #168]	; (37a8 <xQueueGenericSend+0x304>)
    3700:	4798      	blx	r3
    3702:	e7b3      	b.n	366c <xQueueGenericSend+0x1c8>
    3704:	0020      	movs	r0, r4
    3706:	4b2d      	ldr	r3, [pc, #180]	; (37bc <xQueueGenericSend+0x318>)
    3708:	4798      	blx	r3
    370a:	4b2d      	ldr	r3, [pc, #180]	; (37c0 <xQueueGenericSend+0x31c>)
    370c:	4798      	blx	r3
    370e:	e7ad      	b.n	366c <xQueueGenericSend+0x1c8>
    3710:	0020      	movs	r0, r4
    3712:	4b2a      	ldr	r3, [pc, #168]	; (37bc <xQueueGenericSend+0x318>)
    3714:	4798      	blx	r3
    3716:	4b2a      	ldr	r3, [pc, #168]	; (37c0 <xQueueGenericSend+0x31c>)
    3718:	4798      	blx	r3
    371a:	4b18      	ldr	r3, [pc, #96]	; (377c <xQueueGenericSend+0x2d8>)
    371c:	4798      	blx	r3
    371e:	4b18      	ldr	r3, [pc, #96]	; (3780 <xQueueGenericSend+0x2dc>)
    3720:	4798      	blx	r3
    3722:	4b18      	ldr	r3, [pc, #96]	; (3784 <xQueueGenericSend+0x2e0>)
    3724:	881a      	ldrh	r2, [r3, #0]
    3726:	2300      	movs	r3, #0
    3728:	4202      	tst	r2, r0
    372a:	d100      	bne.n	372e <xQueueGenericSend+0x28a>
    372c:	e734      	b.n	3598 <xQueueGenericSend+0xf4>
    372e:	0020      	movs	r0, r4
    3730:	4b15      	ldr	r3, [pc, #84]	; (3788 <xQueueGenericSend+0x2e4>)
    3732:	4798      	blx	r3
    3734:	4b13      	ldr	r3, [pc, #76]	; (3784 <xQueueGenericSend+0x2e0>)
    3736:	881a      	ldrh	r2, [r3, #0]
    3738:	2300      	movs	r3, #0
    373a:	4202      	tst	r2, r0
    373c:	d100      	bne.n	3740 <xQueueGenericSend+0x29c>
    373e:	e72b      	b.n	3598 <xQueueGenericSend+0xf4>
    3740:	264d      	movs	r6, #77	; 0x4d
    3742:	2d00      	cmp	r5, #0
    3744:	d106      	bne.n	3754 <xQueueGenericSend+0x2b0>
    3746:	0020      	movs	r0, r4
    3748:	4b10      	ldr	r3, [pc, #64]	; (378c <xQueueGenericSend+0x2e8>)
    374a:	4798      	blx	r3
    374c:	4b10      	ldr	r3, [pc, #64]	; (3790 <xQueueGenericSend+0x2ec>)
    374e:	5c1e      	ldrb	r6, [r3, r0]
    3750:	3648      	adds	r6, #72	; 0x48
    3752:	b2f6      	uxtb	r6, r6
    3754:	0020      	movs	r0, r4
    3756:	4b0d      	ldr	r3, [pc, #52]	; (378c <xQueueGenericSend+0x2e8>)
    3758:	4798      	blx	r3
    375a:	4b0d      	ldr	r3, [pc, #52]	; (3790 <xQueueGenericSend+0x2ec>)
    375c:	5c1d      	ldrb	r5, [r3, r0]
    375e:	0020      	movs	r0, r4
    3760:	4b0c      	ldr	r3, [pc, #48]	; (3794 <xQueueGenericSend+0x2f0>)
    3762:	4798      	blx	r3
    3764:	b2c2      	uxtb	r2, r0
    3766:	0029      	movs	r1, r5
    3768:	0030      	movs	r0, r6
    376a:	4b0b      	ldr	r3, [pc, #44]	; (3798 <xQueueGenericSend+0x2f4>)
    376c:	4798      	blx	r3
    376e:	2300      	movs	r3, #0
    3770:	e712      	b.n	3598 <xQueueGenericSend+0xf4>
    3772:	46c0      	nop			; (mov r8, r8)
    3774:	00004e15 	.word	0x00004e15
    3778:	00002ef1 	.word	0x00002ef1
    377c:	00001d39 	.word	0x00001d39
    3780:	00001c81 	.word	0x00001c81
    3784:	20000020 	.word	0x20000020
    3788:	00001ce5 	.word	0x00001ce5
    378c:	00001c65 	.word	0x00001c65
    3790:	20000018 	.word	0x20000018
    3794:	00001cd5 	.word	0x00001cd5
    3798:	00002971 	.word	0x00002971
    379c:	00002445 	.word	0x00002445
    37a0:	0000307d 	.word	0x0000307d
    37a4:	000030f9 	.word	0x000030f9
    37a8:	00002ee1 	.word	0x00002ee1
    37ac:	00002f09 	.word	0x00002f09
    37b0:	00004cad 	.word	0x00004cad
    37b4:	00004d79 	.word	0x00004d79
    37b8:	00004be5 	.word	0x00004be5
    37bc:	0000323d 	.word	0x0000323d
    37c0:	000047fd 	.word	0x000047fd
    37c4:	00004d61 	.word	0x00004d61
    37c8:	00004655 	.word	0x00004655

000037cc <xQueueCreateMutex>:
    37cc:	b570      	push	{r4, r5, r6, lr}
    37ce:	0002      	movs	r2, r0
    37d0:	2100      	movs	r1, #0
    37d2:	2001      	movs	r0, #1
    37d4:	4b06      	ldr	r3, [pc, #24]	; (37f0 <xQueueCreateMutex+0x24>)
    37d6:	4798      	blx	r3
    37d8:	1e04      	subs	r4, r0, #0
    37da:	d007      	beq.n	37ec <xQueueCreateMutex+0x20>
    37dc:	2300      	movs	r3, #0
    37de:	6043      	str	r3, [r0, #4]
    37e0:	6003      	str	r3, [r0, #0]
    37e2:	60c3      	str	r3, [r0, #12]
    37e4:	2200      	movs	r2, #0
    37e6:	2100      	movs	r1, #0
    37e8:	4d02      	ldr	r5, [pc, #8]	; (37f4 <xQueueCreateMutex+0x28>)
    37ea:	47a8      	blx	r5
    37ec:	0020      	movs	r0, r4
    37ee:	bd70      	pop	{r4, r5, r6, pc}
    37f0:	00003369 	.word	0x00003369
    37f4:	000034a5 	.word	0x000034a5

000037f8 <xQueueGenericSendFromISR>:
    37f8:	b5f0      	push	{r4, r5, r6, r7, lr}
    37fa:	46de      	mov	lr, fp
    37fc:	4647      	mov	r7, r8
    37fe:	b580      	push	{r7, lr}
    3800:	b083      	sub	sp, #12
    3802:	0004      	movs	r4, r0
    3804:	9101      	str	r1, [sp, #4]
    3806:	0016      	movs	r6, r2
    3808:	001f      	movs	r7, r3
    380a:	2800      	cmp	r0, #0
    380c:	d02d      	beq.n	386a <xQueueGenericSendFromISR+0x72>
    380e:	9b01      	ldr	r3, [sp, #4]
    3810:	2b00      	cmp	r3, #0
    3812:	d02c      	beq.n	386e <xQueueGenericSendFromISR+0x76>
    3814:	2f02      	cmp	r7, #2
    3816:	d02f      	beq.n	3878 <xQueueGenericSendFromISR+0x80>
    3818:	4b59      	ldr	r3, [pc, #356]	; (3980 <xQueueGenericSendFromISR+0x188>)
    381a:	4798      	blx	r3
    381c:	9000      	str	r0, [sp, #0]
    381e:	6ba3      	ldr	r3, [r4, #56]	; 0x38
    3820:	6be2      	ldr	r2, [r4, #60]	; 0x3c
    3822:	429a      	cmp	r2, r3
    3824:	d85a      	bhi.n	38dc <xQueueGenericSendFromISR+0xe4>
    3826:	0020      	movs	r0, r4
    3828:	4b56      	ldr	r3, [pc, #344]	; (3984 <xQueueGenericSendFromISR+0x18c>)
    382a:	4798      	blx	r3
    382c:	4b56      	ldr	r3, [pc, #344]	; (3988 <xQueueGenericSendFromISR+0x190>)
    382e:	881b      	ldrh	r3, [r3, #0]
    3830:	2500      	movs	r5, #0
    3832:	4203      	tst	r3, r0
    3834:	d100      	bne.n	3838 <xQueueGenericSendFromISR+0x40>
    3836:	e09a      	b.n	396e <xQueueGenericSendFromISR+0x176>
    3838:	355d      	adds	r5, #93	; 0x5d
    383a:	2f00      	cmp	r7, #0
    383c:	d106      	bne.n	384c <xQueueGenericSendFromISR+0x54>
    383e:	0020      	movs	r0, r4
    3840:	4b52      	ldr	r3, [pc, #328]	; (398c <xQueueGenericSendFromISR+0x194>)
    3842:	4798      	blx	r3
    3844:	4b52      	ldr	r3, [pc, #328]	; (3990 <xQueueGenericSendFromISR+0x198>)
    3846:	5c1d      	ldrb	r5, [r3, r0]
    3848:	3558      	adds	r5, #88	; 0x58
    384a:	b2ed      	uxtb	r5, r5
    384c:	0020      	movs	r0, r4
    384e:	4b4f      	ldr	r3, [pc, #316]	; (398c <xQueueGenericSendFromISR+0x194>)
    3850:	4798      	blx	r3
    3852:	4b4f      	ldr	r3, [pc, #316]	; (3990 <xQueueGenericSendFromISR+0x198>)
    3854:	5c1f      	ldrb	r7, [r3, r0]
    3856:	0020      	movs	r0, r4
    3858:	4b4e      	ldr	r3, [pc, #312]	; (3994 <xQueueGenericSendFromISR+0x19c>)
    385a:	4798      	blx	r3
    385c:	b2c2      	uxtb	r2, r0
    385e:	0039      	movs	r1, r7
    3860:	0028      	movs	r0, r5
    3862:	4b4d      	ldr	r3, [pc, #308]	; (3998 <xQueueGenericSendFromISR+0x1a0>)
    3864:	4798      	blx	r3
    3866:	2500      	movs	r5, #0
    3868:	e081      	b.n	396e <xQueueGenericSendFromISR+0x176>
    386a:	b672      	cpsid	i
    386c:	e7fe      	b.n	386c <xQueueGenericSendFromISR+0x74>
    386e:	6c03      	ldr	r3, [r0, #64]	; 0x40
    3870:	2b00      	cmp	r3, #0
    3872:	d0cf      	beq.n	3814 <xQueueGenericSendFromISR+0x1c>
    3874:	b672      	cpsid	i
    3876:	e7fe      	b.n	3876 <xQueueGenericSendFromISR+0x7e>
    3878:	6be3      	ldr	r3, [r4, #60]	; 0x3c
    387a:	2b01      	cmp	r3, #1
    387c:	d027      	beq.n	38ce <xQueueGenericSendFromISR+0xd6>
    387e:	b672      	cpsid	i
    3880:	e7fe      	b.n	3880 <xQueueGenericSendFromISR+0x88>
    3882:	6a63      	ldr	r3, [r4, #36]	; 0x24
    3884:	2501      	movs	r5, #1
    3886:	2b00      	cmp	r3, #0
    3888:	d071      	beq.n	396e <xQueueGenericSendFromISR+0x176>
    388a:	0020      	movs	r0, r4
    388c:	3024      	adds	r0, #36	; 0x24
    388e:	4b43      	ldr	r3, [pc, #268]	; (399c <xQueueGenericSendFromISR+0x1a4>)
    3890:	4798      	blx	r3
    3892:	2800      	cmp	r0, #0
    3894:	d06b      	beq.n	396e <xQueueGenericSendFromISR+0x176>
    3896:	2e00      	cmp	r6, #0
    3898:	d00a      	beq.n	38b0 <xQueueGenericSendFromISR+0xb8>
    389a:	2301      	movs	r3, #1
    389c:	6033      	str	r3, [r6, #0]
    389e:	e066      	b.n	396e <xQueueGenericSendFromISR+0x176>
    38a0:	3501      	adds	r5, #1
    38a2:	b26d      	sxtb	r5, r5
    38a4:	2345      	movs	r3, #69	; 0x45
    38a6:	54e5      	strb	r5, [r4, r3]
    38a8:	2501      	movs	r5, #1
    38aa:	e060      	b.n	396e <xQueueGenericSendFromISR+0x176>
    38ac:	2501      	movs	r5, #1
    38ae:	e05e      	b.n	396e <xQueueGenericSendFromISR+0x176>
    38b0:	2501      	movs	r5, #1
    38b2:	e05c      	b.n	396e <xQueueGenericSendFromISR+0x176>
    38b4:	2345      	movs	r3, #69	; 0x45
    38b6:	5ce5      	ldrb	r5, [r4, r3]
    38b8:	b26d      	sxtb	r5, r5
    38ba:	0020      	movs	r0, r4
    38bc:	4b31      	ldr	r3, [pc, #196]	; (3984 <xQueueGenericSendFromISR+0x18c>)
    38be:	4798      	blx	r3
    38c0:	4b31      	ldr	r3, [pc, #196]	; (3988 <xQueueGenericSendFromISR+0x190>)
    38c2:	881b      	ldrh	r3, [r3, #0]
    38c4:	4203      	tst	r3, r0
    38c6:	d02d      	beq.n	3924 <xQueueGenericSendFromISR+0x12c>
    38c8:	2335      	movs	r3, #53	; 0x35
    38ca:	4698      	mov	r8, r3
    38cc:	e01c      	b.n	3908 <xQueueGenericSendFromISR+0x110>
    38ce:	4b2c      	ldr	r3, [pc, #176]	; (3980 <xQueueGenericSendFromISR+0x188>)
    38d0:	4798      	blx	r3
    38d2:	9000      	str	r0, [sp, #0]
    38d4:	6ba3      	ldr	r3, [r4, #56]	; 0x38
    38d6:	6be2      	ldr	r2, [r4, #60]	; 0x3c
    38d8:	429a      	cmp	r2, r3
    38da:	d9eb      	bls.n	38b4 <xQueueGenericSendFromISR+0xbc>
    38dc:	2345      	movs	r3, #69	; 0x45
    38de:	5ce5      	ldrb	r5, [r4, r3]
    38e0:	b26d      	sxtb	r5, r5
    38e2:	0020      	movs	r0, r4
    38e4:	4b27      	ldr	r3, [pc, #156]	; (3984 <xQueueGenericSendFromISR+0x18c>)
    38e6:	4798      	blx	r3
    38e8:	4b27      	ldr	r3, [pc, #156]	; (3988 <xQueueGenericSendFromISR+0x190>)
    38ea:	881b      	ldrh	r3, [r3, #0]
    38ec:	4203      	tst	r3, r0
    38ee:	d019      	beq.n	3924 <xQueueGenericSendFromISR+0x12c>
    38f0:	2335      	movs	r3, #53	; 0x35
    38f2:	4698      	mov	r8, r3
    38f4:	2f00      	cmp	r7, #0
    38f6:	d107      	bne.n	3908 <xQueueGenericSendFromISR+0x110>
    38f8:	0020      	movs	r0, r4
    38fa:	4b24      	ldr	r3, [pc, #144]	; (398c <xQueueGenericSendFromISR+0x194>)
    38fc:	4798      	blx	r3
    38fe:	4b24      	ldr	r3, [pc, #144]	; (3990 <xQueueGenericSendFromISR+0x198>)
    3900:	5c1b      	ldrb	r3, [r3, r0]
    3902:	3330      	adds	r3, #48	; 0x30
    3904:	b2db      	uxtb	r3, r3
    3906:	4698      	mov	r8, r3
    3908:	0020      	movs	r0, r4
    390a:	4b20      	ldr	r3, [pc, #128]	; (398c <xQueueGenericSendFromISR+0x194>)
    390c:	4798      	blx	r3
    390e:	4b20      	ldr	r3, [pc, #128]	; (3990 <xQueueGenericSendFromISR+0x198>)
    3910:	5c1b      	ldrb	r3, [r3, r0]
    3912:	469b      	mov	fp, r3
    3914:	0020      	movs	r0, r4
    3916:	4b1f      	ldr	r3, [pc, #124]	; (3994 <xQueueGenericSendFromISR+0x19c>)
    3918:	4798      	blx	r3
    391a:	b2c2      	uxtb	r2, r0
    391c:	4659      	mov	r1, fp
    391e:	4640      	mov	r0, r8
    3920:	4b1d      	ldr	r3, [pc, #116]	; (3998 <xQueueGenericSendFromISR+0x1a0>)
    3922:	4798      	blx	r3
    3924:	0020      	movs	r0, r4
    3926:	4b19      	ldr	r3, [pc, #100]	; (398c <xQueueGenericSendFromISR+0x194>)
    3928:	4798      	blx	r3
    392a:	4b19      	ldr	r3, [pc, #100]	; (3990 <xQueueGenericSendFromISR+0x198>)
    392c:	5c1b      	ldrb	r3, [r3, r0]
    392e:	4698      	mov	r8, r3
    3930:	0020      	movs	r0, r4
    3932:	4b18      	ldr	r3, [pc, #96]	; (3994 <xQueueGenericSendFromISR+0x19c>)
    3934:	4798      	blx	r3
    3936:	6ba2      	ldr	r2, [r4, #56]	; 0x38
    3938:	3201      	adds	r2, #1
    393a:	b2d2      	uxtb	r2, r2
    393c:	b2c1      	uxtb	r1, r0
    393e:	4640      	mov	r0, r8
    3940:	4b17      	ldr	r3, [pc, #92]	; (39a0 <xQueueGenericSendFromISR+0x1a8>)
    3942:	4798      	blx	r3
    3944:	003a      	movs	r2, r7
    3946:	9901      	ldr	r1, [sp, #4]
    3948:	0020      	movs	r0, r4
    394a:	4b16      	ldr	r3, [pc, #88]	; (39a4 <xQueueGenericSendFromISR+0x1ac>)
    394c:	4798      	blx	r3
    394e:	1c6b      	adds	r3, r5, #1
    3950:	d1a6      	bne.n	38a0 <xQueueGenericSendFromISR+0xa8>
    3952:	6ca3      	ldr	r3, [r4, #72]	; 0x48
    3954:	2b00      	cmp	r3, #0
    3956:	d094      	beq.n	3882 <xQueueGenericSendFromISR+0x8a>
    3958:	0039      	movs	r1, r7
    395a:	0020      	movs	r0, r4
    395c:	4b12      	ldr	r3, [pc, #72]	; (39a8 <xQueueGenericSendFromISR+0x1b0>)
    395e:	4798      	blx	r3
    3960:	3502      	adds	r5, #2
    3962:	2800      	cmp	r0, #0
    3964:	d003      	beq.n	396e <xQueueGenericSendFromISR+0x176>
    3966:	2e00      	cmp	r6, #0
    3968:	d0a0      	beq.n	38ac <xQueueGenericSendFromISR+0xb4>
    396a:	2301      	movs	r3, #1
    396c:	6033      	str	r3, [r6, #0]
    396e:	9800      	ldr	r0, [sp, #0]
    3970:	4b0e      	ldr	r3, [pc, #56]	; (39ac <xQueueGenericSendFromISR+0x1b4>)
    3972:	4798      	blx	r3
    3974:	0028      	movs	r0, r5
    3976:	b003      	add	sp, #12
    3978:	bc0c      	pop	{r2, r3}
    397a:	4690      	mov	r8, r2
    397c:	469b      	mov	fp, r3
    397e:	bdf0      	pop	{r4, r5, r6, r7, pc}
    3980:	00002f29 	.word	0x00002f29
    3984:	00001ce5 	.word	0x00001ce5
    3988:	20000020 	.word	0x20000020
    398c:	00001c65 	.word	0x00001c65
    3990:	20000018 	.word	0x20000018
    3994:	00001cd5 	.word	0x00001cd5
    3998:	00002971 	.word	0x00002971
    399c:	00004cad 	.word	0x00004cad
    39a0:	00002445 	.word	0x00002445
    39a4:	0000307d 	.word	0x0000307d
    39a8:	000030f9 	.word	0x000030f9
    39ac:	00002f31 	.word	0x00002f31

000039b0 <MyWrapper>:
    39b0:	b5f0      	push	{r4, r5, r6, r7, lr}
    39b2:	46d6      	mov	lr, sl
    39b4:	4647      	mov	r7, r8
    39b6:	b580      	push	{r7, lr}
    39b8:	b083      	sub	sp, #12
    39ba:	0004      	movs	r4, r0
    39bc:	000f      	movs	r7, r1
    39be:	0016      	movs	r6, r2
    39c0:	2800      	cmp	r0, #0
    39c2:	d004      	beq.n	39ce <MyWrapper+0x1e>
    39c4:	6c03      	ldr	r3, [r0, #64]	; 0x40
    39c6:	2b00      	cmp	r3, #0
    39c8:	d003      	beq.n	39d2 <MyWrapper+0x22>
    39ca:	b672      	cpsid	i
    39cc:	e7fe      	b.n	39cc <MyWrapper+0x1c>
    39ce:	b672      	cpsid	i
    39d0:	e7fe      	b.n	39d0 <MyWrapper+0x20>
    39d2:	6803      	ldr	r3, [r0, #0]
    39d4:	2b00      	cmp	r3, #0
    39d6:	d055      	beq.n	3a84 <MyWrapper+0xd4>
    39d8:	4b4a      	ldr	r3, [pc, #296]	; (3b04 <MyWrapper+0x154>)
    39da:	4798      	blx	r3
    39dc:	9001      	str	r0, [sp, #4]
    39de:	6ba3      	ldr	r3, [r4, #56]	; 0x38
    39e0:	4698      	mov	r8, r3
    39e2:	6be3      	ldr	r3, [r4, #60]	; 0x3c
    39e4:	4598      	cmp	r8, r3
    39e6:	d267      	bcs.n	3ab8 <MyWrapper+0x108>
    39e8:	2345      	movs	r3, #69	; 0x45
    39ea:	5ce5      	ldrb	r5, [r4, r3]
    39ec:	b26d      	sxtb	r5, r5
    39ee:	0020      	movs	r0, r4
    39f0:	4b45      	ldr	r3, [pc, #276]	; (3b08 <MyWrapper+0x158>)
    39f2:	4798      	blx	r3
    39f4:	4b45      	ldr	r3, [pc, #276]	; (3b0c <MyWrapper+0x15c>)
    39f6:	881b      	ldrh	r3, [r3, #0]
    39f8:	4203      	tst	r3, r0
    39fa:	d018      	beq.n	3a2e <MyWrapper+0x7e>
    39fc:	2335      	movs	r3, #53	; 0x35
    39fe:	469a      	mov	sl, r3
    3a00:	2e00      	cmp	r6, #0
    3a02:	d107      	bne.n	3a14 <MyWrapper+0x64>
    3a04:	0020      	movs	r0, r4
    3a06:	4b42      	ldr	r3, [pc, #264]	; (3b10 <MyWrapper+0x160>)
    3a08:	4798      	blx	r3
    3a0a:	4b42      	ldr	r3, [pc, #264]	; (3b14 <MyWrapper+0x164>)
    3a0c:	5c1b      	ldrb	r3, [r3, r0]
    3a0e:	3330      	adds	r3, #48	; 0x30
    3a10:	b2db      	uxtb	r3, r3
    3a12:	469a      	mov	sl, r3
    3a14:	0020      	movs	r0, r4
    3a16:	4b3e      	ldr	r3, [pc, #248]	; (3b10 <MyWrapper+0x160>)
    3a18:	4798      	blx	r3
    3a1a:	4b3e      	ldr	r3, [pc, #248]	; (3b14 <MyWrapper+0x164>)
    3a1c:	5c1e      	ldrb	r6, [r3, r0]
    3a1e:	0020      	movs	r0, r4
    3a20:	4b3d      	ldr	r3, [pc, #244]	; (3b18 <MyWrapper+0x168>)
    3a22:	4798      	blx	r3
    3a24:	b2c2      	uxtb	r2, r0
    3a26:	0031      	movs	r1, r6
    3a28:	4650      	mov	r0, sl
    3a2a:	4b3c      	ldr	r3, [pc, #240]	; (3b1c <MyWrapper+0x16c>)
    3a2c:	4798      	blx	r3
    3a2e:	0020      	movs	r0, r4
    3a30:	4b37      	ldr	r3, [pc, #220]	; (3b10 <MyWrapper+0x160>)
    3a32:	4798      	blx	r3
    3a34:	4b37      	ldr	r3, [pc, #220]	; (3b14 <MyWrapper+0x164>)
    3a36:	5c1e      	ldrb	r6, [r3, r0]
    3a38:	0020      	movs	r0, r4
    3a3a:	4b37      	ldr	r3, [pc, #220]	; (3b18 <MyWrapper+0x168>)
    3a3c:	4798      	blx	r3
    3a3e:	6ba2      	ldr	r2, [r4, #56]	; 0x38
    3a40:	3201      	adds	r2, #1
    3a42:	b2d2      	uxtb	r2, r2
    3a44:	b2c1      	uxtb	r1, r0
    3a46:	0030      	movs	r0, r6
    3a48:	4b35      	ldr	r3, [pc, #212]	; (3b20 <MyWrapper+0x170>)
    3a4a:	4798      	blx	r3
    3a4c:	4643      	mov	r3, r8
    3a4e:	3301      	adds	r3, #1
    3a50:	63a3      	str	r3, [r4, #56]	; 0x38
    3a52:	1c6b      	adds	r3, r5, #1
    3a54:	d12a      	bne.n	3aac <MyWrapper+0xfc>
    3a56:	6ca3      	ldr	r3, [r4, #72]	; 0x48
    3a58:	2b00      	cmp	r3, #0
    3a5a:	d018      	beq.n	3a8e <MyWrapper+0xde>
    3a5c:	2100      	movs	r1, #0
    3a5e:	0020      	movs	r0, r4
    3a60:	4b30      	ldr	r3, [pc, #192]	; (3b24 <MyWrapper+0x174>)
    3a62:	4798      	blx	r3
    3a64:	3502      	adds	r5, #2
    3a66:	2800      	cmp	r0, #0
    3a68:	d003      	beq.n	3a72 <MyWrapper+0xc2>
    3a6a:	2f00      	cmp	r7, #0
    3a6c:	d045      	beq.n	3afa <MyWrapper+0x14a>
    3a6e:	2301      	movs	r3, #1
    3a70:	603b      	str	r3, [r7, #0]
    3a72:	9801      	ldr	r0, [sp, #4]
    3a74:	4b2c      	ldr	r3, [pc, #176]	; (3b28 <MyWrapper+0x178>)
    3a76:	4798      	blx	r3
    3a78:	0028      	movs	r0, r5
    3a7a:	b003      	add	sp, #12
    3a7c:	bc0c      	pop	{r2, r3}
    3a7e:	4690      	mov	r8, r2
    3a80:	469a      	mov	sl, r3
    3a82:	bdf0      	pop	{r4, r5, r6, r7, pc}
    3a84:	6843      	ldr	r3, [r0, #4]
    3a86:	2b00      	cmp	r3, #0
    3a88:	d0a6      	beq.n	39d8 <MyWrapper+0x28>
    3a8a:	b672      	cpsid	i
    3a8c:	e7fe      	b.n	3a8c <MyWrapper+0xdc>
    3a8e:	6a63      	ldr	r3, [r4, #36]	; 0x24
    3a90:	2501      	movs	r5, #1
    3a92:	2b00      	cmp	r3, #0
    3a94:	d0ed      	beq.n	3a72 <MyWrapper+0xc2>
    3a96:	0020      	movs	r0, r4
    3a98:	3024      	adds	r0, #36	; 0x24
    3a9a:	4b24      	ldr	r3, [pc, #144]	; (3b2c <MyWrapper+0x17c>)
    3a9c:	4798      	blx	r3
    3a9e:	2800      	cmp	r0, #0
    3aa0:	d0e7      	beq.n	3a72 <MyWrapper+0xc2>
    3aa2:	2f00      	cmp	r7, #0
    3aa4:	d02b      	beq.n	3afe <MyWrapper+0x14e>
    3aa6:	2301      	movs	r3, #1
    3aa8:	603b      	str	r3, [r7, #0]
    3aaa:	e7e2      	b.n	3a72 <MyWrapper+0xc2>
    3aac:	3501      	adds	r5, #1
    3aae:	b26d      	sxtb	r5, r5
    3ab0:	2345      	movs	r3, #69	; 0x45
    3ab2:	54e5      	strb	r5, [r4, r3]
    3ab4:	2501      	movs	r5, #1
    3ab6:	e7dc      	b.n	3a72 <MyWrapper+0xc2>
    3ab8:	0020      	movs	r0, r4
    3aba:	4b13      	ldr	r3, [pc, #76]	; (3b08 <MyWrapper+0x158>)
    3abc:	4798      	blx	r3
    3abe:	4b13      	ldr	r3, [pc, #76]	; (3b0c <MyWrapper+0x15c>)
    3ac0:	881b      	ldrh	r3, [r3, #0]
    3ac2:	2500      	movs	r5, #0
    3ac4:	4203      	tst	r3, r0
    3ac6:	d0d4      	beq.n	3a72 <MyWrapper+0xc2>
    3ac8:	355d      	adds	r5, #93	; 0x5d
    3aca:	2e00      	cmp	r6, #0
    3acc:	d106      	bne.n	3adc <MyWrapper+0x12c>
    3ace:	0020      	movs	r0, r4
    3ad0:	4b0f      	ldr	r3, [pc, #60]	; (3b10 <MyWrapper+0x160>)
    3ad2:	4798      	blx	r3
    3ad4:	4b0f      	ldr	r3, [pc, #60]	; (3b14 <MyWrapper+0x164>)
    3ad6:	5c1d      	ldrb	r5, [r3, r0]
    3ad8:	3558      	adds	r5, #88	; 0x58
    3ada:	b2ed      	uxtb	r5, r5
    3adc:	0020      	movs	r0, r4
    3ade:	4b0c      	ldr	r3, [pc, #48]	; (3b10 <MyWrapper+0x160>)
    3ae0:	4798      	blx	r3
    3ae2:	4b0c      	ldr	r3, [pc, #48]	; (3b14 <MyWrapper+0x164>)
    3ae4:	5c1f      	ldrb	r7, [r3, r0]
    3ae6:	0020      	movs	r0, r4
    3ae8:	4b0b      	ldr	r3, [pc, #44]	; (3b18 <MyWrapper+0x168>)
    3aea:	4798      	blx	r3
    3aec:	b2c2      	uxtb	r2, r0
    3aee:	0039      	movs	r1, r7
    3af0:	0028      	movs	r0, r5
    3af2:	4b0a      	ldr	r3, [pc, #40]	; (3b1c <MyWrapper+0x16c>)
    3af4:	4798      	blx	r3
    3af6:	2500      	movs	r5, #0
    3af8:	e7bb      	b.n	3a72 <MyWrapper+0xc2>
    3afa:	2501      	movs	r5, #1
    3afc:	e7b9      	b.n	3a72 <MyWrapper+0xc2>
    3afe:	2501      	movs	r5, #1
    3b00:	e7b7      	b.n	3a72 <MyWrapper+0xc2>
    3b02:	46c0      	nop			; (mov r8, r8)
    3b04:	00002f29 	.word	0x00002f29
    3b08:	00001ce5 	.word	0x00001ce5
    3b0c:	20000020 	.word	0x20000020
    3b10:	00001c65 	.word	0x00001c65
    3b14:	20000018 	.word	0x20000018
    3b18:	00001cd5 	.word	0x00001cd5
    3b1c:	00002971 	.word	0x00002971
    3b20:	00002445 	.word	0x00002445
    3b24:	000030f9 	.word	0x000030f9
    3b28:	00002f31 	.word	0x00002f31
    3b2c:	00004cad 	.word	0x00004cad

00003b30 <xQueueGiveFromISR>:
    3b30:	b510      	push	{r4, lr}
    3b32:	2200      	movs	r2, #0
    3b34:	4b01      	ldr	r3, [pc, #4]	; (3b3c <xQueueGiveFromISR+0xc>)
    3b36:	4798      	blx	r3
    3b38:	bd10      	pop	{r4, pc}
    3b3a:	46c0      	nop			; (mov r8, r8)
    3b3c:	000039b1 	.word	0x000039b1

00003b40 <xQueueReceive>:
    3b40:	b5f0      	push	{r4, r5, r6, r7, lr}
    3b42:	46ce      	mov	lr, r9
    3b44:	4647      	mov	r7, r8
    3b46:	b580      	push	{r7, lr}
    3b48:	b085      	sub	sp, #20
    3b4a:	1e04      	subs	r4, r0, #0
    3b4c:	9100      	str	r1, [sp, #0]
    3b4e:	9201      	str	r2, [sp, #4]
    3b50:	d00b      	beq.n	3b6a <xQueueReceive+0x2a>
    3b52:	9b00      	ldr	r3, [sp, #0]
    3b54:	2b00      	cmp	r3, #0
    3b56:	d00a      	beq.n	3b6e <xQueueReceive+0x2e>
    3b58:	4ba4      	ldr	r3, [pc, #656]	; (3dec <xQueueReceive+0x2ac>)
    3b5a:	4798      	blx	r3
    3b5c:	2800      	cmp	r0, #0
    3b5e:	d10b      	bne.n	3b78 <xQueueReceive+0x38>
    3b60:	9b01      	ldr	r3, [sp, #4]
    3b62:	2b00      	cmp	r3, #0
    3b64:	d00c      	beq.n	3b80 <xQueueReceive+0x40>
    3b66:	b672      	cpsid	i
    3b68:	e7fe      	b.n	3b68 <xQueueReceive+0x28>
    3b6a:	b672      	cpsid	i
    3b6c:	e7fe      	b.n	3b6c <xQueueReceive+0x2c>
    3b6e:	6c03      	ldr	r3, [r0, #64]	; 0x40
    3b70:	2b00      	cmp	r3, #0
    3b72:	d0f1      	beq.n	3b58 <xQueueReceive+0x18>
    3b74:	b672      	cpsid	i
    3b76:	e7fe      	b.n	3b76 <xQueueReceive+0x36>
    3b78:	2500      	movs	r5, #0
    3b7a:	4b9d      	ldr	r3, [pc, #628]	; (3df0 <xQueueReceive+0x2b0>)
    3b7c:	4698      	mov	r8, r3
    3b7e:	e0b4      	b.n	3cea <xQueueReceive+0x1aa>
    3b80:	2500      	movs	r5, #0
    3b82:	e7fa      	b.n	3b7a <xQueueReceive+0x3a>
    3b84:	9900      	ldr	r1, [sp, #0]
    3b86:	0020      	movs	r0, r4
    3b88:	4b9a      	ldr	r3, [pc, #616]	; (3df4 <xQueueReceive+0x2b4>)
    3b8a:	4798      	blx	r3
    3b8c:	4b9a      	ldr	r3, [pc, #616]	; (3df8 <xQueueReceive+0x2b8>)
    3b8e:	4798      	blx	r3
    3b90:	4b9a      	ldr	r3, [pc, #616]	; (3dfc <xQueueReceive+0x2bc>)
    3b92:	4798      	blx	r3
    3b94:	4b9a      	ldr	r3, [pc, #616]	; (3e00 <xQueueReceive+0x2c0>)
    3b96:	881b      	ldrh	r3, [r3, #0]
    3b98:	4203      	tst	r3, r0
    3b9a:	d019      	beq.n	3bd0 <xQueueReceive+0x90>
    3b9c:	0020      	movs	r0, r4
    3b9e:	4b99      	ldr	r3, [pc, #612]	; (3e04 <xQueueReceive+0x2c4>)
    3ba0:	4798      	blx	r3
    3ba2:	4b97      	ldr	r3, [pc, #604]	; (3e00 <xQueueReceive+0x2c0>)
    3ba4:	881b      	ldrh	r3, [r3, #0]
    3ba6:	4203      	tst	r3, r0
    3ba8:	d012      	beq.n	3bd0 <xQueueReceive+0x90>
    3baa:	0020      	movs	r0, r4
    3bac:	4b96      	ldr	r3, [pc, #600]	; (3e08 <xQueueReceive+0x2c8>)
    3bae:	4698      	mov	r8, r3
    3bb0:	4798      	blx	r3
    3bb2:	4f96      	ldr	r7, [pc, #600]	; (3e0c <xQueueReceive+0x2cc>)
    3bb4:	5c3d      	ldrb	r5, [r7, r0]
    3bb6:	3528      	adds	r5, #40	; 0x28
    3bb8:	b2ed      	uxtb	r5, r5
    3bba:	0020      	movs	r0, r4
    3bbc:	47c0      	blx	r8
    3bbe:	5c3f      	ldrb	r7, [r7, r0]
    3bc0:	0020      	movs	r0, r4
    3bc2:	4b93      	ldr	r3, [pc, #588]	; (3e10 <xQueueReceive+0x2d0>)
    3bc4:	4798      	blx	r3
    3bc6:	b2c2      	uxtb	r2, r0
    3bc8:	0039      	movs	r1, r7
    3bca:	0028      	movs	r0, r5
    3bcc:	4b91      	ldr	r3, [pc, #580]	; (3e14 <xQueueReceive+0x2d4>)
    3bce:	4798      	blx	r3
    3bd0:	0020      	movs	r0, r4
    3bd2:	4f8d      	ldr	r7, [pc, #564]	; (3e08 <xQueueReceive+0x2c8>)
    3bd4:	47b8      	blx	r7
    3bd6:	4d8d      	ldr	r5, [pc, #564]	; (3e0c <xQueueReceive+0x2cc>)
    3bd8:	5c2b      	ldrb	r3, [r5, r0]
    3bda:	4699      	mov	r9, r3
    3bdc:	0020      	movs	r0, r4
    3bde:	4b8c      	ldr	r3, [pc, #560]	; (3e10 <xQueueReceive+0x2d0>)
    3be0:	4798      	blx	r3
    3be2:	b2c3      	uxtb	r3, r0
    3be4:	4698      	mov	r8, r3
    3be6:	0020      	movs	r0, r4
    3be8:	47b8      	blx	r7
    3bea:	5c2b      	ldrb	r3, [r5, r0]
    3bec:	2b02      	cmp	r3, #2
    3bee:	d11e      	bne.n	3c2e <xQueueReceive+0xee>
    3bf0:	4b81      	ldr	r3, [pc, #516]	; (3df8 <xQueueReceive+0x2b8>)
    3bf2:	4798      	blx	r3
    3bf4:	4b88      	ldr	r3, [pc, #544]	; (3e18 <xQueueReceive+0x2d8>)
    3bf6:	4798      	blx	r3
    3bf8:	b2c2      	uxtb	r2, r0
    3bfa:	4641      	mov	r1, r8
    3bfc:	4648      	mov	r0, r9
    3bfe:	4b87      	ldr	r3, [pc, #540]	; (3e1c <xQueueReceive+0x2dc>)
    3c00:	4798      	blx	r3
    3c02:	3e01      	subs	r6, #1
    3c04:	63a6      	str	r6, [r4, #56]	; 0x38
    3c06:	6923      	ldr	r3, [r4, #16]
    3c08:	2b00      	cmp	r3, #0
    3c0a:	d007      	beq.n	3c1c <xQueueReceive+0xdc>
    3c0c:	0020      	movs	r0, r4
    3c0e:	3010      	adds	r0, #16
    3c10:	4b83      	ldr	r3, [pc, #524]	; (3e20 <xQueueReceive+0x2e0>)
    3c12:	4798      	blx	r3
    3c14:	2800      	cmp	r0, #0
    3c16:	d001      	beq.n	3c1c <xQueueReceive+0xdc>
    3c18:	4b82      	ldr	r3, [pc, #520]	; (3e24 <xQueueReceive+0x2e4>)
    3c1a:	4798      	blx	r3
    3c1c:	4b82      	ldr	r3, [pc, #520]	; (3e28 <xQueueReceive+0x2e8>)
    3c1e:	4798      	blx	r3
    3c20:	2301      	movs	r3, #1
    3c22:	0018      	movs	r0, r3
    3c24:	b005      	add	sp, #20
    3c26:	bc0c      	pop	{r2, r3}
    3c28:	4690      	mov	r8, r2
    3c2a:	4699      	mov	r9, r3
    3c2c:	bdf0      	pop	{r4, r5, r6, r7, pc}
    3c2e:	6ba2      	ldr	r2, [r4, #56]	; 0x38
    3c30:	3a01      	subs	r2, #1
    3c32:	b2d2      	uxtb	r2, r2
    3c34:	e7e1      	b.n	3bfa <xQueueReceive+0xba>
    3c36:	4b7c      	ldr	r3, [pc, #496]	; (3e28 <xQueueReceive+0x2e8>)
    3c38:	4798      	blx	r3
    3c3a:	4b6f      	ldr	r3, [pc, #444]	; (3df8 <xQueueReceive+0x2b8>)
    3c3c:	4798      	blx	r3
    3c3e:	4b6f      	ldr	r3, [pc, #444]	; (3dfc <xQueueReceive+0x2bc>)
    3c40:	4798      	blx	r3
    3c42:	4b6f      	ldr	r3, [pc, #444]	; (3e00 <xQueueReceive+0x2c0>)
    3c44:	881a      	ldrh	r2, [r3, #0]
    3c46:	2300      	movs	r3, #0
    3c48:	4202      	tst	r2, r0
    3c4a:	d0ea      	beq.n	3c22 <xQueueReceive+0xe2>
    3c4c:	0020      	movs	r0, r4
    3c4e:	4b6d      	ldr	r3, [pc, #436]	; (3e04 <xQueueReceive+0x2c4>)
    3c50:	4798      	blx	r3
    3c52:	4b6b      	ldr	r3, [pc, #428]	; (3e00 <xQueueReceive+0x2c0>)
    3c54:	881a      	ldrh	r2, [r3, #0]
    3c56:	2300      	movs	r3, #0
    3c58:	4202      	tst	r2, r0
    3c5a:	d0e2      	beq.n	3c22 <xQueueReceive+0xe2>
    3c5c:	0020      	movs	r0, r4
    3c5e:	4f6a      	ldr	r7, [pc, #424]	; (3e08 <xQueueReceive+0x2c8>)
    3c60:	47b8      	blx	r7
    3c62:	4e6a      	ldr	r6, [pc, #424]	; (3e0c <xQueueReceive+0x2cc>)
    3c64:	5c35      	ldrb	r5, [r6, r0]
    3c66:	3550      	adds	r5, #80	; 0x50
    3c68:	b2ed      	uxtb	r5, r5
    3c6a:	0020      	movs	r0, r4
    3c6c:	47b8      	blx	r7
    3c6e:	5c36      	ldrb	r6, [r6, r0]
    3c70:	0020      	movs	r0, r4
    3c72:	4b67      	ldr	r3, [pc, #412]	; (3e10 <xQueueReceive+0x2d0>)
    3c74:	4798      	blx	r3
    3c76:	b2c2      	uxtb	r2, r0
    3c78:	0031      	movs	r1, r6
    3c7a:	0028      	movs	r0, r5
    3c7c:	4b65      	ldr	r3, [pc, #404]	; (3e14 <xQueueReceive+0x2d4>)
    3c7e:	4798      	blx	r3
    3c80:	2300      	movs	r3, #0
    3c82:	e7ce      	b.n	3c22 <xQueueReceive+0xe2>
    3c84:	a802      	add	r0, sp, #8
    3c86:	4b69      	ldr	r3, [pc, #420]	; (3e2c <xQueueReceive+0x2ec>)
    3c88:	4798      	blx	r3
    3c8a:	e038      	b.n	3cfe <xQueueReceive+0x1be>
    3c8c:	2200      	movs	r2, #0
    3c8e:	2344      	movs	r3, #68	; 0x44
    3c90:	54e2      	strb	r2, [r4, r3]
    3c92:	e03f      	b.n	3d14 <xQueueReceive+0x1d4>
    3c94:	2200      	movs	r2, #0
    3c96:	2345      	movs	r3, #69	; 0x45
    3c98:	54e2      	strb	r2, [r4, r3]
    3c9a:	e040      	b.n	3d1e <xQueueReceive+0x1de>
    3c9c:	0020      	movs	r0, r4
    3c9e:	4b59      	ldr	r3, [pc, #356]	; (3e04 <xQueueReceive+0x2c4>)
    3ca0:	4798      	blx	r3
    3ca2:	4b57      	ldr	r3, [pc, #348]	; (3e00 <xQueueReceive+0x2c0>)
    3ca4:	881b      	ldrh	r3, [r3, #0]
    3ca6:	4203      	tst	r3, r0
    3ca8:	d04e      	beq.n	3d48 <xQueueReceive+0x208>
    3caa:	0020      	movs	r0, r4
    3cac:	4f56      	ldr	r7, [pc, #344]	; (3e08 <xQueueReceive+0x2c8>)
    3cae:	47b8      	blx	r7
    3cb0:	4e56      	ldr	r6, [pc, #344]	; (3e0c <xQueueReceive+0x2cc>)
    3cb2:	5c35      	ldrb	r5, [r6, r0]
    3cb4:	3568      	adds	r5, #104	; 0x68
    3cb6:	b2ed      	uxtb	r5, r5
    3cb8:	0020      	movs	r0, r4
    3cba:	47b8      	blx	r7
    3cbc:	5c36      	ldrb	r6, [r6, r0]
    3cbe:	0020      	movs	r0, r4
    3cc0:	4b53      	ldr	r3, [pc, #332]	; (3e10 <xQueueReceive+0x2d0>)
    3cc2:	4798      	blx	r3
    3cc4:	b2c2      	uxtb	r2, r0
    3cc6:	0031      	movs	r1, r6
    3cc8:	0028      	movs	r0, r5
    3cca:	4b52      	ldr	r3, [pc, #328]	; (3e14 <xQueueReceive+0x2d4>)
    3ccc:	4798      	blx	r3
    3cce:	e03b      	b.n	3d48 <xQueueReceive+0x208>
    3cd0:	0020      	movs	r0, r4
    3cd2:	3024      	adds	r0, #36	; 0x24
    3cd4:	9901      	ldr	r1, [sp, #4]
    3cd6:	4b56      	ldr	r3, [pc, #344]	; (3e30 <xQueueReceive+0x2f0>)
    3cd8:	4798      	blx	r3
    3cda:	0020      	movs	r0, r4
    3cdc:	4b55      	ldr	r3, [pc, #340]	; (3e34 <xQueueReceive+0x2f4>)
    3cde:	4798      	blx	r3
    3ce0:	4b55      	ldr	r3, [pc, #340]	; (3e38 <xQueueReceive+0x2f8>)
    3ce2:	4798      	blx	r3
    3ce4:	2800      	cmp	r0, #0
    3ce6:	d046      	beq.n	3d76 <xQueueReceive+0x236>
    3ce8:	2501      	movs	r5, #1
    3cea:	47c0      	blx	r8
    3cec:	6ba6      	ldr	r6, [r4, #56]	; 0x38
    3cee:	2e00      	cmp	r6, #0
    3cf0:	d000      	beq.n	3cf4 <xQueueReceive+0x1b4>
    3cf2:	e747      	b.n	3b84 <xQueueReceive+0x44>
    3cf4:	9b01      	ldr	r3, [sp, #4]
    3cf6:	2b00      	cmp	r3, #0
    3cf8:	d09d      	beq.n	3c36 <xQueueReceive+0xf6>
    3cfa:	2d00      	cmp	r5, #0
    3cfc:	d0c2      	beq.n	3c84 <xQueueReceive+0x144>
    3cfe:	4b4a      	ldr	r3, [pc, #296]	; (3e28 <xQueueReceive+0x2e8>)
    3d00:	4798      	blx	r3
    3d02:	4b4e      	ldr	r3, [pc, #312]	; (3e3c <xQueueReceive+0x2fc>)
    3d04:	4798      	blx	r3
    3d06:	4b3a      	ldr	r3, [pc, #232]	; (3df0 <xQueueReceive+0x2b0>)
    3d08:	4798      	blx	r3
    3d0a:	2344      	movs	r3, #68	; 0x44
    3d0c:	5ce3      	ldrb	r3, [r4, r3]
    3d0e:	b25b      	sxtb	r3, r3
    3d10:	3301      	adds	r3, #1
    3d12:	d0bb      	beq.n	3c8c <xQueueReceive+0x14c>
    3d14:	2345      	movs	r3, #69	; 0x45
    3d16:	5ce3      	ldrb	r3, [r4, r3]
    3d18:	b25b      	sxtb	r3, r3
    3d1a:	3301      	adds	r3, #1
    3d1c:	d0ba      	beq.n	3c94 <xQueueReceive+0x154>
    3d1e:	4b42      	ldr	r3, [pc, #264]	; (3e28 <xQueueReceive+0x2e8>)
    3d20:	4798      	blx	r3
    3d22:	a901      	add	r1, sp, #4
    3d24:	a802      	add	r0, sp, #8
    3d26:	4b46      	ldr	r3, [pc, #280]	; (3e40 <xQueueReceive+0x300>)
    3d28:	4798      	blx	r3
    3d2a:	2800      	cmp	r0, #0
    3d2c:	d12c      	bne.n	3d88 <xQueueReceive+0x248>
    3d2e:	0020      	movs	r0, r4
    3d30:	4b44      	ldr	r3, [pc, #272]	; (3e44 <xQueueReceive+0x304>)
    3d32:	4798      	blx	r3
    3d34:	2800      	cmp	r0, #0
    3d36:	d021      	beq.n	3d7c <xQueueReceive+0x23c>
    3d38:	4b2f      	ldr	r3, [pc, #188]	; (3df8 <xQueueReceive+0x2b8>)
    3d3a:	4798      	blx	r3
    3d3c:	4b2f      	ldr	r3, [pc, #188]	; (3dfc <xQueueReceive+0x2bc>)
    3d3e:	4798      	blx	r3
    3d40:	4b2f      	ldr	r3, [pc, #188]	; (3e00 <xQueueReceive+0x2c0>)
    3d42:	881b      	ldrh	r3, [r3, #0]
    3d44:	4203      	tst	r3, r0
    3d46:	d1a9      	bne.n	3c9c <xQueueReceive+0x15c>
    3d48:	0020      	movs	r0, r4
    3d4a:	4b2f      	ldr	r3, [pc, #188]	; (3e08 <xQueueReceive+0x2c8>)
    3d4c:	4798      	blx	r3
    3d4e:	4b2f      	ldr	r3, [pc, #188]	; (3e0c <xQueueReceive+0x2cc>)
    3d50:	5c1b      	ldrb	r3, [r3, r0]
    3d52:	2b02      	cmp	r3, #2
    3d54:	d0bc      	beq.n	3cd0 <xQueueReceive+0x190>
    3d56:	4b28      	ldr	r3, [pc, #160]	; (3df8 <xQueueReceive+0x2b8>)
    3d58:	4798      	blx	r3
    3d5a:	4b28      	ldr	r3, [pc, #160]	; (3dfc <xQueueReceive+0x2bc>)
    3d5c:	4798      	blx	r3
    3d5e:	4b28      	ldr	r3, [pc, #160]	; (3e00 <xQueueReceive+0x2c0>)
    3d60:	881b      	ldrh	r3, [r3, #0]
    3d62:	4203      	tst	r3, r0
    3d64:	d0b4      	beq.n	3cd0 <xQueueReceive+0x190>
    3d66:	4b24      	ldr	r3, [pc, #144]	; (3df8 <xQueueReceive+0x2b8>)
    3d68:	4798      	blx	r3
    3d6a:	4b2b      	ldr	r3, [pc, #172]	; (3e18 <xQueueReceive+0x2d8>)
    3d6c:	4798      	blx	r3
    3d6e:	b2c0      	uxtb	r0, r0
    3d70:	4b35      	ldr	r3, [pc, #212]	; (3e48 <xQueueReceive+0x308>)
    3d72:	4798      	blx	r3
    3d74:	e7ac      	b.n	3cd0 <xQueueReceive+0x190>
    3d76:	4b2b      	ldr	r3, [pc, #172]	; (3e24 <xQueueReceive+0x2e4>)
    3d78:	4798      	blx	r3
    3d7a:	e7b5      	b.n	3ce8 <xQueueReceive+0x1a8>
    3d7c:	0020      	movs	r0, r4
    3d7e:	4b2d      	ldr	r3, [pc, #180]	; (3e34 <xQueueReceive+0x2f4>)
    3d80:	4798      	blx	r3
    3d82:	4b2d      	ldr	r3, [pc, #180]	; (3e38 <xQueueReceive+0x2f8>)
    3d84:	4798      	blx	r3
    3d86:	e7af      	b.n	3ce8 <xQueueReceive+0x1a8>
    3d88:	0020      	movs	r0, r4
    3d8a:	4b2a      	ldr	r3, [pc, #168]	; (3e34 <xQueueReceive+0x2f4>)
    3d8c:	4798      	blx	r3
    3d8e:	4b2a      	ldr	r3, [pc, #168]	; (3e38 <xQueueReceive+0x2f8>)
    3d90:	4798      	blx	r3
    3d92:	0020      	movs	r0, r4
    3d94:	4b2b      	ldr	r3, [pc, #172]	; (3e44 <xQueueReceive+0x304>)
    3d96:	4798      	blx	r3
    3d98:	2800      	cmp	r0, #0
    3d9a:	d0a5      	beq.n	3ce8 <xQueueReceive+0x1a8>
    3d9c:	4b16      	ldr	r3, [pc, #88]	; (3df8 <xQueueReceive+0x2b8>)
    3d9e:	4798      	blx	r3
    3da0:	4b16      	ldr	r3, [pc, #88]	; (3dfc <xQueueReceive+0x2bc>)
    3da2:	4798      	blx	r3
    3da4:	4b16      	ldr	r3, [pc, #88]	; (3e00 <xQueueReceive+0x2c0>)
    3da6:	881a      	ldrh	r2, [r3, #0]
    3da8:	2300      	movs	r3, #0
    3daa:	4202      	tst	r2, r0
    3dac:	d100      	bne.n	3db0 <xQueueReceive+0x270>
    3dae:	e738      	b.n	3c22 <xQueueReceive+0xe2>
    3db0:	0020      	movs	r0, r4
    3db2:	4b14      	ldr	r3, [pc, #80]	; (3e04 <xQueueReceive+0x2c4>)
    3db4:	4798      	blx	r3
    3db6:	4b12      	ldr	r3, [pc, #72]	; (3e00 <xQueueReceive+0x2c0>)
    3db8:	881a      	ldrh	r2, [r3, #0]
    3dba:	2300      	movs	r3, #0
    3dbc:	4202      	tst	r2, r0
    3dbe:	d100      	bne.n	3dc2 <xQueueReceive+0x282>
    3dc0:	e72f      	b.n	3c22 <xQueueReceive+0xe2>
    3dc2:	0020      	movs	r0, r4
    3dc4:	4f10      	ldr	r7, [pc, #64]	; (3e08 <xQueueReceive+0x2c8>)
    3dc6:	47b8      	blx	r7
    3dc8:	4e10      	ldr	r6, [pc, #64]	; (3e0c <xQueueReceive+0x2cc>)
    3dca:	5c35      	ldrb	r5, [r6, r0]
    3dcc:	3550      	adds	r5, #80	; 0x50
    3dce:	b2ed      	uxtb	r5, r5
    3dd0:	0020      	movs	r0, r4
    3dd2:	47b8      	blx	r7
    3dd4:	5c36      	ldrb	r6, [r6, r0]
    3dd6:	0020      	movs	r0, r4
    3dd8:	4b0d      	ldr	r3, [pc, #52]	; (3e10 <xQueueReceive+0x2d0>)
    3dda:	4798      	blx	r3
    3ddc:	b2c2      	uxtb	r2, r0
    3dde:	0031      	movs	r1, r6
    3de0:	0028      	movs	r0, r5
    3de2:	4b0c      	ldr	r3, [pc, #48]	; (3e14 <xQueueReceive+0x2d4>)
    3de4:	4798      	blx	r3
    3de6:	2300      	movs	r3, #0
    3de8:	e71b      	b.n	3c22 <xQueueReceive+0xe2>
    3dea:	46c0      	nop			; (mov r8, r8)
    3dec:	00004e15 	.word	0x00004e15
    3df0:	00002ef1 	.word	0x00002ef1
    3df4:	00003215 	.word	0x00003215
    3df8:	00001d39 	.word	0x00001d39
    3dfc:	00001c81 	.word	0x00001c81
    3e00:	20000020 	.word	0x20000020
    3e04:	00001ce5 	.word	0x00001ce5
    3e08:	00001c65 	.word	0x00001c65
    3e0c:	20000018 	.word	0x20000018
    3e10:	00001cd5 	.word	0x00001cd5
    3e14:	00002971 	.word	0x00002971
    3e18:	00001c71 	.word	0x00001c71
    3e1c:	00002445 	.word	0x00002445
    3e20:	00004cad 	.word	0x00004cad
    3e24:	00002ee1 	.word	0x00002ee1
    3e28:	00002f09 	.word	0x00002f09
    3e2c:	00004d61 	.word	0x00004d61
    3e30:	00004be5 	.word	0x00004be5
    3e34:	0000323d 	.word	0x0000323d
    3e38:	000047fd 	.word	0x000047fd
    3e3c:	00004655 	.word	0x00004655
    3e40:	00004d79 	.word	0x00004d79
    3e44:	00003061 	.word	0x00003061
    3e48:	0000249d 	.word	0x0000249d

00003e4c <xQueueSemaphoreTake>:
    3e4c:	b5f0      	push	{r4, r5, r6, r7, lr}
    3e4e:	46ce      	mov	lr, r9
    3e50:	4647      	mov	r7, r8
    3e52:	b580      	push	{r7, lr}
    3e54:	b085      	sub	sp, #20
    3e56:	1e04      	subs	r4, r0, #0
    3e58:	9101      	str	r1, [sp, #4]
    3e5a:	d004      	beq.n	3e66 <xQueueSemaphoreTake+0x1a>
    3e5c:	6c03      	ldr	r3, [r0, #64]	; 0x40
    3e5e:	2b00      	cmp	r3, #0
    3e60:	d003      	beq.n	3e6a <xQueueSemaphoreTake+0x1e>
    3e62:	b672      	cpsid	i
    3e64:	e7fe      	b.n	3e64 <xQueueSemaphoreTake+0x18>
    3e66:	b672      	cpsid	i
    3e68:	e7fe      	b.n	3e68 <xQueueSemaphoreTake+0x1c>
    3e6a:	4bb2      	ldr	r3, [pc, #712]	; (4134 <xQueueSemaphoreTake+0x2e8>)
    3e6c:	4798      	blx	r3
    3e6e:	2800      	cmp	r0, #0
    3e70:	d104      	bne.n	3e7c <xQueueSemaphoreTake+0x30>
    3e72:	9b01      	ldr	r3, [sp, #4]
    3e74:	2b00      	cmp	r3, #0
    3e76:	d006      	beq.n	3e86 <xQueueSemaphoreTake+0x3a>
    3e78:	b672      	cpsid	i
    3e7a:	e7fe      	b.n	3e7a <xQueueSemaphoreTake+0x2e>
    3e7c:	2500      	movs	r5, #0
    3e7e:	2700      	movs	r7, #0
    3e80:	4bad      	ldr	r3, [pc, #692]	; (4138 <xQueueSemaphoreTake+0x2ec>)
    3e82:	4698      	mov	r8, r3
    3e84:	e0bd      	b.n	4002 <xQueueSemaphoreTake+0x1b6>
    3e86:	2500      	movs	r5, #0
    3e88:	2700      	movs	r7, #0
    3e8a:	e7f9      	b.n	3e80 <xQueueSemaphoreTake+0x34>
    3e8c:	4bab      	ldr	r3, [pc, #684]	; (413c <xQueueSemaphoreTake+0x2f0>)
    3e8e:	4798      	blx	r3
    3e90:	4bab      	ldr	r3, [pc, #684]	; (4140 <xQueueSemaphoreTake+0x2f4>)
    3e92:	4798      	blx	r3
    3e94:	4bab      	ldr	r3, [pc, #684]	; (4144 <xQueueSemaphoreTake+0x2f8>)
    3e96:	881b      	ldrh	r3, [r3, #0]
    3e98:	4203      	tst	r3, r0
    3e9a:	d019      	beq.n	3ed0 <xQueueSemaphoreTake+0x84>
    3e9c:	0020      	movs	r0, r4
    3e9e:	4baa      	ldr	r3, [pc, #680]	; (4148 <xQueueSemaphoreTake+0x2fc>)
    3ea0:	4798      	blx	r3
    3ea2:	4ba8      	ldr	r3, [pc, #672]	; (4144 <xQueueSemaphoreTake+0x2f8>)
    3ea4:	881b      	ldrh	r3, [r3, #0]
    3ea6:	4203      	tst	r3, r0
    3ea8:	d012      	beq.n	3ed0 <xQueueSemaphoreTake+0x84>
    3eaa:	0020      	movs	r0, r4
    3eac:	4ba7      	ldr	r3, [pc, #668]	; (414c <xQueueSemaphoreTake+0x300>)
    3eae:	4698      	mov	r8, r3
    3eb0:	4798      	blx	r3
    3eb2:	4fa7      	ldr	r7, [pc, #668]	; (4150 <xQueueSemaphoreTake+0x304>)
    3eb4:	5c3d      	ldrb	r5, [r7, r0]
    3eb6:	3528      	adds	r5, #40	; 0x28
    3eb8:	b2ed      	uxtb	r5, r5
    3eba:	0020      	movs	r0, r4
    3ebc:	47c0      	blx	r8
    3ebe:	5c3f      	ldrb	r7, [r7, r0]
    3ec0:	0020      	movs	r0, r4
    3ec2:	4ba4      	ldr	r3, [pc, #656]	; (4154 <xQueueSemaphoreTake+0x308>)
    3ec4:	4798      	blx	r3
    3ec6:	b2c2      	uxtb	r2, r0
    3ec8:	0039      	movs	r1, r7
    3eca:	0028      	movs	r0, r5
    3ecc:	4ba2      	ldr	r3, [pc, #648]	; (4158 <xQueueSemaphoreTake+0x30c>)
    3ece:	4798      	blx	r3
    3ed0:	0020      	movs	r0, r4
    3ed2:	4f9e      	ldr	r7, [pc, #632]	; (414c <xQueueSemaphoreTake+0x300>)
    3ed4:	47b8      	blx	r7
    3ed6:	4d9e      	ldr	r5, [pc, #632]	; (4150 <xQueueSemaphoreTake+0x304>)
    3ed8:	5c2b      	ldrb	r3, [r5, r0]
    3eda:	4699      	mov	r9, r3
    3edc:	0020      	movs	r0, r4
    3ede:	4b9d      	ldr	r3, [pc, #628]	; (4154 <xQueueSemaphoreTake+0x308>)
    3ee0:	4798      	blx	r3
    3ee2:	b2c3      	uxtb	r3, r0
    3ee4:	4698      	mov	r8, r3
    3ee6:	0020      	movs	r0, r4
    3ee8:	47b8      	blx	r7
    3eea:	5c2b      	ldrb	r3, [r5, r0]
    3eec:	2b02      	cmp	r3, #2
    3eee:	d124      	bne.n	3f3a <xQueueSemaphoreTake+0xee>
    3ef0:	4b92      	ldr	r3, [pc, #584]	; (413c <xQueueSemaphoreTake+0x2f0>)
    3ef2:	4798      	blx	r3
    3ef4:	4b99      	ldr	r3, [pc, #612]	; (415c <xQueueSemaphoreTake+0x310>)
    3ef6:	4798      	blx	r3
    3ef8:	b2c2      	uxtb	r2, r0
    3efa:	4641      	mov	r1, r8
    3efc:	4648      	mov	r0, r9
    3efe:	4b98      	ldr	r3, [pc, #608]	; (4160 <xQueueSemaphoreTake+0x314>)
    3f00:	4798      	blx	r3
    3f02:	3e01      	subs	r6, #1
    3f04:	63a6      	str	r6, [r4, #56]	; 0x38
    3f06:	6823      	ldr	r3, [r4, #0]
    3f08:	2b00      	cmp	r3, #0
    3f0a:	d102      	bne.n	3f12 <xQueueSemaphoreTake+0xc6>
    3f0c:	4b95      	ldr	r3, [pc, #596]	; (4164 <xQueueSemaphoreTake+0x318>)
    3f0e:	4798      	blx	r3
    3f10:	6060      	str	r0, [r4, #4]
    3f12:	6923      	ldr	r3, [r4, #16]
    3f14:	2b00      	cmp	r3, #0
    3f16:	d007      	beq.n	3f28 <xQueueSemaphoreTake+0xdc>
    3f18:	0020      	movs	r0, r4
    3f1a:	3010      	adds	r0, #16
    3f1c:	4b92      	ldr	r3, [pc, #584]	; (4168 <xQueueSemaphoreTake+0x31c>)
    3f1e:	4798      	blx	r3
    3f20:	2800      	cmp	r0, #0
    3f22:	d001      	beq.n	3f28 <xQueueSemaphoreTake+0xdc>
    3f24:	4b91      	ldr	r3, [pc, #580]	; (416c <xQueueSemaphoreTake+0x320>)
    3f26:	4798      	blx	r3
    3f28:	4b91      	ldr	r3, [pc, #580]	; (4170 <xQueueSemaphoreTake+0x324>)
    3f2a:	4798      	blx	r3
    3f2c:	2501      	movs	r5, #1
    3f2e:	0028      	movs	r0, r5
    3f30:	b005      	add	sp, #20
    3f32:	bc0c      	pop	{r2, r3}
    3f34:	4690      	mov	r8, r2
    3f36:	4699      	mov	r9, r3
    3f38:	bdf0      	pop	{r4, r5, r6, r7, pc}
    3f3a:	6ba2      	ldr	r2, [r4, #56]	; 0x38
    3f3c:	3a01      	subs	r2, #1
    3f3e:	b2d2      	uxtb	r2, r2
    3f40:	e7db      	b.n	3efa <xQueueSemaphoreTake+0xae>
    3f42:	2d00      	cmp	r5, #0
    3f44:	d001      	beq.n	3f4a <xQueueSemaphoreTake+0xfe>
    3f46:	b672      	cpsid	i
    3f48:	e7fe      	b.n	3f48 <xQueueSemaphoreTake+0xfc>
    3f4a:	4b89      	ldr	r3, [pc, #548]	; (4170 <xQueueSemaphoreTake+0x324>)
    3f4c:	4798      	blx	r3
    3f4e:	4b7b      	ldr	r3, [pc, #492]	; (413c <xQueueSemaphoreTake+0x2f0>)
    3f50:	4798      	blx	r3
    3f52:	4b7b      	ldr	r3, [pc, #492]	; (4140 <xQueueSemaphoreTake+0x2f4>)
    3f54:	4798      	blx	r3
    3f56:	4b7b      	ldr	r3, [pc, #492]	; (4144 <xQueueSemaphoreTake+0x2f8>)
    3f58:	881b      	ldrh	r3, [r3, #0]
    3f5a:	4203      	tst	r3, r0
    3f5c:	d0e7      	beq.n	3f2e <xQueueSemaphoreTake+0xe2>
    3f5e:	0020      	movs	r0, r4
    3f60:	4b79      	ldr	r3, [pc, #484]	; (4148 <xQueueSemaphoreTake+0x2fc>)
    3f62:	4798      	blx	r3
    3f64:	4b77      	ldr	r3, [pc, #476]	; (4144 <xQueueSemaphoreTake+0x2f8>)
    3f66:	881b      	ldrh	r3, [r3, #0]
    3f68:	4203      	tst	r3, r0
    3f6a:	d0e0      	beq.n	3f2e <xQueueSemaphoreTake+0xe2>
    3f6c:	0020      	movs	r0, r4
    3f6e:	4b77      	ldr	r3, [pc, #476]	; (414c <xQueueSemaphoreTake+0x300>)
    3f70:	4698      	mov	r8, r3
    3f72:	4798      	blx	r3
    3f74:	4f76      	ldr	r7, [pc, #472]	; (4150 <xQueueSemaphoreTake+0x304>)
    3f76:	5c3e      	ldrb	r6, [r7, r0]
    3f78:	3650      	adds	r6, #80	; 0x50
    3f7a:	b2f6      	uxtb	r6, r6
    3f7c:	0020      	movs	r0, r4
    3f7e:	47c0      	blx	r8
    3f80:	5c3f      	ldrb	r7, [r7, r0]
    3f82:	0020      	movs	r0, r4
    3f84:	4b73      	ldr	r3, [pc, #460]	; (4154 <xQueueSemaphoreTake+0x308>)
    3f86:	4798      	blx	r3
    3f88:	b2c2      	uxtb	r2, r0
    3f8a:	0039      	movs	r1, r7
    3f8c:	0030      	movs	r0, r6
    3f8e:	4b72      	ldr	r3, [pc, #456]	; (4158 <xQueueSemaphoreTake+0x30c>)
    3f90:	4798      	blx	r3
    3f92:	e7cc      	b.n	3f2e <xQueueSemaphoreTake+0xe2>
    3f94:	a802      	add	r0, sp, #8
    3f96:	4b77      	ldr	r3, [pc, #476]	; (4174 <xQueueSemaphoreTake+0x328>)
    3f98:	4798      	blx	r3
    3f9a:	e03c      	b.n	4016 <xQueueSemaphoreTake+0x1ca>
    3f9c:	2200      	movs	r2, #0
    3f9e:	2344      	movs	r3, #68	; 0x44
    3fa0:	54e2      	strb	r2, [r4, r3]
    3fa2:	e043      	b.n	402c <xQueueSemaphoreTake+0x1e0>
    3fa4:	2200      	movs	r2, #0
    3fa6:	2345      	movs	r3, #69	; 0x45
    3fa8:	54e2      	strb	r2, [r4, r3]
    3faa:	e044      	b.n	4036 <xQueueSemaphoreTake+0x1ea>
    3fac:	0020      	movs	r0, r4
    3fae:	4b66      	ldr	r3, [pc, #408]	; (4148 <xQueueSemaphoreTake+0x2fc>)
    3fb0:	4798      	blx	r3
    3fb2:	4b64      	ldr	r3, [pc, #400]	; (4144 <xQueueSemaphoreTake+0x2f8>)
    3fb4:	881b      	ldrh	r3, [r3, #0]
    3fb6:	4203      	tst	r3, r0
    3fb8:	d052      	beq.n	4060 <xQueueSemaphoreTake+0x214>
    3fba:	0020      	movs	r0, r4
    3fbc:	4b63      	ldr	r3, [pc, #396]	; (414c <xQueueSemaphoreTake+0x300>)
    3fbe:	4699      	mov	r9, r3
    3fc0:	4798      	blx	r3
    3fc2:	4f63      	ldr	r7, [pc, #396]	; (4150 <xQueueSemaphoreTake+0x304>)
    3fc4:	5c3e      	ldrb	r6, [r7, r0]
    3fc6:	3668      	adds	r6, #104	; 0x68
    3fc8:	b2f6      	uxtb	r6, r6
    3fca:	0020      	movs	r0, r4
    3fcc:	47c8      	blx	r9
    3fce:	5c3f      	ldrb	r7, [r7, r0]
    3fd0:	0020      	movs	r0, r4
    3fd2:	4b60      	ldr	r3, [pc, #384]	; (4154 <xQueueSemaphoreTake+0x308>)
    3fd4:	4798      	blx	r3
    3fd6:	b2c2      	uxtb	r2, r0
    3fd8:	0039      	movs	r1, r7
    3fda:	0030      	movs	r0, r6
    3fdc:	4b5e      	ldr	r3, [pc, #376]	; (4158 <xQueueSemaphoreTake+0x30c>)
    3fde:	4798      	blx	r3
    3fe0:	e03e      	b.n	4060 <xQueueSemaphoreTake+0x214>
    3fe2:	6823      	ldr	r3, [r4, #0]
    3fe4:	2b00      	cmp	r3, #0
    3fe6:	d052      	beq.n	408e <xQueueSemaphoreTake+0x242>
    3fe8:	0020      	movs	r0, r4
    3fea:	3024      	adds	r0, #36	; 0x24
    3fec:	9901      	ldr	r1, [sp, #4]
    3fee:	4b62      	ldr	r3, [pc, #392]	; (4178 <xQueueSemaphoreTake+0x32c>)
    3ff0:	4798      	blx	r3
    3ff2:	0020      	movs	r0, r4
    3ff4:	4b61      	ldr	r3, [pc, #388]	; (417c <xQueueSemaphoreTake+0x330>)
    3ff6:	4798      	blx	r3
    3ff8:	4b61      	ldr	r3, [pc, #388]	; (4180 <xQueueSemaphoreTake+0x334>)
    3ffa:	4798      	blx	r3
    3ffc:	2800      	cmp	r0, #0
    3ffe:	d04f      	beq.n	40a0 <xQueueSemaphoreTake+0x254>
    4000:	2701      	movs	r7, #1
    4002:	47c0      	blx	r8
    4004:	6ba6      	ldr	r6, [r4, #56]	; 0x38
    4006:	2e00      	cmp	r6, #0
    4008:	d000      	beq.n	400c <xQueueSemaphoreTake+0x1c0>
    400a:	e73f      	b.n	3e8c <xQueueSemaphoreTake+0x40>
    400c:	9b01      	ldr	r3, [sp, #4]
    400e:	2b00      	cmp	r3, #0
    4010:	d097      	beq.n	3f42 <xQueueSemaphoreTake+0xf6>
    4012:	2f00      	cmp	r7, #0
    4014:	d0be      	beq.n	3f94 <xQueueSemaphoreTake+0x148>
    4016:	4b56      	ldr	r3, [pc, #344]	; (4170 <xQueueSemaphoreTake+0x324>)
    4018:	4798      	blx	r3
    401a:	4b5a      	ldr	r3, [pc, #360]	; (4184 <xQueueSemaphoreTake+0x338>)
    401c:	4798      	blx	r3
    401e:	4b46      	ldr	r3, [pc, #280]	; (4138 <xQueueSemaphoreTake+0x2ec>)
    4020:	4798      	blx	r3
    4022:	2344      	movs	r3, #68	; 0x44
    4024:	5ce3      	ldrb	r3, [r4, r3]
    4026:	b25b      	sxtb	r3, r3
    4028:	3301      	adds	r3, #1
    402a:	d0b7      	beq.n	3f9c <xQueueSemaphoreTake+0x150>
    402c:	2345      	movs	r3, #69	; 0x45
    402e:	5ce3      	ldrb	r3, [r4, r3]
    4030:	b25b      	sxtb	r3, r3
    4032:	3301      	adds	r3, #1
    4034:	d0b6      	beq.n	3fa4 <xQueueSemaphoreTake+0x158>
    4036:	4b4e      	ldr	r3, [pc, #312]	; (4170 <xQueueSemaphoreTake+0x324>)
    4038:	4798      	blx	r3
    403a:	a901      	add	r1, sp, #4
    403c:	a802      	add	r0, sp, #8
    403e:	4b52      	ldr	r3, [pc, #328]	; (4188 <xQueueSemaphoreTake+0x33c>)
    4040:	4798      	blx	r3
    4042:	2800      	cmp	r0, #0
    4044:	d135      	bne.n	40b2 <xQueueSemaphoreTake+0x266>
    4046:	0020      	movs	r0, r4
    4048:	4b50      	ldr	r3, [pc, #320]	; (418c <xQueueSemaphoreTake+0x340>)
    404a:	4798      	blx	r3
    404c:	2800      	cmp	r0, #0
    404e:	d02a      	beq.n	40a6 <xQueueSemaphoreTake+0x25a>
    4050:	4b3a      	ldr	r3, [pc, #232]	; (413c <xQueueSemaphoreTake+0x2f0>)
    4052:	4798      	blx	r3
    4054:	4b3a      	ldr	r3, [pc, #232]	; (4140 <xQueueSemaphoreTake+0x2f4>)
    4056:	4798      	blx	r3
    4058:	4b3a      	ldr	r3, [pc, #232]	; (4144 <xQueueSemaphoreTake+0x2f8>)
    405a:	881b      	ldrh	r3, [r3, #0]
    405c:	4203      	tst	r3, r0
    405e:	d1a5      	bne.n	3fac <xQueueSemaphoreTake+0x160>
    4060:	0020      	movs	r0, r4
    4062:	4b3a      	ldr	r3, [pc, #232]	; (414c <xQueueSemaphoreTake+0x300>)
    4064:	4798      	blx	r3
    4066:	4b3a      	ldr	r3, [pc, #232]	; (4150 <xQueueSemaphoreTake+0x304>)
    4068:	5c1b      	ldrb	r3, [r3, r0]
    406a:	2b02      	cmp	r3, #2
    406c:	d0b9      	beq.n	3fe2 <xQueueSemaphoreTake+0x196>
    406e:	4b33      	ldr	r3, [pc, #204]	; (413c <xQueueSemaphoreTake+0x2f0>)
    4070:	4798      	blx	r3
    4072:	4b33      	ldr	r3, [pc, #204]	; (4140 <xQueueSemaphoreTake+0x2f4>)
    4074:	4798      	blx	r3
    4076:	4b33      	ldr	r3, [pc, #204]	; (4144 <xQueueSemaphoreTake+0x2f8>)
    4078:	881b      	ldrh	r3, [r3, #0]
    407a:	4203      	tst	r3, r0
    407c:	d0b1      	beq.n	3fe2 <xQueueSemaphoreTake+0x196>
    407e:	4b2f      	ldr	r3, [pc, #188]	; (413c <xQueueSemaphoreTake+0x2f0>)
    4080:	4798      	blx	r3
    4082:	4b36      	ldr	r3, [pc, #216]	; (415c <xQueueSemaphoreTake+0x310>)
    4084:	4798      	blx	r3
    4086:	b2c0      	uxtb	r0, r0
    4088:	4b41      	ldr	r3, [pc, #260]	; (4190 <xQueueSemaphoreTake+0x344>)
    408a:	4798      	blx	r3
    408c:	e7a9      	b.n	3fe2 <xQueueSemaphoreTake+0x196>
    408e:	4b2a      	ldr	r3, [pc, #168]	; (4138 <xQueueSemaphoreTake+0x2ec>)
    4090:	4798      	blx	r3
    4092:	6860      	ldr	r0, [r4, #4]
    4094:	4b3f      	ldr	r3, [pc, #252]	; (4194 <xQueueSemaphoreTake+0x348>)
    4096:	4798      	blx	r3
    4098:	0005      	movs	r5, r0
    409a:	4b35      	ldr	r3, [pc, #212]	; (4170 <xQueueSemaphoreTake+0x324>)
    409c:	4798      	blx	r3
    409e:	e7a3      	b.n	3fe8 <xQueueSemaphoreTake+0x19c>
    40a0:	4b32      	ldr	r3, [pc, #200]	; (416c <xQueueSemaphoreTake+0x320>)
    40a2:	4798      	blx	r3
    40a4:	e7ac      	b.n	4000 <xQueueSemaphoreTake+0x1b4>
    40a6:	0020      	movs	r0, r4
    40a8:	4b34      	ldr	r3, [pc, #208]	; (417c <xQueueSemaphoreTake+0x330>)
    40aa:	4798      	blx	r3
    40ac:	4b34      	ldr	r3, [pc, #208]	; (4180 <xQueueSemaphoreTake+0x334>)
    40ae:	4798      	blx	r3
    40b0:	e7a6      	b.n	4000 <xQueueSemaphoreTake+0x1b4>
    40b2:	0020      	movs	r0, r4
    40b4:	4b31      	ldr	r3, [pc, #196]	; (417c <xQueueSemaphoreTake+0x330>)
    40b6:	4798      	blx	r3
    40b8:	4b31      	ldr	r3, [pc, #196]	; (4180 <xQueueSemaphoreTake+0x334>)
    40ba:	4798      	blx	r3
    40bc:	0020      	movs	r0, r4
    40be:	4b33      	ldr	r3, [pc, #204]	; (418c <xQueueSemaphoreTake+0x340>)
    40c0:	4798      	blx	r3
    40c2:	2800      	cmp	r0, #0
    40c4:	d09c      	beq.n	4000 <xQueueSemaphoreTake+0x1b4>
    40c6:	2d00      	cmp	r5, #0
    40c8:	d00e      	beq.n	40e8 <xQueueSemaphoreTake+0x29c>
    40ca:	4b1b      	ldr	r3, [pc, #108]	; (4138 <xQueueSemaphoreTake+0x2ec>)
    40cc:	4798      	blx	r3
    40ce:	6a63      	ldr	r3, [r4, #36]	; 0x24
    40d0:	2100      	movs	r1, #0
    40d2:	2b00      	cmp	r3, #0
    40d4:	d003      	beq.n	40de <xQueueSemaphoreTake+0x292>
    40d6:	6b23      	ldr	r3, [r4, #48]	; 0x30
    40d8:	681b      	ldr	r3, [r3, #0]
    40da:	3105      	adds	r1, #5
    40dc:	1ac9      	subs	r1, r1, r3
    40de:	6860      	ldr	r0, [r4, #4]
    40e0:	4b2d      	ldr	r3, [pc, #180]	; (4198 <xQueueSemaphoreTake+0x34c>)
    40e2:	4798      	blx	r3
    40e4:	4b22      	ldr	r3, [pc, #136]	; (4170 <xQueueSemaphoreTake+0x324>)
    40e6:	4798      	blx	r3
    40e8:	4b14      	ldr	r3, [pc, #80]	; (413c <xQueueSemaphoreTake+0x2f0>)
    40ea:	4798      	blx	r3
    40ec:	4b14      	ldr	r3, [pc, #80]	; (4140 <xQueueSemaphoreTake+0x2f4>)
    40ee:	4798      	blx	r3
    40f0:	4b14      	ldr	r3, [pc, #80]	; (4144 <xQueueSemaphoreTake+0x2f8>)
    40f2:	881b      	ldrh	r3, [r3, #0]
    40f4:	2500      	movs	r5, #0
    40f6:	4203      	tst	r3, r0
    40f8:	d100      	bne.n	40fc <xQueueSemaphoreTake+0x2b0>
    40fa:	e718      	b.n	3f2e <xQueueSemaphoreTake+0xe2>
    40fc:	0020      	movs	r0, r4
    40fe:	4b12      	ldr	r3, [pc, #72]	; (4148 <xQueueSemaphoreTake+0x2fc>)
    4100:	4798      	blx	r3
    4102:	4b10      	ldr	r3, [pc, #64]	; (4144 <xQueueSemaphoreTake+0x2f8>)
    4104:	881b      	ldrh	r3, [r3, #0]
    4106:	4203      	tst	r3, r0
    4108:	d100      	bne.n	410c <xQueueSemaphoreTake+0x2c0>
    410a:	e710      	b.n	3f2e <xQueueSemaphoreTake+0xe2>
    410c:	0020      	movs	r0, r4
    410e:	4f0f      	ldr	r7, [pc, #60]	; (414c <xQueueSemaphoreTake+0x300>)
    4110:	47b8      	blx	r7
    4112:	4e0f      	ldr	r6, [pc, #60]	; (4150 <xQueueSemaphoreTake+0x304>)
    4114:	5c35      	ldrb	r5, [r6, r0]
    4116:	3550      	adds	r5, #80	; 0x50
    4118:	b2ed      	uxtb	r5, r5
    411a:	0020      	movs	r0, r4
    411c:	47b8      	blx	r7
    411e:	5c36      	ldrb	r6, [r6, r0]
    4120:	0020      	movs	r0, r4
    4122:	4b0c      	ldr	r3, [pc, #48]	; (4154 <xQueueSemaphoreTake+0x308>)
    4124:	4798      	blx	r3
    4126:	b2c2      	uxtb	r2, r0
    4128:	0031      	movs	r1, r6
    412a:	0028      	movs	r0, r5
    412c:	4b0a      	ldr	r3, [pc, #40]	; (4158 <xQueueSemaphoreTake+0x30c>)
    412e:	4798      	blx	r3
    4130:	2500      	movs	r5, #0
    4132:	e6fc      	b.n	3f2e <xQueueSemaphoreTake+0xe2>
    4134:	00004e15 	.word	0x00004e15
    4138:	00002ef1 	.word	0x00002ef1
    413c:	00001d39 	.word	0x00001d39
    4140:	00001c81 	.word	0x00001c81
    4144:	20000020 	.word	0x20000020
    4148:	00001ce5 	.word	0x00001ce5
    414c:	00001c65 	.word	0x00001c65
    4150:	20000018 	.word	0x20000018
    4154:	00001cd5 	.word	0x00001cd5
    4158:	00002971 	.word	0x00002971
    415c:	00001c71 	.word	0x00001c71
    4160:	00002445 	.word	0x00002445
    4164:	00005145 	.word	0x00005145
    4168:	00004cad 	.word	0x00004cad
    416c:	00002ee1 	.word	0x00002ee1
    4170:	00002f09 	.word	0x00002f09
    4174:	00004d61 	.word	0x00004d61
    4178:	00004be5 	.word	0x00004be5
    417c:	0000323d 	.word	0x0000323d
    4180:	000047fd 	.word	0x000047fd
    4184:	00004655 	.word	0x00004655
    4188:	00004d79 	.word	0x00004d79
    418c:	00003061 	.word	0x00003061
    4190:	0000249d 	.word	0x0000249d
    4194:	00004e35 	.word	0x00004e35
    4198:	00005041 	.word	0x00005041

0000419c <uxQueueGetQueueNumber>:
    419c:	6cc0      	ldr	r0, [r0, #76]	; 0x4c
    419e:	4770      	bx	lr

000041a0 <vQueueSetQueueNumber>:
    41a0:	64c1      	str	r1, [r0, #76]	; 0x4c
    41a2:	4770      	bx	lr

000041a4 <ucQueueGetQueueType>:
    41a4:	2350      	movs	r3, #80	; 0x50
    41a6:	5cc0      	ldrb	r0, [r0, r3]
    41a8:	4770      	bx	lr
	...

000041ac <vQueueWaitForMessageRestricted>:
    41ac:	b570      	push	{r4, r5, r6, lr}
    41ae:	0004      	movs	r4, r0
    41b0:	000d      	movs	r5, r1
    41b2:	0016      	movs	r6, r2
    41b4:	4b11      	ldr	r3, [pc, #68]	; (41fc <vQueueWaitForMessageRestricted+0x50>)
    41b6:	4798      	blx	r3
    41b8:	2344      	movs	r3, #68	; 0x44
    41ba:	5ce3      	ldrb	r3, [r4, r3]
    41bc:	b25b      	sxtb	r3, r3
    41be:	3301      	adds	r3, #1
    41c0:	d00d      	beq.n	41de <vQueueWaitForMessageRestricted+0x32>
    41c2:	2345      	movs	r3, #69	; 0x45
    41c4:	5ce3      	ldrb	r3, [r4, r3]
    41c6:	b25b      	sxtb	r3, r3
    41c8:	3301      	adds	r3, #1
    41ca:	d00c      	beq.n	41e6 <vQueueWaitForMessageRestricted+0x3a>
    41cc:	4b0c      	ldr	r3, [pc, #48]	; (4200 <vQueueWaitForMessageRestricted+0x54>)
    41ce:	4798      	blx	r3
    41d0:	6ba3      	ldr	r3, [r4, #56]	; 0x38
    41d2:	2b00      	cmp	r3, #0
    41d4:	d00b      	beq.n	41ee <vQueueWaitForMessageRestricted+0x42>
    41d6:	0020      	movs	r0, r4
    41d8:	4b0a      	ldr	r3, [pc, #40]	; (4204 <vQueueWaitForMessageRestricted+0x58>)
    41da:	4798      	blx	r3
    41dc:	bd70      	pop	{r4, r5, r6, pc}
    41de:	2200      	movs	r2, #0
    41e0:	2344      	movs	r3, #68	; 0x44
    41e2:	54e2      	strb	r2, [r4, r3]
    41e4:	e7ed      	b.n	41c2 <vQueueWaitForMessageRestricted+0x16>
    41e6:	2200      	movs	r2, #0
    41e8:	2345      	movs	r3, #69	; 0x45
    41ea:	54e2      	strb	r2, [r4, r3]
    41ec:	e7ee      	b.n	41cc <vQueueWaitForMessageRestricted+0x20>
    41ee:	0020      	movs	r0, r4
    41f0:	3024      	adds	r0, #36	; 0x24
    41f2:	0032      	movs	r2, r6
    41f4:	0029      	movs	r1, r5
    41f6:	4b04      	ldr	r3, [pc, #16]	; (4208 <vQueueWaitForMessageRestricted+0x5c>)
    41f8:	4798      	blx	r3
    41fa:	e7ec      	b.n	41d6 <vQueueWaitForMessageRestricted+0x2a>
    41fc:	00002ef1 	.word	0x00002ef1
    4200:	00002f09 	.word	0x00002f09
    4204:	0000323d 	.word	0x0000323d
    4208:	00004c11 	.word	0x00004c11

0000420c <prvResetNextTaskUnblockTime>:
    420c:	4b08      	ldr	r3, [pc, #32]	; (4230 <prvResetNextTaskUnblockTime+0x24>)
    420e:	681b      	ldr	r3, [r3, #0]
    4210:	681b      	ldr	r3, [r3, #0]
    4212:	2b00      	cmp	r3, #0
    4214:	d007      	beq.n	4226 <prvResetNextTaskUnblockTime+0x1a>
    4216:	4b06      	ldr	r3, [pc, #24]	; (4230 <prvResetNextTaskUnblockTime+0x24>)
    4218:	681b      	ldr	r3, [r3, #0]
    421a:	68db      	ldr	r3, [r3, #12]
    421c:	68db      	ldr	r3, [r3, #12]
    421e:	685a      	ldr	r2, [r3, #4]
    4220:	4b04      	ldr	r3, [pc, #16]	; (4234 <prvResetNextTaskUnblockTime+0x28>)
    4222:	601a      	str	r2, [r3, #0]
    4224:	4770      	bx	lr
    4226:	2201      	movs	r2, #1
    4228:	4252      	negs	r2, r2
    422a:	4b02      	ldr	r3, [pc, #8]	; (4234 <prvResetNextTaskUnblockTime+0x28>)
    422c:	601a      	str	r2, [r3, #0]
    422e:	e7f9      	b.n	4224 <prvResetNextTaskUnblockTime+0x18>
    4230:	200036d4 	.word	0x200036d4
    4234:	20003784 	.word	0x20003784

00004238 <prvIdleTask>:
    4238:	b5f0      	push	{r4, r5, r6, r7, lr}
    423a:	46d6      	mov	lr, sl
    423c:	464f      	mov	r7, r9
    423e:	4646      	mov	r6, r8
    4240:	b5c0      	push	{r6, r7, lr}
    4242:	4b14      	ldr	r3, [pc, #80]	; (4294 <prvIdleTask+0x5c>)
    4244:	4699      	mov	r9, r3
    4246:	4b14      	ldr	r3, [pc, #80]	; (4298 <prvIdleTask+0x60>)
    4248:	4698      	mov	r8, r3
    424a:	4f14      	ldr	r7, [pc, #80]	; (429c <prvIdleTask+0x64>)
    424c:	4b14      	ldr	r3, [pc, #80]	; (42a0 <prvIdleTask+0x68>)
    424e:	469a      	mov	sl, r3
    4250:	464b      	mov	r3, r9
    4252:	681b      	ldr	r3, [r3, #0]
    4254:	2b00      	cmp	r3, #0
    4256:	d016      	beq.n	4286 <prvIdleTask+0x4e>
    4258:	47c0      	blx	r8
    425a:	68fb      	ldr	r3, [r7, #12]
    425c:	68dd      	ldr	r5, [r3, #12]
    425e:	1d28      	adds	r0, r5, #4
    4260:	47d0      	blx	sl
    4262:	4a10      	ldr	r2, [pc, #64]	; (42a4 <prvIdleTask+0x6c>)
    4264:	6813      	ldr	r3, [r2, #0]
    4266:	3b01      	subs	r3, #1
    4268:	6013      	str	r3, [r2, #0]
    426a:	4c0a      	ldr	r4, [pc, #40]	; (4294 <prvIdleTask+0x5c>)
    426c:	6823      	ldr	r3, [r4, #0]
    426e:	3b01      	subs	r3, #1
    4270:	6023      	str	r3, [r4, #0]
    4272:	4b0d      	ldr	r3, [pc, #52]	; (42a8 <prvIdleTask+0x70>)
    4274:	4798      	blx	r3
    4276:	6b28      	ldr	r0, [r5, #48]	; 0x30
    4278:	4e0c      	ldr	r6, [pc, #48]	; (42ac <prvIdleTask+0x74>)
    427a:	47b0      	blx	r6
    427c:	0028      	movs	r0, r5
    427e:	47b0      	blx	r6
    4280:	6823      	ldr	r3, [r4, #0]
    4282:	2b00      	cmp	r3, #0
    4284:	d1e8      	bne.n	4258 <prvIdleTask+0x20>
    4286:	4b0a      	ldr	r3, [pc, #40]	; (42b0 <prvIdleTask+0x78>)
    4288:	681b      	ldr	r3, [r3, #0]
    428a:	2b01      	cmp	r3, #1
    428c:	d9e0      	bls.n	4250 <prvIdleTask+0x18>
    428e:	4b09      	ldr	r3, [pc, #36]	; (42b4 <prvIdleTask+0x7c>)
    4290:	4798      	blx	r3
    4292:	e7dd      	b.n	4250 <prvIdleTask+0x18>
    4294:	20003744 	.word	0x20003744
    4298:	00002ef1 	.word	0x00002ef1
    429c:	200037b8 	.word	0x200037b8
    42a0:	00002db7 	.word	0x00002db7
    42a4:	20003740 	.word	0x20003740
    42a8:	00002f09 	.word	0x00002f09
    42ac:	00003045 	.word	0x00003045
    42b0:	200036dc 	.word	0x200036dc
    42b4:	00002ee1 	.word	0x00002ee1

000042b8 <prvAddCurrentTaskToDelayedList>:
    42b8:	b570      	push	{r4, r5, r6, lr}
    42ba:	0004      	movs	r4, r0
    42bc:	000d      	movs	r5, r1
    42be:	4b17      	ldr	r3, [pc, #92]	; (431c <prvAddCurrentTaskToDelayedList+0x64>)
    42c0:	681e      	ldr	r6, [r3, #0]
    42c2:	4b17      	ldr	r3, [pc, #92]	; (4320 <prvAddCurrentTaskToDelayedList+0x68>)
    42c4:	6818      	ldr	r0, [r3, #0]
    42c6:	3004      	adds	r0, #4
    42c8:	4b16      	ldr	r3, [pc, #88]	; (4324 <prvAddCurrentTaskToDelayedList+0x6c>)
    42ca:	4798      	blx	r3
    42cc:	1c63      	adds	r3, r4, #1
    42ce:	d013      	beq.n	42f8 <prvAddCurrentTaskToDelayedList+0x40>
    42d0:	1934      	adds	r4, r6, r4
    42d2:	4b13      	ldr	r3, [pc, #76]	; (4320 <prvAddCurrentTaskToDelayedList+0x68>)
    42d4:	681b      	ldr	r3, [r3, #0]
    42d6:	605c      	str	r4, [r3, #4]
    42d8:	42a6      	cmp	r6, r4
    42da:	d816      	bhi.n	430a <prvAddCurrentTaskToDelayedList+0x52>
    42dc:	4b12      	ldr	r3, [pc, #72]	; (4328 <prvAddCurrentTaskToDelayedList+0x70>)
    42de:	6818      	ldr	r0, [r3, #0]
    42e0:	4b0f      	ldr	r3, [pc, #60]	; (4320 <prvAddCurrentTaskToDelayedList+0x68>)
    42e2:	6819      	ldr	r1, [r3, #0]
    42e4:	3104      	adds	r1, #4
    42e6:	4b11      	ldr	r3, [pc, #68]	; (432c <prvAddCurrentTaskToDelayedList+0x74>)
    42e8:	4798      	blx	r3
    42ea:	4b11      	ldr	r3, [pc, #68]	; (4330 <prvAddCurrentTaskToDelayedList+0x78>)
    42ec:	681b      	ldr	r3, [r3, #0]
    42ee:	429c      	cmp	r4, r3
    42f0:	d212      	bcs.n	4318 <prvAddCurrentTaskToDelayedList+0x60>
    42f2:	4b0f      	ldr	r3, [pc, #60]	; (4330 <prvAddCurrentTaskToDelayedList+0x78>)
    42f4:	601c      	str	r4, [r3, #0]
    42f6:	e00f      	b.n	4318 <prvAddCurrentTaskToDelayedList+0x60>
    42f8:	2d00      	cmp	r5, #0
    42fa:	d0e9      	beq.n	42d0 <prvAddCurrentTaskToDelayedList+0x18>
    42fc:	4b08      	ldr	r3, [pc, #32]	; (4320 <prvAddCurrentTaskToDelayedList+0x68>)
    42fe:	6819      	ldr	r1, [r3, #0]
    4300:	3104      	adds	r1, #4
    4302:	480c      	ldr	r0, [pc, #48]	; (4334 <prvAddCurrentTaskToDelayedList+0x7c>)
    4304:	4b0c      	ldr	r3, [pc, #48]	; (4338 <prvAddCurrentTaskToDelayedList+0x80>)
    4306:	4798      	blx	r3
    4308:	e006      	b.n	4318 <prvAddCurrentTaskToDelayedList+0x60>
    430a:	4b0c      	ldr	r3, [pc, #48]	; (433c <prvAddCurrentTaskToDelayedList+0x84>)
    430c:	6818      	ldr	r0, [r3, #0]
    430e:	4b04      	ldr	r3, [pc, #16]	; (4320 <prvAddCurrentTaskToDelayedList+0x68>)
    4310:	6819      	ldr	r1, [r3, #0]
    4312:	3104      	adds	r1, #4
    4314:	4b05      	ldr	r3, [pc, #20]	; (432c <prvAddCurrentTaskToDelayedList+0x74>)
    4316:	4798      	blx	r3
    4318:	bd70      	pop	{r4, r5, r6, pc}
    431a:	46c0      	nop			; (mov r8, r8)
    431c:	200037cc 	.word	0x200037cc
    4320:	200036d0 	.word	0x200036d0
    4324:	00002db7 	.word	0x00002db7
    4328:	200036d4 	.word	0x200036d4
    432c:	00002d89 	.word	0x00002d89
    4330:	20003784 	.word	0x20003784
    4334:	200037a4 	.word	0x200037a4
    4338:	00002d71 	.word	0x00002d71
    433c:	200036d8 	.word	0x200036d8

00004340 <xTaskCreate>:
    4340:	b5f0      	push	{r4, r5, r6, r7, lr}
    4342:	46c6      	mov	lr, r8
    4344:	b500      	push	{lr}
    4346:	b084      	sub	sp, #16
    4348:	9001      	str	r0, [sp, #4]
    434a:	000d      	movs	r5, r1
    434c:	9302      	str	r3, [sp, #8]
    434e:	0097      	lsls	r7, r2, #2
    4350:	0038      	movs	r0, r7
    4352:	4b81      	ldr	r3, [pc, #516]	; (4558 <xTaskCreate+0x218>)
    4354:	4798      	blx	r3
    4356:	1e06      	subs	r6, r0, #0
    4358:	d100      	bne.n	435c <xTaskCreate+0x1c>
    435a:	e0b6      	b.n	44ca <xTaskCreate+0x18a>
    435c:	2054      	movs	r0, #84	; 0x54
    435e:	4b7e      	ldr	r3, [pc, #504]	; (4558 <xTaskCreate+0x218>)
    4360:	4798      	blx	r3
    4362:	1e04      	subs	r4, r0, #0
    4364:	d100      	bne.n	4368 <xTaskCreate+0x28>
    4366:	e0ad      	b.n	44c4 <xTaskCreate+0x184>
    4368:	6306      	str	r6, [r0, #48]	; 0x30
    436a:	003a      	movs	r2, r7
    436c:	21a5      	movs	r1, #165	; 0xa5
    436e:	0030      	movs	r0, r6
    4370:	4b7a      	ldr	r3, [pc, #488]	; (455c <xTaskCreate+0x21c>)
    4372:	4798      	blx	r3
    4374:	1f3a      	subs	r2, r7, #4
    4376:	6b23      	ldr	r3, [r4, #48]	; 0x30
    4378:	469c      	mov	ip, r3
    437a:	4462      	add	r2, ip
    437c:	2307      	movs	r3, #7
    437e:	439a      	bics	r2, r3
    4380:	4690      	mov	r8, r2
    4382:	782a      	ldrb	r2, [r5, #0]
    4384:	332d      	adds	r3, #45	; 0x2d
    4386:	54e2      	strb	r2, [r4, r3]
    4388:	782b      	ldrb	r3, [r5, #0]
    438a:	2b00      	cmp	r3, #0
    438c:	d00d      	beq.n	43aa <xTaskCreate+0x6a>
    438e:	3501      	adds	r5, #1
    4390:	0023      	movs	r3, r4
    4392:	3335      	adds	r3, #53	; 0x35
    4394:	0020      	movs	r0, r4
    4396:	303c      	adds	r0, #60	; 0x3c
    4398:	782a      	ldrb	r2, [r5, #0]
    439a:	701a      	strb	r2, [r3, #0]
    439c:	782a      	ldrb	r2, [r5, #0]
    439e:	2a00      	cmp	r2, #0
    43a0:	d003      	beq.n	43aa <xTaskCreate+0x6a>
    43a2:	3501      	adds	r5, #1
    43a4:	3301      	adds	r3, #1
    43a6:	4283      	cmp	r3, r0
    43a8:	d1f6      	bne.n	4398 <xTaskCreate+0x58>
    43aa:	2200      	movs	r2, #0
    43ac:	233b      	movs	r3, #59	; 0x3b
    43ae:	54e2      	strb	r2, [r4, r3]
    43b0:	9f0a      	ldr	r7, [sp, #40]	; 0x28
    43b2:	2f04      	cmp	r7, #4
    43b4:	d900      	bls.n	43b8 <xTaskCreate+0x78>
    43b6:	2704      	movs	r7, #4
    43b8:	62e7      	str	r7, [r4, #44]	; 0x2c
    43ba:	6467      	str	r7, [r4, #68]	; 0x44
    43bc:	2600      	movs	r6, #0
    43be:	64a6      	str	r6, [r4, #72]	; 0x48
    43c0:	1d23      	adds	r3, r4, #4
    43c2:	9303      	str	r3, [sp, #12]
    43c4:	0018      	movs	r0, r3
    43c6:	4d66      	ldr	r5, [pc, #408]	; (4560 <xTaskCreate+0x220>)
    43c8:	47a8      	blx	r5
    43ca:	0020      	movs	r0, r4
    43cc:	3018      	adds	r0, #24
    43ce:	47a8      	blx	r5
    43d0:	6124      	str	r4, [r4, #16]
    43d2:	2305      	movs	r3, #5
    43d4:	1bdb      	subs	r3, r3, r7
    43d6:	61a3      	str	r3, [r4, #24]
    43d8:	6264      	str	r4, [r4, #36]	; 0x24
    43da:	64e6      	str	r6, [r4, #76]	; 0x4c
    43dc:	2350      	movs	r3, #80	; 0x50
    43de:	54e6      	strb	r6, [r4, r3]
    43e0:	9a02      	ldr	r2, [sp, #8]
    43e2:	9901      	ldr	r1, [sp, #4]
    43e4:	4640      	mov	r0, r8
    43e6:	4b5f      	ldr	r3, [pc, #380]	; (4564 <xTaskCreate+0x224>)
    43e8:	4798      	blx	r3
    43ea:	6020      	str	r0, [r4, #0]
    43ec:	9b0b      	ldr	r3, [sp, #44]	; 0x2c
    43ee:	2b00      	cmp	r3, #0
    43f0:	d000      	beq.n	43f4 <xTaskCreate+0xb4>
    43f2:	601c      	str	r4, [r3, #0]
    43f4:	4b5c      	ldr	r3, [pc, #368]	; (4568 <xTaskCreate+0x228>)
    43f6:	4798      	blx	r3
    43f8:	4a5c      	ldr	r2, [pc, #368]	; (456c <xTaskCreate+0x22c>)
    43fa:	6813      	ldr	r3, [r2, #0]
    43fc:	3301      	adds	r3, #1
    43fe:	6013      	str	r3, [r2, #0]
    4400:	4b5b      	ldr	r3, [pc, #364]	; (4570 <xTaskCreate+0x230>)
    4402:	681b      	ldr	r3, [r3, #0]
    4404:	2b00      	cmp	r3, #0
    4406:	d063      	beq.n	44d0 <xTaskCreate+0x190>
    4408:	4b5a      	ldr	r3, [pc, #360]	; (4574 <xTaskCreate+0x234>)
    440a:	681b      	ldr	r3, [r3, #0]
    440c:	2b00      	cmp	r3, #0
    440e:	d107      	bne.n	4420 <xTaskCreate+0xe0>
    4410:	4b57      	ldr	r3, [pc, #348]	; (4570 <xTaskCreate+0x230>)
    4412:	681b      	ldr	r3, [r3, #0]
    4414:	6adb      	ldr	r3, [r3, #44]	; 0x2c
    4416:	6ae2      	ldr	r2, [r4, #44]	; 0x2c
    4418:	4293      	cmp	r3, r2
    441a:	d801      	bhi.n	4420 <xTaskCreate+0xe0>
    441c:	4b54      	ldr	r3, [pc, #336]	; (4570 <xTaskCreate+0x230>)
    441e:	601c      	str	r4, [r3, #0]
    4420:	4a55      	ldr	r2, [pc, #340]	; (4578 <xTaskCreate+0x238>)
    4422:	6813      	ldr	r3, [r2, #0]
    4424:	3301      	adds	r3, #1
    4426:	6013      	str	r3, [r2, #0]
    4428:	63e3      	str	r3, [r4, #60]	; 0x3c
    442a:	2003      	movs	r0, #3
    442c:	4b53      	ldr	r3, [pc, #332]	; (457c <xTaskCreate+0x23c>)
    442e:	4798      	blx	r3
    4430:	b281      	uxth	r1, r0
    4432:	0020      	movs	r0, r4
    4434:	4b52      	ldr	r3, [pc, #328]	; (4580 <xTaskCreate+0x240>)
    4436:	4798      	blx	r3
    4438:	4b52      	ldr	r3, [pc, #328]	; (4584 <xTaskCreate+0x244>)
    443a:	8819      	ldrh	r1, [r3, #0]
    443c:	0020      	movs	r0, r4
    443e:	4b52      	ldr	r3, [pc, #328]	; (4588 <xTaskCreate+0x248>)
    4440:	4798      	blx	r3
    4442:	0020      	movs	r0, r4
    4444:	4e51      	ldr	r6, [pc, #324]	; (458c <xTaskCreate+0x24c>)
    4446:	47b0      	blx	r6
    4448:	0022      	movs	r2, r4
    444a:	3234      	adds	r2, #52	; 0x34
    444c:	b2c1      	uxtb	r1, r0
    444e:	2003      	movs	r0, #3
    4450:	4b4f      	ldr	r3, [pc, #316]	; (4590 <xTaskCreate+0x250>)
    4452:	4798      	blx	r3
    4454:	0020      	movs	r0, r4
    4456:	47b0      	blx	r6
    4458:	232c      	movs	r3, #44	; 0x2c
    445a:	18e3      	adds	r3, r4, r3
    445c:	781a      	ldrb	r2, [r3, #0]
    445e:	b2c1      	uxtb	r1, r0
    4460:	2003      	movs	r0, #3
    4462:	4b4c      	ldr	r3, [pc, #304]	; (4594 <xTaskCreate+0x254>)
    4464:	4798      	blx	r3
    4466:	4b4c      	ldr	r3, [pc, #304]	; (4598 <xTaskCreate+0x258>)
    4468:	4798      	blx	r3
    446a:	4b4c      	ldr	r3, [pc, #304]	; (459c <xTaskCreate+0x25c>)
    446c:	4798      	blx	r3
    446e:	4b4c      	ldr	r3, [pc, #304]	; (45a0 <xTaskCreate+0x260>)
    4470:	881b      	ldrh	r3, [r3, #0]
    4472:	4203      	tst	r3, r0
    4474:	d154      	bne.n	4520 <xTaskCreate+0x1e0>
    4476:	0020      	movs	r0, r4
    4478:	4b48      	ldr	r3, [pc, #288]	; (459c <xTaskCreate+0x25c>)
    447a:	4798      	blx	r3
    447c:	4b48      	ldr	r3, [pc, #288]	; (45a0 <xTaskCreate+0x260>)
    447e:	881b      	ldrh	r3, [r3, #0]
    4480:	4203      	tst	r3, r0
    4482:	d15d      	bne.n	4540 <xTaskCreate+0x200>
    4484:	6ae3      	ldr	r3, [r4, #44]	; 0x2c
    4486:	4a47      	ldr	r2, [pc, #284]	; (45a4 <xTaskCreate+0x264>)
    4488:	6812      	ldr	r2, [r2, #0]
    448a:	4293      	cmp	r3, r2
    448c:	d901      	bls.n	4492 <xTaskCreate+0x152>
    448e:	4a45      	ldr	r2, [pc, #276]	; (45a4 <xTaskCreate+0x264>)
    4490:	6013      	str	r3, [r2, #0]
    4492:	0098      	lsls	r0, r3, #2
    4494:	18c0      	adds	r0, r0, r3
    4496:	0080      	lsls	r0, r0, #2
    4498:	4b43      	ldr	r3, [pc, #268]	; (45a8 <xTaskCreate+0x268>)
    449a:	1818      	adds	r0, r3, r0
    449c:	9903      	ldr	r1, [sp, #12]
    449e:	4b43      	ldr	r3, [pc, #268]	; (45ac <xTaskCreate+0x26c>)
    44a0:	4798      	blx	r3
    44a2:	4b43      	ldr	r3, [pc, #268]	; (45b0 <xTaskCreate+0x270>)
    44a4:	4798      	blx	r3
    44a6:	4b33      	ldr	r3, [pc, #204]	; (4574 <xTaskCreate+0x234>)
    44a8:	681b      	ldr	r3, [r3, #0]
    44aa:	2001      	movs	r0, #1
    44ac:	2b00      	cmp	r3, #0
    44ae:	d005      	beq.n	44bc <xTaskCreate+0x17c>
    44b0:	4b2f      	ldr	r3, [pc, #188]	; (4570 <xTaskCreate+0x230>)
    44b2:	681b      	ldr	r3, [r3, #0]
    44b4:	6ada      	ldr	r2, [r3, #44]	; 0x2c
    44b6:	6ae3      	ldr	r3, [r4, #44]	; 0x2c
    44b8:	429a      	cmp	r2, r3
    44ba:	d348      	bcc.n	454e <xTaskCreate+0x20e>
    44bc:	b004      	add	sp, #16
    44be:	bc04      	pop	{r2}
    44c0:	4690      	mov	r8, r2
    44c2:	bdf0      	pop	{r4, r5, r6, r7, pc}
    44c4:	0030      	movs	r0, r6
    44c6:	4b3b      	ldr	r3, [pc, #236]	; (45b4 <xTaskCreate+0x274>)
    44c8:	4798      	blx	r3
    44ca:	2001      	movs	r0, #1
    44cc:	4240      	negs	r0, r0
    44ce:	e7f5      	b.n	44bc <xTaskCreate+0x17c>
    44d0:	4b27      	ldr	r3, [pc, #156]	; (4570 <xTaskCreate+0x230>)
    44d2:	601c      	str	r4, [r3, #0]
    44d4:	6813      	ldr	r3, [r2, #0]
    44d6:	2b01      	cmp	r3, #1
    44d8:	d1a2      	bne.n	4420 <xTaskCreate+0xe0>
    44da:	4f33      	ldr	r7, [pc, #204]	; (45a8 <xTaskCreate+0x268>)
    44dc:	0038      	movs	r0, r7
    44de:	4e36      	ldr	r6, [pc, #216]	; (45b8 <xTaskCreate+0x278>)
    44e0:	47b0      	blx	r6
    44e2:	0038      	movs	r0, r7
    44e4:	3014      	adds	r0, #20
    44e6:	47b0      	blx	r6
    44e8:	0038      	movs	r0, r7
    44ea:	3028      	adds	r0, #40	; 0x28
    44ec:	47b0      	blx	r6
    44ee:	0038      	movs	r0, r7
    44f0:	303c      	adds	r0, #60	; 0x3c
    44f2:	47b0      	blx	r6
    44f4:	0038      	movs	r0, r7
    44f6:	3050      	adds	r0, #80	; 0x50
    44f8:	47b0      	blx	r6
    44fa:	4b30      	ldr	r3, [pc, #192]	; (45bc <xTaskCreate+0x27c>)
    44fc:	4698      	mov	r8, r3
    44fe:	0018      	movs	r0, r3
    4500:	47b0      	blx	r6
    4502:	4f2f      	ldr	r7, [pc, #188]	; (45c0 <xTaskCreate+0x280>)
    4504:	0038      	movs	r0, r7
    4506:	47b0      	blx	r6
    4508:	482e      	ldr	r0, [pc, #184]	; (45c4 <xTaskCreate+0x284>)
    450a:	47b0      	blx	r6
    450c:	482e      	ldr	r0, [pc, #184]	; (45c8 <xTaskCreate+0x288>)
    450e:	47b0      	blx	r6
    4510:	482e      	ldr	r0, [pc, #184]	; (45cc <xTaskCreate+0x28c>)
    4512:	47b0      	blx	r6
    4514:	4b2e      	ldr	r3, [pc, #184]	; (45d0 <xTaskCreate+0x290>)
    4516:	4642      	mov	r2, r8
    4518:	601a      	str	r2, [r3, #0]
    451a:	4b2e      	ldr	r3, [pc, #184]	; (45d4 <xTaskCreate+0x294>)
    451c:	601f      	str	r7, [r3, #0]
    451e:	e77f      	b.n	4420 <xTaskCreate+0xe0>
    4520:	0020      	movs	r0, r4
    4522:	4b1e      	ldr	r3, [pc, #120]	; (459c <xTaskCreate+0x25c>)
    4524:	4798      	blx	r3
    4526:	4b1e      	ldr	r3, [pc, #120]	; (45a0 <xTaskCreate+0x260>)
    4528:	881b      	ldrh	r3, [r3, #0]
    452a:	4203      	tst	r3, r0
    452c:	d0a3      	beq.n	4476 <xTaskCreate+0x136>
    452e:	0020      	movs	r0, r4
    4530:	4b16      	ldr	r3, [pc, #88]	; (458c <xTaskCreate+0x24c>)
    4532:	4798      	blx	r3
    4534:	b2c2      	uxtb	r2, r0
    4536:	2103      	movs	r1, #3
    4538:	201b      	movs	r0, #27
    453a:	4b27      	ldr	r3, [pc, #156]	; (45d8 <xTaskCreate+0x298>)
    453c:	4798      	blx	r3
    453e:	e79a      	b.n	4476 <xTaskCreate+0x136>
    4540:	0020      	movs	r0, r4
    4542:	4b12      	ldr	r3, [pc, #72]	; (458c <xTaskCreate+0x24c>)
    4544:	4798      	blx	r3
    4546:	b2c0      	uxtb	r0, r0
    4548:	4b24      	ldr	r3, [pc, #144]	; (45dc <xTaskCreate+0x29c>)
    454a:	4798      	blx	r3
    454c:	e79a      	b.n	4484 <xTaskCreate+0x144>
    454e:	4b24      	ldr	r3, [pc, #144]	; (45e0 <xTaskCreate+0x2a0>)
    4550:	4798      	blx	r3
    4552:	2001      	movs	r0, #1
    4554:	e7b2      	b.n	44bc <xTaskCreate+0x17c>
    4556:	46c0      	nop			; (mov r8, r8)
    4558:	00002fb5 	.word	0x00002fb5
    455c:	00008d4f 	.word	0x00008d4f
    4560:	00002d6b 	.word	0x00002d6b
    4564:	00002e45 	.word	0x00002e45
    4568:	00002ef1 	.word	0x00002ef1
    456c:	20003740 	.word	0x20003740
    4570:	200036d0 	.word	0x200036d0
    4574:	200037a0 	.word	0x200037a0
    4578:	20003750 	.word	0x20003750
    457c:	000024dd 	.word	0x000024dd
    4580:	00001c91 	.word	0x00001c91
    4584:	2000001e 	.word	0x2000001e
    4588:	00001cb1 	.word	0x00001cb1
    458c:	00001c71 	.word	0x00001c71
    4590:	000025b1 	.word	0x000025b1
    4594:	00002391 	.word	0x00002391
    4598:	00001d39 	.word	0x00001d39
    459c:	00001c81 	.word	0x00001c81
    45a0:	20000020 	.word	0x20000020
    45a4:	20003754 	.word	0x20003754
    45a8:	200036dc 	.word	0x200036dc
    45ac:	00002d71 	.word	0x00002d71
    45b0:	00002f09 	.word	0x00002f09
    45b4:	00003045 	.word	0x00003045
    45b8:	00002d55 	.word	0x00002d55
    45bc:	20003758 	.word	0x20003758
    45c0:	2000376c 	.word	0x2000376c
    45c4:	2000378c 	.word	0x2000378c
    45c8:	200037b8 	.word	0x200037b8
    45cc:	200037a4 	.word	0x200037a4
    45d0:	200036d4 	.word	0x200036d4
    45d4:	200036d8 	.word	0x200036d8
    45d8:	00002971 	.word	0x00002971
    45dc:	00002809 	.word	0x00002809
    45e0:	00002ee1 	.word	0x00002ee1

000045e4 <vTaskStartScheduler>:
    45e4:	b510      	push	{r4, lr}
    45e6:	b082      	sub	sp, #8
    45e8:	4b11      	ldr	r3, [pc, #68]	; (4630 <vTaskStartScheduler+0x4c>)
    45ea:	9301      	str	r3, [sp, #4]
    45ec:	2300      	movs	r3, #0
    45ee:	9300      	str	r3, [sp, #0]
    45f0:	22fa      	movs	r2, #250	; 0xfa
    45f2:	0052      	lsls	r2, r2, #1
    45f4:	490f      	ldr	r1, [pc, #60]	; (4634 <vTaskStartScheduler+0x50>)
    45f6:	4810      	ldr	r0, [pc, #64]	; (4638 <vTaskStartScheduler+0x54>)
    45f8:	4c10      	ldr	r4, [pc, #64]	; (463c <vTaskStartScheduler+0x58>)
    45fa:	47a0      	blx	r4
    45fc:	2801      	cmp	r0, #1
    45fe:	d003      	beq.n	4608 <vTaskStartScheduler+0x24>
    4600:	1c43      	adds	r3, r0, #1
    4602:	d013      	beq.n	462c <vTaskStartScheduler+0x48>
    4604:	b002      	add	sp, #8
    4606:	bd10      	pop	{r4, pc}
    4608:	4b0d      	ldr	r3, [pc, #52]	; (4640 <vTaskStartScheduler+0x5c>)
    460a:	4798      	blx	r3
    460c:	2801      	cmp	r0, #1
    460e:	d1f7      	bne.n	4600 <vTaskStartScheduler+0x1c>
    4610:	b672      	cpsid	i
    4612:	2201      	movs	r2, #1
    4614:	4252      	negs	r2, r2
    4616:	4b0b      	ldr	r3, [pc, #44]	; (4644 <vTaskStartScheduler+0x60>)
    4618:	601a      	str	r2, [r3, #0]
    461a:	3202      	adds	r2, #2
    461c:	4b0a      	ldr	r3, [pc, #40]	; (4648 <vTaskStartScheduler+0x64>)
    461e:	601a      	str	r2, [r3, #0]
    4620:	2200      	movs	r2, #0
    4622:	4b0a      	ldr	r3, [pc, #40]	; (464c <vTaskStartScheduler+0x68>)
    4624:	601a      	str	r2, [r3, #0]
    4626:	4b0a      	ldr	r3, [pc, #40]	; (4650 <vTaskStartScheduler+0x6c>)
    4628:	4798      	blx	r3
    462a:	e7eb      	b.n	4604 <vTaskStartScheduler+0x20>
    462c:	b672      	cpsid	i
    462e:	e7fe      	b.n	462e <vTaskStartScheduler+0x4a>
    4630:	20003780 	.word	0x20003780
    4634:	0000a7b8 	.word	0x0000a7b8
    4638:	00004239 	.word	0x00004239
    463c:	00004341 	.word	0x00004341
    4640:	00005209 	.word	0x00005209
    4644:	20003784 	.word	0x20003784
    4648:	200037a0 	.word	0x200037a0
    464c:	200037cc 	.word	0x200037cc
    4650:	00002e69 	.word	0x00002e69

00004654 <vTaskSuspendAll>:
    4654:	4a02      	ldr	r2, [pc, #8]	; (4660 <vTaskSuspendAll+0xc>)
    4656:	6813      	ldr	r3, [r2, #0]
    4658:	3301      	adds	r3, #1
    465a:	6013      	str	r3, [r2, #0]
    465c:	4770      	bx	lr
    465e:	46c0      	nop			; (mov r8, r8)
    4660:	2000374c 	.word	0x2000374c

00004664 <xTaskGetTickCount>:
    4664:	4b01      	ldr	r3, [pc, #4]	; (466c <xTaskGetTickCount+0x8>)
    4666:	6818      	ldr	r0, [r3, #0]
    4668:	4770      	bx	lr
    466a:	46c0      	nop			; (mov r8, r8)
    466c:	200037cc 	.word	0x200037cc

00004670 <xTaskIncrementTick>:
    4670:	b5f0      	push	{r4, r5, r6, r7, lr}
    4672:	b083      	sub	sp, #12
    4674:	4b4c      	ldr	r3, [pc, #304]	; (47a8 <xTaskIncrementTick+0x138>)
    4676:	681b      	ldr	r3, [r3, #0]
    4678:	2b01      	cmp	r3, #1
    467a:	d003      	beq.n	4684 <xTaskIncrementTick+0x14>
    467c:	4b4b      	ldr	r3, [pc, #300]	; (47ac <xTaskIncrementTick+0x13c>)
    467e:	681b      	ldr	r3, [r3, #0]
    4680:	2b00      	cmp	r3, #0
    4682:	d106      	bne.n	4692 <xTaskIncrementTick+0x22>
    4684:	4a4a      	ldr	r2, [pc, #296]	; (47b0 <xTaskIncrementTick+0x140>)
    4686:	6813      	ldr	r3, [r2, #0]
    4688:	3301      	adds	r3, #1
    468a:	6013      	str	r3, [r2, #0]
    468c:	2000      	movs	r0, #0
    468e:	4b49      	ldr	r3, [pc, #292]	; (47b4 <xTaskIncrementTick+0x144>)
    4690:	4798      	blx	r3
    4692:	4b45      	ldr	r3, [pc, #276]	; (47a8 <xTaskIncrementTick+0x138>)
    4694:	681b      	ldr	r3, [r3, #0]
    4696:	2b00      	cmp	r3, #0
    4698:	d010      	beq.n	46bc <xTaskIncrementTick+0x4c>
    469a:	4b43      	ldr	r3, [pc, #268]	; (47a8 <xTaskIncrementTick+0x138>)
    469c:	681b      	ldr	r3, [r3, #0]
    469e:	2b00      	cmp	r3, #0
    46a0:	d175      	bne.n	478e <xTaskIncrementTick+0x11e>
    46a2:	4b45      	ldr	r3, [pc, #276]	; (47b8 <xTaskIncrementTick+0x148>)
    46a4:	681e      	ldr	r6, [r3, #0]
    46a6:	3601      	adds	r6, #1
    46a8:	601e      	str	r6, [r3, #0]
    46aa:	2e00      	cmp	r6, #0
    46ac:	d119      	bne.n	46e2 <xTaskIncrementTick+0x72>
    46ae:	4b43      	ldr	r3, [pc, #268]	; (47bc <xTaskIncrementTick+0x14c>)
    46b0:	681b      	ldr	r3, [r3, #0]
    46b2:	681b      	ldr	r3, [r3, #0]
    46b4:	2b00      	cmp	r3, #0
    46b6:	d008      	beq.n	46ca <xTaskIncrementTick+0x5a>
    46b8:	b672      	cpsid	i
    46ba:	e7fe      	b.n	46ba <xTaskIncrementTick+0x4a>
    46bc:	4b3e      	ldr	r3, [pc, #248]	; (47b8 <xTaskIncrementTick+0x148>)
    46be:	6819      	ldr	r1, [r3, #0]
    46c0:	3101      	adds	r1, #1
    46c2:	2003      	movs	r0, #3
    46c4:	4b3e      	ldr	r3, [pc, #248]	; (47c0 <xTaskIncrementTick+0x150>)
    46c6:	4798      	blx	r3
    46c8:	e7e7      	b.n	469a <xTaskIncrementTick+0x2a>
    46ca:	4a3c      	ldr	r2, [pc, #240]	; (47bc <xTaskIncrementTick+0x14c>)
    46cc:	6811      	ldr	r1, [r2, #0]
    46ce:	4b3d      	ldr	r3, [pc, #244]	; (47c4 <xTaskIncrementTick+0x154>)
    46d0:	6818      	ldr	r0, [r3, #0]
    46d2:	6010      	str	r0, [r2, #0]
    46d4:	6019      	str	r1, [r3, #0]
    46d6:	4a3c      	ldr	r2, [pc, #240]	; (47c8 <xTaskIncrementTick+0x158>)
    46d8:	6813      	ldr	r3, [r2, #0]
    46da:	3301      	adds	r3, #1
    46dc:	6013      	str	r3, [r2, #0]
    46de:	4b3b      	ldr	r3, [pc, #236]	; (47cc <xTaskIncrementTick+0x15c>)
    46e0:	4798      	blx	r3
    46e2:	4b3b      	ldr	r3, [pc, #236]	; (47d0 <xTaskIncrementTick+0x160>)
    46e4:	681b      	ldr	r3, [r3, #0]
    46e6:	2500      	movs	r5, #0
    46e8:	429e      	cmp	r6, r3
    46ea:	d33a      	bcc.n	4762 <xTaskIncrementTick+0xf2>
    46ec:	2500      	movs	r5, #0
    46ee:	4f33      	ldr	r7, [pc, #204]	; (47bc <xTaskIncrementTick+0x14c>)
    46f0:	683b      	ldr	r3, [r7, #0]
    46f2:	681b      	ldr	r3, [r3, #0]
    46f4:	2b00      	cmp	r3, #0
    46f6:	d030      	beq.n	475a <xTaskIncrementTick+0xea>
    46f8:	4b30      	ldr	r3, [pc, #192]	; (47bc <xTaskIncrementTick+0x14c>)
    46fa:	681b      	ldr	r3, [r3, #0]
    46fc:	68db      	ldr	r3, [r3, #12]
    46fe:	68dc      	ldr	r4, [r3, #12]
    4700:	6863      	ldr	r3, [r4, #4]
    4702:	429e      	cmp	r6, r3
    4704:	d339      	bcc.n	477a <xTaskIncrementTick+0x10a>
    4706:	1d23      	adds	r3, r4, #4
    4708:	9301      	str	r3, [sp, #4]
    470a:	0018      	movs	r0, r3
    470c:	4b31      	ldr	r3, [pc, #196]	; (47d4 <xTaskIncrementTick+0x164>)
    470e:	4798      	blx	r3
    4710:	6aa3      	ldr	r3, [r4, #40]	; 0x28
    4712:	2b00      	cmp	r3, #0
    4714:	d003      	beq.n	471e <xTaskIncrementTick+0xae>
    4716:	0020      	movs	r0, r4
    4718:	3018      	adds	r0, #24
    471a:	4b2e      	ldr	r3, [pc, #184]	; (47d4 <xTaskIncrementTick+0x164>)
    471c:	4798      	blx	r3
    471e:	0020      	movs	r0, r4
    4720:	4b2d      	ldr	r3, [pc, #180]	; (47d8 <xTaskIncrementTick+0x168>)
    4722:	4798      	blx	r3
    4724:	4b2d      	ldr	r3, [pc, #180]	; (47dc <xTaskIncrementTick+0x16c>)
    4726:	881b      	ldrh	r3, [r3, #0]
    4728:	4203      	tst	r3, r0
    472a:	d129      	bne.n	4780 <xTaskIncrementTick+0x110>
    472c:	6ae3      	ldr	r3, [r4, #44]	; 0x2c
    472e:	4a2c      	ldr	r2, [pc, #176]	; (47e0 <xTaskIncrementTick+0x170>)
    4730:	6812      	ldr	r2, [r2, #0]
    4732:	4293      	cmp	r3, r2
    4734:	d901      	bls.n	473a <xTaskIncrementTick+0xca>
    4736:	4a2a      	ldr	r2, [pc, #168]	; (47e0 <xTaskIncrementTick+0x170>)
    4738:	6013      	str	r3, [r2, #0]
    473a:	0098      	lsls	r0, r3, #2
    473c:	18c0      	adds	r0, r0, r3
    473e:	0080      	lsls	r0, r0, #2
    4740:	4b28      	ldr	r3, [pc, #160]	; (47e4 <xTaskIncrementTick+0x174>)
    4742:	1818      	adds	r0, r3, r0
    4744:	9901      	ldr	r1, [sp, #4]
    4746:	4b28      	ldr	r3, [pc, #160]	; (47e8 <xTaskIncrementTick+0x178>)
    4748:	4798      	blx	r3
    474a:	4b28      	ldr	r3, [pc, #160]	; (47ec <xTaskIncrementTick+0x17c>)
    474c:	681b      	ldr	r3, [r3, #0]
    474e:	6ae2      	ldr	r2, [r4, #44]	; 0x2c
    4750:	6adb      	ldr	r3, [r3, #44]	; 0x2c
    4752:	429a      	cmp	r2, r3
    4754:	d3cc      	bcc.n	46f0 <xTaskIncrementTick+0x80>
    4756:	2501      	movs	r5, #1
    4758:	e7ca      	b.n	46f0 <xTaskIncrementTick+0x80>
    475a:	2201      	movs	r2, #1
    475c:	4252      	negs	r2, r2
    475e:	4b1c      	ldr	r3, [pc, #112]	; (47d0 <xTaskIncrementTick+0x160>)
    4760:	601a      	str	r2, [r3, #0]
    4762:	4b22      	ldr	r3, [pc, #136]	; (47ec <xTaskIncrementTick+0x17c>)
    4764:	681b      	ldr	r3, [r3, #0]
    4766:	6ada      	ldr	r2, [r3, #44]	; 0x2c
    4768:	0093      	lsls	r3, r2, #2
    476a:	189b      	adds	r3, r3, r2
    476c:	009b      	lsls	r3, r3, #2
    476e:	4a1d      	ldr	r2, [pc, #116]	; (47e4 <xTaskIncrementTick+0x174>)
    4770:	589b      	ldr	r3, [r3, r2]
    4772:	2b01      	cmp	r3, #1
    4774:	d910      	bls.n	4798 <xTaskIncrementTick+0x128>
    4776:	2501      	movs	r5, #1
    4778:	e00e      	b.n	4798 <xTaskIncrementTick+0x128>
    477a:	4a15      	ldr	r2, [pc, #84]	; (47d0 <xTaskIncrementTick+0x160>)
    477c:	6013      	str	r3, [r2, #0]
    477e:	e7f0      	b.n	4762 <xTaskIncrementTick+0xf2>
    4780:	0020      	movs	r0, r4
    4782:	4b1b      	ldr	r3, [pc, #108]	; (47f0 <xTaskIncrementTick+0x180>)
    4784:	4798      	blx	r3
    4786:	b2c0      	uxtb	r0, r0
    4788:	4b1a      	ldr	r3, [pc, #104]	; (47f4 <xTaskIncrementTick+0x184>)
    478a:	4798      	blx	r3
    478c:	e7ce      	b.n	472c <xTaskIncrementTick+0xbc>
    478e:	4a07      	ldr	r2, [pc, #28]	; (47ac <xTaskIncrementTick+0x13c>)
    4790:	6813      	ldr	r3, [r2, #0]
    4792:	3301      	adds	r3, #1
    4794:	6013      	str	r3, [r2, #0]
    4796:	2500      	movs	r5, #0
    4798:	4b17      	ldr	r3, [pc, #92]	; (47f8 <xTaskIncrementTick+0x188>)
    479a:	681b      	ldr	r3, [r3, #0]
    479c:	2b00      	cmp	r3, #0
    479e:	d000      	beq.n	47a2 <xTaskIncrementTick+0x132>
    47a0:	2501      	movs	r5, #1
    47a2:	0028      	movs	r0, r5
    47a4:	b003      	add	sp, #12
    47a6:	bdf0      	pop	{r4, r5, r6, r7, pc}
    47a8:	2000374c 	.word	0x2000374c
    47ac:	20003748 	.word	0x20003748
    47b0:	200003f8 	.word	0x200003f8
    47b4:	00002641 	.word	0x00002641
    47b8:	200037cc 	.word	0x200037cc
    47bc:	200036d4 	.word	0x200036d4
    47c0:	00002b0d 	.word	0x00002b0d
    47c4:	200036d8 	.word	0x200036d8
    47c8:	20003788 	.word	0x20003788
    47cc:	0000420d 	.word	0x0000420d
    47d0:	20003784 	.word	0x20003784
    47d4:	00002db7 	.word	0x00002db7
    47d8:	00001c81 	.word	0x00001c81
    47dc:	20000020 	.word	0x20000020
    47e0:	20003754 	.word	0x20003754
    47e4:	200036dc 	.word	0x200036dc
    47e8:	00002d71 	.word	0x00002d71
    47ec:	200036d0 	.word	0x200036d0
    47f0:	00001c71 	.word	0x00001c71
    47f4:	00002809 	.word	0x00002809
    47f8:	200037d0 	.word	0x200037d0

000047fc <xTaskResumeAll>:
    47fc:	b5f8      	push	{r3, r4, r5, r6, r7, lr}
    47fe:	4b37      	ldr	r3, [pc, #220]	; (48dc <xTaskResumeAll+0xe0>)
    4800:	681b      	ldr	r3, [r3, #0]
    4802:	2b00      	cmp	r3, #0
    4804:	d101      	bne.n	480a <xTaskResumeAll+0xe>
    4806:	b672      	cpsid	i
    4808:	e7fe      	b.n	4808 <xTaskResumeAll+0xc>
    480a:	4b35      	ldr	r3, [pc, #212]	; (48e0 <xTaskResumeAll+0xe4>)
    480c:	4798      	blx	r3
    480e:	4b33      	ldr	r3, [pc, #204]	; (48dc <xTaskResumeAll+0xe0>)
    4810:	681a      	ldr	r2, [r3, #0]
    4812:	3a01      	subs	r2, #1
    4814:	601a      	str	r2, [r3, #0]
    4816:	681b      	ldr	r3, [r3, #0]
    4818:	2400      	movs	r4, #0
    481a:	2b00      	cmp	r3, #0
    481c:	d103      	bne.n	4826 <xTaskResumeAll+0x2a>
    481e:	4b31      	ldr	r3, [pc, #196]	; (48e4 <xTaskResumeAll+0xe8>)
    4820:	681b      	ldr	r3, [r3, #0]
    4822:	2b00      	cmp	r3, #0
    4824:	d136      	bne.n	4894 <xTaskResumeAll+0x98>
    4826:	4b30      	ldr	r3, [pc, #192]	; (48e8 <xTaskResumeAll+0xec>)
    4828:	4798      	blx	r3
    482a:	0020      	movs	r0, r4
    482c:	bdf8      	pop	{r3, r4, r5, r6, r7, pc}
    482e:	6ae3      	ldr	r3, [r4, #44]	; 0x2c
    4830:	4a2e      	ldr	r2, [pc, #184]	; (48ec <xTaskResumeAll+0xf0>)
    4832:	6812      	ldr	r2, [r2, #0]
    4834:	4293      	cmp	r3, r2
    4836:	d901      	bls.n	483c <xTaskResumeAll+0x40>
    4838:	4a2c      	ldr	r2, [pc, #176]	; (48ec <xTaskResumeAll+0xf0>)
    483a:	6013      	str	r3, [r2, #0]
    483c:	0098      	lsls	r0, r3, #2
    483e:	18c0      	adds	r0, r0, r3
    4840:	0080      	lsls	r0, r0, #2
    4842:	4b2b      	ldr	r3, [pc, #172]	; (48f0 <xTaskResumeAll+0xf4>)
    4844:	1818      	adds	r0, r3, r0
    4846:	0031      	movs	r1, r6
    4848:	4b2a      	ldr	r3, [pc, #168]	; (48f4 <xTaskResumeAll+0xf8>)
    484a:	4798      	blx	r3
    484c:	4b2a      	ldr	r3, [pc, #168]	; (48f8 <xTaskResumeAll+0xfc>)
    484e:	681b      	ldr	r3, [r3, #0]
    4850:	6adb      	ldr	r3, [r3, #44]	; 0x2c
    4852:	6ae2      	ldr	r2, [r4, #44]	; 0x2c
    4854:	429a      	cmp	r2, r3
    4856:	d302      	bcc.n	485e <xTaskResumeAll+0x62>
    4858:	2201      	movs	r2, #1
    485a:	4b28      	ldr	r3, [pc, #160]	; (48fc <xTaskResumeAll+0x100>)
    485c:	601a      	str	r2, [r3, #0]
    485e:	682b      	ldr	r3, [r5, #0]
    4860:	2b00      	cmp	r3, #0
    4862:	d01a      	beq.n	489a <xTaskResumeAll+0x9e>
    4864:	68fb      	ldr	r3, [r7, #12]
    4866:	68dc      	ldr	r4, [r3, #12]
    4868:	0020      	movs	r0, r4
    486a:	3018      	adds	r0, #24
    486c:	4b24      	ldr	r3, [pc, #144]	; (4900 <xTaskResumeAll+0x104>)
    486e:	4798      	blx	r3
    4870:	1d26      	adds	r6, r4, #4
    4872:	0030      	movs	r0, r6
    4874:	4b22      	ldr	r3, [pc, #136]	; (4900 <xTaskResumeAll+0x104>)
    4876:	4798      	blx	r3
    4878:	0020      	movs	r0, r4
    487a:	4b22      	ldr	r3, [pc, #136]	; (4904 <xTaskResumeAll+0x108>)
    487c:	4798      	blx	r3
    487e:	4b22      	ldr	r3, [pc, #136]	; (4908 <xTaskResumeAll+0x10c>)
    4880:	881b      	ldrh	r3, [r3, #0]
    4882:	4203      	tst	r3, r0
    4884:	d0d3      	beq.n	482e <xTaskResumeAll+0x32>
    4886:	0020      	movs	r0, r4
    4888:	4b20      	ldr	r3, [pc, #128]	; (490c <xTaskResumeAll+0x110>)
    488a:	4798      	blx	r3
    488c:	b2c0      	uxtb	r0, r0
    488e:	4b20      	ldr	r3, [pc, #128]	; (4910 <xTaskResumeAll+0x114>)
    4890:	4798      	blx	r3
    4892:	e7cc      	b.n	482e <xTaskResumeAll+0x32>
    4894:	4d1f      	ldr	r5, [pc, #124]	; (4914 <xTaskResumeAll+0x118>)
    4896:	002f      	movs	r7, r5
    4898:	e7e1      	b.n	485e <xTaskResumeAll+0x62>
    489a:	2c00      	cmp	r4, #0
    489c:	d001      	beq.n	48a2 <xTaskResumeAll+0xa6>
    489e:	4b1e      	ldr	r3, [pc, #120]	; (4918 <xTaskResumeAll+0x11c>)
    48a0:	4798      	blx	r3
    48a2:	4b1e      	ldr	r3, [pc, #120]	; (491c <xTaskResumeAll+0x120>)
    48a4:	681c      	ldr	r4, [r3, #0]
    48a6:	2c00      	cmp	r4, #0
    48a8:	d00e      	beq.n	48c8 <xTaskResumeAll+0xcc>
    48aa:	4f1d      	ldr	r7, [pc, #116]	; (4920 <xTaskResumeAll+0x124>)
    48ac:	4e13      	ldr	r6, [pc, #76]	; (48fc <xTaskResumeAll+0x100>)
    48ae:	2501      	movs	r5, #1
    48b0:	e002      	b.n	48b8 <xTaskResumeAll+0xbc>
    48b2:	3c01      	subs	r4, #1
    48b4:	2c00      	cmp	r4, #0
    48b6:	d004      	beq.n	48c2 <xTaskResumeAll+0xc6>
    48b8:	47b8      	blx	r7
    48ba:	2800      	cmp	r0, #0
    48bc:	d0f9      	beq.n	48b2 <xTaskResumeAll+0xb6>
    48be:	6035      	str	r5, [r6, #0]
    48c0:	e7f7      	b.n	48b2 <xTaskResumeAll+0xb6>
    48c2:	2200      	movs	r2, #0
    48c4:	4b15      	ldr	r3, [pc, #84]	; (491c <xTaskResumeAll+0x120>)
    48c6:	601a      	str	r2, [r3, #0]
    48c8:	4b0c      	ldr	r3, [pc, #48]	; (48fc <xTaskResumeAll+0x100>)
    48ca:	681b      	ldr	r3, [r3, #0]
    48cc:	2400      	movs	r4, #0
    48ce:	2b00      	cmp	r3, #0
    48d0:	d0a9      	beq.n	4826 <xTaskResumeAll+0x2a>
    48d2:	4b14      	ldr	r3, [pc, #80]	; (4924 <xTaskResumeAll+0x128>)
    48d4:	4798      	blx	r3
    48d6:	3401      	adds	r4, #1
    48d8:	e7a5      	b.n	4826 <xTaskResumeAll+0x2a>
    48da:	46c0      	nop			; (mov r8, r8)
    48dc:	2000374c 	.word	0x2000374c
    48e0:	00002ef1 	.word	0x00002ef1
    48e4:	20003740 	.word	0x20003740
    48e8:	00002f09 	.word	0x00002f09
    48ec:	20003754 	.word	0x20003754
    48f0:	200036dc 	.word	0x200036dc
    48f4:	00002d71 	.word	0x00002d71
    48f8:	200036d0 	.word	0x200036d0
    48fc:	200037d0 	.word	0x200037d0
    4900:	00002db7 	.word	0x00002db7
    4904:	00001c81 	.word	0x00001c81
    4908:	20000020 	.word	0x20000020
    490c:	00001c71 	.word	0x00001c71
    4910:	00002809 	.word	0x00002809
    4914:	2000378c 	.word	0x2000378c
    4918:	0000420d 	.word	0x0000420d
    491c:	20003748 	.word	0x20003748
    4920:	00004671 	.word	0x00004671
    4924:	00002ee1 	.word	0x00002ee1

00004928 <vTaskDelay>:
    4928:	b510      	push	{r4, lr}
    492a:	1e04      	subs	r4, r0, #0
    492c:	d031      	beq.n	4992 <vTaskDelay+0x6a>
    492e:	4b1a      	ldr	r3, [pc, #104]	; (4998 <vTaskDelay+0x70>)
    4930:	681b      	ldr	r3, [r3, #0]
    4932:	2b00      	cmp	r3, #0
    4934:	d001      	beq.n	493a <vTaskDelay+0x12>
    4936:	b672      	cpsid	i
    4938:	e7fe      	b.n	4938 <vTaskDelay+0x10>
    493a:	4b18      	ldr	r3, [pc, #96]	; (499c <vTaskDelay+0x74>)
    493c:	4798      	blx	r3
    493e:	4b18      	ldr	r3, [pc, #96]	; (49a0 <vTaskDelay+0x78>)
    4940:	6818      	ldr	r0, [r3, #0]
    4942:	4b18      	ldr	r3, [pc, #96]	; (49a4 <vTaskDelay+0x7c>)
    4944:	4798      	blx	r3
    4946:	4b18      	ldr	r3, [pc, #96]	; (49a8 <vTaskDelay+0x80>)
    4948:	881b      	ldrh	r3, [r3, #0]
    494a:	4203      	tst	r3, r0
    494c:	d00a      	beq.n	4964 <vTaskDelay+0x3c>
    494e:	0021      	movs	r1, r4
    4950:	2089      	movs	r0, #137	; 0x89
    4952:	4b16      	ldr	r3, [pc, #88]	; (49ac <vTaskDelay+0x84>)
    4954:	4798      	blx	r3
    4956:	4b12      	ldr	r3, [pc, #72]	; (49a0 <vTaskDelay+0x78>)
    4958:	6818      	ldr	r0, [r3, #0]
    495a:	4b15      	ldr	r3, [pc, #84]	; (49b0 <vTaskDelay+0x88>)
    495c:	4798      	blx	r3
    495e:	b2c0      	uxtb	r0, r0
    4960:	4b14      	ldr	r3, [pc, #80]	; (49b4 <vTaskDelay+0x8c>)
    4962:	4798      	blx	r3
    4964:	4b14      	ldr	r3, [pc, #80]	; (49b8 <vTaskDelay+0x90>)
    4966:	4798      	blx	r3
    4968:	4b0e      	ldr	r3, [pc, #56]	; (49a4 <vTaskDelay+0x7c>)
    496a:	4798      	blx	r3
    496c:	4b0e      	ldr	r3, [pc, #56]	; (49a8 <vTaskDelay+0x80>)
    496e:	881b      	ldrh	r3, [r3, #0]
    4970:	4203      	tst	r3, r0
    4972:	d006      	beq.n	4982 <vTaskDelay+0x5a>
    4974:	4b10      	ldr	r3, [pc, #64]	; (49b8 <vTaskDelay+0x90>)
    4976:	4798      	blx	r3
    4978:	4b0d      	ldr	r3, [pc, #52]	; (49b0 <vTaskDelay+0x88>)
    497a:	4798      	blx	r3
    497c:	b2c0      	uxtb	r0, r0
    497e:	4b0d      	ldr	r3, [pc, #52]	; (49b4 <vTaskDelay+0x8c>)
    4980:	4798      	blx	r3
    4982:	2100      	movs	r1, #0
    4984:	0020      	movs	r0, r4
    4986:	4b0d      	ldr	r3, [pc, #52]	; (49bc <vTaskDelay+0x94>)
    4988:	4798      	blx	r3
    498a:	4b0d      	ldr	r3, [pc, #52]	; (49c0 <vTaskDelay+0x98>)
    498c:	4798      	blx	r3
    498e:	2800      	cmp	r0, #0
    4990:	d101      	bne.n	4996 <vTaskDelay+0x6e>
    4992:	4b0c      	ldr	r3, [pc, #48]	; (49c4 <vTaskDelay+0x9c>)
    4994:	4798      	blx	r3
    4996:	bd10      	pop	{r4, pc}
    4998:	2000374c 	.word	0x2000374c
    499c:	00004655 	.word	0x00004655
    49a0:	200036d0 	.word	0x200036d0
    49a4:	00001c81 	.word	0x00001c81
    49a8:	20000020 	.word	0x20000020
    49ac:	00002b0d 	.word	0x00002b0d
    49b0:	00001c71 	.word	0x00001c71
    49b4:	0000249d 	.word	0x0000249d
    49b8:	00001d39 	.word	0x00001d39
    49bc:	000042b9 	.word	0x000042b9
    49c0:	000047fd 	.word	0x000047fd
    49c4:	00002ee1 	.word	0x00002ee1

000049c8 <vTaskSwitchContext>:
    49c8:	b510      	push	{r4, lr}
    49ca:	4b33      	ldr	r3, [pc, #204]	; (4a98 <vTaskSwitchContext+0xd0>)
    49cc:	681b      	ldr	r3, [r3, #0]
    49ce:	2b00      	cmp	r3, #0
    49d0:	d125      	bne.n	4a1e <vTaskSwitchContext+0x56>
    49d2:	2200      	movs	r2, #0
    49d4:	4b31      	ldr	r3, [pc, #196]	; (4a9c <vTaskSwitchContext+0xd4>)
    49d6:	601a      	str	r2, [r3, #0]
    49d8:	4b31      	ldr	r3, [pc, #196]	; (4aa0 <vTaskSwitchContext+0xd8>)
    49da:	681a      	ldr	r2, [r3, #0]
    49dc:	681b      	ldr	r3, [r3, #0]
    49de:	6812      	ldr	r2, [r2, #0]
    49e0:	6b1b      	ldr	r3, [r3, #48]	; 0x30
    49e2:	429a      	cmp	r2, r3
    49e4:	d805      	bhi.n	49f2 <vTaskSwitchContext+0x2a>
    49e6:	4b2e      	ldr	r3, [pc, #184]	; (4aa0 <vTaskSwitchContext+0xd8>)
    49e8:	6818      	ldr	r0, [r3, #0]
    49ea:	6819      	ldr	r1, [r3, #0]
    49ec:	3134      	adds	r1, #52	; 0x34
    49ee:	4b2d      	ldr	r3, [pc, #180]	; (4aa4 <vTaskSwitchContext+0xdc>)
    49f0:	4798      	blx	r3
    49f2:	4b2d      	ldr	r3, [pc, #180]	; (4aa8 <vTaskSwitchContext+0xe0>)
    49f4:	681b      	ldr	r3, [r3, #0]
    49f6:	009a      	lsls	r2, r3, #2
    49f8:	18d2      	adds	r2, r2, r3
    49fa:	0092      	lsls	r2, r2, #2
    49fc:	492b      	ldr	r1, [pc, #172]	; (4aac <vTaskSwitchContext+0xe4>)
    49fe:	5852      	ldr	r2, [r2, r1]
    4a00:	2a00      	cmp	r2, #0
    4a02:	d110      	bne.n	4a26 <vTaskSwitchContext+0x5e>
    4a04:	2b00      	cmp	r3, #0
    4a06:	d008      	beq.n	4a1a <vTaskSwitchContext+0x52>
    4a08:	3b01      	subs	r3, #1
    4a0a:	009a      	lsls	r2, r3, #2
    4a0c:	18d2      	adds	r2, r2, r3
    4a0e:	0092      	lsls	r2, r2, #2
    4a10:	5852      	ldr	r2, [r2, r1]
    4a12:	2a00      	cmp	r2, #0
    4a14:	d107      	bne.n	4a26 <vTaskSwitchContext+0x5e>
    4a16:	2b00      	cmp	r3, #0
    4a18:	d1f6      	bne.n	4a08 <vTaskSwitchContext+0x40>
    4a1a:	b672      	cpsid	i
    4a1c:	e7fe      	b.n	4a1c <vTaskSwitchContext+0x54>
    4a1e:	2201      	movs	r2, #1
    4a20:	4b1e      	ldr	r3, [pc, #120]	; (4a9c <vTaskSwitchContext+0xd4>)
    4a22:	601a      	str	r2, [r3, #0]
    4a24:	bd10      	pop	{r4, pc}
    4a26:	4821      	ldr	r0, [pc, #132]	; (4aac <vTaskSwitchContext+0xe4>)
    4a28:	009a      	lsls	r2, r3, #2
    4a2a:	18d1      	adds	r1, r2, r3
    4a2c:	0089      	lsls	r1, r1, #2
    4a2e:	1841      	adds	r1, r0, r1
    4a30:	684c      	ldr	r4, [r1, #4]
    4a32:	6864      	ldr	r4, [r4, #4]
    4a34:	604c      	str	r4, [r1, #4]
    4a36:	18d2      	adds	r2, r2, r3
    4a38:	0092      	lsls	r2, r2, #2
    4a3a:	3208      	adds	r2, #8
    4a3c:	1882      	adds	r2, r0, r2
    4a3e:	4294      	cmp	r4, r2
    4a40:	d019      	beq.n	4a76 <vTaskSwitchContext+0xae>
    4a42:	009a      	lsls	r2, r3, #2
    4a44:	18d2      	adds	r2, r2, r3
    4a46:	0092      	lsls	r2, r2, #2
    4a48:	4918      	ldr	r1, [pc, #96]	; (4aac <vTaskSwitchContext+0xe4>)
    4a4a:	188a      	adds	r2, r1, r2
    4a4c:	6852      	ldr	r2, [r2, #4]
    4a4e:	68d1      	ldr	r1, [r2, #12]
    4a50:	4a13      	ldr	r2, [pc, #76]	; (4aa0 <vTaskSwitchContext+0xd8>)
    4a52:	6011      	str	r1, [r2, #0]
    4a54:	4a14      	ldr	r2, [pc, #80]	; (4aa8 <vTaskSwitchContext+0xe0>)
    4a56:	6013      	str	r3, [r2, #0]
    4a58:	2201      	movs	r2, #1
    4a5a:	4b15      	ldr	r3, [pc, #84]	; (4ab0 <vTaskSwitchContext+0xe8>)
    4a5c:	601a      	str	r2, [r3, #0]
    4a5e:	4b15      	ldr	r3, [pc, #84]	; (4ab4 <vTaskSwitchContext+0xec>)
    4a60:	4798      	blx	r3
    4a62:	4b15      	ldr	r3, [pc, #84]	; (4ab8 <vTaskSwitchContext+0xf0>)
    4a64:	4798      	blx	r3
    4a66:	4b15      	ldr	r3, [pc, #84]	; (4abc <vTaskSwitchContext+0xf4>)
    4a68:	881b      	ldrh	r3, [r3, #0]
    4a6a:	4203      	tst	r3, r0
    4a6c:	d10b      	bne.n	4a86 <vTaskSwitchContext+0xbe>
    4a6e:	2202      	movs	r2, #2
    4a70:	4b0f      	ldr	r3, [pc, #60]	; (4ab0 <vTaskSwitchContext+0xe8>)
    4a72:	601a      	str	r2, [r3, #0]
    4a74:	e7d6      	b.n	4a24 <vTaskSwitchContext+0x5c>
    4a76:	6860      	ldr	r0, [r4, #4]
    4a78:	009a      	lsls	r2, r3, #2
    4a7a:	18d2      	adds	r2, r2, r3
    4a7c:	0092      	lsls	r2, r2, #2
    4a7e:	490b      	ldr	r1, [pc, #44]	; (4aac <vTaskSwitchContext+0xe4>)
    4a80:	188a      	adds	r2, r1, r2
    4a82:	6050      	str	r0, [r2, #4]
    4a84:	e7dd      	b.n	4a42 <vTaskSwitchContext+0x7a>
    4a86:	4b0b      	ldr	r3, [pc, #44]	; (4ab4 <vTaskSwitchContext+0xec>)
    4a88:	4798      	blx	r3
    4a8a:	4b0d      	ldr	r3, [pc, #52]	; (4ac0 <vTaskSwitchContext+0xf8>)
    4a8c:	4798      	blx	r3
    4a8e:	b2c0      	uxtb	r0, r0
    4a90:	4b0c      	ldr	r3, [pc, #48]	; (4ac4 <vTaskSwitchContext+0xfc>)
    4a92:	4798      	blx	r3
    4a94:	e7eb      	b.n	4a6e <vTaskSwitchContext+0xa6>
    4a96:	46c0      	nop			; (mov r8, r8)
    4a98:	2000374c 	.word	0x2000374c
    4a9c:	200037d0 	.word	0x200037d0
    4aa0:	200036d0 	.word	0x200036d0
    4aa4:	00006f79 	.word	0x00006f79
    4aa8:	20003754 	.word	0x20003754
    4aac:	200036dc 	.word	0x200036dc
    4ab0:	200003f4 	.word	0x200003f4
    4ab4:	00001d39 	.word	0x00001d39
    4ab8:	00001c81 	.word	0x00001c81
    4abc:	20000020 	.word	0x20000020
    4ac0:	00001c71 	.word	0x00001c71
    4ac4:	00002bb5 	.word	0x00002bb5

00004ac8 <vTaskSuspend>:
    4ac8:	b570      	push	{r4, r5, r6, lr}
    4aca:	0005      	movs	r5, r0
    4acc:	4b33      	ldr	r3, [pc, #204]	; (4b9c <vTaskSuspend+0xd4>)
    4ace:	4798      	blx	r3
    4ad0:	1e2c      	subs	r4, r5, #0
    4ad2:	d02b      	beq.n	4b2c <vTaskSuspend+0x64>
    4ad4:	4b32      	ldr	r3, [pc, #200]	; (4ba0 <vTaskSuspend+0xd8>)
    4ad6:	4798      	blx	r3
    4ad8:	4b32      	ldr	r3, [pc, #200]	; (4ba4 <vTaskSuspend+0xdc>)
    4ada:	4798      	blx	r3
    4adc:	4b32      	ldr	r3, [pc, #200]	; (4ba8 <vTaskSuspend+0xe0>)
    4ade:	881b      	ldrh	r3, [r3, #0]
    4ae0:	4203      	tst	r3, r0
    4ae2:	d126      	bne.n	4b32 <vTaskSuspend+0x6a>
    4ae4:	0020      	movs	r0, r4
    4ae6:	4b31      	ldr	r3, [pc, #196]	; (4bac <vTaskSuspend+0xe4>)
    4ae8:	4798      	blx	r3
    4aea:	b2c0      	uxtb	r0, r0
    4aec:	4b30      	ldr	r3, [pc, #192]	; (4bb0 <vTaskSuspend+0xe8>)
    4aee:	4798      	blx	r3
    4af0:	1d25      	adds	r5, r4, #4
    4af2:	0028      	movs	r0, r5
    4af4:	4b2f      	ldr	r3, [pc, #188]	; (4bb4 <vTaskSuspend+0xec>)
    4af6:	4798      	blx	r3
    4af8:	6aa3      	ldr	r3, [r4, #40]	; 0x28
    4afa:	2b00      	cmp	r3, #0
    4afc:	d003      	beq.n	4b06 <vTaskSuspend+0x3e>
    4afe:	0020      	movs	r0, r4
    4b00:	3018      	adds	r0, #24
    4b02:	4b2c      	ldr	r3, [pc, #176]	; (4bb4 <vTaskSuspend+0xec>)
    4b04:	4798      	blx	r3
    4b06:	0029      	movs	r1, r5
    4b08:	482b      	ldr	r0, [pc, #172]	; (4bb8 <vTaskSuspend+0xf0>)
    4b0a:	4b2c      	ldr	r3, [pc, #176]	; (4bbc <vTaskSuspend+0xf4>)
    4b0c:	4798      	blx	r3
    4b0e:	2350      	movs	r3, #80	; 0x50
    4b10:	5ce3      	ldrb	r3, [r4, r3]
    4b12:	2b01      	cmp	r3, #1
    4b14:	d01d      	beq.n	4b52 <vTaskSuspend+0x8a>
    4b16:	4b2a      	ldr	r3, [pc, #168]	; (4bc0 <vTaskSuspend+0xf8>)
    4b18:	4798      	blx	r3
    4b1a:	4b2a      	ldr	r3, [pc, #168]	; (4bc4 <vTaskSuspend+0xfc>)
    4b1c:	681b      	ldr	r3, [r3, #0]
    4b1e:	2b00      	cmp	r3, #0
    4b20:	d11b      	bne.n	4b5a <vTaskSuspend+0x92>
    4b22:	4b29      	ldr	r3, [pc, #164]	; (4bc8 <vTaskSuspend+0x100>)
    4b24:	681b      	ldr	r3, [r3, #0]
    4b26:	429c      	cmp	r4, r3
    4b28:	d01e      	beq.n	4b68 <vTaskSuspend+0xa0>
    4b2a:	bd70      	pop	{r4, r5, r6, pc}
    4b2c:	4b26      	ldr	r3, [pc, #152]	; (4bc8 <vTaskSuspend+0x100>)
    4b2e:	681c      	ldr	r4, [r3, #0]
    4b30:	e7d0      	b.n	4ad4 <vTaskSuspend+0xc>
    4b32:	0020      	movs	r0, r4
    4b34:	4b1b      	ldr	r3, [pc, #108]	; (4ba4 <vTaskSuspend+0xdc>)
    4b36:	4798      	blx	r3
    4b38:	4b1b      	ldr	r3, [pc, #108]	; (4ba8 <vTaskSuspend+0xe0>)
    4b3a:	881b      	ldrh	r3, [r3, #0]
    4b3c:	4203      	tst	r3, r0
    4b3e:	d0d1      	beq.n	4ae4 <vTaskSuspend+0x1c>
    4b40:	0020      	movs	r0, r4
    4b42:	4b1a      	ldr	r3, [pc, #104]	; (4bac <vTaskSuspend+0xe4>)
    4b44:	4798      	blx	r3
    4b46:	b2c2      	uxtb	r2, r0
    4b48:	2103      	movs	r1, #3
    4b4a:	208a      	movs	r0, #138	; 0x8a
    4b4c:	4b1f      	ldr	r3, [pc, #124]	; (4bcc <vTaskSuspend+0x104>)
    4b4e:	4798      	blx	r3
    4b50:	e7c8      	b.n	4ae4 <vTaskSuspend+0x1c>
    4b52:	2200      	movs	r2, #0
    4b54:	334f      	adds	r3, #79	; 0x4f
    4b56:	54e2      	strb	r2, [r4, r3]
    4b58:	e7dd      	b.n	4b16 <vTaskSuspend+0x4e>
    4b5a:	4b10      	ldr	r3, [pc, #64]	; (4b9c <vTaskSuspend+0xd4>)
    4b5c:	4798      	blx	r3
    4b5e:	4b1c      	ldr	r3, [pc, #112]	; (4bd0 <vTaskSuspend+0x108>)
    4b60:	4798      	blx	r3
    4b62:	4b17      	ldr	r3, [pc, #92]	; (4bc0 <vTaskSuspend+0xf8>)
    4b64:	4798      	blx	r3
    4b66:	e7dc      	b.n	4b22 <vTaskSuspend+0x5a>
    4b68:	4b16      	ldr	r3, [pc, #88]	; (4bc4 <vTaskSuspend+0xfc>)
    4b6a:	681b      	ldr	r3, [r3, #0]
    4b6c:	2b00      	cmp	r3, #0
    4b6e:	d008      	beq.n	4b82 <vTaskSuspend+0xba>
    4b70:	4b18      	ldr	r3, [pc, #96]	; (4bd4 <vTaskSuspend+0x10c>)
    4b72:	681b      	ldr	r3, [r3, #0]
    4b74:	2b00      	cmp	r3, #0
    4b76:	d001      	beq.n	4b7c <vTaskSuspend+0xb4>
    4b78:	b672      	cpsid	i
    4b7a:	e7fe      	b.n	4b7a <vTaskSuspend+0xb2>
    4b7c:	4b16      	ldr	r3, [pc, #88]	; (4bd8 <vTaskSuspend+0x110>)
    4b7e:	4798      	blx	r3
    4b80:	e7d3      	b.n	4b2a <vTaskSuspend+0x62>
    4b82:	4b0d      	ldr	r3, [pc, #52]	; (4bb8 <vTaskSuspend+0xf0>)
    4b84:	681a      	ldr	r2, [r3, #0]
    4b86:	4b15      	ldr	r3, [pc, #84]	; (4bdc <vTaskSuspend+0x114>)
    4b88:	681b      	ldr	r3, [r3, #0]
    4b8a:	429a      	cmp	r2, r3
    4b8c:	d002      	beq.n	4b94 <vTaskSuspend+0xcc>
    4b8e:	4b14      	ldr	r3, [pc, #80]	; (4be0 <vTaskSuspend+0x118>)
    4b90:	4798      	blx	r3
    4b92:	e7ca      	b.n	4b2a <vTaskSuspend+0x62>
    4b94:	2200      	movs	r2, #0
    4b96:	4b0c      	ldr	r3, [pc, #48]	; (4bc8 <vTaskSuspend+0x100>)
    4b98:	601a      	str	r2, [r3, #0]
    4b9a:	e7c6      	b.n	4b2a <vTaskSuspend+0x62>
    4b9c:	00002ef1 	.word	0x00002ef1
    4ba0:	00001d39 	.word	0x00001d39
    4ba4:	00001c81 	.word	0x00001c81
    4ba8:	20000020 	.word	0x20000020
    4bac:	00001c71 	.word	0x00001c71
    4bb0:	0000249d 	.word	0x0000249d
    4bb4:	00002db7 	.word	0x00002db7
    4bb8:	200037a4 	.word	0x200037a4
    4bbc:	00002d71 	.word	0x00002d71
    4bc0:	00002f09 	.word	0x00002f09
    4bc4:	200037a0 	.word	0x200037a0
    4bc8:	200036d0 	.word	0x200036d0
    4bcc:	00002971 	.word	0x00002971
    4bd0:	0000420d 	.word	0x0000420d
    4bd4:	2000374c 	.word	0x2000374c
    4bd8:	00002ee1 	.word	0x00002ee1
    4bdc:	20003740 	.word	0x20003740
    4be0:	000049c9 	.word	0x000049c9

00004be4 <vTaskPlaceOnEventList>:
    4be4:	b510      	push	{r4, lr}
    4be6:	000c      	movs	r4, r1
    4be8:	2800      	cmp	r0, #0
    4bea:	d101      	bne.n	4bf0 <vTaskPlaceOnEventList+0xc>
    4bec:	b672      	cpsid	i
    4bee:	e7fe      	b.n	4bee <vTaskPlaceOnEventList+0xa>
    4bf0:	4b04      	ldr	r3, [pc, #16]	; (4c04 <vTaskPlaceOnEventList+0x20>)
    4bf2:	6819      	ldr	r1, [r3, #0]
    4bf4:	3118      	adds	r1, #24
    4bf6:	4b04      	ldr	r3, [pc, #16]	; (4c08 <vTaskPlaceOnEventList+0x24>)
    4bf8:	4798      	blx	r3
    4bfa:	2101      	movs	r1, #1
    4bfc:	0020      	movs	r0, r4
    4bfe:	4b03      	ldr	r3, [pc, #12]	; (4c0c <vTaskPlaceOnEventList+0x28>)
    4c00:	4798      	blx	r3
    4c02:	bd10      	pop	{r4, pc}
    4c04:	200036d0 	.word	0x200036d0
    4c08:	00002d89 	.word	0x00002d89
    4c0c:	000042b9 	.word	0x000042b9

00004c10 <vTaskPlaceOnEventListRestricted>:
    4c10:	b570      	push	{r4, r5, r6, lr}
    4c12:	000c      	movs	r4, r1
    4c14:	0015      	movs	r5, r2
    4c16:	2800      	cmp	r0, #0
    4c18:	d031      	beq.n	4c7e <vTaskPlaceOnEventListRestricted+0x6e>
    4c1a:	4b1a      	ldr	r3, [pc, #104]	; (4c84 <vTaskPlaceOnEventListRestricted+0x74>)
    4c1c:	6819      	ldr	r1, [r3, #0]
    4c1e:	3118      	adds	r1, #24
    4c20:	4b19      	ldr	r3, [pc, #100]	; (4c88 <vTaskPlaceOnEventListRestricted+0x78>)
    4c22:	4798      	blx	r3
    4c24:	2d00      	cmp	r5, #0
    4c26:	d001      	beq.n	4c2c <vTaskPlaceOnEventListRestricted+0x1c>
    4c28:	2401      	movs	r4, #1
    4c2a:	4264      	negs	r4, r4
    4c2c:	4b15      	ldr	r3, [pc, #84]	; (4c84 <vTaskPlaceOnEventListRestricted+0x74>)
    4c2e:	6818      	ldr	r0, [r3, #0]
    4c30:	4b16      	ldr	r3, [pc, #88]	; (4c8c <vTaskPlaceOnEventListRestricted+0x7c>)
    4c32:	4798      	blx	r3
    4c34:	4b16      	ldr	r3, [pc, #88]	; (4c90 <vTaskPlaceOnEventListRestricted+0x80>)
    4c36:	881b      	ldrh	r3, [r3, #0]
    4c38:	4203      	tst	r3, r0
    4c3a:	d00c      	beq.n	4c56 <vTaskPlaceOnEventListRestricted+0x46>
    4c3c:	4b15      	ldr	r3, [pc, #84]	; (4c94 <vTaskPlaceOnEventListRestricted+0x84>)
    4c3e:	6819      	ldr	r1, [r3, #0]
    4c40:	1861      	adds	r1, r4, r1
    4c42:	2088      	movs	r0, #136	; 0x88
    4c44:	4b14      	ldr	r3, [pc, #80]	; (4c98 <vTaskPlaceOnEventListRestricted+0x88>)
    4c46:	4798      	blx	r3
    4c48:	4b0e      	ldr	r3, [pc, #56]	; (4c84 <vTaskPlaceOnEventListRestricted+0x74>)
    4c4a:	6818      	ldr	r0, [r3, #0]
    4c4c:	4b13      	ldr	r3, [pc, #76]	; (4c9c <vTaskPlaceOnEventListRestricted+0x8c>)
    4c4e:	4798      	blx	r3
    4c50:	b2c0      	uxtb	r0, r0
    4c52:	4b13      	ldr	r3, [pc, #76]	; (4ca0 <vTaskPlaceOnEventListRestricted+0x90>)
    4c54:	4798      	blx	r3
    4c56:	4b13      	ldr	r3, [pc, #76]	; (4ca4 <vTaskPlaceOnEventListRestricted+0x94>)
    4c58:	4798      	blx	r3
    4c5a:	4b0c      	ldr	r3, [pc, #48]	; (4c8c <vTaskPlaceOnEventListRestricted+0x7c>)
    4c5c:	4798      	blx	r3
    4c5e:	4b0c      	ldr	r3, [pc, #48]	; (4c90 <vTaskPlaceOnEventListRestricted+0x80>)
    4c60:	881b      	ldrh	r3, [r3, #0]
    4c62:	4203      	tst	r3, r0
    4c64:	d006      	beq.n	4c74 <vTaskPlaceOnEventListRestricted+0x64>
    4c66:	4b0f      	ldr	r3, [pc, #60]	; (4ca4 <vTaskPlaceOnEventListRestricted+0x94>)
    4c68:	4798      	blx	r3
    4c6a:	4b0c      	ldr	r3, [pc, #48]	; (4c9c <vTaskPlaceOnEventListRestricted+0x8c>)
    4c6c:	4798      	blx	r3
    4c6e:	b2c0      	uxtb	r0, r0
    4c70:	4b0b      	ldr	r3, [pc, #44]	; (4ca0 <vTaskPlaceOnEventListRestricted+0x90>)
    4c72:	4798      	blx	r3
    4c74:	0029      	movs	r1, r5
    4c76:	0020      	movs	r0, r4
    4c78:	4b0b      	ldr	r3, [pc, #44]	; (4ca8 <vTaskPlaceOnEventListRestricted+0x98>)
    4c7a:	4798      	blx	r3
    4c7c:	bd70      	pop	{r4, r5, r6, pc}
    4c7e:	b672      	cpsid	i
    4c80:	e7fe      	b.n	4c80 <vTaskPlaceOnEventListRestricted+0x70>
    4c82:	46c0      	nop			; (mov r8, r8)
    4c84:	200036d0 	.word	0x200036d0
    4c88:	00002d71 	.word	0x00002d71
    4c8c:	00001c81 	.word	0x00001c81
    4c90:	20000020 	.word	0x20000020
    4c94:	200037cc 	.word	0x200037cc
    4c98:	00002b0d 	.word	0x00002b0d
    4c9c:	00001c71 	.word	0x00001c71
    4ca0:	0000249d 	.word	0x0000249d
    4ca4:	00001d39 	.word	0x00001d39
    4ca8:	000042b9 	.word	0x000042b9

00004cac <xTaskRemoveFromEventList>:
    4cac:	b570      	push	{r4, r5, r6, lr}
    4cae:	68c3      	ldr	r3, [r0, #12]
    4cb0:	68dc      	ldr	r4, [r3, #12]
    4cb2:	2c00      	cmp	r4, #0
    4cb4:	d02e      	beq.n	4d14 <xTaskRemoveFromEventList+0x68>
    4cb6:	0025      	movs	r5, r4
    4cb8:	3518      	adds	r5, #24
    4cba:	0028      	movs	r0, r5
    4cbc:	4b1c      	ldr	r3, [pc, #112]	; (4d30 <xTaskRemoveFromEventList+0x84>)
    4cbe:	4798      	blx	r3
    4cc0:	4b1c      	ldr	r3, [pc, #112]	; (4d34 <xTaskRemoveFromEventList+0x88>)
    4cc2:	681b      	ldr	r3, [r3, #0]
    4cc4:	2b00      	cmp	r3, #0
    4cc6:	d12e      	bne.n	4d26 <xTaskRemoveFromEventList+0x7a>
    4cc8:	1d25      	adds	r5, r4, #4
    4cca:	0028      	movs	r0, r5
    4ccc:	4b18      	ldr	r3, [pc, #96]	; (4d30 <xTaskRemoveFromEventList+0x84>)
    4cce:	4798      	blx	r3
    4cd0:	0020      	movs	r0, r4
    4cd2:	4b19      	ldr	r3, [pc, #100]	; (4d38 <xTaskRemoveFromEventList+0x8c>)
    4cd4:	4798      	blx	r3
    4cd6:	4b19      	ldr	r3, [pc, #100]	; (4d3c <xTaskRemoveFromEventList+0x90>)
    4cd8:	881b      	ldrh	r3, [r3, #0]
    4cda:	4203      	tst	r3, r0
    4cdc:	d11c      	bne.n	4d18 <xTaskRemoveFromEventList+0x6c>
    4cde:	6ae3      	ldr	r3, [r4, #44]	; 0x2c
    4ce0:	4a17      	ldr	r2, [pc, #92]	; (4d40 <xTaskRemoveFromEventList+0x94>)
    4ce2:	6812      	ldr	r2, [r2, #0]
    4ce4:	4293      	cmp	r3, r2
    4ce6:	d901      	bls.n	4cec <xTaskRemoveFromEventList+0x40>
    4ce8:	4a15      	ldr	r2, [pc, #84]	; (4d40 <xTaskRemoveFromEventList+0x94>)
    4cea:	6013      	str	r3, [r2, #0]
    4cec:	0098      	lsls	r0, r3, #2
    4cee:	18c0      	adds	r0, r0, r3
    4cf0:	0080      	lsls	r0, r0, #2
    4cf2:	4b14      	ldr	r3, [pc, #80]	; (4d44 <xTaskRemoveFromEventList+0x98>)
    4cf4:	1818      	adds	r0, r3, r0
    4cf6:	0029      	movs	r1, r5
    4cf8:	4b13      	ldr	r3, [pc, #76]	; (4d48 <xTaskRemoveFromEventList+0x9c>)
    4cfa:	4798      	blx	r3
    4cfc:	4b13      	ldr	r3, [pc, #76]	; (4d4c <xTaskRemoveFromEventList+0xa0>)
    4cfe:	681b      	ldr	r3, [r3, #0]
    4d00:	6ae2      	ldr	r2, [r4, #44]	; 0x2c
    4d02:	6adb      	ldr	r3, [r3, #44]	; 0x2c
    4d04:	2000      	movs	r0, #0
    4d06:	429a      	cmp	r2, r3
    4d08:	d903      	bls.n	4d12 <xTaskRemoveFromEventList+0x66>
    4d0a:	2201      	movs	r2, #1
    4d0c:	4b10      	ldr	r3, [pc, #64]	; (4d50 <xTaskRemoveFromEventList+0xa4>)
    4d0e:	601a      	str	r2, [r3, #0]
    4d10:	3001      	adds	r0, #1
    4d12:	bd70      	pop	{r4, r5, r6, pc}
    4d14:	b672      	cpsid	i
    4d16:	e7fe      	b.n	4d16 <xTaskRemoveFromEventList+0x6a>
    4d18:	0020      	movs	r0, r4
    4d1a:	4b0e      	ldr	r3, [pc, #56]	; (4d54 <xTaskRemoveFromEventList+0xa8>)
    4d1c:	4798      	blx	r3
    4d1e:	b2c0      	uxtb	r0, r0
    4d20:	4b0d      	ldr	r3, [pc, #52]	; (4d58 <xTaskRemoveFromEventList+0xac>)
    4d22:	4798      	blx	r3
    4d24:	e7db      	b.n	4cde <xTaskRemoveFromEventList+0x32>
    4d26:	0029      	movs	r1, r5
    4d28:	480c      	ldr	r0, [pc, #48]	; (4d5c <xTaskRemoveFromEventList+0xb0>)
    4d2a:	4b07      	ldr	r3, [pc, #28]	; (4d48 <xTaskRemoveFromEventList+0x9c>)
    4d2c:	4798      	blx	r3
    4d2e:	e7e5      	b.n	4cfc <xTaskRemoveFromEventList+0x50>
    4d30:	00002db7 	.word	0x00002db7
    4d34:	2000374c 	.word	0x2000374c
    4d38:	00001c81 	.word	0x00001c81
    4d3c:	20000020 	.word	0x20000020
    4d40:	20003754 	.word	0x20003754
    4d44:	200036dc 	.word	0x200036dc
    4d48:	00002d71 	.word	0x00002d71
    4d4c:	200036d0 	.word	0x200036d0
    4d50:	200037d0 	.word	0x200037d0
    4d54:	00001c71 	.word	0x00001c71
    4d58:	00002809 	.word	0x00002809
    4d5c:	2000378c 	.word	0x2000378c

00004d60 <vTaskInternalSetTimeOutState>:
    4d60:	4b03      	ldr	r3, [pc, #12]	; (4d70 <vTaskInternalSetTimeOutState+0x10>)
    4d62:	681b      	ldr	r3, [r3, #0]
    4d64:	6003      	str	r3, [r0, #0]
    4d66:	4b03      	ldr	r3, [pc, #12]	; (4d74 <vTaskInternalSetTimeOutState+0x14>)
    4d68:	681b      	ldr	r3, [r3, #0]
    4d6a:	6043      	str	r3, [r0, #4]
    4d6c:	4770      	bx	lr
    4d6e:	46c0      	nop			; (mov r8, r8)
    4d70:	20003788 	.word	0x20003788
    4d74:	200037cc 	.word	0x200037cc

00004d78 <xTaskCheckForTimeOut>:
    4d78:	b570      	push	{r4, r5, r6, lr}
    4d7a:	0006      	movs	r6, r0
    4d7c:	000d      	movs	r5, r1
    4d7e:	2800      	cmp	r0, #0
    4d80:	d01b      	beq.n	4dba <xTaskCheckForTimeOut+0x42>
    4d82:	2900      	cmp	r1, #0
    4d84:	d01b      	beq.n	4dbe <xTaskCheckForTimeOut+0x46>
    4d86:	4b13      	ldr	r3, [pc, #76]	; (4dd4 <xTaskCheckForTimeOut+0x5c>)
    4d88:	4798      	blx	r3
    4d8a:	4b13      	ldr	r3, [pc, #76]	; (4dd8 <xTaskCheckForTimeOut+0x60>)
    4d8c:	681a      	ldr	r2, [r3, #0]
    4d8e:	6871      	ldr	r1, [r6, #4]
    4d90:	682b      	ldr	r3, [r5, #0]
    4d92:	1c58      	adds	r0, r3, #1
    4d94:	d01c      	beq.n	4dd0 <xTaskCheckForTimeOut+0x58>
    4d96:	4811      	ldr	r0, [pc, #68]	; (4ddc <xTaskCheckForTimeOut+0x64>)
    4d98:	6800      	ldr	r0, [r0, #0]
    4d9a:	6834      	ldr	r4, [r6, #0]
    4d9c:	4284      	cmp	r4, r0
    4d9e:	d002      	beq.n	4da6 <xTaskCheckForTimeOut+0x2e>
    4da0:	2401      	movs	r4, #1
    4da2:	428a      	cmp	r2, r1
    4da4:	d205      	bcs.n	4db2 <xTaskCheckForTimeOut+0x3a>
    4da6:	1a52      	subs	r2, r2, r1
    4da8:	429a      	cmp	r2, r3
    4daa:	d30a      	bcc.n	4dc2 <xTaskCheckForTimeOut+0x4a>
    4dac:	2300      	movs	r3, #0
    4dae:	602b      	str	r3, [r5, #0]
    4db0:	2401      	movs	r4, #1
    4db2:	4b0b      	ldr	r3, [pc, #44]	; (4de0 <xTaskCheckForTimeOut+0x68>)
    4db4:	4798      	blx	r3
    4db6:	0020      	movs	r0, r4
    4db8:	bd70      	pop	{r4, r5, r6, pc}
    4dba:	b672      	cpsid	i
    4dbc:	e7fe      	b.n	4dbc <xTaskCheckForTimeOut+0x44>
    4dbe:	b672      	cpsid	i
    4dc0:	e7fe      	b.n	4dc0 <xTaskCheckForTimeOut+0x48>
    4dc2:	1a9b      	subs	r3, r3, r2
    4dc4:	602b      	str	r3, [r5, #0]
    4dc6:	0030      	movs	r0, r6
    4dc8:	4b06      	ldr	r3, [pc, #24]	; (4de4 <xTaskCheckForTimeOut+0x6c>)
    4dca:	4798      	blx	r3
    4dcc:	2400      	movs	r4, #0
    4dce:	e7f0      	b.n	4db2 <xTaskCheckForTimeOut+0x3a>
    4dd0:	2400      	movs	r4, #0
    4dd2:	e7ee      	b.n	4db2 <xTaskCheckForTimeOut+0x3a>
    4dd4:	00002ef1 	.word	0x00002ef1
    4dd8:	200037cc 	.word	0x200037cc
    4ddc:	20003788 	.word	0x20003788
    4de0:	00002f09 	.word	0x00002f09
    4de4:	00004d61 	.word	0x00004d61

00004de8 <vTaskMissedYield>:
    4de8:	2201      	movs	r2, #1
    4dea:	4b01      	ldr	r3, [pc, #4]	; (4df0 <vTaskMissedYield+0x8>)
    4dec:	601a      	str	r2, [r3, #0]
    4dee:	4770      	bx	lr
    4df0:	200037d0 	.word	0x200037d0

00004df4 <uxTaskGetTaskNumber>:
    4df4:	2800      	cmp	r0, #0
    4df6:	d001      	beq.n	4dfc <uxTaskGetTaskNumber+0x8>
    4df8:	6c00      	ldr	r0, [r0, #64]	; 0x40
    4dfa:	4770      	bx	lr
    4dfc:	2000      	movs	r0, #0
    4dfe:	e7fc      	b.n	4dfa <uxTaskGetTaskNumber+0x6>

00004e00 <vTaskSetTaskNumber>:
    4e00:	2800      	cmp	r0, #0
    4e02:	d000      	beq.n	4e06 <vTaskSetTaskNumber+0x6>
    4e04:	6401      	str	r1, [r0, #64]	; 0x40
    4e06:	4770      	bx	lr

00004e08 <xTaskGetCurrentTaskHandle>:
    4e08:	4b01      	ldr	r3, [pc, #4]	; (4e10 <xTaskGetCurrentTaskHandle+0x8>)
    4e0a:	6818      	ldr	r0, [r3, #0]
    4e0c:	4770      	bx	lr
    4e0e:	46c0      	nop			; (mov r8, r8)
    4e10:	200036d0 	.word	0x200036d0

00004e14 <xTaskGetSchedulerState>:
    4e14:	4b05      	ldr	r3, [pc, #20]	; (4e2c <xTaskGetSchedulerState+0x18>)
    4e16:	681b      	ldr	r3, [r3, #0]
    4e18:	2001      	movs	r0, #1
    4e1a:	2b00      	cmp	r3, #0
    4e1c:	d004      	beq.n	4e28 <xTaskGetSchedulerState+0x14>
    4e1e:	4b04      	ldr	r3, [pc, #16]	; (4e30 <xTaskGetSchedulerState+0x1c>)
    4e20:	6818      	ldr	r0, [r3, #0]
    4e22:	4243      	negs	r3, r0
    4e24:	4158      	adcs	r0, r3
    4e26:	0040      	lsls	r0, r0, #1
    4e28:	4770      	bx	lr
    4e2a:	46c0      	nop			; (mov r8, r8)
    4e2c:	200037a0 	.word	0x200037a0
    4e30:	2000374c 	.word	0x2000374c

00004e34 <xTaskPriorityInherit>:
    4e34:	b570      	push	{r4, r5, r6, lr}
    4e36:	1e04      	subs	r4, r0, #0
    4e38:	d100      	bne.n	4e3c <xTaskPriorityInherit+0x8>
    4e3a:	e06d      	b.n	4f18 <xTaskPriorityInherit+0xe4>
    4e3c:	6ac2      	ldr	r2, [r0, #44]	; 0x2c
    4e3e:	4b37      	ldr	r3, [pc, #220]	; (4f1c <xTaskPriorityInherit+0xe8>)
    4e40:	681b      	ldr	r3, [r3, #0]
    4e42:	6adb      	ldr	r3, [r3, #44]	; 0x2c
    4e44:	429a      	cmp	r2, r3
    4e46:	d25f      	bcs.n	4f08 <xTaskPriorityInherit+0xd4>
    4e48:	6983      	ldr	r3, [r0, #24]
    4e4a:	2b00      	cmp	r3, #0
    4e4c:	db05      	blt.n	4e5a <xTaskPriorityInherit+0x26>
    4e4e:	4b33      	ldr	r3, [pc, #204]	; (4f1c <xTaskPriorityInherit+0xe8>)
    4e50:	681b      	ldr	r3, [r3, #0]
    4e52:	6ad9      	ldr	r1, [r3, #44]	; 0x2c
    4e54:	2305      	movs	r3, #5
    4e56:	1a5b      	subs	r3, r3, r1
    4e58:	6183      	str	r3, [r0, #24]
    4e5a:	0093      	lsls	r3, r2, #2
    4e5c:	189b      	adds	r3, r3, r2
    4e5e:	009b      	lsls	r3, r3, #2
    4e60:	4a2f      	ldr	r2, [pc, #188]	; (4f20 <xTaskPriorityInherit+0xec>)
    4e62:	18d3      	adds	r3, r2, r3
    4e64:	6962      	ldr	r2, [r4, #20]
    4e66:	429a      	cmp	r2, r3
    4e68:	d028      	beq.n	4ebc <xTaskPriorityInherit+0x88>
    4e6a:	4b2c      	ldr	r3, [pc, #176]	; (4f1c <xTaskPriorityInherit+0xe8>)
    4e6c:	681b      	ldr	r3, [r3, #0]
    4e6e:	6adb      	ldr	r3, [r3, #44]	; 0x2c
    4e70:	62e3      	str	r3, [r4, #44]	; 0x2c
    4e72:	0020      	movs	r0, r4
    4e74:	4b2b      	ldr	r3, [pc, #172]	; (4f24 <xTaskPriorityInherit+0xf0>)
    4e76:	4798      	blx	r3
    4e78:	0003      	movs	r3, r0
    4e7a:	4a2b      	ldr	r2, [pc, #172]	; (4f28 <xTaskPriorityInherit+0xf4>)
    4e7c:	8812      	ldrh	r2, [r2, #0]
    4e7e:	2001      	movs	r0, #1
    4e80:	421a      	tst	r2, r3
    4e82:	d048      	beq.n	4f16 <xTaskPriorityInherit+0xe2>
    4e84:	0020      	movs	r0, r4
    4e86:	4d29      	ldr	r5, [pc, #164]	; (4f2c <xTaskPriorityInherit+0xf8>)
    4e88:	47a8      	blx	r5
    4e8a:	0006      	movs	r6, r0
    4e8c:	0020      	movs	r0, r4
    4e8e:	47a8      	blx	r5
    4e90:	b2c1      	uxtb	r1, r0
    4e92:	2003      	movs	r0, #3
    4e94:	4b26      	ldr	r3, [pc, #152]	; (4f30 <xTaskPriorityInherit+0xfc>)
    4e96:	4798      	blx	r3
    4e98:	0003      	movs	r3, r0
    4e9a:	b2f2      	uxtb	r2, r6
    4e9c:	2103      	movs	r1, #3
    4e9e:	208e      	movs	r0, #142	; 0x8e
    4ea0:	4e24      	ldr	r6, [pc, #144]	; (4f34 <xTaskPriorityInherit+0x100>)
    4ea2:	47b0      	blx	r6
    4ea4:	0020      	movs	r0, r4
    4ea6:	47a8      	blx	r5
    4ea8:	4b1c      	ldr	r3, [pc, #112]	; (4f1c <xTaskPriorityInherit+0xe8>)
    4eaa:	681b      	ldr	r3, [r3, #0]
    4eac:	6ada      	ldr	r2, [r3, #44]	; 0x2c
    4eae:	b2d2      	uxtb	r2, r2
    4eb0:	b2c1      	uxtb	r1, r0
    4eb2:	2003      	movs	r0, #3
    4eb4:	4b20      	ldr	r3, [pc, #128]	; (4f38 <xTaskPriorityInherit+0x104>)
    4eb6:	4798      	blx	r3
    4eb8:	2001      	movs	r0, #1
    4eba:	e02c      	b.n	4f16 <xTaskPriorityInherit+0xe2>
    4ebc:	1d25      	adds	r5, r4, #4
    4ebe:	0028      	movs	r0, r5
    4ec0:	4b1e      	ldr	r3, [pc, #120]	; (4f3c <xTaskPriorityInherit+0x108>)
    4ec2:	4798      	blx	r3
    4ec4:	4b15      	ldr	r3, [pc, #84]	; (4f1c <xTaskPriorityInherit+0xe8>)
    4ec6:	681b      	ldr	r3, [r3, #0]
    4ec8:	6adb      	ldr	r3, [r3, #44]	; 0x2c
    4eca:	62e3      	str	r3, [r4, #44]	; 0x2c
    4ecc:	0020      	movs	r0, r4
    4ece:	4b15      	ldr	r3, [pc, #84]	; (4f24 <xTaskPriorityInherit+0xf0>)
    4ed0:	4798      	blx	r3
    4ed2:	4b15      	ldr	r3, [pc, #84]	; (4f28 <xTaskPriorityInherit+0xf4>)
    4ed4:	881b      	ldrh	r3, [r3, #0]
    4ed6:	4203      	tst	r3, r0
    4ed8:	d10f      	bne.n	4efa <xTaskPriorityInherit+0xc6>
    4eda:	6ae3      	ldr	r3, [r4, #44]	; 0x2c
    4edc:	4a18      	ldr	r2, [pc, #96]	; (4f40 <xTaskPriorityInherit+0x10c>)
    4ede:	6812      	ldr	r2, [r2, #0]
    4ee0:	4293      	cmp	r3, r2
    4ee2:	d901      	bls.n	4ee8 <xTaskPriorityInherit+0xb4>
    4ee4:	4a16      	ldr	r2, [pc, #88]	; (4f40 <xTaskPriorityInherit+0x10c>)
    4ee6:	6013      	str	r3, [r2, #0]
    4ee8:	0098      	lsls	r0, r3, #2
    4eea:	18c0      	adds	r0, r0, r3
    4eec:	0080      	lsls	r0, r0, #2
    4eee:	4b0c      	ldr	r3, [pc, #48]	; (4f20 <xTaskPriorityInherit+0xec>)
    4ef0:	1818      	adds	r0, r3, r0
    4ef2:	0029      	movs	r1, r5
    4ef4:	4b13      	ldr	r3, [pc, #76]	; (4f44 <xTaskPriorityInherit+0x110>)
    4ef6:	4798      	blx	r3
    4ef8:	e7bb      	b.n	4e72 <xTaskPriorityInherit+0x3e>
    4efa:	0020      	movs	r0, r4
    4efc:	4b0b      	ldr	r3, [pc, #44]	; (4f2c <xTaskPriorityInherit+0xf8>)
    4efe:	4798      	blx	r3
    4f00:	b2c0      	uxtb	r0, r0
    4f02:	4b11      	ldr	r3, [pc, #68]	; (4f48 <xTaskPriorityInherit+0x114>)
    4f04:	4798      	blx	r3
    4f06:	e7e8      	b.n	4eda <xTaskPriorityInherit+0xa6>
    4f08:	4b04      	ldr	r3, [pc, #16]	; (4f1c <xTaskPriorityInherit+0xe8>)
    4f0a:	681b      	ldr	r3, [r3, #0]
    4f0c:	6c40      	ldr	r0, [r0, #68]	; 0x44
    4f0e:	6adb      	ldr	r3, [r3, #44]	; 0x2c
    4f10:	4298      	cmp	r0, r3
    4f12:	4180      	sbcs	r0, r0
    4f14:	4240      	negs	r0, r0
    4f16:	bd70      	pop	{r4, r5, r6, pc}
    4f18:	2000      	movs	r0, #0
    4f1a:	e7fc      	b.n	4f16 <xTaskPriorityInherit+0xe2>
    4f1c:	200036d0 	.word	0x200036d0
    4f20:	200036dc 	.word	0x200036dc
    4f24:	00001c81 	.word	0x00001c81
    4f28:	20000020 	.word	0x20000020
    4f2c:	00001c71 	.word	0x00001c71
    4f30:	000023e9 	.word	0x000023e9
    4f34:	00002a35 	.word	0x00002a35
    4f38:	00002391 	.word	0x00002391
    4f3c:	00002db7 	.word	0x00002db7
    4f40:	20003754 	.word	0x20003754
    4f44:	00002d71 	.word	0x00002d71
    4f48:	00002809 	.word	0x00002809

00004f4c <xTaskPriorityDisinherit>:
    4f4c:	b5f8      	push	{r3, r4, r5, r6, r7, lr}
    4f4e:	1e04      	subs	r4, r0, #0
    4f50:	d05a      	beq.n	5008 <xTaskPriorityDisinherit+0xbc>
    4f52:	4b2f      	ldr	r3, [pc, #188]	; (5010 <xTaskPriorityDisinherit+0xc4>)
    4f54:	681b      	ldr	r3, [r3, #0]
    4f56:	4298      	cmp	r0, r3
    4f58:	d001      	beq.n	4f5e <xTaskPriorityDisinherit+0x12>
    4f5a:	b672      	cpsid	i
    4f5c:	e7fe      	b.n	4f5c <xTaskPriorityDisinherit+0x10>
    4f5e:	6c83      	ldr	r3, [r0, #72]	; 0x48
    4f60:	2b00      	cmp	r3, #0
    4f62:	d101      	bne.n	4f68 <xTaskPriorityDisinherit+0x1c>
    4f64:	b672      	cpsid	i
    4f66:	e7fe      	b.n	4f66 <xTaskPriorityDisinherit+0x1a>
    4f68:	3b01      	subs	r3, #1
    4f6a:	6483      	str	r3, [r0, #72]	; 0x48
    4f6c:	6ac2      	ldr	r2, [r0, #44]	; 0x2c
    4f6e:	6c41      	ldr	r1, [r0, #68]	; 0x44
    4f70:	428a      	cmp	r2, r1
    4f72:	d04b      	beq.n	500c <xTaskPriorityDisinherit+0xc0>
    4f74:	2000      	movs	r0, #0
    4f76:	2b00      	cmp	r3, #0
    4f78:	d145      	bne.n	5006 <xTaskPriorityDisinherit+0xba>
    4f7a:	1d25      	adds	r5, r4, #4
    4f7c:	0028      	movs	r0, r5
    4f7e:	4b25      	ldr	r3, [pc, #148]	; (5014 <xTaskPriorityDisinherit+0xc8>)
    4f80:	4798      	blx	r3
    4f82:	0020      	movs	r0, r4
    4f84:	4b24      	ldr	r3, [pc, #144]	; (5018 <xTaskPriorityDisinherit+0xcc>)
    4f86:	4798      	blx	r3
    4f88:	4b24      	ldr	r3, [pc, #144]	; (501c <xTaskPriorityDisinherit+0xd0>)
    4f8a:	881b      	ldrh	r3, [r3, #0]
    4f8c:	4203      	tst	r3, r0
    4f8e:	d018      	beq.n	4fc2 <xTaskPriorityDisinherit+0x76>
    4f90:	0020      	movs	r0, r4
    4f92:	4e23      	ldr	r6, [pc, #140]	; (5020 <xTaskPriorityDisinherit+0xd4>)
    4f94:	47b0      	blx	r6
    4f96:	0007      	movs	r7, r0
    4f98:	0020      	movs	r0, r4
    4f9a:	47b0      	blx	r6
    4f9c:	b2c1      	uxtb	r1, r0
    4f9e:	2003      	movs	r0, #3
    4fa0:	4b20      	ldr	r3, [pc, #128]	; (5024 <xTaskPriorityDisinherit+0xd8>)
    4fa2:	4798      	blx	r3
    4fa4:	0003      	movs	r3, r0
    4fa6:	b2fa      	uxtb	r2, r7
    4fa8:	2103      	movs	r1, #3
    4faa:	208f      	movs	r0, #143	; 0x8f
    4fac:	4f1e      	ldr	r7, [pc, #120]	; (5028 <xTaskPriorityDisinherit+0xdc>)
    4fae:	47b8      	blx	r7
    4fb0:	0020      	movs	r0, r4
    4fb2:	47b0      	blx	r6
    4fb4:	2344      	movs	r3, #68	; 0x44
    4fb6:	18e3      	adds	r3, r4, r3
    4fb8:	781a      	ldrb	r2, [r3, #0]
    4fba:	b2c1      	uxtb	r1, r0
    4fbc:	2003      	movs	r0, #3
    4fbe:	4b1b      	ldr	r3, [pc, #108]	; (502c <xTaskPriorityDisinherit+0xe0>)
    4fc0:	4798      	blx	r3
    4fc2:	6c62      	ldr	r2, [r4, #68]	; 0x44
    4fc4:	62e2      	str	r2, [r4, #44]	; 0x2c
    4fc6:	2305      	movs	r3, #5
    4fc8:	1a9b      	subs	r3, r3, r2
    4fca:	61a3      	str	r3, [r4, #24]
    4fcc:	0020      	movs	r0, r4
    4fce:	4b12      	ldr	r3, [pc, #72]	; (5018 <xTaskPriorityDisinherit+0xcc>)
    4fd0:	4798      	blx	r3
    4fd2:	4b12      	ldr	r3, [pc, #72]	; (501c <xTaskPriorityDisinherit+0xd0>)
    4fd4:	881b      	ldrh	r3, [r3, #0]
    4fd6:	4203      	tst	r3, r0
    4fd8:	d005      	beq.n	4fe6 <xTaskPriorityDisinherit+0x9a>
    4fda:	0020      	movs	r0, r4
    4fdc:	4b10      	ldr	r3, [pc, #64]	; (5020 <xTaskPriorityDisinherit+0xd4>)
    4fde:	4798      	blx	r3
    4fe0:	b2c0      	uxtb	r0, r0
    4fe2:	4b13      	ldr	r3, [pc, #76]	; (5030 <xTaskPriorityDisinherit+0xe4>)
    4fe4:	4798      	blx	r3
    4fe6:	6ae3      	ldr	r3, [r4, #44]	; 0x2c
    4fe8:	4a12      	ldr	r2, [pc, #72]	; (5034 <xTaskPriorityDisinherit+0xe8>)
    4fea:	6812      	ldr	r2, [r2, #0]
    4fec:	4293      	cmp	r3, r2
    4fee:	d901      	bls.n	4ff4 <xTaskPriorityDisinherit+0xa8>
    4ff0:	4a10      	ldr	r2, [pc, #64]	; (5034 <xTaskPriorityDisinherit+0xe8>)
    4ff2:	6013      	str	r3, [r2, #0]
    4ff4:	0098      	lsls	r0, r3, #2
    4ff6:	18c0      	adds	r0, r0, r3
    4ff8:	0080      	lsls	r0, r0, #2
    4ffa:	4b0f      	ldr	r3, [pc, #60]	; (5038 <xTaskPriorityDisinherit+0xec>)
    4ffc:	1818      	adds	r0, r3, r0
    4ffe:	0029      	movs	r1, r5
    5000:	4b0e      	ldr	r3, [pc, #56]	; (503c <xTaskPriorityDisinherit+0xf0>)
    5002:	4798      	blx	r3
    5004:	2001      	movs	r0, #1
    5006:	bdf8      	pop	{r3, r4, r5, r6, r7, pc}
    5008:	2000      	movs	r0, #0
    500a:	e7fc      	b.n	5006 <xTaskPriorityDisinherit+0xba>
    500c:	2000      	movs	r0, #0
    500e:	e7fa      	b.n	5006 <xTaskPriorityDisinherit+0xba>
    5010:	200036d0 	.word	0x200036d0
    5014:	00002db7 	.word	0x00002db7
    5018:	00001c81 	.word	0x00001c81
    501c:	20000020 	.word	0x20000020
    5020:	00001c71 	.word	0x00001c71
    5024:	000023e9 	.word	0x000023e9
    5028:	00002a35 	.word	0x00002a35
    502c:	00002391 	.word	0x00002391
    5030:	00002809 	.word	0x00002809
    5034:	20003754 	.word	0x20003754
    5038:	200036dc 	.word	0x200036dc
    503c:	00002d71 	.word	0x00002d71

00005040 <vTaskPriorityDisinheritAfterTimeout>:
    5040:	b5f8      	push	{r3, r4, r5, r6, r7, lr}
    5042:	1e04      	subs	r4, r0, #0
    5044:	d00d      	beq.n	5062 <vTaskPriorityDisinheritAfterTimeout+0x22>
    5046:	6c83      	ldr	r3, [r0, #72]	; 0x48
    5048:	2b00      	cmp	r3, #0
    504a:	d101      	bne.n	5050 <vTaskPriorityDisinheritAfterTimeout+0x10>
    504c:	b672      	cpsid	i
    504e:	e7fe      	b.n	504e <vTaskPriorityDisinheritAfterTimeout+0xe>
    5050:	6c45      	ldr	r5, [r0, #68]	; 0x44
    5052:	428d      	cmp	r5, r1
    5054:	d200      	bcs.n	5058 <vTaskPriorityDisinheritAfterTimeout+0x18>
    5056:	000d      	movs	r5, r1
    5058:	6ae2      	ldr	r2, [r4, #44]	; 0x2c
    505a:	42aa      	cmp	r2, r5
    505c:	d001      	beq.n	5062 <vTaskPriorityDisinheritAfterTimeout+0x22>
    505e:	2b01      	cmp	r3, #1
    5060:	d000      	beq.n	5064 <vTaskPriorityDisinheritAfterTimeout+0x24>
    5062:	bdf8      	pop	{r3, r4, r5, r6, r7, pc}
    5064:	4b2b      	ldr	r3, [pc, #172]	; (5114 <vTaskPriorityDisinheritAfterTimeout+0xd4>)
    5066:	681b      	ldr	r3, [r3, #0]
    5068:	429c      	cmp	r4, r3
    506a:	d101      	bne.n	5070 <vTaskPriorityDisinheritAfterTimeout+0x30>
    506c:	b672      	cpsid	i
    506e:	e7fe      	b.n	506e <vTaskPriorityDisinheritAfterTimeout+0x2e>
    5070:	0020      	movs	r0, r4
    5072:	4b29      	ldr	r3, [pc, #164]	; (5118 <vTaskPriorityDisinheritAfterTimeout+0xd8>)
    5074:	4798      	blx	r3
    5076:	4b29      	ldr	r3, [pc, #164]	; (511c <vTaskPriorityDisinheritAfterTimeout+0xdc>)
    5078:	881b      	ldrh	r3, [r3, #0]
    507a:	4203      	tst	r3, r0
    507c:	d018      	beq.n	50b0 <vTaskPriorityDisinheritAfterTimeout+0x70>
    507e:	0020      	movs	r0, r4
    5080:	4e27      	ldr	r6, [pc, #156]	; (5120 <vTaskPriorityDisinheritAfterTimeout+0xe0>)
    5082:	47b0      	blx	r6
    5084:	0007      	movs	r7, r0
    5086:	0020      	movs	r0, r4
    5088:	47b0      	blx	r6
    508a:	b2c1      	uxtb	r1, r0
    508c:	2003      	movs	r0, #3
    508e:	4b25      	ldr	r3, [pc, #148]	; (5124 <vTaskPriorityDisinheritAfterTimeout+0xe4>)
    5090:	4798      	blx	r3
    5092:	0003      	movs	r3, r0
    5094:	b2fa      	uxtb	r2, r7
    5096:	2103      	movs	r1, #3
    5098:	208f      	movs	r0, #143	; 0x8f
    509a:	4f23      	ldr	r7, [pc, #140]	; (5128 <vTaskPriorityDisinheritAfterTimeout+0xe8>)
    509c:	47b8      	blx	r7
    509e:	0020      	movs	r0, r4
    50a0:	47b0      	blx	r6
    50a2:	2344      	movs	r3, #68	; 0x44
    50a4:	18e3      	adds	r3, r4, r3
    50a6:	781a      	ldrb	r2, [r3, #0]
    50a8:	b2c1      	uxtb	r1, r0
    50aa:	2003      	movs	r0, #3
    50ac:	4b1f      	ldr	r3, [pc, #124]	; (512c <vTaskPriorityDisinheritAfterTimeout+0xec>)
    50ae:	4798      	blx	r3
    50b0:	6ae1      	ldr	r1, [r4, #44]	; 0x2c
    50b2:	62e5      	str	r5, [r4, #44]	; 0x2c
    50b4:	69a3      	ldr	r3, [r4, #24]
    50b6:	2b00      	cmp	r3, #0
    50b8:	db02      	blt.n	50c0 <vTaskPriorityDisinheritAfterTimeout+0x80>
    50ba:	2205      	movs	r2, #5
    50bc:	1b55      	subs	r5, r2, r5
    50be:	61a5      	str	r5, [r4, #24]
    50c0:	008b      	lsls	r3, r1, #2
    50c2:	185b      	adds	r3, r3, r1
    50c4:	009b      	lsls	r3, r3, #2
    50c6:	4a1a      	ldr	r2, [pc, #104]	; (5130 <vTaskPriorityDisinheritAfterTimeout+0xf0>)
    50c8:	18d3      	adds	r3, r2, r3
    50ca:	6962      	ldr	r2, [r4, #20]
    50cc:	429a      	cmp	r2, r3
    50ce:	d1c8      	bne.n	5062 <vTaskPriorityDisinheritAfterTimeout+0x22>
    50d0:	1d25      	adds	r5, r4, #4
    50d2:	0028      	movs	r0, r5
    50d4:	4b17      	ldr	r3, [pc, #92]	; (5134 <vTaskPriorityDisinheritAfterTimeout+0xf4>)
    50d6:	4798      	blx	r3
    50d8:	0020      	movs	r0, r4
    50da:	4b0f      	ldr	r3, [pc, #60]	; (5118 <vTaskPriorityDisinheritAfterTimeout+0xd8>)
    50dc:	4798      	blx	r3
    50de:	4b0f      	ldr	r3, [pc, #60]	; (511c <vTaskPriorityDisinheritAfterTimeout+0xdc>)
    50e0:	881b      	ldrh	r3, [r3, #0]
    50e2:	4203      	tst	r3, r0
    50e4:	d005      	beq.n	50f2 <vTaskPriorityDisinheritAfterTimeout+0xb2>
    50e6:	0020      	movs	r0, r4
    50e8:	4b0d      	ldr	r3, [pc, #52]	; (5120 <vTaskPriorityDisinheritAfterTimeout+0xe0>)
    50ea:	4798      	blx	r3
    50ec:	b2c0      	uxtb	r0, r0
    50ee:	4b12      	ldr	r3, [pc, #72]	; (5138 <vTaskPriorityDisinheritAfterTimeout+0xf8>)
    50f0:	4798      	blx	r3
    50f2:	6ae3      	ldr	r3, [r4, #44]	; 0x2c
    50f4:	4a11      	ldr	r2, [pc, #68]	; (513c <vTaskPriorityDisinheritAfterTimeout+0xfc>)
    50f6:	6812      	ldr	r2, [r2, #0]
    50f8:	4293      	cmp	r3, r2
    50fa:	d901      	bls.n	5100 <vTaskPriorityDisinheritAfterTimeout+0xc0>
    50fc:	4a0f      	ldr	r2, [pc, #60]	; (513c <vTaskPriorityDisinheritAfterTimeout+0xfc>)
    50fe:	6013      	str	r3, [r2, #0]
    5100:	0098      	lsls	r0, r3, #2
    5102:	18c0      	adds	r0, r0, r3
    5104:	0080      	lsls	r0, r0, #2
    5106:	4b0a      	ldr	r3, [pc, #40]	; (5130 <vTaskPriorityDisinheritAfterTimeout+0xf0>)
    5108:	1818      	adds	r0, r3, r0
    510a:	0029      	movs	r1, r5
    510c:	4b0c      	ldr	r3, [pc, #48]	; (5140 <vTaskPriorityDisinheritAfterTimeout+0x100>)
    510e:	4798      	blx	r3
    5110:	e7a7      	b.n	5062 <vTaskPriorityDisinheritAfterTimeout+0x22>
    5112:	46c0      	nop			; (mov r8, r8)
    5114:	200036d0 	.word	0x200036d0
    5118:	00001c81 	.word	0x00001c81
    511c:	20000020 	.word	0x20000020
    5120:	00001c71 	.word	0x00001c71
    5124:	000023e9 	.word	0x000023e9
    5128:	00002a35 	.word	0x00002a35
    512c:	00002391 	.word	0x00002391
    5130:	200036dc 	.word	0x200036dc
    5134:	00002db7 	.word	0x00002db7
    5138:	00002809 	.word	0x00002809
    513c:	20003754 	.word	0x20003754
    5140:	00002d71 	.word	0x00002d71

00005144 <pvTaskIncrementMutexHeldCount>:
    5144:	4b05      	ldr	r3, [pc, #20]	; (515c <pvTaskIncrementMutexHeldCount+0x18>)
    5146:	681b      	ldr	r3, [r3, #0]
    5148:	2b00      	cmp	r3, #0
    514a:	d004      	beq.n	5156 <pvTaskIncrementMutexHeldCount+0x12>
    514c:	4b03      	ldr	r3, [pc, #12]	; (515c <pvTaskIncrementMutexHeldCount+0x18>)
    514e:	681a      	ldr	r2, [r3, #0]
    5150:	6c93      	ldr	r3, [r2, #72]	; 0x48
    5152:	3301      	adds	r3, #1
    5154:	6493      	str	r3, [r2, #72]	; 0x48
    5156:	4b01      	ldr	r3, [pc, #4]	; (515c <pvTaskIncrementMutexHeldCount+0x18>)
    5158:	6818      	ldr	r0, [r3, #0]
    515a:	4770      	bx	lr
    515c:	200036d0 	.word	0x200036d0

00005160 <prvInsertTimerInActiveList>:
    5160:	b510      	push	{r4, lr}
    5162:	6041      	str	r1, [r0, #4]
    5164:	6100      	str	r0, [r0, #16]
    5166:	4291      	cmp	r1, r2
    5168:	d80b      	bhi.n	5182 <prvInsertTimerInActiveList+0x22>
    516a:	1ad2      	subs	r2, r2, r3
    516c:	2401      	movs	r4, #1
    516e:	6983      	ldr	r3, [r0, #24]
    5170:	429a      	cmp	r2, r3
    5172:	d211      	bcs.n	5198 <prvInsertTimerInActiveList+0x38>
    5174:	1d01      	adds	r1, r0, #4
    5176:	4b09      	ldr	r3, [pc, #36]	; (519c <prvInsertTimerInActiveList+0x3c>)
    5178:	6818      	ldr	r0, [r3, #0]
    517a:	4b09      	ldr	r3, [pc, #36]	; (51a0 <prvInsertTimerInActiveList+0x40>)
    517c:	4798      	blx	r3
    517e:	2400      	movs	r4, #0
    5180:	e00a      	b.n	5198 <prvInsertTimerInActiveList+0x38>
    5182:	429a      	cmp	r2, r3
    5184:	d202      	bcs.n	518c <prvInsertTimerInActiveList+0x2c>
    5186:	2401      	movs	r4, #1
    5188:	4299      	cmp	r1, r3
    518a:	d205      	bcs.n	5198 <prvInsertTimerInActiveList+0x38>
    518c:	1d01      	adds	r1, r0, #4
    518e:	4b05      	ldr	r3, [pc, #20]	; (51a4 <prvInsertTimerInActiveList+0x44>)
    5190:	6818      	ldr	r0, [r3, #0]
    5192:	4b03      	ldr	r3, [pc, #12]	; (51a0 <prvInsertTimerInActiveList+0x40>)
    5194:	4798      	blx	r3
    5196:	2400      	movs	r4, #0
    5198:	0020      	movs	r0, r4
    519a:	bd10      	pop	{r4, pc}
    519c:	200037d8 	.word	0x200037d8
    51a0:	00002d89 	.word	0x00002d89
    51a4:	200037d4 	.word	0x200037d4

000051a8 <prvCheckForValidListAndQueue>:
    51a8:	b570      	push	{r4, r5, r6, lr}
    51aa:	4b0e      	ldr	r3, [pc, #56]	; (51e4 <prvCheckForValidListAndQueue+0x3c>)
    51ac:	4798      	blx	r3
    51ae:	4b0e      	ldr	r3, [pc, #56]	; (51e8 <prvCheckForValidListAndQueue+0x40>)
    51b0:	681b      	ldr	r3, [r3, #0]
    51b2:	2b00      	cmp	r3, #0
    51b4:	d002      	beq.n	51bc <prvCheckForValidListAndQueue+0x14>
    51b6:	4b0d      	ldr	r3, [pc, #52]	; (51ec <prvCheckForValidListAndQueue+0x44>)
    51b8:	4798      	blx	r3
    51ba:	bd70      	pop	{r4, r5, r6, pc}
    51bc:	4d0c      	ldr	r5, [pc, #48]	; (51f0 <prvCheckForValidListAndQueue+0x48>)
    51be:	0028      	movs	r0, r5
    51c0:	4e0c      	ldr	r6, [pc, #48]	; (51f4 <prvCheckForValidListAndQueue+0x4c>)
    51c2:	47b0      	blx	r6
    51c4:	4c0c      	ldr	r4, [pc, #48]	; (51f8 <prvCheckForValidListAndQueue+0x50>)
    51c6:	0020      	movs	r0, r4
    51c8:	47b0      	blx	r6
    51ca:	4b0c      	ldr	r3, [pc, #48]	; (51fc <prvCheckForValidListAndQueue+0x54>)
    51cc:	601d      	str	r5, [r3, #0]
    51ce:	4b0c      	ldr	r3, [pc, #48]	; (5200 <prvCheckForValidListAndQueue+0x58>)
    51d0:	601c      	str	r4, [r3, #0]
    51d2:	2200      	movs	r2, #0
    51d4:	210c      	movs	r1, #12
    51d6:	2002      	movs	r0, #2
    51d8:	4b0a      	ldr	r3, [pc, #40]	; (5204 <prvCheckForValidListAndQueue+0x5c>)
    51da:	4798      	blx	r3
    51dc:	4b02      	ldr	r3, [pc, #8]	; (51e8 <prvCheckForValidListAndQueue+0x40>)
    51de:	6018      	str	r0, [r3, #0]
    51e0:	e7e9      	b.n	51b6 <prvCheckForValidListAndQueue+0xe>
    51e2:	46c0      	nop			; (mov r8, r8)
    51e4:	00002ef1 	.word	0x00002ef1
    51e8:	20003808 	.word	0x20003808
    51ec:	00002f09 	.word	0x00002f09
    51f0:	200037dc 	.word	0x200037dc
    51f4:	00002d55 	.word	0x00002d55
    51f8:	200037f0 	.word	0x200037f0
    51fc:	200037d4 	.word	0x200037d4
    5200:	200037d8 	.word	0x200037d8
    5204:	00003369 	.word	0x00003369

00005208 <xTimerCreateTimerTask>:
    5208:	b510      	push	{r4, lr}
    520a:	b082      	sub	sp, #8
    520c:	4b0a      	ldr	r3, [pc, #40]	; (5238 <xTimerCreateTimerTask+0x30>)
    520e:	4798      	blx	r3
    5210:	4b0a      	ldr	r3, [pc, #40]	; (523c <xTimerCreateTimerTask+0x34>)
    5212:	681b      	ldr	r3, [r3, #0]
    5214:	2b00      	cmp	r3, #0
    5216:	d00d      	beq.n	5234 <xTimerCreateTimerTask+0x2c>
    5218:	4b09      	ldr	r3, [pc, #36]	; (5240 <xTimerCreateTimerTask+0x38>)
    521a:	9301      	str	r3, [sp, #4]
    521c:	2302      	movs	r3, #2
    521e:	9300      	str	r3, [sp, #0]
    5220:	2300      	movs	r3, #0
    5222:	2280      	movs	r2, #128	; 0x80
    5224:	4907      	ldr	r1, [pc, #28]	; (5244 <xTimerCreateTimerTask+0x3c>)
    5226:	4808      	ldr	r0, [pc, #32]	; (5248 <xTimerCreateTimerTask+0x40>)
    5228:	4c08      	ldr	r4, [pc, #32]	; (524c <xTimerCreateTimerTask+0x44>)
    522a:	47a0      	blx	r4
    522c:	2800      	cmp	r0, #0
    522e:	d001      	beq.n	5234 <xTimerCreateTimerTask+0x2c>
    5230:	b002      	add	sp, #8
    5232:	bd10      	pop	{r4, pc}
    5234:	b672      	cpsid	i
    5236:	e7fe      	b.n	5236 <xTimerCreateTimerTask+0x2e>
    5238:	000051a9 	.word	0x000051a9
    523c:	20003808 	.word	0x20003808
    5240:	2000380c 	.word	0x2000380c
    5244:	0000a7e8 	.word	0x0000a7e8
    5248:	00005375 	.word	0x00005375
    524c:	00004341 	.word	0x00004341

00005250 <xTimerGenericCommand>:
    5250:	b530      	push	{r4, r5, lr}
    5252:	b085      	sub	sp, #20
    5254:	0004      	movs	r4, r0
    5256:	001d      	movs	r5, r3
    5258:	2800      	cmp	r0, #0
    525a:	d014      	beq.n	5286 <xTimerGenericCommand+0x36>
    525c:	4b13      	ldr	r3, [pc, #76]	; (52ac <xTimerGenericCommand+0x5c>)
    525e:	6818      	ldr	r0, [r3, #0]
    5260:	2800      	cmp	r0, #0
    5262:	d021      	beq.n	52a8 <xTimerGenericCommand+0x58>
    5264:	9101      	str	r1, [sp, #4]
    5266:	9202      	str	r2, [sp, #8]
    5268:	9403      	str	r4, [sp, #12]
    526a:	2905      	cmp	r1, #5
    526c:	dc15      	bgt.n	529a <xTimerGenericCommand+0x4a>
    526e:	4b10      	ldr	r3, [pc, #64]	; (52b0 <xTimerGenericCommand+0x60>)
    5270:	4798      	blx	r3
    5272:	2802      	cmp	r0, #2
    5274:	d009      	beq.n	528a <xTimerGenericCommand+0x3a>
    5276:	4b0d      	ldr	r3, [pc, #52]	; (52ac <xTimerGenericCommand+0x5c>)
    5278:	6818      	ldr	r0, [r3, #0]
    527a:	2300      	movs	r3, #0
    527c:	2200      	movs	r2, #0
    527e:	a901      	add	r1, sp, #4
    5280:	4c0c      	ldr	r4, [pc, #48]	; (52b4 <xTimerGenericCommand+0x64>)
    5282:	47a0      	blx	r4
    5284:	e00e      	b.n	52a4 <xTimerGenericCommand+0x54>
    5286:	b672      	cpsid	i
    5288:	e7fe      	b.n	5288 <xTimerGenericCommand+0x38>
    528a:	4b08      	ldr	r3, [pc, #32]	; (52ac <xTimerGenericCommand+0x5c>)
    528c:	6818      	ldr	r0, [r3, #0]
    528e:	2300      	movs	r3, #0
    5290:	9a08      	ldr	r2, [sp, #32]
    5292:	a901      	add	r1, sp, #4
    5294:	4c07      	ldr	r4, [pc, #28]	; (52b4 <xTimerGenericCommand+0x64>)
    5296:	47a0      	blx	r4
    5298:	e004      	b.n	52a4 <xTimerGenericCommand+0x54>
    529a:	2300      	movs	r3, #0
    529c:	002a      	movs	r2, r5
    529e:	a901      	add	r1, sp, #4
    52a0:	4c05      	ldr	r4, [pc, #20]	; (52b8 <xTimerGenericCommand+0x68>)
    52a2:	47a0      	blx	r4
    52a4:	b005      	add	sp, #20
    52a6:	bd30      	pop	{r4, r5, pc}
    52a8:	2000      	movs	r0, #0
    52aa:	e7fb      	b.n	52a4 <xTimerGenericCommand+0x54>
    52ac:	20003808 	.word	0x20003808
    52b0:	00004e15 	.word	0x00004e15
    52b4:	000034a5 	.word	0x000034a5
    52b8:	000037f9 	.word	0x000037f9

000052bc <prvSampleTimeNow>:
    52bc:	b5f0      	push	{r4, r5, r6, r7, lr}
    52be:	46d6      	mov	lr, sl
    52c0:	464f      	mov	r7, r9
    52c2:	4646      	mov	r6, r8
    52c4:	b5c0      	push	{r6, r7, lr}
    52c6:	b082      	sub	sp, #8
    52c8:	4680      	mov	r8, r0
    52ca:	4b23      	ldr	r3, [pc, #140]	; (5358 <prvSampleTimeNow+0x9c>)
    52cc:	4798      	blx	r3
    52ce:	4682      	mov	sl, r0
    52d0:	4b22      	ldr	r3, [pc, #136]	; (535c <prvSampleTimeNow+0xa0>)
    52d2:	681b      	ldr	r3, [r3, #0]
    52d4:	4298      	cmp	r0, r3
    52d6:	d317      	bcc.n	5308 <prvSampleTimeNow+0x4c>
    52d8:	2300      	movs	r3, #0
    52da:	4642      	mov	r2, r8
    52dc:	6013      	str	r3, [r2, #0]
    52de:	4b1f      	ldr	r3, [pc, #124]	; (535c <prvSampleTimeNow+0xa0>)
    52e0:	4652      	mov	r2, sl
    52e2:	601a      	str	r2, [r3, #0]
    52e4:	4650      	mov	r0, sl
    52e6:	b002      	add	sp, #8
    52e8:	bc1c      	pop	{r2, r3, r4}
    52ea:	4690      	mov	r8, r2
    52ec:	4699      	mov	r9, r3
    52ee:	46a2      	mov	sl, r4
    52f0:	bdf0      	pop	{r4, r5, r6, r7, pc}
    52f2:	2300      	movs	r3, #0
    52f4:	9300      	str	r3, [sp, #0]
    52f6:	003a      	movs	r2, r7
    52f8:	2100      	movs	r1, #0
    52fa:	0020      	movs	r0, r4
    52fc:	4c18      	ldr	r4, [pc, #96]	; (5360 <prvSampleTimeNow+0xa4>)
    52fe:	47a0      	blx	r4
    5300:	2800      	cmp	r0, #0
    5302:	d104      	bne.n	530e <prvSampleTimeNow+0x52>
    5304:	b672      	cpsid	i
    5306:	e7fe      	b.n	5306 <prvSampleTimeNow+0x4a>
    5308:	4d16      	ldr	r5, [pc, #88]	; (5364 <prvSampleTimeNow+0xa8>)
    530a:	4b17      	ldr	r3, [pc, #92]	; (5368 <prvSampleTimeNow+0xac>)
    530c:	4699      	mov	r9, r3
    530e:	682b      	ldr	r3, [r5, #0]
    5310:	681a      	ldr	r2, [r3, #0]
    5312:	2a00      	cmp	r2, #0
    5314:	d017      	beq.n	5346 <prvSampleTimeNow+0x8a>
    5316:	68db      	ldr	r3, [r3, #12]
    5318:	681f      	ldr	r7, [r3, #0]
    531a:	68dc      	ldr	r4, [r3, #12]
    531c:	1d26      	adds	r6, r4, #4
    531e:	0030      	movs	r0, r6
    5320:	47c8      	blx	r9
    5322:	0020      	movs	r0, r4
    5324:	6a63      	ldr	r3, [r4, #36]	; 0x24
    5326:	4798      	blx	r3
    5328:	69e3      	ldr	r3, [r4, #28]
    532a:	2b01      	cmp	r3, #1
    532c:	d1ef      	bne.n	530e <prvSampleTimeNow+0x52>
    532e:	69a3      	ldr	r3, [r4, #24]
    5330:	18fb      	adds	r3, r7, r3
    5332:	429f      	cmp	r7, r3
    5334:	d2dd      	bcs.n	52f2 <prvSampleTimeNow+0x36>
    5336:	6063      	str	r3, [r4, #4]
    5338:	6124      	str	r4, [r4, #16]
    533a:	4b0a      	ldr	r3, [pc, #40]	; (5364 <prvSampleTimeNow+0xa8>)
    533c:	6818      	ldr	r0, [r3, #0]
    533e:	0031      	movs	r1, r6
    5340:	4b0a      	ldr	r3, [pc, #40]	; (536c <prvSampleTimeNow+0xb0>)
    5342:	4798      	blx	r3
    5344:	e7e3      	b.n	530e <prvSampleTimeNow+0x52>
    5346:	4a0a      	ldr	r2, [pc, #40]	; (5370 <prvSampleTimeNow+0xb4>)
    5348:	4906      	ldr	r1, [pc, #24]	; (5364 <prvSampleTimeNow+0xa8>)
    534a:	6810      	ldr	r0, [r2, #0]
    534c:	6008      	str	r0, [r1, #0]
    534e:	6013      	str	r3, [r2, #0]
    5350:	2301      	movs	r3, #1
    5352:	4642      	mov	r2, r8
    5354:	6013      	str	r3, [r2, #0]
    5356:	e7c2      	b.n	52de <prvSampleTimeNow+0x22>
    5358:	00004665 	.word	0x00004665
    535c:	20003804 	.word	0x20003804
    5360:	00005251 	.word	0x00005251
    5364:	200037d4 	.word	0x200037d4
    5368:	00002db7 	.word	0x00002db7
    536c:	00002d89 	.word	0x00002d89
    5370:	200037d8 	.word	0x200037d8

00005374 <prvTimerTask>:
    5374:	b5f0      	push	{r4, r5, r6, r7, lr}
    5376:	b089      	sub	sp, #36	; 0x24
    5378:	4b53      	ldr	r3, [pc, #332]	; (54c8 <prvTimerTask+0x154>)
    537a:	4798      	blx	r3
    537c:	4f53      	ldr	r7, [pc, #332]	; (54cc <prvTimerTask+0x158>)
    537e:	4b54      	ldr	r3, [pc, #336]	; (54d0 <prvTimerTask+0x15c>)
    5380:	681b      	ldr	r3, [r3, #0]
    5382:	681a      	ldr	r2, [r3, #0]
    5384:	2a00      	cmp	r2, #0
    5386:	d00e      	beq.n	53a6 <prvTimerTask+0x32>
    5388:	68db      	ldr	r3, [r3, #12]
    538a:	681c      	ldr	r4, [r3, #0]
    538c:	4b51      	ldr	r3, [pc, #324]	; (54d4 <prvTimerTask+0x160>)
    538e:	4798      	blx	r3
    5390:	a805      	add	r0, sp, #20
    5392:	4b51      	ldr	r3, [pc, #324]	; (54d8 <prvTimerTask+0x164>)
    5394:	4798      	blx	r3
    5396:	0005      	movs	r5, r0
    5398:	9b05      	ldr	r3, [sp, #20]
    539a:	2b00      	cmp	r3, #0
    539c:	d15f      	bne.n	545e <prvTimerTask+0xea>
    539e:	4284      	cmp	r4, r0
    53a0:	d936      	bls.n	5410 <prvTimerTask+0x9c>
    53a2:	2200      	movs	r2, #0
    53a4:	e00f      	b.n	53c6 <prvTimerTask+0x52>
    53a6:	4b4b      	ldr	r3, [pc, #300]	; (54d4 <prvTimerTask+0x160>)
    53a8:	4798      	blx	r3
    53aa:	a805      	add	r0, sp, #20
    53ac:	4b4a      	ldr	r3, [pc, #296]	; (54d8 <prvTimerTask+0x164>)
    53ae:	4798      	blx	r3
    53b0:	0005      	movs	r5, r0
    53b2:	9b05      	ldr	r3, [sp, #20]
    53b4:	2b00      	cmp	r3, #0
    53b6:	d152      	bne.n	545e <prvTimerTask+0xea>
    53b8:	4b48      	ldr	r3, [pc, #288]	; (54dc <prvTimerTask+0x168>)
    53ba:	681b      	ldr	r3, [r3, #0]
    53bc:	681b      	ldr	r3, [r3, #0]
    53be:	425a      	negs	r2, r3
    53c0:	415a      	adcs	r2, r3
    53c2:	b2d2      	uxtb	r2, r2
    53c4:	2400      	movs	r4, #0
    53c6:	1b61      	subs	r1, r4, r5
    53c8:	4b45      	ldr	r3, [pc, #276]	; (54e0 <prvTimerTask+0x16c>)
    53ca:	6818      	ldr	r0, [r3, #0]
    53cc:	4b45      	ldr	r3, [pc, #276]	; (54e4 <prvTimerTask+0x170>)
    53ce:	4798      	blx	r3
    53d0:	4b45      	ldr	r3, [pc, #276]	; (54e8 <prvTimerTask+0x174>)
    53d2:	4798      	blx	r3
    53d4:	2800      	cmp	r0, #0
    53d6:	d03f      	beq.n	5458 <prvTimerTask+0xe4>
    53d8:	4d41      	ldr	r5, [pc, #260]	; (54e0 <prvTimerTask+0x16c>)
    53da:	4c44      	ldr	r4, [pc, #272]	; (54ec <prvTimerTask+0x178>)
    53dc:	2200      	movs	r2, #0
    53de:	a905      	add	r1, sp, #20
    53e0:	6828      	ldr	r0, [r5, #0]
    53e2:	47a0      	blx	r4
    53e4:	2800      	cmp	r0, #0
    53e6:	d0ca      	beq.n	537e <prvTimerTask+0xa>
    53e8:	9b05      	ldr	r3, [sp, #20]
    53ea:	9303      	str	r3, [sp, #12]
    53ec:	2b00      	cmp	r3, #0
    53ee:	dbf5      	blt.n	53dc <prvTimerTask+0x68>
    53f0:	9e07      	ldr	r6, [sp, #28]
    53f2:	6973      	ldr	r3, [r6, #20]
    53f4:	2b00      	cmp	r3, #0
    53f6:	d001      	beq.n	53fc <prvTimerTask+0x88>
    53f8:	1d30      	adds	r0, r6, #4
    53fa:	47b8      	blx	r7
    53fc:	a804      	add	r0, sp, #16
    53fe:	4b36      	ldr	r3, [pc, #216]	; (54d8 <prvTimerTask+0x164>)
    5400:	4798      	blx	r3
    5402:	9b05      	ldr	r3, [sp, #20]
    5404:	2b09      	cmp	r3, #9
    5406:	d8e9      	bhi.n	53dc <prvTimerTask+0x68>
    5408:	009b      	lsls	r3, r3, #2
    540a:	4a39      	ldr	r2, [pc, #228]	; (54f0 <prvTimerTask+0x17c>)
    540c:	58d3      	ldr	r3, [r2, r3]
    540e:	469f      	mov	pc, r3
    5410:	4b35      	ldr	r3, [pc, #212]	; (54e8 <prvTimerTask+0x174>)
    5412:	4798      	blx	r3
    5414:	4b2e      	ldr	r3, [pc, #184]	; (54d0 <prvTimerTask+0x15c>)
    5416:	681b      	ldr	r3, [r3, #0]
    5418:	68db      	ldr	r3, [r3, #12]
    541a:	68de      	ldr	r6, [r3, #12]
    541c:	1d30      	adds	r0, r6, #4
    541e:	4b2b      	ldr	r3, [pc, #172]	; (54cc <prvTimerTask+0x158>)
    5420:	4798      	blx	r3
    5422:	69f3      	ldr	r3, [r6, #28]
    5424:	2b01      	cmp	r3, #1
    5426:	d003      	beq.n	5430 <prvTimerTask+0xbc>
    5428:	6a73      	ldr	r3, [r6, #36]	; 0x24
    542a:	0030      	movs	r0, r6
    542c:	4798      	blx	r3
    542e:	e7d3      	b.n	53d8 <prvTimerTask+0x64>
    5430:	69b3      	ldr	r3, [r6, #24]
    5432:	18e1      	adds	r1, r4, r3
    5434:	0023      	movs	r3, r4
    5436:	002a      	movs	r2, r5
    5438:	0030      	movs	r0, r6
    543a:	4d2e      	ldr	r5, [pc, #184]	; (54f4 <prvTimerTask+0x180>)
    543c:	47a8      	blx	r5
    543e:	2800      	cmp	r0, #0
    5440:	d0f2      	beq.n	5428 <prvTimerTask+0xb4>
    5442:	2300      	movs	r3, #0
    5444:	9300      	str	r3, [sp, #0]
    5446:	0022      	movs	r2, r4
    5448:	2100      	movs	r1, #0
    544a:	0030      	movs	r0, r6
    544c:	4c2a      	ldr	r4, [pc, #168]	; (54f8 <prvTimerTask+0x184>)
    544e:	47a0      	blx	r4
    5450:	2800      	cmp	r0, #0
    5452:	d1e9      	bne.n	5428 <prvTimerTask+0xb4>
    5454:	b672      	cpsid	i
    5456:	e7fe      	b.n	5456 <prvTimerTask+0xe2>
    5458:	4b28      	ldr	r3, [pc, #160]	; (54fc <prvTimerTask+0x188>)
    545a:	4798      	blx	r3
    545c:	e7bc      	b.n	53d8 <prvTimerTask+0x64>
    545e:	4b22      	ldr	r3, [pc, #136]	; (54e8 <prvTimerTask+0x174>)
    5460:	4798      	blx	r3
    5462:	e7b9      	b.n	53d8 <prvTimerTask+0x64>
    5464:	9b06      	ldr	r3, [sp, #24]
    5466:	69b2      	ldr	r2, [r6, #24]
    5468:	4694      	mov	ip, r2
    546a:	4463      	add	r3, ip
    546c:	0019      	movs	r1, r3
    546e:	9b06      	ldr	r3, [sp, #24]
    5470:	0002      	movs	r2, r0
    5472:	0030      	movs	r0, r6
    5474:	4c1f      	ldr	r4, [pc, #124]	; (54f4 <prvTimerTask+0x180>)
    5476:	47a0      	blx	r4
    5478:	2800      	cmp	r0, #0
    547a:	d0ae      	beq.n	53da <prvTimerTask+0x66>
    547c:	0030      	movs	r0, r6
    547e:	6a73      	ldr	r3, [r6, #36]	; 0x24
    5480:	4798      	blx	r3
    5482:	69f3      	ldr	r3, [r6, #28]
    5484:	2b01      	cmp	r3, #1
    5486:	d1a8      	bne.n	53da <prvTimerTask+0x66>
    5488:	9b06      	ldr	r3, [sp, #24]
    548a:	69b1      	ldr	r1, [r6, #24]
    548c:	468c      	mov	ip, r1
    548e:	4463      	add	r3, ip
    5490:	001a      	movs	r2, r3
    5492:	2300      	movs	r3, #0
    5494:	9300      	str	r3, [sp, #0]
    5496:	2100      	movs	r1, #0
    5498:	0030      	movs	r0, r6
    549a:	4c17      	ldr	r4, [pc, #92]	; (54f8 <prvTimerTask+0x184>)
    549c:	47a0      	blx	r4
    549e:	2800      	cmp	r0, #0
    54a0:	d19b      	bne.n	53da <prvTimerTask+0x66>
    54a2:	b672      	cpsid	i
    54a4:	e7fe      	b.n	54a4 <prvTimerTask+0x130>
    54a6:	9906      	ldr	r1, [sp, #24]
    54a8:	61b1      	str	r1, [r6, #24]
    54aa:	2900      	cmp	r1, #0
    54ac:	d006      	beq.n	54bc <prvTimerTask+0x148>
    54ae:	1841      	adds	r1, r0, r1
    54b0:	0003      	movs	r3, r0
    54b2:	0002      	movs	r2, r0
    54b4:	0030      	movs	r0, r6
    54b6:	4c0f      	ldr	r4, [pc, #60]	; (54f4 <prvTimerTask+0x180>)
    54b8:	47a0      	blx	r4
    54ba:	e78e      	b.n	53da <prvTimerTask+0x66>
    54bc:	b672      	cpsid	i
    54be:	e7fe      	b.n	54be <prvTimerTask+0x14a>
    54c0:	0030      	movs	r0, r6
    54c2:	4b0f      	ldr	r3, [pc, #60]	; (5500 <prvTimerTask+0x18c>)
    54c4:	4798      	blx	r3
    54c6:	e788      	b.n	53da <prvTimerTask+0x66>
    54c8:	00006dc1 	.word	0x00006dc1
    54cc:	00002db7 	.word	0x00002db7
    54d0:	200037d4 	.word	0x200037d4
    54d4:	00004655 	.word	0x00004655
    54d8:	000052bd 	.word	0x000052bd
    54dc:	200037d8 	.word	0x200037d8
    54e0:	20003808 	.word	0x20003808
    54e4:	000041ad 	.word	0x000041ad
    54e8:	000047fd 	.word	0x000047fd
    54ec:	00003b41 	.word	0x00003b41
    54f0:	0000a7c0 	.word	0x0000a7c0
    54f4:	00005161 	.word	0x00005161
    54f8:	00005251 	.word	0x00005251
    54fc:	00002ee1 	.word	0x00002ee1
    5500:	00003045 	.word	0x00003045

00005504 <advance_pointer>:
    5504:	b510      	push	{r4, lr}
    5506:	0004      	movs	r4, r0
    5508:	7c03      	ldrb	r3, [r0, #16]
    550a:	2b00      	cmp	r3, #0
    550c:	d005      	beq.n	551a <advance_pointer+0x16>
    550e:	6883      	ldr	r3, [r0, #8]
    5510:	1c58      	adds	r0, r3, #1
    5512:	68e1      	ldr	r1, [r4, #12]
    5514:	4b07      	ldr	r3, [pc, #28]	; (5534 <advance_pointer+0x30>)
    5516:	4798      	blx	r3
    5518:	60a1      	str	r1, [r4, #8]
    551a:	6863      	ldr	r3, [r4, #4]
    551c:	1c58      	adds	r0, r3, #1
    551e:	68e1      	ldr	r1, [r4, #12]
    5520:	4b04      	ldr	r3, [pc, #16]	; (5534 <advance_pointer+0x30>)
    5522:	4798      	blx	r3
    5524:	6061      	str	r1, [r4, #4]
    5526:	68a3      	ldr	r3, [r4, #8]
    5528:	1a59      	subs	r1, r3, r1
    552a:	424a      	negs	r2, r1
    552c:	414a      	adcs	r2, r1
    552e:	7422      	strb	r2, [r4, #16]
    5530:	bd10      	pop	{r4, pc}
    5532:	46c0      	nop			; (mov r8, r8)
    5534:	00007099 	.word	0x00007099

00005538 <circular_buf_init>:
    5538:	b570      	push	{r4, r5, r6, lr}
    553a:	0005      	movs	r5, r0
    553c:	000c      	movs	r4, r1
    553e:	2014      	movs	r0, #20
    5540:	4b04      	ldr	r3, [pc, #16]	; (5554 <circular_buf_init+0x1c>)
    5542:	4798      	blx	r3
    5544:	6005      	str	r5, [r0, #0]
    5546:	60c4      	str	r4, [r0, #12]
    5548:	2300      	movs	r3, #0
    554a:	6043      	str	r3, [r0, #4]
    554c:	6083      	str	r3, [r0, #8]
    554e:	7403      	strb	r3, [r0, #16]
    5550:	bd70      	pop	{r4, r5, r6, pc}
    5552:	46c0      	nop			; (mov r8, r8)
    5554:	00008d29 	.word	0x00008d29

00005558 <circular_buf_put>:
    5558:	b510      	push	{r4, lr}
    555a:	6803      	ldr	r3, [r0, #0]
    555c:	6842      	ldr	r2, [r0, #4]
    555e:	5499      	strb	r1, [r3, r2]
    5560:	4b01      	ldr	r3, [pc, #4]	; (5568 <circular_buf_put+0x10>)
    5562:	4798      	blx	r3
    5564:	bd10      	pop	{r4, pc}
    5566:	46c0      	nop			; (mov r8, r8)
    5568:	00005505 	.word	0x00005505

0000556c <circular_buf_empty>:
    556c:	7c02      	ldrb	r2, [r0, #16]
    556e:	2300      	movs	r3, #0
    5570:	2a00      	cmp	r2, #0
    5572:	d105      	bne.n	5580 <circular_buf_empty+0x14>
    5574:	6843      	ldr	r3, [r0, #4]
    5576:	6880      	ldr	r0, [r0, #8]
    5578:	1a1b      	subs	r3, r3, r0
    557a:	4258      	negs	r0, r3
    557c:	4143      	adcs	r3, r0
    557e:	b2db      	uxtb	r3, r3
    5580:	0018      	movs	r0, r3
    5582:	4770      	bx	lr

00005584 <circular_buf_get>:
    5584:	b570      	push	{r4, r5, r6, lr}
    5586:	0004      	movs	r4, r0
    5588:	000d      	movs	r5, r1
    558a:	4b0a      	ldr	r3, [pc, #40]	; (55b4 <circular_buf_get+0x30>)
    558c:	4798      	blx	r3
    558e:	2800      	cmp	r0, #0
    5590:	d10d      	bne.n	55ae <circular_buf_get+0x2a>
    5592:	6823      	ldr	r3, [r4, #0]
    5594:	68a2      	ldr	r2, [r4, #8]
    5596:	5c9b      	ldrb	r3, [r3, r2]
    5598:	702b      	strb	r3, [r5, #0]
    559a:	2300      	movs	r3, #0
    559c:	7423      	strb	r3, [r4, #16]
    559e:	68a3      	ldr	r3, [r4, #8]
    55a0:	1c58      	adds	r0, r3, #1
    55a2:	68e1      	ldr	r1, [r4, #12]
    55a4:	4b04      	ldr	r3, [pc, #16]	; (55b8 <circular_buf_get+0x34>)
    55a6:	4798      	blx	r3
    55a8:	60a1      	str	r1, [r4, #8]
    55aa:	2000      	movs	r0, #0
    55ac:	bd70      	pop	{r4, r5, r6, pc}
    55ae:	2001      	movs	r0, #1
    55b0:	4240      	negs	r0, r0
    55b2:	e7fb      	b.n	55ac <circular_buf_get+0x28>
    55b4:	0000556d 	.word	0x0000556d
    55b8:	00007099 	.word	0x00007099

000055bc <usart_write_callback>:
    55bc:	b510      	push	{r4, lr}
    55be:	4b06      	ldr	r3, [pc, #24]	; (55d8 <usart_write_callback+0x1c>)
    55c0:	6818      	ldr	r0, [r3, #0]
    55c2:	4906      	ldr	r1, [pc, #24]	; (55dc <usart_write_callback+0x20>)
    55c4:	4b06      	ldr	r3, [pc, #24]	; (55e0 <usart_write_callback+0x24>)
    55c6:	4798      	blx	r3
    55c8:	1c43      	adds	r3, r0, #1
    55ca:	d004      	beq.n	55d6 <usart_write_callback+0x1a>
    55cc:	2201      	movs	r2, #1
    55ce:	4903      	ldr	r1, [pc, #12]	; (55dc <usart_write_callback+0x20>)
    55d0:	4804      	ldr	r0, [pc, #16]	; (55e4 <usart_write_callback+0x28>)
    55d2:	4b05      	ldr	r3, [pc, #20]	; (55e8 <usart_write_callback+0x2c>)
    55d4:	4798      	blx	r3
    55d6:	bd10      	pop	{r4, pc}
    55d8:	20004e10 	.word	0x20004e10
    55dc:	20004e0c 	.word	0x20004e0c
    55e0:	00005585 	.word	0x00005585
    55e4:	200049d0 	.word	0x200049d0
    55e8:	00006251 	.word	0x00006251

000055ec <usart_read_callback>:
    55ec:	b510      	push	{r4, lr}
    55ee:	4c07      	ldr	r4, [pc, #28]	; (560c <usart_read_callback+0x20>)
    55f0:	7821      	ldrb	r1, [r4, #0]
    55f2:	4b07      	ldr	r3, [pc, #28]	; (5610 <usart_read_callback+0x24>)
    55f4:	6818      	ldr	r0, [r3, #0]
    55f6:	4b07      	ldr	r3, [pc, #28]	; (5614 <usart_read_callback+0x28>)
    55f8:	4798      	blx	r3
    55fa:	2201      	movs	r2, #1
    55fc:	0021      	movs	r1, r4
    55fe:	4806      	ldr	r0, [pc, #24]	; (5618 <usart_read_callback+0x2c>)
    5600:	4b06      	ldr	r3, [pc, #24]	; (561c <usart_read_callback+0x30>)
    5602:	4798      	blx	r3
    5604:	4b06      	ldr	r3, [pc, #24]	; (5620 <usart_read_callback+0x34>)
    5606:	4798      	blx	r3
    5608:	bd10      	pop	{r4, pc}
    560a:	46c0      	nop			; (mov r8, r8)
    560c:	20004a08 	.word	0x20004a08
    5610:	20004a04 	.word	0x20004a04
    5614:	00005559 	.word	0x00005559
    5618:	200049d0 	.word	0x200049d0
    561c:	00006271 	.word	0x00006271
    5620:	00000889 	.word	0x00000889

00005624 <InitializeSerialConsole>:
    5624:	b530      	push	{r4, r5, lr}
    5626:	b091      	sub	sp, #68	; 0x44
    5628:	2580      	movs	r5, #128	; 0x80
    562a:	00ad      	lsls	r5, r5, #2
    562c:	0029      	movs	r1, r5
    562e:	4836      	ldr	r0, [pc, #216]	; (5708 <InitializeSerialConsole+0xe4>)
    5630:	4c36      	ldr	r4, [pc, #216]	; (570c <InitializeSerialConsole+0xe8>)
    5632:	47a0      	blx	r4
    5634:	4b36      	ldr	r3, [pc, #216]	; (5710 <InitializeSerialConsole+0xec>)
    5636:	6018      	str	r0, [r3, #0]
    5638:	0029      	movs	r1, r5
    563a:	4836      	ldr	r0, [pc, #216]	; (5714 <InitializeSerialConsole+0xf0>)
    563c:	47a0      	blx	r4
    563e:	4b36      	ldr	r3, [pc, #216]	; (5718 <InitializeSerialConsole+0xf4>)
    5640:	6018      	str	r0, [r3, #0]
    5642:	2380      	movs	r3, #128	; 0x80
    5644:	05db      	lsls	r3, r3, #23
    5646:	9300      	str	r3, [sp, #0]
    5648:	2300      	movs	r3, #0
    564a:	9301      	str	r3, [sp, #4]
    564c:	22ff      	movs	r2, #255	; 0xff
    564e:	4669      	mov	r1, sp
    5650:	810a      	strh	r2, [r1, #8]
    5652:	2200      	movs	r2, #0
    5654:	728b      	strb	r3, [r1, #10]
    5656:	72cb      	strb	r3, [r1, #11]
    5658:	2101      	movs	r1, #1
    565a:	2024      	movs	r0, #36	; 0x24
    565c:	466c      	mov	r4, sp
    565e:	5421      	strb	r1, [r4, r0]
    5660:	3001      	adds	r0, #1
    5662:	5421      	strb	r1, [r4, r0]
    5664:	3125      	adds	r1, #37	; 0x25
    5666:	5463      	strb	r3, [r4, r1]
    5668:	3101      	adds	r1, #1
    566a:	5463      	strb	r3, [r4, r1]
    566c:	930a      	str	r3, [sp, #40]	; 0x28
    566e:	3105      	adds	r1, #5
    5670:	5463      	strb	r3, [r4, r1]
    5672:	3101      	adds	r1, #1
    5674:	5463      	strb	r3, [r4, r1]
    5676:	9305      	str	r3, [sp, #20]
    5678:	8223      	strh	r3, [r4, #16]
    567a:	76e3      	strb	r3, [r4, #27]
    567c:	7622      	strb	r2, [r4, #24]
    567e:	7722      	strb	r2, [r4, #28]
    5680:	7662      	strb	r2, [r4, #25]
    5682:	2313      	movs	r3, #19
    5684:	76a3      	strb	r3, [r4, #26]
    5686:	7762      	strb	r2, [r4, #29]
    5688:	23e1      	movs	r3, #225	; 0xe1
    568a:	025b      	lsls	r3, r3, #9
    568c:	9308      	str	r3, [sp, #32]
    568e:	23c4      	movs	r3, #196	; 0xc4
    5690:	039b      	lsls	r3, r3, #14
    5692:	9303      	str	r3, [sp, #12]
    5694:	2301      	movs	r3, #1
    5696:	425b      	negs	r3, r3
    5698:	930c      	str	r3, [sp, #48]	; 0x30
    569a:	930d      	str	r3, [sp, #52]	; 0x34
    569c:	4b1f      	ldr	r3, [pc, #124]	; (571c <InitializeSerialConsole+0xf8>)
    569e:	930e      	str	r3, [sp, #56]	; 0x38
    56a0:	4b1f      	ldr	r3, [pc, #124]	; (5720 <InitializeSerialConsole+0xfc>)
    56a2:	930f      	str	r3, [sp, #60]	; 0x3c
    56a4:	4d1f      	ldr	r5, [pc, #124]	; (5724 <InitializeSerialConsole+0x100>)
    56a6:	4c20      	ldr	r4, [pc, #128]	; (5728 <InitializeSerialConsole+0x104>)
    56a8:	466a      	mov	r2, sp
    56aa:	4920      	ldr	r1, [pc, #128]	; (572c <InitializeSerialConsole+0x108>)
    56ac:	0028      	movs	r0, r5
    56ae:	47a0      	blx	r4
    56b0:	2800      	cmp	r0, #0
    56b2:	d1f9      	bne.n	56a8 <InitializeSerialConsole+0x84>
    56b4:	4d1b      	ldr	r5, [pc, #108]	; (5724 <InitializeSerialConsole+0x100>)
    56b6:	682c      	ldr	r4, [r5, #0]
    56b8:	0020      	movs	r0, r4
    56ba:	4b1d      	ldr	r3, [pc, #116]	; (5730 <InitializeSerialConsole+0x10c>)
    56bc:	4798      	blx	r3
    56be:	231f      	movs	r3, #31
    56c0:	4018      	ands	r0, r3
    56c2:	3b1e      	subs	r3, #30
    56c4:	4083      	lsls	r3, r0
    56c6:	4a1b      	ldr	r2, [pc, #108]	; (5734 <InitializeSerialConsole+0x110>)
    56c8:	6013      	str	r3, [r2, #0]
    56ca:	682a      	ldr	r2, [r5, #0]
    56cc:	69d3      	ldr	r3, [r2, #28]
    56ce:	2b00      	cmp	r3, #0
    56d0:	d1fc      	bne.n	56cc <InitializeSerialConsole+0xa8>
    56d2:	6823      	ldr	r3, [r4, #0]
    56d4:	2202      	movs	r2, #2
    56d6:	4313      	orrs	r3, r2
    56d8:	6023      	str	r3, [r4, #0]
    56da:	4c12      	ldr	r4, [pc, #72]	; (5724 <InitializeSerialConsole+0x100>)
    56dc:	2200      	movs	r2, #0
    56de:	4916      	ldr	r1, [pc, #88]	; (5738 <InitializeSerialConsole+0x114>)
    56e0:	0020      	movs	r0, r4
    56e2:	4d16      	ldr	r5, [pc, #88]	; (573c <InitializeSerialConsole+0x118>)
    56e4:	47a8      	blx	r5
    56e6:	2201      	movs	r2, #1
    56e8:	4915      	ldr	r1, [pc, #84]	; (5740 <InitializeSerialConsole+0x11c>)
    56ea:	0020      	movs	r0, r4
    56ec:	47a8      	blx	r5
    56ee:	2231      	movs	r2, #49	; 0x31
    56f0:	5ca3      	ldrb	r3, [r4, r2]
    56f2:	2103      	movs	r1, #3
    56f4:	430b      	orrs	r3, r1
    56f6:	54a3      	strb	r3, [r4, r2]
    56f8:	3a30      	subs	r2, #48	; 0x30
    56fa:	4912      	ldr	r1, [pc, #72]	; (5744 <InitializeSerialConsole+0x120>)
    56fc:	0020      	movs	r0, r4
    56fe:	4b12      	ldr	r3, [pc, #72]	; (5748 <InitializeSerialConsole+0x124>)
    5700:	4798      	blx	r3
    5702:	b011      	add	sp, #68	; 0x44
    5704:	bd30      	pop	{r4, r5, pc}
    5706:	46c0      	nop			; (mov r8, r8)
    5708:	20004c0c 	.word	0x20004c0c
    570c:	00005539 	.word	0x00005539
    5710:	20004a04 	.word	0x20004a04
    5714:	20004a0c 	.word	0x20004a0c
    5718:	20004e10 	.word	0x20004e10
    571c:	002a0003 	.word	0x002a0003
    5720:	002b0003 	.word	0x002b0003
    5724:	200049d0 	.word	0x200049d0
    5728:	00005e69 	.word	0x00005e69
    572c:	42001800 	.word	0x42001800
    5730:	00005dd9 	.word	0x00005dd9
    5734:	e000e100 	.word	0xe000e100
    5738:	000055bd 	.word	0x000055bd
    573c:	00006239 	.word	0x00006239
    5740:	000055ed 	.word	0x000055ed
    5744:	20004a08 	.word	0x20004a08
    5748:	00006271 	.word	0x00006271

0000574c <SerialConsoleWriteString>:
    574c:	b5f0      	push	{r4, r5, r6, r7, lr}
    574e:	46c6      	mov	lr, r8
    5750:	b500      	push	{lr}
    5752:	0005      	movs	r5, r0
    5754:	4b14      	ldr	r3, [pc, #80]	; (57a8 <SerialConsoleWriteString+0x5c>)
    5756:	4798      	blx	r3
    5758:	2400      	movs	r4, #0
    575a:	2d00      	cmp	r5, #0
    575c:	d012      	beq.n	5784 <SerialConsoleWriteString+0x38>
    575e:	4e13      	ldr	r6, [pc, #76]	; (57ac <SerialConsoleWriteString+0x60>)
    5760:	4f13      	ldr	r7, [pc, #76]	; (57b0 <SerialConsoleWriteString+0x64>)
    5762:	4b14      	ldr	r3, [pc, #80]	; (57b4 <SerialConsoleWriteString+0x68>)
    5764:	4698      	mov	r8, r3
    5766:	e003      	b.n	5770 <SerialConsoleWriteString+0x24>
    5768:	5d29      	ldrb	r1, [r5, r4]
    576a:	6838      	ldr	r0, [r7, #0]
    576c:	47c0      	blx	r8
    576e:	3401      	adds	r4, #1
    5770:	0028      	movs	r0, r5
    5772:	47b0      	blx	r6
    5774:	4284      	cmp	r4, r0
    5776:	d3f7      	bcc.n	5768 <SerialConsoleWriteString+0x1c>
    5778:	2101      	movs	r1, #1
    577a:	480f      	ldr	r0, [pc, #60]	; (57b8 <SerialConsoleWriteString+0x6c>)
    577c:	4b0f      	ldr	r3, [pc, #60]	; (57bc <SerialConsoleWriteString+0x70>)
    577e:	4798      	blx	r3
    5780:	2800      	cmp	r0, #0
    5782:	d004      	beq.n	578e <SerialConsoleWriteString+0x42>
    5784:	4b0e      	ldr	r3, [pc, #56]	; (57c0 <SerialConsoleWriteString+0x74>)
    5786:	4798      	blx	r3
    5788:	bc04      	pop	{r2}
    578a:	4690      	mov	r8, r2
    578c:	bdf0      	pop	{r4, r5, r6, r7, pc}
    578e:	4c0d      	ldr	r4, [pc, #52]	; (57c4 <SerialConsoleWriteString+0x78>)
    5790:	4b07      	ldr	r3, [pc, #28]	; (57b0 <SerialConsoleWriteString+0x64>)
    5792:	6818      	ldr	r0, [r3, #0]
    5794:	0021      	movs	r1, r4
    5796:	4b0c      	ldr	r3, [pc, #48]	; (57c8 <SerialConsoleWriteString+0x7c>)
    5798:	4798      	blx	r3
    579a:	2201      	movs	r2, #1
    579c:	0021      	movs	r1, r4
    579e:	4806      	ldr	r0, [pc, #24]	; (57b8 <SerialConsoleWriteString+0x6c>)
    57a0:	4b0a      	ldr	r3, [pc, #40]	; (57cc <SerialConsoleWriteString+0x80>)
    57a2:	4798      	blx	r3
    57a4:	e7ee      	b.n	5784 <SerialConsoleWriteString+0x38>
    57a6:	46c0      	nop			; (mov r8, r8)
    57a8:	00004655 	.word	0x00004655
    57ac:	00008fb9 	.word	0x00008fb9
    57b0:	20004e10 	.word	0x20004e10
    57b4:	00005559 	.word	0x00005559
    57b8:	200049d0 	.word	0x200049d0
    57bc:	00006291 	.word	0x00006291
    57c0:	000047fd 	.word	0x000047fd
    57c4:	20004e0c 	.word	0x20004e0c
    57c8:	00005585 	.word	0x00005585
    57cc:	00006251 	.word	0x00006251

000057d0 <SerialConsoleReadCharacter>:
    57d0:	b510      	push	{r4, lr}
    57d2:	0004      	movs	r4, r0
    57d4:	4b05      	ldr	r3, [pc, #20]	; (57ec <SerialConsoleReadCharacter+0x1c>)
    57d6:	4798      	blx	r3
    57d8:	4b05      	ldr	r3, [pc, #20]	; (57f0 <SerialConsoleReadCharacter+0x20>)
    57da:	6818      	ldr	r0, [r3, #0]
    57dc:	0021      	movs	r1, r4
    57de:	4b05      	ldr	r3, [pc, #20]	; (57f4 <SerialConsoleReadCharacter+0x24>)
    57e0:	4798      	blx	r3
    57e2:	0004      	movs	r4, r0
    57e4:	4b04      	ldr	r3, [pc, #16]	; (57f8 <SerialConsoleReadCharacter+0x28>)
    57e6:	4798      	blx	r3
    57e8:	0020      	movs	r0, r4
    57ea:	bd10      	pop	{r4, pc}
    57ec:	00004655 	.word	0x00004655
    57f0:	20004a04 	.word	0x20004a04
    57f4:	00005585 	.word	0x00005585
    57f8:	000047fd 	.word	0x000047fd

000057fc <LogMessage>:
    57fc:	b40e      	push	{r1, r2, r3}
    57fe:	b530      	push	{r4, r5, lr}
    5800:	b082      	sub	sp, #8
    5802:	4b0a      	ldr	r3, [pc, #40]	; (582c <LogMessage+0x30>)
    5804:	781b      	ldrb	r3, [r3, #0]
    5806:	4283      	cmp	r3, r0
    5808:	d904      	bls.n	5814 <LogMessage+0x18>
    580a:	b002      	add	sp, #8
    580c:	bc30      	pop	{r4, r5}
    580e:	bc08      	pop	{r3}
    5810:	b003      	add	sp, #12
    5812:	4718      	bx	r3
    5814:	ab06      	add	r3, sp, #24
    5816:	9301      	str	r3, [sp, #4]
    5818:	4c05      	ldr	r4, [pc, #20]	; (5830 <LogMessage+0x34>)
    581a:	9a05      	ldr	r2, [sp, #20]
    581c:	217f      	movs	r1, #127	; 0x7f
    581e:	0020      	movs	r0, r4
    5820:	4d04      	ldr	r5, [pc, #16]	; (5834 <LogMessage+0x38>)
    5822:	47a8      	blx	r5
    5824:	0020      	movs	r0, r4
    5826:	4b04      	ldr	r3, [pc, #16]	; (5838 <LogMessage+0x3c>)
    5828:	4798      	blx	r3
    582a:	e7ee      	b.n	580a <LogMessage+0xe>
    582c:	20003810 	.word	0x20003810
    5830:	20004950 	.word	0x20004950
    5834:	00009069 	.word	0x00009069
    5838:	0000574d 	.word	0x0000574d

0000583c <cpu_irq_enter_critical>:
    583c:	4b0c      	ldr	r3, [pc, #48]	; (5870 <cpu_irq_enter_critical+0x34>)
    583e:	681b      	ldr	r3, [r3, #0]
    5840:	2b00      	cmp	r3, #0
    5842:	d106      	bne.n	5852 <cpu_irq_enter_critical+0x16>
    5844:	f3ef 8310 	mrs	r3, PRIMASK
    5848:	2b00      	cmp	r3, #0
    584a:	d007      	beq.n	585c <cpu_irq_enter_critical+0x20>
    584c:	2200      	movs	r2, #0
    584e:	4b09      	ldr	r3, [pc, #36]	; (5874 <cpu_irq_enter_critical+0x38>)
    5850:	701a      	strb	r2, [r3, #0]
    5852:	4a07      	ldr	r2, [pc, #28]	; (5870 <cpu_irq_enter_critical+0x34>)
    5854:	6813      	ldr	r3, [r2, #0]
    5856:	3301      	adds	r3, #1
    5858:	6013      	str	r3, [r2, #0]
    585a:	4770      	bx	lr
    585c:	b672      	cpsid	i
    585e:	f3bf 8f5f 	dmb	sy
    5862:	2200      	movs	r2, #0
    5864:	4b04      	ldr	r3, [pc, #16]	; (5878 <cpu_irq_enter_critical+0x3c>)
    5866:	701a      	strb	r2, [r3, #0]
    5868:	3201      	adds	r2, #1
    586a:	4b02      	ldr	r3, [pc, #8]	; (5874 <cpu_irq_enter_critical+0x38>)
    586c:	701a      	strb	r2, [r3, #0]
    586e:	e7f0      	b.n	5852 <cpu_irq_enter_critical+0x16>
    5870:	20003814 	.word	0x20003814
    5874:	20003818 	.word	0x20003818
    5878:	2000002c 	.word	0x2000002c

0000587c <cpu_irq_leave_critical>:
    587c:	4b08      	ldr	r3, [pc, #32]	; (58a0 <cpu_irq_leave_critical+0x24>)
    587e:	681a      	ldr	r2, [r3, #0]
    5880:	3a01      	subs	r2, #1
    5882:	601a      	str	r2, [r3, #0]
    5884:	681b      	ldr	r3, [r3, #0]
    5886:	2b00      	cmp	r3, #0
    5888:	d109      	bne.n	589e <cpu_irq_leave_critical+0x22>
    588a:	4b06      	ldr	r3, [pc, #24]	; (58a4 <cpu_irq_leave_critical+0x28>)
    588c:	781b      	ldrb	r3, [r3, #0]
    588e:	2b00      	cmp	r3, #0
    5890:	d005      	beq.n	589e <cpu_irq_leave_critical+0x22>
    5892:	2201      	movs	r2, #1
    5894:	4b04      	ldr	r3, [pc, #16]	; (58a8 <cpu_irq_leave_critical+0x2c>)
    5896:	701a      	strb	r2, [r3, #0]
    5898:	f3bf 8f5f 	dmb	sy
    589c:	b662      	cpsie	i
    589e:	4770      	bx	lr
    58a0:	20003814 	.word	0x20003814
    58a4:	20003818 	.word	0x20003818
    58a8:	2000002c 	.word	0x2000002c

000058ac <system_board_init>:
    58ac:	b5f0      	push	{r4, r5, r6, r7, lr}
    58ae:	b083      	sub	sp, #12
    58b0:	ac01      	add	r4, sp, #4
    58b2:	2501      	movs	r5, #1
    58b4:	7065      	strb	r5, [r4, #1]
    58b6:	2700      	movs	r7, #0
    58b8:	70a7      	strb	r7, [r4, #2]
    58ba:	7025      	strb	r5, [r4, #0]
    58bc:	0021      	movs	r1, r4
    58be:	2017      	movs	r0, #23
    58c0:	4e06      	ldr	r6, [pc, #24]	; (58dc <system_board_init+0x30>)
    58c2:	47b0      	blx	r6
    58c4:	2280      	movs	r2, #128	; 0x80
    58c6:	0412      	lsls	r2, r2, #16
    58c8:	4b05      	ldr	r3, [pc, #20]	; (58e0 <system_board_init+0x34>)
    58ca:	619a      	str	r2, [r3, #24]
    58cc:	7027      	strb	r7, [r4, #0]
    58ce:	7065      	strb	r5, [r4, #1]
    58d0:	0021      	movs	r1, r4
    58d2:	2037      	movs	r0, #55	; 0x37
    58d4:	47b0      	blx	r6
    58d6:	b003      	add	sp, #12
    58d8:	bdf0      	pop	{r4, r5, r6, r7, pc}
    58da:	46c0      	nop			; (mov r8, r8)
    58dc:	000059bd 	.word	0x000059bd
    58e0:	41004400 	.word	0x41004400

000058e4 <EIC_Handler>:
    58e4:	b570      	push	{r4, r5, r6, lr}
    58e6:	2200      	movs	r2, #0
    58e8:	4b10      	ldr	r3, [pc, #64]	; (592c <EIC_Handler+0x48>)
    58ea:	701a      	strb	r2, [r3, #0]
    58ec:	2300      	movs	r3, #0
    58ee:	4910      	ldr	r1, [pc, #64]	; (5930 <EIC_Handler+0x4c>)
    58f0:	251f      	movs	r5, #31
    58f2:	4e10      	ldr	r6, [pc, #64]	; (5934 <EIC_Handler+0x50>)
    58f4:	4c0d      	ldr	r4, [pc, #52]	; (592c <EIC_Handler+0x48>)
    58f6:	e00a      	b.n	590e <EIC_Handler+0x2a>
    58f8:	490d      	ldr	r1, [pc, #52]	; (5930 <EIC_Handler+0x4c>)
    58fa:	e008      	b.n	590e <EIC_Handler+0x2a>
    58fc:	7823      	ldrb	r3, [r4, #0]
    58fe:	3301      	adds	r3, #1
    5900:	b2db      	uxtb	r3, r3
    5902:	7023      	strb	r3, [r4, #0]
    5904:	2b0f      	cmp	r3, #15
    5906:	d810      	bhi.n	592a <EIC_Handler+0x46>
    5908:	2100      	movs	r1, #0
    590a:	2b1f      	cmp	r3, #31
    590c:	d9f4      	bls.n	58f8 <EIC_Handler+0x14>
    590e:	0028      	movs	r0, r5
    5910:	4018      	ands	r0, r3
    5912:	2201      	movs	r2, #1
    5914:	4082      	lsls	r2, r0
    5916:	6908      	ldr	r0, [r1, #16]
    5918:	4210      	tst	r0, r2
    591a:	d0ef      	beq.n	58fc <EIC_Handler+0x18>
    591c:	610a      	str	r2, [r1, #16]
    591e:	009b      	lsls	r3, r3, #2
    5920:	599b      	ldr	r3, [r3, r6]
    5922:	2b00      	cmp	r3, #0
    5924:	d0ea      	beq.n	58fc <EIC_Handler+0x18>
    5926:	4798      	blx	r3
    5928:	e7e8      	b.n	58fc <EIC_Handler+0x18>
    592a:	bd70      	pop	{r4, r5, r6, pc}
    592c:	20004e14 	.word	0x20004e14
    5930:	40001800 	.word	0x40001800
    5934:	20004e18 	.word	0x20004e18

00005938 <_extint_enable>:
    5938:	4a04      	ldr	r2, [pc, #16]	; (594c <_extint_enable+0x14>)
    593a:	7813      	ldrb	r3, [r2, #0]
    593c:	2102      	movs	r1, #2
    593e:	430b      	orrs	r3, r1
    5940:	7013      	strb	r3, [r2, #0]
    5942:	7853      	ldrb	r3, [r2, #1]
    5944:	b25b      	sxtb	r3, r3
    5946:	2b00      	cmp	r3, #0
    5948:	dbfb      	blt.n	5942 <_extint_enable+0xa>
    594a:	4770      	bx	lr
    594c:	40001800 	.word	0x40001800

00005950 <_system_extint_init>:
    5950:	b500      	push	{lr}
    5952:	b083      	sub	sp, #12
    5954:	4a12      	ldr	r2, [pc, #72]	; (59a0 <_system_extint_init+0x50>)
    5956:	6993      	ldr	r3, [r2, #24]
    5958:	2140      	movs	r1, #64	; 0x40
    595a:	430b      	orrs	r3, r1
    595c:	6193      	str	r3, [r2, #24]
    595e:	a901      	add	r1, sp, #4
    5960:	2300      	movs	r3, #0
    5962:	700b      	strb	r3, [r1, #0]
    5964:	2005      	movs	r0, #5
    5966:	4b0f      	ldr	r3, [pc, #60]	; (59a4 <_system_extint_init+0x54>)
    5968:	4798      	blx	r3
    596a:	2005      	movs	r0, #5
    596c:	4b0e      	ldr	r3, [pc, #56]	; (59a8 <_system_extint_init+0x58>)
    596e:	4798      	blx	r3
    5970:	4a0e      	ldr	r2, [pc, #56]	; (59ac <_system_extint_init+0x5c>)
    5972:	7813      	ldrb	r3, [r2, #0]
    5974:	2101      	movs	r1, #1
    5976:	430b      	orrs	r3, r1
    5978:	7013      	strb	r3, [r2, #0]
    597a:	7853      	ldrb	r3, [r2, #1]
    597c:	b25b      	sxtb	r3, r3
    597e:	2b00      	cmp	r3, #0
    5980:	dbfb      	blt.n	597a <_system_extint_init+0x2a>
    5982:	4b0b      	ldr	r3, [pc, #44]	; (59b0 <_system_extint_init+0x60>)
    5984:	0019      	movs	r1, r3
    5986:	3140      	adds	r1, #64	; 0x40
    5988:	2200      	movs	r2, #0
    598a:	c304      	stmia	r3!, {r2}
    598c:	4299      	cmp	r1, r3
    598e:	d1fc      	bne.n	598a <_system_extint_init+0x3a>
    5990:	2210      	movs	r2, #16
    5992:	4b08      	ldr	r3, [pc, #32]	; (59b4 <_system_extint_init+0x64>)
    5994:	601a      	str	r2, [r3, #0]
    5996:	4b08      	ldr	r3, [pc, #32]	; (59b8 <_system_extint_init+0x68>)
    5998:	4798      	blx	r3
    599a:	b003      	add	sp, #12
    599c:	bd00      	pop	{pc}
    599e:	46c0      	nop			; (mov r8, r8)
    59a0:	40000400 	.word	0x40000400
    59a4:	00006a0d 	.word	0x00006a0d
    59a8:	00006981 	.word	0x00006981
    59ac:	40001800 	.word	0x40001800
    59b0:	20004e18 	.word	0x20004e18
    59b4:	e000e100 	.word	0xe000e100
    59b8:	00005939 	.word	0x00005939

000059bc <port_pin_set_config>:
    59bc:	b500      	push	{lr}
    59be:	b083      	sub	sp, #12
    59c0:	ab01      	add	r3, sp, #4
    59c2:	2280      	movs	r2, #128	; 0x80
    59c4:	701a      	strb	r2, [r3, #0]
    59c6:	780a      	ldrb	r2, [r1, #0]
    59c8:	705a      	strb	r2, [r3, #1]
    59ca:	784a      	ldrb	r2, [r1, #1]
    59cc:	709a      	strb	r2, [r3, #2]
    59ce:	788a      	ldrb	r2, [r1, #2]
    59d0:	70da      	strb	r2, [r3, #3]
    59d2:	0019      	movs	r1, r3
    59d4:	4b01      	ldr	r3, [pc, #4]	; (59dc <port_pin_set_config+0x20>)
    59d6:	4798      	blx	r3
    59d8:	b003      	add	sp, #12
    59da:	bd00      	pop	{pc}
    59dc:	00006b35 	.word	0x00006b35

000059e0 <RTC_Handler>:
    59e0:	b510      	push	{r4, lr}
    59e2:	4b0f      	ldr	r3, [pc, #60]	; (5a20 <RTC_Handler+0x40>)
    59e4:	681a      	ldr	r2, [r3, #0]
    59e6:	6814      	ldr	r4, [r2, #0]
    59e8:	8a51      	ldrh	r1, [r2, #18]
    59ea:	8a13      	ldrh	r3, [r2, #16]
    59ec:	4019      	ands	r1, r3
    59ee:	7a20      	ldrb	r0, [r4, #8]
    59f0:	79e3      	ldrb	r3, [r4, #7]
    59f2:	4003      	ands	r3, r0
    59f4:	b258      	sxtb	r0, r3
    59f6:	2800      	cmp	r0, #0
    59f8:	db06      	blt.n	5a08 <RTC_Handler+0x28>
    59fa:	07db      	lsls	r3, r3, #31
    59fc:	d503      	bpl.n	5a06 <RTC_Handler+0x26>
    59fe:	07cb      	lsls	r3, r1, #31
    5a00:	d40a      	bmi.n	5a18 <RTC_Handler+0x38>
    5a02:	2301      	movs	r3, #1
    5a04:	7223      	strb	r3, [r4, #8]
    5a06:	bd10      	pop	{r4, pc}
    5a08:	078b      	lsls	r3, r1, #30
    5a0a:	d402      	bmi.n	5a12 <RTC_Handler+0x32>
    5a0c:	2380      	movs	r3, #128	; 0x80
    5a0e:	7223      	strb	r3, [r4, #8]
    5a10:	e7f9      	b.n	5a06 <RTC_Handler+0x26>
    5a12:	68d3      	ldr	r3, [r2, #12]
    5a14:	4798      	blx	r3
    5a16:	e7f9      	b.n	5a0c <RTC_Handler+0x2c>
    5a18:	6893      	ldr	r3, [r2, #8]
    5a1a:	4798      	blx	r3
    5a1c:	e7f1      	b.n	5a02 <RTC_Handler+0x22>
    5a1e:	46c0      	nop			; (mov r8, r8)
    5a20:	20004e58 	.word	0x20004e58

00005a24 <long_division>:
    5a24:	b5f0      	push	{r4, r5, r6, r7, lr}
    5a26:	46de      	mov	lr, fp
    5a28:	4657      	mov	r7, sl
    5a2a:	464e      	mov	r6, r9
    5a2c:	4645      	mov	r5, r8
    5a2e:	b5e0      	push	{r5, r6, r7, lr}
    5a30:	b087      	sub	sp, #28
    5a32:	4680      	mov	r8, r0
    5a34:	9104      	str	r1, [sp, #16]
    5a36:	0016      	movs	r6, r2
    5a38:	001f      	movs	r7, r3
    5a3a:	2200      	movs	r2, #0
    5a3c:	2300      	movs	r3, #0
    5a3e:	2100      	movs	r1, #0
    5a40:	468b      	mov	fp, r1
    5a42:	243f      	movs	r4, #63	; 0x3f
    5a44:	2001      	movs	r0, #1
    5a46:	0021      	movs	r1, r4
    5a48:	9600      	str	r6, [sp, #0]
    5a4a:	9701      	str	r7, [sp, #4]
    5a4c:	465c      	mov	r4, fp
    5a4e:	9403      	str	r4, [sp, #12]
    5a50:	4644      	mov	r4, r8
    5a52:	9405      	str	r4, [sp, #20]
    5a54:	e013      	b.n	5a7e <long_division+0x5a>
    5a56:	2420      	movs	r4, #32
    5a58:	1a64      	subs	r4, r4, r1
    5a5a:	0005      	movs	r5, r0
    5a5c:	40e5      	lsrs	r5, r4
    5a5e:	46a8      	mov	r8, r5
    5a60:	e014      	b.n	5a8c <long_division+0x68>
    5a62:	9c00      	ldr	r4, [sp, #0]
    5a64:	9d01      	ldr	r5, [sp, #4]
    5a66:	1b12      	subs	r2, r2, r4
    5a68:	41ab      	sbcs	r3, r5
    5a6a:	465c      	mov	r4, fp
    5a6c:	464d      	mov	r5, r9
    5a6e:	432c      	orrs	r4, r5
    5a70:	46a3      	mov	fp, r4
    5a72:	9c03      	ldr	r4, [sp, #12]
    5a74:	4645      	mov	r5, r8
    5a76:	432c      	orrs	r4, r5
    5a78:	9403      	str	r4, [sp, #12]
    5a7a:	3901      	subs	r1, #1
    5a7c:	d325      	bcc.n	5aca <long_division+0xa6>
    5a7e:	2420      	movs	r4, #32
    5a80:	4264      	negs	r4, r4
    5a82:	190c      	adds	r4, r1, r4
    5a84:	d4e7      	bmi.n	5a56 <long_division+0x32>
    5a86:	0005      	movs	r5, r0
    5a88:	40a5      	lsls	r5, r4
    5a8a:	46a8      	mov	r8, r5
    5a8c:	0004      	movs	r4, r0
    5a8e:	408c      	lsls	r4, r1
    5a90:	46a1      	mov	r9, r4
    5a92:	1892      	adds	r2, r2, r2
    5a94:	415b      	adcs	r3, r3
    5a96:	0014      	movs	r4, r2
    5a98:	001d      	movs	r5, r3
    5a9a:	9e05      	ldr	r6, [sp, #20]
    5a9c:	464f      	mov	r7, r9
    5a9e:	403e      	ands	r6, r7
    5aa0:	46b4      	mov	ip, r6
    5aa2:	9e04      	ldr	r6, [sp, #16]
    5aa4:	4647      	mov	r7, r8
    5aa6:	403e      	ands	r6, r7
    5aa8:	46b2      	mov	sl, r6
    5aaa:	4666      	mov	r6, ip
    5aac:	4657      	mov	r7, sl
    5aae:	433e      	orrs	r6, r7
    5ab0:	d003      	beq.n	5aba <long_division+0x96>
    5ab2:	0006      	movs	r6, r0
    5ab4:	4326      	orrs	r6, r4
    5ab6:	0032      	movs	r2, r6
    5ab8:	002b      	movs	r3, r5
    5aba:	9c00      	ldr	r4, [sp, #0]
    5abc:	9d01      	ldr	r5, [sp, #4]
    5abe:	429d      	cmp	r5, r3
    5ac0:	d8db      	bhi.n	5a7a <long_division+0x56>
    5ac2:	d1ce      	bne.n	5a62 <long_division+0x3e>
    5ac4:	4294      	cmp	r4, r2
    5ac6:	d8d8      	bhi.n	5a7a <long_division+0x56>
    5ac8:	e7cb      	b.n	5a62 <long_division+0x3e>
    5aca:	9b03      	ldr	r3, [sp, #12]
    5acc:	4658      	mov	r0, fp
    5ace:	0019      	movs	r1, r3
    5ad0:	b007      	add	sp, #28
    5ad2:	bc3c      	pop	{r2, r3, r4, r5}
    5ad4:	4690      	mov	r8, r2
    5ad6:	4699      	mov	r9, r3
    5ad8:	46a2      	mov	sl, r4
    5ada:	46ab      	mov	fp, r5
    5adc:	bdf0      	pop	{r4, r5, r6, r7, pc}

00005ade <_sercom_get_sync_baud_val>:
    5ade:	b510      	push	{r4, lr}
    5ae0:	0849      	lsrs	r1, r1, #1
    5ae2:	2340      	movs	r3, #64	; 0x40
    5ae4:	2400      	movs	r4, #0
    5ae6:	4281      	cmp	r1, r0
    5ae8:	d202      	bcs.n	5af0 <_sercom_get_sync_baud_val+0x12>
    5aea:	0018      	movs	r0, r3
    5aec:	bd10      	pop	{r4, pc}
    5aee:	001c      	movs	r4, r3
    5af0:	1a09      	subs	r1, r1, r0
    5af2:	1c63      	adds	r3, r4, #1
    5af4:	b29b      	uxth	r3, r3
    5af6:	4288      	cmp	r0, r1
    5af8:	d9f9      	bls.n	5aee <_sercom_get_sync_baud_val+0x10>
    5afa:	2340      	movs	r3, #64	; 0x40
    5afc:	2cff      	cmp	r4, #255	; 0xff
    5afe:	d8f4      	bhi.n	5aea <_sercom_get_sync_baud_val+0xc>
    5b00:	8014      	strh	r4, [r2, #0]
    5b02:	2300      	movs	r3, #0
    5b04:	e7f1      	b.n	5aea <_sercom_get_sync_baud_val+0xc>
	...

00005b08 <_sercom_get_async_baud_val>:
    5b08:	b5f0      	push	{r4, r5, r6, r7, lr}
    5b0a:	b083      	sub	sp, #12
    5b0c:	000f      	movs	r7, r1
    5b0e:	0016      	movs	r6, r2
    5b10:	aa08      	add	r2, sp, #32
    5b12:	7811      	ldrb	r1, [r2, #0]
    5b14:	0004      	movs	r4, r0
    5b16:	434c      	muls	r4, r1
    5b18:	2240      	movs	r2, #64	; 0x40
    5b1a:	42bc      	cmp	r4, r7
    5b1c:	d902      	bls.n	5b24 <_sercom_get_async_baud_val+0x1c>
    5b1e:	0010      	movs	r0, r2
    5b20:	b003      	add	sp, #12
    5b22:	bdf0      	pop	{r4, r5, r6, r7, pc}
    5b24:	2b00      	cmp	r3, #0
    5b26:	d114      	bne.n	5b52 <_sercom_get_async_baud_val+0x4a>
    5b28:	0002      	movs	r2, r0
    5b2a:	0008      	movs	r0, r1
    5b2c:	2100      	movs	r1, #0
    5b2e:	4c19      	ldr	r4, [pc, #100]	; (5b94 <_sercom_get_async_baud_val+0x8c>)
    5b30:	47a0      	blx	r4
    5b32:	0001      	movs	r1, r0
    5b34:	003a      	movs	r2, r7
    5b36:	2300      	movs	r3, #0
    5b38:	2000      	movs	r0, #0
    5b3a:	4c17      	ldr	r4, [pc, #92]	; (5b98 <_sercom_get_async_baud_val+0x90>)
    5b3c:	47a0      	blx	r4
    5b3e:	2200      	movs	r2, #0
    5b40:	2301      	movs	r3, #1
    5b42:	1a12      	subs	r2, r2, r0
    5b44:	418b      	sbcs	r3, r1
    5b46:	0c12      	lsrs	r2, r2, #16
    5b48:	041b      	lsls	r3, r3, #16
    5b4a:	431a      	orrs	r2, r3
    5b4c:	8032      	strh	r2, [r6, #0]
    5b4e:	2200      	movs	r2, #0
    5b50:	e7e5      	b.n	5b1e <_sercom_get_async_baud_val+0x16>
    5b52:	2200      	movs	r2, #0
    5b54:	2b01      	cmp	r3, #1
    5b56:	d1f9      	bne.n	5b4c <_sercom_get_async_baud_val+0x44>
    5b58:	000a      	movs	r2, r1
    5b5a:	2300      	movs	r3, #0
    5b5c:	2100      	movs	r1, #0
    5b5e:	4c0d      	ldr	r4, [pc, #52]	; (5b94 <_sercom_get_async_baud_val+0x8c>)
    5b60:	47a0      	blx	r4
    5b62:	0002      	movs	r2, r0
    5b64:	000b      	movs	r3, r1
    5b66:	9200      	str	r2, [sp, #0]
    5b68:	9301      	str	r3, [sp, #4]
    5b6a:	0038      	movs	r0, r7
    5b6c:	2100      	movs	r1, #0
    5b6e:	4c0a      	ldr	r4, [pc, #40]	; (5b98 <_sercom_get_async_baud_val+0x90>)
    5b70:	47a0      	blx	r4
    5b72:	0005      	movs	r5, r0
    5b74:	2380      	movs	r3, #128	; 0x80
    5b76:	019b      	lsls	r3, r3, #6
    5b78:	2240      	movs	r2, #64	; 0x40
    5b7a:	4298      	cmp	r0, r3
    5b7c:	d8cf      	bhi.n	5b1e <_sercom_get_async_baud_val+0x16>
    5b7e:	0f79      	lsrs	r1, r7, #29
    5b80:	00f8      	lsls	r0, r7, #3
    5b82:	9a00      	ldr	r2, [sp, #0]
    5b84:	9b01      	ldr	r3, [sp, #4]
    5b86:	47a0      	blx	r4
    5b88:	00ea      	lsls	r2, r5, #3
    5b8a:	1a82      	subs	r2, r0, r2
    5b8c:	b2d2      	uxtb	r2, r2
    5b8e:	0352      	lsls	r2, r2, #13
    5b90:	432a      	orrs	r2, r5
    5b92:	e7db      	b.n	5b4c <_sercom_get_async_baud_val+0x44>
    5b94:	000070a5 	.word	0x000070a5
    5b98:	00005a25 	.word	0x00005a25

00005b9c <sercom_set_gclk_generator>:
    5b9c:	b510      	push	{r4, lr}
    5b9e:	b082      	sub	sp, #8
    5ba0:	0004      	movs	r4, r0
    5ba2:	4b0e      	ldr	r3, [pc, #56]	; (5bdc <sercom_set_gclk_generator+0x40>)
    5ba4:	781b      	ldrb	r3, [r3, #0]
    5ba6:	2b00      	cmp	r3, #0
    5ba8:	d007      	beq.n	5bba <sercom_set_gclk_generator+0x1e>
    5baa:	2900      	cmp	r1, #0
    5bac:	d105      	bne.n	5bba <sercom_set_gclk_generator+0x1e>
    5bae:	4b0b      	ldr	r3, [pc, #44]	; (5bdc <sercom_set_gclk_generator+0x40>)
    5bb0:	785b      	ldrb	r3, [r3, #1]
    5bb2:	4283      	cmp	r3, r0
    5bb4:	d010      	beq.n	5bd8 <sercom_set_gclk_generator+0x3c>
    5bb6:	201d      	movs	r0, #29
    5bb8:	e00c      	b.n	5bd4 <sercom_set_gclk_generator+0x38>
    5bba:	a901      	add	r1, sp, #4
    5bbc:	700c      	strb	r4, [r1, #0]
    5bbe:	2013      	movs	r0, #19
    5bc0:	4b07      	ldr	r3, [pc, #28]	; (5be0 <sercom_set_gclk_generator+0x44>)
    5bc2:	4798      	blx	r3
    5bc4:	2013      	movs	r0, #19
    5bc6:	4b07      	ldr	r3, [pc, #28]	; (5be4 <sercom_set_gclk_generator+0x48>)
    5bc8:	4798      	blx	r3
    5bca:	4b04      	ldr	r3, [pc, #16]	; (5bdc <sercom_set_gclk_generator+0x40>)
    5bcc:	705c      	strb	r4, [r3, #1]
    5bce:	2201      	movs	r2, #1
    5bd0:	701a      	strb	r2, [r3, #0]
    5bd2:	2000      	movs	r0, #0
    5bd4:	b002      	add	sp, #8
    5bd6:	bd10      	pop	{r4, pc}
    5bd8:	2000      	movs	r0, #0
    5bda:	e7fb      	b.n	5bd4 <sercom_set_gclk_generator+0x38>
    5bdc:	2000381c 	.word	0x2000381c
    5be0:	00006a0d 	.word	0x00006a0d
    5be4:	00006981 	.word	0x00006981

00005be8 <_sercom_get_default_pad>:
    5be8:	4b40      	ldr	r3, [pc, #256]	; (5cec <_sercom_get_default_pad+0x104>)
    5bea:	4298      	cmp	r0, r3
    5bec:	d031      	beq.n	5c52 <_sercom_get_default_pad+0x6a>
    5bee:	d90a      	bls.n	5c06 <_sercom_get_default_pad+0x1e>
    5bf0:	4b3f      	ldr	r3, [pc, #252]	; (5cf0 <_sercom_get_default_pad+0x108>)
    5bf2:	4298      	cmp	r0, r3
    5bf4:	d04d      	beq.n	5c92 <_sercom_get_default_pad+0xaa>
    5bf6:	4b3f      	ldr	r3, [pc, #252]	; (5cf4 <_sercom_get_default_pad+0x10c>)
    5bf8:	4298      	cmp	r0, r3
    5bfa:	d05a      	beq.n	5cb2 <_sercom_get_default_pad+0xca>
    5bfc:	4b3e      	ldr	r3, [pc, #248]	; (5cf8 <_sercom_get_default_pad+0x110>)
    5bfe:	4298      	cmp	r0, r3
    5c00:	d037      	beq.n	5c72 <_sercom_get_default_pad+0x8a>
    5c02:	2000      	movs	r0, #0
    5c04:	4770      	bx	lr
    5c06:	4b3d      	ldr	r3, [pc, #244]	; (5cfc <_sercom_get_default_pad+0x114>)
    5c08:	4298      	cmp	r0, r3
    5c0a:	d00c      	beq.n	5c26 <_sercom_get_default_pad+0x3e>
    5c0c:	4b3c      	ldr	r3, [pc, #240]	; (5d00 <_sercom_get_default_pad+0x118>)
    5c0e:	4298      	cmp	r0, r3
    5c10:	d1f7      	bne.n	5c02 <_sercom_get_default_pad+0x1a>
    5c12:	2901      	cmp	r1, #1
    5c14:	d017      	beq.n	5c46 <_sercom_get_default_pad+0x5e>
    5c16:	2900      	cmp	r1, #0
    5c18:	d05d      	beq.n	5cd6 <_sercom_get_default_pad+0xee>
    5c1a:	2902      	cmp	r1, #2
    5c1c:	d015      	beq.n	5c4a <_sercom_get_default_pad+0x62>
    5c1e:	2903      	cmp	r1, #3
    5c20:	d015      	beq.n	5c4e <_sercom_get_default_pad+0x66>
    5c22:	2000      	movs	r0, #0
    5c24:	e7ee      	b.n	5c04 <_sercom_get_default_pad+0x1c>
    5c26:	2901      	cmp	r1, #1
    5c28:	d007      	beq.n	5c3a <_sercom_get_default_pad+0x52>
    5c2a:	2900      	cmp	r1, #0
    5c2c:	d051      	beq.n	5cd2 <_sercom_get_default_pad+0xea>
    5c2e:	2902      	cmp	r1, #2
    5c30:	d005      	beq.n	5c3e <_sercom_get_default_pad+0x56>
    5c32:	2903      	cmp	r1, #3
    5c34:	d005      	beq.n	5c42 <_sercom_get_default_pad+0x5a>
    5c36:	2000      	movs	r0, #0
    5c38:	e7e4      	b.n	5c04 <_sercom_get_default_pad+0x1c>
    5c3a:	4832      	ldr	r0, [pc, #200]	; (5d04 <_sercom_get_default_pad+0x11c>)
    5c3c:	e7e2      	b.n	5c04 <_sercom_get_default_pad+0x1c>
    5c3e:	4832      	ldr	r0, [pc, #200]	; (5d08 <_sercom_get_default_pad+0x120>)
    5c40:	e7e0      	b.n	5c04 <_sercom_get_default_pad+0x1c>
    5c42:	4832      	ldr	r0, [pc, #200]	; (5d0c <_sercom_get_default_pad+0x124>)
    5c44:	e7de      	b.n	5c04 <_sercom_get_default_pad+0x1c>
    5c46:	4832      	ldr	r0, [pc, #200]	; (5d10 <_sercom_get_default_pad+0x128>)
    5c48:	e7dc      	b.n	5c04 <_sercom_get_default_pad+0x1c>
    5c4a:	4832      	ldr	r0, [pc, #200]	; (5d14 <_sercom_get_default_pad+0x12c>)
    5c4c:	e7da      	b.n	5c04 <_sercom_get_default_pad+0x1c>
    5c4e:	4832      	ldr	r0, [pc, #200]	; (5d18 <_sercom_get_default_pad+0x130>)
    5c50:	e7d8      	b.n	5c04 <_sercom_get_default_pad+0x1c>
    5c52:	2901      	cmp	r1, #1
    5c54:	d007      	beq.n	5c66 <_sercom_get_default_pad+0x7e>
    5c56:	2900      	cmp	r1, #0
    5c58:	d03f      	beq.n	5cda <_sercom_get_default_pad+0xf2>
    5c5a:	2902      	cmp	r1, #2
    5c5c:	d005      	beq.n	5c6a <_sercom_get_default_pad+0x82>
    5c5e:	2903      	cmp	r1, #3
    5c60:	d005      	beq.n	5c6e <_sercom_get_default_pad+0x86>
    5c62:	2000      	movs	r0, #0
    5c64:	e7ce      	b.n	5c04 <_sercom_get_default_pad+0x1c>
    5c66:	482d      	ldr	r0, [pc, #180]	; (5d1c <_sercom_get_default_pad+0x134>)
    5c68:	e7cc      	b.n	5c04 <_sercom_get_default_pad+0x1c>
    5c6a:	482d      	ldr	r0, [pc, #180]	; (5d20 <_sercom_get_default_pad+0x138>)
    5c6c:	e7ca      	b.n	5c04 <_sercom_get_default_pad+0x1c>
    5c6e:	482d      	ldr	r0, [pc, #180]	; (5d24 <_sercom_get_default_pad+0x13c>)
    5c70:	e7c8      	b.n	5c04 <_sercom_get_default_pad+0x1c>
    5c72:	2901      	cmp	r1, #1
    5c74:	d007      	beq.n	5c86 <_sercom_get_default_pad+0x9e>
    5c76:	2900      	cmp	r1, #0
    5c78:	d031      	beq.n	5cde <_sercom_get_default_pad+0xf6>
    5c7a:	2902      	cmp	r1, #2
    5c7c:	d005      	beq.n	5c8a <_sercom_get_default_pad+0xa2>
    5c7e:	2903      	cmp	r1, #3
    5c80:	d005      	beq.n	5c8e <_sercom_get_default_pad+0xa6>
    5c82:	2000      	movs	r0, #0
    5c84:	e7be      	b.n	5c04 <_sercom_get_default_pad+0x1c>
    5c86:	4828      	ldr	r0, [pc, #160]	; (5d28 <_sercom_get_default_pad+0x140>)
    5c88:	e7bc      	b.n	5c04 <_sercom_get_default_pad+0x1c>
    5c8a:	4828      	ldr	r0, [pc, #160]	; (5d2c <_sercom_get_default_pad+0x144>)
    5c8c:	e7ba      	b.n	5c04 <_sercom_get_default_pad+0x1c>
    5c8e:	4828      	ldr	r0, [pc, #160]	; (5d30 <_sercom_get_default_pad+0x148>)
    5c90:	e7b8      	b.n	5c04 <_sercom_get_default_pad+0x1c>
    5c92:	2901      	cmp	r1, #1
    5c94:	d007      	beq.n	5ca6 <_sercom_get_default_pad+0xbe>
    5c96:	2900      	cmp	r1, #0
    5c98:	d023      	beq.n	5ce2 <_sercom_get_default_pad+0xfa>
    5c9a:	2902      	cmp	r1, #2
    5c9c:	d005      	beq.n	5caa <_sercom_get_default_pad+0xc2>
    5c9e:	2903      	cmp	r1, #3
    5ca0:	d005      	beq.n	5cae <_sercom_get_default_pad+0xc6>
    5ca2:	2000      	movs	r0, #0
    5ca4:	e7ae      	b.n	5c04 <_sercom_get_default_pad+0x1c>
    5ca6:	4823      	ldr	r0, [pc, #140]	; (5d34 <_sercom_get_default_pad+0x14c>)
    5ca8:	e7ac      	b.n	5c04 <_sercom_get_default_pad+0x1c>
    5caa:	4823      	ldr	r0, [pc, #140]	; (5d38 <_sercom_get_default_pad+0x150>)
    5cac:	e7aa      	b.n	5c04 <_sercom_get_default_pad+0x1c>
    5cae:	4823      	ldr	r0, [pc, #140]	; (5d3c <_sercom_get_default_pad+0x154>)
    5cb0:	e7a8      	b.n	5c04 <_sercom_get_default_pad+0x1c>
    5cb2:	2901      	cmp	r1, #1
    5cb4:	d007      	beq.n	5cc6 <_sercom_get_default_pad+0xde>
    5cb6:	2900      	cmp	r1, #0
    5cb8:	d015      	beq.n	5ce6 <_sercom_get_default_pad+0xfe>
    5cba:	2902      	cmp	r1, #2
    5cbc:	d005      	beq.n	5cca <_sercom_get_default_pad+0xe2>
    5cbe:	2903      	cmp	r1, #3
    5cc0:	d005      	beq.n	5cce <_sercom_get_default_pad+0xe6>
    5cc2:	2000      	movs	r0, #0
    5cc4:	e79e      	b.n	5c04 <_sercom_get_default_pad+0x1c>
    5cc6:	481e      	ldr	r0, [pc, #120]	; (5d40 <_sercom_get_default_pad+0x158>)
    5cc8:	e79c      	b.n	5c04 <_sercom_get_default_pad+0x1c>
    5cca:	481e      	ldr	r0, [pc, #120]	; (5d44 <_sercom_get_default_pad+0x15c>)
    5ccc:	e79a      	b.n	5c04 <_sercom_get_default_pad+0x1c>
    5cce:	481e      	ldr	r0, [pc, #120]	; (5d48 <_sercom_get_default_pad+0x160>)
    5cd0:	e798      	b.n	5c04 <_sercom_get_default_pad+0x1c>
    5cd2:	481e      	ldr	r0, [pc, #120]	; (5d4c <_sercom_get_default_pad+0x164>)
    5cd4:	e796      	b.n	5c04 <_sercom_get_default_pad+0x1c>
    5cd6:	2003      	movs	r0, #3
    5cd8:	e794      	b.n	5c04 <_sercom_get_default_pad+0x1c>
    5cda:	481d      	ldr	r0, [pc, #116]	; (5d50 <_sercom_get_default_pad+0x168>)
    5cdc:	e792      	b.n	5c04 <_sercom_get_default_pad+0x1c>
    5cde:	481d      	ldr	r0, [pc, #116]	; (5d54 <_sercom_get_default_pad+0x16c>)
    5ce0:	e790      	b.n	5c04 <_sercom_get_default_pad+0x1c>
    5ce2:	481d      	ldr	r0, [pc, #116]	; (5d58 <_sercom_get_default_pad+0x170>)
    5ce4:	e78e      	b.n	5c04 <_sercom_get_default_pad+0x1c>
    5ce6:	481d      	ldr	r0, [pc, #116]	; (5d5c <_sercom_get_default_pad+0x174>)
    5ce8:	e78c      	b.n	5c04 <_sercom_get_default_pad+0x1c>
    5cea:	46c0      	nop			; (mov r8, r8)
    5cec:	42001000 	.word	0x42001000
    5cf0:	42001800 	.word	0x42001800
    5cf4:	42001c00 	.word	0x42001c00
    5cf8:	42001400 	.word	0x42001400
    5cfc:	42000800 	.word	0x42000800
    5d00:	42000c00 	.word	0x42000c00
    5d04:	00050003 	.word	0x00050003
    5d08:	00060003 	.word	0x00060003
    5d0c:	00070003 	.word	0x00070003
    5d10:	00010003 	.word	0x00010003
    5d14:	001e0003 	.word	0x001e0003
    5d18:	001f0003 	.word	0x001f0003
    5d1c:	00090003 	.word	0x00090003
    5d20:	000a0003 	.word	0x000a0003
    5d24:	000b0003 	.word	0x000b0003
    5d28:	00110003 	.word	0x00110003
    5d2c:	00120003 	.word	0x00120003
    5d30:	00130003 	.word	0x00130003
    5d34:	000d0003 	.word	0x000d0003
    5d38:	000e0003 	.word	0x000e0003
    5d3c:	000f0003 	.word	0x000f0003
    5d40:	00170003 	.word	0x00170003
    5d44:	00180003 	.word	0x00180003
    5d48:	00190003 	.word	0x00190003
    5d4c:	00040003 	.word	0x00040003
    5d50:	00080003 	.word	0x00080003
    5d54:	00100003 	.word	0x00100003
    5d58:	000c0003 	.word	0x000c0003
    5d5c:	00160003 	.word	0x00160003

00005d60 <_sercom_get_sercom_inst_index>:
    5d60:	b530      	push	{r4, r5, lr}
    5d62:	b087      	sub	sp, #28
    5d64:	4b0b      	ldr	r3, [pc, #44]	; (5d94 <_sercom_get_sercom_inst_index+0x34>)
    5d66:	466a      	mov	r2, sp
    5d68:	cb32      	ldmia	r3!, {r1, r4, r5}
    5d6a:	c232      	stmia	r2!, {r1, r4, r5}
    5d6c:	cb32      	ldmia	r3!, {r1, r4, r5}
    5d6e:	c232      	stmia	r2!, {r1, r4, r5}
    5d70:	9b00      	ldr	r3, [sp, #0]
    5d72:	4283      	cmp	r3, r0
    5d74:	d00b      	beq.n	5d8e <_sercom_get_sercom_inst_index+0x2e>
    5d76:	2301      	movs	r3, #1
    5d78:	009a      	lsls	r2, r3, #2
    5d7a:	4669      	mov	r1, sp
    5d7c:	5852      	ldr	r2, [r2, r1]
    5d7e:	4282      	cmp	r2, r0
    5d80:	d006      	beq.n	5d90 <_sercom_get_sercom_inst_index+0x30>
    5d82:	3301      	adds	r3, #1
    5d84:	2b06      	cmp	r3, #6
    5d86:	d1f7      	bne.n	5d78 <_sercom_get_sercom_inst_index+0x18>
    5d88:	2000      	movs	r0, #0
    5d8a:	b007      	add	sp, #28
    5d8c:	bd30      	pop	{r4, r5, pc}
    5d8e:	2300      	movs	r3, #0
    5d90:	b2d8      	uxtb	r0, r3
    5d92:	e7fa      	b.n	5d8a <_sercom_get_sercom_inst_index+0x2a>
    5d94:	0000a7f0 	.word	0x0000a7f0

00005d98 <_sercom_default_handler>:
    5d98:	4770      	bx	lr
	...

00005d9c <_sercom_set_handler>:
    5d9c:	b5f0      	push	{r4, r5, r6, r7, lr}
    5d9e:	4b0a      	ldr	r3, [pc, #40]	; (5dc8 <_sercom_set_handler+0x2c>)
    5da0:	781b      	ldrb	r3, [r3, #0]
    5da2:	2b00      	cmp	r3, #0
    5da4:	d10c      	bne.n	5dc0 <_sercom_set_handler+0x24>
    5da6:	4f09      	ldr	r7, [pc, #36]	; (5dcc <_sercom_set_handler+0x30>)
    5da8:	4e09      	ldr	r6, [pc, #36]	; (5dd0 <_sercom_set_handler+0x34>)
    5daa:	4d0a      	ldr	r5, [pc, #40]	; (5dd4 <_sercom_set_handler+0x38>)
    5dac:	2400      	movs	r4, #0
    5dae:	51de      	str	r6, [r3, r7]
    5db0:	195a      	adds	r2, r3, r5
    5db2:	6014      	str	r4, [r2, #0]
    5db4:	3304      	adds	r3, #4
    5db6:	2b18      	cmp	r3, #24
    5db8:	d1f9      	bne.n	5dae <_sercom_set_handler+0x12>
    5dba:	2201      	movs	r2, #1
    5dbc:	4b02      	ldr	r3, [pc, #8]	; (5dc8 <_sercom_set_handler+0x2c>)
    5dbe:	701a      	strb	r2, [r3, #0]
    5dc0:	0080      	lsls	r0, r0, #2
    5dc2:	4b02      	ldr	r3, [pc, #8]	; (5dcc <_sercom_set_handler+0x30>)
    5dc4:	50c1      	str	r1, [r0, r3]
    5dc6:	bdf0      	pop	{r4, r5, r6, r7, pc}
    5dc8:	2000381e 	.word	0x2000381e
    5dcc:	20003820 	.word	0x20003820
    5dd0:	00005d99 	.word	0x00005d99
    5dd4:	20004e5c 	.word	0x20004e5c

00005dd8 <_sercom_get_interrupt_vector>:
    5dd8:	b500      	push	{lr}
    5dda:	b083      	sub	sp, #12
    5ddc:	2309      	movs	r3, #9
    5dde:	466a      	mov	r2, sp
    5de0:	7013      	strb	r3, [r2, #0]
    5de2:	3301      	adds	r3, #1
    5de4:	7053      	strb	r3, [r2, #1]
    5de6:	3301      	adds	r3, #1
    5de8:	7093      	strb	r3, [r2, #2]
    5dea:	3301      	adds	r3, #1
    5dec:	70d3      	strb	r3, [r2, #3]
    5dee:	3301      	adds	r3, #1
    5df0:	7113      	strb	r3, [r2, #4]
    5df2:	3301      	adds	r3, #1
    5df4:	7153      	strb	r3, [r2, #5]
    5df6:	4b03      	ldr	r3, [pc, #12]	; (5e04 <_sercom_get_interrupt_vector+0x2c>)
    5df8:	4798      	blx	r3
    5dfa:	466b      	mov	r3, sp
    5dfc:	5618      	ldrsb	r0, [r3, r0]
    5dfe:	b003      	add	sp, #12
    5e00:	bd00      	pop	{pc}
    5e02:	46c0      	nop			; (mov r8, r8)
    5e04:	00005d61 	.word	0x00005d61

00005e08 <SERCOM0_Handler>:
    5e08:	b510      	push	{r4, lr}
    5e0a:	4b02      	ldr	r3, [pc, #8]	; (5e14 <SERCOM0_Handler+0xc>)
    5e0c:	681b      	ldr	r3, [r3, #0]
    5e0e:	2000      	movs	r0, #0
    5e10:	4798      	blx	r3
    5e12:	bd10      	pop	{r4, pc}
    5e14:	20003820 	.word	0x20003820

00005e18 <SERCOM1_Handler>:
    5e18:	b510      	push	{r4, lr}
    5e1a:	4b02      	ldr	r3, [pc, #8]	; (5e24 <SERCOM1_Handler+0xc>)
    5e1c:	685b      	ldr	r3, [r3, #4]
    5e1e:	2001      	movs	r0, #1
    5e20:	4798      	blx	r3
    5e22:	bd10      	pop	{r4, pc}
    5e24:	20003820 	.word	0x20003820

00005e28 <SERCOM2_Handler>:
    5e28:	b510      	push	{r4, lr}
    5e2a:	4b02      	ldr	r3, [pc, #8]	; (5e34 <SERCOM2_Handler+0xc>)
    5e2c:	689b      	ldr	r3, [r3, #8]
    5e2e:	2002      	movs	r0, #2
    5e30:	4798      	blx	r3
    5e32:	bd10      	pop	{r4, pc}
    5e34:	20003820 	.word	0x20003820

00005e38 <SERCOM3_Handler>:
    5e38:	b510      	push	{r4, lr}
    5e3a:	4b02      	ldr	r3, [pc, #8]	; (5e44 <SERCOM3_Handler+0xc>)
    5e3c:	68db      	ldr	r3, [r3, #12]
    5e3e:	2003      	movs	r0, #3
    5e40:	4798      	blx	r3
    5e42:	bd10      	pop	{r4, pc}
    5e44:	20003820 	.word	0x20003820

00005e48 <SERCOM4_Handler>:
    5e48:	b510      	push	{r4, lr}
    5e4a:	4b02      	ldr	r3, [pc, #8]	; (5e54 <SERCOM4_Handler+0xc>)
    5e4c:	691b      	ldr	r3, [r3, #16]
    5e4e:	2004      	movs	r0, #4
    5e50:	4798      	blx	r3
    5e52:	bd10      	pop	{r4, pc}
    5e54:	20003820 	.word	0x20003820

00005e58 <SERCOM5_Handler>:
    5e58:	b510      	push	{r4, lr}
    5e5a:	4b02      	ldr	r3, [pc, #8]	; (5e64 <SERCOM5_Handler+0xc>)
    5e5c:	695b      	ldr	r3, [r3, #20]
    5e5e:	2005      	movs	r0, #5
    5e60:	4798      	blx	r3
    5e62:	bd10      	pop	{r4, pc}
    5e64:	20003820 	.word	0x20003820

00005e68 <usart_init>:
    5e68:	b5f0      	push	{r4, r5, r6, r7, lr}
    5e6a:	46de      	mov	lr, fp
    5e6c:	4657      	mov	r7, sl
    5e6e:	464e      	mov	r6, r9
    5e70:	4645      	mov	r5, r8
    5e72:	b5e0      	push	{r5, r6, r7, lr}
    5e74:	b091      	sub	sp, #68	; 0x44
    5e76:	0005      	movs	r5, r0
    5e78:	000c      	movs	r4, r1
    5e7a:	0016      	movs	r6, r2
    5e7c:	6029      	str	r1, [r5, #0]
    5e7e:	0008      	movs	r0, r1
    5e80:	4bbc      	ldr	r3, [pc, #752]	; (6174 <usart_init+0x30c>)
    5e82:	4798      	blx	r3
    5e84:	0002      	movs	r2, r0
    5e86:	6823      	ldr	r3, [r4, #0]
    5e88:	2005      	movs	r0, #5
    5e8a:	07db      	lsls	r3, r3, #31
    5e8c:	d506      	bpl.n	5e9c <usart_init+0x34>
    5e8e:	b011      	add	sp, #68	; 0x44
    5e90:	bc3c      	pop	{r2, r3, r4, r5}
    5e92:	4690      	mov	r8, r2
    5e94:	4699      	mov	r9, r3
    5e96:	46a2      	mov	sl, r4
    5e98:	46ab      	mov	fp, r5
    5e9a:	bdf0      	pop	{r4, r5, r6, r7, pc}
    5e9c:	6823      	ldr	r3, [r4, #0]
    5e9e:	3017      	adds	r0, #23
    5ea0:	079b      	lsls	r3, r3, #30
    5ea2:	d4f4      	bmi.n	5e8e <usart_init+0x26>
    5ea4:	49b4      	ldr	r1, [pc, #720]	; (6178 <usart_init+0x310>)
    5ea6:	6a08      	ldr	r0, [r1, #32]
    5ea8:	1c97      	adds	r7, r2, #2
    5eaa:	2301      	movs	r3, #1
    5eac:	40bb      	lsls	r3, r7
    5eae:	4303      	orrs	r3, r0
    5eb0:	620b      	str	r3, [r1, #32]
    5eb2:	a90f      	add	r1, sp, #60	; 0x3c
    5eb4:	272d      	movs	r7, #45	; 0x2d
    5eb6:	5df3      	ldrb	r3, [r6, r7]
    5eb8:	700b      	strb	r3, [r1, #0]
    5eba:	3214      	adds	r2, #20
    5ebc:	b2d3      	uxtb	r3, r2
    5ebe:	9302      	str	r3, [sp, #8]
    5ec0:	0018      	movs	r0, r3
    5ec2:	4bae      	ldr	r3, [pc, #696]	; (617c <usart_init+0x314>)
    5ec4:	4798      	blx	r3
    5ec6:	9802      	ldr	r0, [sp, #8]
    5ec8:	4bad      	ldr	r3, [pc, #692]	; (6180 <usart_init+0x318>)
    5eca:	4798      	blx	r3
    5ecc:	5df0      	ldrb	r0, [r6, r7]
    5ece:	2100      	movs	r1, #0
    5ed0:	4bac      	ldr	r3, [pc, #688]	; (6184 <usart_init+0x31c>)
    5ed2:	4798      	blx	r3
    5ed4:	7af3      	ldrb	r3, [r6, #11]
    5ed6:	716b      	strb	r3, [r5, #5]
    5ed8:	2324      	movs	r3, #36	; 0x24
    5eda:	5cf3      	ldrb	r3, [r6, r3]
    5edc:	71ab      	strb	r3, [r5, #6]
    5ede:	2325      	movs	r3, #37	; 0x25
    5ee0:	5cf3      	ldrb	r3, [r6, r3]
    5ee2:	71eb      	strb	r3, [r5, #7]
    5ee4:	7ef3      	ldrb	r3, [r6, #27]
    5ee6:	722b      	strb	r3, [r5, #8]
    5ee8:	7f33      	ldrb	r3, [r6, #28]
    5eea:	726b      	strb	r3, [r5, #9]
    5eec:	682b      	ldr	r3, [r5, #0]
    5eee:	4698      	mov	r8, r3
    5ef0:	0018      	movs	r0, r3
    5ef2:	4ba0      	ldr	r3, [pc, #640]	; (6174 <usart_init+0x30c>)
    5ef4:	4798      	blx	r3
    5ef6:	3014      	adds	r0, #20
    5ef8:	2200      	movs	r2, #0
    5efa:	230e      	movs	r3, #14
    5efc:	a906      	add	r1, sp, #24
    5efe:	468c      	mov	ip, r1
    5f00:	4463      	add	r3, ip
    5f02:	801a      	strh	r2, [r3, #0]
    5f04:	8a32      	ldrh	r2, [r6, #16]
    5f06:	9202      	str	r2, [sp, #8]
    5f08:	2380      	movs	r3, #128	; 0x80
    5f0a:	01db      	lsls	r3, r3, #7
    5f0c:	429a      	cmp	r2, r3
    5f0e:	d100      	bne.n	5f12 <usart_init+0xaa>
    5f10:	e09e      	b.n	6050 <usart_init+0x1e8>
    5f12:	d90f      	bls.n	5f34 <usart_init+0xcc>
    5f14:	23c0      	movs	r3, #192	; 0xc0
    5f16:	01db      	lsls	r3, r3, #7
    5f18:	9a02      	ldr	r2, [sp, #8]
    5f1a:	429a      	cmp	r2, r3
    5f1c:	d100      	bne.n	5f20 <usart_init+0xb8>
    5f1e:	e092      	b.n	6046 <usart_init+0x1de>
    5f20:	2380      	movs	r3, #128	; 0x80
    5f22:	021b      	lsls	r3, r3, #8
    5f24:	429a      	cmp	r2, r3
    5f26:	d000      	beq.n	5f2a <usart_init+0xc2>
    5f28:	e11f      	b.n	616a <usart_init+0x302>
    5f2a:	2303      	movs	r3, #3
    5f2c:	9306      	str	r3, [sp, #24]
    5f2e:	2300      	movs	r3, #0
    5f30:	9307      	str	r3, [sp, #28]
    5f32:	e008      	b.n	5f46 <usart_init+0xde>
    5f34:	2380      	movs	r3, #128	; 0x80
    5f36:	019b      	lsls	r3, r3, #6
    5f38:	429a      	cmp	r2, r3
    5f3a:	d000      	beq.n	5f3e <usart_init+0xd6>
    5f3c:	e115      	b.n	616a <usart_init+0x302>
    5f3e:	2310      	movs	r3, #16
    5f40:	9306      	str	r3, [sp, #24]
    5f42:	3b0f      	subs	r3, #15
    5f44:	9307      	str	r3, [sp, #28]
    5f46:	6833      	ldr	r3, [r6, #0]
    5f48:	9305      	str	r3, [sp, #20]
    5f4a:	68f3      	ldr	r3, [r6, #12]
    5f4c:	9303      	str	r3, [sp, #12]
    5f4e:	6973      	ldr	r3, [r6, #20]
    5f50:	9304      	str	r3, [sp, #16]
    5f52:	7e33      	ldrb	r3, [r6, #24]
    5f54:	469b      	mov	fp, r3
    5f56:	2326      	movs	r3, #38	; 0x26
    5f58:	5cf3      	ldrb	r3, [r6, r3]
    5f5a:	469a      	mov	sl, r3
    5f5c:	6873      	ldr	r3, [r6, #4]
    5f5e:	4699      	mov	r9, r3
    5f60:	2b00      	cmp	r3, #0
    5f62:	d100      	bne.n	5f66 <usart_init+0xfe>
    5f64:	e0a0      	b.n	60a8 <usart_init+0x240>
    5f66:	2380      	movs	r3, #128	; 0x80
    5f68:	055b      	lsls	r3, r3, #21
    5f6a:	4599      	cmp	r9, r3
    5f6c:	d100      	bne.n	5f70 <usart_init+0x108>
    5f6e:	e084      	b.n	607a <usart_init+0x212>
    5f70:	7e73      	ldrb	r3, [r6, #25]
    5f72:	2b00      	cmp	r3, #0
    5f74:	d002      	beq.n	5f7c <usart_init+0x114>
    5f76:	7eb3      	ldrb	r3, [r6, #26]
    5f78:	4642      	mov	r2, r8
    5f7a:	7393      	strb	r3, [r2, #14]
    5f7c:	682a      	ldr	r2, [r5, #0]
    5f7e:	9f02      	ldr	r7, [sp, #8]
    5f80:	69d3      	ldr	r3, [r2, #28]
    5f82:	2b00      	cmp	r3, #0
    5f84:	d1fc      	bne.n	5f80 <usart_init+0x118>
    5f86:	330e      	adds	r3, #14
    5f88:	aa06      	add	r2, sp, #24
    5f8a:	4694      	mov	ip, r2
    5f8c:	4463      	add	r3, ip
    5f8e:	881b      	ldrh	r3, [r3, #0]
    5f90:	4642      	mov	r2, r8
    5f92:	8193      	strh	r3, [r2, #12]
    5f94:	9b05      	ldr	r3, [sp, #20]
    5f96:	9a03      	ldr	r2, [sp, #12]
    5f98:	4313      	orrs	r3, r2
    5f9a:	9a04      	ldr	r2, [sp, #16]
    5f9c:	4313      	orrs	r3, r2
    5f9e:	464a      	mov	r2, r9
    5fa0:	4313      	orrs	r3, r2
    5fa2:	431f      	orrs	r7, r3
    5fa4:	465b      	mov	r3, fp
    5fa6:	021b      	lsls	r3, r3, #8
    5fa8:	431f      	orrs	r7, r3
    5faa:	4653      	mov	r3, sl
    5fac:	075b      	lsls	r3, r3, #29
    5fae:	431f      	orrs	r7, r3
    5fb0:	2327      	movs	r3, #39	; 0x27
    5fb2:	5cf3      	ldrb	r3, [r6, r3]
    5fb4:	2b00      	cmp	r3, #0
    5fb6:	d101      	bne.n	5fbc <usart_init+0x154>
    5fb8:	3304      	adds	r3, #4
    5fba:	431f      	orrs	r7, r3
    5fbc:	7e73      	ldrb	r3, [r6, #25]
    5fbe:	029b      	lsls	r3, r3, #10
    5fc0:	7f32      	ldrb	r2, [r6, #28]
    5fc2:	0252      	lsls	r2, r2, #9
    5fc4:	4313      	orrs	r3, r2
    5fc6:	7f72      	ldrb	r2, [r6, #29]
    5fc8:	0212      	lsls	r2, r2, #8
    5fca:	4313      	orrs	r3, r2
    5fcc:	2224      	movs	r2, #36	; 0x24
    5fce:	5cb2      	ldrb	r2, [r6, r2]
    5fd0:	0452      	lsls	r2, r2, #17
    5fd2:	4313      	orrs	r3, r2
    5fd4:	2225      	movs	r2, #37	; 0x25
    5fd6:	5cb2      	ldrb	r2, [r6, r2]
    5fd8:	0412      	lsls	r2, r2, #16
    5fda:	4313      	orrs	r3, r2
    5fdc:	7ab1      	ldrb	r1, [r6, #10]
    5fde:	7af2      	ldrb	r2, [r6, #11]
    5fe0:	4311      	orrs	r1, r2
    5fe2:	4319      	orrs	r1, r3
    5fe4:	8933      	ldrh	r3, [r6, #8]
    5fe6:	2bff      	cmp	r3, #255	; 0xff
    5fe8:	d100      	bne.n	5fec <usart_init+0x184>
    5fea:	e081      	b.n	60f0 <usart_init+0x288>
    5fec:	2280      	movs	r2, #128	; 0x80
    5fee:	0452      	lsls	r2, r2, #17
    5ff0:	4317      	orrs	r7, r2
    5ff2:	4319      	orrs	r1, r3
    5ff4:	232c      	movs	r3, #44	; 0x2c
    5ff6:	5cf3      	ldrb	r3, [r6, r3]
    5ff8:	2b00      	cmp	r3, #0
    5ffa:	d103      	bne.n	6004 <usart_init+0x19c>
    5ffc:	4b62      	ldr	r3, [pc, #392]	; (6188 <usart_init+0x320>)
    5ffe:	789b      	ldrb	r3, [r3, #2]
    6000:	079b      	lsls	r3, r3, #30
    6002:	d501      	bpl.n	6008 <usart_init+0x1a0>
    6004:	2380      	movs	r3, #128	; 0x80
    6006:	431f      	orrs	r7, r3
    6008:	682a      	ldr	r2, [r5, #0]
    600a:	69d3      	ldr	r3, [r2, #28]
    600c:	2b00      	cmp	r3, #0
    600e:	d1fc      	bne.n	600a <usart_init+0x1a2>
    6010:	4643      	mov	r3, r8
    6012:	6059      	str	r1, [r3, #4]
    6014:	682a      	ldr	r2, [r5, #0]
    6016:	69d3      	ldr	r3, [r2, #28]
    6018:	2b00      	cmp	r3, #0
    601a:	d1fc      	bne.n	6016 <usart_init+0x1ae>
    601c:	4643      	mov	r3, r8
    601e:	601f      	str	r7, [r3, #0]
    6020:	ab0e      	add	r3, sp, #56	; 0x38
    6022:	2280      	movs	r2, #128	; 0x80
    6024:	701a      	strb	r2, [r3, #0]
    6026:	2200      	movs	r2, #0
    6028:	705a      	strb	r2, [r3, #1]
    602a:	70da      	strb	r2, [r3, #3]
    602c:	709a      	strb	r2, [r3, #2]
    602e:	6b33      	ldr	r3, [r6, #48]	; 0x30
    6030:	930a      	str	r3, [sp, #40]	; 0x28
    6032:	6b73      	ldr	r3, [r6, #52]	; 0x34
    6034:	930b      	str	r3, [sp, #44]	; 0x2c
    6036:	6bb3      	ldr	r3, [r6, #56]	; 0x38
    6038:	930c      	str	r3, [sp, #48]	; 0x30
    603a:	6bf3      	ldr	r3, [r6, #60]	; 0x3c
    603c:	9302      	str	r3, [sp, #8]
    603e:	930d      	str	r3, [sp, #52]	; 0x34
    6040:	2700      	movs	r7, #0
    6042:	ae0a      	add	r6, sp, #40	; 0x28
    6044:	e063      	b.n	610e <usart_init+0x2a6>
    6046:	2308      	movs	r3, #8
    6048:	9306      	str	r3, [sp, #24]
    604a:	3b07      	subs	r3, #7
    604c:	9307      	str	r3, [sp, #28]
    604e:	e77a      	b.n	5f46 <usart_init+0xde>
    6050:	6833      	ldr	r3, [r6, #0]
    6052:	9305      	str	r3, [sp, #20]
    6054:	68f3      	ldr	r3, [r6, #12]
    6056:	9303      	str	r3, [sp, #12]
    6058:	6973      	ldr	r3, [r6, #20]
    605a:	9304      	str	r3, [sp, #16]
    605c:	7e33      	ldrb	r3, [r6, #24]
    605e:	469b      	mov	fp, r3
    6060:	2326      	movs	r3, #38	; 0x26
    6062:	5cf3      	ldrb	r3, [r6, r3]
    6064:	469a      	mov	sl, r3
    6066:	6873      	ldr	r3, [r6, #4]
    6068:	4699      	mov	r9, r3
    606a:	2b00      	cmp	r3, #0
    606c:	d018      	beq.n	60a0 <usart_init+0x238>
    606e:	2380      	movs	r3, #128	; 0x80
    6070:	055b      	lsls	r3, r3, #21
    6072:	4599      	cmp	r9, r3
    6074:	d001      	beq.n	607a <usart_init+0x212>
    6076:	2000      	movs	r0, #0
    6078:	e025      	b.n	60c6 <usart_init+0x25e>
    607a:	2327      	movs	r3, #39	; 0x27
    607c:	5cf3      	ldrb	r3, [r6, r3]
    607e:	2b00      	cmp	r3, #0
    6080:	d000      	beq.n	6084 <usart_init+0x21c>
    6082:	e775      	b.n	5f70 <usart_init+0x108>
    6084:	6a33      	ldr	r3, [r6, #32]
    6086:	001f      	movs	r7, r3
    6088:	b2c0      	uxtb	r0, r0
    608a:	4b40      	ldr	r3, [pc, #256]	; (618c <usart_init+0x324>)
    608c:	4798      	blx	r3
    608e:	0001      	movs	r1, r0
    6090:	220e      	movs	r2, #14
    6092:	ab06      	add	r3, sp, #24
    6094:	469c      	mov	ip, r3
    6096:	4462      	add	r2, ip
    6098:	0038      	movs	r0, r7
    609a:	4b3d      	ldr	r3, [pc, #244]	; (6190 <usart_init+0x328>)
    609c:	4798      	blx	r3
    609e:	e012      	b.n	60c6 <usart_init+0x25e>
    60a0:	2308      	movs	r3, #8
    60a2:	9306      	str	r3, [sp, #24]
    60a4:	2300      	movs	r3, #0
    60a6:	9307      	str	r3, [sp, #28]
    60a8:	2327      	movs	r3, #39	; 0x27
    60aa:	5cf3      	ldrb	r3, [r6, r3]
    60ac:	2b00      	cmp	r3, #0
    60ae:	d00e      	beq.n	60ce <usart_init+0x266>
    60b0:	9b06      	ldr	r3, [sp, #24]
    60b2:	9300      	str	r3, [sp, #0]
    60b4:	9b07      	ldr	r3, [sp, #28]
    60b6:	220e      	movs	r2, #14
    60b8:	a906      	add	r1, sp, #24
    60ba:	468c      	mov	ip, r1
    60bc:	4462      	add	r2, ip
    60be:	6ab1      	ldr	r1, [r6, #40]	; 0x28
    60c0:	6a30      	ldr	r0, [r6, #32]
    60c2:	4f34      	ldr	r7, [pc, #208]	; (6194 <usart_init+0x32c>)
    60c4:	47b8      	blx	r7
    60c6:	2800      	cmp	r0, #0
    60c8:	d000      	beq.n	60cc <usart_init+0x264>
    60ca:	e6e0      	b.n	5e8e <usart_init+0x26>
    60cc:	e750      	b.n	5f70 <usart_init+0x108>
    60ce:	6a33      	ldr	r3, [r6, #32]
    60d0:	001f      	movs	r7, r3
    60d2:	b2c0      	uxtb	r0, r0
    60d4:	4b2d      	ldr	r3, [pc, #180]	; (618c <usart_init+0x324>)
    60d6:	4798      	blx	r3
    60d8:	0001      	movs	r1, r0
    60da:	9b06      	ldr	r3, [sp, #24]
    60dc:	9300      	str	r3, [sp, #0]
    60de:	9b07      	ldr	r3, [sp, #28]
    60e0:	220e      	movs	r2, #14
    60e2:	a806      	add	r0, sp, #24
    60e4:	4684      	mov	ip, r0
    60e6:	4462      	add	r2, ip
    60e8:	0038      	movs	r0, r7
    60ea:	4f2a      	ldr	r7, [pc, #168]	; (6194 <usart_init+0x32c>)
    60ec:	47b8      	blx	r7
    60ee:	e7ea      	b.n	60c6 <usart_init+0x25e>
    60f0:	7ef3      	ldrb	r3, [r6, #27]
    60f2:	2b00      	cmp	r3, #0
    60f4:	d100      	bne.n	60f8 <usart_init+0x290>
    60f6:	e77d      	b.n	5ff4 <usart_init+0x18c>
    60f8:	2380      	movs	r3, #128	; 0x80
    60fa:	04db      	lsls	r3, r3, #19
    60fc:	431f      	orrs	r7, r3
    60fe:	e779      	b.n	5ff4 <usart_init+0x18c>
    6100:	0020      	movs	r0, r4
    6102:	4b25      	ldr	r3, [pc, #148]	; (6198 <usart_init+0x330>)
    6104:	4798      	blx	r3
    6106:	e007      	b.n	6118 <usart_init+0x2b0>
    6108:	3701      	adds	r7, #1
    610a:	2f04      	cmp	r7, #4
    610c:	d00d      	beq.n	612a <usart_init+0x2c2>
    610e:	b2f9      	uxtb	r1, r7
    6110:	00bb      	lsls	r3, r7, #2
    6112:	5998      	ldr	r0, [r3, r6]
    6114:	2800      	cmp	r0, #0
    6116:	d0f3      	beq.n	6100 <usart_init+0x298>
    6118:	1c43      	adds	r3, r0, #1
    611a:	d0f5      	beq.n	6108 <usart_init+0x2a0>
    611c:	a90e      	add	r1, sp, #56	; 0x38
    611e:	7008      	strb	r0, [r1, #0]
    6120:	0c00      	lsrs	r0, r0, #16
    6122:	b2c0      	uxtb	r0, r0
    6124:	4b1d      	ldr	r3, [pc, #116]	; (619c <usart_init+0x334>)
    6126:	4798      	blx	r3
    6128:	e7ee      	b.n	6108 <usart_init+0x2a0>
    612a:	2300      	movs	r3, #0
    612c:	60eb      	str	r3, [r5, #12]
    612e:	612b      	str	r3, [r5, #16]
    6130:	616b      	str	r3, [r5, #20]
    6132:	61ab      	str	r3, [r5, #24]
    6134:	61eb      	str	r3, [r5, #28]
    6136:	622b      	str	r3, [r5, #32]
    6138:	62ab      	str	r3, [r5, #40]	; 0x28
    613a:	626b      	str	r3, [r5, #36]	; 0x24
    613c:	2200      	movs	r2, #0
    613e:	85eb      	strh	r3, [r5, #46]	; 0x2e
    6140:	85ab      	strh	r3, [r5, #44]	; 0x2c
    6142:	3330      	adds	r3, #48	; 0x30
    6144:	54ea      	strb	r2, [r5, r3]
    6146:	3301      	adds	r3, #1
    6148:	54ea      	strb	r2, [r5, r3]
    614a:	3301      	adds	r3, #1
    614c:	54ea      	strb	r2, [r5, r3]
    614e:	3301      	adds	r3, #1
    6150:	54ea      	strb	r2, [r5, r3]
    6152:	6828      	ldr	r0, [r5, #0]
    6154:	4b07      	ldr	r3, [pc, #28]	; (6174 <usart_init+0x30c>)
    6156:	4798      	blx	r3
    6158:	0004      	movs	r4, r0
    615a:	4911      	ldr	r1, [pc, #68]	; (61a0 <usart_init+0x338>)
    615c:	4b11      	ldr	r3, [pc, #68]	; (61a4 <usart_init+0x33c>)
    615e:	4798      	blx	r3
    6160:	00a4      	lsls	r4, r4, #2
    6162:	4b11      	ldr	r3, [pc, #68]	; (61a8 <usart_init+0x340>)
    6164:	50e5      	str	r5, [r4, r3]
    6166:	2000      	movs	r0, #0
    6168:	e691      	b.n	5e8e <usart_init+0x26>
    616a:	2310      	movs	r3, #16
    616c:	9306      	str	r3, [sp, #24]
    616e:	2300      	movs	r3, #0
    6170:	9307      	str	r3, [sp, #28]
    6172:	e6e8      	b.n	5f46 <usart_init+0xde>
    6174:	00005d61 	.word	0x00005d61
    6178:	40000400 	.word	0x40000400
    617c:	00006a0d 	.word	0x00006a0d
    6180:	00006981 	.word	0x00006981
    6184:	00005b9d 	.word	0x00005b9d
    6188:	41002000 	.word	0x41002000
    618c:	00006a29 	.word	0x00006a29
    6190:	00005adf 	.word	0x00005adf
    6194:	00005b09 	.word	0x00005b09
    6198:	00005be9 	.word	0x00005be9
    619c:	00006b35 	.word	0x00006b35
    61a0:	000062ad 	.word	0x000062ad
    61a4:	00005d9d 	.word	0x00005d9d
    61a8:	20004e5c 	.word	0x20004e5c

000061ac <_usart_write_buffer>:
    61ac:	b5f8      	push	{r3, r4, r5, r6, r7, lr}
    61ae:	0006      	movs	r6, r0
    61b0:	000c      	movs	r4, r1
    61b2:	0015      	movs	r5, r2
    61b4:	6807      	ldr	r7, [r0, #0]
    61b6:	4b0a      	ldr	r3, [pc, #40]	; (61e0 <_usart_write_buffer+0x34>)
    61b8:	4798      	blx	r3
    61ba:	8df3      	ldrh	r3, [r6, #46]	; 0x2e
    61bc:	b29b      	uxth	r3, r3
    61be:	2b00      	cmp	r3, #0
    61c0:	d003      	beq.n	61ca <_usart_write_buffer+0x1e>
    61c2:	4b08      	ldr	r3, [pc, #32]	; (61e4 <_usart_write_buffer+0x38>)
    61c4:	4798      	blx	r3
    61c6:	2005      	movs	r0, #5
    61c8:	bdf8      	pop	{r3, r4, r5, r6, r7, pc}
    61ca:	85f5      	strh	r5, [r6, #46]	; 0x2e
    61cc:	4b05      	ldr	r3, [pc, #20]	; (61e4 <_usart_write_buffer+0x38>)
    61ce:	4798      	blx	r3
    61d0:	62b4      	str	r4, [r6, #40]	; 0x28
    61d2:	2205      	movs	r2, #5
    61d4:	2333      	movs	r3, #51	; 0x33
    61d6:	54f2      	strb	r2, [r6, r3]
    61d8:	3b32      	subs	r3, #50	; 0x32
    61da:	75bb      	strb	r3, [r7, #22]
    61dc:	2000      	movs	r0, #0
    61de:	e7f3      	b.n	61c8 <_usart_write_buffer+0x1c>
    61e0:	0000583d 	.word	0x0000583d
    61e4:	0000587d 	.word	0x0000587d

000061e8 <_usart_read_buffer>:
    61e8:	b5f8      	push	{r3, r4, r5, r6, r7, lr}
    61ea:	0004      	movs	r4, r0
    61ec:	000d      	movs	r5, r1
    61ee:	0016      	movs	r6, r2
    61f0:	6807      	ldr	r7, [r0, #0]
    61f2:	4b0f      	ldr	r3, [pc, #60]	; (6230 <_usart_read_buffer+0x48>)
    61f4:	4798      	blx	r3
    61f6:	8da3      	ldrh	r3, [r4, #44]	; 0x2c
    61f8:	b29b      	uxth	r3, r3
    61fa:	2b00      	cmp	r3, #0
    61fc:	d003      	beq.n	6206 <_usart_read_buffer+0x1e>
    61fe:	4b0d      	ldr	r3, [pc, #52]	; (6234 <_usart_read_buffer+0x4c>)
    6200:	4798      	blx	r3
    6202:	2005      	movs	r0, #5
    6204:	bdf8      	pop	{r3, r4, r5, r6, r7, pc}
    6206:	85a6      	strh	r6, [r4, #44]	; 0x2c
    6208:	4b0a      	ldr	r3, [pc, #40]	; (6234 <_usart_read_buffer+0x4c>)
    620a:	4798      	blx	r3
    620c:	6265      	str	r5, [r4, #36]	; 0x24
    620e:	2205      	movs	r2, #5
    6210:	2332      	movs	r3, #50	; 0x32
    6212:	54e2      	strb	r2, [r4, r3]
    6214:	3b2e      	subs	r3, #46	; 0x2e
    6216:	75bb      	strb	r3, [r7, #22]
    6218:	7a23      	ldrb	r3, [r4, #8]
    621a:	2b00      	cmp	r3, #0
    621c:	d001      	beq.n	6222 <_usart_read_buffer+0x3a>
    621e:	2320      	movs	r3, #32
    6220:	75bb      	strb	r3, [r7, #22]
    6222:	7a63      	ldrb	r3, [r4, #9]
    6224:	2000      	movs	r0, #0
    6226:	2b00      	cmp	r3, #0
    6228:	d0ec      	beq.n	6204 <_usart_read_buffer+0x1c>
    622a:	2308      	movs	r3, #8
    622c:	75bb      	strb	r3, [r7, #22]
    622e:	e7e9      	b.n	6204 <_usart_read_buffer+0x1c>
    6230:	0000583d 	.word	0x0000583d
    6234:	0000587d 	.word	0x0000587d

00006238 <usart_register_callback>:
    6238:	1c93      	adds	r3, r2, #2
    623a:	009b      	lsls	r3, r3, #2
    623c:	18c3      	adds	r3, r0, r3
    623e:	6059      	str	r1, [r3, #4]
    6240:	2130      	movs	r1, #48	; 0x30
    6242:	2301      	movs	r3, #1
    6244:	4093      	lsls	r3, r2
    6246:	001a      	movs	r2, r3
    6248:	5c43      	ldrb	r3, [r0, r1]
    624a:	4313      	orrs	r3, r2
    624c:	5443      	strb	r3, [r0, r1]
    624e:	4770      	bx	lr

00006250 <usart_write_buffer_job>:
    6250:	b510      	push	{r4, lr}
    6252:	2317      	movs	r3, #23
    6254:	2a00      	cmp	r2, #0
    6256:	d101      	bne.n	625c <usart_write_buffer_job+0xc>
    6258:	0018      	movs	r0, r3
    625a:	bd10      	pop	{r4, pc}
    625c:	79c4      	ldrb	r4, [r0, #7]
    625e:	3305      	adds	r3, #5
    6260:	2c00      	cmp	r4, #0
    6262:	d0f9      	beq.n	6258 <usart_write_buffer_job+0x8>
    6264:	4b01      	ldr	r3, [pc, #4]	; (626c <usart_write_buffer_job+0x1c>)
    6266:	4798      	blx	r3
    6268:	0003      	movs	r3, r0
    626a:	e7f5      	b.n	6258 <usart_write_buffer_job+0x8>
    626c:	000061ad 	.word	0x000061ad

00006270 <usart_read_buffer_job>:
    6270:	b510      	push	{r4, lr}
    6272:	2317      	movs	r3, #23
    6274:	2a00      	cmp	r2, #0
    6276:	d101      	bne.n	627c <usart_read_buffer_job+0xc>
    6278:	0018      	movs	r0, r3
    627a:	bd10      	pop	{r4, pc}
    627c:	7984      	ldrb	r4, [r0, #6]
    627e:	3305      	adds	r3, #5
    6280:	2c00      	cmp	r4, #0
    6282:	d0f9      	beq.n	6278 <usart_read_buffer_job+0x8>
    6284:	4b01      	ldr	r3, [pc, #4]	; (628c <usart_read_buffer_job+0x1c>)
    6286:	4798      	blx	r3
    6288:	0003      	movs	r3, r0
    628a:	e7f5      	b.n	6278 <usart_read_buffer_job+0x8>
    628c:	000061e9 	.word	0x000061e9

00006290 <usart_get_job_status>:
    6290:	2900      	cmp	r1, #0
    6292:	d003      	beq.n	629c <usart_get_job_status+0xc>
    6294:	2901      	cmp	r1, #1
    6296:	d005      	beq.n	62a4 <usart_get_job_status+0x14>
    6298:	2017      	movs	r0, #23
    629a:	e002      	b.n	62a2 <usart_get_job_status+0x12>
    629c:	2332      	movs	r3, #50	; 0x32
    629e:	5cc0      	ldrb	r0, [r0, r3]
    62a0:	b2c0      	uxtb	r0, r0
    62a2:	4770      	bx	lr
    62a4:	2333      	movs	r3, #51	; 0x33
    62a6:	5cc0      	ldrb	r0, [r0, r3]
    62a8:	b2c0      	uxtb	r0, r0
    62aa:	e7fa      	b.n	62a2 <usart_get_job_status+0x12>

000062ac <_usart_interrupt_handler>:
    62ac:	b5f8      	push	{r3, r4, r5, r6, r7, lr}
    62ae:	0080      	lsls	r0, r0, #2
    62b0:	4b62      	ldr	r3, [pc, #392]	; (643c <_usart_interrupt_handler+0x190>)
    62b2:	58c5      	ldr	r5, [r0, r3]
    62b4:	682c      	ldr	r4, [r5, #0]
    62b6:	69e3      	ldr	r3, [r4, #28]
    62b8:	2b00      	cmp	r3, #0
    62ba:	d1fc      	bne.n	62b6 <_usart_interrupt_handler+0xa>
    62bc:	7e23      	ldrb	r3, [r4, #24]
    62be:	7da6      	ldrb	r6, [r4, #22]
    62c0:	401e      	ands	r6, r3
    62c2:	2330      	movs	r3, #48	; 0x30
    62c4:	5ceb      	ldrb	r3, [r5, r3]
    62c6:	2231      	movs	r2, #49	; 0x31
    62c8:	5caf      	ldrb	r7, [r5, r2]
    62ca:	401f      	ands	r7, r3
    62cc:	07f3      	lsls	r3, r6, #31
    62ce:	d522      	bpl.n	6316 <_usart_interrupt_handler+0x6a>
    62d0:	8deb      	ldrh	r3, [r5, #46]	; 0x2e
    62d2:	b29b      	uxth	r3, r3
    62d4:	2b00      	cmp	r3, #0
    62d6:	d01c      	beq.n	6312 <_usart_interrupt_handler+0x66>
    62d8:	6aaa      	ldr	r2, [r5, #40]	; 0x28
    62da:	7813      	ldrb	r3, [r2, #0]
    62dc:	b2db      	uxtb	r3, r3
    62de:	1c51      	adds	r1, r2, #1
    62e0:	62a9      	str	r1, [r5, #40]	; 0x28
    62e2:	7969      	ldrb	r1, [r5, #5]
    62e4:	2901      	cmp	r1, #1
    62e6:	d00e      	beq.n	6306 <_usart_interrupt_handler+0x5a>
    62e8:	b29b      	uxth	r3, r3
    62ea:	05db      	lsls	r3, r3, #23
    62ec:	0ddb      	lsrs	r3, r3, #23
    62ee:	8523      	strh	r3, [r4, #40]	; 0x28
    62f0:	8deb      	ldrh	r3, [r5, #46]	; 0x2e
    62f2:	3b01      	subs	r3, #1
    62f4:	b29b      	uxth	r3, r3
    62f6:	85eb      	strh	r3, [r5, #46]	; 0x2e
    62f8:	2b00      	cmp	r3, #0
    62fa:	d10c      	bne.n	6316 <_usart_interrupt_handler+0x6a>
    62fc:	3301      	adds	r3, #1
    62fe:	7523      	strb	r3, [r4, #20]
    6300:	3301      	adds	r3, #1
    6302:	75a3      	strb	r3, [r4, #22]
    6304:	e007      	b.n	6316 <_usart_interrupt_handler+0x6a>
    6306:	7851      	ldrb	r1, [r2, #1]
    6308:	0209      	lsls	r1, r1, #8
    630a:	430b      	orrs	r3, r1
    630c:	3202      	adds	r2, #2
    630e:	62aa      	str	r2, [r5, #40]	; 0x28
    6310:	e7eb      	b.n	62ea <_usart_interrupt_handler+0x3e>
    6312:	2301      	movs	r3, #1
    6314:	7523      	strb	r3, [r4, #20]
    6316:	07b3      	lsls	r3, r6, #30
    6318:	d506      	bpl.n	6328 <_usart_interrupt_handler+0x7c>
    631a:	2302      	movs	r3, #2
    631c:	7523      	strb	r3, [r4, #20]
    631e:	2200      	movs	r2, #0
    6320:	3331      	adds	r3, #49	; 0x31
    6322:	54ea      	strb	r2, [r5, r3]
    6324:	07fb      	lsls	r3, r7, #31
    6326:	d41a      	bmi.n	635e <_usart_interrupt_handler+0xb2>
    6328:	0773      	lsls	r3, r6, #29
    632a:	d565      	bpl.n	63f8 <_usart_interrupt_handler+0x14c>
    632c:	8dab      	ldrh	r3, [r5, #44]	; 0x2c
    632e:	b29b      	uxth	r3, r3
    6330:	2b00      	cmp	r3, #0
    6332:	d05f      	beq.n	63f4 <_usart_interrupt_handler+0x148>
    6334:	8b63      	ldrh	r3, [r4, #26]
    6336:	b2db      	uxtb	r3, r3
    6338:	071a      	lsls	r2, r3, #28
    633a:	d414      	bmi.n	6366 <_usart_interrupt_handler+0xba>
    633c:	223f      	movs	r2, #63	; 0x3f
    633e:	4013      	ands	r3, r2
    6340:	2b00      	cmp	r3, #0
    6342:	d034      	beq.n	63ae <_usart_interrupt_handler+0x102>
    6344:	079a      	lsls	r2, r3, #30
    6346:	d511      	bpl.n	636c <_usart_interrupt_handler+0xc0>
    6348:	221a      	movs	r2, #26
    634a:	2332      	movs	r3, #50	; 0x32
    634c:	54ea      	strb	r2, [r5, r3]
    634e:	3b30      	subs	r3, #48	; 0x30
    6350:	8363      	strh	r3, [r4, #26]
    6352:	077b      	lsls	r3, r7, #29
    6354:	d550      	bpl.n	63f8 <_usart_interrupt_handler+0x14c>
    6356:	0028      	movs	r0, r5
    6358:	696b      	ldr	r3, [r5, #20]
    635a:	4798      	blx	r3
    635c:	e04c      	b.n	63f8 <_usart_interrupt_handler+0x14c>
    635e:	0028      	movs	r0, r5
    6360:	68eb      	ldr	r3, [r5, #12]
    6362:	4798      	blx	r3
    6364:	e7e0      	b.n	6328 <_usart_interrupt_handler+0x7c>
    6366:	2237      	movs	r2, #55	; 0x37
    6368:	4013      	ands	r3, r2
    636a:	e7e9      	b.n	6340 <_usart_interrupt_handler+0x94>
    636c:	075a      	lsls	r2, r3, #29
    636e:	d505      	bpl.n	637c <_usart_interrupt_handler+0xd0>
    6370:	221e      	movs	r2, #30
    6372:	2332      	movs	r3, #50	; 0x32
    6374:	54ea      	strb	r2, [r5, r3]
    6376:	3b2e      	subs	r3, #46	; 0x2e
    6378:	8363      	strh	r3, [r4, #26]
    637a:	e7ea      	b.n	6352 <_usart_interrupt_handler+0xa6>
    637c:	07da      	lsls	r2, r3, #31
    637e:	d505      	bpl.n	638c <_usart_interrupt_handler+0xe0>
    6380:	2213      	movs	r2, #19
    6382:	2332      	movs	r3, #50	; 0x32
    6384:	54ea      	strb	r2, [r5, r3]
    6386:	3b31      	subs	r3, #49	; 0x31
    6388:	8363      	strh	r3, [r4, #26]
    638a:	e7e2      	b.n	6352 <_usart_interrupt_handler+0xa6>
    638c:	06da      	lsls	r2, r3, #27
    638e:	d505      	bpl.n	639c <_usart_interrupt_handler+0xf0>
    6390:	2242      	movs	r2, #66	; 0x42
    6392:	2332      	movs	r3, #50	; 0x32
    6394:	54ea      	strb	r2, [r5, r3]
    6396:	3b22      	subs	r3, #34	; 0x22
    6398:	8363      	strh	r3, [r4, #26]
    639a:	e7da      	b.n	6352 <_usart_interrupt_handler+0xa6>
    639c:	2220      	movs	r2, #32
    639e:	421a      	tst	r2, r3
    63a0:	d0d7      	beq.n	6352 <_usart_interrupt_handler+0xa6>
    63a2:	3221      	adds	r2, #33	; 0x21
    63a4:	2332      	movs	r3, #50	; 0x32
    63a6:	54ea      	strb	r2, [r5, r3]
    63a8:	3b12      	subs	r3, #18
    63aa:	8363      	strh	r3, [r4, #26]
    63ac:	e7d1      	b.n	6352 <_usart_interrupt_handler+0xa6>
    63ae:	8d23      	ldrh	r3, [r4, #40]	; 0x28
    63b0:	05db      	lsls	r3, r3, #23
    63b2:	0ddb      	lsrs	r3, r3, #23
    63b4:	b2da      	uxtb	r2, r3
    63b6:	6a69      	ldr	r1, [r5, #36]	; 0x24
    63b8:	700a      	strb	r2, [r1, #0]
    63ba:	6a6a      	ldr	r2, [r5, #36]	; 0x24
    63bc:	1c51      	adds	r1, r2, #1
    63be:	6269      	str	r1, [r5, #36]	; 0x24
    63c0:	7969      	ldrb	r1, [r5, #5]
    63c2:	2901      	cmp	r1, #1
    63c4:	d010      	beq.n	63e8 <_usart_interrupt_handler+0x13c>
    63c6:	8dab      	ldrh	r3, [r5, #44]	; 0x2c
    63c8:	3b01      	subs	r3, #1
    63ca:	b29b      	uxth	r3, r3
    63cc:	85ab      	strh	r3, [r5, #44]	; 0x2c
    63ce:	2b00      	cmp	r3, #0
    63d0:	d112      	bne.n	63f8 <_usart_interrupt_handler+0x14c>
    63d2:	3304      	adds	r3, #4
    63d4:	7523      	strb	r3, [r4, #20]
    63d6:	2200      	movs	r2, #0
    63d8:	332e      	adds	r3, #46	; 0x2e
    63da:	54ea      	strb	r2, [r5, r3]
    63dc:	07bb      	lsls	r3, r7, #30
    63de:	d50b      	bpl.n	63f8 <_usart_interrupt_handler+0x14c>
    63e0:	0028      	movs	r0, r5
    63e2:	692b      	ldr	r3, [r5, #16]
    63e4:	4798      	blx	r3
    63e6:	e007      	b.n	63f8 <_usart_interrupt_handler+0x14c>
    63e8:	0a1b      	lsrs	r3, r3, #8
    63ea:	7053      	strb	r3, [r2, #1]
    63ec:	6a6b      	ldr	r3, [r5, #36]	; 0x24
    63ee:	3301      	adds	r3, #1
    63f0:	626b      	str	r3, [r5, #36]	; 0x24
    63f2:	e7e8      	b.n	63c6 <_usart_interrupt_handler+0x11a>
    63f4:	2304      	movs	r3, #4
    63f6:	7523      	strb	r3, [r4, #20]
    63f8:	06f3      	lsls	r3, r6, #27
    63fa:	d504      	bpl.n	6406 <_usart_interrupt_handler+0x15a>
    63fc:	2310      	movs	r3, #16
    63fe:	7523      	strb	r3, [r4, #20]
    6400:	7623      	strb	r3, [r4, #24]
    6402:	06fb      	lsls	r3, r7, #27
    6404:	d40e      	bmi.n	6424 <_usart_interrupt_handler+0x178>
    6406:	06b3      	lsls	r3, r6, #26
    6408:	d504      	bpl.n	6414 <_usart_interrupt_handler+0x168>
    640a:	2320      	movs	r3, #32
    640c:	7523      	strb	r3, [r4, #20]
    640e:	7623      	strb	r3, [r4, #24]
    6410:	073b      	lsls	r3, r7, #28
    6412:	d40b      	bmi.n	642c <_usart_interrupt_handler+0x180>
    6414:	0733      	lsls	r3, r6, #28
    6416:	d504      	bpl.n	6422 <_usart_interrupt_handler+0x176>
    6418:	2308      	movs	r3, #8
    641a:	7523      	strb	r3, [r4, #20]
    641c:	7623      	strb	r3, [r4, #24]
    641e:	06bb      	lsls	r3, r7, #26
    6420:	d408      	bmi.n	6434 <_usart_interrupt_handler+0x188>
    6422:	bdf8      	pop	{r3, r4, r5, r6, r7, pc}
    6424:	0028      	movs	r0, r5
    6426:	69eb      	ldr	r3, [r5, #28]
    6428:	4798      	blx	r3
    642a:	e7ec      	b.n	6406 <_usart_interrupt_handler+0x15a>
    642c:	0028      	movs	r0, r5
    642e:	69ab      	ldr	r3, [r5, #24]
    6430:	4798      	blx	r3
    6432:	e7ef      	b.n	6414 <_usart_interrupt_handler+0x168>
    6434:	6a2b      	ldr	r3, [r5, #32]
    6436:	0028      	movs	r0, r5
    6438:	4798      	blx	r3
    643a:	e7f2      	b.n	6422 <_usart_interrupt_handler+0x176>
    643c:	20004e5c 	.word	0x20004e5c

00006440 <system_clock_source_get_hz>:
    6440:	b510      	push	{r4, lr}
    6442:	2808      	cmp	r0, #8
    6444:	d803      	bhi.n	644e <system_clock_source_get_hz+0xe>
    6446:	0080      	lsls	r0, r0, #2
    6448:	4b1c      	ldr	r3, [pc, #112]	; (64bc <system_clock_source_get_hz+0x7c>)
    644a:	581b      	ldr	r3, [r3, r0]
    644c:	469f      	mov	pc, r3
    644e:	2000      	movs	r0, #0
    6450:	e032      	b.n	64b8 <system_clock_source_get_hz+0x78>
    6452:	4b1b      	ldr	r3, [pc, #108]	; (64c0 <system_clock_source_get_hz+0x80>)
    6454:	6918      	ldr	r0, [r3, #16]
    6456:	e02f      	b.n	64b8 <system_clock_source_get_hz+0x78>
    6458:	4b1a      	ldr	r3, [pc, #104]	; (64c4 <system_clock_source_get_hz+0x84>)
    645a:	6a1b      	ldr	r3, [r3, #32]
    645c:	059b      	lsls	r3, r3, #22
    645e:	0f9b      	lsrs	r3, r3, #30
    6460:	4819      	ldr	r0, [pc, #100]	; (64c8 <system_clock_source_get_hz+0x88>)
    6462:	40d8      	lsrs	r0, r3
    6464:	e028      	b.n	64b8 <system_clock_source_get_hz+0x78>
    6466:	4b16      	ldr	r3, [pc, #88]	; (64c0 <system_clock_source_get_hz+0x80>)
    6468:	6958      	ldr	r0, [r3, #20]
    646a:	e025      	b.n	64b8 <system_clock_source_get_hz+0x78>
    646c:	4b14      	ldr	r3, [pc, #80]	; (64c0 <system_clock_source_get_hz+0x80>)
    646e:	681b      	ldr	r3, [r3, #0]
    6470:	2000      	movs	r0, #0
    6472:	079b      	lsls	r3, r3, #30
    6474:	d520      	bpl.n	64b8 <system_clock_source_get_hz+0x78>
    6476:	4913      	ldr	r1, [pc, #76]	; (64c4 <system_clock_source_get_hz+0x84>)
    6478:	2210      	movs	r2, #16
    647a:	68cb      	ldr	r3, [r1, #12]
    647c:	421a      	tst	r2, r3
    647e:	d0fc      	beq.n	647a <system_clock_source_get_hz+0x3a>
    6480:	4b0f      	ldr	r3, [pc, #60]	; (64c0 <system_clock_source_get_hz+0x80>)
    6482:	681a      	ldr	r2, [r3, #0]
    6484:	2324      	movs	r3, #36	; 0x24
    6486:	4013      	ands	r3, r2
    6488:	2b04      	cmp	r3, #4
    648a:	d001      	beq.n	6490 <system_clock_source_get_hz+0x50>
    648c:	480f      	ldr	r0, [pc, #60]	; (64cc <system_clock_source_get_hz+0x8c>)
    648e:	e013      	b.n	64b8 <system_clock_source_get_hz+0x78>
    6490:	2000      	movs	r0, #0
    6492:	4b0f      	ldr	r3, [pc, #60]	; (64d0 <system_clock_source_get_hz+0x90>)
    6494:	4798      	blx	r3
    6496:	4b0a      	ldr	r3, [pc, #40]	; (64c0 <system_clock_source_get_hz+0x80>)
    6498:	689b      	ldr	r3, [r3, #8]
    649a:	041b      	lsls	r3, r3, #16
    649c:	0c1b      	lsrs	r3, r3, #16
    649e:	4358      	muls	r0, r3
    64a0:	e00a      	b.n	64b8 <system_clock_source_get_hz+0x78>
    64a2:	2350      	movs	r3, #80	; 0x50
    64a4:	4a07      	ldr	r2, [pc, #28]	; (64c4 <system_clock_source_get_hz+0x84>)
    64a6:	5cd3      	ldrb	r3, [r2, r3]
    64a8:	2000      	movs	r0, #0
    64aa:	075b      	lsls	r3, r3, #29
    64ac:	d504      	bpl.n	64b8 <system_clock_source_get_hz+0x78>
    64ae:	4b04      	ldr	r3, [pc, #16]	; (64c0 <system_clock_source_get_hz+0x80>)
    64b0:	68d8      	ldr	r0, [r3, #12]
    64b2:	e001      	b.n	64b8 <system_clock_source_get_hz+0x78>
    64b4:	2080      	movs	r0, #128	; 0x80
    64b6:	0200      	lsls	r0, r0, #8
    64b8:	bd10      	pop	{r4, pc}
    64ba:	46c0      	nop			; (mov r8, r8)
    64bc:	0000a808 	.word	0x0000a808
    64c0:	20003838 	.word	0x20003838
    64c4:	40000800 	.word	0x40000800
    64c8:	007a1200 	.word	0x007a1200
    64cc:	02dc6c00 	.word	0x02dc6c00
    64d0:	00006a29 	.word	0x00006a29

000064d4 <system_clock_source_osc8m_set_config>:
    64d4:	b570      	push	{r4, r5, r6, lr}
    64d6:	490c      	ldr	r1, [pc, #48]	; (6508 <system_clock_source_osc8m_set_config+0x34>)
    64d8:	6a0b      	ldr	r3, [r1, #32]
    64da:	7804      	ldrb	r4, [r0, #0]
    64dc:	7885      	ldrb	r5, [r0, #2]
    64de:	7840      	ldrb	r0, [r0, #1]
    64e0:	2201      	movs	r2, #1
    64e2:	4010      	ands	r0, r2
    64e4:	0180      	lsls	r0, r0, #6
    64e6:	2640      	movs	r6, #64	; 0x40
    64e8:	43b3      	bics	r3, r6
    64ea:	4303      	orrs	r3, r0
    64ec:	402a      	ands	r2, r5
    64ee:	01d2      	lsls	r2, r2, #7
    64f0:	2080      	movs	r0, #128	; 0x80
    64f2:	4383      	bics	r3, r0
    64f4:	4313      	orrs	r3, r2
    64f6:	2203      	movs	r2, #3
    64f8:	4022      	ands	r2, r4
    64fa:	0212      	lsls	r2, r2, #8
    64fc:	4803      	ldr	r0, [pc, #12]	; (650c <system_clock_source_osc8m_set_config+0x38>)
    64fe:	4003      	ands	r3, r0
    6500:	4313      	orrs	r3, r2
    6502:	620b      	str	r3, [r1, #32]
    6504:	bd70      	pop	{r4, r5, r6, pc}
    6506:	46c0      	nop			; (mov r8, r8)
    6508:	40000800 	.word	0x40000800
    650c:	fffffcff 	.word	0xfffffcff

00006510 <system_clock_source_dpll_set_config>:
    6510:	b5f8      	push	{r3, r4, r5, r6, r7, lr}
    6512:	0005      	movs	r5, r0
    6514:	68c4      	ldr	r4, [r0, #12]
    6516:	7d03      	ldrb	r3, [r0, #20]
    6518:	2b01      	cmp	r3, #1
    651a:	d03b      	beq.n	6594 <system_clock_source_dpll_set_config+0x84>
    651c:	68ab      	ldr	r3, [r5, #8]
    651e:	0118      	lsls	r0, r3, #4
    6520:	0021      	movs	r1, r4
    6522:	4b20      	ldr	r3, [pc, #128]	; (65a4 <system_clock_source_dpll_set_config+0x94>)
    6524:	4798      	blx	r3
    6526:	220f      	movs	r2, #15
    6528:	4002      	ands	r2, r0
    652a:	0903      	lsrs	r3, r0, #4
    652c:	782e      	ldrb	r6, [r5, #0]
    652e:	01f6      	lsls	r6, r6, #7
    6530:	7869      	ldrb	r1, [r5, #1]
    6532:	0189      	lsls	r1, r1, #6
    6534:	430e      	orrs	r6, r1
    6536:	b2f6      	uxtb	r6, r6
    6538:	491b      	ldr	r1, [pc, #108]	; (65a8 <system_clock_source_dpll_set_config+0x98>)
    653a:	2744      	movs	r7, #68	; 0x44
    653c:	55ce      	strb	r6, [r1, r7]
    653e:	0416      	lsls	r6, r2, #16
    6540:	3b01      	subs	r3, #1
    6542:	051b      	lsls	r3, r3, #20
    6544:	0d1b      	lsrs	r3, r3, #20
    6546:	4333      	orrs	r3, r6
    6548:	648b      	str	r3, [r1, #72]	; 0x48
    654a:	78ab      	ldrb	r3, [r5, #2]
    654c:	031b      	lsls	r3, r3, #12
    654e:	78ee      	ldrb	r6, [r5, #3]
    6550:	00f6      	lsls	r6, r6, #3
    6552:	4333      	orrs	r3, r6
    6554:	792e      	ldrb	r6, [r5, #4]
    6556:	00b6      	lsls	r6, r6, #2
    6558:	4333      	orrs	r3, r6
    655a:	7caf      	ldrb	r7, [r5, #18]
    655c:	2603      	movs	r6, #3
    655e:	403e      	ands	r6, r7
    6560:	4333      	orrs	r3, r6
    6562:	8a2e      	ldrh	r6, [r5, #16]
    6564:	0436      	lsls	r6, r6, #16
    6566:	4f11      	ldr	r7, [pc, #68]	; (65ac <system_clock_source_dpll_set_config+0x9c>)
    6568:	403e      	ands	r6, r7
    656a:	4333      	orrs	r3, r6
    656c:	7cee      	ldrb	r6, [r5, #19]
    656e:	0236      	lsls	r6, r6, #8
    6570:	27e0      	movs	r7, #224	; 0xe0
    6572:	00ff      	lsls	r7, r7, #3
    6574:	403e      	ands	r6, r7
    6576:	4333      	orrs	r3, r6
    6578:	7d2e      	ldrb	r6, [r5, #20]
    657a:	0136      	lsls	r6, r6, #4
    657c:	2530      	movs	r5, #48	; 0x30
    657e:	4035      	ands	r5, r6
    6580:	432b      	orrs	r3, r5
    6582:	64cb      	str	r3, [r1, #76]	; 0x4c
    6584:	230f      	movs	r3, #15
    6586:	4398      	bics	r0, r3
    6588:	1880      	adds	r0, r0, r2
    658a:	4344      	muls	r4, r0
    658c:	0924      	lsrs	r4, r4, #4
    658e:	4b08      	ldr	r3, [pc, #32]	; (65b0 <system_clock_source_dpll_set_config+0xa0>)
    6590:	60dc      	str	r4, [r3, #12]
    6592:	bdf8      	pop	{r3, r4, r5, r6, r7, pc}
    6594:	8a01      	ldrh	r1, [r0, #16]
    6596:	3101      	adds	r1, #1
    6598:	0049      	lsls	r1, r1, #1
    659a:	0020      	movs	r0, r4
    659c:	4b01      	ldr	r3, [pc, #4]	; (65a4 <system_clock_source_dpll_set_config+0x94>)
    659e:	4798      	blx	r3
    65a0:	0004      	movs	r4, r0
    65a2:	e7bb      	b.n	651c <system_clock_source_dpll_set_config+0xc>
    65a4:	00006f8d 	.word	0x00006f8d
    65a8:	40000800 	.word	0x40000800
    65ac:	07ff0000 	.word	0x07ff0000
    65b0:	20003838 	.word	0x20003838

000065b4 <system_clock_source_enable>:
    65b4:	2808      	cmp	r0, #8
    65b6:	d803      	bhi.n	65c0 <system_clock_source_enable+0xc>
    65b8:	0080      	lsls	r0, r0, #2
    65ba:	4b25      	ldr	r3, [pc, #148]	; (6650 <system_clock_source_enable+0x9c>)
    65bc:	581b      	ldr	r3, [r3, r0]
    65be:	469f      	mov	pc, r3
    65c0:	2017      	movs	r0, #23
    65c2:	e044      	b.n	664e <system_clock_source_enable+0x9a>
    65c4:	4a23      	ldr	r2, [pc, #140]	; (6654 <system_clock_source_enable+0xa0>)
    65c6:	6a13      	ldr	r3, [r2, #32]
    65c8:	2102      	movs	r1, #2
    65ca:	430b      	orrs	r3, r1
    65cc:	6213      	str	r3, [r2, #32]
    65ce:	2000      	movs	r0, #0
    65d0:	e03d      	b.n	664e <system_clock_source_enable+0x9a>
    65d2:	4a20      	ldr	r2, [pc, #128]	; (6654 <system_clock_source_enable+0xa0>)
    65d4:	6993      	ldr	r3, [r2, #24]
    65d6:	2102      	movs	r1, #2
    65d8:	430b      	orrs	r3, r1
    65da:	6193      	str	r3, [r2, #24]
    65dc:	2000      	movs	r0, #0
    65de:	e036      	b.n	664e <system_clock_source_enable+0x9a>
    65e0:	4a1c      	ldr	r2, [pc, #112]	; (6654 <system_clock_source_enable+0xa0>)
    65e2:	8a13      	ldrh	r3, [r2, #16]
    65e4:	2102      	movs	r1, #2
    65e6:	430b      	orrs	r3, r1
    65e8:	8213      	strh	r3, [r2, #16]
    65ea:	2000      	movs	r0, #0
    65ec:	e02f      	b.n	664e <system_clock_source_enable+0x9a>
    65ee:	4a19      	ldr	r2, [pc, #100]	; (6654 <system_clock_source_enable+0xa0>)
    65f0:	8a93      	ldrh	r3, [r2, #20]
    65f2:	2102      	movs	r1, #2
    65f4:	430b      	orrs	r3, r1
    65f6:	8293      	strh	r3, [r2, #20]
    65f8:	2000      	movs	r0, #0
    65fa:	e028      	b.n	664e <system_clock_source_enable+0x9a>
    65fc:	4916      	ldr	r1, [pc, #88]	; (6658 <system_clock_source_enable+0xa4>)
    65fe:	680b      	ldr	r3, [r1, #0]
    6600:	2202      	movs	r2, #2
    6602:	4313      	orrs	r3, r2
    6604:	600b      	str	r3, [r1, #0]
    6606:	4b13      	ldr	r3, [pc, #76]	; (6654 <system_clock_source_enable+0xa0>)
    6608:	849a      	strh	r2, [r3, #36]	; 0x24
    660a:	0019      	movs	r1, r3
    660c:	320e      	adds	r2, #14
    660e:	68cb      	ldr	r3, [r1, #12]
    6610:	421a      	tst	r2, r3
    6612:	d0fc      	beq.n	660e <system_clock_source_enable+0x5a>
    6614:	4a10      	ldr	r2, [pc, #64]	; (6658 <system_clock_source_enable+0xa4>)
    6616:	6891      	ldr	r1, [r2, #8]
    6618:	4b0e      	ldr	r3, [pc, #56]	; (6654 <system_clock_source_enable+0xa0>)
    661a:	62d9      	str	r1, [r3, #44]	; 0x2c
    661c:	6852      	ldr	r2, [r2, #4]
    661e:	629a      	str	r2, [r3, #40]	; 0x28
    6620:	2200      	movs	r2, #0
    6622:	849a      	strh	r2, [r3, #36]	; 0x24
    6624:	0019      	movs	r1, r3
    6626:	3210      	adds	r2, #16
    6628:	68cb      	ldr	r3, [r1, #12]
    662a:	421a      	tst	r2, r3
    662c:	d0fc      	beq.n	6628 <system_clock_source_enable+0x74>
    662e:	4b0a      	ldr	r3, [pc, #40]	; (6658 <system_clock_source_enable+0xa4>)
    6630:	681b      	ldr	r3, [r3, #0]
    6632:	b29b      	uxth	r3, r3
    6634:	4a07      	ldr	r2, [pc, #28]	; (6654 <system_clock_source_enable+0xa0>)
    6636:	8493      	strh	r3, [r2, #36]	; 0x24
    6638:	2000      	movs	r0, #0
    663a:	e008      	b.n	664e <system_clock_source_enable+0x9a>
    663c:	4905      	ldr	r1, [pc, #20]	; (6654 <system_clock_source_enable+0xa0>)
    663e:	2244      	movs	r2, #68	; 0x44
    6640:	5c8b      	ldrb	r3, [r1, r2]
    6642:	2002      	movs	r0, #2
    6644:	4303      	orrs	r3, r0
    6646:	548b      	strb	r3, [r1, r2]
    6648:	2000      	movs	r0, #0
    664a:	e000      	b.n	664e <system_clock_source_enable+0x9a>
    664c:	2000      	movs	r0, #0
    664e:	4770      	bx	lr
    6650:	0000a82c 	.word	0x0000a82c
    6654:	40000800 	.word	0x40000800
    6658:	20003838 	.word	0x20003838

0000665c <system_clock_init>:
    665c:	b5f0      	push	{r4, r5, r6, r7, lr}
    665e:	46de      	mov	lr, fp
    6660:	4657      	mov	r7, sl
    6662:	464e      	mov	r6, r9
    6664:	4645      	mov	r5, r8
    6666:	b5e0      	push	{r5, r6, r7, lr}
    6668:	b08d      	sub	sp, #52	; 0x34
    666a:	22c2      	movs	r2, #194	; 0xc2
    666c:	00d2      	lsls	r2, r2, #3
    666e:	4b4c      	ldr	r3, [pc, #304]	; (67a0 <system_clock_init+0x144>)
    6670:	609a      	str	r2, [r3, #8]
    6672:	4a4c      	ldr	r2, [pc, #304]	; (67a4 <system_clock_init+0x148>)
    6674:	6853      	ldr	r3, [r2, #4]
    6676:	211e      	movs	r1, #30
    6678:	438b      	bics	r3, r1
    667a:	3918      	subs	r1, #24
    667c:	430b      	orrs	r3, r1
    667e:	6053      	str	r3, [r2, #4]
    6680:	2203      	movs	r2, #3
    6682:	ab01      	add	r3, sp, #4
    6684:	701a      	strb	r2, [r3, #0]
    6686:	2400      	movs	r4, #0
    6688:	4d47      	ldr	r5, [pc, #284]	; (67a8 <system_clock_init+0x14c>)
    668a:	b2e0      	uxtb	r0, r4
    668c:	a901      	add	r1, sp, #4
    668e:	47a8      	blx	r5
    6690:	3401      	adds	r4, #1
    6692:	2c25      	cmp	r4, #37	; 0x25
    6694:	d1f9      	bne.n	668a <system_clock_init+0x2e>
    6696:	a80b      	add	r0, sp, #44	; 0x2c
    6698:	2500      	movs	r5, #0
    669a:	7045      	strb	r5, [r0, #1]
    669c:	2601      	movs	r6, #1
    669e:	7086      	strb	r6, [r0, #2]
    66a0:	7005      	strb	r5, [r0, #0]
    66a2:	4b42      	ldr	r3, [pc, #264]	; (67ac <system_clock_init+0x150>)
    66a4:	4798      	blx	r3
    66a6:	2006      	movs	r0, #6
    66a8:	4b41      	ldr	r3, [pc, #260]	; (67b0 <system_clock_init+0x154>)
    66aa:	4699      	mov	r9, r3
    66ac:	4798      	blx	r3
    66ae:	4b41      	ldr	r3, [pc, #260]	; (67b4 <system_clock_init+0x158>)
    66b0:	4798      	blx	r3
    66b2:	ac01      	add	r4, sp, #4
    66b4:	7065      	strb	r5, [r4, #1]
    66b6:	2306      	movs	r3, #6
    66b8:	469a      	mov	sl, r3
    66ba:	7023      	strb	r3, [r4, #0]
    66bc:	7225      	strb	r5, [r4, #8]
    66be:	7265      	strb	r5, [r4, #9]
    66c0:	2308      	movs	r3, #8
    66c2:	6063      	str	r3, [r4, #4]
    66c4:	0021      	movs	r1, r4
    66c6:	2001      	movs	r0, #1
    66c8:	4b3b      	ldr	r3, [pc, #236]	; (67b8 <system_clock_init+0x15c>)
    66ca:	4698      	mov	r8, r3
    66cc:	4798      	blx	r3
    66ce:	2001      	movs	r0, #1
    66d0:	4f3a      	ldr	r7, [pc, #232]	; (67bc <system_clock_init+0x160>)
    66d2:	47b8      	blx	r7
    66d4:	6066      	str	r6, [r4, #4]
    66d6:	7065      	strb	r5, [r4, #1]
    66d8:	7265      	strb	r5, [r4, #9]
    66da:	2303      	movs	r3, #3
    66dc:	469b      	mov	fp, r3
    66de:	7023      	strb	r3, [r4, #0]
    66e0:	7226      	strb	r6, [r4, #8]
    66e2:	0021      	movs	r1, r4
    66e4:	2002      	movs	r0, #2
    66e6:	47c0      	blx	r8
    66e8:	2002      	movs	r0, #2
    66ea:	47b8      	blx	r7
    66ec:	7065      	strb	r5, [r4, #1]
    66ee:	7225      	strb	r5, [r4, #8]
    66f0:	7265      	strb	r5, [r4, #9]
    66f2:	465b      	mov	r3, fp
    66f4:	7023      	strb	r3, [r4, #0]
    66f6:	2320      	movs	r3, #32
    66f8:	6063      	str	r3, [r4, #4]
    66fa:	0021      	movs	r1, r4
    66fc:	2004      	movs	r0, #4
    66fe:	47c0      	blx	r8
    6700:	2004      	movs	r0, #4
    6702:	47b8      	blx	r7
    6704:	6066      	str	r6, [r4, #4]
    6706:	7065      	strb	r5, [r4, #1]
    6708:	4653      	mov	r3, sl
    670a:	7023      	strb	r3, [r4, #0]
    670c:	7225      	strb	r5, [r4, #8]
    670e:	7265      	strb	r5, [r4, #9]
    6710:	0021      	movs	r1, r4
    6712:	2005      	movs	r0, #5
    6714:	47c0      	blx	r8
    6716:	2005      	movs	r0, #5
    6718:	47b8      	blx	r7
    671a:	a90a      	add	r1, sp, #40	; 0x28
    671c:	700e      	strb	r6, [r1, #0]
    671e:	2001      	movs	r0, #1
    6720:	4b21      	ldr	r3, [pc, #132]	; (67a8 <system_clock_init+0x14c>)
    6722:	4798      	blx	r3
    6724:	2001      	movs	r0, #1
    6726:	4b26      	ldr	r3, [pc, #152]	; (67c0 <system_clock_init+0x164>)
    6728:	4798      	blx	r3
    672a:	a804      	add	r0, sp, #16
    672c:	7045      	strb	r5, [r0, #1]
    672e:	7085      	strb	r5, [r0, #2]
    6730:	70c5      	strb	r5, [r0, #3]
    6732:	7105      	strb	r5, [r0, #4]
    6734:	4b23      	ldr	r3, [pc, #140]	; (67c4 <system_clock_init+0x168>)
    6736:	6083      	str	r3, [r0, #8]
    6738:	8206      	strh	r6, [r0, #16]
    673a:	74c5      	strb	r5, [r0, #19]
    673c:	7485      	strb	r5, [r0, #18]
    673e:	7005      	strb	r5, [r0, #0]
    6740:	2302      	movs	r3, #2
    6742:	7503      	strb	r3, [r0, #20]
    6744:	4b20      	ldr	r3, [pc, #128]	; (67c8 <system_clock_init+0x16c>)
    6746:	60c3      	str	r3, [r0, #12]
    6748:	4b20      	ldr	r3, [pc, #128]	; (67cc <system_clock_init+0x170>)
    674a:	4798      	blx	r3
    674c:	2008      	movs	r0, #8
    674e:	47c8      	blx	r9
    6750:	4813      	ldr	r0, [pc, #76]	; (67a0 <system_clock_init+0x144>)
    6752:	2150      	movs	r1, #80	; 0x50
    6754:	2203      	movs	r2, #3
    6756:	5c43      	ldrb	r3, [r0, r1]
    6758:	4013      	ands	r3, r2
    675a:	2b03      	cmp	r3, #3
    675c:	d1fb      	bne.n	6756 <system_clock_init+0xfa>
    675e:	4910      	ldr	r1, [pc, #64]	; (67a0 <system_clock_init+0x144>)
    6760:	2244      	movs	r2, #68	; 0x44
    6762:	5c88      	ldrb	r0, [r1, r2]
    6764:	3b83      	subs	r3, #131	; 0x83
    6766:	4303      	orrs	r3, r0
    6768:	548b      	strb	r3, [r1, r2]
    676a:	4a19      	ldr	r2, [pc, #100]	; (67d0 <system_clock_init+0x174>)
    676c:	2300      	movs	r3, #0
    676e:	7213      	strb	r3, [r2, #8]
    6770:	7253      	strb	r3, [r2, #9]
    6772:	7293      	strb	r3, [r2, #10]
    6774:	72d3      	strb	r3, [r2, #11]
    6776:	a901      	add	r1, sp, #4
    6778:	2201      	movs	r2, #1
    677a:	604a      	str	r2, [r1, #4]
    677c:	704b      	strb	r3, [r1, #1]
    677e:	720b      	strb	r3, [r1, #8]
    6780:	3308      	adds	r3, #8
    6782:	700b      	strb	r3, [r1, #0]
    6784:	724a      	strb	r2, [r1, #9]
    6786:	2000      	movs	r0, #0
    6788:	4b0b      	ldr	r3, [pc, #44]	; (67b8 <system_clock_init+0x15c>)
    678a:	4798      	blx	r3
    678c:	2000      	movs	r0, #0
    678e:	4b0b      	ldr	r3, [pc, #44]	; (67bc <system_clock_init+0x160>)
    6790:	4798      	blx	r3
    6792:	b00d      	add	sp, #52	; 0x34
    6794:	bc3c      	pop	{r2, r3, r4, r5}
    6796:	4690      	mov	r8, r2
    6798:	4699      	mov	r9, r3
    679a:	46a2      	mov	sl, r4
    679c:	46ab      	mov	fp, r5
    679e:	bdf0      	pop	{r4, r5, r6, r7, pc}
    67a0:	40000800 	.word	0x40000800
    67a4:	41004000 	.word	0x41004000
    67a8:	00006a0d 	.word	0x00006a0d
    67ac:	000064d5 	.word	0x000064d5
    67b0:	000065b5 	.word	0x000065b5
    67b4:	000067d5 	.word	0x000067d5
    67b8:	000067f9 	.word	0x000067f9
    67bc:	000068b1 	.word	0x000068b1
    67c0:	00006981 	.word	0x00006981
    67c4:	02dc6c00 	.word	0x02dc6c00
    67c8:	000f4240 	.word	0x000f4240
    67cc:	00006511 	.word	0x00006511
    67d0:	40000400 	.word	0x40000400

000067d4 <system_gclk_init>:
    67d4:	4a06      	ldr	r2, [pc, #24]	; (67f0 <system_gclk_init+0x1c>)
    67d6:	6993      	ldr	r3, [r2, #24]
    67d8:	2108      	movs	r1, #8
    67da:	430b      	orrs	r3, r1
    67dc:	6193      	str	r3, [r2, #24]
    67de:	2201      	movs	r2, #1
    67e0:	4b04      	ldr	r3, [pc, #16]	; (67f4 <system_gclk_init+0x20>)
    67e2:	701a      	strb	r2, [r3, #0]
    67e4:	0019      	movs	r1, r3
    67e6:	780b      	ldrb	r3, [r1, #0]
    67e8:	4213      	tst	r3, r2
    67ea:	d1fc      	bne.n	67e6 <system_gclk_init+0x12>
    67ec:	4770      	bx	lr
    67ee:	46c0      	nop			; (mov r8, r8)
    67f0:	40000400 	.word	0x40000400
    67f4:	40000c00 	.word	0x40000c00

000067f8 <system_gclk_gen_set_config>:
    67f8:	b570      	push	{r4, r5, r6, lr}
    67fa:	0006      	movs	r6, r0
    67fc:	0004      	movs	r4, r0
    67fe:	780d      	ldrb	r5, [r1, #0]
    6800:	022d      	lsls	r5, r5, #8
    6802:	4305      	orrs	r5, r0
    6804:	784b      	ldrb	r3, [r1, #1]
    6806:	2b00      	cmp	r3, #0
    6808:	d002      	beq.n	6810 <system_gclk_gen_set_config+0x18>
    680a:	2380      	movs	r3, #128	; 0x80
    680c:	02db      	lsls	r3, r3, #11
    680e:	431d      	orrs	r5, r3
    6810:	7a4b      	ldrb	r3, [r1, #9]
    6812:	2b00      	cmp	r3, #0
    6814:	d002      	beq.n	681c <system_gclk_gen_set_config+0x24>
    6816:	2380      	movs	r3, #128	; 0x80
    6818:	031b      	lsls	r3, r3, #12
    681a:	431d      	orrs	r5, r3
    681c:	6848      	ldr	r0, [r1, #4]
    681e:	2801      	cmp	r0, #1
    6820:	d910      	bls.n	6844 <system_gclk_gen_set_config+0x4c>
    6822:	1e43      	subs	r3, r0, #1
    6824:	4218      	tst	r0, r3
    6826:	d134      	bne.n	6892 <system_gclk_gen_set_config+0x9a>
    6828:	2802      	cmp	r0, #2
    682a:	d930      	bls.n	688e <system_gclk_gen_set_config+0x96>
    682c:	2302      	movs	r3, #2
    682e:	2200      	movs	r2, #0
    6830:	3201      	adds	r2, #1
    6832:	005b      	lsls	r3, r3, #1
    6834:	4298      	cmp	r0, r3
    6836:	d8fb      	bhi.n	6830 <system_gclk_gen_set_config+0x38>
    6838:	0212      	lsls	r2, r2, #8
    683a:	4332      	orrs	r2, r6
    683c:	0014      	movs	r4, r2
    683e:	2380      	movs	r3, #128	; 0x80
    6840:	035b      	lsls	r3, r3, #13
    6842:	431d      	orrs	r5, r3
    6844:	7a0b      	ldrb	r3, [r1, #8]
    6846:	2b00      	cmp	r3, #0
    6848:	d002      	beq.n	6850 <system_gclk_gen_set_config+0x58>
    684a:	2380      	movs	r3, #128	; 0x80
    684c:	039b      	lsls	r3, r3, #14
    684e:	431d      	orrs	r5, r3
    6850:	4a13      	ldr	r2, [pc, #76]	; (68a0 <system_gclk_gen_set_config+0xa8>)
    6852:	7853      	ldrb	r3, [r2, #1]
    6854:	b25b      	sxtb	r3, r3
    6856:	2b00      	cmp	r3, #0
    6858:	dbfb      	blt.n	6852 <system_gclk_gen_set_config+0x5a>
    685a:	4b12      	ldr	r3, [pc, #72]	; (68a4 <system_gclk_gen_set_config+0xac>)
    685c:	4798      	blx	r3
    685e:	4b12      	ldr	r3, [pc, #72]	; (68a8 <system_gclk_gen_set_config+0xb0>)
    6860:	701e      	strb	r6, [r3, #0]
    6862:	4a0f      	ldr	r2, [pc, #60]	; (68a0 <system_gclk_gen_set_config+0xa8>)
    6864:	7853      	ldrb	r3, [r2, #1]
    6866:	b25b      	sxtb	r3, r3
    6868:	2b00      	cmp	r3, #0
    686a:	dbfb      	blt.n	6864 <system_gclk_gen_set_config+0x6c>
    686c:	4b0c      	ldr	r3, [pc, #48]	; (68a0 <system_gclk_gen_set_config+0xa8>)
    686e:	609c      	str	r4, [r3, #8]
    6870:	001a      	movs	r2, r3
    6872:	7853      	ldrb	r3, [r2, #1]
    6874:	b25b      	sxtb	r3, r3
    6876:	2b00      	cmp	r3, #0
    6878:	dbfb      	blt.n	6872 <system_gclk_gen_set_config+0x7a>
    687a:	4a09      	ldr	r2, [pc, #36]	; (68a0 <system_gclk_gen_set_config+0xa8>)
    687c:	6853      	ldr	r3, [r2, #4]
    687e:	2180      	movs	r1, #128	; 0x80
    6880:	0249      	lsls	r1, r1, #9
    6882:	400b      	ands	r3, r1
    6884:	431d      	orrs	r5, r3
    6886:	6055      	str	r5, [r2, #4]
    6888:	4b08      	ldr	r3, [pc, #32]	; (68ac <system_gclk_gen_set_config+0xb4>)
    688a:	4798      	blx	r3
    688c:	bd70      	pop	{r4, r5, r6, pc}
    688e:	2200      	movs	r2, #0
    6890:	e7d2      	b.n	6838 <system_gclk_gen_set_config+0x40>
    6892:	0204      	lsls	r4, r0, #8
    6894:	4334      	orrs	r4, r6
    6896:	2380      	movs	r3, #128	; 0x80
    6898:	029b      	lsls	r3, r3, #10
    689a:	431d      	orrs	r5, r3
    689c:	e7d2      	b.n	6844 <system_gclk_gen_set_config+0x4c>
    689e:	46c0      	nop			; (mov r8, r8)
    68a0:	40000c00 	.word	0x40000c00
    68a4:	0000583d 	.word	0x0000583d
    68a8:	40000c08 	.word	0x40000c08
    68ac:	0000587d 	.word	0x0000587d

000068b0 <system_gclk_gen_enable>:
    68b0:	b510      	push	{r4, lr}
    68b2:	0004      	movs	r4, r0
    68b4:	4a0b      	ldr	r2, [pc, #44]	; (68e4 <system_gclk_gen_enable+0x34>)
    68b6:	7853      	ldrb	r3, [r2, #1]
    68b8:	b25b      	sxtb	r3, r3
    68ba:	2b00      	cmp	r3, #0
    68bc:	dbfb      	blt.n	68b6 <system_gclk_gen_enable+0x6>
    68be:	4b0a      	ldr	r3, [pc, #40]	; (68e8 <system_gclk_gen_enable+0x38>)
    68c0:	4798      	blx	r3
    68c2:	4b0a      	ldr	r3, [pc, #40]	; (68ec <system_gclk_gen_enable+0x3c>)
    68c4:	701c      	strb	r4, [r3, #0]
    68c6:	4a07      	ldr	r2, [pc, #28]	; (68e4 <system_gclk_gen_enable+0x34>)
    68c8:	7853      	ldrb	r3, [r2, #1]
    68ca:	b25b      	sxtb	r3, r3
    68cc:	2b00      	cmp	r3, #0
    68ce:	dbfb      	blt.n	68c8 <system_gclk_gen_enable+0x18>
    68d0:	4a04      	ldr	r2, [pc, #16]	; (68e4 <system_gclk_gen_enable+0x34>)
    68d2:	6851      	ldr	r1, [r2, #4]
    68d4:	2380      	movs	r3, #128	; 0x80
    68d6:	025b      	lsls	r3, r3, #9
    68d8:	430b      	orrs	r3, r1
    68da:	6053      	str	r3, [r2, #4]
    68dc:	4b04      	ldr	r3, [pc, #16]	; (68f0 <system_gclk_gen_enable+0x40>)
    68de:	4798      	blx	r3
    68e0:	bd10      	pop	{r4, pc}
    68e2:	46c0      	nop			; (mov r8, r8)
    68e4:	40000c00 	.word	0x40000c00
    68e8:	0000583d 	.word	0x0000583d
    68ec:	40000c04 	.word	0x40000c04
    68f0:	0000587d 	.word	0x0000587d

000068f4 <system_gclk_gen_get_hz>:
    68f4:	b570      	push	{r4, r5, r6, lr}
    68f6:	0004      	movs	r4, r0
    68f8:	4a1a      	ldr	r2, [pc, #104]	; (6964 <system_gclk_gen_get_hz+0x70>)
    68fa:	7853      	ldrb	r3, [r2, #1]
    68fc:	b25b      	sxtb	r3, r3
    68fe:	2b00      	cmp	r3, #0
    6900:	dbfb      	blt.n	68fa <system_gclk_gen_get_hz+0x6>
    6902:	4b19      	ldr	r3, [pc, #100]	; (6968 <system_gclk_gen_get_hz+0x74>)
    6904:	4798      	blx	r3
    6906:	4b19      	ldr	r3, [pc, #100]	; (696c <system_gclk_gen_get_hz+0x78>)
    6908:	701c      	strb	r4, [r3, #0]
    690a:	4a16      	ldr	r2, [pc, #88]	; (6964 <system_gclk_gen_get_hz+0x70>)
    690c:	7853      	ldrb	r3, [r2, #1]
    690e:	b25b      	sxtb	r3, r3
    6910:	2b00      	cmp	r3, #0
    6912:	dbfb      	blt.n	690c <system_gclk_gen_get_hz+0x18>
    6914:	4e13      	ldr	r6, [pc, #76]	; (6964 <system_gclk_gen_get_hz+0x70>)
    6916:	6870      	ldr	r0, [r6, #4]
    6918:	04c0      	lsls	r0, r0, #19
    691a:	0ec0      	lsrs	r0, r0, #27
    691c:	4b14      	ldr	r3, [pc, #80]	; (6970 <system_gclk_gen_get_hz+0x7c>)
    691e:	4798      	blx	r3
    6920:	0005      	movs	r5, r0
    6922:	4b12      	ldr	r3, [pc, #72]	; (696c <system_gclk_gen_get_hz+0x78>)
    6924:	701c      	strb	r4, [r3, #0]
    6926:	6876      	ldr	r6, [r6, #4]
    6928:	02f6      	lsls	r6, r6, #11
    692a:	0ff6      	lsrs	r6, r6, #31
    692c:	4b11      	ldr	r3, [pc, #68]	; (6974 <system_gclk_gen_get_hz+0x80>)
    692e:	701c      	strb	r4, [r3, #0]
    6930:	4a0c      	ldr	r2, [pc, #48]	; (6964 <system_gclk_gen_get_hz+0x70>)
    6932:	7853      	ldrb	r3, [r2, #1]
    6934:	b25b      	sxtb	r3, r3
    6936:	2b00      	cmp	r3, #0
    6938:	dbfb      	blt.n	6932 <system_gclk_gen_get_hz+0x3e>
    693a:	4b0a      	ldr	r3, [pc, #40]	; (6964 <system_gclk_gen_get_hz+0x70>)
    693c:	689c      	ldr	r4, [r3, #8]
    693e:	0224      	lsls	r4, r4, #8
    6940:	0c24      	lsrs	r4, r4, #16
    6942:	4b0d      	ldr	r3, [pc, #52]	; (6978 <system_gclk_gen_get_hz+0x84>)
    6944:	4798      	blx	r3
    6946:	2e00      	cmp	r6, #0
    6948:	d107      	bne.n	695a <system_gclk_gen_get_hz+0x66>
    694a:	2c01      	cmp	r4, #1
    694c:	d907      	bls.n	695e <system_gclk_gen_get_hz+0x6a>
    694e:	0021      	movs	r1, r4
    6950:	0028      	movs	r0, r5
    6952:	4b0a      	ldr	r3, [pc, #40]	; (697c <system_gclk_gen_get_hz+0x88>)
    6954:	4798      	blx	r3
    6956:	0005      	movs	r5, r0
    6958:	e001      	b.n	695e <system_gclk_gen_get_hz+0x6a>
    695a:	3401      	adds	r4, #1
    695c:	40e5      	lsrs	r5, r4
    695e:	0028      	movs	r0, r5
    6960:	bd70      	pop	{r4, r5, r6, pc}
    6962:	46c0      	nop			; (mov r8, r8)
    6964:	40000c00 	.word	0x40000c00
    6968:	0000583d 	.word	0x0000583d
    696c:	40000c04 	.word	0x40000c04
    6970:	00006441 	.word	0x00006441
    6974:	40000c08 	.word	0x40000c08
    6978:	0000587d 	.word	0x0000587d
    697c:	00006f8d 	.word	0x00006f8d

00006980 <system_gclk_chan_enable>:
    6980:	b510      	push	{r4, lr}
    6982:	0004      	movs	r4, r0
    6984:	4b06      	ldr	r3, [pc, #24]	; (69a0 <system_gclk_chan_enable+0x20>)
    6986:	4798      	blx	r3
    6988:	4b06      	ldr	r3, [pc, #24]	; (69a4 <system_gclk_chan_enable+0x24>)
    698a:	701c      	strb	r4, [r3, #0]
    698c:	4a06      	ldr	r2, [pc, #24]	; (69a8 <system_gclk_chan_enable+0x28>)
    698e:	8853      	ldrh	r3, [r2, #2]
    6990:	2180      	movs	r1, #128	; 0x80
    6992:	01c9      	lsls	r1, r1, #7
    6994:	430b      	orrs	r3, r1
    6996:	8053      	strh	r3, [r2, #2]
    6998:	4b04      	ldr	r3, [pc, #16]	; (69ac <system_gclk_chan_enable+0x2c>)
    699a:	4798      	blx	r3
    699c:	bd10      	pop	{r4, pc}
    699e:	46c0      	nop			; (mov r8, r8)
    69a0:	0000583d 	.word	0x0000583d
    69a4:	40000c02 	.word	0x40000c02
    69a8:	40000c00 	.word	0x40000c00
    69ac:	0000587d 	.word	0x0000587d

000069b0 <system_gclk_chan_disable>:
    69b0:	b510      	push	{r4, lr}
    69b2:	0004      	movs	r4, r0
    69b4:	4b0f      	ldr	r3, [pc, #60]	; (69f4 <system_gclk_chan_disable+0x44>)
    69b6:	4798      	blx	r3
    69b8:	4b0f      	ldr	r3, [pc, #60]	; (69f8 <system_gclk_chan_disable+0x48>)
    69ba:	701c      	strb	r4, [r3, #0]
    69bc:	4a0f      	ldr	r2, [pc, #60]	; (69fc <system_gclk_chan_disable+0x4c>)
    69be:	8853      	ldrh	r3, [r2, #2]
    69c0:	051b      	lsls	r3, r3, #20
    69c2:	0f18      	lsrs	r0, r3, #28
    69c4:	8853      	ldrh	r3, [r2, #2]
    69c6:	490e      	ldr	r1, [pc, #56]	; (6a00 <system_gclk_chan_disable+0x50>)
    69c8:	400b      	ands	r3, r1
    69ca:	8053      	strh	r3, [r2, #2]
    69cc:	8853      	ldrh	r3, [r2, #2]
    69ce:	490d      	ldr	r1, [pc, #52]	; (6a04 <system_gclk_chan_disable+0x54>)
    69d0:	400b      	ands	r3, r1
    69d2:	8053      	strh	r3, [r2, #2]
    69d4:	0011      	movs	r1, r2
    69d6:	2280      	movs	r2, #128	; 0x80
    69d8:	01d2      	lsls	r2, r2, #7
    69da:	884b      	ldrh	r3, [r1, #2]
    69dc:	4213      	tst	r3, r2
    69de:	d1fc      	bne.n	69da <system_gclk_chan_disable+0x2a>
    69e0:	4906      	ldr	r1, [pc, #24]	; (69fc <system_gclk_chan_disable+0x4c>)
    69e2:	884a      	ldrh	r2, [r1, #2]
    69e4:	0203      	lsls	r3, r0, #8
    69e6:	4806      	ldr	r0, [pc, #24]	; (6a00 <system_gclk_chan_disable+0x50>)
    69e8:	4002      	ands	r2, r0
    69ea:	4313      	orrs	r3, r2
    69ec:	804b      	strh	r3, [r1, #2]
    69ee:	4b06      	ldr	r3, [pc, #24]	; (6a08 <system_gclk_chan_disable+0x58>)
    69f0:	4798      	blx	r3
    69f2:	bd10      	pop	{r4, pc}
    69f4:	0000583d 	.word	0x0000583d
    69f8:	40000c02 	.word	0x40000c02
    69fc:	40000c00 	.word	0x40000c00
    6a00:	fffff0ff 	.word	0xfffff0ff
    6a04:	ffffbfff 	.word	0xffffbfff
    6a08:	0000587d 	.word	0x0000587d

00006a0c <system_gclk_chan_set_config>:
    6a0c:	b510      	push	{r4, lr}
    6a0e:	780c      	ldrb	r4, [r1, #0]
    6a10:	0224      	lsls	r4, r4, #8
    6a12:	4304      	orrs	r4, r0
    6a14:	4b02      	ldr	r3, [pc, #8]	; (6a20 <system_gclk_chan_set_config+0x14>)
    6a16:	4798      	blx	r3
    6a18:	b2a4      	uxth	r4, r4
    6a1a:	4b02      	ldr	r3, [pc, #8]	; (6a24 <system_gclk_chan_set_config+0x18>)
    6a1c:	805c      	strh	r4, [r3, #2]
    6a1e:	bd10      	pop	{r4, pc}
    6a20:	000069b1 	.word	0x000069b1
    6a24:	40000c00 	.word	0x40000c00

00006a28 <system_gclk_chan_get_hz>:
    6a28:	b510      	push	{r4, lr}
    6a2a:	0004      	movs	r4, r0
    6a2c:	4b06      	ldr	r3, [pc, #24]	; (6a48 <system_gclk_chan_get_hz+0x20>)
    6a2e:	4798      	blx	r3
    6a30:	4b06      	ldr	r3, [pc, #24]	; (6a4c <system_gclk_chan_get_hz+0x24>)
    6a32:	701c      	strb	r4, [r3, #0]
    6a34:	4b06      	ldr	r3, [pc, #24]	; (6a50 <system_gclk_chan_get_hz+0x28>)
    6a36:	885c      	ldrh	r4, [r3, #2]
    6a38:	0524      	lsls	r4, r4, #20
    6a3a:	0f24      	lsrs	r4, r4, #28
    6a3c:	4b05      	ldr	r3, [pc, #20]	; (6a54 <system_gclk_chan_get_hz+0x2c>)
    6a3e:	4798      	blx	r3
    6a40:	0020      	movs	r0, r4
    6a42:	4b05      	ldr	r3, [pc, #20]	; (6a58 <system_gclk_chan_get_hz+0x30>)
    6a44:	4798      	blx	r3
    6a46:	bd10      	pop	{r4, pc}
    6a48:	0000583d 	.word	0x0000583d
    6a4c:	40000c02 	.word	0x40000c02
    6a50:	40000c00 	.word	0x40000c00
    6a54:	0000587d 	.word	0x0000587d
    6a58:	000068f5 	.word	0x000068f5

00006a5c <system_interrupt_clear_pending>:
    6a5c:	2800      	cmp	r0, #0
    6a5e:	db08      	blt.n	6a72 <system_interrupt_clear_pending+0x16>
    6a60:	2301      	movs	r3, #1
    6a62:	4083      	lsls	r3, r0
    6a64:	22c0      	movs	r2, #192	; 0xc0
    6a66:	0052      	lsls	r2, r2, #1
    6a68:	4906      	ldr	r1, [pc, #24]	; (6a84 <system_interrupt_clear_pending+0x28>)
    6a6a:	508b      	str	r3, [r1, r2]
    6a6c:	2300      	movs	r3, #0
    6a6e:	0018      	movs	r0, r3
    6a70:	4770      	bx	lr
    6a72:	2317      	movs	r3, #23
    6a74:	1c42      	adds	r2, r0, #1
    6a76:	d1fa      	bne.n	6a6e <system_interrupt_clear_pending+0x12>
    6a78:	2280      	movs	r2, #128	; 0x80
    6a7a:	0492      	lsls	r2, r2, #18
    6a7c:	4b02      	ldr	r3, [pc, #8]	; (6a88 <system_interrupt_clear_pending+0x2c>)
    6a7e:	605a      	str	r2, [r3, #4]
    6a80:	2300      	movs	r3, #0
    6a82:	e7f4      	b.n	6a6e <system_interrupt_clear_pending+0x12>
    6a84:	e000e100 	.word	0xe000e100
    6a88:	e000ed00 	.word	0xe000ed00

00006a8c <_system_pinmux_config>:
    6a8c:	b530      	push	{r4, r5, lr}
    6a8e:	78d3      	ldrb	r3, [r2, #3]
    6a90:	2b00      	cmp	r3, #0
    6a92:	d135      	bne.n	6b00 <_system_pinmux_config+0x74>
    6a94:	7813      	ldrb	r3, [r2, #0]
    6a96:	2b80      	cmp	r3, #128	; 0x80
    6a98:	d029      	beq.n	6aee <_system_pinmux_config+0x62>
    6a9a:	061b      	lsls	r3, r3, #24
    6a9c:	2480      	movs	r4, #128	; 0x80
    6a9e:	0264      	lsls	r4, r4, #9
    6aa0:	4323      	orrs	r3, r4
    6aa2:	7854      	ldrb	r4, [r2, #1]
    6aa4:	2502      	movs	r5, #2
    6aa6:	43ac      	bics	r4, r5
    6aa8:	d106      	bne.n	6ab8 <_system_pinmux_config+0x2c>
    6aaa:	7894      	ldrb	r4, [r2, #2]
    6aac:	2c00      	cmp	r4, #0
    6aae:	d120      	bne.n	6af2 <_system_pinmux_config+0x66>
    6ab0:	2480      	movs	r4, #128	; 0x80
    6ab2:	02a4      	lsls	r4, r4, #10
    6ab4:	4323      	orrs	r3, r4
    6ab6:	6041      	str	r1, [r0, #4]
    6ab8:	7854      	ldrb	r4, [r2, #1]
    6aba:	3c01      	subs	r4, #1
    6abc:	2c01      	cmp	r4, #1
    6abe:	d91c      	bls.n	6afa <_system_pinmux_config+0x6e>
    6ac0:	040d      	lsls	r5, r1, #16
    6ac2:	0c2d      	lsrs	r5, r5, #16
    6ac4:	24a0      	movs	r4, #160	; 0xa0
    6ac6:	05e4      	lsls	r4, r4, #23
    6ac8:	432c      	orrs	r4, r5
    6aca:	431c      	orrs	r4, r3
    6acc:	6284      	str	r4, [r0, #40]	; 0x28
    6ace:	0c0d      	lsrs	r5, r1, #16
    6ad0:	24d0      	movs	r4, #208	; 0xd0
    6ad2:	0624      	lsls	r4, r4, #24
    6ad4:	432c      	orrs	r4, r5
    6ad6:	431c      	orrs	r4, r3
    6ad8:	6284      	str	r4, [r0, #40]	; 0x28
    6ada:	78d4      	ldrb	r4, [r2, #3]
    6adc:	2c00      	cmp	r4, #0
    6ade:	d122      	bne.n	6b26 <_system_pinmux_config+0x9a>
    6ae0:	035b      	lsls	r3, r3, #13
    6ae2:	d51c      	bpl.n	6b1e <_system_pinmux_config+0x92>
    6ae4:	7893      	ldrb	r3, [r2, #2]
    6ae6:	2b01      	cmp	r3, #1
    6ae8:	d01e      	beq.n	6b28 <_system_pinmux_config+0x9c>
    6aea:	6141      	str	r1, [r0, #20]
    6aec:	e017      	b.n	6b1e <_system_pinmux_config+0x92>
    6aee:	2300      	movs	r3, #0
    6af0:	e7d7      	b.n	6aa2 <_system_pinmux_config+0x16>
    6af2:	24c0      	movs	r4, #192	; 0xc0
    6af4:	02e4      	lsls	r4, r4, #11
    6af6:	4323      	orrs	r3, r4
    6af8:	e7dd      	b.n	6ab6 <_system_pinmux_config+0x2a>
    6afa:	4c0d      	ldr	r4, [pc, #52]	; (6b30 <_system_pinmux_config+0xa4>)
    6afc:	4023      	ands	r3, r4
    6afe:	e7df      	b.n	6ac0 <_system_pinmux_config+0x34>
    6b00:	6041      	str	r1, [r0, #4]
    6b02:	040c      	lsls	r4, r1, #16
    6b04:	0c24      	lsrs	r4, r4, #16
    6b06:	23a0      	movs	r3, #160	; 0xa0
    6b08:	05db      	lsls	r3, r3, #23
    6b0a:	4323      	orrs	r3, r4
    6b0c:	6283      	str	r3, [r0, #40]	; 0x28
    6b0e:	0c0c      	lsrs	r4, r1, #16
    6b10:	23d0      	movs	r3, #208	; 0xd0
    6b12:	061b      	lsls	r3, r3, #24
    6b14:	4323      	orrs	r3, r4
    6b16:	6283      	str	r3, [r0, #40]	; 0x28
    6b18:	78d3      	ldrb	r3, [r2, #3]
    6b1a:	2b00      	cmp	r3, #0
    6b1c:	d103      	bne.n	6b26 <_system_pinmux_config+0x9a>
    6b1e:	7853      	ldrb	r3, [r2, #1]
    6b20:	3b01      	subs	r3, #1
    6b22:	2b01      	cmp	r3, #1
    6b24:	d902      	bls.n	6b2c <_system_pinmux_config+0xa0>
    6b26:	bd30      	pop	{r4, r5, pc}
    6b28:	6181      	str	r1, [r0, #24]
    6b2a:	e7f8      	b.n	6b1e <_system_pinmux_config+0x92>
    6b2c:	6081      	str	r1, [r0, #8]
    6b2e:	e7fa      	b.n	6b26 <_system_pinmux_config+0x9a>
    6b30:	fffbffff 	.word	0xfffbffff

00006b34 <system_pinmux_pin_set_config>:
    6b34:	b510      	push	{r4, lr}
    6b36:	000a      	movs	r2, r1
    6b38:	09c1      	lsrs	r1, r0, #7
    6b3a:	2300      	movs	r3, #0
    6b3c:	2900      	cmp	r1, #0
    6b3e:	d104      	bne.n	6b4a <system_pinmux_pin_set_config+0x16>
    6b40:	0943      	lsrs	r3, r0, #5
    6b42:	01db      	lsls	r3, r3, #7
    6b44:	4905      	ldr	r1, [pc, #20]	; (6b5c <system_pinmux_pin_set_config+0x28>)
    6b46:	468c      	mov	ip, r1
    6b48:	4463      	add	r3, ip
    6b4a:	241f      	movs	r4, #31
    6b4c:	4020      	ands	r0, r4
    6b4e:	2101      	movs	r1, #1
    6b50:	4081      	lsls	r1, r0
    6b52:	0018      	movs	r0, r3
    6b54:	4b02      	ldr	r3, [pc, #8]	; (6b60 <system_pinmux_pin_set_config+0x2c>)
    6b56:	4798      	blx	r3
    6b58:	bd10      	pop	{r4, pc}
    6b5a:	46c0      	nop			; (mov r8, r8)
    6b5c:	41004400 	.word	0x41004400
    6b60:	00006a8d 	.word	0x00006a8d

00006b64 <_system_dummy_init>:
    6b64:	4770      	bx	lr
	...

00006b68 <system_init>:
    6b68:	b510      	push	{r4, lr}
    6b6a:	4b05      	ldr	r3, [pc, #20]	; (6b80 <system_init+0x18>)
    6b6c:	4798      	blx	r3
    6b6e:	4b05      	ldr	r3, [pc, #20]	; (6b84 <system_init+0x1c>)
    6b70:	4798      	blx	r3
    6b72:	4b05      	ldr	r3, [pc, #20]	; (6b88 <system_init+0x20>)
    6b74:	4798      	blx	r3
    6b76:	4b05      	ldr	r3, [pc, #20]	; (6b8c <system_init+0x24>)
    6b78:	4798      	blx	r3
    6b7a:	4b05      	ldr	r3, [pc, #20]	; (6b90 <system_init+0x28>)
    6b7c:	4798      	blx	r3
    6b7e:	bd10      	pop	{r4, pc}
    6b80:	0000665d 	.word	0x0000665d
    6b84:	000058ad 	.word	0x000058ad
    6b88:	00006b65 	.word	0x00006b65
    6b8c:	00005951 	.word	0x00005951
    6b90:	00006b65 	.word	0x00006b65

00006b94 <_tcc_interrupt_handler>:
    6b94:	b5f0      	push	{r4, r5, r6, r7, lr}
    6b96:	46c6      	mov	lr, r8
    6b98:	b500      	push	{lr}
    6b9a:	0080      	lsls	r0, r0, #2
    6b9c:	4b0e      	ldr	r3, [pc, #56]	; (6bd8 <_tcc_interrupt_handler+0x44>)
    6b9e:	58c7      	ldr	r7, [r0, r3]
    6ba0:	683b      	ldr	r3, [r7, #0]
    6ba2:	6ade      	ldr	r6, [r3, #44]	; 0x2c
    6ba4:	6bbb      	ldr	r3, [r7, #56]	; 0x38
    6ba6:	6b7a      	ldr	r2, [r7, #52]	; 0x34
    6ba8:	4013      	ands	r3, r2
    6baa:	401e      	ands	r6, r3
    6bac:	2400      	movs	r4, #0
    6bae:	4b0b      	ldr	r3, [pc, #44]	; (6bdc <_tcc_interrupt_handler+0x48>)
    6bb0:	4698      	mov	r8, r3
    6bb2:	e002      	b.n	6bba <_tcc_interrupt_handler+0x26>
    6bb4:	3404      	adds	r4, #4
    6bb6:	2c30      	cmp	r4, #48	; 0x30
    6bb8:	d00a      	beq.n	6bd0 <_tcc_interrupt_handler+0x3c>
    6bba:	4643      	mov	r3, r8
    6bbc:	58e5      	ldr	r5, [r4, r3]
    6bbe:	4235      	tst	r5, r6
    6bc0:	d0f8      	beq.n	6bb4 <_tcc_interrupt_handler+0x20>
    6bc2:	193b      	adds	r3, r7, r4
    6bc4:	685b      	ldr	r3, [r3, #4]
    6bc6:	0038      	movs	r0, r7
    6bc8:	4798      	blx	r3
    6bca:	683b      	ldr	r3, [r7, #0]
    6bcc:	62dd      	str	r5, [r3, #44]	; 0x2c
    6bce:	e7f1      	b.n	6bb4 <_tcc_interrupt_handler+0x20>
    6bd0:	bc04      	pop	{r2}
    6bd2:	4690      	mov	r8, r2
    6bd4:	bdf0      	pop	{r4, r5, r6, r7, pc}
    6bd6:	46c0      	nop			; (mov r8, r8)
    6bd8:	20004e74 	.word	0x20004e74
    6bdc:	0000a850 	.word	0x0000a850

00006be0 <TCC0_Handler>:
    6be0:	b510      	push	{r4, lr}
    6be2:	2000      	movs	r0, #0
    6be4:	4b01      	ldr	r3, [pc, #4]	; (6bec <TCC0_Handler+0xc>)
    6be6:	4798      	blx	r3
    6be8:	bd10      	pop	{r4, pc}
    6bea:	46c0      	nop			; (mov r8, r8)
    6bec:	00006b95 	.word	0x00006b95

00006bf0 <TCC1_Handler>:
    6bf0:	b510      	push	{r4, lr}
    6bf2:	2001      	movs	r0, #1
    6bf4:	4b01      	ldr	r3, [pc, #4]	; (6bfc <TCC1_Handler+0xc>)
    6bf6:	4798      	blx	r3
    6bf8:	bd10      	pop	{r4, pc}
    6bfa:	46c0      	nop			; (mov r8, r8)
    6bfc:	00006b95 	.word	0x00006b95

00006c00 <TCC2_Handler>:
    6c00:	b510      	push	{r4, lr}
    6c02:	2002      	movs	r0, #2
    6c04:	4b01      	ldr	r3, [pc, #4]	; (6c0c <TCC2_Handler+0xc>)
    6c06:	4798      	blx	r3
    6c08:	bd10      	pop	{r4, pc}
    6c0a:	46c0      	nop			; (mov r8, r8)
    6c0c:	00006b95 	.word	0x00006b95

00006c10 <Dummy_Handler>:
    6c10:	2004      	movs	r0, #4
    6c12:	4671      	mov	r1, lr
    6c14:	4208      	tst	r0, r1
    6c16:	d002      	beq.n	6c1e <_MSP>
    6c18:	f3ef 8009 	mrs	r0, PSP
    6c1c:	e001      	b.n	6c22 <_HALT>

00006c1e <_MSP>:
    6c1e:	f3ef 8008 	mrs	r0, MSP

00006c22 <_HALT>:
    6c22:	6941      	ldr	r1, [r0, #20]
    6c24:	e074      	b.n	6d10 <HardFault_HandlerC>
    6c26:	be00      	bkpt	0x0000
    6c28:	4770      	bx	lr
	...

00006c2c <Reset_Handler>:
    6c2c:	b5f8      	push	{r3, r4, r5, r6, r7, lr}
    6c2e:	4a2a      	ldr	r2, [pc, #168]	; (6cd8 <Reset_Handler+0xac>)
    6c30:	4b2a      	ldr	r3, [pc, #168]	; (6cdc <Reset_Handler+0xb0>)
    6c32:	429a      	cmp	r2, r3
    6c34:	d011      	beq.n	6c5a <Reset_Handler+0x2e>
    6c36:	001a      	movs	r2, r3
    6c38:	4b29      	ldr	r3, [pc, #164]	; (6ce0 <Reset_Handler+0xb4>)
    6c3a:	429a      	cmp	r2, r3
    6c3c:	d20d      	bcs.n	6c5a <Reset_Handler+0x2e>
    6c3e:	4a29      	ldr	r2, [pc, #164]	; (6ce4 <Reset_Handler+0xb8>)
    6c40:	3303      	adds	r3, #3
    6c42:	1a9b      	subs	r3, r3, r2
    6c44:	089b      	lsrs	r3, r3, #2
    6c46:	3301      	adds	r3, #1
    6c48:	009b      	lsls	r3, r3, #2
    6c4a:	2200      	movs	r2, #0
    6c4c:	4823      	ldr	r0, [pc, #140]	; (6cdc <Reset_Handler+0xb0>)
    6c4e:	4922      	ldr	r1, [pc, #136]	; (6cd8 <Reset_Handler+0xac>)
    6c50:	588c      	ldr	r4, [r1, r2]
    6c52:	5084      	str	r4, [r0, r2]
    6c54:	3204      	adds	r2, #4
    6c56:	429a      	cmp	r2, r3
    6c58:	d1fa      	bne.n	6c50 <Reset_Handler+0x24>
    6c5a:	4a23      	ldr	r2, [pc, #140]	; (6ce8 <Reset_Handler+0xbc>)
    6c5c:	4b23      	ldr	r3, [pc, #140]	; (6cec <Reset_Handler+0xc0>)
    6c5e:	429a      	cmp	r2, r3
    6c60:	d20a      	bcs.n	6c78 <Reset_Handler+0x4c>
    6c62:	43d3      	mvns	r3, r2
    6c64:	4921      	ldr	r1, [pc, #132]	; (6cec <Reset_Handler+0xc0>)
    6c66:	185b      	adds	r3, r3, r1
    6c68:	2103      	movs	r1, #3
    6c6a:	438b      	bics	r3, r1
    6c6c:	3304      	adds	r3, #4
    6c6e:	189b      	adds	r3, r3, r2
    6c70:	2100      	movs	r1, #0
    6c72:	c202      	stmia	r2!, {r1}
    6c74:	4293      	cmp	r3, r2
    6c76:	d1fc      	bne.n	6c72 <Reset_Handler+0x46>
    6c78:	4a1d      	ldr	r2, [pc, #116]	; (6cf0 <Reset_Handler+0xc4>)
    6c7a:	21ff      	movs	r1, #255	; 0xff
    6c7c:	4b1d      	ldr	r3, [pc, #116]	; (6cf4 <Reset_Handler+0xc8>)
    6c7e:	438b      	bics	r3, r1
    6c80:	6093      	str	r3, [r2, #8]
    6c82:	39fd      	subs	r1, #253	; 0xfd
    6c84:	2390      	movs	r3, #144	; 0x90
    6c86:	005b      	lsls	r3, r3, #1
    6c88:	4a1b      	ldr	r2, [pc, #108]	; (6cf8 <Reset_Handler+0xcc>)
    6c8a:	50d1      	str	r1, [r2, r3]
    6c8c:	4a1b      	ldr	r2, [pc, #108]	; (6cfc <Reset_Handler+0xd0>)
    6c8e:	78d3      	ldrb	r3, [r2, #3]
    6c90:	2503      	movs	r5, #3
    6c92:	43ab      	bics	r3, r5
    6c94:	2402      	movs	r4, #2
    6c96:	4323      	orrs	r3, r4
    6c98:	70d3      	strb	r3, [r2, #3]
    6c9a:	78d3      	ldrb	r3, [r2, #3]
    6c9c:	270c      	movs	r7, #12
    6c9e:	43bb      	bics	r3, r7
    6ca0:	2608      	movs	r6, #8
    6ca2:	4333      	orrs	r3, r6
    6ca4:	70d3      	strb	r3, [r2, #3]
    6ca6:	4b16      	ldr	r3, [pc, #88]	; (6d00 <Reset_Handler+0xd4>)
    6ca8:	7b98      	ldrb	r0, [r3, #14]
    6caa:	2230      	movs	r2, #48	; 0x30
    6cac:	4390      	bics	r0, r2
    6cae:	2220      	movs	r2, #32
    6cb0:	4310      	orrs	r0, r2
    6cb2:	7398      	strb	r0, [r3, #14]
    6cb4:	7b99      	ldrb	r1, [r3, #14]
    6cb6:	43b9      	bics	r1, r7
    6cb8:	4331      	orrs	r1, r6
    6cba:	7399      	strb	r1, [r3, #14]
    6cbc:	7b9a      	ldrb	r2, [r3, #14]
    6cbe:	43aa      	bics	r2, r5
    6cc0:	4322      	orrs	r2, r4
    6cc2:	739a      	strb	r2, [r3, #14]
    6cc4:	4a0f      	ldr	r2, [pc, #60]	; (6d04 <Reset_Handler+0xd8>)
    6cc6:	6853      	ldr	r3, [r2, #4]
    6cc8:	2180      	movs	r1, #128	; 0x80
    6cca:	430b      	orrs	r3, r1
    6ccc:	6053      	str	r3, [r2, #4]
    6cce:	4b0e      	ldr	r3, [pc, #56]	; (6d08 <Reset_Handler+0xdc>)
    6cd0:	4798      	blx	r3
    6cd2:	4b0e      	ldr	r3, [pc, #56]	; (6d0c <Reset_Handler+0xe0>)
    6cd4:	4798      	blx	r3
    6cd6:	e7fe      	b.n	6cd6 <Reset_Handler+0xaa>
    6cd8:	0000acc4 	.word	0x0000acc4
    6cdc:	20000000 	.word	0x20000000
    6ce0:	20000200 	.word	0x20000200
    6ce4:	20000004 	.word	0x20000004
    6ce8:	20000200 	.word	0x20000200
    6cec:	20004fc4 	.word	0x20004fc4
    6cf0:	e000ed00 	.word	0xe000ed00
    6cf4:	00000000 	.word	0x00000000
    6cf8:	41007000 	.word	0x41007000
    6cfc:	41005000 	.word	0x41005000
    6d00:	41004800 	.word	0x41004800
    6d04:	41004000 	.word	0x41004000
    6d08:	00008ce1 	.word	0x00008ce1
    6d0c:	00006d99 	.word	0x00006d99

00006d10 <HardFault_HandlerC>:
    6d10:	b08e      	sub	sp, #56	; 0x38
    6d12:	6803      	ldr	r3, [r0, #0]
    6d14:	930d      	str	r3, [sp, #52]	; 0x34
    6d16:	6843      	ldr	r3, [r0, #4]
    6d18:	930c      	str	r3, [sp, #48]	; 0x30
    6d1a:	6883      	ldr	r3, [r0, #8]
    6d1c:	930b      	str	r3, [sp, #44]	; 0x2c
    6d1e:	68c3      	ldr	r3, [r0, #12]
    6d20:	930a      	str	r3, [sp, #40]	; 0x28
    6d22:	6903      	ldr	r3, [r0, #16]
    6d24:	9309      	str	r3, [sp, #36]	; 0x24
    6d26:	6943      	ldr	r3, [r0, #20]
    6d28:	9308      	str	r3, [sp, #32]
    6d2a:	6983      	ldr	r3, [r0, #24]
    6d2c:	9307      	str	r3, [sp, #28]
    6d2e:	69c3      	ldr	r3, [r0, #28]
    6d30:	9306      	str	r3, [sp, #24]
    6d32:	4b0a      	ldr	r3, [pc, #40]	; (6d5c <HardFault_HandlerC+0x4c>)
    6d34:	681b      	ldr	r3, [r3, #0]
    6d36:	9305      	str	r3, [sp, #20]
    6d38:	4b09      	ldr	r3, [pc, #36]	; (6d60 <HardFault_HandlerC+0x50>)
    6d3a:	681b      	ldr	r3, [r3, #0]
    6d3c:	9304      	str	r3, [sp, #16]
    6d3e:	4b09      	ldr	r3, [pc, #36]	; (6d64 <HardFault_HandlerC+0x54>)
    6d40:	681b      	ldr	r3, [r3, #0]
    6d42:	9303      	str	r3, [sp, #12]
    6d44:	4b08      	ldr	r3, [pc, #32]	; (6d68 <HardFault_HandlerC+0x58>)
    6d46:	681b      	ldr	r3, [r3, #0]
    6d48:	9302      	str	r3, [sp, #8]
    6d4a:	4b08      	ldr	r3, [pc, #32]	; (6d6c <HardFault_HandlerC+0x5c>)
    6d4c:	681b      	ldr	r3, [r3, #0]
    6d4e:	9300      	str	r3, [sp, #0]
    6d50:	4b07      	ldr	r3, [pc, #28]	; (6d70 <HardFault_HandlerC+0x60>)
    6d52:	681b      	ldr	r3, [r3, #0]
    6d54:	9301      	str	r3, [sp, #4]
    6d56:	be00      	bkpt	0x0000
    6d58:	b00e      	add	sp, #56	; 0x38
    6d5a:	4770      	bx	lr
    6d5c:	e000ed28 	.word	0xe000ed28
    6d60:	e000ed2c 	.word	0xe000ed2c
    6d64:	e000ed30 	.word	0xe000ed30
    6d68:	e000ed3c 	.word	0xe000ed3c
    6d6c:	e000ed34 	.word	0xe000ed34
    6d70:	e000ed38 	.word	0xe000ed38

00006d74 <_sbrk>:
    6d74:	0003      	movs	r3, r0
    6d76:	4a06      	ldr	r2, [pc, #24]	; (6d90 <_sbrk+0x1c>)
    6d78:	6812      	ldr	r2, [r2, #0]
    6d7a:	2a00      	cmp	r2, #0
    6d7c:	d004      	beq.n	6d88 <_sbrk+0x14>
    6d7e:	4a04      	ldr	r2, [pc, #16]	; (6d90 <_sbrk+0x1c>)
    6d80:	6810      	ldr	r0, [r2, #0]
    6d82:	18c3      	adds	r3, r0, r3
    6d84:	6013      	str	r3, [r2, #0]
    6d86:	4770      	bx	lr
    6d88:	4902      	ldr	r1, [pc, #8]	; (6d94 <_sbrk+0x20>)
    6d8a:	4a01      	ldr	r2, [pc, #4]	; (6d90 <_sbrk+0x1c>)
    6d8c:	6011      	str	r1, [r2, #0]
    6d8e:	e7f6      	b.n	6d7e <_sbrk+0xa>
    6d90:	20003850 	.word	0x20003850
    6d94:	20006fc8 	.word	0x20006fc8

00006d98 <main>:
 * Application entry point.
 *
 * \return program return value.
 */
int main(void)
{
    6d98:	b510      	push	{r4, lr}
	/* Initialize the board. */
	system_init();
    6d9a:	4b05      	ldr	r3, [pc, #20]	; (6db0 <main+0x18>)
    6d9c:	4798      	blx	r3

	/* Initialize the UART console. */
	InitializeSerialConsole();
    6d9e:	4b05      	ldr	r3, [pc, #20]	; (6db4 <main+0x1c>)
    6da0:	4798      	blx	r3

	//Initialize trace capabilities
	 vTraceEnable(TRC_START);
    6da2:	2001      	movs	r0, #1
    6da4:	4b04      	ldr	r3, [pc, #16]	; (6db8 <main+0x20>)
    6da6:	4798      	blx	r3
    // Start FreeRTOS scheduler
    vTaskStartScheduler();
    6da8:	4b04      	ldr	r3, [pc, #16]	; (6dbc <main+0x24>)
    6daa:	4798      	blx	r3

	return 0; //Will not get here
}
    6dac:	2000      	movs	r0, #0
    6dae:	bd10      	pop	{r4, pc}
    6db0:	00006b69 	.word	0x00006b69
    6db4:	00005625 	.word	0x00005625
    6db8:	00001d45 	.word	0x00001d45
    6dbc:	000045e5 	.word	0x000045e5

00006dc0 <vApplicationDaemonTaskStartupHook>:
* @param[in]        None
* @return           None
*****************************************************************************/
volatile uint8_t data[256];
void vApplicationDaemonTaskStartupHook(void)
{
    6dc0:	b570      	push	{r4, r5, r6, lr}
    6dc2:	b084      	sub	sp, #16

SerialConsoleWriteString("\r\n\r\n-----ESE516 Main Program-----\r\n");
    6dc4:	4846      	ldr	r0, [pc, #280]	; (6ee0 <vApplicationDaemonTaskStartupHook+0x120>)
    6dc6:	4c47      	ldr	r4, [pc, #284]	; (6ee4 <vApplicationDaemonTaskStartupHook+0x124>)
    6dc8:	47a0      	blx	r4

//Initialize HW that needs FreeRTOS Initialization
SerialConsoleWriteString("\r\n\r\nInitialize HW...\r\n");
    6dca:	4847      	ldr	r0, [pc, #284]	; (6ee8 <vApplicationDaemonTaskStartupHook+0x128>)
    6dcc:	47a0      	blx	r4
	if (I2cInitializeDriver() != STATUS_OK)
    6dce:	4b47      	ldr	r3, [pc, #284]	; (6eec <vApplicationDaemonTaskStartupHook+0x12c>)
    6dd0:	4798      	blx	r3
    6dd2:	2800      	cmp	r0, #0
    6dd4:	d100      	bne.n	6dd8 <vApplicationDaemonTaskStartupHook+0x18>
    6dd6:	e06b      	b.n	6eb0 <vApplicationDaemonTaskStartupHook+0xf0>
	{
		SerialConsoleWriteString("Error initializing I2C Driver!\r\n");
    6dd8:	4845      	ldr	r0, [pc, #276]	; (6ef0 <vApplicationDaemonTaskStartupHook+0x130>)
    6dda:	4b42      	ldr	r3, [pc, #264]	; (6ee4 <vApplicationDaemonTaskStartupHook+0x124>)
    6ddc:	4798      	blx	r3
	else
	{
		SerialConsoleWriteString("Initialized I2C Driver!\r\n");
	}

	if(0 != InitializeSeesaw())
    6dde:	4b45      	ldr	r3, [pc, #276]	; (6ef4 <vApplicationDaemonTaskStartupHook+0x134>)
    6de0:	4798      	blx	r3
    6de2:	2800      	cmp	r0, #0
    6de4:	d068      	beq.n	6eb8 <vApplicationDaemonTaskStartupHook+0xf8>
	{
		SerialConsoleWriteString("Error initializing Seesaw!\r\n");
    6de6:	4844      	ldr	r0, [pc, #272]	; (6ef8 <vApplicationDaemonTaskStartupHook+0x138>)
    6de8:	4b3e      	ldr	r3, [pc, #248]	; (6ee4 <vApplicationDaemonTaskStartupHook+0x124>)
    6dea:	4798      	blx	r3
	else
	{
		SerialConsoleWriteString("Initialized Seesaw!\r\n");
	}

	uint8_t whoamI = 0;
    6dec:	240f      	movs	r4, #15
    6dee:	446c      	add	r4, sp
    6df0:	2300      	movs	r3, #0
    6df2:	7023      	strb	r3, [r4, #0]
	(lsm6dso_device_id_get(GetImuStruct(), &whoamI));
    6df4:	4b41      	ldr	r3, [pc, #260]	; (6efc <vApplicationDaemonTaskStartupHook+0x13c>)
    6df6:	4798      	blx	r3
    6df8:	0021      	movs	r1, r4
    6dfa:	4b41      	ldr	r3, [pc, #260]	; (6f00 <vApplicationDaemonTaskStartupHook+0x140>)
    6dfc:	4798      	blx	r3
	
	snprintf(bufferPrint, 64, "the IMU ID is: %d\r\n", whoamI);
    6dfe:	7823      	ldrb	r3, [r4, #0]
    6e00:	4d40      	ldr	r5, [pc, #256]	; (6f04 <vApplicationDaemonTaskStartupHook+0x144>)
    6e02:	4a41      	ldr	r2, [pc, #260]	; (6f08 <vApplicationDaemonTaskStartupHook+0x148>)
    6e04:	2140      	movs	r1, #64	; 0x40
    6e06:	0028      	movs	r0, r5
    6e08:	4e40      	ldr	r6, [pc, #256]	; (6f0c <vApplicationDaemonTaskStartupHook+0x14c>)
    6e0a:	47b0      	blx	r6
	SerialConsoleWriteString(bufferPrint);
    6e0c:	0028      	movs	r0, r5
    6e0e:	4b35      	ldr	r3, [pc, #212]	; (6ee4 <vApplicationDaemonTaskStartupHook+0x124>)
    6e10:	4798      	blx	r3
	
	if (whoamI != LSM6DSO_ID){
    6e12:	7823      	ldrb	r3, [r4, #0]
    6e14:	2b6c      	cmp	r3, #108	; 0x6c
    6e16:	d053      	beq.n	6ec0 <vApplicationDaemonTaskStartupHook+0x100>
		SerialConsoleWriteString("Cannot find IMU!\r\n");
    6e18:	483d      	ldr	r0, [pc, #244]	; (6f10 <vApplicationDaemonTaskStartupHook+0x150>)
    6e1a:	4b32      	ldr	r3, [pc, #200]	; (6ee4 <vApplicationDaemonTaskStartupHook+0x124>)
    6e1c:	4798      	blx	r3
* @return           None
*****************************************************************************/
static void StartTasks(void)
{

snprintf(bufferPrint, 64, "Heap before starting tasks: %d\r\n", xPortGetFreeHeapSize());
    6e1e:	4b3d      	ldr	r3, [pc, #244]	; (6f14 <vApplicationDaemonTaskStartupHook+0x154>)
    6e20:	4798      	blx	r3
    6e22:	0003      	movs	r3, r0
    6e24:	4c37      	ldr	r4, [pc, #220]	; (6f04 <vApplicationDaemonTaskStartupHook+0x144>)
    6e26:	4a3c      	ldr	r2, [pc, #240]	; (6f18 <vApplicationDaemonTaskStartupHook+0x158>)
    6e28:	2140      	movs	r1, #64	; 0x40
    6e2a:	0020      	movs	r0, r4
    6e2c:	4d37      	ldr	r5, [pc, #220]	; (6f0c <vApplicationDaemonTaskStartupHook+0x14c>)
    6e2e:	47a8      	blx	r5
SerialConsoleWriteString(bufferPrint);
    6e30:	0020      	movs	r0, r4
    6e32:	4b2c      	ldr	r3, [pc, #176]	; (6ee4 <vApplicationDaemonTaskStartupHook+0x124>)
    6e34:	4798      	blx	r3

//Initialize Tasks here

if (xTaskCreate(vCommandConsoleTask, "CLI_TASK", CLI_TASK_SIZE, NULL, CLI_PRIORITY, &cliTaskHandle) != pdPASS) {
    6e36:	4b39      	ldr	r3, [pc, #228]	; (6f1c <vApplicationDaemonTaskStartupHook+0x15c>)
    6e38:	9301      	str	r3, [sp, #4]
    6e3a:	2304      	movs	r3, #4
    6e3c:	9300      	str	r3, [sp, #0]
    6e3e:	2300      	movs	r3, #0
    6e40:	22c8      	movs	r2, #200	; 0xc8
    6e42:	0052      	lsls	r2, r2, #1
    6e44:	4936      	ldr	r1, [pc, #216]	; (6f20 <vApplicationDaemonTaskStartupHook+0x160>)
    6e46:	4837      	ldr	r0, [pc, #220]	; (6f24 <vApplicationDaemonTaskStartupHook+0x164>)
    6e48:	4c37      	ldr	r4, [pc, #220]	; (6f28 <vApplicationDaemonTaskStartupHook+0x168>)
    6e4a:	47a0      	blx	r4
    6e4c:	2801      	cmp	r0, #1
    6e4e:	d002      	beq.n	6e56 <vApplicationDaemonTaskStartupHook+0x96>
	SerialConsoleWriteString("ERR: CLI task could not be initialized!\r\n");
    6e50:	4836      	ldr	r0, [pc, #216]	; (6f2c <vApplicationDaemonTaskStartupHook+0x16c>)
    6e52:	4b24      	ldr	r3, [pc, #144]	; (6ee4 <vApplicationDaemonTaskStartupHook+0x124>)
    6e54:	4798      	blx	r3
}

snprintf(bufferPrint, 64, "Heap after starting CLI: %d\r\n", xPortGetFreeHeapSize());
    6e56:	4b2f      	ldr	r3, [pc, #188]	; (6f14 <vApplicationDaemonTaskStartupHook+0x154>)
    6e58:	4798      	blx	r3
    6e5a:	0003      	movs	r3, r0
    6e5c:	4c29      	ldr	r4, [pc, #164]	; (6f04 <vApplicationDaemonTaskStartupHook+0x144>)
    6e5e:	4a34      	ldr	r2, [pc, #208]	; (6f30 <vApplicationDaemonTaskStartupHook+0x170>)
    6e60:	2140      	movs	r1, #64	; 0x40
    6e62:	0020      	movs	r0, r4
    6e64:	4d29      	ldr	r5, [pc, #164]	; (6f0c <vApplicationDaemonTaskStartupHook+0x14c>)
    6e66:	47a8      	blx	r5
SerialConsoleWriteString(bufferPrint);
    6e68:	0020      	movs	r0, r4
    6e6a:	4b1e      	ldr	r3, [pc, #120]	; (6ee4 <vApplicationDaemonTaskStartupHook+0x124>)
    6e6c:	4798      	blx	r3



if(xTaskCreate(vUiHandlerTask, "UI Task", UI_TASK_SIZE, NULL, UI_TASK_PRIORITY, &uiTaskHandle) != pdPASS) {
    6e6e:	4b31      	ldr	r3, [pc, #196]	; (6f34 <vApplicationDaemonTaskStartupHook+0x174>)
    6e70:	9301      	str	r3, [sp, #4]
    6e72:	2303      	movs	r3, #3
    6e74:	9300      	str	r3, [sp, #0]
    6e76:	2300      	movs	r3, #0
    6e78:	2280      	movs	r2, #128	; 0x80
    6e7a:	0052      	lsls	r2, r2, #1
    6e7c:	492e      	ldr	r1, [pc, #184]	; (6f38 <vApplicationDaemonTaskStartupHook+0x178>)
    6e7e:	482f      	ldr	r0, [pc, #188]	; (6f3c <vApplicationDaemonTaskStartupHook+0x17c>)
    6e80:	4c29      	ldr	r4, [pc, #164]	; (6f28 <vApplicationDaemonTaskStartupHook+0x168>)
    6e82:	47a0      	blx	r4
    6e84:	2801      	cmp	r0, #1
    6e86:	d002      	beq.n	6e8e <vApplicationDaemonTaskStartupHook+0xce>
	SerialConsoleWriteString("ERR: UI task could not be initialized!\r\n");
    6e88:	482d      	ldr	r0, [pc, #180]	; (6f40 <vApplicationDaemonTaskStartupHook+0x180>)
    6e8a:	4b16      	ldr	r3, [pc, #88]	; (6ee4 <vApplicationDaemonTaskStartupHook+0x124>)
    6e8c:	4798      	blx	r3
}

snprintf(bufferPrint, 64, "Heap after starting UI Task: %d\r\n", xPortGetFreeHeapSize());
    6e8e:	4b21      	ldr	r3, [pc, #132]	; (6f14 <vApplicationDaemonTaskStartupHook+0x154>)
    6e90:	4798      	blx	r3
    6e92:	0003      	movs	r3, r0
    6e94:	4c1b      	ldr	r4, [pc, #108]	; (6f04 <vApplicationDaemonTaskStartupHook+0x144>)
    6e96:	4a2b      	ldr	r2, [pc, #172]	; (6f44 <vApplicationDaemonTaskStartupHook+0x184>)
    6e98:	2140      	movs	r1, #64	; 0x40
    6e9a:	0020      	movs	r0, r4
    6e9c:	4d1b      	ldr	r5, [pc, #108]	; (6f0c <vApplicationDaemonTaskStartupHook+0x14c>)
    6e9e:	47a8      	blx	r5
SerialConsoleWriteString(bufferPrint);
    6ea0:	0020      	movs	r0, r4
    6ea2:	4b10      	ldr	r3, [pc, #64]	; (6ee4 <vApplicationDaemonTaskStartupHook+0x124>)
    6ea4:	4798      	blx	r3
	vTaskSuspend(daemonTaskHandle);
    6ea6:	2000      	movs	r0, #0
    6ea8:	4b27      	ldr	r3, [pc, #156]	; (6f48 <vApplicationDaemonTaskStartupHook+0x188>)
    6eaa:	4798      	blx	r3
}
    6eac:	b004      	add	sp, #16
    6eae:	bd70      	pop	{r4, r5, r6, pc}
		SerialConsoleWriteString("Initialized I2C Driver!\r\n");
    6eb0:	4826      	ldr	r0, [pc, #152]	; (6f4c <vApplicationDaemonTaskStartupHook+0x18c>)
    6eb2:	4b0c      	ldr	r3, [pc, #48]	; (6ee4 <vApplicationDaemonTaskStartupHook+0x124>)
    6eb4:	4798      	blx	r3
    6eb6:	e792      	b.n	6dde <vApplicationDaemonTaskStartupHook+0x1e>
		SerialConsoleWriteString("Initialized Seesaw!\r\n");
    6eb8:	4825      	ldr	r0, [pc, #148]	; (6f50 <vApplicationDaemonTaskStartupHook+0x190>)
    6eba:	4b0a      	ldr	r3, [pc, #40]	; (6ee4 <vApplicationDaemonTaskStartupHook+0x124>)
    6ebc:	4798      	blx	r3
    6ebe:	e795      	b.n	6dec <vApplicationDaemonTaskStartupHook+0x2c>
		SerialConsoleWriteString("IMU found!\r\n");
    6ec0:	4824      	ldr	r0, [pc, #144]	; (6f54 <vApplicationDaemonTaskStartupHook+0x194>)
    6ec2:	4b08      	ldr	r3, [pc, #32]	; (6ee4 <vApplicationDaemonTaskStartupHook+0x124>)
    6ec4:	4798      	blx	r3
		if(InitImu() == 0)
    6ec6:	4b24      	ldr	r3, [pc, #144]	; (6f58 <vApplicationDaemonTaskStartupHook+0x198>)
    6ec8:	4798      	blx	r3
    6eca:	2800      	cmp	r0, #0
    6ecc:	d003      	beq.n	6ed6 <vApplicationDaemonTaskStartupHook+0x116>
			SerialConsoleWriteString("Could not initialize IMU\r\n");
    6ece:	4823      	ldr	r0, [pc, #140]	; (6f5c <vApplicationDaemonTaskStartupHook+0x19c>)
    6ed0:	4b04      	ldr	r3, [pc, #16]	; (6ee4 <vApplicationDaemonTaskStartupHook+0x124>)
    6ed2:	4798      	blx	r3
    6ed4:	e7a3      	b.n	6e1e <vApplicationDaemonTaskStartupHook+0x5e>
			SerialConsoleWriteString("IMU initialized!\r\n");
    6ed6:	4822      	ldr	r0, [pc, #136]	; (6f60 <vApplicationDaemonTaskStartupHook+0x1a0>)
    6ed8:	4b02      	ldr	r3, [pc, #8]	; (6ee4 <vApplicationDaemonTaskStartupHook+0x124>)
    6eda:	4798      	blx	r3
    6edc:	e79f      	b.n	6e1e <vApplicationDaemonTaskStartupHook+0x5e>
    6ede:	46c0      	nop			; (mov r8, r8)
    6ee0:	0000a880 	.word	0x0000a880
    6ee4:	0000574d 	.word	0x0000574d
    6ee8:	0000a8a4 	.word	0x0000a8a4
    6eec:	000009d1 	.word	0x000009d1
    6ef0:	0000a8bc 	.word	0x0000a8bc
    6ef4:	00001461 	.word	0x00001461
    6ef8:	00009924 	.word	0x00009924
    6efc:	0000130d 	.word	0x0000130d
    6f00:	00000ef5 	.word	0x00000ef5
    6f04:	20004f80 	.word	0x20004f80
    6f08:	0000a914 	.word	0x0000a914
    6f0c:	00008ed5 	.word	0x00008ed5
    6f10:	0000a928 	.word	0x0000a928
    6f14:	00003051 	.word	0x00003051
    6f18:	0000a97c 	.word	0x0000a97c
    6f1c:	20003854 	.word	0x20003854
    6f20:	0000a9a0 	.word	0x0000a9a0
    6f24:	0000066d 	.word	0x0000066d
    6f28:	00004341 	.word	0x00004341
    6f2c:	0000a9ac 	.word	0x0000a9ac
    6f30:	0000a9d8 	.word	0x0000a9d8
    6f34:	20003858 	.word	0x20003858
    6f38:	0000a9f8 	.word	0x0000a9f8
    6f3c:	00001611 	.word	0x00001611
    6f40:	0000aa00 	.word	0x0000aa00
    6f44:	0000aa2c 	.word	0x0000aa2c
    6f48:	00004ac9 	.word	0x00004ac9
    6f4c:	0000a8e0 	.word	0x0000a8e0
    6f50:	0000a8fc 	.word	0x0000a8fc
    6f54:	0000a93c 	.word	0x0000a93c
    6f58:	00001315 	.word	0x00001315
    6f5c:	0000a960 	.word	0x0000a960
    6f60:	0000a94c 	.word	0x0000a94c

00006f64 <vApplicationMallocFailedHook>:




void vApplicationMallocFailedHook(void)
{
    6f64:	b510      	push	{r4, lr}
SerialConsoleWriteString("Error on memory allocation on FREERTOS!\r\n");
    6f66:	4802      	ldr	r0, [pc, #8]	; (6f70 <vApplicationMallocFailedHook+0xc>)
    6f68:	4b02      	ldr	r3, [pc, #8]	; (6f74 <vApplicationMallocFailedHook+0x10>)
    6f6a:	4798      	blx	r3
    6f6c:	e7fe      	b.n	6f6c <vApplicationMallocFailedHook+0x8>
    6f6e:	46c0      	nop			; (mov r8, r8)
    6f70:	0000aa50 	.word	0x0000aa50
    6f74:	0000574d 	.word	0x0000574d

00006f78 <vApplicationStackOverflowHook>:
while(1);
}

void vApplicationStackOverflowHook(void)
{
    6f78:	b510      	push	{r4, lr}
SerialConsoleWriteString("Error on stack overflow on FREERTOS!\r\n");
    6f7a:	4802      	ldr	r0, [pc, #8]	; (6f84 <vApplicationStackOverflowHook+0xc>)
    6f7c:	4b02      	ldr	r3, [pc, #8]	; (6f88 <vApplicationStackOverflowHook+0x10>)
    6f7e:	4798      	blx	r3
    6f80:	e7fe      	b.n	6f80 <vApplicationStackOverflowHook+0x8>
    6f82:	46c0      	nop			; (mov r8, r8)
    6f84:	0000aa7c 	.word	0x0000aa7c
    6f88:	0000574d 	.word	0x0000574d

00006f8c <__udivsi3>:
    6f8c:	2200      	movs	r2, #0
    6f8e:	0843      	lsrs	r3, r0, #1
    6f90:	428b      	cmp	r3, r1
    6f92:	d374      	bcc.n	707e <__udivsi3+0xf2>
    6f94:	0903      	lsrs	r3, r0, #4
    6f96:	428b      	cmp	r3, r1
    6f98:	d35f      	bcc.n	705a <__udivsi3+0xce>
    6f9a:	0a03      	lsrs	r3, r0, #8
    6f9c:	428b      	cmp	r3, r1
    6f9e:	d344      	bcc.n	702a <__udivsi3+0x9e>
    6fa0:	0b03      	lsrs	r3, r0, #12
    6fa2:	428b      	cmp	r3, r1
    6fa4:	d328      	bcc.n	6ff8 <__udivsi3+0x6c>
    6fa6:	0c03      	lsrs	r3, r0, #16
    6fa8:	428b      	cmp	r3, r1
    6faa:	d30d      	bcc.n	6fc8 <__udivsi3+0x3c>
    6fac:	22ff      	movs	r2, #255	; 0xff
    6fae:	0209      	lsls	r1, r1, #8
    6fb0:	ba12      	rev	r2, r2
    6fb2:	0c03      	lsrs	r3, r0, #16
    6fb4:	428b      	cmp	r3, r1
    6fb6:	d302      	bcc.n	6fbe <__udivsi3+0x32>
    6fb8:	1212      	asrs	r2, r2, #8
    6fba:	0209      	lsls	r1, r1, #8
    6fbc:	d065      	beq.n	708a <__udivsi3+0xfe>
    6fbe:	0b03      	lsrs	r3, r0, #12
    6fc0:	428b      	cmp	r3, r1
    6fc2:	d319      	bcc.n	6ff8 <__udivsi3+0x6c>
    6fc4:	e000      	b.n	6fc8 <__udivsi3+0x3c>
    6fc6:	0a09      	lsrs	r1, r1, #8
    6fc8:	0bc3      	lsrs	r3, r0, #15
    6fca:	428b      	cmp	r3, r1
    6fcc:	d301      	bcc.n	6fd2 <__udivsi3+0x46>
    6fce:	03cb      	lsls	r3, r1, #15
    6fd0:	1ac0      	subs	r0, r0, r3
    6fd2:	4152      	adcs	r2, r2
    6fd4:	0b83      	lsrs	r3, r0, #14
    6fd6:	428b      	cmp	r3, r1
    6fd8:	d301      	bcc.n	6fde <__udivsi3+0x52>
    6fda:	038b      	lsls	r3, r1, #14
    6fdc:	1ac0      	subs	r0, r0, r3
    6fde:	4152      	adcs	r2, r2
    6fe0:	0b43      	lsrs	r3, r0, #13
    6fe2:	428b      	cmp	r3, r1
    6fe4:	d301      	bcc.n	6fea <__udivsi3+0x5e>
    6fe6:	034b      	lsls	r3, r1, #13
    6fe8:	1ac0      	subs	r0, r0, r3
    6fea:	4152      	adcs	r2, r2
    6fec:	0b03      	lsrs	r3, r0, #12
    6fee:	428b      	cmp	r3, r1
    6ff0:	d301      	bcc.n	6ff6 <__udivsi3+0x6a>
    6ff2:	030b      	lsls	r3, r1, #12
    6ff4:	1ac0      	subs	r0, r0, r3
    6ff6:	4152      	adcs	r2, r2
    6ff8:	0ac3      	lsrs	r3, r0, #11
    6ffa:	428b      	cmp	r3, r1
    6ffc:	d301      	bcc.n	7002 <__udivsi3+0x76>
    6ffe:	02cb      	lsls	r3, r1, #11
    7000:	1ac0      	subs	r0, r0, r3
    7002:	4152      	adcs	r2, r2
    7004:	0a83      	lsrs	r3, r0, #10
    7006:	428b      	cmp	r3, r1
    7008:	d301      	bcc.n	700e <__udivsi3+0x82>
    700a:	028b      	lsls	r3, r1, #10
    700c:	1ac0      	subs	r0, r0, r3
    700e:	4152      	adcs	r2, r2
    7010:	0a43      	lsrs	r3, r0, #9
    7012:	428b      	cmp	r3, r1
    7014:	d301      	bcc.n	701a <__udivsi3+0x8e>
    7016:	024b      	lsls	r3, r1, #9
    7018:	1ac0      	subs	r0, r0, r3
    701a:	4152      	adcs	r2, r2
    701c:	0a03      	lsrs	r3, r0, #8
    701e:	428b      	cmp	r3, r1
    7020:	d301      	bcc.n	7026 <__udivsi3+0x9a>
    7022:	020b      	lsls	r3, r1, #8
    7024:	1ac0      	subs	r0, r0, r3
    7026:	4152      	adcs	r2, r2
    7028:	d2cd      	bcs.n	6fc6 <__udivsi3+0x3a>
    702a:	09c3      	lsrs	r3, r0, #7
    702c:	428b      	cmp	r3, r1
    702e:	d301      	bcc.n	7034 <__udivsi3+0xa8>
    7030:	01cb      	lsls	r3, r1, #7
    7032:	1ac0      	subs	r0, r0, r3
    7034:	4152      	adcs	r2, r2
    7036:	0983      	lsrs	r3, r0, #6
    7038:	428b      	cmp	r3, r1
    703a:	d301      	bcc.n	7040 <__udivsi3+0xb4>
    703c:	018b      	lsls	r3, r1, #6
    703e:	1ac0      	subs	r0, r0, r3
    7040:	4152      	adcs	r2, r2
    7042:	0943      	lsrs	r3, r0, #5
    7044:	428b      	cmp	r3, r1
    7046:	d301      	bcc.n	704c <__udivsi3+0xc0>
    7048:	014b      	lsls	r3, r1, #5
    704a:	1ac0      	subs	r0, r0, r3
    704c:	4152      	adcs	r2, r2
    704e:	0903      	lsrs	r3, r0, #4
    7050:	428b      	cmp	r3, r1
    7052:	d301      	bcc.n	7058 <__udivsi3+0xcc>
    7054:	010b      	lsls	r3, r1, #4
    7056:	1ac0      	subs	r0, r0, r3
    7058:	4152      	adcs	r2, r2
    705a:	08c3      	lsrs	r3, r0, #3
    705c:	428b      	cmp	r3, r1
    705e:	d301      	bcc.n	7064 <__udivsi3+0xd8>
    7060:	00cb      	lsls	r3, r1, #3
    7062:	1ac0      	subs	r0, r0, r3
    7064:	4152      	adcs	r2, r2
    7066:	0883      	lsrs	r3, r0, #2
    7068:	428b      	cmp	r3, r1
    706a:	d301      	bcc.n	7070 <__udivsi3+0xe4>
    706c:	008b      	lsls	r3, r1, #2
    706e:	1ac0      	subs	r0, r0, r3
    7070:	4152      	adcs	r2, r2
    7072:	0843      	lsrs	r3, r0, #1
    7074:	428b      	cmp	r3, r1
    7076:	d301      	bcc.n	707c <__udivsi3+0xf0>
    7078:	004b      	lsls	r3, r1, #1
    707a:	1ac0      	subs	r0, r0, r3
    707c:	4152      	adcs	r2, r2
    707e:	1a41      	subs	r1, r0, r1
    7080:	d200      	bcs.n	7084 <__udivsi3+0xf8>
    7082:	4601      	mov	r1, r0
    7084:	4152      	adcs	r2, r2
    7086:	4610      	mov	r0, r2
    7088:	4770      	bx	lr
    708a:	e7ff      	b.n	708c <__udivsi3+0x100>
    708c:	b501      	push	{r0, lr}
    708e:	2000      	movs	r0, #0
    7090:	f000 f806 	bl	70a0 <__aeabi_idiv0>
    7094:	bd02      	pop	{r1, pc}
    7096:	46c0      	nop			; (mov r8, r8)

00007098 <__aeabi_uidivmod>:
    7098:	2900      	cmp	r1, #0
    709a:	d0f7      	beq.n	708c <__udivsi3+0x100>
    709c:	e776      	b.n	6f8c <__udivsi3>
    709e:	4770      	bx	lr

000070a0 <__aeabi_idiv0>:
    70a0:	4770      	bx	lr
    70a2:	46c0      	nop			; (mov r8, r8)

000070a4 <__aeabi_lmul>:
    70a4:	b5f0      	push	{r4, r5, r6, r7, lr}
    70a6:	46ce      	mov	lr, r9
    70a8:	4647      	mov	r7, r8
    70aa:	0415      	lsls	r5, r2, #16
    70ac:	0c2d      	lsrs	r5, r5, #16
    70ae:	002e      	movs	r6, r5
    70b0:	b580      	push	{r7, lr}
    70b2:	0407      	lsls	r7, r0, #16
    70b4:	0c14      	lsrs	r4, r2, #16
    70b6:	0c3f      	lsrs	r7, r7, #16
    70b8:	4699      	mov	r9, r3
    70ba:	0c03      	lsrs	r3, r0, #16
    70bc:	437e      	muls	r6, r7
    70be:	435d      	muls	r5, r3
    70c0:	4367      	muls	r7, r4
    70c2:	4363      	muls	r3, r4
    70c4:	197f      	adds	r7, r7, r5
    70c6:	0c34      	lsrs	r4, r6, #16
    70c8:	19e4      	adds	r4, r4, r7
    70ca:	469c      	mov	ip, r3
    70cc:	42a5      	cmp	r5, r4
    70ce:	d903      	bls.n	70d8 <__aeabi_lmul+0x34>
    70d0:	2380      	movs	r3, #128	; 0x80
    70d2:	025b      	lsls	r3, r3, #9
    70d4:	4698      	mov	r8, r3
    70d6:	44c4      	add	ip, r8
    70d8:	464b      	mov	r3, r9
    70da:	4351      	muls	r1, r2
    70dc:	4343      	muls	r3, r0
    70de:	0436      	lsls	r6, r6, #16
    70e0:	0c36      	lsrs	r6, r6, #16
    70e2:	0c25      	lsrs	r5, r4, #16
    70e4:	0424      	lsls	r4, r4, #16
    70e6:	4465      	add	r5, ip
    70e8:	19a4      	adds	r4, r4, r6
    70ea:	1859      	adds	r1, r3, r1
    70ec:	1949      	adds	r1, r1, r5
    70ee:	0020      	movs	r0, r4
    70f0:	bc0c      	pop	{r2, r3}
    70f2:	4690      	mov	r8, r2
    70f4:	4699      	mov	r9, r3
    70f6:	bdf0      	pop	{r4, r5, r6, r7, pc}

000070f8 <__aeabi_fmul>:
    70f8:	b5f8      	push	{r3, r4, r5, r6, r7, lr}
    70fa:	4657      	mov	r7, sl
    70fc:	464e      	mov	r6, r9
    70fe:	4645      	mov	r5, r8
    7100:	46de      	mov	lr, fp
    7102:	b5e0      	push	{r5, r6, r7, lr}
    7104:	0247      	lsls	r7, r0, #9
    7106:	0046      	lsls	r6, r0, #1
    7108:	4688      	mov	r8, r1
    710a:	0a7f      	lsrs	r7, r7, #9
    710c:	0e36      	lsrs	r6, r6, #24
    710e:	0fc4      	lsrs	r4, r0, #31
    7110:	2e00      	cmp	r6, #0
    7112:	d047      	beq.n	71a4 <__aeabi_fmul+0xac>
    7114:	2eff      	cmp	r6, #255	; 0xff
    7116:	d024      	beq.n	7162 <__aeabi_fmul+0x6a>
    7118:	00fb      	lsls	r3, r7, #3
    711a:	2780      	movs	r7, #128	; 0x80
    711c:	04ff      	lsls	r7, r7, #19
    711e:	431f      	orrs	r7, r3
    7120:	2300      	movs	r3, #0
    7122:	4699      	mov	r9, r3
    7124:	469a      	mov	sl, r3
    7126:	3e7f      	subs	r6, #127	; 0x7f
    7128:	4643      	mov	r3, r8
    712a:	025d      	lsls	r5, r3, #9
    712c:	0058      	lsls	r0, r3, #1
    712e:	0fdb      	lsrs	r3, r3, #31
    7130:	0a6d      	lsrs	r5, r5, #9
    7132:	0e00      	lsrs	r0, r0, #24
    7134:	4698      	mov	r8, r3
    7136:	d043      	beq.n	71c0 <__aeabi_fmul+0xc8>
    7138:	28ff      	cmp	r0, #255	; 0xff
    713a:	d03b      	beq.n	71b4 <__aeabi_fmul+0xbc>
    713c:	00eb      	lsls	r3, r5, #3
    713e:	2580      	movs	r5, #128	; 0x80
    7140:	2200      	movs	r2, #0
    7142:	04ed      	lsls	r5, r5, #19
    7144:	431d      	orrs	r5, r3
    7146:	387f      	subs	r0, #127	; 0x7f
    7148:	1836      	adds	r6, r6, r0
    714a:	1c73      	adds	r3, r6, #1
    714c:	4641      	mov	r1, r8
    714e:	469b      	mov	fp, r3
    7150:	464b      	mov	r3, r9
    7152:	4061      	eors	r1, r4
    7154:	4313      	orrs	r3, r2
    7156:	2b0f      	cmp	r3, #15
    7158:	d864      	bhi.n	7224 <__aeabi_fmul+0x12c>
    715a:	4875      	ldr	r0, [pc, #468]	; (7330 <__aeabi_fmul+0x238>)
    715c:	009b      	lsls	r3, r3, #2
    715e:	58c3      	ldr	r3, [r0, r3]
    7160:	469f      	mov	pc, r3
    7162:	2f00      	cmp	r7, #0
    7164:	d142      	bne.n	71ec <__aeabi_fmul+0xf4>
    7166:	2308      	movs	r3, #8
    7168:	4699      	mov	r9, r3
    716a:	3b06      	subs	r3, #6
    716c:	26ff      	movs	r6, #255	; 0xff
    716e:	469a      	mov	sl, r3
    7170:	e7da      	b.n	7128 <__aeabi_fmul+0x30>
    7172:	4641      	mov	r1, r8
    7174:	2a02      	cmp	r2, #2
    7176:	d028      	beq.n	71ca <__aeabi_fmul+0xd2>
    7178:	2a03      	cmp	r2, #3
    717a:	d100      	bne.n	717e <__aeabi_fmul+0x86>
    717c:	e0ce      	b.n	731c <__aeabi_fmul+0x224>
    717e:	2a01      	cmp	r2, #1
    7180:	d000      	beq.n	7184 <__aeabi_fmul+0x8c>
    7182:	e0ac      	b.n	72de <__aeabi_fmul+0x1e6>
    7184:	4011      	ands	r1, r2
    7186:	2000      	movs	r0, #0
    7188:	2200      	movs	r2, #0
    718a:	b2cc      	uxtb	r4, r1
    718c:	0240      	lsls	r0, r0, #9
    718e:	05d2      	lsls	r2, r2, #23
    7190:	0a40      	lsrs	r0, r0, #9
    7192:	07e4      	lsls	r4, r4, #31
    7194:	4310      	orrs	r0, r2
    7196:	4320      	orrs	r0, r4
    7198:	bc3c      	pop	{r2, r3, r4, r5}
    719a:	4690      	mov	r8, r2
    719c:	4699      	mov	r9, r3
    719e:	46a2      	mov	sl, r4
    71a0:	46ab      	mov	fp, r5
    71a2:	bdf8      	pop	{r3, r4, r5, r6, r7, pc}
    71a4:	2f00      	cmp	r7, #0
    71a6:	d115      	bne.n	71d4 <__aeabi_fmul+0xdc>
    71a8:	2304      	movs	r3, #4
    71aa:	4699      	mov	r9, r3
    71ac:	3b03      	subs	r3, #3
    71ae:	2600      	movs	r6, #0
    71b0:	469a      	mov	sl, r3
    71b2:	e7b9      	b.n	7128 <__aeabi_fmul+0x30>
    71b4:	20ff      	movs	r0, #255	; 0xff
    71b6:	2202      	movs	r2, #2
    71b8:	2d00      	cmp	r5, #0
    71ba:	d0c5      	beq.n	7148 <__aeabi_fmul+0x50>
    71bc:	2203      	movs	r2, #3
    71be:	e7c3      	b.n	7148 <__aeabi_fmul+0x50>
    71c0:	2d00      	cmp	r5, #0
    71c2:	d119      	bne.n	71f8 <__aeabi_fmul+0x100>
    71c4:	2000      	movs	r0, #0
    71c6:	2201      	movs	r2, #1
    71c8:	e7be      	b.n	7148 <__aeabi_fmul+0x50>
    71ca:	2401      	movs	r4, #1
    71cc:	22ff      	movs	r2, #255	; 0xff
    71ce:	400c      	ands	r4, r1
    71d0:	2000      	movs	r0, #0
    71d2:	e7db      	b.n	718c <__aeabi_fmul+0x94>
    71d4:	0038      	movs	r0, r7
    71d6:	f001 fd65 	bl	8ca4 <__clzsi2>
    71da:	2676      	movs	r6, #118	; 0x76
    71dc:	1f43      	subs	r3, r0, #5
    71de:	409f      	lsls	r7, r3
    71e0:	2300      	movs	r3, #0
    71e2:	4276      	negs	r6, r6
    71e4:	1a36      	subs	r6, r6, r0
    71e6:	4699      	mov	r9, r3
    71e8:	469a      	mov	sl, r3
    71ea:	e79d      	b.n	7128 <__aeabi_fmul+0x30>
    71ec:	230c      	movs	r3, #12
    71ee:	4699      	mov	r9, r3
    71f0:	3b09      	subs	r3, #9
    71f2:	26ff      	movs	r6, #255	; 0xff
    71f4:	469a      	mov	sl, r3
    71f6:	e797      	b.n	7128 <__aeabi_fmul+0x30>
    71f8:	0028      	movs	r0, r5
    71fa:	f001 fd53 	bl	8ca4 <__clzsi2>
    71fe:	1f43      	subs	r3, r0, #5
    7200:	409d      	lsls	r5, r3
    7202:	2376      	movs	r3, #118	; 0x76
    7204:	425b      	negs	r3, r3
    7206:	1a18      	subs	r0, r3, r0
    7208:	2200      	movs	r2, #0
    720a:	e79d      	b.n	7148 <__aeabi_fmul+0x50>
    720c:	2080      	movs	r0, #128	; 0x80
    720e:	2400      	movs	r4, #0
    7210:	03c0      	lsls	r0, r0, #15
    7212:	22ff      	movs	r2, #255	; 0xff
    7214:	e7ba      	b.n	718c <__aeabi_fmul+0x94>
    7216:	003d      	movs	r5, r7
    7218:	4652      	mov	r2, sl
    721a:	e7ab      	b.n	7174 <__aeabi_fmul+0x7c>
    721c:	003d      	movs	r5, r7
    721e:	0021      	movs	r1, r4
    7220:	4652      	mov	r2, sl
    7222:	e7a7      	b.n	7174 <__aeabi_fmul+0x7c>
    7224:	0c3b      	lsrs	r3, r7, #16
    7226:	469c      	mov	ip, r3
    7228:	042a      	lsls	r2, r5, #16
    722a:	0c12      	lsrs	r2, r2, #16
    722c:	0c2b      	lsrs	r3, r5, #16
    722e:	0014      	movs	r4, r2
    7230:	4660      	mov	r0, ip
    7232:	4665      	mov	r5, ip
    7234:	043f      	lsls	r7, r7, #16
    7236:	0c3f      	lsrs	r7, r7, #16
    7238:	437c      	muls	r4, r7
    723a:	4342      	muls	r2, r0
    723c:	435d      	muls	r5, r3
    723e:	437b      	muls	r3, r7
    7240:	0c27      	lsrs	r7, r4, #16
    7242:	189b      	adds	r3, r3, r2
    7244:	18ff      	adds	r7, r7, r3
    7246:	42ba      	cmp	r2, r7
    7248:	d903      	bls.n	7252 <__aeabi_fmul+0x15a>
    724a:	2380      	movs	r3, #128	; 0x80
    724c:	025b      	lsls	r3, r3, #9
    724e:	469c      	mov	ip, r3
    7250:	4465      	add	r5, ip
    7252:	0424      	lsls	r4, r4, #16
    7254:	043a      	lsls	r2, r7, #16
    7256:	0c24      	lsrs	r4, r4, #16
    7258:	1912      	adds	r2, r2, r4
    725a:	0193      	lsls	r3, r2, #6
    725c:	1e5c      	subs	r4, r3, #1
    725e:	41a3      	sbcs	r3, r4
    7260:	0c3f      	lsrs	r7, r7, #16
    7262:	0e92      	lsrs	r2, r2, #26
    7264:	197d      	adds	r5, r7, r5
    7266:	431a      	orrs	r2, r3
    7268:	01ad      	lsls	r5, r5, #6
    726a:	4315      	orrs	r5, r2
    726c:	012b      	lsls	r3, r5, #4
    726e:	d504      	bpl.n	727a <__aeabi_fmul+0x182>
    7270:	2301      	movs	r3, #1
    7272:	465e      	mov	r6, fp
    7274:	086a      	lsrs	r2, r5, #1
    7276:	401d      	ands	r5, r3
    7278:	4315      	orrs	r5, r2
    727a:	0032      	movs	r2, r6
    727c:	327f      	adds	r2, #127	; 0x7f
    727e:	2a00      	cmp	r2, #0
    7280:	dd25      	ble.n	72ce <__aeabi_fmul+0x1d6>
    7282:	076b      	lsls	r3, r5, #29
    7284:	d004      	beq.n	7290 <__aeabi_fmul+0x198>
    7286:	230f      	movs	r3, #15
    7288:	402b      	ands	r3, r5
    728a:	2b04      	cmp	r3, #4
    728c:	d000      	beq.n	7290 <__aeabi_fmul+0x198>
    728e:	3504      	adds	r5, #4
    7290:	012b      	lsls	r3, r5, #4
    7292:	d503      	bpl.n	729c <__aeabi_fmul+0x1a4>
    7294:	0032      	movs	r2, r6
    7296:	4b27      	ldr	r3, [pc, #156]	; (7334 <__aeabi_fmul+0x23c>)
    7298:	3280      	adds	r2, #128	; 0x80
    729a:	401d      	ands	r5, r3
    729c:	2afe      	cmp	r2, #254	; 0xfe
    729e:	dc94      	bgt.n	71ca <__aeabi_fmul+0xd2>
    72a0:	2401      	movs	r4, #1
    72a2:	01a8      	lsls	r0, r5, #6
    72a4:	0a40      	lsrs	r0, r0, #9
    72a6:	b2d2      	uxtb	r2, r2
    72a8:	400c      	ands	r4, r1
    72aa:	e76f      	b.n	718c <__aeabi_fmul+0x94>
    72ac:	2080      	movs	r0, #128	; 0x80
    72ae:	03c0      	lsls	r0, r0, #15
    72b0:	4207      	tst	r7, r0
    72b2:	d007      	beq.n	72c4 <__aeabi_fmul+0x1cc>
    72b4:	4205      	tst	r5, r0
    72b6:	d105      	bne.n	72c4 <__aeabi_fmul+0x1cc>
    72b8:	4328      	orrs	r0, r5
    72ba:	0240      	lsls	r0, r0, #9
    72bc:	0a40      	lsrs	r0, r0, #9
    72be:	4644      	mov	r4, r8
    72c0:	22ff      	movs	r2, #255	; 0xff
    72c2:	e763      	b.n	718c <__aeabi_fmul+0x94>
    72c4:	4338      	orrs	r0, r7
    72c6:	0240      	lsls	r0, r0, #9
    72c8:	0a40      	lsrs	r0, r0, #9
    72ca:	22ff      	movs	r2, #255	; 0xff
    72cc:	e75e      	b.n	718c <__aeabi_fmul+0x94>
    72ce:	2401      	movs	r4, #1
    72d0:	1aa3      	subs	r3, r4, r2
    72d2:	2b1b      	cmp	r3, #27
    72d4:	dd05      	ble.n	72e2 <__aeabi_fmul+0x1ea>
    72d6:	400c      	ands	r4, r1
    72d8:	2200      	movs	r2, #0
    72da:	2000      	movs	r0, #0
    72dc:	e756      	b.n	718c <__aeabi_fmul+0x94>
    72de:	465e      	mov	r6, fp
    72e0:	e7cb      	b.n	727a <__aeabi_fmul+0x182>
    72e2:	002a      	movs	r2, r5
    72e4:	2020      	movs	r0, #32
    72e6:	40da      	lsrs	r2, r3
    72e8:	1ac3      	subs	r3, r0, r3
    72ea:	409d      	lsls	r5, r3
    72ec:	002b      	movs	r3, r5
    72ee:	1e5d      	subs	r5, r3, #1
    72f0:	41ab      	sbcs	r3, r5
    72f2:	4313      	orrs	r3, r2
    72f4:	075a      	lsls	r2, r3, #29
    72f6:	d004      	beq.n	7302 <__aeabi_fmul+0x20a>
    72f8:	220f      	movs	r2, #15
    72fa:	401a      	ands	r2, r3
    72fc:	2a04      	cmp	r2, #4
    72fe:	d000      	beq.n	7302 <__aeabi_fmul+0x20a>
    7300:	3304      	adds	r3, #4
    7302:	015a      	lsls	r2, r3, #5
    7304:	d504      	bpl.n	7310 <__aeabi_fmul+0x218>
    7306:	2401      	movs	r4, #1
    7308:	2201      	movs	r2, #1
    730a:	400c      	ands	r4, r1
    730c:	2000      	movs	r0, #0
    730e:	e73d      	b.n	718c <__aeabi_fmul+0x94>
    7310:	2401      	movs	r4, #1
    7312:	019b      	lsls	r3, r3, #6
    7314:	0a58      	lsrs	r0, r3, #9
    7316:	400c      	ands	r4, r1
    7318:	2200      	movs	r2, #0
    731a:	e737      	b.n	718c <__aeabi_fmul+0x94>
    731c:	2080      	movs	r0, #128	; 0x80
    731e:	2401      	movs	r4, #1
    7320:	03c0      	lsls	r0, r0, #15
    7322:	4328      	orrs	r0, r5
    7324:	0240      	lsls	r0, r0, #9
    7326:	0a40      	lsrs	r0, r0, #9
    7328:	400c      	ands	r4, r1
    732a:	22ff      	movs	r2, #255	; 0xff
    732c:	e72e      	b.n	718c <__aeabi_fmul+0x94>
    732e:	46c0      	nop			; (mov r8, r8)
    7330:	0000aaa4 	.word	0x0000aaa4
    7334:	f7ffffff 	.word	0xf7ffffff

00007338 <__aeabi_f2iz>:
    7338:	0241      	lsls	r1, r0, #9
    733a:	0043      	lsls	r3, r0, #1
    733c:	0fc2      	lsrs	r2, r0, #31
    733e:	0a49      	lsrs	r1, r1, #9
    7340:	0e1b      	lsrs	r3, r3, #24
    7342:	2000      	movs	r0, #0
    7344:	2b7e      	cmp	r3, #126	; 0x7e
    7346:	dd0d      	ble.n	7364 <__aeabi_f2iz+0x2c>
    7348:	2b9d      	cmp	r3, #157	; 0x9d
    734a:	dc0c      	bgt.n	7366 <__aeabi_f2iz+0x2e>
    734c:	2080      	movs	r0, #128	; 0x80
    734e:	0400      	lsls	r0, r0, #16
    7350:	4301      	orrs	r1, r0
    7352:	2b95      	cmp	r3, #149	; 0x95
    7354:	dc0a      	bgt.n	736c <__aeabi_f2iz+0x34>
    7356:	2096      	movs	r0, #150	; 0x96
    7358:	1ac3      	subs	r3, r0, r3
    735a:	40d9      	lsrs	r1, r3
    735c:	4248      	negs	r0, r1
    735e:	2a00      	cmp	r2, #0
    7360:	d100      	bne.n	7364 <__aeabi_f2iz+0x2c>
    7362:	0008      	movs	r0, r1
    7364:	4770      	bx	lr
    7366:	4b03      	ldr	r3, [pc, #12]	; (7374 <__aeabi_f2iz+0x3c>)
    7368:	18d0      	adds	r0, r2, r3
    736a:	e7fb      	b.n	7364 <__aeabi_f2iz+0x2c>
    736c:	3b96      	subs	r3, #150	; 0x96
    736e:	4099      	lsls	r1, r3
    7370:	e7f4      	b.n	735c <__aeabi_f2iz+0x24>
    7372:	46c0      	nop			; (mov r8, r8)
    7374:	7fffffff 	.word	0x7fffffff

00007378 <__aeabi_i2f>:
    7378:	b570      	push	{r4, r5, r6, lr}
    737a:	2800      	cmp	r0, #0
    737c:	d030      	beq.n	73e0 <__aeabi_i2f+0x68>
    737e:	17c3      	asrs	r3, r0, #31
    7380:	18c4      	adds	r4, r0, r3
    7382:	405c      	eors	r4, r3
    7384:	0fc5      	lsrs	r5, r0, #31
    7386:	0020      	movs	r0, r4
    7388:	f001 fc8c 	bl	8ca4 <__clzsi2>
    738c:	239e      	movs	r3, #158	; 0x9e
    738e:	1a1b      	subs	r3, r3, r0
    7390:	2b96      	cmp	r3, #150	; 0x96
    7392:	dc0d      	bgt.n	73b0 <__aeabi_i2f+0x38>
    7394:	2296      	movs	r2, #150	; 0x96
    7396:	1ad2      	subs	r2, r2, r3
    7398:	4094      	lsls	r4, r2
    739a:	002a      	movs	r2, r5
    739c:	0264      	lsls	r4, r4, #9
    739e:	0a64      	lsrs	r4, r4, #9
    73a0:	b2db      	uxtb	r3, r3
    73a2:	0264      	lsls	r4, r4, #9
    73a4:	05db      	lsls	r3, r3, #23
    73a6:	0a60      	lsrs	r0, r4, #9
    73a8:	07d2      	lsls	r2, r2, #31
    73aa:	4318      	orrs	r0, r3
    73ac:	4310      	orrs	r0, r2
    73ae:	bd70      	pop	{r4, r5, r6, pc}
    73b0:	2b99      	cmp	r3, #153	; 0x99
    73b2:	dc19      	bgt.n	73e8 <__aeabi_i2f+0x70>
    73b4:	2299      	movs	r2, #153	; 0x99
    73b6:	1ad2      	subs	r2, r2, r3
    73b8:	2a00      	cmp	r2, #0
    73ba:	dd29      	ble.n	7410 <__aeabi_i2f+0x98>
    73bc:	4094      	lsls	r4, r2
    73be:	0022      	movs	r2, r4
    73c0:	4c14      	ldr	r4, [pc, #80]	; (7414 <__aeabi_i2f+0x9c>)
    73c2:	4014      	ands	r4, r2
    73c4:	0751      	lsls	r1, r2, #29
    73c6:	d004      	beq.n	73d2 <__aeabi_i2f+0x5a>
    73c8:	210f      	movs	r1, #15
    73ca:	400a      	ands	r2, r1
    73cc:	2a04      	cmp	r2, #4
    73ce:	d000      	beq.n	73d2 <__aeabi_i2f+0x5a>
    73d0:	3404      	adds	r4, #4
    73d2:	0162      	lsls	r2, r4, #5
    73d4:	d413      	bmi.n	73fe <__aeabi_i2f+0x86>
    73d6:	01a4      	lsls	r4, r4, #6
    73d8:	0a64      	lsrs	r4, r4, #9
    73da:	b2db      	uxtb	r3, r3
    73dc:	002a      	movs	r2, r5
    73de:	e7e0      	b.n	73a2 <__aeabi_i2f+0x2a>
    73e0:	2200      	movs	r2, #0
    73e2:	2300      	movs	r3, #0
    73e4:	2400      	movs	r4, #0
    73e6:	e7dc      	b.n	73a2 <__aeabi_i2f+0x2a>
    73e8:	2205      	movs	r2, #5
    73ea:	0021      	movs	r1, r4
    73ec:	1a12      	subs	r2, r2, r0
    73ee:	40d1      	lsrs	r1, r2
    73f0:	22b9      	movs	r2, #185	; 0xb9
    73f2:	1ad2      	subs	r2, r2, r3
    73f4:	4094      	lsls	r4, r2
    73f6:	1e62      	subs	r2, r4, #1
    73f8:	4194      	sbcs	r4, r2
    73fa:	430c      	orrs	r4, r1
    73fc:	e7da      	b.n	73b4 <__aeabi_i2f+0x3c>
    73fe:	4b05      	ldr	r3, [pc, #20]	; (7414 <__aeabi_i2f+0x9c>)
    7400:	002a      	movs	r2, r5
    7402:	401c      	ands	r4, r3
    7404:	239f      	movs	r3, #159	; 0x9f
    7406:	01a4      	lsls	r4, r4, #6
    7408:	1a1b      	subs	r3, r3, r0
    740a:	0a64      	lsrs	r4, r4, #9
    740c:	b2db      	uxtb	r3, r3
    740e:	e7c8      	b.n	73a2 <__aeabi_i2f+0x2a>
    7410:	0022      	movs	r2, r4
    7412:	e7d5      	b.n	73c0 <__aeabi_i2f+0x48>
    7414:	fbffffff 	.word	0xfbffffff

00007418 <__aeabi_dadd>:
    7418:	b5f8      	push	{r3, r4, r5, r6, r7, lr}
    741a:	4645      	mov	r5, r8
    741c:	46de      	mov	lr, fp
    741e:	4657      	mov	r7, sl
    7420:	464e      	mov	r6, r9
    7422:	030c      	lsls	r4, r1, #12
    7424:	b5e0      	push	{r5, r6, r7, lr}
    7426:	004e      	lsls	r6, r1, #1
    7428:	0fc9      	lsrs	r1, r1, #31
    742a:	4688      	mov	r8, r1
    742c:	000d      	movs	r5, r1
    742e:	0a61      	lsrs	r1, r4, #9
    7430:	0f44      	lsrs	r4, r0, #29
    7432:	430c      	orrs	r4, r1
    7434:	00c7      	lsls	r7, r0, #3
    7436:	0319      	lsls	r1, r3, #12
    7438:	0058      	lsls	r0, r3, #1
    743a:	0fdb      	lsrs	r3, r3, #31
    743c:	469b      	mov	fp, r3
    743e:	0a4b      	lsrs	r3, r1, #9
    7440:	0f51      	lsrs	r1, r2, #29
    7442:	430b      	orrs	r3, r1
    7444:	0d76      	lsrs	r6, r6, #21
    7446:	0d40      	lsrs	r0, r0, #21
    7448:	0019      	movs	r1, r3
    744a:	00d2      	lsls	r2, r2, #3
    744c:	45d8      	cmp	r8, fp
    744e:	d100      	bne.n	7452 <__aeabi_dadd+0x3a>
    7450:	e0ae      	b.n	75b0 <__aeabi_dadd+0x198>
    7452:	1a35      	subs	r5, r6, r0
    7454:	2d00      	cmp	r5, #0
    7456:	dc00      	bgt.n	745a <__aeabi_dadd+0x42>
    7458:	e0f6      	b.n	7648 <__aeabi_dadd+0x230>
    745a:	2800      	cmp	r0, #0
    745c:	d10f      	bne.n	747e <__aeabi_dadd+0x66>
    745e:	4313      	orrs	r3, r2
    7460:	d100      	bne.n	7464 <__aeabi_dadd+0x4c>
    7462:	e0db      	b.n	761c <__aeabi_dadd+0x204>
    7464:	1e6b      	subs	r3, r5, #1
    7466:	2b00      	cmp	r3, #0
    7468:	d000      	beq.n	746c <__aeabi_dadd+0x54>
    746a:	e137      	b.n	76dc <__aeabi_dadd+0x2c4>
    746c:	1aba      	subs	r2, r7, r2
    746e:	4297      	cmp	r7, r2
    7470:	41bf      	sbcs	r7, r7
    7472:	1a64      	subs	r4, r4, r1
    7474:	427f      	negs	r7, r7
    7476:	1be4      	subs	r4, r4, r7
    7478:	2601      	movs	r6, #1
    747a:	0017      	movs	r7, r2
    747c:	e024      	b.n	74c8 <__aeabi_dadd+0xb0>
    747e:	4bc6      	ldr	r3, [pc, #792]	; (7798 <__aeabi_dadd+0x380>)
    7480:	429e      	cmp	r6, r3
    7482:	d04d      	beq.n	7520 <__aeabi_dadd+0x108>
    7484:	2380      	movs	r3, #128	; 0x80
    7486:	041b      	lsls	r3, r3, #16
    7488:	4319      	orrs	r1, r3
    748a:	2d38      	cmp	r5, #56	; 0x38
    748c:	dd00      	ble.n	7490 <__aeabi_dadd+0x78>
    748e:	e107      	b.n	76a0 <__aeabi_dadd+0x288>
    7490:	2d1f      	cmp	r5, #31
    7492:	dd00      	ble.n	7496 <__aeabi_dadd+0x7e>
    7494:	e138      	b.n	7708 <__aeabi_dadd+0x2f0>
    7496:	2020      	movs	r0, #32
    7498:	1b43      	subs	r3, r0, r5
    749a:	469a      	mov	sl, r3
    749c:	000b      	movs	r3, r1
    749e:	4650      	mov	r0, sl
    74a0:	4083      	lsls	r3, r0
    74a2:	4699      	mov	r9, r3
    74a4:	0013      	movs	r3, r2
    74a6:	4648      	mov	r0, r9
    74a8:	40eb      	lsrs	r3, r5
    74aa:	4318      	orrs	r0, r3
    74ac:	0003      	movs	r3, r0
    74ae:	4650      	mov	r0, sl
    74b0:	4082      	lsls	r2, r0
    74b2:	1e50      	subs	r0, r2, #1
    74b4:	4182      	sbcs	r2, r0
    74b6:	40e9      	lsrs	r1, r5
    74b8:	431a      	orrs	r2, r3
    74ba:	1aba      	subs	r2, r7, r2
    74bc:	1a61      	subs	r1, r4, r1
    74be:	4297      	cmp	r7, r2
    74c0:	41a4      	sbcs	r4, r4
    74c2:	0017      	movs	r7, r2
    74c4:	4264      	negs	r4, r4
    74c6:	1b0c      	subs	r4, r1, r4
    74c8:	0223      	lsls	r3, r4, #8
    74ca:	d562      	bpl.n	7592 <__aeabi_dadd+0x17a>
    74cc:	0264      	lsls	r4, r4, #9
    74ce:	0a65      	lsrs	r5, r4, #9
    74d0:	2d00      	cmp	r5, #0
    74d2:	d100      	bne.n	74d6 <__aeabi_dadd+0xbe>
    74d4:	e0df      	b.n	7696 <__aeabi_dadd+0x27e>
    74d6:	0028      	movs	r0, r5
    74d8:	f001 fbe4 	bl	8ca4 <__clzsi2>
    74dc:	0003      	movs	r3, r0
    74de:	3b08      	subs	r3, #8
    74e0:	2b1f      	cmp	r3, #31
    74e2:	dd00      	ble.n	74e6 <__aeabi_dadd+0xce>
    74e4:	e0d2      	b.n	768c <__aeabi_dadd+0x274>
    74e6:	2220      	movs	r2, #32
    74e8:	003c      	movs	r4, r7
    74ea:	1ad2      	subs	r2, r2, r3
    74ec:	409d      	lsls	r5, r3
    74ee:	40d4      	lsrs	r4, r2
    74f0:	409f      	lsls	r7, r3
    74f2:	4325      	orrs	r5, r4
    74f4:	429e      	cmp	r6, r3
    74f6:	dd00      	ble.n	74fa <__aeabi_dadd+0xe2>
    74f8:	e0c4      	b.n	7684 <__aeabi_dadd+0x26c>
    74fa:	1b9e      	subs	r6, r3, r6
    74fc:	1c73      	adds	r3, r6, #1
    74fe:	2b1f      	cmp	r3, #31
    7500:	dd00      	ble.n	7504 <__aeabi_dadd+0xec>
    7502:	e0f1      	b.n	76e8 <__aeabi_dadd+0x2d0>
    7504:	2220      	movs	r2, #32
    7506:	0038      	movs	r0, r7
    7508:	0029      	movs	r1, r5
    750a:	1ad2      	subs	r2, r2, r3
    750c:	40d8      	lsrs	r0, r3
    750e:	4091      	lsls	r1, r2
    7510:	4097      	lsls	r7, r2
    7512:	002c      	movs	r4, r5
    7514:	4301      	orrs	r1, r0
    7516:	1e78      	subs	r0, r7, #1
    7518:	4187      	sbcs	r7, r0
    751a:	40dc      	lsrs	r4, r3
    751c:	2600      	movs	r6, #0
    751e:	430f      	orrs	r7, r1
    7520:	077b      	lsls	r3, r7, #29
    7522:	d009      	beq.n	7538 <__aeabi_dadd+0x120>
    7524:	230f      	movs	r3, #15
    7526:	403b      	ands	r3, r7
    7528:	2b04      	cmp	r3, #4
    752a:	d005      	beq.n	7538 <__aeabi_dadd+0x120>
    752c:	1d3b      	adds	r3, r7, #4
    752e:	42bb      	cmp	r3, r7
    7530:	41bf      	sbcs	r7, r7
    7532:	427f      	negs	r7, r7
    7534:	19e4      	adds	r4, r4, r7
    7536:	001f      	movs	r7, r3
    7538:	0223      	lsls	r3, r4, #8
    753a:	d52c      	bpl.n	7596 <__aeabi_dadd+0x17e>
    753c:	4b96      	ldr	r3, [pc, #600]	; (7798 <__aeabi_dadd+0x380>)
    753e:	3601      	adds	r6, #1
    7540:	429e      	cmp	r6, r3
    7542:	d100      	bne.n	7546 <__aeabi_dadd+0x12e>
    7544:	e09a      	b.n	767c <__aeabi_dadd+0x264>
    7546:	4645      	mov	r5, r8
    7548:	4b94      	ldr	r3, [pc, #592]	; (779c <__aeabi_dadd+0x384>)
    754a:	08ff      	lsrs	r7, r7, #3
    754c:	401c      	ands	r4, r3
    754e:	0760      	lsls	r0, r4, #29
    7550:	0576      	lsls	r6, r6, #21
    7552:	0264      	lsls	r4, r4, #9
    7554:	4307      	orrs	r7, r0
    7556:	0b24      	lsrs	r4, r4, #12
    7558:	0d76      	lsrs	r6, r6, #21
    755a:	2100      	movs	r1, #0
    755c:	0324      	lsls	r4, r4, #12
    755e:	0b23      	lsrs	r3, r4, #12
    7560:	0d0c      	lsrs	r4, r1, #20
    7562:	4a8f      	ldr	r2, [pc, #572]	; (77a0 <__aeabi_dadd+0x388>)
    7564:	0524      	lsls	r4, r4, #20
    7566:	431c      	orrs	r4, r3
    7568:	4014      	ands	r4, r2
    756a:	0533      	lsls	r3, r6, #20
    756c:	4323      	orrs	r3, r4
    756e:	005b      	lsls	r3, r3, #1
    7570:	07ed      	lsls	r5, r5, #31
    7572:	085b      	lsrs	r3, r3, #1
    7574:	432b      	orrs	r3, r5
    7576:	0038      	movs	r0, r7
    7578:	0019      	movs	r1, r3
    757a:	bc3c      	pop	{r2, r3, r4, r5}
    757c:	4690      	mov	r8, r2
    757e:	4699      	mov	r9, r3
    7580:	46a2      	mov	sl, r4
    7582:	46ab      	mov	fp, r5
    7584:	bdf8      	pop	{r3, r4, r5, r6, r7, pc}
    7586:	4664      	mov	r4, ip
    7588:	4304      	orrs	r4, r0
    758a:	d100      	bne.n	758e <__aeabi_dadd+0x176>
    758c:	e211      	b.n	79b2 <__aeabi_dadd+0x59a>
    758e:	0004      	movs	r4, r0
    7590:	4667      	mov	r7, ip
    7592:	077b      	lsls	r3, r7, #29
    7594:	d1c6      	bne.n	7524 <__aeabi_dadd+0x10c>
    7596:	4645      	mov	r5, r8
    7598:	0760      	lsls	r0, r4, #29
    759a:	08ff      	lsrs	r7, r7, #3
    759c:	4307      	orrs	r7, r0
    759e:	08e4      	lsrs	r4, r4, #3
    75a0:	4b7d      	ldr	r3, [pc, #500]	; (7798 <__aeabi_dadd+0x380>)
    75a2:	429e      	cmp	r6, r3
    75a4:	d030      	beq.n	7608 <__aeabi_dadd+0x1f0>
    75a6:	0324      	lsls	r4, r4, #12
    75a8:	0576      	lsls	r6, r6, #21
    75aa:	0b24      	lsrs	r4, r4, #12
    75ac:	0d76      	lsrs	r6, r6, #21
    75ae:	e7d4      	b.n	755a <__aeabi_dadd+0x142>
    75b0:	1a33      	subs	r3, r6, r0
    75b2:	469a      	mov	sl, r3
    75b4:	2b00      	cmp	r3, #0
    75b6:	dd78      	ble.n	76aa <__aeabi_dadd+0x292>
    75b8:	2800      	cmp	r0, #0
    75ba:	d031      	beq.n	7620 <__aeabi_dadd+0x208>
    75bc:	4876      	ldr	r0, [pc, #472]	; (7798 <__aeabi_dadd+0x380>)
    75be:	4286      	cmp	r6, r0
    75c0:	d0ae      	beq.n	7520 <__aeabi_dadd+0x108>
    75c2:	2080      	movs	r0, #128	; 0x80
    75c4:	0400      	lsls	r0, r0, #16
    75c6:	4301      	orrs	r1, r0
    75c8:	4653      	mov	r3, sl
    75ca:	2b38      	cmp	r3, #56	; 0x38
    75cc:	dc00      	bgt.n	75d0 <__aeabi_dadd+0x1b8>
    75ce:	e0e9      	b.n	77a4 <__aeabi_dadd+0x38c>
    75d0:	430a      	orrs	r2, r1
    75d2:	1e51      	subs	r1, r2, #1
    75d4:	418a      	sbcs	r2, r1
    75d6:	2100      	movs	r1, #0
    75d8:	19d2      	adds	r2, r2, r7
    75da:	42ba      	cmp	r2, r7
    75dc:	41bf      	sbcs	r7, r7
    75de:	1909      	adds	r1, r1, r4
    75e0:	427c      	negs	r4, r7
    75e2:	0017      	movs	r7, r2
    75e4:	190c      	adds	r4, r1, r4
    75e6:	0223      	lsls	r3, r4, #8
    75e8:	d5d3      	bpl.n	7592 <__aeabi_dadd+0x17a>
    75ea:	4b6b      	ldr	r3, [pc, #428]	; (7798 <__aeabi_dadd+0x380>)
    75ec:	3601      	adds	r6, #1
    75ee:	429e      	cmp	r6, r3
    75f0:	d100      	bne.n	75f4 <__aeabi_dadd+0x1dc>
    75f2:	e13a      	b.n	786a <__aeabi_dadd+0x452>
    75f4:	2001      	movs	r0, #1
    75f6:	4b69      	ldr	r3, [pc, #420]	; (779c <__aeabi_dadd+0x384>)
    75f8:	401c      	ands	r4, r3
    75fa:	087b      	lsrs	r3, r7, #1
    75fc:	4007      	ands	r7, r0
    75fe:	431f      	orrs	r7, r3
    7600:	07e0      	lsls	r0, r4, #31
    7602:	4307      	orrs	r7, r0
    7604:	0864      	lsrs	r4, r4, #1
    7606:	e78b      	b.n	7520 <__aeabi_dadd+0x108>
    7608:	0023      	movs	r3, r4
    760a:	433b      	orrs	r3, r7
    760c:	d100      	bne.n	7610 <__aeabi_dadd+0x1f8>
    760e:	e1cb      	b.n	79a8 <__aeabi_dadd+0x590>
    7610:	2280      	movs	r2, #128	; 0x80
    7612:	0312      	lsls	r2, r2, #12
    7614:	4314      	orrs	r4, r2
    7616:	0324      	lsls	r4, r4, #12
    7618:	0b24      	lsrs	r4, r4, #12
    761a:	e79e      	b.n	755a <__aeabi_dadd+0x142>
    761c:	002e      	movs	r6, r5
    761e:	e77f      	b.n	7520 <__aeabi_dadd+0x108>
    7620:	0008      	movs	r0, r1
    7622:	4310      	orrs	r0, r2
    7624:	d100      	bne.n	7628 <__aeabi_dadd+0x210>
    7626:	e0b4      	b.n	7792 <__aeabi_dadd+0x37a>
    7628:	1e58      	subs	r0, r3, #1
    762a:	2800      	cmp	r0, #0
    762c:	d000      	beq.n	7630 <__aeabi_dadd+0x218>
    762e:	e0de      	b.n	77ee <__aeabi_dadd+0x3d6>
    7630:	18ba      	adds	r2, r7, r2
    7632:	42ba      	cmp	r2, r7
    7634:	419b      	sbcs	r3, r3
    7636:	1864      	adds	r4, r4, r1
    7638:	425b      	negs	r3, r3
    763a:	18e4      	adds	r4, r4, r3
    763c:	0017      	movs	r7, r2
    763e:	2601      	movs	r6, #1
    7640:	0223      	lsls	r3, r4, #8
    7642:	d5a6      	bpl.n	7592 <__aeabi_dadd+0x17a>
    7644:	2602      	movs	r6, #2
    7646:	e7d5      	b.n	75f4 <__aeabi_dadd+0x1dc>
    7648:	2d00      	cmp	r5, #0
    764a:	d16e      	bne.n	772a <__aeabi_dadd+0x312>
    764c:	1c70      	adds	r0, r6, #1
    764e:	0540      	lsls	r0, r0, #21
    7650:	0d40      	lsrs	r0, r0, #21
    7652:	2801      	cmp	r0, #1
    7654:	dc00      	bgt.n	7658 <__aeabi_dadd+0x240>
    7656:	e0f9      	b.n	784c <__aeabi_dadd+0x434>
    7658:	1ab8      	subs	r0, r7, r2
    765a:	4684      	mov	ip, r0
    765c:	4287      	cmp	r7, r0
    765e:	4180      	sbcs	r0, r0
    7660:	1ae5      	subs	r5, r4, r3
    7662:	4240      	negs	r0, r0
    7664:	1a2d      	subs	r5, r5, r0
    7666:	0228      	lsls	r0, r5, #8
    7668:	d400      	bmi.n	766c <__aeabi_dadd+0x254>
    766a:	e089      	b.n	7780 <__aeabi_dadd+0x368>
    766c:	1bd7      	subs	r7, r2, r7
    766e:	42ba      	cmp	r2, r7
    7670:	4192      	sbcs	r2, r2
    7672:	1b1c      	subs	r4, r3, r4
    7674:	4252      	negs	r2, r2
    7676:	1aa5      	subs	r5, r4, r2
    7678:	46d8      	mov	r8, fp
    767a:	e729      	b.n	74d0 <__aeabi_dadd+0xb8>
    767c:	4645      	mov	r5, r8
    767e:	2400      	movs	r4, #0
    7680:	2700      	movs	r7, #0
    7682:	e76a      	b.n	755a <__aeabi_dadd+0x142>
    7684:	4c45      	ldr	r4, [pc, #276]	; (779c <__aeabi_dadd+0x384>)
    7686:	1af6      	subs	r6, r6, r3
    7688:	402c      	ands	r4, r5
    768a:	e749      	b.n	7520 <__aeabi_dadd+0x108>
    768c:	003d      	movs	r5, r7
    768e:	3828      	subs	r0, #40	; 0x28
    7690:	4085      	lsls	r5, r0
    7692:	2700      	movs	r7, #0
    7694:	e72e      	b.n	74f4 <__aeabi_dadd+0xdc>
    7696:	0038      	movs	r0, r7
    7698:	f001 fb04 	bl	8ca4 <__clzsi2>
    769c:	3020      	adds	r0, #32
    769e:	e71d      	b.n	74dc <__aeabi_dadd+0xc4>
    76a0:	430a      	orrs	r2, r1
    76a2:	1e51      	subs	r1, r2, #1
    76a4:	418a      	sbcs	r2, r1
    76a6:	2100      	movs	r1, #0
    76a8:	e707      	b.n	74ba <__aeabi_dadd+0xa2>
    76aa:	2b00      	cmp	r3, #0
    76ac:	d000      	beq.n	76b0 <__aeabi_dadd+0x298>
    76ae:	e0f3      	b.n	7898 <__aeabi_dadd+0x480>
    76b0:	1c70      	adds	r0, r6, #1
    76b2:	0543      	lsls	r3, r0, #21
    76b4:	0d5b      	lsrs	r3, r3, #21
    76b6:	2b01      	cmp	r3, #1
    76b8:	dc00      	bgt.n	76bc <__aeabi_dadd+0x2a4>
    76ba:	e0ad      	b.n	7818 <__aeabi_dadd+0x400>
    76bc:	4b36      	ldr	r3, [pc, #216]	; (7798 <__aeabi_dadd+0x380>)
    76be:	4298      	cmp	r0, r3
    76c0:	d100      	bne.n	76c4 <__aeabi_dadd+0x2ac>
    76c2:	e0d1      	b.n	7868 <__aeabi_dadd+0x450>
    76c4:	18ba      	adds	r2, r7, r2
    76c6:	42ba      	cmp	r2, r7
    76c8:	41bf      	sbcs	r7, r7
    76ca:	1864      	adds	r4, r4, r1
    76cc:	427f      	negs	r7, r7
    76ce:	19e4      	adds	r4, r4, r7
    76d0:	07e7      	lsls	r7, r4, #31
    76d2:	0852      	lsrs	r2, r2, #1
    76d4:	4317      	orrs	r7, r2
    76d6:	0864      	lsrs	r4, r4, #1
    76d8:	0006      	movs	r6, r0
    76da:	e721      	b.n	7520 <__aeabi_dadd+0x108>
    76dc:	482e      	ldr	r0, [pc, #184]	; (7798 <__aeabi_dadd+0x380>)
    76de:	4285      	cmp	r5, r0
    76e0:	d100      	bne.n	76e4 <__aeabi_dadd+0x2cc>
    76e2:	e093      	b.n	780c <__aeabi_dadd+0x3f4>
    76e4:	001d      	movs	r5, r3
    76e6:	e6d0      	b.n	748a <__aeabi_dadd+0x72>
    76e8:	0029      	movs	r1, r5
    76ea:	3e1f      	subs	r6, #31
    76ec:	40f1      	lsrs	r1, r6
    76ee:	2b20      	cmp	r3, #32
    76f0:	d100      	bne.n	76f4 <__aeabi_dadd+0x2dc>
    76f2:	e08d      	b.n	7810 <__aeabi_dadd+0x3f8>
    76f4:	2240      	movs	r2, #64	; 0x40
    76f6:	1ad3      	subs	r3, r2, r3
    76f8:	409d      	lsls	r5, r3
    76fa:	432f      	orrs	r7, r5
    76fc:	1e7d      	subs	r5, r7, #1
    76fe:	41af      	sbcs	r7, r5
    7700:	2400      	movs	r4, #0
    7702:	430f      	orrs	r7, r1
    7704:	2600      	movs	r6, #0
    7706:	e744      	b.n	7592 <__aeabi_dadd+0x17a>
    7708:	002b      	movs	r3, r5
    770a:	0008      	movs	r0, r1
    770c:	3b20      	subs	r3, #32
    770e:	40d8      	lsrs	r0, r3
    7710:	0003      	movs	r3, r0
    7712:	2d20      	cmp	r5, #32
    7714:	d100      	bne.n	7718 <__aeabi_dadd+0x300>
    7716:	e07d      	b.n	7814 <__aeabi_dadd+0x3fc>
    7718:	2040      	movs	r0, #64	; 0x40
    771a:	1b45      	subs	r5, r0, r5
    771c:	40a9      	lsls	r1, r5
    771e:	430a      	orrs	r2, r1
    7720:	1e51      	subs	r1, r2, #1
    7722:	418a      	sbcs	r2, r1
    7724:	2100      	movs	r1, #0
    7726:	431a      	orrs	r2, r3
    7728:	e6c7      	b.n	74ba <__aeabi_dadd+0xa2>
    772a:	2e00      	cmp	r6, #0
    772c:	d050      	beq.n	77d0 <__aeabi_dadd+0x3b8>
    772e:	4e1a      	ldr	r6, [pc, #104]	; (7798 <__aeabi_dadd+0x380>)
    7730:	42b0      	cmp	r0, r6
    7732:	d057      	beq.n	77e4 <__aeabi_dadd+0x3cc>
    7734:	2680      	movs	r6, #128	; 0x80
    7736:	426b      	negs	r3, r5
    7738:	4699      	mov	r9, r3
    773a:	0436      	lsls	r6, r6, #16
    773c:	4334      	orrs	r4, r6
    773e:	464b      	mov	r3, r9
    7740:	2b38      	cmp	r3, #56	; 0x38
    7742:	dd00      	ble.n	7746 <__aeabi_dadd+0x32e>
    7744:	e0d6      	b.n	78f4 <__aeabi_dadd+0x4dc>
    7746:	2b1f      	cmp	r3, #31
    7748:	dd00      	ble.n	774c <__aeabi_dadd+0x334>
    774a:	e135      	b.n	79b8 <__aeabi_dadd+0x5a0>
    774c:	2620      	movs	r6, #32
    774e:	1af5      	subs	r5, r6, r3
    7750:	0026      	movs	r6, r4
    7752:	40ae      	lsls	r6, r5
    7754:	46b2      	mov	sl, r6
    7756:	003e      	movs	r6, r7
    7758:	40de      	lsrs	r6, r3
    775a:	46ac      	mov	ip, r5
    775c:	0035      	movs	r5, r6
    775e:	4656      	mov	r6, sl
    7760:	432e      	orrs	r6, r5
    7762:	4665      	mov	r5, ip
    7764:	40af      	lsls	r7, r5
    7766:	1e7d      	subs	r5, r7, #1
    7768:	41af      	sbcs	r7, r5
    776a:	40dc      	lsrs	r4, r3
    776c:	4337      	orrs	r7, r6
    776e:	1bd7      	subs	r7, r2, r7
    7770:	42ba      	cmp	r2, r7
    7772:	4192      	sbcs	r2, r2
    7774:	1b0c      	subs	r4, r1, r4
    7776:	4252      	negs	r2, r2
    7778:	1aa4      	subs	r4, r4, r2
    777a:	0006      	movs	r6, r0
    777c:	46d8      	mov	r8, fp
    777e:	e6a3      	b.n	74c8 <__aeabi_dadd+0xb0>
    7780:	4664      	mov	r4, ip
    7782:	4667      	mov	r7, ip
    7784:	432c      	orrs	r4, r5
    7786:	d000      	beq.n	778a <__aeabi_dadd+0x372>
    7788:	e6a2      	b.n	74d0 <__aeabi_dadd+0xb8>
    778a:	2500      	movs	r5, #0
    778c:	2600      	movs	r6, #0
    778e:	2700      	movs	r7, #0
    7790:	e706      	b.n	75a0 <__aeabi_dadd+0x188>
    7792:	001e      	movs	r6, r3
    7794:	e6c4      	b.n	7520 <__aeabi_dadd+0x108>
    7796:	46c0      	nop			; (mov r8, r8)
    7798:	000007ff 	.word	0x000007ff
    779c:	ff7fffff 	.word	0xff7fffff
    77a0:	800fffff 	.word	0x800fffff
    77a4:	2b1f      	cmp	r3, #31
    77a6:	dc63      	bgt.n	7870 <__aeabi_dadd+0x458>
    77a8:	2020      	movs	r0, #32
    77aa:	1ac3      	subs	r3, r0, r3
    77ac:	0008      	movs	r0, r1
    77ae:	4098      	lsls	r0, r3
    77b0:	469c      	mov	ip, r3
    77b2:	4683      	mov	fp, r0
    77b4:	4653      	mov	r3, sl
    77b6:	0010      	movs	r0, r2
    77b8:	40d8      	lsrs	r0, r3
    77ba:	0003      	movs	r3, r0
    77bc:	4658      	mov	r0, fp
    77be:	4318      	orrs	r0, r3
    77c0:	4663      	mov	r3, ip
    77c2:	409a      	lsls	r2, r3
    77c4:	1e53      	subs	r3, r2, #1
    77c6:	419a      	sbcs	r2, r3
    77c8:	4653      	mov	r3, sl
    77ca:	4302      	orrs	r2, r0
    77cc:	40d9      	lsrs	r1, r3
    77ce:	e703      	b.n	75d8 <__aeabi_dadd+0x1c0>
    77d0:	0026      	movs	r6, r4
    77d2:	433e      	orrs	r6, r7
    77d4:	d006      	beq.n	77e4 <__aeabi_dadd+0x3cc>
    77d6:	43eb      	mvns	r3, r5
    77d8:	4699      	mov	r9, r3
    77da:	2b00      	cmp	r3, #0
    77dc:	d0c7      	beq.n	776e <__aeabi_dadd+0x356>
    77de:	4e94      	ldr	r6, [pc, #592]	; (7a30 <__aeabi_dadd+0x618>)
    77e0:	42b0      	cmp	r0, r6
    77e2:	d1ac      	bne.n	773e <__aeabi_dadd+0x326>
    77e4:	000c      	movs	r4, r1
    77e6:	0017      	movs	r7, r2
    77e8:	0006      	movs	r6, r0
    77ea:	46d8      	mov	r8, fp
    77ec:	e698      	b.n	7520 <__aeabi_dadd+0x108>
    77ee:	4b90      	ldr	r3, [pc, #576]	; (7a30 <__aeabi_dadd+0x618>)
    77f0:	459a      	cmp	sl, r3
    77f2:	d00b      	beq.n	780c <__aeabi_dadd+0x3f4>
    77f4:	4682      	mov	sl, r0
    77f6:	e6e7      	b.n	75c8 <__aeabi_dadd+0x1b0>
    77f8:	2800      	cmp	r0, #0
    77fa:	d000      	beq.n	77fe <__aeabi_dadd+0x3e6>
    77fc:	e09e      	b.n	793c <__aeabi_dadd+0x524>
    77fe:	0018      	movs	r0, r3
    7800:	4310      	orrs	r0, r2
    7802:	d100      	bne.n	7806 <__aeabi_dadd+0x3ee>
    7804:	e0e9      	b.n	79da <__aeabi_dadd+0x5c2>
    7806:	001c      	movs	r4, r3
    7808:	0017      	movs	r7, r2
    780a:	46d8      	mov	r8, fp
    780c:	4e88      	ldr	r6, [pc, #544]	; (7a30 <__aeabi_dadd+0x618>)
    780e:	e687      	b.n	7520 <__aeabi_dadd+0x108>
    7810:	2500      	movs	r5, #0
    7812:	e772      	b.n	76fa <__aeabi_dadd+0x2e2>
    7814:	2100      	movs	r1, #0
    7816:	e782      	b.n	771e <__aeabi_dadd+0x306>
    7818:	0023      	movs	r3, r4
    781a:	433b      	orrs	r3, r7
    781c:	2e00      	cmp	r6, #0
    781e:	d000      	beq.n	7822 <__aeabi_dadd+0x40a>
    7820:	e0ab      	b.n	797a <__aeabi_dadd+0x562>
    7822:	2b00      	cmp	r3, #0
    7824:	d100      	bne.n	7828 <__aeabi_dadd+0x410>
    7826:	e0e7      	b.n	79f8 <__aeabi_dadd+0x5e0>
    7828:	000b      	movs	r3, r1
    782a:	4313      	orrs	r3, r2
    782c:	d100      	bne.n	7830 <__aeabi_dadd+0x418>
    782e:	e677      	b.n	7520 <__aeabi_dadd+0x108>
    7830:	18ba      	adds	r2, r7, r2
    7832:	42ba      	cmp	r2, r7
    7834:	41bf      	sbcs	r7, r7
    7836:	1864      	adds	r4, r4, r1
    7838:	427f      	negs	r7, r7
    783a:	19e4      	adds	r4, r4, r7
    783c:	0223      	lsls	r3, r4, #8
    783e:	d400      	bmi.n	7842 <__aeabi_dadd+0x42a>
    7840:	e0f2      	b.n	7a28 <__aeabi_dadd+0x610>
    7842:	4b7c      	ldr	r3, [pc, #496]	; (7a34 <__aeabi_dadd+0x61c>)
    7844:	0017      	movs	r7, r2
    7846:	401c      	ands	r4, r3
    7848:	0006      	movs	r6, r0
    784a:	e669      	b.n	7520 <__aeabi_dadd+0x108>
    784c:	0020      	movs	r0, r4
    784e:	4338      	orrs	r0, r7
    7850:	2e00      	cmp	r6, #0
    7852:	d1d1      	bne.n	77f8 <__aeabi_dadd+0x3e0>
    7854:	2800      	cmp	r0, #0
    7856:	d15b      	bne.n	7910 <__aeabi_dadd+0x4f8>
    7858:	001c      	movs	r4, r3
    785a:	4314      	orrs	r4, r2
    785c:	d100      	bne.n	7860 <__aeabi_dadd+0x448>
    785e:	e0a8      	b.n	79b2 <__aeabi_dadd+0x59a>
    7860:	001c      	movs	r4, r3
    7862:	0017      	movs	r7, r2
    7864:	46d8      	mov	r8, fp
    7866:	e65b      	b.n	7520 <__aeabi_dadd+0x108>
    7868:	0006      	movs	r6, r0
    786a:	2400      	movs	r4, #0
    786c:	2700      	movs	r7, #0
    786e:	e697      	b.n	75a0 <__aeabi_dadd+0x188>
    7870:	4650      	mov	r0, sl
    7872:	000b      	movs	r3, r1
    7874:	3820      	subs	r0, #32
    7876:	40c3      	lsrs	r3, r0
    7878:	4699      	mov	r9, r3
    787a:	4653      	mov	r3, sl
    787c:	2b20      	cmp	r3, #32
    787e:	d100      	bne.n	7882 <__aeabi_dadd+0x46a>
    7880:	e095      	b.n	79ae <__aeabi_dadd+0x596>
    7882:	2340      	movs	r3, #64	; 0x40
    7884:	4650      	mov	r0, sl
    7886:	1a1b      	subs	r3, r3, r0
    7888:	4099      	lsls	r1, r3
    788a:	430a      	orrs	r2, r1
    788c:	1e51      	subs	r1, r2, #1
    788e:	418a      	sbcs	r2, r1
    7890:	464b      	mov	r3, r9
    7892:	2100      	movs	r1, #0
    7894:	431a      	orrs	r2, r3
    7896:	e69f      	b.n	75d8 <__aeabi_dadd+0x1c0>
    7898:	2e00      	cmp	r6, #0
    789a:	d130      	bne.n	78fe <__aeabi_dadd+0x4e6>
    789c:	0026      	movs	r6, r4
    789e:	433e      	orrs	r6, r7
    78a0:	d067      	beq.n	7972 <__aeabi_dadd+0x55a>
    78a2:	43db      	mvns	r3, r3
    78a4:	469a      	mov	sl, r3
    78a6:	2b00      	cmp	r3, #0
    78a8:	d01c      	beq.n	78e4 <__aeabi_dadd+0x4cc>
    78aa:	4e61      	ldr	r6, [pc, #388]	; (7a30 <__aeabi_dadd+0x618>)
    78ac:	42b0      	cmp	r0, r6
    78ae:	d060      	beq.n	7972 <__aeabi_dadd+0x55a>
    78b0:	4653      	mov	r3, sl
    78b2:	2b38      	cmp	r3, #56	; 0x38
    78b4:	dd00      	ble.n	78b8 <__aeabi_dadd+0x4a0>
    78b6:	e096      	b.n	79e6 <__aeabi_dadd+0x5ce>
    78b8:	2b1f      	cmp	r3, #31
    78ba:	dd00      	ble.n	78be <__aeabi_dadd+0x4a6>
    78bc:	e09f      	b.n	79fe <__aeabi_dadd+0x5e6>
    78be:	2620      	movs	r6, #32
    78c0:	1af3      	subs	r3, r6, r3
    78c2:	0026      	movs	r6, r4
    78c4:	409e      	lsls	r6, r3
    78c6:	469c      	mov	ip, r3
    78c8:	46b3      	mov	fp, r6
    78ca:	4653      	mov	r3, sl
    78cc:	003e      	movs	r6, r7
    78ce:	40de      	lsrs	r6, r3
    78d0:	0033      	movs	r3, r6
    78d2:	465e      	mov	r6, fp
    78d4:	431e      	orrs	r6, r3
    78d6:	4663      	mov	r3, ip
    78d8:	409f      	lsls	r7, r3
    78da:	1e7b      	subs	r3, r7, #1
    78dc:	419f      	sbcs	r7, r3
    78de:	4653      	mov	r3, sl
    78e0:	40dc      	lsrs	r4, r3
    78e2:	4337      	orrs	r7, r6
    78e4:	18bf      	adds	r7, r7, r2
    78e6:	4297      	cmp	r7, r2
    78e8:	4192      	sbcs	r2, r2
    78ea:	1864      	adds	r4, r4, r1
    78ec:	4252      	negs	r2, r2
    78ee:	18a4      	adds	r4, r4, r2
    78f0:	0006      	movs	r6, r0
    78f2:	e678      	b.n	75e6 <__aeabi_dadd+0x1ce>
    78f4:	4327      	orrs	r7, r4
    78f6:	1e7c      	subs	r4, r7, #1
    78f8:	41a7      	sbcs	r7, r4
    78fa:	2400      	movs	r4, #0
    78fc:	e737      	b.n	776e <__aeabi_dadd+0x356>
    78fe:	4e4c      	ldr	r6, [pc, #304]	; (7a30 <__aeabi_dadd+0x618>)
    7900:	42b0      	cmp	r0, r6
    7902:	d036      	beq.n	7972 <__aeabi_dadd+0x55a>
    7904:	2680      	movs	r6, #128	; 0x80
    7906:	425b      	negs	r3, r3
    7908:	0436      	lsls	r6, r6, #16
    790a:	469a      	mov	sl, r3
    790c:	4334      	orrs	r4, r6
    790e:	e7cf      	b.n	78b0 <__aeabi_dadd+0x498>
    7910:	0018      	movs	r0, r3
    7912:	4310      	orrs	r0, r2
    7914:	d100      	bne.n	7918 <__aeabi_dadd+0x500>
    7916:	e603      	b.n	7520 <__aeabi_dadd+0x108>
    7918:	1ab8      	subs	r0, r7, r2
    791a:	4684      	mov	ip, r0
    791c:	4567      	cmp	r7, ip
    791e:	41ad      	sbcs	r5, r5
    7920:	1ae0      	subs	r0, r4, r3
    7922:	426d      	negs	r5, r5
    7924:	1b40      	subs	r0, r0, r5
    7926:	0205      	lsls	r5, r0, #8
    7928:	d400      	bmi.n	792c <__aeabi_dadd+0x514>
    792a:	e62c      	b.n	7586 <__aeabi_dadd+0x16e>
    792c:	1bd7      	subs	r7, r2, r7
    792e:	42ba      	cmp	r2, r7
    7930:	4192      	sbcs	r2, r2
    7932:	1b1c      	subs	r4, r3, r4
    7934:	4252      	negs	r2, r2
    7936:	1aa4      	subs	r4, r4, r2
    7938:	46d8      	mov	r8, fp
    793a:	e5f1      	b.n	7520 <__aeabi_dadd+0x108>
    793c:	0018      	movs	r0, r3
    793e:	4310      	orrs	r0, r2
    7940:	d100      	bne.n	7944 <__aeabi_dadd+0x52c>
    7942:	e763      	b.n	780c <__aeabi_dadd+0x3f4>
    7944:	08f8      	lsrs	r0, r7, #3
    7946:	0767      	lsls	r7, r4, #29
    7948:	4307      	orrs	r7, r0
    794a:	2080      	movs	r0, #128	; 0x80
    794c:	08e4      	lsrs	r4, r4, #3
    794e:	0300      	lsls	r0, r0, #12
    7950:	4204      	tst	r4, r0
    7952:	d008      	beq.n	7966 <__aeabi_dadd+0x54e>
    7954:	08dd      	lsrs	r5, r3, #3
    7956:	4205      	tst	r5, r0
    7958:	d105      	bne.n	7966 <__aeabi_dadd+0x54e>
    795a:	08d2      	lsrs	r2, r2, #3
    795c:	0759      	lsls	r1, r3, #29
    795e:	4311      	orrs	r1, r2
    7960:	000f      	movs	r7, r1
    7962:	002c      	movs	r4, r5
    7964:	46d8      	mov	r8, fp
    7966:	0f7b      	lsrs	r3, r7, #29
    7968:	00e4      	lsls	r4, r4, #3
    796a:	431c      	orrs	r4, r3
    796c:	00ff      	lsls	r7, r7, #3
    796e:	4e30      	ldr	r6, [pc, #192]	; (7a30 <__aeabi_dadd+0x618>)
    7970:	e5d6      	b.n	7520 <__aeabi_dadd+0x108>
    7972:	000c      	movs	r4, r1
    7974:	0017      	movs	r7, r2
    7976:	0006      	movs	r6, r0
    7978:	e5d2      	b.n	7520 <__aeabi_dadd+0x108>
    797a:	2b00      	cmp	r3, #0
    797c:	d038      	beq.n	79f0 <__aeabi_dadd+0x5d8>
    797e:	000b      	movs	r3, r1
    7980:	4313      	orrs	r3, r2
    7982:	d100      	bne.n	7986 <__aeabi_dadd+0x56e>
    7984:	e742      	b.n	780c <__aeabi_dadd+0x3f4>
    7986:	08f8      	lsrs	r0, r7, #3
    7988:	0767      	lsls	r7, r4, #29
    798a:	4307      	orrs	r7, r0
    798c:	2080      	movs	r0, #128	; 0x80
    798e:	08e4      	lsrs	r4, r4, #3
    7990:	0300      	lsls	r0, r0, #12
    7992:	4204      	tst	r4, r0
    7994:	d0e7      	beq.n	7966 <__aeabi_dadd+0x54e>
    7996:	08cb      	lsrs	r3, r1, #3
    7998:	4203      	tst	r3, r0
    799a:	d1e4      	bne.n	7966 <__aeabi_dadd+0x54e>
    799c:	08d2      	lsrs	r2, r2, #3
    799e:	0749      	lsls	r1, r1, #29
    79a0:	4311      	orrs	r1, r2
    79a2:	000f      	movs	r7, r1
    79a4:	001c      	movs	r4, r3
    79a6:	e7de      	b.n	7966 <__aeabi_dadd+0x54e>
    79a8:	2700      	movs	r7, #0
    79aa:	2400      	movs	r4, #0
    79ac:	e5d5      	b.n	755a <__aeabi_dadd+0x142>
    79ae:	2100      	movs	r1, #0
    79b0:	e76b      	b.n	788a <__aeabi_dadd+0x472>
    79b2:	2500      	movs	r5, #0
    79b4:	2700      	movs	r7, #0
    79b6:	e5f3      	b.n	75a0 <__aeabi_dadd+0x188>
    79b8:	464e      	mov	r6, r9
    79ba:	0025      	movs	r5, r4
    79bc:	3e20      	subs	r6, #32
    79be:	40f5      	lsrs	r5, r6
    79c0:	464b      	mov	r3, r9
    79c2:	002e      	movs	r6, r5
    79c4:	2b20      	cmp	r3, #32
    79c6:	d02d      	beq.n	7a24 <__aeabi_dadd+0x60c>
    79c8:	2540      	movs	r5, #64	; 0x40
    79ca:	1aed      	subs	r5, r5, r3
    79cc:	40ac      	lsls	r4, r5
    79ce:	4327      	orrs	r7, r4
    79d0:	1e7c      	subs	r4, r7, #1
    79d2:	41a7      	sbcs	r7, r4
    79d4:	2400      	movs	r4, #0
    79d6:	4337      	orrs	r7, r6
    79d8:	e6c9      	b.n	776e <__aeabi_dadd+0x356>
    79da:	2480      	movs	r4, #128	; 0x80
    79dc:	2500      	movs	r5, #0
    79de:	0324      	lsls	r4, r4, #12
    79e0:	4e13      	ldr	r6, [pc, #76]	; (7a30 <__aeabi_dadd+0x618>)
    79e2:	2700      	movs	r7, #0
    79e4:	e5dc      	b.n	75a0 <__aeabi_dadd+0x188>
    79e6:	4327      	orrs	r7, r4
    79e8:	1e7c      	subs	r4, r7, #1
    79ea:	41a7      	sbcs	r7, r4
    79ec:	2400      	movs	r4, #0
    79ee:	e779      	b.n	78e4 <__aeabi_dadd+0x4cc>
    79f0:	000c      	movs	r4, r1
    79f2:	0017      	movs	r7, r2
    79f4:	4e0e      	ldr	r6, [pc, #56]	; (7a30 <__aeabi_dadd+0x618>)
    79f6:	e593      	b.n	7520 <__aeabi_dadd+0x108>
    79f8:	000c      	movs	r4, r1
    79fa:	0017      	movs	r7, r2
    79fc:	e590      	b.n	7520 <__aeabi_dadd+0x108>
    79fe:	4656      	mov	r6, sl
    7a00:	0023      	movs	r3, r4
    7a02:	3e20      	subs	r6, #32
    7a04:	40f3      	lsrs	r3, r6
    7a06:	4699      	mov	r9, r3
    7a08:	4653      	mov	r3, sl
    7a0a:	2b20      	cmp	r3, #32
    7a0c:	d00e      	beq.n	7a2c <__aeabi_dadd+0x614>
    7a0e:	2340      	movs	r3, #64	; 0x40
    7a10:	4656      	mov	r6, sl
    7a12:	1b9b      	subs	r3, r3, r6
    7a14:	409c      	lsls	r4, r3
    7a16:	4327      	orrs	r7, r4
    7a18:	1e7c      	subs	r4, r7, #1
    7a1a:	41a7      	sbcs	r7, r4
    7a1c:	464b      	mov	r3, r9
    7a1e:	2400      	movs	r4, #0
    7a20:	431f      	orrs	r7, r3
    7a22:	e75f      	b.n	78e4 <__aeabi_dadd+0x4cc>
    7a24:	2400      	movs	r4, #0
    7a26:	e7d2      	b.n	79ce <__aeabi_dadd+0x5b6>
    7a28:	0017      	movs	r7, r2
    7a2a:	e5b2      	b.n	7592 <__aeabi_dadd+0x17a>
    7a2c:	2400      	movs	r4, #0
    7a2e:	e7f2      	b.n	7a16 <__aeabi_dadd+0x5fe>
    7a30:	000007ff 	.word	0x000007ff
    7a34:	ff7fffff 	.word	0xff7fffff

00007a38 <__aeabi_ddiv>:
    7a38:	b5f0      	push	{r4, r5, r6, r7, lr}
    7a3a:	4657      	mov	r7, sl
    7a3c:	4645      	mov	r5, r8
    7a3e:	46de      	mov	lr, fp
    7a40:	464e      	mov	r6, r9
    7a42:	b5e0      	push	{r5, r6, r7, lr}
    7a44:	004c      	lsls	r4, r1, #1
    7a46:	030e      	lsls	r6, r1, #12
    7a48:	b087      	sub	sp, #28
    7a4a:	4683      	mov	fp, r0
    7a4c:	4692      	mov	sl, r2
    7a4e:	001d      	movs	r5, r3
    7a50:	4680      	mov	r8, r0
    7a52:	0b36      	lsrs	r6, r6, #12
    7a54:	0d64      	lsrs	r4, r4, #21
    7a56:	0fcf      	lsrs	r7, r1, #31
    7a58:	2c00      	cmp	r4, #0
    7a5a:	d04f      	beq.n	7afc <__aeabi_ddiv+0xc4>
    7a5c:	4b6f      	ldr	r3, [pc, #444]	; (7c1c <__aeabi_ddiv+0x1e4>)
    7a5e:	429c      	cmp	r4, r3
    7a60:	d035      	beq.n	7ace <__aeabi_ddiv+0x96>
    7a62:	2380      	movs	r3, #128	; 0x80
    7a64:	0f42      	lsrs	r2, r0, #29
    7a66:	041b      	lsls	r3, r3, #16
    7a68:	00f6      	lsls	r6, r6, #3
    7a6a:	4313      	orrs	r3, r2
    7a6c:	4333      	orrs	r3, r6
    7a6e:	4699      	mov	r9, r3
    7a70:	00c3      	lsls	r3, r0, #3
    7a72:	4698      	mov	r8, r3
    7a74:	4b6a      	ldr	r3, [pc, #424]	; (7c20 <__aeabi_ddiv+0x1e8>)
    7a76:	2600      	movs	r6, #0
    7a78:	469c      	mov	ip, r3
    7a7a:	2300      	movs	r3, #0
    7a7c:	4464      	add	r4, ip
    7a7e:	9303      	str	r3, [sp, #12]
    7a80:	032b      	lsls	r3, r5, #12
    7a82:	0b1b      	lsrs	r3, r3, #12
    7a84:	469b      	mov	fp, r3
    7a86:	006b      	lsls	r3, r5, #1
    7a88:	0fed      	lsrs	r5, r5, #31
    7a8a:	4650      	mov	r0, sl
    7a8c:	0d5b      	lsrs	r3, r3, #21
    7a8e:	9501      	str	r5, [sp, #4]
    7a90:	d05e      	beq.n	7b50 <__aeabi_ddiv+0x118>
    7a92:	4a62      	ldr	r2, [pc, #392]	; (7c1c <__aeabi_ddiv+0x1e4>)
    7a94:	4293      	cmp	r3, r2
    7a96:	d053      	beq.n	7b40 <__aeabi_ddiv+0x108>
    7a98:	465a      	mov	r2, fp
    7a9a:	00d1      	lsls	r1, r2, #3
    7a9c:	2280      	movs	r2, #128	; 0x80
    7a9e:	0f40      	lsrs	r0, r0, #29
    7aa0:	0412      	lsls	r2, r2, #16
    7aa2:	4302      	orrs	r2, r0
    7aa4:	430a      	orrs	r2, r1
    7aa6:	4693      	mov	fp, r2
    7aa8:	4652      	mov	r2, sl
    7aaa:	00d1      	lsls	r1, r2, #3
    7aac:	4a5c      	ldr	r2, [pc, #368]	; (7c20 <__aeabi_ddiv+0x1e8>)
    7aae:	4694      	mov	ip, r2
    7ab0:	2200      	movs	r2, #0
    7ab2:	4463      	add	r3, ip
    7ab4:	0038      	movs	r0, r7
    7ab6:	4068      	eors	r0, r5
    7ab8:	4684      	mov	ip, r0
    7aba:	9002      	str	r0, [sp, #8]
    7abc:	1ae4      	subs	r4, r4, r3
    7abe:	4316      	orrs	r6, r2
    7ac0:	2e0f      	cmp	r6, #15
    7ac2:	d900      	bls.n	7ac6 <__aeabi_ddiv+0x8e>
    7ac4:	e0b4      	b.n	7c30 <__aeabi_ddiv+0x1f8>
    7ac6:	4b57      	ldr	r3, [pc, #348]	; (7c24 <__aeabi_ddiv+0x1ec>)
    7ac8:	00b6      	lsls	r6, r6, #2
    7aca:	599b      	ldr	r3, [r3, r6]
    7acc:	469f      	mov	pc, r3
    7ace:	0003      	movs	r3, r0
    7ad0:	4333      	orrs	r3, r6
    7ad2:	4699      	mov	r9, r3
    7ad4:	d16c      	bne.n	7bb0 <__aeabi_ddiv+0x178>
    7ad6:	2300      	movs	r3, #0
    7ad8:	4698      	mov	r8, r3
    7ada:	3302      	adds	r3, #2
    7adc:	2608      	movs	r6, #8
    7ade:	9303      	str	r3, [sp, #12]
    7ae0:	e7ce      	b.n	7a80 <__aeabi_ddiv+0x48>
    7ae2:	46cb      	mov	fp, r9
    7ae4:	4641      	mov	r1, r8
    7ae6:	9a03      	ldr	r2, [sp, #12]
    7ae8:	9701      	str	r7, [sp, #4]
    7aea:	2a02      	cmp	r2, #2
    7aec:	d165      	bne.n	7bba <__aeabi_ddiv+0x182>
    7aee:	9b01      	ldr	r3, [sp, #4]
    7af0:	4c4a      	ldr	r4, [pc, #296]	; (7c1c <__aeabi_ddiv+0x1e4>)
    7af2:	469c      	mov	ip, r3
    7af4:	2300      	movs	r3, #0
    7af6:	2200      	movs	r2, #0
    7af8:	4698      	mov	r8, r3
    7afa:	e06b      	b.n	7bd4 <__aeabi_ddiv+0x19c>
    7afc:	0003      	movs	r3, r0
    7afe:	4333      	orrs	r3, r6
    7b00:	4699      	mov	r9, r3
    7b02:	d04e      	beq.n	7ba2 <__aeabi_ddiv+0x16a>
    7b04:	2e00      	cmp	r6, #0
    7b06:	d100      	bne.n	7b0a <__aeabi_ddiv+0xd2>
    7b08:	e1bc      	b.n	7e84 <__aeabi_ddiv+0x44c>
    7b0a:	0030      	movs	r0, r6
    7b0c:	f001 f8ca 	bl	8ca4 <__clzsi2>
    7b10:	0003      	movs	r3, r0
    7b12:	3b0b      	subs	r3, #11
    7b14:	2b1c      	cmp	r3, #28
    7b16:	dd00      	ble.n	7b1a <__aeabi_ddiv+0xe2>
    7b18:	e1ac      	b.n	7e74 <__aeabi_ddiv+0x43c>
    7b1a:	221d      	movs	r2, #29
    7b1c:	1ad3      	subs	r3, r2, r3
    7b1e:	465a      	mov	r2, fp
    7b20:	0001      	movs	r1, r0
    7b22:	40da      	lsrs	r2, r3
    7b24:	3908      	subs	r1, #8
    7b26:	408e      	lsls	r6, r1
    7b28:	0013      	movs	r3, r2
    7b2a:	4333      	orrs	r3, r6
    7b2c:	4699      	mov	r9, r3
    7b2e:	465b      	mov	r3, fp
    7b30:	408b      	lsls	r3, r1
    7b32:	4698      	mov	r8, r3
    7b34:	2300      	movs	r3, #0
    7b36:	4c3c      	ldr	r4, [pc, #240]	; (7c28 <__aeabi_ddiv+0x1f0>)
    7b38:	2600      	movs	r6, #0
    7b3a:	1a24      	subs	r4, r4, r0
    7b3c:	9303      	str	r3, [sp, #12]
    7b3e:	e79f      	b.n	7a80 <__aeabi_ddiv+0x48>
    7b40:	4651      	mov	r1, sl
    7b42:	465a      	mov	r2, fp
    7b44:	4311      	orrs	r1, r2
    7b46:	d129      	bne.n	7b9c <__aeabi_ddiv+0x164>
    7b48:	2200      	movs	r2, #0
    7b4a:	4693      	mov	fp, r2
    7b4c:	3202      	adds	r2, #2
    7b4e:	e7b1      	b.n	7ab4 <__aeabi_ddiv+0x7c>
    7b50:	4659      	mov	r1, fp
    7b52:	4301      	orrs	r1, r0
    7b54:	d01e      	beq.n	7b94 <__aeabi_ddiv+0x15c>
    7b56:	465b      	mov	r3, fp
    7b58:	2b00      	cmp	r3, #0
    7b5a:	d100      	bne.n	7b5e <__aeabi_ddiv+0x126>
    7b5c:	e19e      	b.n	7e9c <__aeabi_ddiv+0x464>
    7b5e:	4658      	mov	r0, fp
    7b60:	f001 f8a0 	bl	8ca4 <__clzsi2>
    7b64:	0003      	movs	r3, r0
    7b66:	3b0b      	subs	r3, #11
    7b68:	2b1c      	cmp	r3, #28
    7b6a:	dd00      	ble.n	7b6e <__aeabi_ddiv+0x136>
    7b6c:	e18f      	b.n	7e8e <__aeabi_ddiv+0x456>
    7b6e:	0002      	movs	r2, r0
    7b70:	4659      	mov	r1, fp
    7b72:	3a08      	subs	r2, #8
    7b74:	4091      	lsls	r1, r2
    7b76:	468b      	mov	fp, r1
    7b78:	211d      	movs	r1, #29
    7b7a:	1acb      	subs	r3, r1, r3
    7b7c:	4651      	mov	r1, sl
    7b7e:	40d9      	lsrs	r1, r3
    7b80:	000b      	movs	r3, r1
    7b82:	4659      	mov	r1, fp
    7b84:	430b      	orrs	r3, r1
    7b86:	4651      	mov	r1, sl
    7b88:	469b      	mov	fp, r3
    7b8a:	4091      	lsls	r1, r2
    7b8c:	4b26      	ldr	r3, [pc, #152]	; (7c28 <__aeabi_ddiv+0x1f0>)
    7b8e:	2200      	movs	r2, #0
    7b90:	1a1b      	subs	r3, r3, r0
    7b92:	e78f      	b.n	7ab4 <__aeabi_ddiv+0x7c>
    7b94:	2300      	movs	r3, #0
    7b96:	2201      	movs	r2, #1
    7b98:	469b      	mov	fp, r3
    7b9a:	e78b      	b.n	7ab4 <__aeabi_ddiv+0x7c>
    7b9c:	4651      	mov	r1, sl
    7b9e:	2203      	movs	r2, #3
    7ba0:	e788      	b.n	7ab4 <__aeabi_ddiv+0x7c>
    7ba2:	2300      	movs	r3, #0
    7ba4:	4698      	mov	r8, r3
    7ba6:	3301      	adds	r3, #1
    7ba8:	2604      	movs	r6, #4
    7baa:	2400      	movs	r4, #0
    7bac:	9303      	str	r3, [sp, #12]
    7bae:	e767      	b.n	7a80 <__aeabi_ddiv+0x48>
    7bb0:	2303      	movs	r3, #3
    7bb2:	46b1      	mov	r9, r6
    7bb4:	9303      	str	r3, [sp, #12]
    7bb6:	260c      	movs	r6, #12
    7bb8:	e762      	b.n	7a80 <__aeabi_ddiv+0x48>
    7bba:	2a03      	cmp	r2, #3
    7bbc:	d100      	bne.n	7bc0 <__aeabi_ddiv+0x188>
    7bbe:	e25c      	b.n	807a <__aeabi_ddiv+0x642>
    7bc0:	9b01      	ldr	r3, [sp, #4]
    7bc2:	2a01      	cmp	r2, #1
    7bc4:	d000      	beq.n	7bc8 <__aeabi_ddiv+0x190>
    7bc6:	e1e4      	b.n	7f92 <__aeabi_ddiv+0x55a>
    7bc8:	4013      	ands	r3, r2
    7bca:	469c      	mov	ip, r3
    7bcc:	2300      	movs	r3, #0
    7bce:	2400      	movs	r4, #0
    7bd0:	2200      	movs	r2, #0
    7bd2:	4698      	mov	r8, r3
    7bd4:	2100      	movs	r1, #0
    7bd6:	0312      	lsls	r2, r2, #12
    7bd8:	0b13      	lsrs	r3, r2, #12
    7bda:	0d0a      	lsrs	r2, r1, #20
    7bdc:	0512      	lsls	r2, r2, #20
    7bde:	431a      	orrs	r2, r3
    7be0:	0523      	lsls	r3, r4, #20
    7be2:	4c12      	ldr	r4, [pc, #72]	; (7c2c <__aeabi_ddiv+0x1f4>)
    7be4:	4640      	mov	r0, r8
    7be6:	4022      	ands	r2, r4
    7be8:	4313      	orrs	r3, r2
    7bea:	4662      	mov	r2, ip
    7bec:	005b      	lsls	r3, r3, #1
    7bee:	07d2      	lsls	r2, r2, #31
    7bf0:	085b      	lsrs	r3, r3, #1
    7bf2:	4313      	orrs	r3, r2
    7bf4:	0019      	movs	r1, r3
    7bf6:	b007      	add	sp, #28
    7bf8:	bc3c      	pop	{r2, r3, r4, r5}
    7bfa:	4690      	mov	r8, r2
    7bfc:	4699      	mov	r9, r3
    7bfe:	46a2      	mov	sl, r4
    7c00:	46ab      	mov	fp, r5
    7c02:	bdf0      	pop	{r4, r5, r6, r7, pc}
    7c04:	2300      	movs	r3, #0
    7c06:	2280      	movs	r2, #128	; 0x80
    7c08:	469c      	mov	ip, r3
    7c0a:	0312      	lsls	r2, r2, #12
    7c0c:	4698      	mov	r8, r3
    7c0e:	4c03      	ldr	r4, [pc, #12]	; (7c1c <__aeabi_ddiv+0x1e4>)
    7c10:	e7e0      	b.n	7bd4 <__aeabi_ddiv+0x19c>
    7c12:	2300      	movs	r3, #0
    7c14:	4c01      	ldr	r4, [pc, #4]	; (7c1c <__aeabi_ddiv+0x1e4>)
    7c16:	2200      	movs	r2, #0
    7c18:	4698      	mov	r8, r3
    7c1a:	e7db      	b.n	7bd4 <__aeabi_ddiv+0x19c>
    7c1c:	000007ff 	.word	0x000007ff
    7c20:	fffffc01 	.word	0xfffffc01
    7c24:	0000aae4 	.word	0x0000aae4
    7c28:	fffffc0d 	.word	0xfffffc0d
    7c2c:	800fffff 	.word	0x800fffff
    7c30:	45d9      	cmp	r9, fp
    7c32:	d900      	bls.n	7c36 <__aeabi_ddiv+0x1fe>
    7c34:	e139      	b.n	7eaa <__aeabi_ddiv+0x472>
    7c36:	d100      	bne.n	7c3a <__aeabi_ddiv+0x202>
    7c38:	e134      	b.n	7ea4 <__aeabi_ddiv+0x46c>
    7c3a:	2300      	movs	r3, #0
    7c3c:	4646      	mov	r6, r8
    7c3e:	464d      	mov	r5, r9
    7c40:	469a      	mov	sl, r3
    7c42:	3c01      	subs	r4, #1
    7c44:	465b      	mov	r3, fp
    7c46:	0e0a      	lsrs	r2, r1, #24
    7c48:	021b      	lsls	r3, r3, #8
    7c4a:	431a      	orrs	r2, r3
    7c4c:	020b      	lsls	r3, r1, #8
    7c4e:	0c17      	lsrs	r7, r2, #16
    7c50:	9303      	str	r3, [sp, #12]
    7c52:	0413      	lsls	r3, r2, #16
    7c54:	0c1b      	lsrs	r3, r3, #16
    7c56:	0039      	movs	r1, r7
    7c58:	0028      	movs	r0, r5
    7c5a:	4690      	mov	r8, r2
    7c5c:	9301      	str	r3, [sp, #4]
    7c5e:	f7ff f995 	bl	6f8c <__udivsi3>
    7c62:	0002      	movs	r2, r0
    7c64:	9b01      	ldr	r3, [sp, #4]
    7c66:	4683      	mov	fp, r0
    7c68:	435a      	muls	r2, r3
    7c6a:	0028      	movs	r0, r5
    7c6c:	0039      	movs	r1, r7
    7c6e:	4691      	mov	r9, r2
    7c70:	f7ff fa12 	bl	7098 <__aeabi_uidivmod>
    7c74:	0c35      	lsrs	r5, r6, #16
    7c76:	0409      	lsls	r1, r1, #16
    7c78:	430d      	orrs	r5, r1
    7c7a:	45a9      	cmp	r9, r5
    7c7c:	d90d      	bls.n	7c9a <__aeabi_ddiv+0x262>
    7c7e:	465b      	mov	r3, fp
    7c80:	4445      	add	r5, r8
    7c82:	3b01      	subs	r3, #1
    7c84:	45a8      	cmp	r8, r5
    7c86:	d900      	bls.n	7c8a <__aeabi_ddiv+0x252>
    7c88:	e13a      	b.n	7f00 <__aeabi_ddiv+0x4c8>
    7c8a:	45a9      	cmp	r9, r5
    7c8c:	d800      	bhi.n	7c90 <__aeabi_ddiv+0x258>
    7c8e:	e137      	b.n	7f00 <__aeabi_ddiv+0x4c8>
    7c90:	2302      	movs	r3, #2
    7c92:	425b      	negs	r3, r3
    7c94:	469c      	mov	ip, r3
    7c96:	4445      	add	r5, r8
    7c98:	44e3      	add	fp, ip
    7c9a:	464b      	mov	r3, r9
    7c9c:	1aeb      	subs	r3, r5, r3
    7c9e:	0039      	movs	r1, r7
    7ca0:	0018      	movs	r0, r3
    7ca2:	9304      	str	r3, [sp, #16]
    7ca4:	f7ff f972 	bl	6f8c <__udivsi3>
    7ca8:	9b01      	ldr	r3, [sp, #4]
    7caa:	0005      	movs	r5, r0
    7cac:	4343      	muls	r3, r0
    7cae:	0039      	movs	r1, r7
    7cb0:	9804      	ldr	r0, [sp, #16]
    7cb2:	4699      	mov	r9, r3
    7cb4:	f7ff f9f0 	bl	7098 <__aeabi_uidivmod>
    7cb8:	0433      	lsls	r3, r6, #16
    7cba:	0409      	lsls	r1, r1, #16
    7cbc:	0c1b      	lsrs	r3, r3, #16
    7cbe:	430b      	orrs	r3, r1
    7cc0:	4599      	cmp	r9, r3
    7cc2:	d909      	bls.n	7cd8 <__aeabi_ddiv+0x2a0>
    7cc4:	4443      	add	r3, r8
    7cc6:	1e6a      	subs	r2, r5, #1
    7cc8:	4598      	cmp	r8, r3
    7cca:	d900      	bls.n	7cce <__aeabi_ddiv+0x296>
    7ccc:	e11a      	b.n	7f04 <__aeabi_ddiv+0x4cc>
    7cce:	4599      	cmp	r9, r3
    7cd0:	d800      	bhi.n	7cd4 <__aeabi_ddiv+0x29c>
    7cd2:	e117      	b.n	7f04 <__aeabi_ddiv+0x4cc>
    7cd4:	3d02      	subs	r5, #2
    7cd6:	4443      	add	r3, r8
    7cd8:	464a      	mov	r2, r9
    7cda:	1a9b      	subs	r3, r3, r2
    7cdc:	465a      	mov	r2, fp
    7cde:	0412      	lsls	r2, r2, #16
    7ce0:	432a      	orrs	r2, r5
    7ce2:	9903      	ldr	r1, [sp, #12]
    7ce4:	4693      	mov	fp, r2
    7ce6:	0c10      	lsrs	r0, r2, #16
    7ce8:	0c0a      	lsrs	r2, r1, #16
    7cea:	4691      	mov	r9, r2
    7cec:	0409      	lsls	r1, r1, #16
    7cee:	465a      	mov	r2, fp
    7cf0:	0c09      	lsrs	r1, r1, #16
    7cf2:	464e      	mov	r6, r9
    7cf4:	000d      	movs	r5, r1
    7cf6:	0412      	lsls	r2, r2, #16
    7cf8:	0c12      	lsrs	r2, r2, #16
    7cfa:	4345      	muls	r5, r0
    7cfc:	9105      	str	r1, [sp, #20]
    7cfe:	4351      	muls	r1, r2
    7d00:	4372      	muls	r2, r6
    7d02:	4370      	muls	r0, r6
    7d04:	1952      	adds	r2, r2, r5
    7d06:	0c0e      	lsrs	r6, r1, #16
    7d08:	18b2      	adds	r2, r6, r2
    7d0a:	4295      	cmp	r5, r2
    7d0c:	d903      	bls.n	7d16 <__aeabi_ddiv+0x2de>
    7d0e:	2580      	movs	r5, #128	; 0x80
    7d10:	026d      	lsls	r5, r5, #9
    7d12:	46ac      	mov	ip, r5
    7d14:	4460      	add	r0, ip
    7d16:	0c15      	lsrs	r5, r2, #16
    7d18:	0409      	lsls	r1, r1, #16
    7d1a:	0412      	lsls	r2, r2, #16
    7d1c:	0c09      	lsrs	r1, r1, #16
    7d1e:	1828      	adds	r0, r5, r0
    7d20:	1852      	adds	r2, r2, r1
    7d22:	4283      	cmp	r3, r0
    7d24:	d200      	bcs.n	7d28 <__aeabi_ddiv+0x2f0>
    7d26:	e0ce      	b.n	7ec6 <__aeabi_ddiv+0x48e>
    7d28:	d100      	bne.n	7d2c <__aeabi_ddiv+0x2f4>
    7d2a:	e0c8      	b.n	7ebe <__aeabi_ddiv+0x486>
    7d2c:	1a1d      	subs	r5, r3, r0
    7d2e:	4653      	mov	r3, sl
    7d30:	1a9e      	subs	r6, r3, r2
    7d32:	45b2      	cmp	sl, r6
    7d34:	4192      	sbcs	r2, r2
    7d36:	4252      	negs	r2, r2
    7d38:	1aab      	subs	r3, r5, r2
    7d3a:	469a      	mov	sl, r3
    7d3c:	4598      	cmp	r8, r3
    7d3e:	d100      	bne.n	7d42 <__aeabi_ddiv+0x30a>
    7d40:	e117      	b.n	7f72 <__aeabi_ddiv+0x53a>
    7d42:	0039      	movs	r1, r7
    7d44:	0018      	movs	r0, r3
    7d46:	f7ff f921 	bl	6f8c <__udivsi3>
    7d4a:	9b01      	ldr	r3, [sp, #4]
    7d4c:	0005      	movs	r5, r0
    7d4e:	4343      	muls	r3, r0
    7d50:	0039      	movs	r1, r7
    7d52:	4650      	mov	r0, sl
    7d54:	9304      	str	r3, [sp, #16]
    7d56:	f7ff f99f 	bl	7098 <__aeabi_uidivmod>
    7d5a:	9804      	ldr	r0, [sp, #16]
    7d5c:	040b      	lsls	r3, r1, #16
    7d5e:	0c31      	lsrs	r1, r6, #16
    7d60:	4319      	orrs	r1, r3
    7d62:	4288      	cmp	r0, r1
    7d64:	d909      	bls.n	7d7a <__aeabi_ddiv+0x342>
    7d66:	4441      	add	r1, r8
    7d68:	1e6b      	subs	r3, r5, #1
    7d6a:	4588      	cmp	r8, r1
    7d6c:	d900      	bls.n	7d70 <__aeabi_ddiv+0x338>
    7d6e:	e107      	b.n	7f80 <__aeabi_ddiv+0x548>
    7d70:	4288      	cmp	r0, r1
    7d72:	d800      	bhi.n	7d76 <__aeabi_ddiv+0x33e>
    7d74:	e104      	b.n	7f80 <__aeabi_ddiv+0x548>
    7d76:	3d02      	subs	r5, #2
    7d78:	4441      	add	r1, r8
    7d7a:	9b04      	ldr	r3, [sp, #16]
    7d7c:	1acb      	subs	r3, r1, r3
    7d7e:	0018      	movs	r0, r3
    7d80:	0039      	movs	r1, r7
    7d82:	9304      	str	r3, [sp, #16]
    7d84:	f7ff f902 	bl	6f8c <__udivsi3>
    7d88:	9b01      	ldr	r3, [sp, #4]
    7d8a:	4682      	mov	sl, r0
    7d8c:	4343      	muls	r3, r0
    7d8e:	0039      	movs	r1, r7
    7d90:	9804      	ldr	r0, [sp, #16]
    7d92:	9301      	str	r3, [sp, #4]
    7d94:	f7ff f980 	bl	7098 <__aeabi_uidivmod>
    7d98:	9801      	ldr	r0, [sp, #4]
    7d9a:	040b      	lsls	r3, r1, #16
    7d9c:	0431      	lsls	r1, r6, #16
    7d9e:	0c09      	lsrs	r1, r1, #16
    7da0:	4319      	orrs	r1, r3
    7da2:	4288      	cmp	r0, r1
    7da4:	d90d      	bls.n	7dc2 <__aeabi_ddiv+0x38a>
    7da6:	4653      	mov	r3, sl
    7da8:	4441      	add	r1, r8
    7daa:	3b01      	subs	r3, #1
    7dac:	4588      	cmp	r8, r1
    7dae:	d900      	bls.n	7db2 <__aeabi_ddiv+0x37a>
    7db0:	e0e8      	b.n	7f84 <__aeabi_ddiv+0x54c>
    7db2:	4288      	cmp	r0, r1
    7db4:	d800      	bhi.n	7db8 <__aeabi_ddiv+0x380>
    7db6:	e0e5      	b.n	7f84 <__aeabi_ddiv+0x54c>
    7db8:	2302      	movs	r3, #2
    7dba:	425b      	negs	r3, r3
    7dbc:	469c      	mov	ip, r3
    7dbe:	4441      	add	r1, r8
    7dc0:	44e2      	add	sl, ip
    7dc2:	9b01      	ldr	r3, [sp, #4]
    7dc4:	042d      	lsls	r5, r5, #16
    7dc6:	1ace      	subs	r6, r1, r3
    7dc8:	4651      	mov	r1, sl
    7dca:	4329      	orrs	r1, r5
    7dcc:	9d05      	ldr	r5, [sp, #20]
    7dce:	464f      	mov	r7, r9
    7dd0:	002a      	movs	r2, r5
    7dd2:	040b      	lsls	r3, r1, #16
    7dd4:	0c08      	lsrs	r0, r1, #16
    7dd6:	0c1b      	lsrs	r3, r3, #16
    7dd8:	435a      	muls	r2, r3
    7dda:	4345      	muls	r5, r0
    7ddc:	437b      	muls	r3, r7
    7dde:	4378      	muls	r0, r7
    7de0:	195b      	adds	r3, r3, r5
    7de2:	0c17      	lsrs	r7, r2, #16
    7de4:	18fb      	adds	r3, r7, r3
    7de6:	429d      	cmp	r5, r3
    7de8:	d903      	bls.n	7df2 <__aeabi_ddiv+0x3ba>
    7dea:	2580      	movs	r5, #128	; 0x80
    7dec:	026d      	lsls	r5, r5, #9
    7dee:	46ac      	mov	ip, r5
    7df0:	4460      	add	r0, ip
    7df2:	0c1d      	lsrs	r5, r3, #16
    7df4:	0412      	lsls	r2, r2, #16
    7df6:	041b      	lsls	r3, r3, #16
    7df8:	0c12      	lsrs	r2, r2, #16
    7dfa:	1828      	adds	r0, r5, r0
    7dfc:	189b      	adds	r3, r3, r2
    7dfe:	4286      	cmp	r6, r0
    7e00:	d200      	bcs.n	7e04 <__aeabi_ddiv+0x3cc>
    7e02:	e093      	b.n	7f2c <__aeabi_ddiv+0x4f4>
    7e04:	d100      	bne.n	7e08 <__aeabi_ddiv+0x3d0>
    7e06:	e08e      	b.n	7f26 <__aeabi_ddiv+0x4ee>
    7e08:	2301      	movs	r3, #1
    7e0a:	4319      	orrs	r1, r3
    7e0c:	4ba0      	ldr	r3, [pc, #640]	; (8090 <__aeabi_ddiv+0x658>)
    7e0e:	18e3      	adds	r3, r4, r3
    7e10:	2b00      	cmp	r3, #0
    7e12:	dc00      	bgt.n	7e16 <__aeabi_ddiv+0x3de>
    7e14:	e099      	b.n	7f4a <__aeabi_ddiv+0x512>
    7e16:	074a      	lsls	r2, r1, #29
    7e18:	d000      	beq.n	7e1c <__aeabi_ddiv+0x3e4>
    7e1a:	e09e      	b.n	7f5a <__aeabi_ddiv+0x522>
    7e1c:	465a      	mov	r2, fp
    7e1e:	01d2      	lsls	r2, r2, #7
    7e20:	d506      	bpl.n	7e30 <__aeabi_ddiv+0x3f8>
    7e22:	465a      	mov	r2, fp
    7e24:	4b9b      	ldr	r3, [pc, #620]	; (8094 <__aeabi_ddiv+0x65c>)
    7e26:	401a      	ands	r2, r3
    7e28:	2380      	movs	r3, #128	; 0x80
    7e2a:	4693      	mov	fp, r2
    7e2c:	00db      	lsls	r3, r3, #3
    7e2e:	18e3      	adds	r3, r4, r3
    7e30:	4a99      	ldr	r2, [pc, #612]	; (8098 <__aeabi_ddiv+0x660>)
    7e32:	4293      	cmp	r3, r2
    7e34:	dd68      	ble.n	7f08 <__aeabi_ddiv+0x4d0>
    7e36:	2301      	movs	r3, #1
    7e38:	9a02      	ldr	r2, [sp, #8]
    7e3a:	4c98      	ldr	r4, [pc, #608]	; (809c <__aeabi_ddiv+0x664>)
    7e3c:	401a      	ands	r2, r3
    7e3e:	2300      	movs	r3, #0
    7e40:	4694      	mov	ip, r2
    7e42:	4698      	mov	r8, r3
    7e44:	2200      	movs	r2, #0
    7e46:	e6c5      	b.n	7bd4 <__aeabi_ddiv+0x19c>
    7e48:	2280      	movs	r2, #128	; 0x80
    7e4a:	464b      	mov	r3, r9
    7e4c:	0312      	lsls	r2, r2, #12
    7e4e:	4213      	tst	r3, r2
    7e50:	d00a      	beq.n	7e68 <__aeabi_ddiv+0x430>
    7e52:	465b      	mov	r3, fp
    7e54:	4213      	tst	r3, r2
    7e56:	d106      	bne.n	7e66 <__aeabi_ddiv+0x42e>
    7e58:	431a      	orrs	r2, r3
    7e5a:	0312      	lsls	r2, r2, #12
    7e5c:	0b12      	lsrs	r2, r2, #12
    7e5e:	46ac      	mov	ip, r5
    7e60:	4688      	mov	r8, r1
    7e62:	4c8e      	ldr	r4, [pc, #568]	; (809c <__aeabi_ddiv+0x664>)
    7e64:	e6b6      	b.n	7bd4 <__aeabi_ddiv+0x19c>
    7e66:	464b      	mov	r3, r9
    7e68:	431a      	orrs	r2, r3
    7e6a:	0312      	lsls	r2, r2, #12
    7e6c:	0b12      	lsrs	r2, r2, #12
    7e6e:	46bc      	mov	ip, r7
    7e70:	4c8a      	ldr	r4, [pc, #552]	; (809c <__aeabi_ddiv+0x664>)
    7e72:	e6af      	b.n	7bd4 <__aeabi_ddiv+0x19c>
    7e74:	0003      	movs	r3, r0
    7e76:	465a      	mov	r2, fp
    7e78:	3b28      	subs	r3, #40	; 0x28
    7e7a:	409a      	lsls	r2, r3
    7e7c:	2300      	movs	r3, #0
    7e7e:	4691      	mov	r9, r2
    7e80:	4698      	mov	r8, r3
    7e82:	e657      	b.n	7b34 <__aeabi_ddiv+0xfc>
    7e84:	4658      	mov	r0, fp
    7e86:	f000 ff0d 	bl	8ca4 <__clzsi2>
    7e8a:	3020      	adds	r0, #32
    7e8c:	e640      	b.n	7b10 <__aeabi_ddiv+0xd8>
    7e8e:	0003      	movs	r3, r0
    7e90:	4652      	mov	r2, sl
    7e92:	3b28      	subs	r3, #40	; 0x28
    7e94:	409a      	lsls	r2, r3
    7e96:	2100      	movs	r1, #0
    7e98:	4693      	mov	fp, r2
    7e9a:	e677      	b.n	7b8c <__aeabi_ddiv+0x154>
    7e9c:	f000 ff02 	bl	8ca4 <__clzsi2>
    7ea0:	3020      	adds	r0, #32
    7ea2:	e65f      	b.n	7b64 <__aeabi_ddiv+0x12c>
    7ea4:	4588      	cmp	r8, r1
    7ea6:	d200      	bcs.n	7eaa <__aeabi_ddiv+0x472>
    7ea8:	e6c7      	b.n	7c3a <__aeabi_ddiv+0x202>
    7eaa:	464b      	mov	r3, r9
    7eac:	07de      	lsls	r6, r3, #31
    7eae:	085d      	lsrs	r5, r3, #1
    7eb0:	4643      	mov	r3, r8
    7eb2:	085b      	lsrs	r3, r3, #1
    7eb4:	431e      	orrs	r6, r3
    7eb6:	4643      	mov	r3, r8
    7eb8:	07db      	lsls	r3, r3, #31
    7eba:	469a      	mov	sl, r3
    7ebc:	e6c2      	b.n	7c44 <__aeabi_ddiv+0x20c>
    7ebe:	2500      	movs	r5, #0
    7ec0:	4592      	cmp	sl, r2
    7ec2:	d300      	bcc.n	7ec6 <__aeabi_ddiv+0x48e>
    7ec4:	e733      	b.n	7d2e <__aeabi_ddiv+0x2f6>
    7ec6:	9e03      	ldr	r6, [sp, #12]
    7ec8:	4659      	mov	r1, fp
    7eca:	46b4      	mov	ip, r6
    7ecc:	44e2      	add	sl, ip
    7ece:	45b2      	cmp	sl, r6
    7ed0:	41ad      	sbcs	r5, r5
    7ed2:	426d      	negs	r5, r5
    7ed4:	4445      	add	r5, r8
    7ed6:	18eb      	adds	r3, r5, r3
    7ed8:	3901      	subs	r1, #1
    7eda:	4598      	cmp	r8, r3
    7edc:	d207      	bcs.n	7eee <__aeabi_ddiv+0x4b6>
    7ede:	4298      	cmp	r0, r3
    7ee0:	d900      	bls.n	7ee4 <__aeabi_ddiv+0x4ac>
    7ee2:	e07f      	b.n	7fe4 <__aeabi_ddiv+0x5ac>
    7ee4:	d100      	bne.n	7ee8 <__aeabi_ddiv+0x4b0>
    7ee6:	e0bc      	b.n	8062 <__aeabi_ddiv+0x62a>
    7ee8:	1a1d      	subs	r5, r3, r0
    7eea:	468b      	mov	fp, r1
    7eec:	e71f      	b.n	7d2e <__aeabi_ddiv+0x2f6>
    7eee:	4598      	cmp	r8, r3
    7ef0:	d1fa      	bne.n	7ee8 <__aeabi_ddiv+0x4b0>
    7ef2:	9d03      	ldr	r5, [sp, #12]
    7ef4:	4555      	cmp	r5, sl
    7ef6:	d9f2      	bls.n	7ede <__aeabi_ddiv+0x4a6>
    7ef8:	4643      	mov	r3, r8
    7efa:	468b      	mov	fp, r1
    7efc:	1a1d      	subs	r5, r3, r0
    7efe:	e716      	b.n	7d2e <__aeabi_ddiv+0x2f6>
    7f00:	469b      	mov	fp, r3
    7f02:	e6ca      	b.n	7c9a <__aeabi_ddiv+0x262>
    7f04:	0015      	movs	r5, r2
    7f06:	e6e7      	b.n	7cd8 <__aeabi_ddiv+0x2a0>
    7f08:	465a      	mov	r2, fp
    7f0a:	08c9      	lsrs	r1, r1, #3
    7f0c:	0752      	lsls	r2, r2, #29
    7f0e:	430a      	orrs	r2, r1
    7f10:	055b      	lsls	r3, r3, #21
    7f12:	4690      	mov	r8, r2
    7f14:	0d5c      	lsrs	r4, r3, #21
    7f16:	465a      	mov	r2, fp
    7f18:	2301      	movs	r3, #1
    7f1a:	9902      	ldr	r1, [sp, #8]
    7f1c:	0252      	lsls	r2, r2, #9
    7f1e:	4019      	ands	r1, r3
    7f20:	0b12      	lsrs	r2, r2, #12
    7f22:	468c      	mov	ip, r1
    7f24:	e656      	b.n	7bd4 <__aeabi_ddiv+0x19c>
    7f26:	2b00      	cmp	r3, #0
    7f28:	d100      	bne.n	7f2c <__aeabi_ddiv+0x4f4>
    7f2a:	e76f      	b.n	7e0c <__aeabi_ddiv+0x3d4>
    7f2c:	4446      	add	r6, r8
    7f2e:	1e4a      	subs	r2, r1, #1
    7f30:	45b0      	cmp	r8, r6
    7f32:	d929      	bls.n	7f88 <__aeabi_ddiv+0x550>
    7f34:	0011      	movs	r1, r2
    7f36:	4286      	cmp	r6, r0
    7f38:	d000      	beq.n	7f3c <__aeabi_ddiv+0x504>
    7f3a:	e765      	b.n	7e08 <__aeabi_ddiv+0x3d0>
    7f3c:	9a03      	ldr	r2, [sp, #12]
    7f3e:	4293      	cmp	r3, r2
    7f40:	d000      	beq.n	7f44 <__aeabi_ddiv+0x50c>
    7f42:	e761      	b.n	7e08 <__aeabi_ddiv+0x3d0>
    7f44:	e762      	b.n	7e0c <__aeabi_ddiv+0x3d4>
    7f46:	2101      	movs	r1, #1
    7f48:	4249      	negs	r1, r1
    7f4a:	2001      	movs	r0, #1
    7f4c:	1ac2      	subs	r2, r0, r3
    7f4e:	2a38      	cmp	r2, #56	; 0x38
    7f50:	dd21      	ble.n	7f96 <__aeabi_ddiv+0x55e>
    7f52:	9b02      	ldr	r3, [sp, #8]
    7f54:	4003      	ands	r3, r0
    7f56:	469c      	mov	ip, r3
    7f58:	e638      	b.n	7bcc <__aeabi_ddiv+0x194>
    7f5a:	220f      	movs	r2, #15
    7f5c:	400a      	ands	r2, r1
    7f5e:	2a04      	cmp	r2, #4
    7f60:	d100      	bne.n	7f64 <__aeabi_ddiv+0x52c>
    7f62:	e75b      	b.n	7e1c <__aeabi_ddiv+0x3e4>
    7f64:	000a      	movs	r2, r1
    7f66:	1d11      	adds	r1, r2, #4
    7f68:	4291      	cmp	r1, r2
    7f6a:	4192      	sbcs	r2, r2
    7f6c:	4252      	negs	r2, r2
    7f6e:	4493      	add	fp, r2
    7f70:	e754      	b.n	7e1c <__aeabi_ddiv+0x3e4>
    7f72:	4b47      	ldr	r3, [pc, #284]	; (8090 <__aeabi_ddiv+0x658>)
    7f74:	18e3      	adds	r3, r4, r3
    7f76:	2b00      	cmp	r3, #0
    7f78:	dde5      	ble.n	7f46 <__aeabi_ddiv+0x50e>
    7f7a:	2201      	movs	r2, #1
    7f7c:	4252      	negs	r2, r2
    7f7e:	e7f2      	b.n	7f66 <__aeabi_ddiv+0x52e>
    7f80:	001d      	movs	r5, r3
    7f82:	e6fa      	b.n	7d7a <__aeabi_ddiv+0x342>
    7f84:	469a      	mov	sl, r3
    7f86:	e71c      	b.n	7dc2 <__aeabi_ddiv+0x38a>
    7f88:	42b0      	cmp	r0, r6
    7f8a:	d839      	bhi.n	8000 <__aeabi_ddiv+0x5c8>
    7f8c:	d06e      	beq.n	806c <__aeabi_ddiv+0x634>
    7f8e:	0011      	movs	r1, r2
    7f90:	e73a      	b.n	7e08 <__aeabi_ddiv+0x3d0>
    7f92:	9302      	str	r3, [sp, #8]
    7f94:	e73a      	b.n	7e0c <__aeabi_ddiv+0x3d4>
    7f96:	2a1f      	cmp	r2, #31
    7f98:	dc3c      	bgt.n	8014 <__aeabi_ddiv+0x5dc>
    7f9a:	2320      	movs	r3, #32
    7f9c:	1a9b      	subs	r3, r3, r2
    7f9e:	000c      	movs	r4, r1
    7fa0:	4658      	mov	r0, fp
    7fa2:	4099      	lsls	r1, r3
    7fa4:	4098      	lsls	r0, r3
    7fa6:	1e4b      	subs	r3, r1, #1
    7fa8:	4199      	sbcs	r1, r3
    7faa:	465b      	mov	r3, fp
    7fac:	40d4      	lsrs	r4, r2
    7fae:	40d3      	lsrs	r3, r2
    7fb0:	4320      	orrs	r0, r4
    7fb2:	4308      	orrs	r0, r1
    7fb4:	001a      	movs	r2, r3
    7fb6:	0743      	lsls	r3, r0, #29
    7fb8:	d009      	beq.n	7fce <__aeabi_ddiv+0x596>
    7fba:	230f      	movs	r3, #15
    7fbc:	4003      	ands	r3, r0
    7fbe:	2b04      	cmp	r3, #4
    7fc0:	d005      	beq.n	7fce <__aeabi_ddiv+0x596>
    7fc2:	0001      	movs	r1, r0
    7fc4:	1d08      	adds	r0, r1, #4
    7fc6:	4288      	cmp	r0, r1
    7fc8:	419b      	sbcs	r3, r3
    7fca:	425b      	negs	r3, r3
    7fcc:	18d2      	adds	r2, r2, r3
    7fce:	0213      	lsls	r3, r2, #8
    7fd0:	d53a      	bpl.n	8048 <__aeabi_ddiv+0x610>
    7fd2:	2301      	movs	r3, #1
    7fd4:	9a02      	ldr	r2, [sp, #8]
    7fd6:	2401      	movs	r4, #1
    7fd8:	401a      	ands	r2, r3
    7fda:	2300      	movs	r3, #0
    7fdc:	4694      	mov	ip, r2
    7fde:	4698      	mov	r8, r3
    7fe0:	2200      	movs	r2, #0
    7fe2:	e5f7      	b.n	7bd4 <__aeabi_ddiv+0x19c>
    7fe4:	2102      	movs	r1, #2
    7fe6:	4249      	negs	r1, r1
    7fe8:	468c      	mov	ip, r1
    7fea:	9d03      	ldr	r5, [sp, #12]
    7fec:	44e3      	add	fp, ip
    7fee:	46ac      	mov	ip, r5
    7ff0:	44e2      	add	sl, ip
    7ff2:	45aa      	cmp	sl, r5
    7ff4:	41ad      	sbcs	r5, r5
    7ff6:	426d      	negs	r5, r5
    7ff8:	4445      	add	r5, r8
    7ffa:	18ed      	adds	r5, r5, r3
    7ffc:	1a2d      	subs	r5, r5, r0
    7ffe:	e696      	b.n	7d2e <__aeabi_ddiv+0x2f6>
    8000:	1e8a      	subs	r2, r1, #2
    8002:	9903      	ldr	r1, [sp, #12]
    8004:	004d      	lsls	r5, r1, #1
    8006:	428d      	cmp	r5, r1
    8008:	4189      	sbcs	r1, r1
    800a:	4249      	negs	r1, r1
    800c:	4441      	add	r1, r8
    800e:	1876      	adds	r6, r6, r1
    8010:	9503      	str	r5, [sp, #12]
    8012:	e78f      	b.n	7f34 <__aeabi_ddiv+0x4fc>
    8014:	201f      	movs	r0, #31
    8016:	4240      	negs	r0, r0
    8018:	1ac3      	subs	r3, r0, r3
    801a:	4658      	mov	r0, fp
    801c:	40d8      	lsrs	r0, r3
    801e:	0003      	movs	r3, r0
    8020:	2a20      	cmp	r2, #32
    8022:	d028      	beq.n	8076 <__aeabi_ddiv+0x63e>
    8024:	2040      	movs	r0, #64	; 0x40
    8026:	465d      	mov	r5, fp
    8028:	1a82      	subs	r2, r0, r2
    802a:	4095      	lsls	r5, r2
    802c:	4329      	orrs	r1, r5
    802e:	1e4a      	subs	r2, r1, #1
    8030:	4191      	sbcs	r1, r2
    8032:	4319      	orrs	r1, r3
    8034:	2307      	movs	r3, #7
    8036:	2200      	movs	r2, #0
    8038:	400b      	ands	r3, r1
    803a:	d009      	beq.n	8050 <__aeabi_ddiv+0x618>
    803c:	230f      	movs	r3, #15
    803e:	2200      	movs	r2, #0
    8040:	400b      	ands	r3, r1
    8042:	0008      	movs	r0, r1
    8044:	2b04      	cmp	r3, #4
    8046:	d1bd      	bne.n	7fc4 <__aeabi_ddiv+0x58c>
    8048:	0001      	movs	r1, r0
    804a:	0753      	lsls	r3, r2, #29
    804c:	0252      	lsls	r2, r2, #9
    804e:	0b12      	lsrs	r2, r2, #12
    8050:	08c9      	lsrs	r1, r1, #3
    8052:	4319      	orrs	r1, r3
    8054:	2301      	movs	r3, #1
    8056:	4688      	mov	r8, r1
    8058:	9902      	ldr	r1, [sp, #8]
    805a:	2400      	movs	r4, #0
    805c:	4019      	ands	r1, r3
    805e:	468c      	mov	ip, r1
    8060:	e5b8      	b.n	7bd4 <__aeabi_ddiv+0x19c>
    8062:	4552      	cmp	r2, sl
    8064:	d8be      	bhi.n	7fe4 <__aeabi_ddiv+0x5ac>
    8066:	468b      	mov	fp, r1
    8068:	2500      	movs	r5, #0
    806a:	e660      	b.n	7d2e <__aeabi_ddiv+0x2f6>
    806c:	9d03      	ldr	r5, [sp, #12]
    806e:	429d      	cmp	r5, r3
    8070:	d3c6      	bcc.n	8000 <__aeabi_ddiv+0x5c8>
    8072:	0011      	movs	r1, r2
    8074:	e762      	b.n	7f3c <__aeabi_ddiv+0x504>
    8076:	2500      	movs	r5, #0
    8078:	e7d8      	b.n	802c <__aeabi_ddiv+0x5f4>
    807a:	2280      	movs	r2, #128	; 0x80
    807c:	465b      	mov	r3, fp
    807e:	0312      	lsls	r2, r2, #12
    8080:	431a      	orrs	r2, r3
    8082:	9b01      	ldr	r3, [sp, #4]
    8084:	0312      	lsls	r2, r2, #12
    8086:	0b12      	lsrs	r2, r2, #12
    8088:	469c      	mov	ip, r3
    808a:	4688      	mov	r8, r1
    808c:	4c03      	ldr	r4, [pc, #12]	; (809c <__aeabi_ddiv+0x664>)
    808e:	e5a1      	b.n	7bd4 <__aeabi_ddiv+0x19c>
    8090:	000003ff 	.word	0x000003ff
    8094:	feffffff 	.word	0xfeffffff
    8098:	000007fe 	.word	0x000007fe
    809c:	000007ff 	.word	0x000007ff

000080a0 <__aeabi_dmul>:
    80a0:	b5f0      	push	{r4, r5, r6, r7, lr}
    80a2:	4657      	mov	r7, sl
    80a4:	4645      	mov	r5, r8
    80a6:	46de      	mov	lr, fp
    80a8:	464e      	mov	r6, r9
    80aa:	b5e0      	push	{r5, r6, r7, lr}
    80ac:	030c      	lsls	r4, r1, #12
    80ae:	4698      	mov	r8, r3
    80b0:	004e      	lsls	r6, r1, #1
    80b2:	0b23      	lsrs	r3, r4, #12
    80b4:	b087      	sub	sp, #28
    80b6:	0007      	movs	r7, r0
    80b8:	4692      	mov	sl, r2
    80ba:	469b      	mov	fp, r3
    80bc:	0d76      	lsrs	r6, r6, #21
    80be:	0fcd      	lsrs	r5, r1, #31
    80c0:	2e00      	cmp	r6, #0
    80c2:	d06b      	beq.n	819c <__aeabi_dmul+0xfc>
    80c4:	4b6d      	ldr	r3, [pc, #436]	; (827c <__aeabi_dmul+0x1dc>)
    80c6:	429e      	cmp	r6, r3
    80c8:	d035      	beq.n	8136 <__aeabi_dmul+0x96>
    80ca:	2480      	movs	r4, #128	; 0x80
    80cc:	465b      	mov	r3, fp
    80ce:	0f42      	lsrs	r2, r0, #29
    80d0:	0424      	lsls	r4, r4, #16
    80d2:	00db      	lsls	r3, r3, #3
    80d4:	4314      	orrs	r4, r2
    80d6:	431c      	orrs	r4, r3
    80d8:	00c3      	lsls	r3, r0, #3
    80da:	4699      	mov	r9, r3
    80dc:	4b68      	ldr	r3, [pc, #416]	; (8280 <__aeabi_dmul+0x1e0>)
    80de:	46a3      	mov	fp, r4
    80e0:	469c      	mov	ip, r3
    80e2:	2300      	movs	r3, #0
    80e4:	2700      	movs	r7, #0
    80e6:	4466      	add	r6, ip
    80e8:	9302      	str	r3, [sp, #8]
    80ea:	4643      	mov	r3, r8
    80ec:	031c      	lsls	r4, r3, #12
    80ee:	005a      	lsls	r2, r3, #1
    80f0:	0fdb      	lsrs	r3, r3, #31
    80f2:	4650      	mov	r0, sl
    80f4:	0b24      	lsrs	r4, r4, #12
    80f6:	0d52      	lsrs	r2, r2, #21
    80f8:	4698      	mov	r8, r3
    80fa:	d100      	bne.n	80fe <__aeabi_dmul+0x5e>
    80fc:	e076      	b.n	81ec <__aeabi_dmul+0x14c>
    80fe:	4b5f      	ldr	r3, [pc, #380]	; (827c <__aeabi_dmul+0x1dc>)
    8100:	429a      	cmp	r2, r3
    8102:	d06d      	beq.n	81e0 <__aeabi_dmul+0x140>
    8104:	2380      	movs	r3, #128	; 0x80
    8106:	0f41      	lsrs	r1, r0, #29
    8108:	041b      	lsls	r3, r3, #16
    810a:	430b      	orrs	r3, r1
    810c:	495c      	ldr	r1, [pc, #368]	; (8280 <__aeabi_dmul+0x1e0>)
    810e:	00e4      	lsls	r4, r4, #3
    8110:	468c      	mov	ip, r1
    8112:	431c      	orrs	r4, r3
    8114:	00c3      	lsls	r3, r0, #3
    8116:	2000      	movs	r0, #0
    8118:	4462      	add	r2, ip
    811a:	4641      	mov	r1, r8
    811c:	18b6      	adds	r6, r6, r2
    811e:	4069      	eors	r1, r5
    8120:	1c72      	adds	r2, r6, #1
    8122:	9101      	str	r1, [sp, #4]
    8124:	4694      	mov	ip, r2
    8126:	4307      	orrs	r7, r0
    8128:	2f0f      	cmp	r7, #15
    812a:	d900      	bls.n	812e <__aeabi_dmul+0x8e>
    812c:	e0b0      	b.n	8290 <__aeabi_dmul+0x1f0>
    812e:	4a55      	ldr	r2, [pc, #340]	; (8284 <__aeabi_dmul+0x1e4>)
    8130:	00bf      	lsls	r7, r7, #2
    8132:	59d2      	ldr	r2, [r2, r7]
    8134:	4697      	mov	pc, r2
    8136:	465b      	mov	r3, fp
    8138:	4303      	orrs	r3, r0
    813a:	4699      	mov	r9, r3
    813c:	d000      	beq.n	8140 <__aeabi_dmul+0xa0>
    813e:	e087      	b.n	8250 <__aeabi_dmul+0x1b0>
    8140:	2300      	movs	r3, #0
    8142:	469b      	mov	fp, r3
    8144:	3302      	adds	r3, #2
    8146:	2708      	movs	r7, #8
    8148:	9302      	str	r3, [sp, #8]
    814a:	e7ce      	b.n	80ea <__aeabi_dmul+0x4a>
    814c:	4642      	mov	r2, r8
    814e:	9201      	str	r2, [sp, #4]
    8150:	2802      	cmp	r0, #2
    8152:	d067      	beq.n	8224 <__aeabi_dmul+0x184>
    8154:	2803      	cmp	r0, #3
    8156:	d100      	bne.n	815a <__aeabi_dmul+0xba>
    8158:	e20e      	b.n	8578 <__aeabi_dmul+0x4d8>
    815a:	2801      	cmp	r0, #1
    815c:	d000      	beq.n	8160 <__aeabi_dmul+0xc0>
    815e:	e162      	b.n	8426 <__aeabi_dmul+0x386>
    8160:	2300      	movs	r3, #0
    8162:	2400      	movs	r4, #0
    8164:	2200      	movs	r2, #0
    8166:	4699      	mov	r9, r3
    8168:	9901      	ldr	r1, [sp, #4]
    816a:	4001      	ands	r1, r0
    816c:	b2cd      	uxtb	r5, r1
    816e:	2100      	movs	r1, #0
    8170:	0312      	lsls	r2, r2, #12
    8172:	0d0b      	lsrs	r3, r1, #20
    8174:	0b12      	lsrs	r2, r2, #12
    8176:	051b      	lsls	r3, r3, #20
    8178:	4313      	orrs	r3, r2
    817a:	4a43      	ldr	r2, [pc, #268]	; (8288 <__aeabi_dmul+0x1e8>)
    817c:	0524      	lsls	r4, r4, #20
    817e:	4013      	ands	r3, r2
    8180:	431c      	orrs	r4, r3
    8182:	0064      	lsls	r4, r4, #1
    8184:	07ed      	lsls	r5, r5, #31
    8186:	0864      	lsrs	r4, r4, #1
    8188:	432c      	orrs	r4, r5
    818a:	4648      	mov	r0, r9
    818c:	0021      	movs	r1, r4
    818e:	b007      	add	sp, #28
    8190:	bc3c      	pop	{r2, r3, r4, r5}
    8192:	4690      	mov	r8, r2
    8194:	4699      	mov	r9, r3
    8196:	46a2      	mov	sl, r4
    8198:	46ab      	mov	fp, r5
    819a:	bdf0      	pop	{r4, r5, r6, r7, pc}
    819c:	4303      	orrs	r3, r0
    819e:	4699      	mov	r9, r3
    81a0:	d04f      	beq.n	8242 <__aeabi_dmul+0x1a2>
    81a2:	465b      	mov	r3, fp
    81a4:	2b00      	cmp	r3, #0
    81a6:	d100      	bne.n	81aa <__aeabi_dmul+0x10a>
    81a8:	e189      	b.n	84be <__aeabi_dmul+0x41e>
    81aa:	4658      	mov	r0, fp
    81ac:	f000 fd7a 	bl	8ca4 <__clzsi2>
    81b0:	0003      	movs	r3, r0
    81b2:	3b0b      	subs	r3, #11
    81b4:	2b1c      	cmp	r3, #28
    81b6:	dd00      	ble.n	81ba <__aeabi_dmul+0x11a>
    81b8:	e17a      	b.n	84b0 <__aeabi_dmul+0x410>
    81ba:	221d      	movs	r2, #29
    81bc:	1ad3      	subs	r3, r2, r3
    81be:	003a      	movs	r2, r7
    81c0:	0001      	movs	r1, r0
    81c2:	465c      	mov	r4, fp
    81c4:	40da      	lsrs	r2, r3
    81c6:	3908      	subs	r1, #8
    81c8:	408c      	lsls	r4, r1
    81ca:	0013      	movs	r3, r2
    81cc:	408f      	lsls	r7, r1
    81ce:	4323      	orrs	r3, r4
    81d0:	469b      	mov	fp, r3
    81d2:	46b9      	mov	r9, r7
    81d4:	2300      	movs	r3, #0
    81d6:	4e2d      	ldr	r6, [pc, #180]	; (828c <__aeabi_dmul+0x1ec>)
    81d8:	2700      	movs	r7, #0
    81da:	1a36      	subs	r6, r6, r0
    81dc:	9302      	str	r3, [sp, #8]
    81de:	e784      	b.n	80ea <__aeabi_dmul+0x4a>
    81e0:	4653      	mov	r3, sl
    81e2:	4323      	orrs	r3, r4
    81e4:	d12a      	bne.n	823c <__aeabi_dmul+0x19c>
    81e6:	2400      	movs	r4, #0
    81e8:	2002      	movs	r0, #2
    81ea:	e796      	b.n	811a <__aeabi_dmul+0x7a>
    81ec:	4653      	mov	r3, sl
    81ee:	4323      	orrs	r3, r4
    81f0:	d020      	beq.n	8234 <__aeabi_dmul+0x194>
    81f2:	2c00      	cmp	r4, #0
    81f4:	d100      	bne.n	81f8 <__aeabi_dmul+0x158>
    81f6:	e157      	b.n	84a8 <__aeabi_dmul+0x408>
    81f8:	0020      	movs	r0, r4
    81fa:	f000 fd53 	bl	8ca4 <__clzsi2>
    81fe:	0003      	movs	r3, r0
    8200:	3b0b      	subs	r3, #11
    8202:	2b1c      	cmp	r3, #28
    8204:	dd00      	ble.n	8208 <__aeabi_dmul+0x168>
    8206:	e149      	b.n	849c <__aeabi_dmul+0x3fc>
    8208:	211d      	movs	r1, #29
    820a:	1acb      	subs	r3, r1, r3
    820c:	4651      	mov	r1, sl
    820e:	0002      	movs	r2, r0
    8210:	40d9      	lsrs	r1, r3
    8212:	4653      	mov	r3, sl
    8214:	3a08      	subs	r2, #8
    8216:	4094      	lsls	r4, r2
    8218:	4093      	lsls	r3, r2
    821a:	430c      	orrs	r4, r1
    821c:	4a1b      	ldr	r2, [pc, #108]	; (828c <__aeabi_dmul+0x1ec>)
    821e:	1a12      	subs	r2, r2, r0
    8220:	2000      	movs	r0, #0
    8222:	e77a      	b.n	811a <__aeabi_dmul+0x7a>
    8224:	2501      	movs	r5, #1
    8226:	9b01      	ldr	r3, [sp, #4]
    8228:	4c14      	ldr	r4, [pc, #80]	; (827c <__aeabi_dmul+0x1dc>)
    822a:	401d      	ands	r5, r3
    822c:	2300      	movs	r3, #0
    822e:	2200      	movs	r2, #0
    8230:	4699      	mov	r9, r3
    8232:	e79c      	b.n	816e <__aeabi_dmul+0xce>
    8234:	2400      	movs	r4, #0
    8236:	2200      	movs	r2, #0
    8238:	2001      	movs	r0, #1
    823a:	e76e      	b.n	811a <__aeabi_dmul+0x7a>
    823c:	4653      	mov	r3, sl
    823e:	2003      	movs	r0, #3
    8240:	e76b      	b.n	811a <__aeabi_dmul+0x7a>
    8242:	2300      	movs	r3, #0
    8244:	469b      	mov	fp, r3
    8246:	3301      	adds	r3, #1
    8248:	2704      	movs	r7, #4
    824a:	2600      	movs	r6, #0
    824c:	9302      	str	r3, [sp, #8]
    824e:	e74c      	b.n	80ea <__aeabi_dmul+0x4a>
    8250:	2303      	movs	r3, #3
    8252:	4681      	mov	r9, r0
    8254:	270c      	movs	r7, #12
    8256:	9302      	str	r3, [sp, #8]
    8258:	e747      	b.n	80ea <__aeabi_dmul+0x4a>
    825a:	2280      	movs	r2, #128	; 0x80
    825c:	2300      	movs	r3, #0
    825e:	2500      	movs	r5, #0
    8260:	0312      	lsls	r2, r2, #12
    8262:	4699      	mov	r9, r3
    8264:	4c05      	ldr	r4, [pc, #20]	; (827c <__aeabi_dmul+0x1dc>)
    8266:	e782      	b.n	816e <__aeabi_dmul+0xce>
    8268:	465c      	mov	r4, fp
    826a:	464b      	mov	r3, r9
    826c:	9802      	ldr	r0, [sp, #8]
    826e:	e76f      	b.n	8150 <__aeabi_dmul+0xb0>
    8270:	465c      	mov	r4, fp
    8272:	464b      	mov	r3, r9
    8274:	9501      	str	r5, [sp, #4]
    8276:	9802      	ldr	r0, [sp, #8]
    8278:	e76a      	b.n	8150 <__aeabi_dmul+0xb0>
    827a:	46c0      	nop			; (mov r8, r8)
    827c:	000007ff 	.word	0x000007ff
    8280:	fffffc01 	.word	0xfffffc01
    8284:	0000ab24 	.word	0x0000ab24
    8288:	800fffff 	.word	0x800fffff
    828c:	fffffc0d 	.word	0xfffffc0d
    8290:	464a      	mov	r2, r9
    8292:	4649      	mov	r1, r9
    8294:	0c17      	lsrs	r7, r2, #16
    8296:	0c1a      	lsrs	r2, r3, #16
    8298:	041b      	lsls	r3, r3, #16
    829a:	0c1b      	lsrs	r3, r3, #16
    829c:	0408      	lsls	r0, r1, #16
    829e:	0019      	movs	r1, r3
    82a0:	0c00      	lsrs	r0, r0, #16
    82a2:	4341      	muls	r1, r0
    82a4:	0015      	movs	r5, r2
    82a6:	4688      	mov	r8, r1
    82a8:	0019      	movs	r1, r3
    82aa:	437d      	muls	r5, r7
    82ac:	4379      	muls	r1, r7
    82ae:	9503      	str	r5, [sp, #12]
    82b0:	4689      	mov	r9, r1
    82b2:	0029      	movs	r1, r5
    82b4:	0015      	movs	r5, r2
    82b6:	4345      	muls	r5, r0
    82b8:	444d      	add	r5, r9
    82ba:	9502      	str	r5, [sp, #8]
    82bc:	4645      	mov	r5, r8
    82be:	0c2d      	lsrs	r5, r5, #16
    82c0:	46aa      	mov	sl, r5
    82c2:	9d02      	ldr	r5, [sp, #8]
    82c4:	4455      	add	r5, sl
    82c6:	45a9      	cmp	r9, r5
    82c8:	d906      	bls.n	82d8 <__aeabi_dmul+0x238>
    82ca:	468a      	mov	sl, r1
    82cc:	2180      	movs	r1, #128	; 0x80
    82ce:	0249      	lsls	r1, r1, #9
    82d0:	4689      	mov	r9, r1
    82d2:	44ca      	add	sl, r9
    82d4:	4651      	mov	r1, sl
    82d6:	9103      	str	r1, [sp, #12]
    82d8:	0c29      	lsrs	r1, r5, #16
    82da:	9104      	str	r1, [sp, #16]
    82dc:	4641      	mov	r1, r8
    82de:	0409      	lsls	r1, r1, #16
    82e0:	042d      	lsls	r5, r5, #16
    82e2:	0c09      	lsrs	r1, r1, #16
    82e4:	4688      	mov	r8, r1
    82e6:	0029      	movs	r1, r5
    82e8:	0c25      	lsrs	r5, r4, #16
    82ea:	0424      	lsls	r4, r4, #16
    82ec:	4441      	add	r1, r8
    82ee:	0c24      	lsrs	r4, r4, #16
    82f0:	9105      	str	r1, [sp, #20]
    82f2:	0021      	movs	r1, r4
    82f4:	4341      	muls	r1, r0
    82f6:	4688      	mov	r8, r1
    82f8:	0021      	movs	r1, r4
    82fa:	4379      	muls	r1, r7
    82fc:	468a      	mov	sl, r1
    82fe:	4368      	muls	r0, r5
    8300:	4641      	mov	r1, r8
    8302:	4450      	add	r0, sl
    8304:	4681      	mov	r9, r0
    8306:	0c08      	lsrs	r0, r1, #16
    8308:	4448      	add	r0, r9
    830a:	436f      	muls	r7, r5
    830c:	4582      	cmp	sl, r0
    830e:	d903      	bls.n	8318 <__aeabi_dmul+0x278>
    8310:	2180      	movs	r1, #128	; 0x80
    8312:	0249      	lsls	r1, r1, #9
    8314:	4689      	mov	r9, r1
    8316:	444f      	add	r7, r9
    8318:	0c01      	lsrs	r1, r0, #16
    831a:	4689      	mov	r9, r1
    831c:	0039      	movs	r1, r7
    831e:	4449      	add	r1, r9
    8320:	9102      	str	r1, [sp, #8]
    8322:	4641      	mov	r1, r8
    8324:	040f      	lsls	r7, r1, #16
    8326:	9904      	ldr	r1, [sp, #16]
    8328:	0c3f      	lsrs	r7, r7, #16
    832a:	4688      	mov	r8, r1
    832c:	0400      	lsls	r0, r0, #16
    832e:	19c0      	adds	r0, r0, r7
    8330:	4480      	add	r8, r0
    8332:	4641      	mov	r1, r8
    8334:	9104      	str	r1, [sp, #16]
    8336:	4659      	mov	r1, fp
    8338:	0c0f      	lsrs	r7, r1, #16
    833a:	0409      	lsls	r1, r1, #16
    833c:	0c09      	lsrs	r1, r1, #16
    833e:	4688      	mov	r8, r1
    8340:	4359      	muls	r1, r3
    8342:	468a      	mov	sl, r1
    8344:	0039      	movs	r1, r7
    8346:	4351      	muls	r1, r2
    8348:	4689      	mov	r9, r1
    834a:	4641      	mov	r1, r8
    834c:	434a      	muls	r2, r1
    834e:	4651      	mov	r1, sl
    8350:	0c09      	lsrs	r1, r1, #16
    8352:	468b      	mov	fp, r1
    8354:	437b      	muls	r3, r7
    8356:	18d2      	adds	r2, r2, r3
    8358:	445a      	add	r2, fp
    835a:	4293      	cmp	r3, r2
    835c:	d903      	bls.n	8366 <__aeabi_dmul+0x2c6>
    835e:	2380      	movs	r3, #128	; 0x80
    8360:	025b      	lsls	r3, r3, #9
    8362:	469b      	mov	fp, r3
    8364:	44d9      	add	r9, fp
    8366:	4651      	mov	r1, sl
    8368:	0409      	lsls	r1, r1, #16
    836a:	0c09      	lsrs	r1, r1, #16
    836c:	468a      	mov	sl, r1
    836e:	4641      	mov	r1, r8
    8370:	4361      	muls	r1, r4
    8372:	437c      	muls	r4, r7
    8374:	0c13      	lsrs	r3, r2, #16
    8376:	0412      	lsls	r2, r2, #16
    8378:	444b      	add	r3, r9
    837a:	4452      	add	r2, sl
    837c:	46a1      	mov	r9, r4
    837e:	468a      	mov	sl, r1
    8380:	003c      	movs	r4, r7
    8382:	4641      	mov	r1, r8
    8384:	436c      	muls	r4, r5
    8386:	434d      	muls	r5, r1
    8388:	4651      	mov	r1, sl
    838a:	444d      	add	r5, r9
    838c:	0c0f      	lsrs	r7, r1, #16
    838e:	197d      	adds	r5, r7, r5
    8390:	45a9      	cmp	r9, r5
    8392:	d903      	bls.n	839c <__aeabi_dmul+0x2fc>
    8394:	2180      	movs	r1, #128	; 0x80
    8396:	0249      	lsls	r1, r1, #9
    8398:	4688      	mov	r8, r1
    839a:	4444      	add	r4, r8
    839c:	9f04      	ldr	r7, [sp, #16]
    839e:	9903      	ldr	r1, [sp, #12]
    83a0:	46b8      	mov	r8, r7
    83a2:	4441      	add	r1, r8
    83a4:	468b      	mov	fp, r1
    83a6:	4583      	cmp	fp, r0
    83a8:	4180      	sbcs	r0, r0
    83aa:	4241      	negs	r1, r0
    83ac:	4688      	mov	r8, r1
    83ae:	4651      	mov	r1, sl
    83b0:	0408      	lsls	r0, r1, #16
    83b2:	042f      	lsls	r7, r5, #16
    83b4:	0c00      	lsrs	r0, r0, #16
    83b6:	183f      	adds	r7, r7, r0
    83b8:	4658      	mov	r0, fp
    83ba:	9902      	ldr	r1, [sp, #8]
    83bc:	1810      	adds	r0, r2, r0
    83be:	4689      	mov	r9, r1
    83c0:	4290      	cmp	r0, r2
    83c2:	4192      	sbcs	r2, r2
    83c4:	444f      	add	r7, r9
    83c6:	46ba      	mov	sl, r7
    83c8:	4252      	negs	r2, r2
    83ca:	4699      	mov	r9, r3
    83cc:	4693      	mov	fp, r2
    83ce:	44c2      	add	sl, r8
    83d0:	44d1      	add	r9, sl
    83d2:	44cb      	add	fp, r9
    83d4:	428f      	cmp	r7, r1
    83d6:	41bf      	sbcs	r7, r7
    83d8:	45c2      	cmp	sl, r8
    83da:	4189      	sbcs	r1, r1
    83dc:	4599      	cmp	r9, r3
    83de:	419b      	sbcs	r3, r3
    83e0:	4593      	cmp	fp, r2
    83e2:	4192      	sbcs	r2, r2
    83e4:	427f      	negs	r7, r7
    83e6:	4249      	negs	r1, r1
    83e8:	0c2d      	lsrs	r5, r5, #16
    83ea:	4252      	negs	r2, r2
    83ec:	430f      	orrs	r7, r1
    83ee:	425b      	negs	r3, r3
    83f0:	4313      	orrs	r3, r2
    83f2:	197f      	adds	r7, r7, r5
    83f4:	18ff      	adds	r7, r7, r3
    83f6:	465b      	mov	r3, fp
    83f8:	193c      	adds	r4, r7, r4
    83fa:	0ddb      	lsrs	r3, r3, #23
    83fc:	9a05      	ldr	r2, [sp, #20]
    83fe:	0264      	lsls	r4, r4, #9
    8400:	431c      	orrs	r4, r3
    8402:	0243      	lsls	r3, r0, #9
    8404:	4313      	orrs	r3, r2
    8406:	1e5d      	subs	r5, r3, #1
    8408:	41ab      	sbcs	r3, r5
    840a:	465a      	mov	r2, fp
    840c:	0dc0      	lsrs	r0, r0, #23
    840e:	4303      	orrs	r3, r0
    8410:	0252      	lsls	r2, r2, #9
    8412:	4313      	orrs	r3, r2
    8414:	01e2      	lsls	r2, r4, #7
    8416:	d556      	bpl.n	84c6 <__aeabi_dmul+0x426>
    8418:	2001      	movs	r0, #1
    841a:	085a      	lsrs	r2, r3, #1
    841c:	4003      	ands	r3, r0
    841e:	4313      	orrs	r3, r2
    8420:	07e2      	lsls	r2, r4, #31
    8422:	4313      	orrs	r3, r2
    8424:	0864      	lsrs	r4, r4, #1
    8426:	485a      	ldr	r0, [pc, #360]	; (8590 <__aeabi_dmul+0x4f0>)
    8428:	4460      	add	r0, ip
    842a:	2800      	cmp	r0, #0
    842c:	dd4d      	ble.n	84ca <__aeabi_dmul+0x42a>
    842e:	075a      	lsls	r2, r3, #29
    8430:	d009      	beq.n	8446 <__aeabi_dmul+0x3a6>
    8432:	220f      	movs	r2, #15
    8434:	401a      	ands	r2, r3
    8436:	2a04      	cmp	r2, #4
    8438:	d005      	beq.n	8446 <__aeabi_dmul+0x3a6>
    843a:	1d1a      	adds	r2, r3, #4
    843c:	429a      	cmp	r2, r3
    843e:	419b      	sbcs	r3, r3
    8440:	425b      	negs	r3, r3
    8442:	18e4      	adds	r4, r4, r3
    8444:	0013      	movs	r3, r2
    8446:	01e2      	lsls	r2, r4, #7
    8448:	d504      	bpl.n	8454 <__aeabi_dmul+0x3b4>
    844a:	2080      	movs	r0, #128	; 0x80
    844c:	4a51      	ldr	r2, [pc, #324]	; (8594 <__aeabi_dmul+0x4f4>)
    844e:	00c0      	lsls	r0, r0, #3
    8450:	4014      	ands	r4, r2
    8452:	4460      	add	r0, ip
    8454:	4a50      	ldr	r2, [pc, #320]	; (8598 <__aeabi_dmul+0x4f8>)
    8456:	4290      	cmp	r0, r2
    8458:	dd00      	ble.n	845c <__aeabi_dmul+0x3bc>
    845a:	e6e3      	b.n	8224 <__aeabi_dmul+0x184>
    845c:	2501      	movs	r5, #1
    845e:	08db      	lsrs	r3, r3, #3
    8460:	0762      	lsls	r2, r4, #29
    8462:	431a      	orrs	r2, r3
    8464:	0264      	lsls	r4, r4, #9
    8466:	9b01      	ldr	r3, [sp, #4]
    8468:	4691      	mov	r9, r2
    846a:	0b22      	lsrs	r2, r4, #12
    846c:	0544      	lsls	r4, r0, #21
    846e:	0d64      	lsrs	r4, r4, #21
    8470:	401d      	ands	r5, r3
    8472:	e67c      	b.n	816e <__aeabi_dmul+0xce>
    8474:	2280      	movs	r2, #128	; 0x80
    8476:	4659      	mov	r1, fp
    8478:	0312      	lsls	r2, r2, #12
    847a:	4211      	tst	r1, r2
    847c:	d008      	beq.n	8490 <__aeabi_dmul+0x3f0>
    847e:	4214      	tst	r4, r2
    8480:	d106      	bne.n	8490 <__aeabi_dmul+0x3f0>
    8482:	4322      	orrs	r2, r4
    8484:	0312      	lsls	r2, r2, #12
    8486:	0b12      	lsrs	r2, r2, #12
    8488:	4645      	mov	r5, r8
    848a:	4699      	mov	r9, r3
    848c:	4c43      	ldr	r4, [pc, #268]	; (859c <__aeabi_dmul+0x4fc>)
    848e:	e66e      	b.n	816e <__aeabi_dmul+0xce>
    8490:	465b      	mov	r3, fp
    8492:	431a      	orrs	r2, r3
    8494:	0312      	lsls	r2, r2, #12
    8496:	0b12      	lsrs	r2, r2, #12
    8498:	4c40      	ldr	r4, [pc, #256]	; (859c <__aeabi_dmul+0x4fc>)
    849a:	e668      	b.n	816e <__aeabi_dmul+0xce>
    849c:	0003      	movs	r3, r0
    849e:	4654      	mov	r4, sl
    84a0:	3b28      	subs	r3, #40	; 0x28
    84a2:	409c      	lsls	r4, r3
    84a4:	2300      	movs	r3, #0
    84a6:	e6b9      	b.n	821c <__aeabi_dmul+0x17c>
    84a8:	f000 fbfc 	bl	8ca4 <__clzsi2>
    84ac:	3020      	adds	r0, #32
    84ae:	e6a6      	b.n	81fe <__aeabi_dmul+0x15e>
    84b0:	0003      	movs	r3, r0
    84b2:	3b28      	subs	r3, #40	; 0x28
    84b4:	409f      	lsls	r7, r3
    84b6:	2300      	movs	r3, #0
    84b8:	46bb      	mov	fp, r7
    84ba:	4699      	mov	r9, r3
    84bc:	e68a      	b.n	81d4 <__aeabi_dmul+0x134>
    84be:	f000 fbf1 	bl	8ca4 <__clzsi2>
    84c2:	3020      	adds	r0, #32
    84c4:	e674      	b.n	81b0 <__aeabi_dmul+0x110>
    84c6:	46b4      	mov	ip, r6
    84c8:	e7ad      	b.n	8426 <__aeabi_dmul+0x386>
    84ca:	2501      	movs	r5, #1
    84cc:	1a2a      	subs	r2, r5, r0
    84ce:	2a38      	cmp	r2, #56	; 0x38
    84d0:	dd06      	ble.n	84e0 <__aeabi_dmul+0x440>
    84d2:	9b01      	ldr	r3, [sp, #4]
    84d4:	2400      	movs	r4, #0
    84d6:	401d      	ands	r5, r3
    84d8:	2300      	movs	r3, #0
    84da:	2200      	movs	r2, #0
    84dc:	4699      	mov	r9, r3
    84de:	e646      	b.n	816e <__aeabi_dmul+0xce>
    84e0:	2a1f      	cmp	r2, #31
    84e2:	dc21      	bgt.n	8528 <__aeabi_dmul+0x488>
    84e4:	2520      	movs	r5, #32
    84e6:	0020      	movs	r0, r4
    84e8:	1aad      	subs	r5, r5, r2
    84ea:	001e      	movs	r6, r3
    84ec:	40ab      	lsls	r3, r5
    84ee:	40a8      	lsls	r0, r5
    84f0:	40d6      	lsrs	r6, r2
    84f2:	1e5d      	subs	r5, r3, #1
    84f4:	41ab      	sbcs	r3, r5
    84f6:	4330      	orrs	r0, r6
    84f8:	4318      	orrs	r0, r3
    84fa:	40d4      	lsrs	r4, r2
    84fc:	0743      	lsls	r3, r0, #29
    84fe:	d009      	beq.n	8514 <__aeabi_dmul+0x474>
    8500:	230f      	movs	r3, #15
    8502:	4003      	ands	r3, r0
    8504:	2b04      	cmp	r3, #4
    8506:	d005      	beq.n	8514 <__aeabi_dmul+0x474>
    8508:	0003      	movs	r3, r0
    850a:	1d18      	adds	r0, r3, #4
    850c:	4298      	cmp	r0, r3
    850e:	419b      	sbcs	r3, r3
    8510:	425b      	negs	r3, r3
    8512:	18e4      	adds	r4, r4, r3
    8514:	0223      	lsls	r3, r4, #8
    8516:	d521      	bpl.n	855c <__aeabi_dmul+0x4bc>
    8518:	2501      	movs	r5, #1
    851a:	9b01      	ldr	r3, [sp, #4]
    851c:	2401      	movs	r4, #1
    851e:	401d      	ands	r5, r3
    8520:	2300      	movs	r3, #0
    8522:	2200      	movs	r2, #0
    8524:	4699      	mov	r9, r3
    8526:	e622      	b.n	816e <__aeabi_dmul+0xce>
    8528:	251f      	movs	r5, #31
    852a:	0021      	movs	r1, r4
    852c:	426d      	negs	r5, r5
    852e:	1a28      	subs	r0, r5, r0
    8530:	40c1      	lsrs	r1, r0
    8532:	0008      	movs	r0, r1
    8534:	2a20      	cmp	r2, #32
    8536:	d01d      	beq.n	8574 <__aeabi_dmul+0x4d4>
    8538:	355f      	adds	r5, #95	; 0x5f
    853a:	1aaa      	subs	r2, r5, r2
    853c:	4094      	lsls	r4, r2
    853e:	4323      	orrs	r3, r4
    8540:	1e5c      	subs	r4, r3, #1
    8542:	41a3      	sbcs	r3, r4
    8544:	2507      	movs	r5, #7
    8546:	4303      	orrs	r3, r0
    8548:	401d      	ands	r5, r3
    854a:	2200      	movs	r2, #0
    854c:	2d00      	cmp	r5, #0
    854e:	d009      	beq.n	8564 <__aeabi_dmul+0x4c4>
    8550:	220f      	movs	r2, #15
    8552:	2400      	movs	r4, #0
    8554:	401a      	ands	r2, r3
    8556:	0018      	movs	r0, r3
    8558:	2a04      	cmp	r2, #4
    855a:	d1d6      	bne.n	850a <__aeabi_dmul+0x46a>
    855c:	0003      	movs	r3, r0
    855e:	0765      	lsls	r5, r4, #29
    8560:	0264      	lsls	r4, r4, #9
    8562:	0b22      	lsrs	r2, r4, #12
    8564:	08db      	lsrs	r3, r3, #3
    8566:	432b      	orrs	r3, r5
    8568:	2501      	movs	r5, #1
    856a:	4699      	mov	r9, r3
    856c:	9b01      	ldr	r3, [sp, #4]
    856e:	2400      	movs	r4, #0
    8570:	401d      	ands	r5, r3
    8572:	e5fc      	b.n	816e <__aeabi_dmul+0xce>
    8574:	2400      	movs	r4, #0
    8576:	e7e2      	b.n	853e <__aeabi_dmul+0x49e>
    8578:	2280      	movs	r2, #128	; 0x80
    857a:	2501      	movs	r5, #1
    857c:	0312      	lsls	r2, r2, #12
    857e:	4322      	orrs	r2, r4
    8580:	9901      	ldr	r1, [sp, #4]
    8582:	0312      	lsls	r2, r2, #12
    8584:	0b12      	lsrs	r2, r2, #12
    8586:	400d      	ands	r5, r1
    8588:	4699      	mov	r9, r3
    858a:	4c04      	ldr	r4, [pc, #16]	; (859c <__aeabi_dmul+0x4fc>)
    858c:	e5ef      	b.n	816e <__aeabi_dmul+0xce>
    858e:	46c0      	nop			; (mov r8, r8)
    8590:	000003ff 	.word	0x000003ff
    8594:	feffffff 	.word	0xfeffffff
    8598:	000007fe 	.word	0x000007fe
    859c:	000007ff 	.word	0x000007ff

000085a0 <__aeabi_dsub>:
    85a0:	b5f0      	push	{r4, r5, r6, r7, lr}
    85a2:	4646      	mov	r6, r8
    85a4:	46d6      	mov	lr, sl
    85a6:	464f      	mov	r7, r9
    85a8:	030c      	lsls	r4, r1, #12
    85aa:	b5c0      	push	{r6, r7, lr}
    85ac:	0fcd      	lsrs	r5, r1, #31
    85ae:	004e      	lsls	r6, r1, #1
    85b0:	0a61      	lsrs	r1, r4, #9
    85b2:	0f44      	lsrs	r4, r0, #29
    85b4:	430c      	orrs	r4, r1
    85b6:	00c1      	lsls	r1, r0, #3
    85b8:	0058      	lsls	r0, r3, #1
    85ba:	0d40      	lsrs	r0, r0, #21
    85bc:	4684      	mov	ip, r0
    85be:	468a      	mov	sl, r1
    85c0:	000f      	movs	r7, r1
    85c2:	0319      	lsls	r1, r3, #12
    85c4:	0f50      	lsrs	r0, r2, #29
    85c6:	0a49      	lsrs	r1, r1, #9
    85c8:	4301      	orrs	r1, r0
    85ca:	48c6      	ldr	r0, [pc, #792]	; (88e4 <__aeabi_dsub+0x344>)
    85cc:	0d76      	lsrs	r6, r6, #21
    85ce:	46a8      	mov	r8, r5
    85d0:	0fdb      	lsrs	r3, r3, #31
    85d2:	00d2      	lsls	r2, r2, #3
    85d4:	4584      	cmp	ip, r0
    85d6:	d100      	bne.n	85da <__aeabi_dsub+0x3a>
    85d8:	e0d8      	b.n	878c <__aeabi_dsub+0x1ec>
    85da:	2001      	movs	r0, #1
    85dc:	4043      	eors	r3, r0
    85de:	42ab      	cmp	r3, r5
    85e0:	d100      	bne.n	85e4 <__aeabi_dsub+0x44>
    85e2:	e0a6      	b.n	8732 <__aeabi_dsub+0x192>
    85e4:	4660      	mov	r0, ip
    85e6:	1a35      	subs	r5, r6, r0
    85e8:	2d00      	cmp	r5, #0
    85ea:	dc00      	bgt.n	85ee <__aeabi_dsub+0x4e>
    85ec:	e105      	b.n	87fa <__aeabi_dsub+0x25a>
    85ee:	2800      	cmp	r0, #0
    85f0:	d110      	bne.n	8614 <__aeabi_dsub+0x74>
    85f2:	000b      	movs	r3, r1
    85f4:	4313      	orrs	r3, r2
    85f6:	d100      	bne.n	85fa <__aeabi_dsub+0x5a>
    85f8:	e0d7      	b.n	87aa <__aeabi_dsub+0x20a>
    85fa:	1e6b      	subs	r3, r5, #1
    85fc:	2b00      	cmp	r3, #0
    85fe:	d000      	beq.n	8602 <__aeabi_dsub+0x62>
    8600:	e14b      	b.n	889a <__aeabi_dsub+0x2fa>
    8602:	4653      	mov	r3, sl
    8604:	1a9f      	subs	r7, r3, r2
    8606:	45ba      	cmp	sl, r7
    8608:	4180      	sbcs	r0, r0
    860a:	1a64      	subs	r4, r4, r1
    860c:	4240      	negs	r0, r0
    860e:	1a24      	subs	r4, r4, r0
    8610:	2601      	movs	r6, #1
    8612:	e01e      	b.n	8652 <__aeabi_dsub+0xb2>
    8614:	4bb3      	ldr	r3, [pc, #716]	; (88e4 <__aeabi_dsub+0x344>)
    8616:	429e      	cmp	r6, r3
    8618:	d048      	beq.n	86ac <__aeabi_dsub+0x10c>
    861a:	2380      	movs	r3, #128	; 0x80
    861c:	041b      	lsls	r3, r3, #16
    861e:	4319      	orrs	r1, r3
    8620:	2d38      	cmp	r5, #56	; 0x38
    8622:	dd00      	ble.n	8626 <__aeabi_dsub+0x86>
    8624:	e119      	b.n	885a <__aeabi_dsub+0x2ba>
    8626:	2d1f      	cmp	r5, #31
    8628:	dd00      	ble.n	862c <__aeabi_dsub+0x8c>
    862a:	e14c      	b.n	88c6 <__aeabi_dsub+0x326>
    862c:	2320      	movs	r3, #32
    862e:	000f      	movs	r7, r1
    8630:	1b5b      	subs	r3, r3, r5
    8632:	0010      	movs	r0, r2
    8634:	409a      	lsls	r2, r3
    8636:	409f      	lsls	r7, r3
    8638:	40e8      	lsrs	r0, r5
    863a:	1e53      	subs	r3, r2, #1
    863c:	419a      	sbcs	r2, r3
    863e:	40e9      	lsrs	r1, r5
    8640:	4307      	orrs	r7, r0
    8642:	4317      	orrs	r7, r2
    8644:	4653      	mov	r3, sl
    8646:	1bdf      	subs	r7, r3, r7
    8648:	1a61      	subs	r1, r4, r1
    864a:	45ba      	cmp	sl, r7
    864c:	41a4      	sbcs	r4, r4
    864e:	4264      	negs	r4, r4
    8650:	1b0c      	subs	r4, r1, r4
    8652:	0223      	lsls	r3, r4, #8
    8654:	d400      	bmi.n	8658 <__aeabi_dsub+0xb8>
    8656:	e0c5      	b.n	87e4 <__aeabi_dsub+0x244>
    8658:	0264      	lsls	r4, r4, #9
    865a:	0a65      	lsrs	r5, r4, #9
    865c:	2d00      	cmp	r5, #0
    865e:	d100      	bne.n	8662 <__aeabi_dsub+0xc2>
    8660:	e0f6      	b.n	8850 <__aeabi_dsub+0x2b0>
    8662:	0028      	movs	r0, r5
    8664:	f000 fb1e 	bl	8ca4 <__clzsi2>
    8668:	0003      	movs	r3, r0
    866a:	3b08      	subs	r3, #8
    866c:	2b1f      	cmp	r3, #31
    866e:	dd00      	ble.n	8672 <__aeabi_dsub+0xd2>
    8670:	e0e9      	b.n	8846 <__aeabi_dsub+0x2a6>
    8672:	2220      	movs	r2, #32
    8674:	003c      	movs	r4, r7
    8676:	1ad2      	subs	r2, r2, r3
    8678:	409d      	lsls	r5, r3
    867a:	40d4      	lsrs	r4, r2
    867c:	409f      	lsls	r7, r3
    867e:	4325      	orrs	r5, r4
    8680:	429e      	cmp	r6, r3
    8682:	dd00      	ble.n	8686 <__aeabi_dsub+0xe6>
    8684:	e0db      	b.n	883e <__aeabi_dsub+0x29e>
    8686:	1b9e      	subs	r6, r3, r6
    8688:	1c73      	adds	r3, r6, #1
    868a:	2b1f      	cmp	r3, #31
    868c:	dd00      	ble.n	8690 <__aeabi_dsub+0xf0>
    868e:	e10a      	b.n	88a6 <__aeabi_dsub+0x306>
    8690:	2220      	movs	r2, #32
    8692:	0038      	movs	r0, r7
    8694:	1ad2      	subs	r2, r2, r3
    8696:	0029      	movs	r1, r5
    8698:	4097      	lsls	r7, r2
    869a:	002c      	movs	r4, r5
    869c:	4091      	lsls	r1, r2
    869e:	40d8      	lsrs	r0, r3
    86a0:	1e7a      	subs	r2, r7, #1
    86a2:	4197      	sbcs	r7, r2
    86a4:	40dc      	lsrs	r4, r3
    86a6:	2600      	movs	r6, #0
    86a8:	4301      	orrs	r1, r0
    86aa:	430f      	orrs	r7, r1
    86ac:	077b      	lsls	r3, r7, #29
    86ae:	d009      	beq.n	86c4 <__aeabi_dsub+0x124>
    86b0:	230f      	movs	r3, #15
    86b2:	403b      	ands	r3, r7
    86b4:	2b04      	cmp	r3, #4
    86b6:	d005      	beq.n	86c4 <__aeabi_dsub+0x124>
    86b8:	1d3b      	adds	r3, r7, #4
    86ba:	42bb      	cmp	r3, r7
    86bc:	41bf      	sbcs	r7, r7
    86be:	427f      	negs	r7, r7
    86c0:	19e4      	adds	r4, r4, r7
    86c2:	001f      	movs	r7, r3
    86c4:	0223      	lsls	r3, r4, #8
    86c6:	d525      	bpl.n	8714 <__aeabi_dsub+0x174>
    86c8:	4b86      	ldr	r3, [pc, #536]	; (88e4 <__aeabi_dsub+0x344>)
    86ca:	3601      	adds	r6, #1
    86cc:	429e      	cmp	r6, r3
    86ce:	d100      	bne.n	86d2 <__aeabi_dsub+0x132>
    86d0:	e0af      	b.n	8832 <__aeabi_dsub+0x292>
    86d2:	4b85      	ldr	r3, [pc, #532]	; (88e8 <__aeabi_dsub+0x348>)
    86d4:	2501      	movs	r5, #1
    86d6:	401c      	ands	r4, r3
    86d8:	4643      	mov	r3, r8
    86da:	0762      	lsls	r2, r4, #29
    86dc:	08ff      	lsrs	r7, r7, #3
    86de:	0264      	lsls	r4, r4, #9
    86e0:	0576      	lsls	r6, r6, #21
    86e2:	4317      	orrs	r7, r2
    86e4:	0b24      	lsrs	r4, r4, #12
    86e6:	0d76      	lsrs	r6, r6, #21
    86e8:	401d      	ands	r5, r3
    86ea:	2100      	movs	r1, #0
    86ec:	0324      	lsls	r4, r4, #12
    86ee:	0b23      	lsrs	r3, r4, #12
    86f0:	0d0c      	lsrs	r4, r1, #20
    86f2:	4a7e      	ldr	r2, [pc, #504]	; (88ec <__aeabi_dsub+0x34c>)
    86f4:	0524      	lsls	r4, r4, #20
    86f6:	431c      	orrs	r4, r3
    86f8:	4014      	ands	r4, r2
    86fa:	0533      	lsls	r3, r6, #20
    86fc:	4323      	orrs	r3, r4
    86fe:	005b      	lsls	r3, r3, #1
    8700:	07ed      	lsls	r5, r5, #31
    8702:	085b      	lsrs	r3, r3, #1
    8704:	432b      	orrs	r3, r5
    8706:	0038      	movs	r0, r7
    8708:	0019      	movs	r1, r3
    870a:	bc1c      	pop	{r2, r3, r4}
    870c:	4690      	mov	r8, r2
    870e:	4699      	mov	r9, r3
    8710:	46a2      	mov	sl, r4
    8712:	bdf0      	pop	{r4, r5, r6, r7, pc}
    8714:	2501      	movs	r5, #1
    8716:	4643      	mov	r3, r8
    8718:	0762      	lsls	r2, r4, #29
    871a:	08ff      	lsrs	r7, r7, #3
    871c:	4317      	orrs	r7, r2
    871e:	08e4      	lsrs	r4, r4, #3
    8720:	401d      	ands	r5, r3
    8722:	4b70      	ldr	r3, [pc, #448]	; (88e4 <__aeabi_dsub+0x344>)
    8724:	429e      	cmp	r6, r3
    8726:	d036      	beq.n	8796 <__aeabi_dsub+0x1f6>
    8728:	0324      	lsls	r4, r4, #12
    872a:	0576      	lsls	r6, r6, #21
    872c:	0b24      	lsrs	r4, r4, #12
    872e:	0d76      	lsrs	r6, r6, #21
    8730:	e7db      	b.n	86ea <__aeabi_dsub+0x14a>
    8732:	4663      	mov	r3, ip
    8734:	1af3      	subs	r3, r6, r3
    8736:	2b00      	cmp	r3, #0
    8738:	dc00      	bgt.n	873c <__aeabi_dsub+0x19c>
    873a:	e094      	b.n	8866 <__aeabi_dsub+0x2c6>
    873c:	4660      	mov	r0, ip
    873e:	2800      	cmp	r0, #0
    8740:	d035      	beq.n	87ae <__aeabi_dsub+0x20e>
    8742:	4868      	ldr	r0, [pc, #416]	; (88e4 <__aeabi_dsub+0x344>)
    8744:	4286      	cmp	r6, r0
    8746:	d0b1      	beq.n	86ac <__aeabi_dsub+0x10c>
    8748:	2780      	movs	r7, #128	; 0x80
    874a:	043f      	lsls	r7, r7, #16
    874c:	4339      	orrs	r1, r7
    874e:	2b38      	cmp	r3, #56	; 0x38
    8750:	dc00      	bgt.n	8754 <__aeabi_dsub+0x1b4>
    8752:	e0fd      	b.n	8950 <__aeabi_dsub+0x3b0>
    8754:	430a      	orrs	r2, r1
    8756:	0017      	movs	r7, r2
    8758:	2100      	movs	r1, #0
    875a:	1e7a      	subs	r2, r7, #1
    875c:	4197      	sbcs	r7, r2
    875e:	4457      	add	r7, sl
    8760:	4557      	cmp	r7, sl
    8762:	4180      	sbcs	r0, r0
    8764:	1909      	adds	r1, r1, r4
    8766:	4244      	negs	r4, r0
    8768:	190c      	adds	r4, r1, r4
    876a:	0223      	lsls	r3, r4, #8
    876c:	d53a      	bpl.n	87e4 <__aeabi_dsub+0x244>
    876e:	4b5d      	ldr	r3, [pc, #372]	; (88e4 <__aeabi_dsub+0x344>)
    8770:	3601      	adds	r6, #1
    8772:	429e      	cmp	r6, r3
    8774:	d100      	bne.n	8778 <__aeabi_dsub+0x1d8>
    8776:	e14b      	b.n	8a10 <__aeabi_dsub+0x470>
    8778:	2201      	movs	r2, #1
    877a:	4b5b      	ldr	r3, [pc, #364]	; (88e8 <__aeabi_dsub+0x348>)
    877c:	401c      	ands	r4, r3
    877e:	087b      	lsrs	r3, r7, #1
    8780:	4017      	ands	r7, r2
    8782:	431f      	orrs	r7, r3
    8784:	07e2      	lsls	r2, r4, #31
    8786:	4317      	orrs	r7, r2
    8788:	0864      	lsrs	r4, r4, #1
    878a:	e78f      	b.n	86ac <__aeabi_dsub+0x10c>
    878c:	0008      	movs	r0, r1
    878e:	4310      	orrs	r0, r2
    8790:	d000      	beq.n	8794 <__aeabi_dsub+0x1f4>
    8792:	e724      	b.n	85de <__aeabi_dsub+0x3e>
    8794:	e721      	b.n	85da <__aeabi_dsub+0x3a>
    8796:	0023      	movs	r3, r4
    8798:	433b      	orrs	r3, r7
    879a:	d100      	bne.n	879e <__aeabi_dsub+0x1fe>
    879c:	e1b9      	b.n	8b12 <__aeabi_dsub+0x572>
    879e:	2280      	movs	r2, #128	; 0x80
    87a0:	0312      	lsls	r2, r2, #12
    87a2:	4314      	orrs	r4, r2
    87a4:	0324      	lsls	r4, r4, #12
    87a6:	0b24      	lsrs	r4, r4, #12
    87a8:	e79f      	b.n	86ea <__aeabi_dsub+0x14a>
    87aa:	002e      	movs	r6, r5
    87ac:	e77e      	b.n	86ac <__aeabi_dsub+0x10c>
    87ae:	0008      	movs	r0, r1
    87b0:	4310      	orrs	r0, r2
    87b2:	d100      	bne.n	87b6 <__aeabi_dsub+0x216>
    87b4:	e0ca      	b.n	894c <__aeabi_dsub+0x3ac>
    87b6:	1e58      	subs	r0, r3, #1
    87b8:	4684      	mov	ip, r0
    87ba:	2800      	cmp	r0, #0
    87bc:	d000      	beq.n	87c0 <__aeabi_dsub+0x220>
    87be:	e0e7      	b.n	8990 <__aeabi_dsub+0x3f0>
    87c0:	4452      	add	r2, sl
    87c2:	4552      	cmp	r2, sl
    87c4:	4180      	sbcs	r0, r0
    87c6:	1864      	adds	r4, r4, r1
    87c8:	4240      	negs	r0, r0
    87ca:	1824      	adds	r4, r4, r0
    87cc:	0017      	movs	r7, r2
    87ce:	2601      	movs	r6, #1
    87d0:	0223      	lsls	r3, r4, #8
    87d2:	d507      	bpl.n	87e4 <__aeabi_dsub+0x244>
    87d4:	2602      	movs	r6, #2
    87d6:	e7cf      	b.n	8778 <__aeabi_dsub+0x1d8>
    87d8:	4664      	mov	r4, ip
    87da:	432c      	orrs	r4, r5
    87dc:	d100      	bne.n	87e0 <__aeabi_dsub+0x240>
    87de:	e1b3      	b.n	8b48 <__aeabi_dsub+0x5a8>
    87e0:	002c      	movs	r4, r5
    87e2:	4667      	mov	r7, ip
    87e4:	077b      	lsls	r3, r7, #29
    87e6:	d000      	beq.n	87ea <__aeabi_dsub+0x24a>
    87e8:	e762      	b.n	86b0 <__aeabi_dsub+0x110>
    87ea:	0763      	lsls	r3, r4, #29
    87ec:	08ff      	lsrs	r7, r7, #3
    87ee:	431f      	orrs	r7, r3
    87f0:	2501      	movs	r5, #1
    87f2:	4643      	mov	r3, r8
    87f4:	08e4      	lsrs	r4, r4, #3
    87f6:	401d      	ands	r5, r3
    87f8:	e793      	b.n	8722 <__aeabi_dsub+0x182>
    87fa:	2d00      	cmp	r5, #0
    87fc:	d178      	bne.n	88f0 <__aeabi_dsub+0x350>
    87fe:	1c75      	adds	r5, r6, #1
    8800:	056d      	lsls	r5, r5, #21
    8802:	0d6d      	lsrs	r5, r5, #21
    8804:	2d01      	cmp	r5, #1
    8806:	dc00      	bgt.n	880a <__aeabi_dsub+0x26a>
    8808:	e0f2      	b.n	89f0 <__aeabi_dsub+0x450>
    880a:	4650      	mov	r0, sl
    880c:	1a80      	subs	r0, r0, r2
    880e:	4582      	cmp	sl, r0
    8810:	41bf      	sbcs	r7, r7
    8812:	1a65      	subs	r5, r4, r1
    8814:	427f      	negs	r7, r7
    8816:	1bed      	subs	r5, r5, r7
    8818:	4684      	mov	ip, r0
    881a:	0228      	lsls	r0, r5, #8
    881c:	d400      	bmi.n	8820 <__aeabi_dsub+0x280>
    881e:	e08c      	b.n	893a <__aeabi_dsub+0x39a>
    8820:	4650      	mov	r0, sl
    8822:	1a17      	subs	r7, r2, r0
    8824:	42ba      	cmp	r2, r7
    8826:	4192      	sbcs	r2, r2
    8828:	1b0c      	subs	r4, r1, r4
    882a:	4255      	negs	r5, r2
    882c:	1b65      	subs	r5, r4, r5
    882e:	4698      	mov	r8, r3
    8830:	e714      	b.n	865c <__aeabi_dsub+0xbc>
    8832:	2501      	movs	r5, #1
    8834:	4643      	mov	r3, r8
    8836:	2400      	movs	r4, #0
    8838:	401d      	ands	r5, r3
    883a:	2700      	movs	r7, #0
    883c:	e755      	b.n	86ea <__aeabi_dsub+0x14a>
    883e:	4c2a      	ldr	r4, [pc, #168]	; (88e8 <__aeabi_dsub+0x348>)
    8840:	1af6      	subs	r6, r6, r3
    8842:	402c      	ands	r4, r5
    8844:	e732      	b.n	86ac <__aeabi_dsub+0x10c>
    8846:	003d      	movs	r5, r7
    8848:	3828      	subs	r0, #40	; 0x28
    884a:	4085      	lsls	r5, r0
    884c:	2700      	movs	r7, #0
    884e:	e717      	b.n	8680 <__aeabi_dsub+0xe0>
    8850:	0038      	movs	r0, r7
    8852:	f000 fa27 	bl	8ca4 <__clzsi2>
    8856:	3020      	adds	r0, #32
    8858:	e706      	b.n	8668 <__aeabi_dsub+0xc8>
    885a:	430a      	orrs	r2, r1
    885c:	0017      	movs	r7, r2
    885e:	2100      	movs	r1, #0
    8860:	1e7a      	subs	r2, r7, #1
    8862:	4197      	sbcs	r7, r2
    8864:	e6ee      	b.n	8644 <__aeabi_dsub+0xa4>
    8866:	2b00      	cmp	r3, #0
    8868:	d000      	beq.n	886c <__aeabi_dsub+0x2cc>
    886a:	e0e5      	b.n	8a38 <__aeabi_dsub+0x498>
    886c:	1c73      	adds	r3, r6, #1
    886e:	469c      	mov	ip, r3
    8870:	055b      	lsls	r3, r3, #21
    8872:	0d5b      	lsrs	r3, r3, #21
    8874:	2b01      	cmp	r3, #1
    8876:	dc00      	bgt.n	887a <__aeabi_dsub+0x2da>
    8878:	e09f      	b.n	89ba <__aeabi_dsub+0x41a>
    887a:	4b1a      	ldr	r3, [pc, #104]	; (88e4 <__aeabi_dsub+0x344>)
    887c:	459c      	cmp	ip, r3
    887e:	d100      	bne.n	8882 <__aeabi_dsub+0x2e2>
    8880:	e0c5      	b.n	8a0e <__aeabi_dsub+0x46e>
    8882:	4452      	add	r2, sl
    8884:	4552      	cmp	r2, sl
    8886:	4180      	sbcs	r0, r0
    8888:	1864      	adds	r4, r4, r1
    888a:	4240      	negs	r0, r0
    888c:	1824      	adds	r4, r4, r0
    888e:	07e7      	lsls	r7, r4, #31
    8890:	0852      	lsrs	r2, r2, #1
    8892:	4317      	orrs	r7, r2
    8894:	0864      	lsrs	r4, r4, #1
    8896:	4666      	mov	r6, ip
    8898:	e708      	b.n	86ac <__aeabi_dsub+0x10c>
    889a:	4812      	ldr	r0, [pc, #72]	; (88e4 <__aeabi_dsub+0x344>)
    889c:	4285      	cmp	r5, r0
    889e:	d100      	bne.n	88a2 <__aeabi_dsub+0x302>
    88a0:	e085      	b.n	89ae <__aeabi_dsub+0x40e>
    88a2:	001d      	movs	r5, r3
    88a4:	e6bc      	b.n	8620 <__aeabi_dsub+0x80>
    88a6:	0029      	movs	r1, r5
    88a8:	3e1f      	subs	r6, #31
    88aa:	40f1      	lsrs	r1, r6
    88ac:	2b20      	cmp	r3, #32
    88ae:	d100      	bne.n	88b2 <__aeabi_dsub+0x312>
    88b0:	e07f      	b.n	89b2 <__aeabi_dsub+0x412>
    88b2:	2240      	movs	r2, #64	; 0x40
    88b4:	1ad3      	subs	r3, r2, r3
    88b6:	409d      	lsls	r5, r3
    88b8:	432f      	orrs	r7, r5
    88ba:	1e7d      	subs	r5, r7, #1
    88bc:	41af      	sbcs	r7, r5
    88be:	2400      	movs	r4, #0
    88c0:	430f      	orrs	r7, r1
    88c2:	2600      	movs	r6, #0
    88c4:	e78e      	b.n	87e4 <__aeabi_dsub+0x244>
    88c6:	002b      	movs	r3, r5
    88c8:	000f      	movs	r7, r1
    88ca:	3b20      	subs	r3, #32
    88cc:	40df      	lsrs	r7, r3
    88ce:	2d20      	cmp	r5, #32
    88d0:	d071      	beq.n	89b6 <__aeabi_dsub+0x416>
    88d2:	2340      	movs	r3, #64	; 0x40
    88d4:	1b5d      	subs	r5, r3, r5
    88d6:	40a9      	lsls	r1, r5
    88d8:	430a      	orrs	r2, r1
    88da:	1e51      	subs	r1, r2, #1
    88dc:	418a      	sbcs	r2, r1
    88de:	2100      	movs	r1, #0
    88e0:	4317      	orrs	r7, r2
    88e2:	e6af      	b.n	8644 <__aeabi_dsub+0xa4>
    88e4:	000007ff 	.word	0x000007ff
    88e8:	ff7fffff 	.word	0xff7fffff
    88ec:	800fffff 	.word	0x800fffff
    88f0:	2e00      	cmp	r6, #0
    88f2:	d03e      	beq.n	8972 <__aeabi_dsub+0x3d2>
    88f4:	4eb3      	ldr	r6, [pc, #716]	; (8bc4 <__aeabi_dsub+0x624>)
    88f6:	45b4      	cmp	ip, r6
    88f8:	d045      	beq.n	8986 <__aeabi_dsub+0x3e6>
    88fa:	2680      	movs	r6, #128	; 0x80
    88fc:	0436      	lsls	r6, r6, #16
    88fe:	426d      	negs	r5, r5
    8900:	4334      	orrs	r4, r6
    8902:	2d38      	cmp	r5, #56	; 0x38
    8904:	dd00      	ble.n	8908 <__aeabi_dsub+0x368>
    8906:	e0a8      	b.n	8a5a <__aeabi_dsub+0x4ba>
    8908:	2d1f      	cmp	r5, #31
    890a:	dd00      	ble.n	890e <__aeabi_dsub+0x36e>
    890c:	e11f      	b.n	8b4e <__aeabi_dsub+0x5ae>
    890e:	2620      	movs	r6, #32
    8910:	0027      	movs	r7, r4
    8912:	4650      	mov	r0, sl
    8914:	1b76      	subs	r6, r6, r5
    8916:	40b7      	lsls	r7, r6
    8918:	40e8      	lsrs	r0, r5
    891a:	4307      	orrs	r7, r0
    891c:	4650      	mov	r0, sl
    891e:	40b0      	lsls	r0, r6
    8920:	1e46      	subs	r6, r0, #1
    8922:	41b0      	sbcs	r0, r6
    8924:	40ec      	lsrs	r4, r5
    8926:	4338      	orrs	r0, r7
    8928:	1a17      	subs	r7, r2, r0
    892a:	42ba      	cmp	r2, r7
    892c:	4192      	sbcs	r2, r2
    892e:	1b0c      	subs	r4, r1, r4
    8930:	4252      	negs	r2, r2
    8932:	1aa4      	subs	r4, r4, r2
    8934:	4666      	mov	r6, ip
    8936:	4698      	mov	r8, r3
    8938:	e68b      	b.n	8652 <__aeabi_dsub+0xb2>
    893a:	4664      	mov	r4, ip
    893c:	4667      	mov	r7, ip
    893e:	432c      	orrs	r4, r5
    8940:	d000      	beq.n	8944 <__aeabi_dsub+0x3a4>
    8942:	e68b      	b.n	865c <__aeabi_dsub+0xbc>
    8944:	2500      	movs	r5, #0
    8946:	2600      	movs	r6, #0
    8948:	2700      	movs	r7, #0
    894a:	e6ea      	b.n	8722 <__aeabi_dsub+0x182>
    894c:	001e      	movs	r6, r3
    894e:	e6ad      	b.n	86ac <__aeabi_dsub+0x10c>
    8950:	2b1f      	cmp	r3, #31
    8952:	dc60      	bgt.n	8a16 <__aeabi_dsub+0x476>
    8954:	2720      	movs	r7, #32
    8956:	1af8      	subs	r0, r7, r3
    8958:	000f      	movs	r7, r1
    895a:	4684      	mov	ip, r0
    895c:	4087      	lsls	r7, r0
    895e:	0010      	movs	r0, r2
    8960:	40d8      	lsrs	r0, r3
    8962:	4307      	orrs	r7, r0
    8964:	4660      	mov	r0, ip
    8966:	4082      	lsls	r2, r0
    8968:	1e50      	subs	r0, r2, #1
    896a:	4182      	sbcs	r2, r0
    896c:	40d9      	lsrs	r1, r3
    896e:	4317      	orrs	r7, r2
    8970:	e6f5      	b.n	875e <__aeabi_dsub+0x1be>
    8972:	0026      	movs	r6, r4
    8974:	4650      	mov	r0, sl
    8976:	4306      	orrs	r6, r0
    8978:	d005      	beq.n	8986 <__aeabi_dsub+0x3e6>
    897a:	43ed      	mvns	r5, r5
    897c:	2d00      	cmp	r5, #0
    897e:	d0d3      	beq.n	8928 <__aeabi_dsub+0x388>
    8980:	4e90      	ldr	r6, [pc, #576]	; (8bc4 <__aeabi_dsub+0x624>)
    8982:	45b4      	cmp	ip, r6
    8984:	d1bd      	bne.n	8902 <__aeabi_dsub+0x362>
    8986:	000c      	movs	r4, r1
    8988:	0017      	movs	r7, r2
    898a:	4666      	mov	r6, ip
    898c:	4698      	mov	r8, r3
    898e:	e68d      	b.n	86ac <__aeabi_dsub+0x10c>
    8990:	488c      	ldr	r0, [pc, #560]	; (8bc4 <__aeabi_dsub+0x624>)
    8992:	4283      	cmp	r3, r0
    8994:	d00b      	beq.n	89ae <__aeabi_dsub+0x40e>
    8996:	4663      	mov	r3, ip
    8998:	e6d9      	b.n	874e <__aeabi_dsub+0x1ae>
    899a:	2d00      	cmp	r5, #0
    899c:	d000      	beq.n	89a0 <__aeabi_dsub+0x400>
    899e:	e096      	b.n	8ace <__aeabi_dsub+0x52e>
    89a0:	0008      	movs	r0, r1
    89a2:	4310      	orrs	r0, r2
    89a4:	d100      	bne.n	89a8 <__aeabi_dsub+0x408>
    89a6:	e0e2      	b.n	8b6e <__aeabi_dsub+0x5ce>
    89a8:	000c      	movs	r4, r1
    89aa:	0017      	movs	r7, r2
    89ac:	4698      	mov	r8, r3
    89ae:	4e85      	ldr	r6, [pc, #532]	; (8bc4 <__aeabi_dsub+0x624>)
    89b0:	e67c      	b.n	86ac <__aeabi_dsub+0x10c>
    89b2:	2500      	movs	r5, #0
    89b4:	e780      	b.n	88b8 <__aeabi_dsub+0x318>
    89b6:	2100      	movs	r1, #0
    89b8:	e78e      	b.n	88d8 <__aeabi_dsub+0x338>
    89ba:	0023      	movs	r3, r4
    89bc:	4650      	mov	r0, sl
    89be:	4303      	orrs	r3, r0
    89c0:	2e00      	cmp	r6, #0
    89c2:	d000      	beq.n	89c6 <__aeabi_dsub+0x426>
    89c4:	e0a8      	b.n	8b18 <__aeabi_dsub+0x578>
    89c6:	2b00      	cmp	r3, #0
    89c8:	d100      	bne.n	89cc <__aeabi_dsub+0x42c>
    89ca:	e0de      	b.n	8b8a <__aeabi_dsub+0x5ea>
    89cc:	000b      	movs	r3, r1
    89ce:	4313      	orrs	r3, r2
    89d0:	d100      	bne.n	89d4 <__aeabi_dsub+0x434>
    89d2:	e66b      	b.n	86ac <__aeabi_dsub+0x10c>
    89d4:	4452      	add	r2, sl
    89d6:	4552      	cmp	r2, sl
    89d8:	4180      	sbcs	r0, r0
    89da:	1864      	adds	r4, r4, r1
    89dc:	4240      	negs	r0, r0
    89de:	1824      	adds	r4, r4, r0
    89e0:	0017      	movs	r7, r2
    89e2:	0223      	lsls	r3, r4, #8
    89e4:	d400      	bmi.n	89e8 <__aeabi_dsub+0x448>
    89e6:	e6fd      	b.n	87e4 <__aeabi_dsub+0x244>
    89e8:	4b77      	ldr	r3, [pc, #476]	; (8bc8 <__aeabi_dsub+0x628>)
    89ea:	4666      	mov	r6, ip
    89ec:	401c      	ands	r4, r3
    89ee:	e65d      	b.n	86ac <__aeabi_dsub+0x10c>
    89f0:	0025      	movs	r5, r4
    89f2:	4650      	mov	r0, sl
    89f4:	4305      	orrs	r5, r0
    89f6:	2e00      	cmp	r6, #0
    89f8:	d1cf      	bne.n	899a <__aeabi_dsub+0x3fa>
    89fa:	2d00      	cmp	r5, #0
    89fc:	d14f      	bne.n	8a9e <__aeabi_dsub+0x4fe>
    89fe:	000c      	movs	r4, r1
    8a00:	4314      	orrs	r4, r2
    8a02:	d100      	bne.n	8a06 <__aeabi_dsub+0x466>
    8a04:	e0a0      	b.n	8b48 <__aeabi_dsub+0x5a8>
    8a06:	000c      	movs	r4, r1
    8a08:	0017      	movs	r7, r2
    8a0a:	4698      	mov	r8, r3
    8a0c:	e64e      	b.n	86ac <__aeabi_dsub+0x10c>
    8a0e:	4666      	mov	r6, ip
    8a10:	2400      	movs	r4, #0
    8a12:	2700      	movs	r7, #0
    8a14:	e685      	b.n	8722 <__aeabi_dsub+0x182>
    8a16:	001f      	movs	r7, r3
    8a18:	0008      	movs	r0, r1
    8a1a:	3f20      	subs	r7, #32
    8a1c:	40f8      	lsrs	r0, r7
    8a1e:	0007      	movs	r7, r0
    8a20:	2b20      	cmp	r3, #32
    8a22:	d100      	bne.n	8a26 <__aeabi_dsub+0x486>
    8a24:	e08e      	b.n	8b44 <__aeabi_dsub+0x5a4>
    8a26:	2040      	movs	r0, #64	; 0x40
    8a28:	1ac3      	subs	r3, r0, r3
    8a2a:	4099      	lsls	r1, r3
    8a2c:	430a      	orrs	r2, r1
    8a2e:	1e51      	subs	r1, r2, #1
    8a30:	418a      	sbcs	r2, r1
    8a32:	2100      	movs	r1, #0
    8a34:	4317      	orrs	r7, r2
    8a36:	e692      	b.n	875e <__aeabi_dsub+0x1be>
    8a38:	2e00      	cmp	r6, #0
    8a3a:	d114      	bne.n	8a66 <__aeabi_dsub+0x4c6>
    8a3c:	0026      	movs	r6, r4
    8a3e:	4650      	mov	r0, sl
    8a40:	4306      	orrs	r6, r0
    8a42:	d062      	beq.n	8b0a <__aeabi_dsub+0x56a>
    8a44:	43db      	mvns	r3, r3
    8a46:	2b00      	cmp	r3, #0
    8a48:	d15c      	bne.n	8b04 <__aeabi_dsub+0x564>
    8a4a:	1887      	adds	r7, r0, r2
    8a4c:	4297      	cmp	r7, r2
    8a4e:	4192      	sbcs	r2, r2
    8a50:	1864      	adds	r4, r4, r1
    8a52:	4252      	negs	r2, r2
    8a54:	18a4      	adds	r4, r4, r2
    8a56:	4666      	mov	r6, ip
    8a58:	e687      	b.n	876a <__aeabi_dsub+0x1ca>
    8a5a:	4650      	mov	r0, sl
    8a5c:	4320      	orrs	r0, r4
    8a5e:	1e44      	subs	r4, r0, #1
    8a60:	41a0      	sbcs	r0, r4
    8a62:	2400      	movs	r4, #0
    8a64:	e760      	b.n	8928 <__aeabi_dsub+0x388>
    8a66:	4e57      	ldr	r6, [pc, #348]	; (8bc4 <__aeabi_dsub+0x624>)
    8a68:	45b4      	cmp	ip, r6
    8a6a:	d04e      	beq.n	8b0a <__aeabi_dsub+0x56a>
    8a6c:	2680      	movs	r6, #128	; 0x80
    8a6e:	0436      	lsls	r6, r6, #16
    8a70:	425b      	negs	r3, r3
    8a72:	4334      	orrs	r4, r6
    8a74:	2b38      	cmp	r3, #56	; 0x38
    8a76:	dd00      	ble.n	8a7a <__aeabi_dsub+0x4da>
    8a78:	e07f      	b.n	8b7a <__aeabi_dsub+0x5da>
    8a7a:	2b1f      	cmp	r3, #31
    8a7c:	dd00      	ble.n	8a80 <__aeabi_dsub+0x4e0>
    8a7e:	e08b      	b.n	8b98 <__aeabi_dsub+0x5f8>
    8a80:	2620      	movs	r6, #32
    8a82:	0027      	movs	r7, r4
    8a84:	4650      	mov	r0, sl
    8a86:	1af6      	subs	r6, r6, r3
    8a88:	40b7      	lsls	r7, r6
    8a8a:	40d8      	lsrs	r0, r3
    8a8c:	4307      	orrs	r7, r0
    8a8e:	4650      	mov	r0, sl
    8a90:	40b0      	lsls	r0, r6
    8a92:	1e46      	subs	r6, r0, #1
    8a94:	41b0      	sbcs	r0, r6
    8a96:	4307      	orrs	r7, r0
    8a98:	40dc      	lsrs	r4, r3
    8a9a:	18bf      	adds	r7, r7, r2
    8a9c:	e7d6      	b.n	8a4c <__aeabi_dsub+0x4ac>
    8a9e:	000d      	movs	r5, r1
    8aa0:	4315      	orrs	r5, r2
    8aa2:	d100      	bne.n	8aa6 <__aeabi_dsub+0x506>
    8aa4:	e602      	b.n	86ac <__aeabi_dsub+0x10c>
    8aa6:	4650      	mov	r0, sl
    8aa8:	1a80      	subs	r0, r0, r2
    8aaa:	4582      	cmp	sl, r0
    8aac:	41bf      	sbcs	r7, r7
    8aae:	1a65      	subs	r5, r4, r1
    8ab0:	427f      	negs	r7, r7
    8ab2:	1bed      	subs	r5, r5, r7
    8ab4:	4684      	mov	ip, r0
    8ab6:	0228      	lsls	r0, r5, #8
    8ab8:	d400      	bmi.n	8abc <__aeabi_dsub+0x51c>
    8aba:	e68d      	b.n	87d8 <__aeabi_dsub+0x238>
    8abc:	4650      	mov	r0, sl
    8abe:	1a17      	subs	r7, r2, r0
    8ac0:	42ba      	cmp	r2, r7
    8ac2:	4192      	sbcs	r2, r2
    8ac4:	1b0c      	subs	r4, r1, r4
    8ac6:	4252      	negs	r2, r2
    8ac8:	1aa4      	subs	r4, r4, r2
    8aca:	4698      	mov	r8, r3
    8acc:	e5ee      	b.n	86ac <__aeabi_dsub+0x10c>
    8ace:	000d      	movs	r5, r1
    8ad0:	4315      	orrs	r5, r2
    8ad2:	d100      	bne.n	8ad6 <__aeabi_dsub+0x536>
    8ad4:	e76b      	b.n	89ae <__aeabi_dsub+0x40e>
    8ad6:	4650      	mov	r0, sl
    8ad8:	0767      	lsls	r7, r4, #29
    8ada:	08c0      	lsrs	r0, r0, #3
    8adc:	4307      	orrs	r7, r0
    8ade:	2080      	movs	r0, #128	; 0x80
    8ae0:	08e4      	lsrs	r4, r4, #3
    8ae2:	0300      	lsls	r0, r0, #12
    8ae4:	4204      	tst	r4, r0
    8ae6:	d007      	beq.n	8af8 <__aeabi_dsub+0x558>
    8ae8:	08cd      	lsrs	r5, r1, #3
    8aea:	4205      	tst	r5, r0
    8aec:	d104      	bne.n	8af8 <__aeabi_dsub+0x558>
    8aee:	002c      	movs	r4, r5
    8af0:	4698      	mov	r8, r3
    8af2:	08d7      	lsrs	r7, r2, #3
    8af4:	0749      	lsls	r1, r1, #29
    8af6:	430f      	orrs	r7, r1
    8af8:	0f7b      	lsrs	r3, r7, #29
    8afa:	00e4      	lsls	r4, r4, #3
    8afc:	431c      	orrs	r4, r3
    8afe:	00ff      	lsls	r7, r7, #3
    8b00:	4e30      	ldr	r6, [pc, #192]	; (8bc4 <__aeabi_dsub+0x624>)
    8b02:	e5d3      	b.n	86ac <__aeabi_dsub+0x10c>
    8b04:	4e2f      	ldr	r6, [pc, #188]	; (8bc4 <__aeabi_dsub+0x624>)
    8b06:	45b4      	cmp	ip, r6
    8b08:	d1b4      	bne.n	8a74 <__aeabi_dsub+0x4d4>
    8b0a:	000c      	movs	r4, r1
    8b0c:	0017      	movs	r7, r2
    8b0e:	4666      	mov	r6, ip
    8b10:	e5cc      	b.n	86ac <__aeabi_dsub+0x10c>
    8b12:	2700      	movs	r7, #0
    8b14:	2400      	movs	r4, #0
    8b16:	e5e8      	b.n	86ea <__aeabi_dsub+0x14a>
    8b18:	2b00      	cmp	r3, #0
    8b1a:	d039      	beq.n	8b90 <__aeabi_dsub+0x5f0>
    8b1c:	000b      	movs	r3, r1
    8b1e:	4313      	orrs	r3, r2
    8b20:	d100      	bne.n	8b24 <__aeabi_dsub+0x584>
    8b22:	e744      	b.n	89ae <__aeabi_dsub+0x40e>
    8b24:	08c0      	lsrs	r0, r0, #3
    8b26:	0767      	lsls	r7, r4, #29
    8b28:	4307      	orrs	r7, r0
    8b2a:	2080      	movs	r0, #128	; 0x80
    8b2c:	08e4      	lsrs	r4, r4, #3
    8b2e:	0300      	lsls	r0, r0, #12
    8b30:	4204      	tst	r4, r0
    8b32:	d0e1      	beq.n	8af8 <__aeabi_dsub+0x558>
    8b34:	08cb      	lsrs	r3, r1, #3
    8b36:	4203      	tst	r3, r0
    8b38:	d1de      	bne.n	8af8 <__aeabi_dsub+0x558>
    8b3a:	08d7      	lsrs	r7, r2, #3
    8b3c:	0749      	lsls	r1, r1, #29
    8b3e:	430f      	orrs	r7, r1
    8b40:	001c      	movs	r4, r3
    8b42:	e7d9      	b.n	8af8 <__aeabi_dsub+0x558>
    8b44:	2100      	movs	r1, #0
    8b46:	e771      	b.n	8a2c <__aeabi_dsub+0x48c>
    8b48:	2500      	movs	r5, #0
    8b4a:	2700      	movs	r7, #0
    8b4c:	e5e9      	b.n	8722 <__aeabi_dsub+0x182>
    8b4e:	002e      	movs	r6, r5
    8b50:	0027      	movs	r7, r4
    8b52:	3e20      	subs	r6, #32
    8b54:	40f7      	lsrs	r7, r6
    8b56:	2d20      	cmp	r5, #32
    8b58:	d02f      	beq.n	8bba <__aeabi_dsub+0x61a>
    8b5a:	2640      	movs	r6, #64	; 0x40
    8b5c:	1b75      	subs	r5, r6, r5
    8b5e:	40ac      	lsls	r4, r5
    8b60:	4650      	mov	r0, sl
    8b62:	4320      	orrs	r0, r4
    8b64:	1e44      	subs	r4, r0, #1
    8b66:	41a0      	sbcs	r0, r4
    8b68:	2400      	movs	r4, #0
    8b6a:	4338      	orrs	r0, r7
    8b6c:	e6dc      	b.n	8928 <__aeabi_dsub+0x388>
    8b6e:	2480      	movs	r4, #128	; 0x80
    8b70:	2500      	movs	r5, #0
    8b72:	0324      	lsls	r4, r4, #12
    8b74:	4e13      	ldr	r6, [pc, #76]	; (8bc4 <__aeabi_dsub+0x624>)
    8b76:	2700      	movs	r7, #0
    8b78:	e5d3      	b.n	8722 <__aeabi_dsub+0x182>
    8b7a:	4650      	mov	r0, sl
    8b7c:	4320      	orrs	r0, r4
    8b7e:	0007      	movs	r7, r0
    8b80:	1e78      	subs	r0, r7, #1
    8b82:	4187      	sbcs	r7, r0
    8b84:	2400      	movs	r4, #0
    8b86:	18bf      	adds	r7, r7, r2
    8b88:	e760      	b.n	8a4c <__aeabi_dsub+0x4ac>
    8b8a:	000c      	movs	r4, r1
    8b8c:	0017      	movs	r7, r2
    8b8e:	e58d      	b.n	86ac <__aeabi_dsub+0x10c>
    8b90:	000c      	movs	r4, r1
    8b92:	0017      	movs	r7, r2
    8b94:	4e0b      	ldr	r6, [pc, #44]	; (8bc4 <__aeabi_dsub+0x624>)
    8b96:	e589      	b.n	86ac <__aeabi_dsub+0x10c>
    8b98:	001e      	movs	r6, r3
    8b9a:	0027      	movs	r7, r4
    8b9c:	3e20      	subs	r6, #32
    8b9e:	40f7      	lsrs	r7, r6
    8ba0:	2b20      	cmp	r3, #32
    8ba2:	d00c      	beq.n	8bbe <__aeabi_dsub+0x61e>
    8ba4:	2640      	movs	r6, #64	; 0x40
    8ba6:	1af3      	subs	r3, r6, r3
    8ba8:	409c      	lsls	r4, r3
    8baa:	4650      	mov	r0, sl
    8bac:	4320      	orrs	r0, r4
    8bae:	1e44      	subs	r4, r0, #1
    8bb0:	41a0      	sbcs	r0, r4
    8bb2:	4307      	orrs	r7, r0
    8bb4:	2400      	movs	r4, #0
    8bb6:	18bf      	adds	r7, r7, r2
    8bb8:	e748      	b.n	8a4c <__aeabi_dsub+0x4ac>
    8bba:	2400      	movs	r4, #0
    8bbc:	e7d0      	b.n	8b60 <__aeabi_dsub+0x5c0>
    8bbe:	2400      	movs	r4, #0
    8bc0:	e7f3      	b.n	8baa <__aeabi_dsub+0x60a>
    8bc2:	46c0      	nop			; (mov r8, r8)
    8bc4:	000007ff 	.word	0x000007ff
    8bc8:	ff7fffff 	.word	0xff7fffff

00008bcc <__aeabi_d2iz>:
    8bcc:	b530      	push	{r4, r5, lr}
    8bce:	4d13      	ldr	r5, [pc, #76]	; (8c1c <__aeabi_d2iz+0x50>)
    8bd0:	030a      	lsls	r2, r1, #12
    8bd2:	004b      	lsls	r3, r1, #1
    8bd4:	0b12      	lsrs	r2, r2, #12
    8bd6:	0d5b      	lsrs	r3, r3, #21
    8bd8:	0fc9      	lsrs	r1, r1, #31
    8bda:	2400      	movs	r4, #0
    8bdc:	42ab      	cmp	r3, r5
    8bde:	dd10      	ble.n	8c02 <__aeabi_d2iz+0x36>
    8be0:	4c0f      	ldr	r4, [pc, #60]	; (8c20 <__aeabi_d2iz+0x54>)
    8be2:	42a3      	cmp	r3, r4
    8be4:	dc0f      	bgt.n	8c06 <__aeabi_d2iz+0x3a>
    8be6:	2480      	movs	r4, #128	; 0x80
    8be8:	4d0e      	ldr	r5, [pc, #56]	; (8c24 <__aeabi_d2iz+0x58>)
    8bea:	0364      	lsls	r4, r4, #13
    8bec:	4322      	orrs	r2, r4
    8bee:	1aed      	subs	r5, r5, r3
    8bf0:	2d1f      	cmp	r5, #31
    8bf2:	dd0b      	ble.n	8c0c <__aeabi_d2iz+0x40>
    8bf4:	480c      	ldr	r0, [pc, #48]	; (8c28 <__aeabi_d2iz+0x5c>)
    8bf6:	1ac3      	subs	r3, r0, r3
    8bf8:	40da      	lsrs	r2, r3
    8bfa:	4254      	negs	r4, r2
    8bfc:	2900      	cmp	r1, #0
    8bfe:	d100      	bne.n	8c02 <__aeabi_d2iz+0x36>
    8c00:	0014      	movs	r4, r2
    8c02:	0020      	movs	r0, r4
    8c04:	bd30      	pop	{r4, r5, pc}
    8c06:	4b09      	ldr	r3, [pc, #36]	; (8c2c <__aeabi_d2iz+0x60>)
    8c08:	18cc      	adds	r4, r1, r3
    8c0a:	e7fa      	b.n	8c02 <__aeabi_d2iz+0x36>
    8c0c:	4c08      	ldr	r4, [pc, #32]	; (8c30 <__aeabi_d2iz+0x64>)
    8c0e:	40e8      	lsrs	r0, r5
    8c10:	46a4      	mov	ip, r4
    8c12:	4463      	add	r3, ip
    8c14:	409a      	lsls	r2, r3
    8c16:	4302      	orrs	r2, r0
    8c18:	e7ef      	b.n	8bfa <__aeabi_d2iz+0x2e>
    8c1a:	46c0      	nop			; (mov r8, r8)
    8c1c:	000003fe 	.word	0x000003fe
    8c20:	0000041d 	.word	0x0000041d
    8c24:	00000433 	.word	0x00000433
    8c28:	00000413 	.word	0x00000413
    8c2c:	7fffffff 	.word	0x7fffffff
    8c30:	fffffbed 	.word	0xfffffbed

00008c34 <__aeabi_ui2d>:
    8c34:	b510      	push	{r4, lr}
    8c36:	1e04      	subs	r4, r0, #0
    8c38:	d028      	beq.n	8c8c <__aeabi_ui2d+0x58>
    8c3a:	f000 f833 	bl	8ca4 <__clzsi2>
    8c3e:	4b15      	ldr	r3, [pc, #84]	; (8c94 <__aeabi_ui2d+0x60>)
    8c40:	4a15      	ldr	r2, [pc, #84]	; (8c98 <__aeabi_ui2d+0x64>)
    8c42:	1a1b      	subs	r3, r3, r0
    8c44:	1ad2      	subs	r2, r2, r3
    8c46:	2a1f      	cmp	r2, #31
    8c48:	dd15      	ble.n	8c76 <__aeabi_ui2d+0x42>
    8c4a:	4a14      	ldr	r2, [pc, #80]	; (8c9c <__aeabi_ui2d+0x68>)
    8c4c:	1ad2      	subs	r2, r2, r3
    8c4e:	4094      	lsls	r4, r2
    8c50:	2200      	movs	r2, #0
    8c52:	0324      	lsls	r4, r4, #12
    8c54:	055b      	lsls	r3, r3, #21
    8c56:	0b24      	lsrs	r4, r4, #12
    8c58:	0d5b      	lsrs	r3, r3, #21
    8c5a:	2100      	movs	r1, #0
    8c5c:	0010      	movs	r0, r2
    8c5e:	0324      	lsls	r4, r4, #12
    8c60:	0d0a      	lsrs	r2, r1, #20
    8c62:	0b24      	lsrs	r4, r4, #12
    8c64:	0512      	lsls	r2, r2, #20
    8c66:	4322      	orrs	r2, r4
    8c68:	4c0d      	ldr	r4, [pc, #52]	; (8ca0 <__aeabi_ui2d+0x6c>)
    8c6a:	051b      	lsls	r3, r3, #20
    8c6c:	4022      	ands	r2, r4
    8c6e:	4313      	orrs	r3, r2
    8c70:	005b      	lsls	r3, r3, #1
    8c72:	0859      	lsrs	r1, r3, #1
    8c74:	bd10      	pop	{r4, pc}
    8c76:	0021      	movs	r1, r4
    8c78:	4091      	lsls	r1, r2
    8c7a:	000a      	movs	r2, r1
    8c7c:	210b      	movs	r1, #11
    8c7e:	1a08      	subs	r0, r1, r0
    8c80:	40c4      	lsrs	r4, r0
    8c82:	055b      	lsls	r3, r3, #21
    8c84:	0324      	lsls	r4, r4, #12
    8c86:	0b24      	lsrs	r4, r4, #12
    8c88:	0d5b      	lsrs	r3, r3, #21
    8c8a:	e7e6      	b.n	8c5a <__aeabi_ui2d+0x26>
    8c8c:	2300      	movs	r3, #0
    8c8e:	2400      	movs	r4, #0
    8c90:	2200      	movs	r2, #0
    8c92:	e7e2      	b.n	8c5a <__aeabi_ui2d+0x26>
    8c94:	0000041e 	.word	0x0000041e
    8c98:	00000433 	.word	0x00000433
    8c9c:	00000413 	.word	0x00000413
    8ca0:	800fffff 	.word	0x800fffff

00008ca4 <__clzsi2>:
    8ca4:	211c      	movs	r1, #28
    8ca6:	2301      	movs	r3, #1
    8ca8:	041b      	lsls	r3, r3, #16
    8caa:	4298      	cmp	r0, r3
    8cac:	d301      	bcc.n	8cb2 <__clzsi2+0xe>
    8cae:	0c00      	lsrs	r0, r0, #16
    8cb0:	3910      	subs	r1, #16
    8cb2:	0a1b      	lsrs	r3, r3, #8
    8cb4:	4298      	cmp	r0, r3
    8cb6:	d301      	bcc.n	8cbc <__clzsi2+0x18>
    8cb8:	0a00      	lsrs	r0, r0, #8
    8cba:	3908      	subs	r1, #8
    8cbc:	091b      	lsrs	r3, r3, #4
    8cbe:	4298      	cmp	r0, r3
    8cc0:	d301      	bcc.n	8cc6 <__clzsi2+0x22>
    8cc2:	0900      	lsrs	r0, r0, #4
    8cc4:	3904      	subs	r1, #4
    8cc6:	a202      	add	r2, pc, #8	; (adr r2, 8cd0 <__clzsi2+0x2c>)
    8cc8:	5c10      	ldrb	r0, [r2, r0]
    8cca:	1840      	adds	r0, r0, r1
    8ccc:	4770      	bx	lr
    8cce:	46c0      	nop			; (mov r8, r8)
    8cd0:	02020304 	.word	0x02020304
    8cd4:	01010101 	.word	0x01010101
	...

00008ce0 <__libc_init_array>:
    8ce0:	b570      	push	{r4, r5, r6, lr}
    8ce2:	2600      	movs	r6, #0
    8ce4:	4d0c      	ldr	r5, [pc, #48]	; (8d18 <__libc_init_array+0x38>)
    8ce6:	4c0d      	ldr	r4, [pc, #52]	; (8d1c <__libc_init_array+0x3c>)
    8ce8:	1b64      	subs	r4, r4, r5
    8cea:	10a4      	asrs	r4, r4, #2
    8cec:	42a6      	cmp	r6, r4
    8cee:	d109      	bne.n	8d04 <__libc_init_array+0x24>
    8cf0:	2600      	movs	r6, #0
    8cf2:	f001 ffd7 	bl	aca4 <_init>
    8cf6:	4d0a      	ldr	r5, [pc, #40]	; (8d20 <__libc_init_array+0x40>)
    8cf8:	4c0a      	ldr	r4, [pc, #40]	; (8d24 <__libc_init_array+0x44>)
    8cfa:	1b64      	subs	r4, r4, r5
    8cfc:	10a4      	asrs	r4, r4, #2
    8cfe:	42a6      	cmp	r6, r4
    8d00:	d105      	bne.n	8d0e <__libc_init_array+0x2e>
    8d02:	bd70      	pop	{r4, r5, r6, pc}
    8d04:	00b3      	lsls	r3, r6, #2
    8d06:	58eb      	ldr	r3, [r5, r3]
    8d08:	4798      	blx	r3
    8d0a:	3601      	adds	r6, #1
    8d0c:	e7ee      	b.n	8cec <__libc_init_array+0xc>
    8d0e:	00b3      	lsls	r3, r6, #2
    8d10:	58eb      	ldr	r3, [r5, r3]
    8d12:	4798      	blx	r3
    8d14:	3601      	adds	r6, #1
    8d16:	e7f2      	b.n	8cfe <__libc_init_array+0x1e>
    8d18:	0000acb0 	.word	0x0000acb0
    8d1c:	0000acb0 	.word	0x0000acb0
    8d20:	0000acb0 	.word	0x0000acb0
    8d24:	0000acb4 	.word	0x0000acb4

00008d28 <malloc>:
    8d28:	b510      	push	{r4, lr}
    8d2a:	4b03      	ldr	r3, [pc, #12]	; (8d38 <malloc+0x10>)
    8d2c:	0001      	movs	r1, r0
    8d2e:	6818      	ldr	r0, [r3, #0]
    8d30:	f000 f860 	bl	8df4 <_malloc_r>
    8d34:	bd10      	pop	{r4, pc}
    8d36:	46c0      	nop			; (mov r8, r8)
    8d38:	20000030 	.word	0x20000030

00008d3c <memcpy>:
    8d3c:	2300      	movs	r3, #0
    8d3e:	b510      	push	{r4, lr}
    8d40:	429a      	cmp	r2, r3
    8d42:	d100      	bne.n	8d46 <memcpy+0xa>
    8d44:	bd10      	pop	{r4, pc}
    8d46:	5ccc      	ldrb	r4, [r1, r3]
    8d48:	54c4      	strb	r4, [r0, r3]
    8d4a:	3301      	adds	r3, #1
    8d4c:	e7f8      	b.n	8d40 <memcpy+0x4>

00008d4e <memset>:
    8d4e:	0003      	movs	r3, r0
    8d50:	1882      	adds	r2, r0, r2
    8d52:	4293      	cmp	r3, r2
    8d54:	d100      	bne.n	8d58 <memset+0xa>
    8d56:	4770      	bx	lr
    8d58:	7019      	strb	r1, [r3, #0]
    8d5a:	3301      	adds	r3, #1
    8d5c:	e7f9      	b.n	8d52 <memset+0x4>
	...

00008d60 <_free_r>:
    8d60:	b570      	push	{r4, r5, r6, lr}
    8d62:	0005      	movs	r5, r0
    8d64:	2900      	cmp	r1, #0
    8d66:	d010      	beq.n	8d8a <_free_r+0x2a>
    8d68:	1f0c      	subs	r4, r1, #4
    8d6a:	6823      	ldr	r3, [r4, #0]
    8d6c:	2b00      	cmp	r3, #0
    8d6e:	da00      	bge.n	8d72 <_free_r+0x12>
    8d70:	18e4      	adds	r4, r4, r3
    8d72:	0028      	movs	r0, r5
    8d74:	f000 f9a4 	bl	90c0 <__malloc_lock>
    8d78:	4a1d      	ldr	r2, [pc, #116]	; (8df0 <_free_r+0x90>)
    8d7a:	6813      	ldr	r3, [r2, #0]
    8d7c:	2b00      	cmp	r3, #0
    8d7e:	d105      	bne.n	8d8c <_free_r+0x2c>
    8d80:	6063      	str	r3, [r4, #4]
    8d82:	6014      	str	r4, [r2, #0]
    8d84:	0028      	movs	r0, r5
    8d86:	f000 f99c 	bl	90c2 <__malloc_unlock>
    8d8a:	bd70      	pop	{r4, r5, r6, pc}
    8d8c:	42a3      	cmp	r3, r4
    8d8e:	d909      	bls.n	8da4 <_free_r+0x44>
    8d90:	6821      	ldr	r1, [r4, #0]
    8d92:	1860      	adds	r0, r4, r1
    8d94:	4283      	cmp	r3, r0
    8d96:	d1f3      	bne.n	8d80 <_free_r+0x20>
    8d98:	6818      	ldr	r0, [r3, #0]
    8d9a:	685b      	ldr	r3, [r3, #4]
    8d9c:	1841      	adds	r1, r0, r1
    8d9e:	6021      	str	r1, [r4, #0]
    8da0:	e7ee      	b.n	8d80 <_free_r+0x20>
    8da2:	0013      	movs	r3, r2
    8da4:	685a      	ldr	r2, [r3, #4]
    8da6:	2a00      	cmp	r2, #0
    8da8:	d001      	beq.n	8dae <_free_r+0x4e>
    8daa:	42a2      	cmp	r2, r4
    8dac:	d9f9      	bls.n	8da2 <_free_r+0x42>
    8dae:	6819      	ldr	r1, [r3, #0]
    8db0:	1858      	adds	r0, r3, r1
    8db2:	42a0      	cmp	r0, r4
    8db4:	d10b      	bne.n	8dce <_free_r+0x6e>
    8db6:	6820      	ldr	r0, [r4, #0]
    8db8:	1809      	adds	r1, r1, r0
    8dba:	1858      	adds	r0, r3, r1
    8dbc:	6019      	str	r1, [r3, #0]
    8dbe:	4282      	cmp	r2, r0
    8dc0:	d1e0      	bne.n	8d84 <_free_r+0x24>
    8dc2:	6810      	ldr	r0, [r2, #0]
    8dc4:	6852      	ldr	r2, [r2, #4]
    8dc6:	1841      	adds	r1, r0, r1
    8dc8:	6019      	str	r1, [r3, #0]
    8dca:	605a      	str	r2, [r3, #4]
    8dcc:	e7da      	b.n	8d84 <_free_r+0x24>
    8dce:	42a0      	cmp	r0, r4
    8dd0:	d902      	bls.n	8dd8 <_free_r+0x78>
    8dd2:	230c      	movs	r3, #12
    8dd4:	602b      	str	r3, [r5, #0]
    8dd6:	e7d5      	b.n	8d84 <_free_r+0x24>
    8dd8:	6821      	ldr	r1, [r4, #0]
    8dda:	1860      	adds	r0, r4, r1
    8ddc:	4282      	cmp	r2, r0
    8dde:	d103      	bne.n	8de8 <_free_r+0x88>
    8de0:	6810      	ldr	r0, [r2, #0]
    8de2:	6852      	ldr	r2, [r2, #4]
    8de4:	1841      	adds	r1, r0, r1
    8de6:	6021      	str	r1, [r4, #0]
    8de8:	6062      	str	r2, [r4, #4]
    8dea:	605c      	str	r4, [r3, #4]
    8dec:	e7ca      	b.n	8d84 <_free_r+0x24>
    8dee:	46c0      	nop			; (mov r8, r8)
    8df0:	2000385c 	.word	0x2000385c

00008df4 <_malloc_r>:
    8df4:	2303      	movs	r3, #3
    8df6:	b570      	push	{r4, r5, r6, lr}
    8df8:	1ccd      	adds	r5, r1, #3
    8dfa:	439d      	bics	r5, r3
    8dfc:	3508      	adds	r5, #8
    8dfe:	0006      	movs	r6, r0
    8e00:	2d0c      	cmp	r5, #12
    8e02:	d21e      	bcs.n	8e42 <_malloc_r+0x4e>
    8e04:	250c      	movs	r5, #12
    8e06:	42a9      	cmp	r1, r5
    8e08:	d81d      	bhi.n	8e46 <_malloc_r+0x52>
    8e0a:	0030      	movs	r0, r6
    8e0c:	f000 f958 	bl	90c0 <__malloc_lock>
    8e10:	4a25      	ldr	r2, [pc, #148]	; (8ea8 <_malloc_r+0xb4>)
    8e12:	6814      	ldr	r4, [r2, #0]
    8e14:	0021      	movs	r1, r4
    8e16:	2900      	cmp	r1, #0
    8e18:	d119      	bne.n	8e4e <_malloc_r+0x5a>
    8e1a:	4c24      	ldr	r4, [pc, #144]	; (8eac <_malloc_r+0xb8>)
    8e1c:	6823      	ldr	r3, [r4, #0]
    8e1e:	2b00      	cmp	r3, #0
    8e20:	d103      	bne.n	8e2a <_malloc_r+0x36>
    8e22:	0030      	movs	r0, r6
    8e24:	f000 f844 	bl	8eb0 <_sbrk_r>
    8e28:	6020      	str	r0, [r4, #0]
    8e2a:	0029      	movs	r1, r5
    8e2c:	0030      	movs	r0, r6
    8e2e:	f000 f83f 	bl	8eb0 <_sbrk_r>
    8e32:	1c43      	adds	r3, r0, #1
    8e34:	d12c      	bne.n	8e90 <_malloc_r+0x9c>
    8e36:	230c      	movs	r3, #12
    8e38:	0030      	movs	r0, r6
    8e3a:	6033      	str	r3, [r6, #0]
    8e3c:	f000 f941 	bl	90c2 <__malloc_unlock>
    8e40:	e003      	b.n	8e4a <_malloc_r+0x56>
    8e42:	2d00      	cmp	r5, #0
    8e44:	dadf      	bge.n	8e06 <_malloc_r+0x12>
    8e46:	230c      	movs	r3, #12
    8e48:	6033      	str	r3, [r6, #0]
    8e4a:	2000      	movs	r0, #0
    8e4c:	bd70      	pop	{r4, r5, r6, pc}
    8e4e:	680b      	ldr	r3, [r1, #0]
    8e50:	1b5b      	subs	r3, r3, r5
    8e52:	d41a      	bmi.n	8e8a <_malloc_r+0x96>
    8e54:	2b0b      	cmp	r3, #11
    8e56:	d903      	bls.n	8e60 <_malloc_r+0x6c>
    8e58:	600b      	str	r3, [r1, #0]
    8e5a:	18cc      	adds	r4, r1, r3
    8e5c:	6025      	str	r5, [r4, #0]
    8e5e:	e003      	b.n	8e68 <_malloc_r+0x74>
    8e60:	428c      	cmp	r4, r1
    8e62:	d10e      	bne.n	8e82 <_malloc_r+0x8e>
    8e64:	6863      	ldr	r3, [r4, #4]
    8e66:	6013      	str	r3, [r2, #0]
    8e68:	0030      	movs	r0, r6
    8e6a:	f000 f92a 	bl	90c2 <__malloc_unlock>
    8e6e:	0020      	movs	r0, r4
    8e70:	2207      	movs	r2, #7
    8e72:	300b      	adds	r0, #11
    8e74:	1d23      	adds	r3, r4, #4
    8e76:	4390      	bics	r0, r2
    8e78:	1ac3      	subs	r3, r0, r3
    8e7a:	d0e7      	beq.n	8e4c <_malloc_r+0x58>
    8e7c:	425a      	negs	r2, r3
    8e7e:	50e2      	str	r2, [r4, r3]
    8e80:	e7e4      	b.n	8e4c <_malloc_r+0x58>
    8e82:	684b      	ldr	r3, [r1, #4]
    8e84:	6063      	str	r3, [r4, #4]
    8e86:	000c      	movs	r4, r1
    8e88:	e7ee      	b.n	8e68 <_malloc_r+0x74>
    8e8a:	000c      	movs	r4, r1
    8e8c:	6849      	ldr	r1, [r1, #4]
    8e8e:	e7c2      	b.n	8e16 <_malloc_r+0x22>
    8e90:	2303      	movs	r3, #3
    8e92:	1cc4      	adds	r4, r0, #3
    8e94:	439c      	bics	r4, r3
    8e96:	42a0      	cmp	r0, r4
    8e98:	d0e0      	beq.n	8e5c <_malloc_r+0x68>
    8e9a:	1a21      	subs	r1, r4, r0
    8e9c:	0030      	movs	r0, r6
    8e9e:	f000 f807 	bl	8eb0 <_sbrk_r>
    8ea2:	1c43      	adds	r3, r0, #1
    8ea4:	d1da      	bne.n	8e5c <_malloc_r+0x68>
    8ea6:	e7c6      	b.n	8e36 <_malloc_r+0x42>
    8ea8:	2000385c 	.word	0x2000385c
    8eac:	20003860 	.word	0x20003860

00008eb0 <_sbrk_r>:
    8eb0:	2300      	movs	r3, #0
    8eb2:	b570      	push	{r4, r5, r6, lr}
    8eb4:	4c06      	ldr	r4, [pc, #24]	; (8ed0 <_sbrk_r+0x20>)
    8eb6:	0005      	movs	r5, r0
    8eb8:	0008      	movs	r0, r1
    8eba:	6023      	str	r3, [r4, #0]
    8ebc:	f7fd ff5a 	bl	6d74 <_sbrk>
    8ec0:	1c43      	adds	r3, r0, #1
    8ec2:	d103      	bne.n	8ecc <_sbrk_r+0x1c>
    8ec4:	6823      	ldr	r3, [r4, #0]
    8ec6:	2b00      	cmp	r3, #0
    8ec8:	d000      	beq.n	8ecc <_sbrk_r+0x1c>
    8eca:	602b      	str	r3, [r5, #0]
    8ecc:	bd70      	pop	{r4, r5, r6, pc}
    8ece:	46c0      	nop			; (mov r8, r8)
    8ed0:	20004fc0 	.word	0x20004fc0

00008ed4 <sniprintf>:
    8ed4:	b40c      	push	{r2, r3}
    8ed6:	b530      	push	{r4, r5, lr}
    8ed8:	4b16      	ldr	r3, [pc, #88]	; (8f34 <sniprintf+0x60>)
    8eda:	b09d      	sub	sp, #116	; 0x74
    8edc:	1e0c      	subs	r4, r1, #0
    8ede:	681d      	ldr	r5, [r3, #0]
    8ee0:	da08      	bge.n	8ef4 <sniprintf+0x20>
    8ee2:	238b      	movs	r3, #139	; 0x8b
    8ee4:	2001      	movs	r0, #1
    8ee6:	602b      	str	r3, [r5, #0]
    8ee8:	4240      	negs	r0, r0
    8eea:	b01d      	add	sp, #116	; 0x74
    8eec:	bc30      	pop	{r4, r5}
    8eee:	bc08      	pop	{r3}
    8ef0:	b002      	add	sp, #8
    8ef2:	4718      	bx	r3
    8ef4:	2382      	movs	r3, #130	; 0x82
    8ef6:	a902      	add	r1, sp, #8
    8ef8:	009b      	lsls	r3, r3, #2
    8efa:	818b      	strh	r3, [r1, #12]
    8efc:	2300      	movs	r3, #0
    8efe:	9002      	str	r0, [sp, #8]
    8f00:	6108      	str	r0, [r1, #16]
    8f02:	429c      	cmp	r4, r3
    8f04:	d000      	beq.n	8f08 <sniprintf+0x34>
    8f06:	1e63      	subs	r3, r4, #1
    8f08:	608b      	str	r3, [r1, #8]
    8f0a:	614b      	str	r3, [r1, #20]
    8f0c:	2301      	movs	r3, #1
    8f0e:	425b      	negs	r3, r3
    8f10:	81cb      	strh	r3, [r1, #14]
    8f12:	9a20      	ldr	r2, [sp, #128]	; 0x80
    8f14:	ab21      	add	r3, sp, #132	; 0x84
    8f16:	0028      	movs	r0, r5
    8f18:	9301      	str	r3, [sp, #4]
    8f1a:	f000 f935 	bl	9188 <_svfiprintf_r>
    8f1e:	1c43      	adds	r3, r0, #1
    8f20:	da01      	bge.n	8f26 <sniprintf+0x52>
    8f22:	238b      	movs	r3, #139	; 0x8b
    8f24:	602b      	str	r3, [r5, #0]
    8f26:	2c00      	cmp	r4, #0
    8f28:	d0df      	beq.n	8eea <sniprintf+0x16>
    8f2a:	2300      	movs	r3, #0
    8f2c:	9a02      	ldr	r2, [sp, #8]
    8f2e:	7013      	strb	r3, [r2, #0]
    8f30:	e7db      	b.n	8eea <sniprintf+0x16>
    8f32:	46c0      	nop			; (mov r8, r8)
    8f34:	20000030 	.word	0x20000030

00008f38 <siprintf>:
    8f38:	b40e      	push	{r1, r2, r3}
    8f3a:	b510      	push	{r4, lr}
    8f3c:	b09d      	sub	sp, #116	; 0x74
    8f3e:	a902      	add	r1, sp, #8
    8f40:	9002      	str	r0, [sp, #8]
    8f42:	6108      	str	r0, [r1, #16]
    8f44:	480b      	ldr	r0, [pc, #44]	; (8f74 <siprintf+0x3c>)
    8f46:	2482      	movs	r4, #130	; 0x82
    8f48:	6088      	str	r0, [r1, #8]
    8f4a:	6148      	str	r0, [r1, #20]
    8f4c:	2001      	movs	r0, #1
    8f4e:	4240      	negs	r0, r0
    8f50:	ab1f      	add	r3, sp, #124	; 0x7c
    8f52:	81c8      	strh	r0, [r1, #14]
    8f54:	4808      	ldr	r0, [pc, #32]	; (8f78 <siprintf+0x40>)
    8f56:	cb04      	ldmia	r3!, {r2}
    8f58:	00a4      	lsls	r4, r4, #2
    8f5a:	6800      	ldr	r0, [r0, #0]
    8f5c:	9301      	str	r3, [sp, #4]
    8f5e:	818c      	strh	r4, [r1, #12]
    8f60:	f000 f912 	bl	9188 <_svfiprintf_r>
    8f64:	2300      	movs	r3, #0
    8f66:	9a02      	ldr	r2, [sp, #8]
    8f68:	7013      	strb	r3, [r2, #0]
    8f6a:	b01d      	add	sp, #116	; 0x74
    8f6c:	bc10      	pop	{r4}
    8f6e:	bc08      	pop	{r3}
    8f70:	b003      	add	sp, #12
    8f72:	4718      	bx	r3
    8f74:	7fffffff 	.word	0x7fffffff
    8f78:	20000030 	.word	0x20000030

00008f7c <strcasecmp>:
    8f7c:	b5f8      	push	{r3, r4, r5, r6, r7, lr}
    8f7e:	0007      	movs	r7, r0
    8f80:	000e      	movs	r6, r1
    8f82:	783c      	ldrb	r4, [r7, #0]
    8f84:	f000 f87c 	bl	9080 <__locale_ctype_ptr>
    8f88:	2203      	movs	r2, #3
    8f8a:	1900      	adds	r0, r0, r4
    8f8c:	7843      	ldrb	r3, [r0, #1]
    8f8e:	4013      	ands	r3, r2
    8f90:	2b01      	cmp	r3, #1
    8f92:	d100      	bne.n	8f96 <strcasecmp+0x1a>
    8f94:	3420      	adds	r4, #32
    8f96:	7835      	ldrb	r5, [r6, #0]
    8f98:	f000 f872 	bl	9080 <__locale_ctype_ptr>
    8f9c:	2203      	movs	r2, #3
    8f9e:	1940      	adds	r0, r0, r5
    8fa0:	7843      	ldrb	r3, [r0, #1]
    8fa2:	4013      	ands	r3, r2
    8fa4:	2b01      	cmp	r3, #1
    8fa6:	d100      	bne.n	8faa <strcasecmp+0x2e>
    8fa8:	3520      	adds	r5, #32
    8faa:	1b60      	subs	r0, r4, r5
    8fac:	d103      	bne.n	8fb6 <strcasecmp+0x3a>
    8fae:	3701      	adds	r7, #1
    8fb0:	3601      	adds	r6, #1
    8fb2:	2d00      	cmp	r5, #0
    8fb4:	d1e5      	bne.n	8f82 <strcasecmp+0x6>
    8fb6:	bdf8      	pop	{r3, r4, r5, r6, r7, pc}

00008fb8 <strlen>:
    8fb8:	2300      	movs	r3, #0
    8fba:	5cc2      	ldrb	r2, [r0, r3]
    8fbc:	3301      	adds	r3, #1
    8fbe:	2a00      	cmp	r2, #0
    8fc0:	d1fb      	bne.n	8fba <strlen+0x2>
    8fc2:	1e58      	subs	r0, r3, #1
    8fc4:	4770      	bx	lr

00008fc6 <strncmp>:
    8fc6:	2300      	movs	r3, #0
    8fc8:	b530      	push	{r4, r5, lr}
    8fca:	429a      	cmp	r2, r3
    8fcc:	d00a      	beq.n	8fe4 <strncmp+0x1e>
    8fce:	3a01      	subs	r2, #1
    8fd0:	5cc4      	ldrb	r4, [r0, r3]
    8fd2:	5ccd      	ldrb	r5, [r1, r3]
    8fd4:	42ac      	cmp	r4, r5
    8fd6:	d104      	bne.n	8fe2 <strncmp+0x1c>
    8fd8:	429a      	cmp	r2, r3
    8fda:	d002      	beq.n	8fe2 <strncmp+0x1c>
    8fdc:	3301      	adds	r3, #1
    8fde:	2c00      	cmp	r4, #0
    8fe0:	d1f6      	bne.n	8fd0 <strncmp+0xa>
    8fe2:	1b63      	subs	r3, r4, r5
    8fe4:	0018      	movs	r0, r3
    8fe6:	bd30      	pop	{r4, r5, pc}

00008fe8 <strncpy>:
    8fe8:	b570      	push	{r4, r5, r6, lr}
    8fea:	0004      	movs	r4, r0
    8fec:	2a00      	cmp	r2, #0
    8fee:	d100      	bne.n	8ff2 <strncpy+0xa>
    8ff0:	bd70      	pop	{r4, r5, r6, pc}
    8ff2:	780d      	ldrb	r5, [r1, #0]
    8ff4:	1e56      	subs	r6, r2, #1
    8ff6:	1c63      	adds	r3, r4, #1
    8ff8:	7025      	strb	r5, [r4, #0]
    8ffa:	3101      	adds	r1, #1
    8ffc:	2d00      	cmp	r5, #0
    8ffe:	d105      	bne.n	900c <strncpy+0x24>
    9000:	18a4      	adds	r4, r4, r2
    9002:	429c      	cmp	r4, r3
    9004:	d0f4      	beq.n	8ff0 <strncpy+0x8>
    9006:	701d      	strb	r5, [r3, #0]
    9008:	3301      	adds	r3, #1
    900a:	e7fa      	b.n	9002 <strncpy+0x1a>
    900c:	001c      	movs	r4, r3
    900e:	0032      	movs	r2, r6
    9010:	e7ec      	b.n	8fec <strncpy+0x4>

00009012 <_vsniprintf_r>:
    9012:	b530      	push	{r4, r5, lr}
    9014:	0014      	movs	r4, r2
    9016:	b09b      	sub	sp, #108	; 0x6c
    9018:	0005      	movs	r5, r0
    901a:	001a      	movs	r2, r3
    901c:	2c00      	cmp	r4, #0
    901e:	da05      	bge.n	902c <_vsniprintf_r+0x1a>
    9020:	238b      	movs	r3, #139	; 0x8b
    9022:	6003      	str	r3, [r0, #0]
    9024:	2001      	movs	r0, #1
    9026:	4240      	negs	r0, r0
    9028:	b01b      	add	sp, #108	; 0x6c
    902a:	bd30      	pop	{r4, r5, pc}
    902c:	2382      	movs	r3, #130	; 0x82
    902e:	4668      	mov	r0, sp
    9030:	009b      	lsls	r3, r3, #2
    9032:	8183      	strh	r3, [r0, #12]
    9034:	2300      	movs	r3, #0
    9036:	9100      	str	r1, [sp, #0]
    9038:	9104      	str	r1, [sp, #16]
    903a:	429c      	cmp	r4, r3
    903c:	d000      	beq.n	9040 <_vsniprintf_r+0x2e>
    903e:	1e63      	subs	r3, r4, #1
    9040:	9302      	str	r3, [sp, #8]
    9042:	9305      	str	r3, [sp, #20]
    9044:	2301      	movs	r3, #1
    9046:	4669      	mov	r1, sp
    9048:	425b      	negs	r3, r3
    904a:	81cb      	strh	r3, [r1, #14]
    904c:	0028      	movs	r0, r5
    904e:	9b1e      	ldr	r3, [sp, #120]	; 0x78
    9050:	f000 f89a 	bl	9188 <_svfiprintf_r>
    9054:	1c43      	adds	r3, r0, #1
    9056:	da01      	bge.n	905c <_vsniprintf_r+0x4a>
    9058:	238b      	movs	r3, #139	; 0x8b
    905a:	602b      	str	r3, [r5, #0]
    905c:	2c00      	cmp	r4, #0
    905e:	d0e3      	beq.n	9028 <_vsniprintf_r+0x16>
    9060:	2300      	movs	r3, #0
    9062:	9a00      	ldr	r2, [sp, #0]
    9064:	7013      	strb	r3, [r2, #0]
    9066:	e7df      	b.n	9028 <_vsniprintf_r+0x16>

00009068 <vsniprintf>:
    9068:	b507      	push	{r0, r1, r2, lr}
    906a:	9300      	str	r3, [sp, #0]
    906c:	0013      	movs	r3, r2
    906e:	000a      	movs	r2, r1
    9070:	0001      	movs	r1, r0
    9072:	4802      	ldr	r0, [pc, #8]	; (907c <vsniprintf+0x14>)
    9074:	6800      	ldr	r0, [r0, #0]
    9076:	f7ff ffcc 	bl	9012 <_vsniprintf_r>
    907a:	bd0e      	pop	{r1, r2, r3, pc}
    907c:	20000030 	.word	0x20000030

00009080 <__locale_ctype_ptr>:
    9080:	4b04      	ldr	r3, [pc, #16]	; (9094 <__locale_ctype_ptr+0x14>)
    9082:	681b      	ldr	r3, [r3, #0]
    9084:	6a1b      	ldr	r3, [r3, #32]
    9086:	2b00      	cmp	r3, #0
    9088:	d100      	bne.n	908c <__locale_ctype_ptr+0xc>
    908a:	4b03      	ldr	r3, [pc, #12]	; (9098 <__locale_ctype_ptr+0x18>)
    908c:	33ec      	adds	r3, #236	; 0xec
    908e:	6818      	ldr	r0, [r3, #0]
    9090:	4770      	bx	lr
    9092:	46c0      	nop			; (mov r8, r8)
    9094:	20000030 	.word	0x20000030
    9098:	20000094 	.word	0x20000094

0000909c <__ascii_mbtowc>:
    909c:	b082      	sub	sp, #8
    909e:	2900      	cmp	r1, #0
    90a0:	d100      	bne.n	90a4 <__ascii_mbtowc+0x8>
    90a2:	a901      	add	r1, sp, #4
    90a4:	1e10      	subs	r0, r2, #0
    90a6:	d006      	beq.n	90b6 <__ascii_mbtowc+0x1a>
    90a8:	2b00      	cmp	r3, #0
    90aa:	d006      	beq.n	90ba <__ascii_mbtowc+0x1e>
    90ac:	7813      	ldrb	r3, [r2, #0]
    90ae:	600b      	str	r3, [r1, #0]
    90b0:	7810      	ldrb	r0, [r2, #0]
    90b2:	1e43      	subs	r3, r0, #1
    90b4:	4198      	sbcs	r0, r3
    90b6:	b002      	add	sp, #8
    90b8:	4770      	bx	lr
    90ba:	2002      	movs	r0, #2
    90bc:	4240      	negs	r0, r0
    90be:	e7fa      	b.n	90b6 <__ascii_mbtowc+0x1a>

000090c0 <__malloc_lock>:
    90c0:	4770      	bx	lr

000090c2 <__malloc_unlock>:
    90c2:	4770      	bx	lr

000090c4 <__ssputs_r>:
    90c4:	b5f0      	push	{r4, r5, r6, r7, lr}
    90c6:	688e      	ldr	r6, [r1, #8]
    90c8:	b085      	sub	sp, #20
    90ca:	0007      	movs	r7, r0
    90cc:	000c      	movs	r4, r1
    90ce:	9203      	str	r2, [sp, #12]
    90d0:	9301      	str	r3, [sp, #4]
    90d2:	429e      	cmp	r6, r3
    90d4:	d839      	bhi.n	914a <__ssputs_r+0x86>
    90d6:	2390      	movs	r3, #144	; 0x90
    90d8:	898a      	ldrh	r2, [r1, #12]
    90da:	00db      	lsls	r3, r3, #3
    90dc:	421a      	tst	r2, r3
    90de:	d034      	beq.n	914a <__ssputs_r+0x86>
    90e0:	2503      	movs	r5, #3
    90e2:	6909      	ldr	r1, [r1, #16]
    90e4:	6823      	ldr	r3, [r4, #0]
    90e6:	1a5b      	subs	r3, r3, r1
    90e8:	9302      	str	r3, [sp, #8]
    90ea:	6963      	ldr	r3, [r4, #20]
    90ec:	9802      	ldr	r0, [sp, #8]
    90ee:	435d      	muls	r5, r3
    90f0:	0feb      	lsrs	r3, r5, #31
    90f2:	195d      	adds	r5, r3, r5
    90f4:	9b01      	ldr	r3, [sp, #4]
    90f6:	106d      	asrs	r5, r5, #1
    90f8:	3301      	adds	r3, #1
    90fa:	181b      	adds	r3, r3, r0
    90fc:	42ab      	cmp	r3, r5
    90fe:	d900      	bls.n	9102 <__ssputs_r+0x3e>
    9100:	001d      	movs	r5, r3
    9102:	0553      	lsls	r3, r2, #21
    9104:	d532      	bpl.n	916c <__ssputs_r+0xa8>
    9106:	0029      	movs	r1, r5
    9108:	0038      	movs	r0, r7
    910a:	f7ff fe73 	bl	8df4 <_malloc_r>
    910e:	1e06      	subs	r6, r0, #0
    9110:	d109      	bne.n	9126 <__ssputs_r+0x62>
    9112:	230c      	movs	r3, #12
    9114:	603b      	str	r3, [r7, #0]
    9116:	2340      	movs	r3, #64	; 0x40
    9118:	2001      	movs	r0, #1
    911a:	89a2      	ldrh	r2, [r4, #12]
    911c:	4240      	negs	r0, r0
    911e:	4313      	orrs	r3, r2
    9120:	81a3      	strh	r3, [r4, #12]
    9122:	b005      	add	sp, #20
    9124:	bdf0      	pop	{r4, r5, r6, r7, pc}
    9126:	9a02      	ldr	r2, [sp, #8]
    9128:	6921      	ldr	r1, [r4, #16]
    912a:	f7ff fe07 	bl	8d3c <memcpy>
    912e:	89a3      	ldrh	r3, [r4, #12]
    9130:	4a14      	ldr	r2, [pc, #80]	; (9184 <__ssputs_r+0xc0>)
    9132:	401a      	ands	r2, r3
    9134:	2380      	movs	r3, #128	; 0x80
    9136:	4313      	orrs	r3, r2
    9138:	81a3      	strh	r3, [r4, #12]
    913a:	9b02      	ldr	r3, [sp, #8]
    913c:	6126      	str	r6, [r4, #16]
    913e:	18f6      	adds	r6, r6, r3
    9140:	6026      	str	r6, [r4, #0]
    9142:	6165      	str	r5, [r4, #20]
    9144:	9e01      	ldr	r6, [sp, #4]
    9146:	1aed      	subs	r5, r5, r3
    9148:	60a5      	str	r5, [r4, #8]
    914a:	9b01      	ldr	r3, [sp, #4]
    914c:	42b3      	cmp	r3, r6
    914e:	d200      	bcs.n	9152 <__ssputs_r+0x8e>
    9150:	001e      	movs	r6, r3
    9152:	0032      	movs	r2, r6
    9154:	9903      	ldr	r1, [sp, #12]
    9156:	6820      	ldr	r0, [r4, #0]
    9158:	f000 fab9 	bl	96ce <memmove>
    915c:	68a3      	ldr	r3, [r4, #8]
    915e:	2000      	movs	r0, #0
    9160:	1b9b      	subs	r3, r3, r6
    9162:	60a3      	str	r3, [r4, #8]
    9164:	6823      	ldr	r3, [r4, #0]
    9166:	199e      	adds	r6, r3, r6
    9168:	6026      	str	r6, [r4, #0]
    916a:	e7da      	b.n	9122 <__ssputs_r+0x5e>
    916c:	002a      	movs	r2, r5
    916e:	0038      	movs	r0, r7
    9170:	f000 fabf 	bl	96f2 <_realloc_r>
    9174:	1e06      	subs	r6, r0, #0
    9176:	d1e0      	bne.n	913a <__ssputs_r+0x76>
    9178:	6921      	ldr	r1, [r4, #16]
    917a:	0038      	movs	r0, r7
    917c:	f7ff fdf0 	bl	8d60 <_free_r>
    9180:	e7c7      	b.n	9112 <__ssputs_r+0x4e>
    9182:	46c0      	nop			; (mov r8, r8)
    9184:	fffffb7f 	.word	0xfffffb7f

00009188 <_svfiprintf_r>:
    9188:	b5f0      	push	{r4, r5, r6, r7, lr}
    918a:	b09f      	sub	sp, #124	; 0x7c
    918c:	9002      	str	r0, [sp, #8]
    918e:	9305      	str	r3, [sp, #20]
    9190:	898b      	ldrh	r3, [r1, #12]
    9192:	000f      	movs	r7, r1
    9194:	0016      	movs	r6, r2
    9196:	061b      	lsls	r3, r3, #24
    9198:	d511      	bpl.n	91be <_svfiprintf_r+0x36>
    919a:	690b      	ldr	r3, [r1, #16]
    919c:	2b00      	cmp	r3, #0
    919e:	d10e      	bne.n	91be <_svfiprintf_r+0x36>
    91a0:	2140      	movs	r1, #64	; 0x40
    91a2:	f7ff fe27 	bl	8df4 <_malloc_r>
    91a6:	6038      	str	r0, [r7, #0]
    91a8:	6138      	str	r0, [r7, #16]
    91aa:	2800      	cmp	r0, #0
    91ac:	d105      	bne.n	91ba <_svfiprintf_r+0x32>
    91ae:	230c      	movs	r3, #12
    91b0:	9a02      	ldr	r2, [sp, #8]
    91b2:	3801      	subs	r0, #1
    91b4:	6013      	str	r3, [r2, #0]
    91b6:	b01f      	add	sp, #124	; 0x7c
    91b8:	bdf0      	pop	{r4, r5, r6, r7, pc}
    91ba:	2340      	movs	r3, #64	; 0x40
    91bc:	617b      	str	r3, [r7, #20]
    91be:	2300      	movs	r3, #0
    91c0:	ad06      	add	r5, sp, #24
    91c2:	616b      	str	r3, [r5, #20]
    91c4:	3320      	adds	r3, #32
    91c6:	766b      	strb	r3, [r5, #25]
    91c8:	3310      	adds	r3, #16
    91ca:	76ab      	strb	r3, [r5, #26]
    91cc:	0034      	movs	r4, r6
    91ce:	7823      	ldrb	r3, [r4, #0]
    91d0:	2b00      	cmp	r3, #0
    91d2:	d147      	bne.n	9264 <_svfiprintf_r+0xdc>
    91d4:	1ba3      	subs	r3, r4, r6
    91d6:	9304      	str	r3, [sp, #16]
    91d8:	d00d      	beq.n	91f6 <_svfiprintf_r+0x6e>
    91da:	1ba3      	subs	r3, r4, r6
    91dc:	0032      	movs	r2, r6
    91de:	0039      	movs	r1, r7
    91e0:	9802      	ldr	r0, [sp, #8]
    91e2:	f7ff ff6f 	bl	90c4 <__ssputs_r>
    91e6:	1c43      	adds	r3, r0, #1
    91e8:	d100      	bne.n	91ec <_svfiprintf_r+0x64>
    91ea:	e0b5      	b.n	9358 <_svfiprintf_r+0x1d0>
    91ec:	696a      	ldr	r2, [r5, #20]
    91ee:	9b04      	ldr	r3, [sp, #16]
    91f0:	4694      	mov	ip, r2
    91f2:	4463      	add	r3, ip
    91f4:	616b      	str	r3, [r5, #20]
    91f6:	7823      	ldrb	r3, [r4, #0]
    91f8:	2b00      	cmp	r3, #0
    91fa:	d100      	bne.n	91fe <_svfiprintf_r+0x76>
    91fc:	e0ac      	b.n	9358 <_svfiprintf_r+0x1d0>
    91fe:	2201      	movs	r2, #1
    9200:	2300      	movs	r3, #0
    9202:	4252      	negs	r2, r2
    9204:	606a      	str	r2, [r5, #4]
    9206:	a902      	add	r1, sp, #8
    9208:	3254      	adds	r2, #84	; 0x54
    920a:	1852      	adds	r2, r2, r1
    920c:	3401      	adds	r4, #1
    920e:	602b      	str	r3, [r5, #0]
    9210:	60eb      	str	r3, [r5, #12]
    9212:	60ab      	str	r3, [r5, #8]
    9214:	7013      	strb	r3, [r2, #0]
    9216:	65ab      	str	r3, [r5, #88]	; 0x58
    9218:	4e58      	ldr	r6, [pc, #352]	; (937c <_svfiprintf_r+0x1f4>)
    921a:	2205      	movs	r2, #5
    921c:	7821      	ldrb	r1, [r4, #0]
    921e:	0030      	movs	r0, r6
    9220:	f000 fa4a 	bl	96b8 <memchr>
    9224:	1c62      	adds	r2, r4, #1
    9226:	2800      	cmp	r0, #0
    9228:	d120      	bne.n	926c <_svfiprintf_r+0xe4>
    922a:	6829      	ldr	r1, [r5, #0]
    922c:	06cb      	lsls	r3, r1, #27
    922e:	d504      	bpl.n	923a <_svfiprintf_r+0xb2>
    9230:	2353      	movs	r3, #83	; 0x53
    9232:	ae02      	add	r6, sp, #8
    9234:	3020      	adds	r0, #32
    9236:	199b      	adds	r3, r3, r6
    9238:	7018      	strb	r0, [r3, #0]
    923a:	070b      	lsls	r3, r1, #28
    923c:	d504      	bpl.n	9248 <_svfiprintf_r+0xc0>
    923e:	2353      	movs	r3, #83	; 0x53
    9240:	202b      	movs	r0, #43	; 0x2b
    9242:	ae02      	add	r6, sp, #8
    9244:	199b      	adds	r3, r3, r6
    9246:	7018      	strb	r0, [r3, #0]
    9248:	7823      	ldrb	r3, [r4, #0]
    924a:	2b2a      	cmp	r3, #42	; 0x2a
    924c:	d016      	beq.n	927c <_svfiprintf_r+0xf4>
    924e:	2000      	movs	r0, #0
    9250:	210a      	movs	r1, #10
    9252:	9b09      	ldr	r3, [sp, #36]	; 0x24
    9254:	7822      	ldrb	r2, [r4, #0]
    9256:	3a30      	subs	r2, #48	; 0x30
    9258:	2a09      	cmp	r2, #9
    925a:	d955      	bls.n	9308 <_svfiprintf_r+0x180>
    925c:	2800      	cmp	r0, #0
    925e:	d015      	beq.n	928c <_svfiprintf_r+0x104>
    9260:	9309      	str	r3, [sp, #36]	; 0x24
    9262:	e013      	b.n	928c <_svfiprintf_r+0x104>
    9264:	2b25      	cmp	r3, #37	; 0x25
    9266:	d0b5      	beq.n	91d4 <_svfiprintf_r+0x4c>
    9268:	3401      	adds	r4, #1
    926a:	e7b0      	b.n	91ce <_svfiprintf_r+0x46>
    926c:	2301      	movs	r3, #1
    926e:	1b80      	subs	r0, r0, r6
    9270:	4083      	lsls	r3, r0
    9272:	6829      	ldr	r1, [r5, #0]
    9274:	0014      	movs	r4, r2
    9276:	430b      	orrs	r3, r1
    9278:	602b      	str	r3, [r5, #0]
    927a:	e7cd      	b.n	9218 <_svfiprintf_r+0x90>
    927c:	9b05      	ldr	r3, [sp, #20]
    927e:	1d18      	adds	r0, r3, #4
    9280:	681b      	ldr	r3, [r3, #0]
    9282:	9005      	str	r0, [sp, #20]
    9284:	2b00      	cmp	r3, #0
    9286:	db39      	blt.n	92fc <_svfiprintf_r+0x174>
    9288:	9309      	str	r3, [sp, #36]	; 0x24
    928a:	0014      	movs	r4, r2
    928c:	7823      	ldrb	r3, [r4, #0]
    928e:	2b2e      	cmp	r3, #46	; 0x2e
    9290:	d10b      	bne.n	92aa <_svfiprintf_r+0x122>
    9292:	7863      	ldrb	r3, [r4, #1]
    9294:	1c62      	adds	r2, r4, #1
    9296:	2b2a      	cmp	r3, #42	; 0x2a
    9298:	d13e      	bne.n	9318 <_svfiprintf_r+0x190>
    929a:	9b05      	ldr	r3, [sp, #20]
    929c:	3402      	adds	r4, #2
    929e:	1d1a      	adds	r2, r3, #4
    92a0:	681b      	ldr	r3, [r3, #0]
    92a2:	9205      	str	r2, [sp, #20]
    92a4:	2b00      	cmp	r3, #0
    92a6:	db34      	blt.n	9312 <_svfiprintf_r+0x18a>
    92a8:	9307      	str	r3, [sp, #28]
    92aa:	4e35      	ldr	r6, [pc, #212]	; (9380 <_svfiprintf_r+0x1f8>)
    92ac:	7821      	ldrb	r1, [r4, #0]
    92ae:	2203      	movs	r2, #3
    92b0:	0030      	movs	r0, r6
    92b2:	f000 fa01 	bl	96b8 <memchr>
    92b6:	2800      	cmp	r0, #0
    92b8:	d006      	beq.n	92c8 <_svfiprintf_r+0x140>
    92ba:	2340      	movs	r3, #64	; 0x40
    92bc:	1b80      	subs	r0, r0, r6
    92be:	4083      	lsls	r3, r0
    92c0:	682a      	ldr	r2, [r5, #0]
    92c2:	3401      	adds	r4, #1
    92c4:	4313      	orrs	r3, r2
    92c6:	602b      	str	r3, [r5, #0]
    92c8:	7821      	ldrb	r1, [r4, #0]
    92ca:	2206      	movs	r2, #6
    92cc:	482d      	ldr	r0, [pc, #180]	; (9384 <_svfiprintf_r+0x1fc>)
    92ce:	1c66      	adds	r6, r4, #1
    92d0:	7629      	strb	r1, [r5, #24]
    92d2:	f000 f9f1 	bl	96b8 <memchr>
    92d6:	2800      	cmp	r0, #0
    92d8:	d046      	beq.n	9368 <_svfiprintf_r+0x1e0>
    92da:	4b2b      	ldr	r3, [pc, #172]	; (9388 <_svfiprintf_r+0x200>)
    92dc:	2b00      	cmp	r3, #0
    92de:	d12f      	bne.n	9340 <_svfiprintf_r+0x1b8>
    92e0:	6829      	ldr	r1, [r5, #0]
    92e2:	9b05      	ldr	r3, [sp, #20]
    92e4:	2207      	movs	r2, #7
    92e6:	05c9      	lsls	r1, r1, #23
    92e8:	d528      	bpl.n	933c <_svfiprintf_r+0x1b4>
    92ea:	189b      	adds	r3, r3, r2
    92ec:	4393      	bics	r3, r2
    92ee:	3308      	adds	r3, #8
    92f0:	9305      	str	r3, [sp, #20]
    92f2:	696b      	ldr	r3, [r5, #20]
    92f4:	9a03      	ldr	r2, [sp, #12]
    92f6:	189b      	adds	r3, r3, r2
    92f8:	616b      	str	r3, [r5, #20]
    92fa:	e767      	b.n	91cc <_svfiprintf_r+0x44>
    92fc:	425b      	negs	r3, r3
    92fe:	60eb      	str	r3, [r5, #12]
    9300:	2302      	movs	r3, #2
    9302:	430b      	orrs	r3, r1
    9304:	602b      	str	r3, [r5, #0]
    9306:	e7c0      	b.n	928a <_svfiprintf_r+0x102>
    9308:	434b      	muls	r3, r1
    930a:	3401      	adds	r4, #1
    930c:	189b      	adds	r3, r3, r2
    930e:	2001      	movs	r0, #1
    9310:	e7a0      	b.n	9254 <_svfiprintf_r+0xcc>
    9312:	2301      	movs	r3, #1
    9314:	425b      	negs	r3, r3
    9316:	e7c7      	b.n	92a8 <_svfiprintf_r+0x120>
    9318:	2300      	movs	r3, #0
    931a:	0014      	movs	r4, r2
    931c:	200a      	movs	r0, #10
    931e:	001a      	movs	r2, r3
    9320:	606b      	str	r3, [r5, #4]
    9322:	7821      	ldrb	r1, [r4, #0]
    9324:	3930      	subs	r1, #48	; 0x30
    9326:	2909      	cmp	r1, #9
    9328:	d903      	bls.n	9332 <_svfiprintf_r+0x1aa>
    932a:	2b00      	cmp	r3, #0
    932c:	d0bd      	beq.n	92aa <_svfiprintf_r+0x122>
    932e:	9207      	str	r2, [sp, #28]
    9330:	e7bb      	b.n	92aa <_svfiprintf_r+0x122>
    9332:	4342      	muls	r2, r0
    9334:	3401      	adds	r4, #1
    9336:	1852      	adds	r2, r2, r1
    9338:	2301      	movs	r3, #1
    933a:	e7f2      	b.n	9322 <_svfiprintf_r+0x19a>
    933c:	3307      	adds	r3, #7
    933e:	e7d5      	b.n	92ec <_svfiprintf_r+0x164>
    9340:	ab05      	add	r3, sp, #20
    9342:	9300      	str	r3, [sp, #0]
    9344:	003a      	movs	r2, r7
    9346:	4b11      	ldr	r3, [pc, #68]	; (938c <_svfiprintf_r+0x204>)
    9348:	0029      	movs	r1, r5
    934a:	9802      	ldr	r0, [sp, #8]
    934c:	e000      	b.n	9350 <_svfiprintf_r+0x1c8>
    934e:	bf00      	nop
    9350:	9003      	str	r0, [sp, #12]
    9352:	9b03      	ldr	r3, [sp, #12]
    9354:	3301      	adds	r3, #1
    9356:	d1cc      	bne.n	92f2 <_svfiprintf_r+0x16a>
    9358:	89bb      	ldrh	r3, [r7, #12]
    935a:	980b      	ldr	r0, [sp, #44]	; 0x2c
    935c:	065b      	lsls	r3, r3, #25
    935e:	d400      	bmi.n	9362 <_svfiprintf_r+0x1da>
    9360:	e729      	b.n	91b6 <_svfiprintf_r+0x2e>
    9362:	2001      	movs	r0, #1
    9364:	4240      	negs	r0, r0
    9366:	e726      	b.n	91b6 <_svfiprintf_r+0x2e>
    9368:	ab05      	add	r3, sp, #20
    936a:	9300      	str	r3, [sp, #0]
    936c:	003a      	movs	r2, r7
    936e:	4b07      	ldr	r3, [pc, #28]	; (938c <_svfiprintf_r+0x204>)
    9370:	0029      	movs	r1, r5
    9372:	9802      	ldr	r0, [sp, #8]
    9374:	f000 f87a 	bl	946c <_printf_i>
    9378:	e7ea      	b.n	9350 <_svfiprintf_r+0x1c8>
    937a:	46c0      	nop			; (mov r8, r8)
    937c:	0000ab6e 	.word	0x0000ab6e
    9380:	0000ab74 	.word	0x0000ab74
    9384:	0000ab78 	.word	0x0000ab78
    9388:	00000000 	.word	0x00000000
    938c:	000090c5 	.word	0x000090c5

00009390 <_printf_common>:
    9390:	b5f7      	push	{r0, r1, r2, r4, r5, r6, r7, lr}
    9392:	0015      	movs	r5, r2
    9394:	9301      	str	r3, [sp, #4]
    9396:	688a      	ldr	r2, [r1, #8]
    9398:	690b      	ldr	r3, [r1, #16]
    939a:	9000      	str	r0, [sp, #0]
    939c:	000c      	movs	r4, r1
    939e:	4293      	cmp	r3, r2
    93a0:	da00      	bge.n	93a4 <_printf_common+0x14>
    93a2:	0013      	movs	r3, r2
    93a4:	0022      	movs	r2, r4
    93a6:	602b      	str	r3, [r5, #0]
    93a8:	3243      	adds	r2, #67	; 0x43
    93aa:	7812      	ldrb	r2, [r2, #0]
    93ac:	2a00      	cmp	r2, #0
    93ae:	d001      	beq.n	93b4 <_printf_common+0x24>
    93b0:	3301      	adds	r3, #1
    93b2:	602b      	str	r3, [r5, #0]
    93b4:	6823      	ldr	r3, [r4, #0]
    93b6:	069b      	lsls	r3, r3, #26
    93b8:	d502      	bpl.n	93c0 <_printf_common+0x30>
    93ba:	682b      	ldr	r3, [r5, #0]
    93bc:	3302      	adds	r3, #2
    93be:	602b      	str	r3, [r5, #0]
    93c0:	2706      	movs	r7, #6
    93c2:	6823      	ldr	r3, [r4, #0]
    93c4:	401f      	ands	r7, r3
    93c6:	d027      	beq.n	9418 <_printf_common+0x88>
    93c8:	0023      	movs	r3, r4
    93ca:	3343      	adds	r3, #67	; 0x43
    93cc:	781b      	ldrb	r3, [r3, #0]
    93ce:	1e5a      	subs	r2, r3, #1
    93d0:	4193      	sbcs	r3, r2
    93d2:	6822      	ldr	r2, [r4, #0]
    93d4:	0692      	lsls	r2, r2, #26
    93d6:	d430      	bmi.n	943a <_printf_common+0xaa>
    93d8:	0022      	movs	r2, r4
    93da:	9901      	ldr	r1, [sp, #4]
    93dc:	3243      	adds	r2, #67	; 0x43
    93de:	9800      	ldr	r0, [sp, #0]
    93e0:	9e08      	ldr	r6, [sp, #32]
    93e2:	47b0      	blx	r6
    93e4:	1c43      	adds	r3, r0, #1
    93e6:	d025      	beq.n	9434 <_printf_common+0xa4>
    93e8:	2306      	movs	r3, #6
    93ea:	6820      	ldr	r0, [r4, #0]
    93ec:	682a      	ldr	r2, [r5, #0]
    93ee:	68e1      	ldr	r1, [r4, #12]
    93f0:	4003      	ands	r3, r0
    93f2:	2500      	movs	r5, #0
    93f4:	2b04      	cmp	r3, #4
    93f6:	d103      	bne.n	9400 <_printf_common+0x70>
    93f8:	1a8d      	subs	r5, r1, r2
    93fa:	43eb      	mvns	r3, r5
    93fc:	17db      	asrs	r3, r3, #31
    93fe:	401d      	ands	r5, r3
    9400:	68a3      	ldr	r3, [r4, #8]
    9402:	6922      	ldr	r2, [r4, #16]
    9404:	4293      	cmp	r3, r2
    9406:	dd01      	ble.n	940c <_printf_common+0x7c>
    9408:	1a9b      	subs	r3, r3, r2
    940a:	18ed      	adds	r5, r5, r3
    940c:	2700      	movs	r7, #0
    940e:	42bd      	cmp	r5, r7
    9410:	d120      	bne.n	9454 <_printf_common+0xc4>
    9412:	2000      	movs	r0, #0
    9414:	e010      	b.n	9438 <_printf_common+0xa8>
    9416:	3701      	adds	r7, #1
    9418:	68e3      	ldr	r3, [r4, #12]
    941a:	682a      	ldr	r2, [r5, #0]
    941c:	1a9b      	subs	r3, r3, r2
    941e:	429f      	cmp	r7, r3
    9420:	dad2      	bge.n	93c8 <_printf_common+0x38>
    9422:	0022      	movs	r2, r4
    9424:	2301      	movs	r3, #1
    9426:	3219      	adds	r2, #25
    9428:	9901      	ldr	r1, [sp, #4]
    942a:	9800      	ldr	r0, [sp, #0]
    942c:	9e08      	ldr	r6, [sp, #32]
    942e:	47b0      	blx	r6
    9430:	1c43      	adds	r3, r0, #1
    9432:	d1f0      	bne.n	9416 <_printf_common+0x86>
    9434:	2001      	movs	r0, #1
    9436:	4240      	negs	r0, r0
    9438:	bdfe      	pop	{r1, r2, r3, r4, r5, r6, r7, pc}
    943a:	2030      	movs	r0, #48	; 0x30
    943c:	18e1      	adds	r1, r4, r3
    943e:	3143      	adds	r1, #67	; 0x43
    9440:	7008      	strb	r0, [r1, #0]
    9442:	0021      	movs	r1, r4
    9444:	1c5a      	adds	r2, r3, #1
    9446:	3145      	adds	r1, #69	; 0x45
    9448:	7809      	ldrb	r1, [r1, #0]
    944a:	18a2      	adds	r2, r4, r2
    944c:	3243      	adds	r2, #67	; 0x43
    944e:	3302      	adds	r3, #2
    9450:	7011      	strb	r1, [r2, #0]
    9452:	e7c1      	b.n	93d8 <_printf_common+0x48>
    9454:	0022      	movs	r2, r4
    9456:	2301      	movs	r3, #1
    9458:	321a      	adds	r2, #26
    945a:	9901      	ldr	r1, [sp, #4]
    945c:	9800      	ldr	r0, [sp, #0]
    945e:	9e08      	ldr	r6, [sp, #32]
    9460:	47b0      	blx	r6
    9462:	1c43      	adds	r3, r0, #1
    9464:	d0e6      	beq.n	9434 <_printf_common+0xa4>
    9466:	3701      	adds	r7, #1
    9468:	e7d1      	b.n	940e <_printf_common+0x7e>
	...

0000946c <_printf_i>:
    946c:	b5f0      	push	{r4, r5, r6, r7, lr}
    946e:	b08b      	sub	sp, #44	; 0x2c
    9470:	9206      	str	r2, [sp, #24]
    9472:	000a      	movs	r2, r1
    9474:	3243      	adds	r2, #67	; 0x43
    9476:	9307      	str	r3, [sp, #28]
    9478:	9005      	str	r0, [sp, #20]
    947a:	9204      	str	r2, [sp, #16]
    947c:	7e0a      	ldrb	r2, [r1, #24]
    947e:	000c      	movs	r4, r1
    9480:	9b10      	ldr	r3, [sp, #64]	; 0x40
    9482:	2a6e      	cmp	r2, #110	; 0x6e
    9484:	d100      	bne.n	9488 <_printf_i+0x1c>
    9486:	e08f      	b.n	95a8 <_printf_i+0x13c>
    9488:	d817      	bhi.n	94ba <_printf_i+0x4e>
    948a:	2a63      	cmp	r2, #99	; 0x63
    948c:	d02c      	beq.n	94e8 <_printf_i+0x7c>
    948e:	d808      	bhi.n	94a2 <_printf_i+0x36>
    9490:	2a00      	cmp	r2, #0
    9492:	d100      	bne.n	9496 <_printf_i+0x2a>
    9494:	e099      	b.n	95ca <_printf_i+0x15e>
    9496:	2a58      	cmp	r2, #88	; 0x58
    9498:	d054      	beq.n	9544 <_printf_i+0xd8>
    949a:	0026      	movs	r6, r4
    949c:	3642      	adds	r6, #66	; 0x42
    949e:	7032      	strb	r2, [r6, #0]
    94a0:	e029      	b.n	94f6 <_printf_i+0x8a>
    94a2:	2a64      	cmp	r2, #100	; 0x64
    94a4:	d001      	beq.n	94aa <_printf_i+0x3e>
    94a6:	2a69      	cmp	r2, #105	; 0x69
    94a8:	d1f7      	bne.n	949a <_printf_i+0x2e>
    94aa:	6821      	ldr	r1, [r4, #0]
    94ac:	681a      	ldr	r2, [r3, #0]
    94ae:	0608      	lsls	r0, r1, #24
    94b0:	d523      	bpl.n	94fa <_printf_i+0x8e>
    94b2:	1d11      	adds	r1, r2, #4
    94b4:	6019      	str	r1, [r3, #0]
    94b6:	6815      	ldr	r5, [r2, #0]
    94b8:	e025      	b.n	9506 <_printf_i+0x9a>
    94ba:	2a73      	cmp	r2, #115	; 0x73
    94bc:	d100      	bne.n	94c0 <_printf_i+0x54>
    94be:	e088      	b.n	95d2 <_printf_i+0x166>
    94c0:	d808      	bhi.n	94d4 <_printf_i+0x68>
    94c2:	2a6f      	cmp	r2, #111	; 0x6f
    94c4:	d029      	beq.n	951a <_printf_i+0xae>
    94c6:	2a70      	cmp	r2, #112	; 0x70
    94c8:	d1e7      	bne.n	949a <_printf_i+0x2e>
    94ca:	2220      	movs	r2, #32
    94cc:	6809      	ldr	r1, [r1, #0]
    94ce:	430a      	orrs	r2, r1
    94d0:	6022      	str	r2, [r4, #0]
    94d2:	e003      	b.n	94dc <_printf_i+0x70>
    94d4:	2a75      	cmp	r2, #117	; 0x75
    94d6:	d020      	beq.n	951a <_printf_i+0xae>
    94d8:	2a78      	cmp	r2, #120	; 0x78
    94da:	d1de      	bne.n	949a <_printf_i+0x2e>
    94dc:	0022      	movs	r2, r4
    94de:	2178      	movs	r1, #120	; 0x78
    94e0:	3245      	adds	r2, #69	; 0x45
    94e2:	7011      	strb	r1, [r2, #0]
    94e4:	4a6c      	ldr	r2, [pc, #432]	; (9698 <_printf_i+0x22c>)
    94e6:	e030      	b.n	954a <_printf_i+0xde>
    94e8:	000e      	movs	r6, r1
    94ea:	681a      	ldr	r2, [r3, #0]
    94ec:	3642      	adds	r6, #66	; 0x42
    94ee:	1d11      	adds	r1, r2, #4
    94f0:	6019      	str	r1, [r3, #0]
    94f2:	6813      	ldr	r3, [r2, #0]
    94f4:	7033      	strb	r3, [r6, #0]
    94f6:	2301      	movs	r3, #1
    94f8:	e079      	b.n	95ee <_printf_i+0x182>
    94fa:	0649      	lsls	r1, r1, #25
    94fc:	d5d9      	bpl.n	94b2 <_printf_i+0x46>
    94fe:	1d11      	adds	r1, r2, #4
    9500:	6019      	str	r1, [r3, #0]
    9502:	2300      	movs	r3, #0
    9504:	5ed5      	ldrsh	r5, [r2, r3]
    9506:	2d00      	cmp	r5, #0
    9508:	da03      	bge.n	9512 <_printf_i+0xa6>
    950a:	232d      	movs	r3, #45	; 0x2d
    950c:	9a04      	ldr	r2, [sp, #16]
    950e:	426d      	negs	r5, r5
    9510:	7013      	strb	r3, [r2, #0]
    9512:	4b62      	ldr	r3, [pc, #392]	; (969c <_printf_i+0x230>)
    9514:	270a      	movs	r7, #10
    9516:	9303      	str	r3, [sp, #12]
    9518:	e02f      	b.n	957a <_printf_i+0x10e>
    951a:	6820      	ldr	r0, [r4, #0]
    951c:	6819      	ldr	r1, [r3, #0]
    951e:	0605      	lsls	r5, r0, #24
    9520:	d503      	bpl.n	952a <_printf_i+0xbe>
    9522:	1d08      	adds	r0, r1, #4
    9524:	6018      	str	r0, [r3, #0]
    9526:	680d      	ldr	r5, [r1, #0]
    9528:	e005      	b.n	9536 <_printf_i+0xca>
    952a:	0640      	lsls	r0, r0, #25
    952c:	d5f9      	bpl.n	9522 <_printf_i+0xb6>
    952e:	680d      	ldr	r5, [r1, #0]
    9530:	1d08      	adds	r0, r1, #4
    9532:	6018      	str	r0, [r3, #0]
    9534:	b2ad      	uxth	r5, r5
    9536:	4b59      	ldr	r3, [pc, #356]	; (969c <_printf_i+0x230>)
    9538:	2708      	movs	r7, #8
    953a:	9303      	str	r3, [sp, #12]
    953c:	2a6f      	cmp	r2, #111	; 0x6f
    953e:	d018      	beq.n	9572 <_printf_i+0x106>
    9540:	270a      	movs	r7, #10
    9542:	e016      	b.n	9572 <_printf_i+0x106>
    9544:	3145      	adds	r1, #69	; 0x45
    9546:	700a      	strb	r2, [r1, #0]
    9548:	4a54      	ldr	r2, [pc, #336]	; (969c <_printf_i+0x230>)
    954a:	9203      	str	r2, [sp, #12]
    954c:	681a      	ldr	r2, [r3, #0]
    954e:	6821      	ldr	r1, [r4, #0]
    9550:	1d10      	adds	r0, r2, #4
    9552:	6018      	str	r0, [r3, #0]
    9554:	6815      	ldr	r5, [r2, #0]
    9556:	0608      	lsls	r0, r1, #24
    9558:	d522      	bpl.n	95a0 <_printf_i+0x134>
    955a:	07cb      	lsls	r3, r1, #31
    955c:	d502      	bpl.n	9564 <_printf_i+0xf8>
    955e:	2320      	movs	r3, #32
    9560:	4319      	orrs	r1, r3
    9562:	6021      	str	r1, [r4, #0]
    9564:	2710      	movs	r7, #16
    9566:	2d00      	cmp	r5, #0
    9568:	d103      	bne.n	9572 <_printf_i+0x106>
    956a:	2320      	movs	r3, #32
    956c:	6822      	ldr	r2, [r4, #0]
    956e:	439a      	bics	r2, r3
    9570:	6022      	str	r2, [r4, #0]
    9572:	0023      	movs	r3, r4
    9574:	2200      	movs	r2, #0
    9576:	3343      	adds	r3, #67	; 0x43
    9578:	701a      	strb	r2, [r3, #0]
    957a:	6863      	ldr	r3, [r4, #4]
    957c:	60a3      	str	r3, [r4, #8]
    957e:	2b00      	cmp	r3, #0
    9580:	db5c      	blt.n	963c <_printf_i+0x1d0>
    9582:	2204      	movs	r2, #4
    9584:	6821      	ldr	r1, [r4, #0]
    9586:	4391      	bics	r1, r2
    9588:	6021      	str	r1, [r4, #0]
    958a:	2d00      	cmp	r5, #0
    958c:	d158      	bne.n	9640 <_printf_i+0x1d4>
    958e:	9e04      	ldr	r6, [sp, #16]
    9590:	2b00      	cmp	r3, #0
    9592:	d064      	beq.n	965e <_printf_i+0x1f2>
    9594:	0026      	movs	r6, r4
    9596:	9b03      	ldr	r3, [sp, #12]
    9598:	3642      	adds	r6, #66	; 0x42
    959a:	781b      	ldrb	r3, [r3, #0]
    959c:	7033      	strb	r3, [r6, #0]
    959e:	e05e      	b.n	965e <_printf_i+0x1f2>
    95a0:	0648      	lsls	r0, r1, #25
    95a2:	d5da      	bpl.n	955a <_printf_i+0xee>
    95a4:	b2ad      	uxth	r5, r5
    95a6:	e7d8      	b.n	955a <_printf_i+0xee>
    95a8:	6809      	ldr	r1, [r1, #0]
    95aa:	681a      	ldr	r2, [r3, #0]
    95ac:	0608      	lsls	r0, r1, #24
    95ae:	d505      	bpl.n	95bc <_printf_i+0x150>
    95b0:	1d11      	adds	r1, r2, #4
    95b2:	6019      	str	r1, [r3, #0]
    95b4:	6813      	ldr	r3, [r2, #0]
    95b6:	6962      	ldr	r2, [r4, #20]
    95b8:	601a      	str	r2, [r3, #0]
    95ba:	e006      	b.n	95ca <_printf_i+0x15e>
    95bc:	0649      	lsls	r1, r1, #25
    95be:	d5f7      	bpl.n	95b0 <_printf_i+0x144>
    95c0:	1d11      	adds	r1, r2, #4
    95c2:	6019      	str	r1, [r3, #0]
    95c4:	6813      	ldr	r3, [r2, #0]
    95c6:	8aa2      	ldrh	r2, [r4, #20]
    95c8:	801a      	strh	r2, [r3, #0]
    95ca:	2300      	movs	r3, #0
    95cc:	9e04      	ldr	r6, [sp, #16]
    95ce:	6123      	str	r3, [r4, #16]
    95d0:	e054      	b.n	967c <_printf_i+0x210>
    95d2:	681a      	ldr	r2, [r3, #0]
    95d4:	1d11      	adds	r1, r2, #4
    95d6:	6019      	str	r1, [r3, #0]
    95d8:	6816      	ldr	r6, [r2, #0]
    95da:	2100      	movs	r1, #0
    95dc:	6862      	ldr	r2, [r4, #4]
    95de:	0030      	movs	r0, r6
    95e0:	f000 f86a 	bl	96b8 <memchr>
    95e4:	2800      	cmp	r0, #0
    95e6:	d001      	beq.n	95ec <_printf_i+0x180>
    95e8:	1b80      	subs	r0, r0, r6
    95ea:	6060      	str	r0, [r4, #4]
    95ec:	6863      	ldr	r3, [r4, #4]
    95ee:	6123      	str	r3, [r4, #16]
    95f0:	2300      	movs	r3, #0
    95f2:	9a04      	ldr	r2, [sp, #16]
    95f4:	7013      	strb	r3, [r2, #0]
    95f6:	e041      	b.n	967c <_printf_i+0x210>
    95f8:	6923      	ldr	r3, [r4, #16]
    95fa:	0032      	movs	r2, r6
    95fc:	9906      	ldr	r1, [sp, #24]
    95fe:	9805      	ldr	r0, [sp, #20]
    9600:	9d07      	ldr	r5, [sp, #28]
    9602:	47a8      	blx	r5
    9604:	1c43      	adds	r3, r0, #1
    9606:	d043      	beq.n	9690 <_printf_i+0x224>
    9608:	6823      	ldr	r3, [r4, #0]
    960a:	2500      	movs	r5, #0
    960c:	079b      	lsls	r3, r3, #30
    960e:	d40f      	bmi.n	9630 <_printf_i+0x1c4>
    9610:	9b09      	ldr	r3, [sp, #36]	; 0x24
    9612:	68e0      	ldr	r0, [r4, #12]
    9614:	4298      	cmp	r0, r3
    9616:	da3d      	bge.n	9694 <_printf_i+0x228>
    9618:	0018      	movs	r0, r3
    961a:	e03b      	b.n	9694 <_printf_i+0x228>
    961c:	0022      	movs	r2, r4
    961e:	2301      	movs	r3, #1
    9620:	3219      	adds	r2, #25
    9622:	9906      	ldr	r1, [sp, #24]
    9624:	9805      	ldr	r0, [sp, #20]
    9626:	9e07      	ldr	r6, [sp, #28]
    9628:	47b0      	blx	r6
    962a:	1c43      	adds	r3, r0, #1
    962c:	d030      	beq.n	9690 <_printf_i+0x224>
    962e:	3501      	adds	r5, #1
    9630:	68e3      	ldr	r3, [r4, #12]
    9632:	9a09      	ldr	r2, [sp, #36]	; 0x24
    9634:	1a9b      	subs	r3, r3, r2
    9636:	429d      	cmp	r5, r3
    9638:	dbf0      	blt.n	961c <_printf_i+0x1b0>
    963a:	e7e9      	b.n	9610 <_printf_i+0x1a4>
    963c:	2d00      	cmp	r5, #0
    963e:	d0a9      	beq.n	9594 <_printf_i+0x128>
    9640:	9e04      	ldr	r6, [sp, #16]
    9642:	0028      	movs	r0, r5
    9644:	0039      	movs	r1, r7
    9646:	f7fd fd27 	bl	7098 <__aeabi_uidivmod>
    964a:	9b03      	ldr	r3, [sp, #12]
    964c:	3e01      	subs	r6, #1
    964e:	5c5b      	ldrb	r3, [r3, r1]
    9650:	0028      	movs	r0, r5
    9652:	7033      	strb	r3, [r6, #0]
    9654:	0039      	movs	r1, r7
    9656:	f7fd fc99 	bl	6f8c <__udivsi3>
    965a:	1e05      	subs	r5, r0, #0
    965c:	d1f1      	bne.n	9642 <_printf_i+0x1d6>
    965e:	2f08      	cmp	r7, #8
    9660:	d109      	bne.n	9676 <_printf_i+0x20a>
    9662:	6823      	ldr	r3, [r4, #0]
    9664:	07db      	lsls	r3, r3, #31
    9666:	d506      	bpl.n	9676 <_printf_i+0x20a>
    9668:	6863      	ldr	r3, [r4, #4]
    966a:	6922      	ldr	r2, [r4, #16]
    966c:	4293      	cmp	r3, r2
    966e:	dc02      	bgt.n	9676 <_printf_i+0x20a>
    9670:	2330      	movs	r3, #48	; 0x30
    9672:	3e01      	subs	r6, #1
    9674:	7033      	strb	r3, [r6, #0]
    9676:	9b04      	ldr	r3, [sp, #16]
    9678:	1b9b      	subs	r3, r3, r6
    967a:	6123      	str	r3, [r4, #16]
    967c:	9b07      	ldr	r3, [sp, #28]
    967e:	aa09      	add	r2, sp, #36	; 0x24
    9680:	9300      	str	r3, [sp, #0]
    9682:	0021      	movs	r1, r4
    9684:	9b06      	ldr	r3, [sp, #24]
    9686:	9805      	ldr	r0, [sp, #20]
    9688:	f7ff fe82 	bl	9390 <_printf_common>
    968c:	1c43      	adds	r3, r0, #1
    968e:	d1b3      	bne.n	95f8 <_printf_i+0x18c>
    9690:	2001      	movs	r0, #1
    9692:	4240      	negs	r0, r0
    9694:	b00b      	add	sp, #44	; 0x2c
    9696:	bdf0      	pop	{r4, r5, r6, r7, pc}
    9698:	0000ab90 	.word	0x0000ab90
    969c:	0000ab7f 	.word	0x0000ab7f

000096a0 <__ascii_wctomb>:
    96a0:	1e0b      	subs	r3, r1, #0
    96a2:	d004      	beq.n	96ae <__ascii_wctomb+0xe>
    96a4:	2aff      	cmp	r2, #255	; 0xff
    96a6:	d904      	bls.n	96b2 <__ascii_wctomb+0x12>
    96a8:	238a      	movs	r3, #138	; 0x8a
    96aa:	6003      	str	r3, [r0, #0]
    96ac:	3b8b      	subs	r3, #139	; 0x8b
    96ae:	0018      	movs	r0, r3
    96b0:	4770      	bx	lr
    96b2:	700a      	strb	r2, [r1, #0]
    96b4:	2301      	movs	r3, #1
    96b6:	e7fa      	b.n	96ae <__ascii_wctomb+0xe>

000096b8 <memchr>:
    96b8:	b2c9      	uxtb	r1, r1
    96ba:	1882      	adds	r2, r0, r2
    96bc:	4290      	cmp	r0, r2
    96be:	d101      	bne.n	96c4 <memchr+0xc>
    96c0:	2000      	movs	r0, #0
    96c2:	4770      	bx	lr
    96c4:	7803      	ldrb	r3, [r0, #0]
    96c6:	428b      	cmp	r3, r1
    96c8:	d0fb      	beq.n	96c2 <memchr+0xa>
    96ca:	3001      	adds	r0, #1
    96cc:	e7f6      	b.n	96bc <memchr+0x4>

000096ce <memmove>:
    96ce:	b510      	push	{r4, lr}
    96d0:	4288      	cmp	r0, r1
    96d2:	d902      	bls.n	96da <memmove+0xc>
    96d4:	188b      	adds	r3, r1, r2
    96d6:	4298      	cmp	r0, r3
    96d8:	d308      	bcc.n	96ec <memmove+0x1e>
    96da:	2300      	movs	r3, #0
    96dc:	429a      	cmp	r2, r3
    96de:	d007      	beq.n	96f0 <memmove+0x22>
    96e0:	5ccc      	ldrb	r4, [r1, r3]
    96e2:	54c4      	strb	r4, [r0, r3]
    96e4:	3301      	adds	r3, #1
    96e6:	e7f9      	b.n	96dc <memmove+0xe>
    96e8:	5c8b      	ldrb	r3, [r1, r2]
    96ea:	5483      	strb	r3, [r0, r2]
    96ec:	3a01      	subs	r2, #1
    96ee:	d2fb      	bcs.n	96e8 <memmove+0x1a>
    96f0:	bd10      	pop	{r4, pc}

000096f2 <_realloc_r>:
    96f2:	b5f8      	push	{r3, r4, r5, r6, r7, lr}
    96f4:	0007      	movs	r7, r0
    96f6:	000d      	movs	r5, r1
    96f8:	0016      	movs	r6, r2
    96fa:	2900      	cmp	r1, #0
    96fc:	d105      	bne.n	970a <_realloc_r+0x18>
    96fe:	0011      	movs	r1, r2
    9700:	f7ff fb78 	bl	8df4 <_malloc_r>
    9704:	0004      	movs	r4, r0
    9706:	0020      	movs	r0, r4
    9708:	bdf8      	pop	{r3, r4, r5, r6, r7, pc}
    970a:	2a00      	cmp	r2, #0
    970c:	d103      	bne.n	9716 <_realloc_r+0x24>
    970e:	f7ff fb27 	bl	8d60 <_free_r>
    9712:	0034      	movs	r4, r6
    9714:	e7f7      	b.n	9706 <_realloc_r+0x14>
    9716:	f000 f812 	bl	973e <_malloc_usable_size_r>
    971a:	002c      	movs	r4, r5
    971c:	4286      	cmp	r6, r0
    971e:	d9f2      	bls.n	9706 <_realloc_r+0x14>
    9720:	0031      	movs	r1, r6
    9722:	0038      	movs	r0, r7
    9724:	f7ff fb66 	bl	8df4 <_malloc_r>
    9728:	1e04      	subs	r4, r0, #0
    972a:	d0ec      	beq.n	9706 <_realloc_r+0x14>
    972c:	0029      	movs	r1, r5
    972e:	0032      	movs	r2, r6
    9730:	f7ff fb04 	bl	8d3c <memcpy>
    9734:	0029      	movs	r1, r5
    9736:	0038      	movs	r0, r7
    9738:	f7ff fb12 	bl	8d60 <_free_r>
    973c:	e7e3      	b.n	9706 <_realloc_r+0x14>

0000973e <_malloc_usable_size_r>:
    973e:	1f0b      	subs	r3, r1, #4
    9740:	681b      	ldr	r3, [r3, #0]
    9742:	1f18      	subs	r0, r3, #4
    9744:	2b00      	cmp	r3, #0
    9746:	da01      	bge.n	974c <_malloc_usable_size_r+0xe>
    9748:	580b      	ldr	r3, [r1, r0]
    974a:	18c0      	adds	r0, r0, r3
    974c:	4770      	bx	lr
    974e:	0000      	movs	r0, r0
    9750:	00082008 	.word	0x00082008
    9754:	65636341 	.word	0x65636341
    9758:	6172656c 	.word	0x6172656c
    975c:	6e6f6974 	.word	0x6e6f6974
    9760:	676d5b20 	.word	0x676d5b20
    9764:	20583a5d 	.word	0x20583a5d
    9768:	59096425 	.word	0x59096425
    976c:	09642520 	.word	0x09642520
    9770:	6425205a 	.word	0x6425205a
    9774:	00000a0d 	.word	0x00000a0d
    9778:	64206f4e 	.word	0x64206f4e
    977c:	20617461 	.word	0x20617461
    9780:	64616572 	.word	0x64616572
    9784:	0d202179 	.word	0x0d202179
    9788:	0000000a 	.word	0x0000000a
    978c:	64757453 	.word	0x64757453
    9790:	73746e65 	.word	0x73746e65
    9794:	206f7420 	.word	0x206f7420
    9798:	6c6c6966 	.word	0x6c6c6966
    979c:	74756f20 	.word	0x74756f20
    97a0:	00000021 	.word	0x00000021
    97a4:	00736c63 	.word	0x00736c63
    97a8:	3a736c63 	.word	0x3a736c63
    97ac:	656c4320 	.word	0x656c4320
    97b0:	20737261 	.word	0x20737261
    97b4:	20656874 	.word	0x20656874
    97b8:	6d726574 	.word	0x6d726574
    97bc:	6c616e69 	.word	0x6c616e69
    97c0:	72637320 	.word	0x72637320
    97c4:	0d6e6565 	.word	0x0d6e6565
    97c8:	0000000a 	.word	0x0000000a
    97cc:	0064656c 	.word	0x0064656c
    97d0:	2064656c 	.word	0x2064656c
    97d4:	79656b5b 	.word	0x79656b5b
    97d8:	5d6d756e 	.word	0x5d6d756e
    97dc:	5b5d525b 	.word	0x5b5d525b
    97e0:	425b5d47 	.word	0x425b5d47
    97e4:	53203a5d 	.word	0x53203a5d
    97e8:	20737465 	.word	0x20737465
    97ec:	20656874 	.word	0x20656874
    97f0:	65766967 	.word	0x65766967
    97f4:	454c206e 	.word	0x454c206e
    97f8:	6f742044 	.word	0x6f742044
    97fc:	65687420 	.word	0x65687420
    9800:	76696720 	.word	0x76696720
    9804:	52206e65 	.word	0x52206e65
    9808:	422c472c 	.word	0x422c472c
    980c:	6c617620 	.word	0x6c617620
    9810:	2e736575 	.word	0x2e736575
    9814:	00000a0d 	.word	0x00000a0d
    9818:	65736572 	.word	0x65736572
    981c:	00000074 	.word	0x00000074
    9820:	65736572 	.word	0x65736572
    9824:	52203a74 	.word	0x52203a74
    9828:	74657365 	.word	0x74657365
    982c:	68742073 	.word	0x68742073
    9830:	65642065 	.word	0x65642065
    9834:	65636976 	.word	0x65636976
    9838:	00000a0d 	.word	0x00000a0d
    983c:	00756d69 	.word	0x00756d69
    9840:	3a756d69 	.word	0x3a756d69
    9844:	74655220 	.word	0x74655220
    9848:	736e7275 	.word	0x736e7275
    984c:	76206120 	.word	0x76206120
    9850:	65756c61 	.word	0x65756c61
    9854:	6f726620 	.word	0x6f726620
    9858:	6874206d 	.word	0x6874206d
    985c:	4d492065 	.word	0x4d492065
    9860:	000a0d55 	.word	0x000a0d55
    9864:	65657246 	.word	0x65657246
    9868:	534f5452 	.word	0x534f5452
    986c:	494c4320 	.word	0x494c4320
    9870:	540a0d2e 	.word	0x540a0d2e
    9874:	20657079 	.word	0x20657079
    9878:	706c6548 	.word	0x706c6548
    987c:	206f7420 	.word	0x206f7420
    9880:	77656976 	.word	0x77656976
    9884:	6c206120 	.word	0x6c206120
    9888:	20747369 	.word	0x20747369
    988c:	7220666f 	.word	0x7220666f
    9890:	73696765 	.word	0x73696765
    9894:	65726574 	.word	0x65726574
    9898:	6f632064 	.word	0x6f632064
    989c:	6e616d6d 	.word	0x6e616d6d
    98a0:	0d2e7364 	.word	0x0d2e7364
    98a4:	0000000a 	.word	0x0000000a
    98a8:	6c756f43 	.word	0x6c756f43
    98ac:	6f6e2064 	.word	0x6f6e2064
    98b0:	6c612074 	.word	0x6c612074
    98b4:	61636f6c 	.word	0x61636f6c
    98b8:	73206574 	.word	0x73206574
    98bc:	70616d65 	.word	0x70616d65
    98c0:	65726f68 	.word	0x65726f68
    98c4:	00000a0d 	.word	0x00000a0d
    98c8:	0000616f 	.word	0x0000616f
    98cc:	325b6325 	.word	0x325b6325
    98d0:	003e0d4b 	.word	0x003e0d4b

000098d4 <xClearScreen>:
    98d4:	000097a4 000097a8 0000062d 00000000     ........-.......
    98e4:	325b6325 0000004a                       %c[2J...

000098ec <xImuGetCommand>:
    98ec:	0000983c 00009840 00000579 00000000     <...@...y.......

000098fc <xNeotrellisTurnLEDCommand>:
    98fc:	000097cc 000097d0 00000659 00000004     ........Y.......

0000990c <xResetCommand>:
    990c:	00009818 00009820 00000561 00000000     .... ...a.......
    991c:	00001010 0000050e 6f727245 6e692072     ........Error in
    992c:	61697469 697a696c 5320676e 61736565     itializing Seesa
    993c:	0a0d2177 00000000 2072754f 6f727265     w!......Our erro
    994c:	6e692072 65646973 65657320 20776173     r inside seesaw 
    995c:	203a7369 0a0d6425 00000000 6f727245     is: %d......Erro
    996c:	000a0d72 73206f4e 61736565 44492077     r...No seesaw ID
    997c:	000a0d20 6e756f46 65532064 77617365      ...Found Seesaw
    998c:	000a0d21 6c756f43 6f6e2064 72772074     !...Could not wr
    999c:	20657469 73656553 70207761 0d216e69     ite Seesaw pin!.
    99ac:	0000000a 6c756f43 6f6e2064 65732074     ....Could not se
    99bc:	65732074 77617365 6f654e20 65786970     t seesaw Neopixe
    99cc:	7073206c 21646565 00000a0d 6c756f43     l speed!....Coul
    99dc:	6f6e2064 65732074 65732074 77617365     d not set seesaw
    99ec:	6f654e20 65786970 756e206c 7265626d      Neopixel number
    99fc:	20666f20 69766564 0d736563 0000000a      of devices.....
    9a0c:	6c756f43 6f6e2064 6e692074 61697469     Could not initia
    9a1c:	657a696c 79654b20 21646170 00000a0d     lize Keypad!....

00009a2c <msgBaseGetHWID>:
    9a2c:	00000100                                ....

00009a30 <msgKeypadEnableInt>:
    9a30:	00010210                                ....

00009a34 <msgNeopixelBufLength>:
    9a34:	3000030e                                ...0

00009a38 <msgNeopixelPin>:
    9a38:	0003010e                                ....

00009a3c <msgNeopixelSpeed>:
    9a3c:	0001020e 54204955 206b7361 72617453     ....UI Task Star
    9a4c:	21646574 00000000 6f636e49 63657272     ted!....Incorrec
    9a5c:	6f632074 6e616d6d 61702064 656d6172     t command parame
    9a6c:	28726574 202e2973 746e4520 22207265     ter(s).  Enter "
    9a7c:	706c6568 6f742022 65697620 20612077     help" to view a 
    9a8c:	7473696c 20666f20 69617661 6c62616c     list of availabl
    9a9c:	6f632065 6e616d6d 0d2e7364 000a0d0a     e commands......
    9aac:	6d6d6f43 20646e61 20746f6e 6f636572     Command not reco
    9abc:	73696e67 202e6465 746e4520 27207265     gnised.  Enter '
    9acc:	706c6568 6f742027 65697620 20612077     help' to view a 
    9adc:	7473696c 20666f20 69617661 6c62616c     list of availabl
    9aec:	6f632065 6e616d6d 0d2e7364 000a0d0a     e commands......
    9afc:	706c6568 00000000 65680a0d 0d3a706c     help......help:.
    9b0c:	694c200a 20737473 206c6c61 20656874     . Lists all the 
    9b1c:	69676572 72657473 63206465 616d6d6f     registered comma
    9b2c:	0d73646e 000a0d0a                       nds.....

00009b34 <xHelpCommand>:
    9b34:	00009afc 00009b04 00001ad1 00000000     ................
    9b44:	00001ed8 00001ed0 00001ed4 00001ef0     ................
    9b54:	00001ecc 00001edc 00001ee0 00001ee4     ................
    9b64:	00001ee8 20746f4e 756f6e65 54206867     ....Not enough T
    9b74:	204b5341 646e6168 2073656c 6e69202d     ASK handles - in
    9b84:	61657263 54206573 435f4352 4e5f4746     crease TRC_CFG_N
    9b94:	4b534154 206e6920 53637274 7370616e     TASK in trcSnaps
    9ba4:	43746f68 69666e6f 00682e67 20746f4e     hotConfig.h.Not 
    9bb4:	756f6e65 49206867 68205253 6c646e61     enough ISR handl
    9bc4:	2d207365 636e6920 73616572 52542065     es - increase TR
    9bd4:	46435f43 494e5f47 69205253 7274206e     C_CFG_NISR in tr
    9be4:	616e5363 6f687370 6e6f4374 2e676966     cSnapshotConfig.
    9bf4:	00000068 20746f4e 756f6e65 53206867     h...Not enough S
    9c04:	50414d45 45524f48 6e616820 73656c64     EMAPHORE handles
    9c14:	69202d20 6572636e 20657361 5f435254      - increase TRC_
    9c24:	5f474643 4d45534e 4f485041 69204552     CFG_NSEMAPHORE i
    9c34:	7274206e 616e5363 6f687370 6e6f4374     n trcSnapshotCon
    9c44:	2e676966 00000068 20746f4e 756f6e65     fig.h...Not enou
    9c54:	4d206867 58455455 6e616820 73656c64     gh MUTEX handles
    9c64:	69202d20 6572636e 20657361 5f435254      - increase TRC_
    9c74:	5f474643 54554d4e 69205845 7274206e     CFG_NMUTEX in tr
    9c84:	616e5363 6f687370 6e6f4374 2e676966     cSnapshotConfig.
    9c94:	00000068 20746f4e 756f6e65 51206867     h...Not enough Q
    9ca4:	45554555 6e616820 73656c64 69202d20     UEUE handles - i
    9cb4:	6572636e 20657361 5f435254 5f474643     ncrease TRC_CFG_
    9cc4:	4555514e 69204555 7274206e 616e5363     NQUEUE in trcSna
    9cd4:	6f687370 6e6f4374 2e676966 00000068     pshotConfig.h...
    9ce4:	20746f4e 756f6e65 54206867 52454d49     Not enough TIMER
    9cf4:	6e616820 73656c64 69202d20 6572636e      handles - incre
    9d04:	20657361 5f435254 5f474643 4d49544e     ase TRC_CFG_NTIM
    9d14:	69205245 7274206e 616e5363 6f687370     ER in trcSnapsho
    9d24:	6e6f4374 2e676966 00000068 20746f4e     tConfig.h...Not 
    9d34:	756f6e65 45206867 544e4556 554f5247     enough EVENTGROU
    9d44:	61682050 656c646e 202d2073 72636e69     P handles - incr
    9d54:	65736165 43525420 4746435f 56454e5f     ease TRC_CFG_NEV
    9d64:	47544e45 50554f52 206e6920 53637274     ENTGROUP in trcS
    9d74:	7370616e 43746f68 69666e6f 00682e67     napshotConfig.h.
    9d84:	20746f4e 756f6e65 53206867 41455254     Not enough STREA
    9d94:	4655424d 20524546 646e6168 2073656c     MBUFFER handles 
    9da4:	6e69202d 61657263 54206573 435f4352     - increase TRC_C
    9db4:	4e5f4746 45525453 55424d41 52454646     FG_NSTREAMBUFFER
    9dc4:	206e6920 53637274 7370616e 43746f68      in trcSnapshotC
    9dd4:	69666e6f 00682e67 20746f4e 756f6e65     onfig.h.Not enou
    9de4:	4d206867 41535345 55424547 52454646     gh MESSAGEBUFFER
    9df4:	6e616820 73656c64 69202d20 6572636e      handles - incre
    9e04:	20657361 5f435254 5f474643 53454d4e     ase TRC_CFG_NMES
    9e14:	45474153 46465542 69205245 7274206e     SAGEBUFFER in tr
    9e24:	616e5363 6f687370 6e6f4374 2e676966     cSnapshotConfig.
    9e34:	00000068 547a7370 65636172 45746547     h...pszTraceGetE
    9e44:	726f7272 646e6148 3a73656c 766e4920     rrorHandles: Inv
    9e54:	64696c61 6a626f20 63746365 7373616c     alid objectclass
    9e64:	00000021 61725476 6e456563 656c6261     !...vTraceEnable
    9e74:	43525428 4154535f 415f5452 54494157     (TRC_START_AWAIT
    9e84:	534f485f 6e202954 6120746f 776f6c6c     _HOST) not allow
    9e94:	69206465 6e53206e 68737061 6d20746f     ed in Snapshot m
    9ea4:	0065646f 78656e55 74636570 61206465     ode.Unexpected a
    9eb4:	6d756772 20746e65 76206f74 63617254     rgument to vTrac
    9ec4:	616e4565 20656c62 616e7328 6f687370     eEnable (snapsho
    9ed4:	6f6d2074 00296564 43415254 53415f45     t mode).TRACE_AS
    9ee4:	54524553 7270203a 65684376 61446b63     SERT: prvCheckDa
    9ef4:	6f546174 764f6542 72777265 65747469     taToBeOverwritte
    9f04:	726f466e 746c754d 746e4569 76457972     nForMultiEntryEv
    9f14:	73746e65 6f6e203a 746e4566 73656972     ents: nofEntries
    9f24:	68436f54 206b6365 30203d3d 00000000     ToCheck == 0....
    9f34:	43415254 53415f45 54524553 7270203a     TRACE_ASSERT: pr
    9f44:	61725476 65476563 53544474 6e49203a     vTraceGetDTS: In
    9f54:	696c6176 61762064 2065756c 20726f66     valid value for 
    9f64:	61726170 616d5f6d 53544478 00000000     param_maxDTS....
    9f74:	20646142 61726170 616d5f6d 53544478     Bad param_maxDTS
    9f84:	206e6920 54767270 65636172 44746547      in prvTraceGetD
    9f94:	00005354 43415254 53415f45 54524553     TS..TRACE_ASSERT
    9fa4:	7270203a 61725476 65476563 6a624f74     : prvTraceGetObj
    9fb4:	48746365 6c646e61 49203a65 6c61766e     ectHandle: Inval
    9fc4:	76206469 65756c61 726f6620 6a626f20     id value for obj
    9fd4:	63746365 7373616c 00000000 43415254     ectclass....TRAC
    9fe4:	53415f45 54524553 7270203a 61725476     E_ASSERT: prvTra
    9ff4:	65476563 72615074 203a6d61 61766e49     ceGetParam: Inva
    a004:	2064696c 756c6176 6f662065 61702072     lid value for pa
    a014:	5f6d6172 0078616d 43415254 53415f45     ram_max.TRACE_AS
    a024:	54524553 7270203a 61725476 65476563     SERT: prvTraceGe
    a034:	69725074 7469726f 6f725079 74726570     tPriorityPropert
    a044:	6f203a79 63656a62 616c6374 3e207373     y: objectclass >
    a054:	5254203d 5f454341 414c434e 53455353     = TRACE_NCLASSES
    a064:	00000000 43415254 53415f45 54524553     ....TRACE_ASSERT
    a074:	7270203a 61725476 65476563 69725074     : prvTraceGetPri
    a084:	7469726f 6f725079 74726570 49203a79     orityProperty: I
    a094:	6c61766e 76206469 65756c61 726f6620     nvalid value for
    a0a4:	00646920 63617254 65522065 64726f63      id.Trace Record
    a0b4:	44207265 006f6d65 65747441 2074706d     er Demo.Attempt 
    a0c4:	69206f74 7865646e 74756f20 65646973     to index outside
    a0d4:	65766520 6220746e 65666675 00002172      event buffer!..
    a0e4:	43415254 53415f45 54524553 7270203a     TRACE_ASSERT: pr
    a0f4:	61725476 65536563 6a624f74 4e746365     vTraceSetObjectN
    a104:	3a656d61 6d616e20 3d3d2065 4c554e20     ame: name == NUL
    a114:	0000004c 656c6c49 206c6167 656a626f     L...Illegal obje
    a124:	63207463 7373616c 206e6920 54767270     ct class in prvT
    a134:	65636172 4f746553 63656a62 6d614e74     raceSetObjectNam
    a144:	00000065 656c6c49 206c6167 646e6168     e...Illegal hand
    a154:	2820656c 69202930 7270206e 61725476     le (0) in prvTra
    a164:	65536563 6a624f74 4e746365 2e656d61     ceSetObjectName.
    a174:	00000000 43415254 53415f45 54524553     ....TRACE_ASSERT
    a184:	7270203a 61725476 65536563 6a624f74     : prvTraceSetObj
    a194:	53746365 65746174 626f203a 7463656a     ectState: object
    a1a4:	73616c63 3d3e2073 41525420 4e5f4543     class >= TRACE_N
    a1b4:	53414c43 00534553 43415254 53415f45     CLASSES.TRACE_AS
    a1c4:	54524553 7270203a 61725476 65536563     SERT: prvTraceSe
    a1d4:	6a624f74 53746365 65746174 6e49203a     tObjectState: In
    a1e4:	696c6176 61762064 2065756c 20726f66     valid value for 
    a1f4:	00006469 43415254 53415f45 54524553     id..TRACE_ASSERT
    a204:	7270203a 61725476 65536563 69725074     : prvTraceSetPri
    a214:	7469726f 6f725079 74726570 6f203a79     orityProperty: o
    a224:	63656a62 616c6374 3e207373 5254203d     bjectclass >= TR
    a234:	5f454341 414c434e 53455353 00000000     ACE_NCLASSES....
    a244:	43415254 53415f45 54524553 7270203a     TRACE_ASSERT: pr
    a254:	61725476 65536563 69725074 7469726f     vTraceSetPriorit
    a264:	6f725079 74726570 49203a79 6c61766e     yProperty: Inval
    a274:	76206469 65756c61 726f6620 00646920     id value for id.
    a284:	43415254 53415f45 54524553 7270203a     TRACE_ASSERT: pr
    a294:	61725476 65536563 73615474 736e496b     vTraceSetTaskIns
    a2a4:	636e6174 6e694665 65687369 49203a64     tanceFinished: I
    a2b4:	6c61766e 76206469 65756c61 726f6620     nvalid value for
    a2c4:	6e616820 00656c64 43415254 53415f45      handle.TRACE_AS
    a2d4:	54524553 7270203a 61725476 74536563     SERT: prvTraceSt
    a2e4:	4b65726f 656e7265 6c61436c 65203a6c     oreKernelCall: e
    a2f4:	65646f63 203d3e20 46467830 00000000     code >= 0xFF....
    a304:	43415254 53415f45 54524553 7270203a     TRACE_ASSERT: pr
    a314:	61725476 74536563 4b65726f 656e7265     vTraceStoreKerne
    a324:	6c61436c 6f203a6c 63656a62 616c4374     lCall: objectCla
    a334:	3e207373 5254203d 5f454341 414c434e     ss >= TRACE_NCLA
    a344:	53455353 00000000 43415254 53415f45     SSES....TRACE_AS
    a354:	54524553 7270203a 61725476 74536563     SERT: prvTraceSt
    a364:	4b65726f 656e7265 6c61436c 49203a6c     oreKernelCall: I
    a374:	6c61766e 76206469 65756c61 726f6620     nvalid value for
    a384:	6a626f20 4e746365 65626d75 00000072      objectNumber...
    a394:	6f636552 72656472 73756220 202d2079     Recorder busy - 
    a3a4:	68676968 69727020 7469726f 53492079     high priority IS
    a3b4:	73752052 20676e69 63737973 3f6c6c61     R using syscall?
    a3c4:	29322820 00000000 43415254 53415f45      (2)....TRACE_AS
    a3d4:	54524553 7270203a 61725476 74536563     SERT: prvTraceSt
    a3e4:	4b65726f 656e7265 6c61436c 7469576c     oreKernelCallWit
    a3f4:	6d754e68 63697265 61726150 6c6e4f6d     hNumericParamOnl
    a404:	49203a79 6c61766e 76206469 65756c61     y: Invalid value
    a414:	726f6620 74766520 65646f63 00000000      for evtcode....
    a424:	6f636552 72656472 73756220 202d2079     Recorder busy - 
    a434:	68676968 69727020 7469726f 53492079     high priority IS
    a444:	73752052 20676e69 63737973 3f6c6c61     R using syscall?
    a454:	29342820 00000000 43415254 53415f45      (4)....TRACE_AS
    a464:	54524553 7270203a 61725476 74536563     SERT: prvTraceSt
    a474:	4b65726f 656e7265 6c61436c 7469576c     oreKernelCallWit
    a484:	72615068 203a6d61 63747665 2065646f     hParam: evtcode 
    a494:	30203d3e 00464678 43415254 53415f45     >= 0xFF.TRACE_AS
    a4a4:	54524553 7270203a 61725476 74536563     SERT: prvTraceSt
    a4b4:	4b65726f 656e7265 6c61436c 7469576c     oreKernelCallWit
    a4c4:	72615068 203a6d61 656a626f 6c437463     hParam: objectCl
    a4d4:	20737361 54203d3e 45434152 4c434e5f     ass >= TRACE_NCL
    a4e4:	45535341 00000053 43415254 53415f45     ASSES...TRACE_AS
    a4f4:	54524553 7270203a 61725476 74536563     SERT: prvTraceSt
    a504:	4b65726f 656e7265 6c61436c 7469576c     oreKernelCallWit
    a514:	72615068 203a6d61 61766e49 2064696c     hParam: Invalid 
    a524:	756c6176 6f662065 626f2072 7463656a     value for object
    a534:	626d754e 00007265 6f636552 72656472     Number..Recorder
    a544:	73756220 202d2079 68676968 69727020      busy - high pri
    a554:	7469726f 53492079 73752052 20676e69     ority ISR using 
    a564:	63737973 3f6c6c61 29332820 00000000     syscall? (3)....
    a574:	43415254 53415f45 54524553 7270203a     TRACE_ASSERT: pr
    a584:	61725476 74536563 5465726f 526b7361     vTraceStoreTaskR
    a594:	79646165 6e49203a 696c6176 61762064     eady: Invalid va
    a5a4:	2065756c 20726f66 646e6168 0000656c     lue for handle..
    a5b4:	6f636552 72656472 73756220 202d2079     Recorder busy - 
    a5c4:	68676968 69727020 7469726f 53492079     high priority IS
    a5d4:	73752052 20676e69 63737973 3f6c6c61     R using syscall?
    a5e4:	29312820 00000000 43415254 53415f45      (1)....TRACE_AS
    a5f4:	54524553 7270203a 61725476 74536563     SERT: prvTraceSt
    a604:	5465726f 736b7361 63746977 49203a68     oreTaskswitch: I
    a614:	6c61766e 76206469 65756c61 726f6620     nvalid value for
    a624:	73617420 61685f6b 656c646e 00000000      task_handle....
    a634:	43415254 53415f45 54524553 7270203a     TRACE_ASSERT: pr
    a644:	61725476 65476563 6a624f74 53746365     vTraceGetObjectS
    a654:	65746174 6e49203a 696c6176 61762064     tate: Invalid va
    a664:	2065756c 20726f66 00006469 43415254     lue for id..TRAC
    a674:	53415f45 54524553 6975203a 65646e49     E_ASSERT: uiInde
    a684:	4f664f78 63656a62 49203a74 6c61766e     xOfObject: Inval
    a694:	76206469 65756c61 726f6620 6a626f20     id value for obj
    a6a4:	63746365 7373616c 00000000 43415254     ectclass....TRAC
    a6b4:	53415f45 54524553 6975203a 65646e49     E_ASSERT: uiInde
    a6c4:	4f664f78 63656a62 49203a74 6c61766e     xOfObject: Inval
    a6d4:	76206469 65756c61 726f6620 6a626f20     id value for obj
    a6e4:	68746365 6c646e61 00000065 43415254     ecthandle...TRAC
    a6f4:	53415f45 54524553 6552203a 64726f63     E_ASSERT: Record
    a704:	6e207265 6920746f 6974696e 7a696c61     er not initializ
    a714:	202e6465 20657355 61725476 6e456563     ed. Use vTraceEn
    a724:	656c6261 69202928 6574736e 00216461     able() instead!.
    a734:	61747328 70757472 00000029 43415254     (startup)...TRAC
    a744:	53415f45 54524553 5478203a 65636172     E_ASSERT: xTrace
    a754:	69676552 72657473 69727453 203a676e     RegisterString: 
    a764:	6562616c 3d3d206c 4c554e20 0000004c     label == NULL...
    a774:	43415254 53415f45 54524553 6552203a     TRACE_ASSERT: Re
    a784:	64726f63 6e207265 6920746f 6974696e     corder not initi
    a794:	7a696c61 202c6465 6c6c6163 72547620     alized, call vTr
    a7a4:	45656361 6c62616e 20292865 73726966     aceEnable() firs
    a7b4:	00002174 454c4449 00000000 00005464     t!..IDLE....dT..
    a7c4:	00005464 00005464 000053dc 000054a6     dT..dT...S...T..
    a7d4:	000054c0 00005464 00005464 000053dc     .T..dT..dT...S..
    a7e4:	000054a6 20726d54 00637653 42000800     .T..Tmr Svc....B
    a7f4:	42000c00 42001000 42001400 42001800     ...B...B...B...B
    a804:	42001c00 00006452 0000644e 0000644e     ...BRd..Nd..Nd..
    a814:	000064b4 000064b4 00006466 00006458     .d...d..fd..Xd..
    a824:	0000646c 000064a2 000065e0 000065c0     ld...d...e...e..
    a834:	000065c0 0000664c 000065d2 000065ee     .e..Lf...e...e..
    a844:	000065c4 000065fc 0000663c              .e...e..<f..

0000a850 <_tcc_intflag>:
    a850:	00000001 00000002 00000004 00000008     ................
    a860:	00001000 00002000 00004000 00008000     ..... ...@......
    a870:	00010000 00020000 00040000 00080000     ................
    a880:	0a0d0a0d 2d2d2d2d 4553452d 20363135     ....-----ESE516 
    a890:	6e69614d 6f725020 6d617267 2d2d2d2d     Main Program----
    a8a0:	000a0d2d 0a0d0a0d 74696e49 696c6169     -.......Initiali
    a8b0:	4820657a 2e2e2e57 00000a0d 6f727245     ze HW.......Erro
    a8c0:	6e692072 61697469 697a696c 4920676e     r initializing I
    a8d0:	44204332 65766972 0a0d2172 00000000     2C Driver!......
    a8e0:	74696e49 696c6169 2064657a 20433249     Initialized I2C 
    a8f0:	76697244 0d217265 0000000a 74696e49     Driver!.....Init
    a900:	696c6169 2064657a 73656553 0d217761     ialized Seesaw!.
    a910:	0000000a 20656874 20554d49 69204449     ....the IMU ID i
    a920:	25203a73 000a0d64 6e6e6143 6620746f     s: %d...Cannot f
    a930:	20646e69 21554d49 00000a0d 20554d49     ind IMU!....IMU 
    a940:	6e756f66 0a0d2164 00000000 20554d49     found!......IMU 
    a950:	74696e69 696c6169 2164657a 00000a0d     initialized!....
    a960:	6c756f43 6f6e2064 6e692074 61697469     Could not initia
    a970:	657a696c 554d4920 00000a0d 70616548     lize IMU....Heap
    a980:	66656220 2065726f 72617473 676e6974      before starting
    a990:	73617420 203a736b 0a0d6425 00000000      tasks: %d......
    a9a0:	5f494c43 4b534154 00000000 3a525245     CLI_TASK....ERR:
    a9b0:	494c4320 73617420 6f63206b 20646c75      CLI task could 
    a9c0:	20746f6e 69206562 6974696e 7a696c61     not be initializ
    a9d0:	0d216465 0000000a 70616548 74666120     ed!.....Heap aft
    a9e0:	73207265 74726174 20676e69 3a494c43     er starting CLI:
    a9f0:	0d642520 0000000a 54204955 006b7361      %d.....UI Task.
    aa00:	3a525245 20495520 6b736174 756f6320     ERR: UI task cou
    aa10:	6e20646c 6220746f 6e692065 61697469     ld not be initia
    aa20:	657a696c 0a0d2164 00000000 70616548     lized!......Heap
    aa30:	74666120 73207265 74726174 20676e69      after starting 
    aa40:	54204955 3a6b7361 0d642520 0000000a     UI Task: %d.....
    aa50:	6f727245 6e6f2072 6d656d20 2079726f     Error on memory 
    aa60:	6f6c6c61 69746163 6f206e6f 5246206e     allocation on FR
    aa70:	54524545 0d21534f 0000000a 6f727245     EERTOS!.....Erro
    aa80:	6e6f2072 61747320 6f206b63 66726576     r on stack overf
    aa90:	20776f6c 46206e6f 52454552 21534f54     low on FREERTOS!
    aaa0:	00000a0d 00007224 00007174 00007174     ....$r..tq..tq..
    aab0:	00007172 00007216 00007216 0000720c     rq...r...r...r..
    aac0:	00007172 00007216 0000720c 00007216     rq...r...r...r..
    aad0:	00007172 0000721c 0000721c 0000721c     rq...r...r...r..
    aae0:	000072ac 00007c30 00007c12 00007bcc     .r..0|...|...{..
    aaf0:	00007aea 00007bcc 00007c04 00007bcc     .z...{...|...{..
    ab00:	00007aea 00007c12 00007c12 00007c04     .z...|...|...|..
    ab10:	00007aea 00007ae2 00007ae2 00007ae2     .z...z...z...z..
    ab20:	00007e48 00008290 00008150 00008150     H~......P...P...
    ab30:	0000814c 00008268 00008268 0000825a     L...h...h...Z...
    ab40:	0000814c 00008268 0000825a 00008268     L...h...Z...h...
    ab50:	0000814c 00008270 00008270 00008270     L...p...p...p...
    ab60:	00008474 4f500043 00584953 2d23002e     t...C.POSIX...#-
    ab70:	00202b30 004c6c68 45676665 30004746     0+ .hlL.efgEFG.0
    ab80:	34333231 38373635 43424139 00464544     123456789ABCDEF.
    ab90:	33323130 37363534 62613938 66656463     0123456789abcdef
	...

0000aba1 <_ctype_>:
    aba1:	20202000 20202020 28282020 20282828     .         ((((( 
    abb1:	20202020 20202020 20202020 20202020                     
    abc1:	10108820 10101010 10101010 10101010      ...............
    abd1:	04040410 04040404 10040404 10101010     ................
    abe1:	41411010 41414141 01010101 01010101     ..AAAAAA........
    abf1:	01010101 01010101 01010101 10101010     ................
    ac01:	42421010 42424242 02020202 02020202     ..BBBBBB........
    ac11:	02020202 02020202 02020202 10101010     ................
    ac21:	00000020 00000000 00000000 00000000      ...............
	...

0000aca4 <_init>:
    aca4:	b5f8      	push	{r3, r4, r5, r6, r7, lr}
    aca6:	46c0      	nop			; (mov r8, r8)
    aca8:	bcf8      	pop	{r3, r4, r5, r6, r7}
    acaa:	bc08      	pop	{r3}
    acac:	469e      	mov	lr, r3
    acae:	4770      	bx	lr

0000acb0 <__init_array_start>:
    acb0:	000000dd 	.word	0x000000dd

0000acb4 <_fini>:
    acb4:	b5f8      	push	{r3, r4, r5, r6, r7, lr}
    acb6:	46c0      	nop			; (mov r8, r8)
    acb8:	bcf8      	pop	{r3, r4, r5, r6, r7}
    acba:	bc08      	pop	{r3}
    acbc:	469e      	mov	lr, r3
    acbe:	4770      	bx	lr

0000acc0 <__fini_array_start>:
    acc0:	000000b5 	.word	0x000000b5
